; Listing generated by Microsoft (R) Optimizing Compiler Version 19.10.25019.0 

	TITLE	C:\Users\andon\Source\Repos\SpecialK\src\update\archive.cpp
	.686P
	.XMM
	include listing.inc
	.model	flat

INCLUDELIB MSVCRT
INCLUDELIB OLDNAMES

PUBLIC	?config_files_changed@@3_NA			; config_files_changed
EXTRN	_SzAlloc:PROC
EXTRN	_SzFree:PROC
_BSS	SEGMENT
?config_files_changed@@3_NA DB 01H DUP (?)		; config_files_changed
?crc_init@@3_NA DB 01H DUP (?)				; crc_init
_BSS	ENDS
CONST	SEGMENT
$SG147312 DB	'd', 00H, 'e', 00H, 'f', 00H, 'a', 00H, 'u', 00H, 'l', 00H
	DB	't', 00H, '_', 00H, 00H, 00H
	ORG $+6
$SG147317 DB	'[', 00H, 'A', 00H, 'u', 00H, 't', 00H, 'o', 00H, 'U', 00H
	DB	'p', 00H, 'd', 00H, 'a', 00H, 't', 00H, 'e', 00H, ']', 00H, ' '
	DB	00H, ' ', 00H, '*', 00H, '*', 00H, ' ', 00H, 'C', 00H, 'a', 00H
	DB	'n', 00H, 'n', 00H, 'o', 00H, 't', 00H, ' ', 00H, 'o', 00H, 'p'
	DB	00H, 'e', 00H, 'n', 00H, ' ', 00H, 'a', 00H, 'r', 00H, 'c', 00H
	DB	'h', 00H, 'i', 00H, 'v', 00H, 'e', 00H, ' ', 00H, 'f', 00H, 'i'
	DB	00H, 'l', 00H, 'e', 00H, ':', 00H, ' ', 00H, '%', 00H, 's', 00H
	DB	00H, 00H
$SG147326 DB	'\', 00H, 00H, 00H
$SG147319 DB	'[', 00H, 'A', 00H, 'u', 00H, 't', 00H, 'o', 00H, 'U', 00H
	DB	'p', 00H, 'd', 00H, 'a', 00H, 't', 00H, 'e', 00H, ']', 00H, ' '
	DB	00H, 'E', 00H, 'x', 00H, 't', 00H, 'r', 00H, 'a', 00H, 'c', 00H
	DB	't', 00H, 'i', 00H, 'n', 00H, 'g', 00H, ' ', 00H, 'f', 00H, 'i'
	DB	00H, 'l', 00H, 'e', 00H, ' ', 00H, '(', 00H, '''', 00H, '%', 00H
	DB	's', 00H, '''', 00H, ')', 00H, 00H, 00H
$SG147321 DB	'[', 00H, 'A', 00H, 'u', 00H, 't', 00H, 'o', 00H, 'U', 00H
	DB	'p', 00H, 'd', 00H, 'a', 00H, 't', 00H, 'e', 00H, ']', 00H, ' '
	DB	00H, 'F', 00H, 'a', 00H, 'i', 00H, 'l', 00H, 'e', 00H, 'd', 00H
	DB	' ', 00H, 't', 00H, 'o', 00H, ' ', 00H, 'e', 00H, 'x', 00H, 't'
	DB	00H, 'r', 00H, 'a', 00H, 'c', 00H, 't', 00H, ' ', 00H, '7', 00H
	DB	'-', 00H, 'z', 00H, 'i', 00H, 'p', 00H, ' ', 00H, 'f', 00H, 'i'
	DB	00H, 'l', 00H, 'e', 00H, ' ', 00H, '(', 00H, '''', 00H, '%', 00H
	DB	's', 00H, '''', 00H, ')', 00H, 00H, 00H
	ORG $+2
$SG147329 DB	'.', 00H, 'o', 00H, 'l', 00H, 'd', 00H, 00H, 00H
	ORG $+2
$SG147333 DB	'[', 00H, 'A', 00H, 'u', 00H, 't', 00H, 'o', 00H, 'U', 00H
	DB	'p', 00H, 'd', 00H, 'a', 00H, 't', 00H, 'e', 00H, ']', 00H, ' '
	DB	00H, 'F', 00H, 'a', 00H, 'i', 00H, 'l', 00H, 'e', 00H, 'd', 00H
	DB	' ', 00H, 't', 00H, 'o', 00H, ' ', 00H, 'o', 00H, 'p', 00H, 'e'
	DB	00H, 'n', 00H, ' ', 00H, 'f', 00H, 'i', 00H, 'l', 00H, 'e', 00H
	DB	':', 00H, ' ', 00H, '''', 00H, '%', 00H, 's', 00H, '''', 00H, 00H
	DB	00H
	ORG $+2
$SG147338 DB	'[', 00H, 'A', 00H, 'u', 00H, 't', 00H, 'o', 00H, 'U', 00H
	DB	'p', 00H, 'd', 00H, 'a', 00H, 't', 00H, 'e', 00H, ']', 00H, ' '
	DB	00H, ' ', 00H, '*', 00H, '*', 00H, ' ', 00H, 'C', 00H, 'a', 00H
	DB	'n', 00H, 'n', 00H, 'o', 00H, 't', 00H, ' ', 00H, 'o', 00H, 'p'
	DB	00H, 'e', 00H, 'n', 00H, ' ', 00H, 'a', 00H, 'r', 00H, 'c', 00H
	DB	'h', 00H, 'i', 00H, 'v', 00H, 'e', 00H, ' ', 00H, 'f', 00H, 'i'
	DB	00H, 'l', 00H, 'e', 00H, ':', 00H, ' ', 00H, '%', 00H, 's', 00H
	DB	00H, 00H
$SG147344 DB	'd', 00H, 'e', 00H, 'f', 00H, 'a', 00H, 'u', 00H, 'l', 00H
	DB	't', 00H, '_', 00H, 00H, 00H
	ORG $+2
$SG147340 DB	'[', 00H, 'A', 00H, 'u', 00H, 't', 00H, 'o', 00H, 'U', 00H
	DB	'p', 00H, 'd', 00H, 'a', 00H, 't', 00H, 'e', 00H, ']', 00H, ' '
	DB	00H, 'E', 00H, 'x', 00H, 't', 00H, 'r', 00H, 'a', 00H, 'c', 00H
	DB	't', 00H, 'i', 00H, 'n', 00H, 'g', 00H, ' ', 00H, 'c', 00H, 'o'
	DB	00H, 'n', 00H, 'f', 00H, 'i', 00H, 'g', 00H, ' ', 00H, 'f', 00H
	DB	'i', 00H, 'l', 00H, 'e', 00H, ' ', 00H, '(', 00H, '''', 00H, '%'
	DB	00H, 's', 00H, '''', 00H, ')', 00H, 00H, 00H
	ORG $+2
$SG147342 DB	'[', 00H, 'A', 00H, 'u', 00H, 't', 00H, 'o', 00H, 'U', 00H
	DB	'p', 00H, 'd', 00H, 'a', 00H, 't', 00H, 'e', 00H, ']', 00H, ' '
	DB	00H, 'F', 00H, 'a', 00H, 'i', 00H, 'l', 00H, 'e', 00H, 'd', 00H
	DB	' ', 00H, 't', 00H, 'o', 00H, ' ', 00H, 'e', 00H, 'x', 00H, 't'
	DB	00H, 'r', 00H, 'a', 00H, 'c', 00H, 't', 00H, ' ', 00H, '7', 00H
	DB	'-', 00H, 'z', 00H, 'i', 00H, 'p', 00H, ' ', 00H, 'c', 00H, 'o'
	DB	00H, 'n', 00H, 'f', 00H, 'i', 00H, 'g', 00H, ' ', 00H, 'f', 00H
	DB	'i', 00H, 'l', 00H, 'e', 00H, ' ', 00H, '(', 00H, '''', 00H, '%'
	DB	00H, 's', 00H, '''', 00H, ')', 00H, 00H, 00H
$SG147346 DB	'_', 00H, 00H, 00H
$SG147348 DB	'.', 00H, 'o', 00H, 'l', 00H, 'd', 00H, 00H, 00H
	ORG $+2
$SG147349 DB	'.', 00H, 'n', 00H, 'e', 00H, 'w', 00H, 00H, 00H
	ORG $+6
$SG147356 DB	'[', 00H, 'A', 00H, 'u', 00H, 't', 00H, 'o', 00H, 'U', 00H
	DB	'p', 00H, 'd', 00H, 'a', 00H, 't', 00H, 'e', 00H, ']', 00H, ' '
	DB	00H, 'F', 00H, 'a', 00H, 'i', 00H, 'l', 00H, 'e', 00H, 'd', 00H
	DB	' ', 00H, 't', 00H, 'o', 00H, ' ', 00H, 'c', 00H, 'r', 00H, 'e'
	DB	00H, 'a', 00H, 't', 00H, 'e', 00H, ' ', 00H, 'f', 00H, 'i', 00H
	DB	'l', 00H, 'e', 00H, ':', 00H, ' ', 00H, '''', 00H, '%', 00H, 's'
	DB	00H, '''', 00H, 00H, 00H
CONST	ENDS
_DATA	SEGMENT
?g_Alloc@@3UISzAlloc@@A DD FLAT:_SzAlloc		; g_Alloc
	DD	FLAT:_SzFree
_DATA	ENDS
PUBLIC	?wcsstr@@YAPA_WPA_WPB_W@Z			; wcsstr
PUBLIC	_wmemcpy
PUBLIC	_wmemmove
PUBLIC	??2@YAPAXIPAX@Z					; operator new
PUBLIC	?length@?$char_traits@_W@std@@SAIQB_W@Z		; std::char_traits<wchar_t>::length
PUBLIC	?copy@?$char_traits@_W@std@@SAPA_WQA_WQB_WI@Z	; std::char_traits<wchar_t>::copy
PUBLIC	?move@?$char_traits@_W@std@@SAPA_WQA_WQB_WI@Z	; std::char_traits<wchar_t>::move
PUBLIC	?assign@?$char_traits@_W@std@@SAXAA_WAB_W@Z	; std::char_traits<wchar_t>::assign
PUBLIC	?_Orphan_all@_Container_base0@std@@QAEXXZ	; std::_Container_base0::_Orphan_all
PUBLIC	?_Swap_all@_Container_base0@std@@QAEXAAU12@@Z	; std::_Container_base0::_Swap_all
PUBLIC	?_Adopt@_Iterator_base0@std@@QAEXPBX@Z		; std::_Iterator_base0::_Adopt
PUBLIC	?_Allocate@std@@YAPAXII_N@Z			; std::_Allocate
PUBLIC	?_Deallocate@std@@YAXPAXII@Z			; std::_Deallocate
PUBLIC	??0?$allocator@_W@std@@QAE@XZ			; std::allocator<wchar_t>::allocator<wchar_t>
PUBLIC	??0?$allocator@_W@std@@QAE@ABV01@@Z		; std::allocator<wchar_t>::allocator<wchar_t>
PUBLIC	?deallocate@?$allocator@_W@std@@QAEXPA_WI@Z	; std::allocator<wchar_t>::deallocate
PUBLIC	?allocate@?$allocator@_W@std@@QAEPA_WI@Z	; std::allocator<wchar_t>::allocate
PUBLIC	?max_size@?$allocator@_W@std@@QBEIXZ		; std::allocator<wchar_t>::max_size
PUBLIC	?max_size@?$allocator_traits@V?$allocator@_W@std@@@std@@SAIABV?$allocator@_W@2@@Z ; std::allocator_traits<std::allocator<wchar_t> >::max_size
PUBLIC	??0?$_Wrap_alloc@V?$allocator@_W@std@@@std@@QAE@XZ ; std::_Wrap_alloc<std::allocator<wchar_t> >::_Wrap_alloc<std::allocator<wchar_t> >
PUBLIC	??0?$_Wrap_alloc@V?$allocator@_W@std@@@std@@QAE@$$QAU01@@Z ; std::_Wrap_alloc<std::allocator<wchar_t> >::_Wrap_alloc<std::allocator<wchar_t> >
PUBLIC	??4?$_Wrap_alloc@V?$allocator@_W@std@@@std@@QAEAAU01@$$QAU01@@Z ; std::_Wrap_alloc<std::allocator<wchar_t> >::operator=
PUBLIC	?allocate@?$_Wrap_alloc@V?$allocator@_W@std@@@std@@QAEPA_WI@Z ; std::_Wrap_alloc<std::allocator<wchar_t> >::allocate
PUBLIC	?deallocate@?$_Wrap_alloc@V?$allocator@_W@std@@@std@@QAEXPA_WI@Z ; std::_Wrap_alloc<std::allocator<wchar_t> >::deallocate
PUBLIC	?max_size@?$_Wrap_alloc@V?$allocator@_W@std@@@std@@QBEIU_Nil@2@@Z ; std::_Wrap_alloc<std::allocator<wchar_t> >::max_size
PUBLIC	??0?$_String_val@U?$_Simple_types@_W@std@@@std@@QAE@XZ ; std::_String_val<std::_Simple_types<wchar_t> >::_String_val<std::_Simple_types<wchar_t> >
PUBLIC	?_Myptr@?$_String_val@U?$_Simple_types@_W@std@@@std@@QAEPA_WXZ ; std::_String_val<std::_Simple_types<wchar_t> >::_Myptr
PUBLIC	?_Myptr@?$_String_val@U?$_Simple_types@_W@std@@@std@@QBEPB_WXZ ; std::_String_val<std::_Simple_types<wchar_t> >::_Myptr
PUBLIC	?_Large_string_engaged@?$_String_val@U?$_Simple_types@_W@std@@@std@@QBE_NXZ ; std::_String_val<std::_Simple_types<wchar_t> >::_Large_string_engaged
PUBLIC	??0_Bxty@?$_String_val@U?$_Simple_types@_W@std@@@std@@QAE@XZ ; std::_String_val<std::_Simple_types<wchar_t> >::_Bxty::_Bxty
PUBLIC	??1_Bxty@?$_String_val@U?$_Simple_types@_W@std@@@std@@QAE@XZ ; std::_String_val<std::_Simple_types<wchar_t> >::_Bxty::~_Bxty
PUBLIC	??1?$_String_val@U?$_Simple_types@_W@std@@@std@@QAE@XZ ; std::_String_val<std::_Simple_types<wchar_t> >::~_String_val<std::_Simple_types<wchar_t> >
PUBLIC	?_Myptr@?$_String_alloc@U?$_String_base_types@_WV?$allocator@_W@std@@@std@@@std@@QAEPA_WXZ ; std::_String_alloc<std::_String_base_types<wchar_t,std::allocator<wchar_t> > >::_Myptr
PUBLIC	?_Myptr@?$_String_alloc@U?$_String_base_types@_WV?$allocator@_W@std@@@std@@@std@@QBEPB_WXZ ; std::_String_alloc<std::_String_base_types<wchar_t,std::allocator<wchar_t> > >::_Myptr
PUBLIC	??0?$_String_alloc@U?$_String_base_types@_WV?$allocator@_W@std@@@std@@@std@@QAE@XZ ; std::_String_alloc<std::_String_base_types<wchar_t,std::allocator<wchar_t> > >::_String_alloc<std::_String_base_types<wchar_t,std::allocator<wchar_t> > >
PUBLIC	?_Move_alloc@?$_String_alloc@U?$_String_base_types@_WV?$allocator@_W@std@@@std@@@std@@QAEXAAU?$_Wrap_alloc@V?$allocator@_W@std@@@2@@Z ; std::_String_alloc<std::_String_base_types<wchar_t,std::allocator<wchar_t> > >::_Move_alloc
PUBLIC	?_Orphan_all@?$_String_alloc@U?$_String_base_types@_WV?$allocator@_W@std@@@std@@@std@@QAEXXZ ; std::_String_alloc<std::_String_base_types<wchar_t,std::allocator<wchar_t> > >::_Orphan_all
PUBLIC	?_Getal@?$_String_alloc@U?$_String_base_types@_WV?$allocator@_W@std@@@std@@@std@@QAEAAU?$_Wrap_alloc@V?$allocator@_W@std@@@2@XZ ; std::_String_alloc<std::_String_base_types<wchar_t,std::allocator<wchar_t> > >::_Getal
PUBLIC	?_Getal@?$_String_alloc@U?$_String_base_types@_WV?$allocator@_W@std@@@std@@@std@@QBEABU?$_Wrap_alloc@V?$allocator@_W@std@@@2@XZ ; std::_String_alloc<std::_String_base_types<wchar_t,std::allocator<wchar_t> > >::_Getal
PUBLIC	?_Get_data@?$_String_alloc@U?$_String_base_types@_WV?$allocator@_W@std@@@std@@@std@@QAEAAV?$_String_val@U?$_Simple_types@_W@std@@@2@XZ ; std::_String_alloc<std::_String_base_types<wchar_t,std::allocator<wchar_t> > >::_Get_data
PUBLIC	?_Get_data@?$_String_alloc@U?$_String_base_types@_WV?$allocator@_W@std@@@std@@@std@@QBEABV?$_String_val@U?$_Simple_types@_W@std@@@2@XZ ; std::_String_alloc<std::_String_base_types<wchar_t,std::allocator<wchar_t> > >::_Get_data
PUBLIC	?_Mysize@?$_String_alloc@U?$_String_base_types@_WV?$allocator@_W@std@@@std@@@std@@QAEAAIXZ ; std::_String_alloc<std::_String_base_types<wchar_t,std::allocator<wchar_t> > >::_Mysize
PUBLIC	?_Mysize@?$_String_alloc@U?$_String_base_types@_WV?$allocator@_W@std@@@std@@@std@@QBEABIXZ ; std::_String_alloc<std::_String_base_types<wchar_t,std::allocator<wchar_t> > >::_Mysize
PUBLIC	?_Myres@?$_String_alloc@U?$_String_base_types@_WV?$allocator@_W@std@@@std@@@std@@QAEAAIXZ ; std::_String_alloc<std::_String_base_types<wchar_t,std::allocator<wchar_t> > >::_Myres
PUBLIC	?_Get_first@?$_Compressed_pair@U?$_Wrap_alloc@V?$allocator@_W@std@@@std@@V?$_String_val@U?$_Simple_types@_W@std@@@2@$00@std@@QAEAAU?$_Wrap_alloc@V?$allocator@_W@std@@@2@XZ ; std::_Compressed_pair<std::_Wrap_alloc<std::allocator<wchar_t> >,std::_String_val<std::_Simple_types<wchar_t> >,1>::_Get_first
PUBLIC	?_Get_first@?$_Compressed_pair@U?$_Wrap_alloc@V?$allocator@_W@std@@@std@@V?$_String_val@U?$_Simple_types@_W@std@@@2@$00@std@@QBEABU?$_Wrap_alloc@V?$allocator@_W@std@@@2@XZ ; std::_Compressed_pair<std::_Wrap_alloc<std::allocator<wchar_t> >,std::_String_val<std::_Simple_types<wchar_t> >,1>::_Get_first
PUBLIC	?_Get_second@?$_Compressed_pair@U?$_Wrap_alloc@V?$allocator@_W@std@@@std@@V?$_String_val@U?$_Simple_types@_W@std@@@2@$00@std@@QAEAAV?$_String_val@U?$_Simple_types@_W@std@@@2@XZ ; std::_Compressed_pair<std::_Wrap_alloc<std::allocator<wchar_t> >,std::_String_val<std::_Simple_types<wchar_t> >,1>::_Get_second
PUBLIC	?_Get_second@?$_Compressed_pair@U?$_Wrap_alloc@V?$allocator@_W@std@@@std@@V?$_String_val@U?$_Simple_types@_W@std@@@2@$00@std@@QBEABV?$_String_val@U?$_Simple_types@_W@std@@@2@XZ ; std::_Compressed_pair<std::_Wrap_alloc<std::allocator<wchar_t> >,std::_String_val<std::_Simple_types<wchar_t> >,1>::_Get_second
PUBLIC	??1?$_Compressed_pair@U?$_Wrap_alloc@V?$allocator@_W@std@@@std@@V?$_String_val@U?$_Simple_types@_W@std@@@2@$00@std@@QAE@XZ ; std::_Compressed_pair<std::_Wrap_alloc<std::allocator<wchar_t> >,std::_String_val<std::_Simple_types<wchar_t> >,1>::~_Compressed_pair<std::_Wrap_alloc<std::allocator<wchar_t> >,std::_String_val<std::_Simple_types<wchar_t> >,1>
PUBLIC	??1?$_String_alloc@U?$_String_base_types@_WV?$allocator@_W@std@@@std@@@std@@QAE@XZ ; std::_String_alloc<std::_String_base_types<wchar_t,std::allocator<wchar_t> > >::~_String_alloc<std::_String_base_types<wchar_t,std::allocator<wchar_t> > >
PUBLIC	??0?$basic_string@_WU?$char_traits@_W@std@@V?$allocator@_W@2@@std@@QAE@QB_W@Z ; std::basic_string<wchar_t,std::char_traits<wchar_t>,std::allocator<wchar_t> >::basic_string<wchar_t,std::char_traits<wchar_t>,std::allocator<wchar_t> >
PUBLIC	??0?$basic_string@_WU?$char_traits@_W@std@@V?$allocator@_W@2@@std@@QAE@$$QAV01@@Z ; std::basic_string<wchar_t,std::char_traits<wchar_t>,std::allocator<wchar_t> >::basic_string<wchar_t,std::char_traits<wchar_t>,std::allocator<wchar_t> >
PUBLIC	??4?$basic_string@_WU?$char_traits@_W@std@@V?$allocator@_W@2@@std@@QAEAAV01@$$QAV01@@Z ; std::basic_string<wchar_t,std::char_traits<wchar_t>,std::allocator<wchar_t> >::operator=
PUBLIC	?_Assign_rv_contents@?$basic_string@_WU?$char_traits@_W@std@@V?$allocator@_W@2@@std@@QAEX$$QAV12@U?$integral_constant@_N$00@2@@Z ; std::basic_string<wchar_t,std::char_traits<wchar_t>,std::allocator<wchar_t> >::_Assign_rv_contents
PUBLIC	?_Assign_rv_contents_with_alloc_always_equal@?$basic_string@_WU?$char_traits@_W@std@@V?$allocator@_W@2@@std@@QAEX$$QAV12@U?$integral_constant@_N$00@2@@Z ; std::basic_string<wchar_t,std::char_traits<wchar_t>,std::allocator<wchar_t> >::_Assign_rv_contents_with_alloc_always_equal
PUBLIC	??1?$basic_string@_WU?$char_traits@_W@std@@V?$allocator@_W@2@@std@@QAE@XZ ; std::basic_string<wchar_t,std::char_traits<wchar_t>,std::allocator<wchar_t> >::~basic_string<wchar_t,std::char_traits<wchar_t>,std::allocator<wchar_t> >
PUBLIC	?assign@?$basic_string@_WU?$char_traits@_W@std@@V?$allocator@_W@2@@std@@QAEAAV12@ABV12@II@Z ; std::basic_string<wchar_t,std::char_traits<wchar_t>,std::allocator<wchar_t> >::assign
PUBLIC	?assign@?$basic_string@_WU?$char_traits@_W@std@@V?$allocator@_W@2@@std@@QAEAAV12@QB_WI@Z ; std::basic_string<wchar_t,std::char_traits<wchar_t>,std::allocator<wchar_t> >::assign
PUBLIC	?assign@?$basic_string@_WU?$char_traits@_W@std@@V?$allocator@_W@2@@std@@QAEAAV12@QB_W@Z ; std::basic_string<wchar_t,std::char_traits<wchar_t>,std::allocator<wchar_t> >::assign
PUBLIC	?erase@?$basic_string@_WU?$char_traits@_W@std@@V?$allocator@_W@2@@std@@QAEAAV12@I@Z ; std::basic_string<wchar_t,std::char_traits<wchar_t>,std::allocator<wchar_t> >::erase
PUBLIC	?erase@?$basic_string@_WU?$char_traits@_W@std@@V?$allocator@_W@2@@std@@QAEAAV12@II@Z ; std::basic_string<wchar_t,std::char_traits<wchar_t>,std::allocator<wchar_t> >::erase
PUBLIC	?c_str@?$basic_string@_WU?$char_traits@_W@std@@V?$allocator@_W@2@@std@@QBEPB_WXZ ; std::basic_string<wchar_t,std::char_traits<wchar_t>,std::allocator<wchar_t> >::c_str
PUBLIC	?max_size@?$basic_string@_WU?$char_traits@_W@std@@V?$allocator@_W@2@@std@@QBEIXZ ; std::basic_string<wchar_t,std::char_traits<wchar_t>,std::allocator<wchar_t> >::max_size
PUBLIC	?_Clamp_suffix_size@?$basic_string@_WU?$char_traits@_W@std@@V?$allocator@_W@2@@std@@QBEIII@Z ; std::basic_string<wchar_t,std::char_traits<wchar_t>,std::allocator<wchar_t> >::_Clamp_suffix_size
PUBLIC	?_Copy@?$basic_string@_WU?$char_traits@_W@std@@V?$allocator@_W@2@@std@@QAEXI@Z ; std::basic_string<wchar_t,std::char_traits<wchar_t>,std::allocator<wchar_t> >::_Copy
PUBLIC	?_Eos@?$basic_string@_WU?$char_traits@_W@std@@V?$allocator@_W@2@@std@@QAEXI@Z ; std::basic_string<wchar_t,std::char_traits<wchar_t>,std::allocator<wchar_t> >::_Eos
PUBLIC	?_Grow@?$basic_string@_WU?$char_traits@_W@std@@V?$allocator@_W@2@@std@@QAE_NI@Z ; std::basic_string<wchar_t,std::char_traits<wchar_t>,std::allocator<wchar_t> >::_Grow
PUBLIC	?_Inside@?$basic_string@_WU?$char_traits@_W@std@@V?$allocator@_W@2@@std@@QBE_NQB_W@Z ; std::basic_string<wchar_t,std::char_traits<wchar_t>,std::allocator<wchar_t> >::_Inside
PUBLIC	?_Tidy_init@?$basic_string@_WU?$char_traits@_W@std@@V?$allocator@_W@2@@std@@QAEXXZ ; std::basic_string<wchar_t,std::char_traits<wchar_t>,std::allocator<wchar_t> >::_Tidy_init
PUBLIC	?_Tidy_deallocate@?$basic_string@_WU?$char_traits@_W@std@@V?$allocator@_W@2@@std@@QAEXXZ ; std::basic_string<wchar_t,std::char_traits<wchar_t>,std::allocator<wchar_t> >::_Tidy_deallocate
PUBLIC	?_Xlen@?$basic_string@_WU?$char_traits@_W@std@@V?$allocator@_W@2@@std@@SAXXZ ; std::basic_string<wchar_t,std::char_traits<wchar_t>,std::allocator<wchar_t> >::_Xlen
PUBLIC	?_Check_offset@?$basic_string@_WU?$char_traits@_W@std@@V?$allocator@_W@2@@std@@QBEXI@Z ; std::basic_string<wchar_t,std::char_traits<wchar_t>,std::allocator<wchar_t> >::_Check_offset
PUBLIC	?_Xran@?$basic_string@_WU?$char_traits@_W@std@@V?$allocator@_W@2@@std@@SAXXZ ; std::basic_string<wchar_t,std::char_traits<wchar_t>,std::allocator<wchar_t> >::_Xran
PUBLIC	??1sk_file_entry_s@@QAE@XZ			; sk_file_entry_s::~sk_file_entry_s
PUBLIC	??0sk_file_entry_s@@QAE@$$QAU0@@Z		; sk_file_entry_s::sk_file_entry_s
PUBLIC	??4sk_file_entry_s@@QAEAAU0@$$QAU0@@Z		; sk_file_entry_s::operator=
PUBLIC	??_Gsk_file_entry_s@@QAEPAXI@Z			; sk_file_entry_s::`scalar deleting destructor'
PUBLIC	?SK_Get7ZFileContents@@YA?AV?$vector@Usk_file_entry_s@@V?$allocator@Usk_file_entry_s@@@std@@@std@@PB_W@Z ; SK_Get7ZFileContents
PUBLIC	?SK_Decompress7z@@YAJPB_W0_NP6GHHH@Z@Z		; SK_Decompress7z
PUBLIC	??0?$allocator@Usk_file_entry_s@@@std@@QAE@XZ	; std::allocator<sk_file_entry_s>::allocator<sk_file_entry_s>
PUBLIC	??0?$allocator@Usk_file_entry_s@@@std@@QAE@ABV01@@Z ; std::allocator<sk_file_entry_s>::allocator<sk_file_entry_s>
PUBLIC	?deallocate@?$allocator@Usk_file_entry_s@@@std@@QAEXPAUsk_file_entry_s@@I@Z ; std::allocator<sk_file_entry_s>::deallocate
PUBLIC	?allocate@?$allocator@Usk_file_entry_s@@@std@@QAEPAUsk_file_entry_s@@I@Z ; std::allocator<sk_file_entry_s>::allocate
PUBLIC	?max_size@?$allocator@Usk_file_entry_s@@@std@@QBEIXZ ; std::allocator<sk_file_entry_s>::max_size
PUBLIC	?max_size@?$allocator_traits@V?$allocator@Usk_file_entry_s@@@std@@@std@@SAIABV?$allocator@Usk_file_entry_s@@@2@@Z ; std::allocator_traits<std::allocator<sk_file_entry_s> >::max_size
PUBLIC	??0?$_Wrap_alloc@V?$allocator@Usk_file_entry_s@@@std@@@std@@QAE@XZ ; std::_Wrap_alloc<std::allocator<sk_file_entry_s> >::_Wrap_alloc<std::allocator<sk_file_entry_s> >
PUBLIC	??0?$_Wrap_alloc@V?$allocator@Usk_file_entry_s@@@std@@@std@@QAE@$$QAU01@@Z ; std::_Wrap_alloc<std::allocator<sk_file_entry_s> >::_Wrap_alloc<std::allocator<sk_file_entry_s> >
PUBLIC	?allocate@?$_Wrap_alloc@V?$allocator@Usk_file_entry_s@@@std@@@std@@QAEPAUsk_file_entry_s@@I@Z ; std::_Wrap_alloc<std::allocator<sk_file_entry_s> >::allocate
PUBLIC	?deallocate@?$_Wrap_alloc@V?$allocator@Usk_file_entry_s@@@std@@@std@@QAEXPAUsk_file_entry_s@@I@Z ; std::_Wrap_alloc<std::allocator<sk_file_entry_s> >::deallocate
PUBLIC	?max_size@?$_Wrap_alloc@V?$allocator@Usk_file_entry_s@@@std@@@std@@QBEIU_Nil@2@@Z ; std::_Wrap_alloc<std::allocator<sk_file_entry_s> >::max_size
PUBLIC	??0?$_Vector_alloc@U?$_Vec_base_types@Usk_file_entry_s@@V?$allocator@Usk_file_entry_s@@@std@@@std@@@std@@QAE@XZ ; std::_Vector_alloc<std::_Vec_base_types<sk_file_entry_s,std::allocator<sk_file_entry_s> > >::_Vector_alloc<std::_Vec_base_types<sk_file_entry_s,std::allocator<sk_file_entry_s> > >
PUBLIC	?_Orphan_all@?$_Vector_alloc@U?$_Vec_base_types@Usk_file_entry_s@@V?$allocator@Usk_file_entry_s@@@std@@@std@@@std@@QAEXXZ ; std::_Vector_alloc<std::_Vec_base_types<sk_file_entry_s,std::allocator<sk_file_entry_s> > >::_Orphan_all
PUBLIC	?_Swap_all@?$_Vector_alloc@U?$_Vec_base_types@Usk_file_entry_s@@V?$allocator@Usk_file_entry_s@@@std@@@std@@@std@@QAEXAAV12@@Z ; std::_Vector_alloc<std::_Vec_base_types<sk_file_entry_s,std::allocator<sk_file_entry_s> > >::_Swap_all
PUBLIC	?_Getal@?$_Vector_alloc@U?$_Vec_base_types@Usk_file_entry_s@@V?$allocator@Usk_file_entry_s@@@std@@@std@@@std@@QAEAAU?$_Wrap_alloc@V?$allocator@Usk_file_entry_s@@@std@@@2@XZ ; std::_Vector_alloc<std::_Vec_base_types<sk_file_entry_s,std::allocator<sk_file_entry_s> > >::_Getal
PUBLIC	?_Getal@?$_Vector_alloc@U?$_Vec_base_types@Usk_file_entry_s@@V?$allocator@Usk_file_entry_s@@@std@@@std@@@std@@QBEABU?$_Wrap_alloc@V?$allocator@Usk_file_entry_s@@@std@@@2@XZ ; std::_Vector_alloc<std::_Vec_base_types<sk_file_entry_s,std::allocator<sk_file_entry_s> > >::_Getal
PUBLIC	?_Get_data@?$_Vector_alloc@U?$_Vec_base_types@Usk_file_entry_s@@V?$allocator@Usk_file_entry_s@@@std@@@std@@@std@@QAEAAV?$_Vector_val@U?$_Simple_types@Usk_file_entry_s@@@std@@@2@XZ ; std::_Vector_alloc<std::_Vec_base_types<sk_file_entry_s,std::allocator<sk_file_entry_s> > >::_Get_data
PUBLIC	?_Get_data@?$_Vector_alloc@U?$_Vec_base_types@Usk_file_entry_s@@V?$allocator@Usk_file_entry_s@@@std@@@std@@@std@@QBEABV?$_Vector_val@U?$_Simple_types@Usk_file_entry_s@@@std@@@2@XZ ; std::_Vector_alloc<std::_Vec_base_types<sk_file_entry_s,std::allocator<sk_file_entry_s> > >::_Get_data
PUBLIC	?_Myfirst@?$_Vector_alloc@U?$_Vec_base_types@Usk_file_entry_s@@V?$allocator@Usk_file_entry_s@@@std@@@std@@@std@@QAEAAPAUsk_file_entry_s@@XZ ; std::_Vector_alloc<std::_Vec_base_types<sk_file_entry_s,std::allocator<sk_file_entry_s> > >::_Myfirst
PUBLIC	?_Myfirst@?$_Vector_alloc@U?$_Vec_base_types@Usk_file_entry_s@@V?$allocator@Usk_file_entry_s@@@std@@@std@@@std@@QBEABQAUsk_file_entry_s@@XZ ; std::_Vector_alloc<std::_Vec_base_types<sk_file_entry_s,std::allocator<sk_file_entry_s> > >::_Myfirst
PUBLIC	?_Mylast@?$_Vector_alloc@U?$_Vec_base_types@Usk_file_entry_s@@V?$allocator@Usk_file_entry_s@@@std@@@std@@@std@@QAEAAPAUsk_file_entry_s@@XZ ; std::_Vector_alloc<std::_Vec_base_types<sk_file_entry_s,std::allocator<sk_file_entry_s> > >::_Mylast
PUBLIC	?_Mylast@?$_Vector_alloc@U?$_Vec_base_types@Usk_file_entry_s@@V?$allocator@Usk_file_entry_s@@@std@@@std@@@std@@QBEABQAUsk_file_entry_s@@XZ ; std::_Vector_alloc<std::_Vec_base_types<sk_file_entry_s,std::allocator<sk_file_entry_s> > >::_Mylast
PUBLIC	?_Myend@?$_Vector_alloc@U?$_Vec_base_types@Usk_file_entry_s@@V?$allocator@Usk_file_entry_s@@@std@@@std@@@std@@QAEAAPAUsk_file_entry_s@@XZ ; std::_Vector_alloc<std::_Vec_base_types<sk_file_entry_s,std::allocator<sk_file_entry_s> > >::_Myend
PUBLIC	?_Myend@?$_Vector_alloc@U?$_Vec_base_types@Usk_file_entry_s@@V?$allocator@Usk_file_entry_s@@@std@@@std@@@std@@QBEABQAUsk_file_entry_s@@XZ ; std::_Vector_alloc<std::_Vec_base_types<sk_file_entry_s,std::allocator<sk_file_entry_s> > >::_Myend
PUBLIC	??0?$_Vector_val@U?$_Simple_types@Usk_file_entry_s@@@std@@@std@@QAE@XZ ; std::_Vector_val<std::_Simple_types<sk_file_entry_s> >::_Vector_val<std::_Simple_types<sk_file_entry_s> >
PUBLIC	?_Get_first@?$_Compressed_pair@U?$_Wrap_alloc@V?$allocator@Usk_file_entry_s@@@std@@@std@@V?$_Vector_val@U?$_Simple_types@Usk_file_entry_s@@@std@@@2@$00@std@@QAEAAU?$_Wrap_alloc@V?$allocator@Usk_file_entry_s@@@std@@@2@XZ ; std::_Compressed_pair<std::_Wrap_alloc<std::allocator<sk_file_entry_s> >,std::_Vector_val<std::_Simple_types<sk_file_entry_s> >,1>::_Get_first
PUBLIC	?_Get_first@?$_Compressed_pair@U?$_Wrap_alloc@V?$allocator@Usk_file_entry_s@@@std@@@std@@V?$_Vector_val@U?$_Simple_types@Usk_file_entry_s@@@std@@@2@$00@std@@QBEABU?$_Wrap_alloc@V?$allocator@Usk_file_entry_s@@@std@@@2@XZ ; std::_Compressed_pair<std::_Wrap_alloc<std::allocator<sk_file_entry_s> >,std::_Vector_val<std::_Simple_types<sk_file_entry_s> >,1>::_Get_first
PUBLIC	?_Get_second@?$_Compressed_pair@U?$_Wrap_alloc@V?$allocator@Usk_file_entry_s@@@std@@@std@@V?$_Vector_val@U?$_Simple_types@Usk_file_entry_s@@@std@@@2@$00@std@@QAEAAV?$_Vector_val@U?$_Simple_types@Usk_file_entry_s@@@std@@@2@XZ ; std::_Compressed_pair<std::_Wrap_alloc<std::allocator<sk_file_entry_s> >,std::_Vector_val<std::_Simple_types<sk_file_entry_s> >,1>::_Get_second
PUBLIC	?_Get_second@?$_Compressed_pair@U?$_Wrap_alloc@V?$allocator@Usk_file_entry_s@@@std@@@std@@V?$_Vector_val@U?$_Simple_types@Usk_file_entry_s@@@std@@@2@$00@std@@QBEABV?$_Vector_val@U?$_Simple_types@Usk_file_entry_s@@@std@@@2@XZ ; std::_Compressed_pair<std::_Wrap_alloc<std::allocator<sk_file_entry_s> >,std::_Vector_val<std::_Simple_types<sk_file_entry_s> >,1>::_Get_second
PUBLIC	??0?$vector@Usk_file_entry_s@@V?$allocator@Usk_file_entry_s@@@std@@@std@@QAE@XZ ; std::vector<sk_file_entry_s,std::allocator<sk_file_entry_s> >::vector<sk_file_entry_s,std::allocator<sk_file_entry_s> >
PUBLIC	?_Move_from@?$vector@Usk_file_entry_s@@V?$allocator@Usk_file_entry_s@@@std@@@std@@AAEX$$QAV12@U?$integral_constant@_N$00@2@@Z ; std::vector<sk_file_entry_s,std::allocator<sk_file_entry_s> >::_Move_from
PUBLIC	??0?$vector@Usk_file_entry_s@@V?$allocator@Usk_file_entry_s@@@std@@@std@@QAE@$$QAV01@@Z ; std::vector<sk_file_entry_s,std::allocator<sk_file_entry_s> >::vector<sk_file_entry_s,std::allocator<sk_file_entry_s> >
PUBLIC	??1?$vector@Usk_file_entry_s@@V?$allocator@Usk_file_entry_s@@@std@@@std@@QAE@XZ ; std::vector<sk_file_entry_s,std::allocator<sk_file_entry_s> >::~vector<sk_file_entry_s,std::allocator<sk_file_entry_s> >
PUBLIC	?push_back@?$vector@Usk_file_entry_s@@V?$allocator@Usk_file_entry_s@@@std@@@std@@QAEX$$QAUsk_file_entry_s@@@Z ; std::vector<sk_file_entry_s,std::allocator<sk_file_entry_s> >::push_back
PUBLIC	?erase@?$vector@Usk_file_entry_s@@V?$allocator@Usk_file_entry_s@@@std@@@std@@QAE?AV?$_Vector_iterator@V?$_Vector_val@U?$_Simple_types@Usk_file_entry_s@@@std@@@std@@@2@V?$_Vector_const_iterator@V?$_Vector_val@U?$_Simple_types@Usk_file_entry_s@@@std@@@std@@@2@@Z ; std::vector<sk_file_entry_s,std::allocator<sk_file_entry_s> >::erase
PUBLIC	?begin@?$vector@Usk_file_entry_s@@V?$allocator@Usk_file_entry_s@@@std@@@std@@QAE?AV?$_Vector_iterator@V?$_Vector_val@U?$_Simple_types@Usk_file_entry_s@@@std@@@std@@@2@XZ ; std::vector<sk_file_entry_s,std::allocator<sk_file_entry_s> >::begin
PUBLIC	?end@?$vector@Usk_file_entry_s@@V?$allocator@Usk_file_entry_s@@@std@@@std@@QAE?AV?$_Vector_iterator@V?$_Vector_val@U?$_Simple_types@Usk_file_entry_s@@@std@@@std@@@2@XZ ; std::vector<sk_file_entry_s,std::allocator<sk_file_entry_s> >::end
PUBLIC	?size@?$vector@Usk_file_entry_s@@V?$allocator@Usk_file_entry_s@@@std@@@std@@QBEIXZ ; std::vector<sk_file_entry_s,std::allocator<sk_file_entry_s> >::size
PUBLIC	?max_size@?$vector@Usk_file_entry_s@@V?$allocator@Usk_file_entry_s@@@std@@@std@@QBEIXZ ; std::vector<sk_file_entry_s,std::allocator<sk_file_entry_s> >::max_size
PUBLIC	?capacity@?$vector@Usk_file_entry_s@@V?$allocator@Usk_file_entry_s@@@std@@@std@@QBEIXZ ; std::vector<sk_file_entry_s,std::allocator<sk_file_entry_s> >::capacity
PUBLIC	?_Has_unused_capacity@?$vector@Usk_file_entry_s@@V?$allocator@Usk_file_entry_s@@@std@@@std@@ABE_NXZ ; std::vector<sk_file_entry_s,std::allocator<sk_file_entry_s> >::_Has_unused_capacity
PUBLIC	??A?$vector@Usk_file_entry_s@@V?$allocator@Usk_file_entry_s@@@std@@@std@@QAEAAUsk_file_entry_s@@I@Z ; std::vector<sk_file_entry_s,std::allocator<sk_file_entry_s> >::operator[]
PUBLIC	?_Umove_if_noexcept1@?$vector@Usk_file_entry_s@@V?$allocator@Usk_file_entry_s@@@std@@@std@@AAEXPAUsk_file_entry_s@@00U?$integral_constant@_N$00@2@@Z ; std::vector<sk_file_entry_s,std::allocator<sk_file_entry_s> >::_Umove_if_noexcept1
PUBLIC	?_Umove_if_noexcept@?$vector@Usk_file_entry_s@@V?$allocator@Usk_file_entry_s@@@std@@@std@@AAEXPAUsk_file_entry_s@@00@Z ; std::vector<sk_file_entry_s,std::allocator<sk_file_entry_s> >::_Umove_if_noexcept
PUBLIC	?_Destroy@?$vector@Usk_file_entry_s@@V?$allocator@Usk_file_entry_s@@@std@@@std@@AAEXPAUsk_file_entry_s@@0@Z ; std::vector<sk_file_entry_s,std::allocator<sk_file_entry_s> >::_Destroy
PUBLIC	?_Calculate_growth@?$vector@Usk_file_entry_s@@V?$allocator@Usk_file_entry_s@@@std@@@std@@ABEII@Z ; std::vector<sk_file_entry_s,std::allocator<sk_file_entry_s> >::_Calculate_growth
PUBLIC	?_Change_array@?$vector@Usk_file_entry_s@@V?$allocator@Usk_file_entry_s@@@std@@@std@@AAEXQAUsk_file_entry_s@@II@Z ; std::vector<sk_file_entry_s,std::allocator<sk_file_entry_s> >::_Change_array
PUBLIC	?_Tidy@?$vector@Usk_file_entry_s@@V?$allocator@Usk_file_entry_s@@@std@@@std@@AAEXXZ ; std::vector<sk_file_entry_s,std::allocator<sk_file_entry_s> >::_Tidy
PUBLIC	?_Xlength@?$vector@Usk_file_entry_s@@V?$allocator@Usk_file_entry_s@@@std@@@std@@CAXXZ ; std::vector<sk_file_entry_s,std::allocator<sk_file_entry_s> >::_Xlength
PUBLIC	?_Orphan_range@?$vector@Usk_file_entry_s@@V?$allocator@Usk_file_entry_s@@@std@@@std@@ABEXPAUsk_file_entry_s@@0@Z ; std::vector<sk_file_entry_s,std::allocator<sk_file_entry_s> >::_Orphan_range
PUBLIC	??0?$_Vector_const_iterator@V?$_Vector_val@U?$_Simple_types@Usk_file_entry_s@@@std@@@std@@@std@@QAE@PAUsk_file_entry_s@@PBU_Container_base0@1@@Z ; std::_Vector_const_iterator<std::_Vector_val<std::_Simple_types<sk_file_entry_s> > >::_Vector_const_iterator<std::_Vector_val<std::_Simple_types<sk_file_entry_s> > >
PUBLIC	??D?$_Vector_const_iterator@V?$_Vector_val@U?$_Simple_types@Usk_file_entry_s@@@std@@@std@@@std@@QBEABUsk_file_entry_s@@XZ ; std::_Vector_const_iterator<std::_Vector_val<std::_Simple_types<sk_file_entry_s> > >::operator*
PUBLIC	??E?$_Vector_const_iterator@V?$_Vector_val@U?$_Simple_types@Usk_file_entry_s@@@std@@@std@@@std@@QAEAAV01@XZ ; std::_Vector_const_iterator<std::_Vector_val<std::_Simple_types<sk_file_entry_s> > >::operator++
PUBLIC	??8?$_Vector_const_iterator@V?$_Vector_val@U?$_Simple_types@Usk_file_entry_s@@@std@@@std@@@std@@QBE_NABV01@@Z ; std::_Vector_const_iterator<std::_Vector_val<std::_Simple_types<sk_file_entry_s> > >::operator==
PUBLIC	??9?$_Vector_const_iterator@V?$_Vector_val@U?$_Simple_types@Usk_file_entry_s@@@std@@@std@@@std@@QBE_NABV01@@Z ; std::_Vector_const_iterator<std::_Vector_val<std::_Simple_types<sk_file_entry_s> > >::operator!=
PUBLIC	?_Compat@?$_Vector_const_iterator@V?$_Vector_val@U?$_Simple_types@Usk_file_entry_s@@@std@@@std@@@std@@QBEXABV12@@Z ; std::_Vector_const_iterator<std::_Vector_val<std::_Simple_types<sk_file_entry_s> > >::_Compat
PUBLIC	??0?$_Vector_iterator@V?$_Vector_val@U?$_Simple_types@Usk_file_entry_s@@@std@@@std@@@std@@QAE@PAUsk_file_entry_s@@PBU_Container_base0@1@@Z ; std::_Vector_iterator<std::_Vector_val<std::_Simple_types<sk_file_entry_s> > >::_Vector_iterator<std::_Vector_val<std::_Simple_types<sk_file_entry_s> > >
PUBLIC	??D?$_Vector_iterator@V?$_Vector_val@U?$_Simple_types@Usk_file_entry_s@@@std@@@std@@@std@@QBEAAUsk_file_entry_s@@XZ ; std::_Vector_iterator<std::_Vector_val<std::_Simple_types<sk_file_entry_s> > >::operator*
PUBLIC	??C?$_Vector_iterator@V?$_Vector_val@U?$_Simple_types@Usk_file_entry_s@@@std@@@std@@@std@@QBEPAUsk_file_entry_s@@XZ ; std::_Vector_iterator<std::_Vector_val<std::_Simple_types<sk_file_entry_s> > >::operator->
PUBLIC	??E?$_Vector_iterator@V?$_Vector_val@U?$_Simple_types@Usk_file_entry_s@@@std@@@std@@@std@@QAEAAV01@XZ ; std::_Vector_iterator<std::_Vector_val<std::_Simple_types<sk_file_entry_s> > >::operator++
PUBLIC	?pointer_to@?$pointer_traits@PAUsk_file_entry_s@@@std@@SAPAUsk_file_entry_s@@AAU3@@Z ; std::pointer_traits<sk_file_entry_s *>::pointer_to
PUBLIC	??$addressof@V?$_Vector_val@U?$_Simple_types@Usk_file_entry_s@@@std@@@std@@@std@@YAPAV?$_Vector_val@U?$_Simple_types@Usk_file_entry_s@@@std@@@0@AAV10@@Z ; std::addressof<std::_Vector_val<std::_Simple_types<sk_file_entry_s> > >
PUBLIC	??$_Move_unchecked@PAUsk_file_entry_s@@PAU1@@std@@YAPAUsk_file_entry_s@@PAU1@00@Z ; std::_Move_unchecked<sk_file_entry_s *,sk_file_entry_s *>
PUBLIC	??$_Unfancy@Usk_file_entry_s@@@std@@YAPAUsk_file_entry_s@@PAU1@@Z ; std::_Unfancy<sk_file_entry_s>
PUBLIC	??$destroy@Usk_file_entry_s@@@?$_Wrap_alloc@V?$allocator@Usk_file_entry_s@@@std@@@std@@QAEXPAUsk_file_entry_s@@@Z ; std::_Wrap_alloc<std::allocator<sk_file_entry_s> >::destroy<sk_file_entry_s>
PUBLIC	??$move@AAUsk_file_entry_s@@@std@@YA$$QAUsk_file_entry_s@@AAU1@@Z ; std::move<sk_file_entry_s &>
PUBLIC	??$emplace_back@Usk_file_entry_s@@@?$vector@Usk_file_entry_s@@V?$allocator@Usk_file_entry_s@@@std@@@std@@QAEX$$QAUsk_file_entry_s@@@Z ; std::vector<sk_file_entry_s,std::allocator<sk_file_entry_s> >::emplace_back<sk_file_entry_s>
PUBLIC	??$move@AAU?$_Wrap_alloc@V?$allocator@Usk_file_entry_s@@@std@@@std@@@std@@YA$$QAU?$_Wrap_alloc@V?$allocator@Usk_file_entry_s@@@std@@@0@AAU10@@Z ; std::move<std::_Wrap_alloc<std::allocator<sk_file_entry_s> > &>
PUBLIC	??$?0U?$_Wrap_alloc@V?$allocator@Usk_file_entry_s@@@std@@@std@@X@?$_Vector_alloc@U?$_Vec_base_types@Usk_file_entry_s@@V?$allocator@Usk_file_entry_s@@@std@@@std@@@std@@QAE@$$QAU?$_Wrap_alloc@V?$allocator@Usk_file_entry_s@@@std@@@1@@Z ; std::_Vector_alloc<std::_Vec_base_types<sk_file_entry_s,std::allocator<sk_file_entry_s> > >::_Vector_alloc<std::_Vec_base_types<sk_file_entry_s,std::allocator<sk_file_entry_s> > ><std::_Wrap_alloc<std::allocator<sk_file_entry_s> >,void>
PUBLIC	??$move@AAV?$vector@Usk_file_entry_s@@V?$allocator@Usk_file_entry_s@@@std@@@std@@@std@@YA$$QAV?$vector@Usk_file_entry_s@@V?$allocator@Usk_file_entry_s@@@std@@@0@AAV10@@Z ; std::move<std::vector<sk_file_entry_s,std::allocator<sk_file_entry_s> > &>
PUBLIC	??$addressof@Usk_file_entry_s@@@std@@YAPAUsk_file_entry_s@@AAU1@@Z ; std::addressof<sk_file_entry_s>
PUBLIC	??$?0$$V@?$_Compressed_pair@U?$_Wrap_alloc@V?$allocator@Usk_file_entry_s@@@std@@@std@@V?$_Vector_val@U?$_Simple_types@Usk_file_entry_s@@@std@@@2@$00@std@@QAE@U_Zero_then_variadic_args_t@1@@Z ; std::_Compressed_pair<std::_Wrap_alloc<std::allocator<sk_file_entry_s> >,std::_Vector_val<std::_Simple_types<sk_file_entry_s> >,1>::_Compressed_pair<std::_Wrap_alloc<std::allocator<sk_file_entry_s> >,std::_Vector_val<std::_Simple_types<sk_file_entry_s> >,1><>
PUBLIC	??$?0$$V@?$_Compressed_pair@U?$_Wrap_alloc@V?$allocator@_W@std@@@std@@V?$_String_val@U?$_Simple_types@_W@std@@@2@$00@std@@QAE@U_Zero_then_variadic_args_t@1@@Z ; std::_Compressed_pair<std::_Wrap_alloc<std::allocator<wchar_t> >,std::_String_val<std::_Simple_types<wchar_t> >,1>::_Compressed_pair<std::_Wrap_alloc<std::allocator<wchar_t> >,std::_String_val<std::_Simple_types<wchar_t> >,1><>
PUBLIC	??$addressof@PA_W@std@@YAPAPA_WAAPA_W@Z		; std::addressof<wchar_t *>
PUBLIC	??$destroy@PA_W@?$_Wrap_alloc@V?$allocator@_W@std@@@std@@QAEXPAPA_W@Z ; std::_Wrap_alloc<std::allocator<wchar_t> >::destroy<wchar_t *>
PUBLIC	??$move@AAV?$basic_string@_WU?$char_traits@_W@std@@V?$allocator@_W@2@@std@@@std@@YA$$QAV?$basic_string@_WU?$char_traits@_W@std@@V?$allocator@_W@2@@0@AAV10@@Z ; std::move<std::basic_string<wchar_t,std::char_traits<wchar_t>,std::allocator<wchar_t> > &>
PUBLIC	??$_Destroy_range@V?$allocator@Usk_file_entry_s@@@std@@PAUsk_file_entry_s@@@std@@YAXPAUsk_file_entry_s@@0AAU?$_Wrap_alloc@V?$allocator@Usk_file_entry_s@@@std@@@0@@Z ; std::_Destroy_range<std::allocator<sk_file_entry_s>,sk_file_entry_s *>
PUBLIC	??$_Unfancy@_W@std@@YAPA_WPA_W@Z		; std::_Unfancy<wchar_t>
PUBLIC	??$addressof@$$CBV?$basic_string@_WU?$char_traits@_W@std@@V?$allocator@_W@2@@std@@@std@@YAPBV?$basic_string@_WU?$char_traits@_W@std@@V?$allocator@_W@2@@0@ABV10@@Z ; std::addressof<std::basic_string<wchar_t,std::char_traits<wchar_t>,std::allocator<wchar_t> > const >
PUBLIC	??$addressof@V?$basic_string@_WU?$char_traits@_W@std@@V?$allocator@_W@2@@std@@@std@@YAPAV?$basic_string@_WU?$char_traits@_W@std@@V?$allocator@_W@2@@0@AAV10@@Z ; std::addressof<std::basic_string<wchar_t,std::char_traits<wchar_t>,std::allocator<wchar_t> > >
PUBLIC	??$_Min_value@I@std@@YAABIABI0@Z		; std::_Min_value<unsigned int>
PUBLIC	??$_Pocma@U?$_Wrap_alloc@V?$allocator@_W@std@@@std@@@std@@YAXAAU?$_Wrap_alloc@V?$allocator@_W@std@@@0@0@Z ; std::_Pocma<std::_Wrap_alloc<std::allocator<wchar_t> > >
PUBLIC	??$construct@PA_WAAPA_W@?$_Wrap_alloc@V?$allocator@_W@std@@@std@@QAEXPAPA_WAAPA_W@Z ; std::_Wrap_alloc<std::allocator<wchar_t> >::construct<wchar_t *,wchar_t * &>
PUBLIC	??$addressof@V?$_String_val@U?$_Simple_types@_W@std@@@std@@@std@@YAPAV?$_String_val@U?$_Simple_types@_W@std@@@0@AAV10@@Z ; std::addressof<std::_String_val<std::_Simple_types<wchar_t> > >
PUBLIC	??$_Ptr_move_cat@Usk_file_entry_s@@U1@@std@@YA?AU_General_ptr_iterator_tag@0@ABQAUsk_file_entry_s@@0@Z ; std::_Ptr_move_cat<sk_file_entry_s,sk_file_entry_s>
PUBLIC	??$_Move_unchecked1@PAUsk_file_entry_s@@PAU1@@std@@YAPAUsk_file_entry_s@@PAU1@00U_General_ptr_iterator_tag@0@@Z ; std::_Move_unchecked1<sk_file_entry_s *,sk_file_entry_s *>
PUBLIC	??$destroy@Usk_file_entry_s@@@?$allocator_traits@V?$allocator@Usk_file_entry_s@@@std@@@std@@SAXAAV?$allocator@Usk_file_entry_s@@@1@PAUsk_file_entry_s@@@Z ; std::allocator_traits<std::allocator<sk_file_entry_s> >::destroy<sk_file_entry_s>
PUBLIC	??$forward@Usk_file_entry_s@@@std@@YA$$QAUsk_file_entry_s@@AAU1@@Z ; std::forward<sk_file_entry_s>
PUBLIC	??$_Emplace_back_with_unused_capacity@Usk_file_entry_s@@@?$vector@Usk_file_entry_s@@V?$allocator@Usk_file_entry_s@@@std@@@std@@AAEX$$QAUsk_file_entry_s@@@Z ; std::vector<sk_file_entry_s,std::allocator<sk_file_entry_s> >::_Emplace_back_with_unused_capacity<sk_file_entry_s>
PUBLIC	??$construct@Usk_file_entry_s@@U1@@?$_Wrap_alloc@V?$allocator@Usk_file_entry_s@@@std@@@std@@QAEXPAUsk_file_entry_s@@$$QAU2@@Z ; std::_Wrap_alloc<std::allocator<sk_file_entry_s> >::construct<sk_file_entry_s,sk_file_entry_s>
PUBLIC	??$forward@U?$_Wrap_alloc@V?$allocator@Usk_file_entry_s@@@std@@@std@@@std@@YA$$QAU?$_Wrap_alloc@V?$allocator@Usk_file_entry_s@@@std@@@0@AAU10@@Z ; std::forward<std::_Wrap_alloc<std::allocator<sk_file_entry_s> > >
PUBLIC	??$?0U?$_Wrap_alloc@V?$allocator@Usk_file_entry_s@@@std@@@std@@$$V@?$_Compressed_pair@U?$_Wrap_alloc@V?$allocator@Usk_file_entry_s@@@std@@@std@@V?$_Vector_val@U?$_Simple_types@Usk_file_entry_s@@@std@@@2@$00@std@@QAE@U_One_then_variadic_args_t@1@$$QAU?$_Wrap_alloc@V?$allocator@Usk_file_entry_s@@@std@@@1@@Z ; std::_Compressed_pair<std::_Wrap_alloc<std::allocator<sk_file_entry_s> >,std::_Vector_val<std::_Simple_types<sk_file_entry_s> >,1>::_Compressed_pair<std::_Wrap_alloc<std::allocator<sk_file_entry_s> >,std::_Vector_val<std::_Simple_types<sk_file_entry_s> >,1><std::_Wrap_alloc<std::allocator<sk_file_entry_s> > >
PUBLIC	??$destroy@PA_W@?$allocator_traits@V?$allocator@_W@std@@@std@@SAXAAV?$allocator@_W@1@PAPA_W@Z ; std::allocator_traits<std::allocator<wchar_t> >::destroy<wchar_t *>
PUBLIC	??$_Destroy_range1@V?$allocator@Usk_file_entry_s@@@std@@PAUsk_file_entry_s@@@std@@YAXPAUsk_file_entry_s@@0AAU?$_Wrap_alloc@V?$allocator@Usk_file_entry_s@@@std@@@0@U?$integral_constant@_N$0A@@0@@Z ; std::_Destroy_range1<std::allocator<sk_file_entry_s>,sk_file_entry_s *>
PUBLIC	??$_Pocma@U?$_Wrap_alloc@V?$allocator@_W@std@@@std@@@std@@YAXAAU?$_Wrap_alloc@V?$allocator@_W@std@@@0@0U?$integral_constant@_N$00@0@@Z ; std::_Pocma<std::_Wrap_alloc<std::allocator<wchar_t> > >
PUBLIC	??$forward@AAPA_W@std@@YAAAPA_WAAPA_W@Z		; std::forward<wchar_t * &>
PUBLIC	??$construct@PA_WAAPA_W@?$allocator_traits@V?$allocator@_W@std@@@std@@SAXAAV?$allocator@_W@1@PAPA_WAAPA_W@Z ; std::allocator_traits<std::allocator<wchar_t> >::construct<wchar_t *,wchar_t * &>
PUBLIC	??$move@AAU?$_Wrap_alloc@V?$allocator@_W@std@@@std@@@std@@YA$$QAU?$_Wrap_alloc@V?$allocator@_W@std@@@0@AAU10@@Z ; std::move<std::_Wrap_alloc<std::allocator<wchar_t> > &>
PUBLIC	??$?0U?$_Wrap_alloc@V?$allocator@_W@std@@@std@@X@?$_String_alloc@U?$_String_base_types@_WV?$allocator@_W@std@@@std@@@std@@QAE@$$QAU?$_Wrap_alloc@V?$allocator@_W@std@@@1@@Z ; std::_String_alloc<std::_String_base_types<wchar_t,std::allocator<wchar_t> > >::_String_alloc<std::_String_base_types<wchar_t,std::allocator<wchar_t> > ><std::_Wrap_alloc<std::allocator<wchar_t> >,void>
PUBLIC	??$_Uninitialized_move@PAUsk_file_entry_s@@PAU1@V?$allocator@Usk_file_entry_s@@@std@@@std@@YAPAUsk_file_entry_s@@PAU1@00AAU?$_Wrap_alloc@V?$allocator@Usk_file_entry_s@@@std@@@0@@Z ; std::_Uninitialized_move<sk_file_entry_s *,sk_file_entry_s *,std::allocator<sk_file_entry_s> >
PUBLIC	??$destroy@Usk_file_entry_s@@@?$allocator@Usk_file_entry_s@@@std@@QAEXPAUsk_file_entry_s@@@Z ; std::allocator<sk_file_entry_s>::destroy<sk_file_entry_s>
PUBLIC	??$construct@Usk_file_entry_s@@U1@@?$allocator_traits@V?$allocator@Usk_file_entry_s@@@std@@@std@@SAXAAV?$allocator@Usk_file_entry_s@@@1@PAUsk_file_entry_s@@$$QAU3@@Z ; std::allocator_traits<std::allocator<sk_file_entry_s> >::construct<sk_file_entry_s,sk_file_entry_s>
PUBLIC	??$destroy@PA_W@?$allocator@_W@std@@QAEXPAPA_W@Z ; std::allocator<wchar_t>::destroy<wchar_t *>
PUBLIC	??$construct@PA_WAAPA_W@?$allocator@_W@std@@QAEXPAPA_WAAPA_W@Z ; std::allocator<wchar_t>::construct<wchar_t *,wchar_t * &>
PUBLIC	??$forward@U?$_Wrap_alloc@V?$allocator@_W@std@@@std@@@std@@YA$$QAU?$_Wrap_alloc@V?$allocator@_W@std@@@0@AAU10@@Z ; std::forward<std::_Wrap_alloc<std::allocator<wchar_t> > >
PUBLIC	??$?0U?$_Wrap_alloc@V?$allocator@_W@std@@@std@@$$V@?$_Compressed_pair@U?$_Wrap_alloc@V?$allocator@_W@std@@@std@@V?$_String_val@U?$_Simple_types@_W@std@@@2@$00@std@@QAE@U_One_then_variadic_args_t@1@$$QAU?$_Wrap_alloc@V?$allocator@_W@std@@@1@@Z ; std::_Compressed_pair<std::_Wrap_alloc<std::allocator<wchar_t> >,std::_String_val<std::_Simple_types<wchar_t> >,1>::_Compressed_pair<std::_Wrap_alloc<std::allocator<wchar_t> >,std::_String_val<std::_Simple_types<wchar_t> >,1><std::_Wrap_alloc<std::allocator<wchar_t> > >
PUBLIC	??$_Unchecked@PAUsk_file_entry_s@@@std@@YAPAUsk_file_entry_s@@PAU1@@Z ; std::_Unchecked<sk_file_entry_s *>
PUBLIC	??$_Uninitialized_move_al_unchecked@PAUsk_file_entry_s@@PAU1@V?$allocator@Usk_file_entry_s@@@std@@@std@@YAPAUsk_file_entry_s@@PAU1@00AAU?$_Wrap_alloc@V?$allocator@Usk_file_entry_s@@@std@@@0@U_General_ptr_iterator_tag@0@U_Any_tag@0@@Z ; std::_Uninitialized_move_al_unchecked<sk_file_entry_s *,sk_file_entry_s *,std::allocator<sk_file_entry_s> >
PUBLIC	??$?0U?$integral_constant@_N$00@std@@@_Any_tag@std@@QAE@$$QAU?$integral_constant@_N$00@1@@Z ; std::_Any_tag::_Any_tag<std::integral_constant<bool,1> >
PUBLIC	??$_Rechecked@PAUsk_file_entry_s@@PAU1@@std@@YAAAPAUsk_file_entry_s@@AAPAU1@PAU1@@Z ; std::_Rechecked<sk_file_entry_s *,sk_file_entry_s *>
PUBLIC	??$construct@Usk_file_entry_s@@U1@@?$allocator@Usk_file_entry_s@@@std@@QAEXPAUsk_file_entry_s@@$$QAU2@@Z ; std::allocator<sk_file_entry_s>::construct<sk_file_entry_s,sk_file_entry_s>
PUBLIC	??_C@_0BA@JFNIOLAK@string?5too?5long?$AA@	; `string'
PUBLIC	??_C@_0BI@CFPLBAOH@invalid?5string?5position?$AA@ ; `string'
PUBLIC	??_C@_0BD@OLBABOEK@vector?$DMT?$DO?5too?5long?$AA@ ; `string'
EXTRN	??2@YAPAXI@Z:PROC				; operator new
EXTRN	??3@YAXPAX@Z:PROC				; operator delete
EXTRN	??3@YAXPAXI@Z:PROC				; operator delete
EXTRN	__imp___invalid_parameter_noinfo_noreturn:PROC
EXTRN	__imp__memmove:PROC
EXTRN	__imp__wcsstr:PROC
EXTRN	__imp__CreateFileW@28:PROC
EXTRN	__imp__DeleteFileW@4:PROC
EXTRN	__imp__GetFileAttributesW@4:PROC
EXTRN	__imp__WriteFile@20:PROC
EXTRN	__imp__CloseHandle@4:PROC
EXTRN	__imp__lstrcatW@8:PROC
EXTRN	__imp__lstrlenW@4:PROC
EXTRN	__imp__CopyFileW@12:PROC
EXTRN	__imp_?_Xbad_alloc@std@@YAXXZ:PROC
EXTRN	__imp_?_Xlength_error@std@@YAXPBD@Z:PROC
EXTRN	__imp_?_Xout_of_range@std@@YAXPBD@Z:PROC
EXTRN	?Log@iSK_Logger@@UAAXQB_WZZ:PROC		; iSK_Logger::Log
EXTRN	?SK_CreateDirectories@@YG_NPB_W@Z:PROC		; SK_CreateDirectories
EXTRN	?SK_MoveFileNoFail@@YAXPB_W0@Z:PROC		; SK_MoveFileNoFail
EXTRN	?SK_SYS_GetInstallPath@@YA?AV?$basic_string@_WU?$char_traits@_W@std@@V?$allocator@_W@2@@std@@XZ:PROC ; SK_SYS_GetInstallPath
EXTRN	?SK_GetFileCRC32C@@YGIPB_WP6GX_K1@Z@Z:PROC	; SK_GetFileCRC32C
EXTRN	?SK_IsHostAppSKIM@@YA_NXZ:PROC			; SK_IsHostAppSKIM
EXTRN	__imp__PathAppendW@8:PROC
EXTRN	_LookToRead_CreateVTable:PROC
EXTRN	_LookToRead_Init:PROC
EXTRN	_SzArEx_Init:PROC
EXTRN	_SzArEx_Free:PROC
EXTRN	_SzArEx_GetFileNameUtf16:PROC
EXTRN	_SzArEx_Extract:PROC
EXTRN	_SzArEx_Open:PROC
EXTRN	_SzAllocTemp:PROC
EXTRN	_SzFreeTemp:PROC
EXTRN	@CrcGenerateTable@0:PROC
EXTRN	_InFile_OpenW:PROC
EXTRN	_File_Close:PROC
EXTRN	_FileInStream_CreateVTable:PROC
EXTRN	?SK_SYS_GetVersionPath@@YA?AV?$basic_string@_WU?$char_traits@_W@std@@V?$allocator@_W@2@@std@@XZ:PROC ; SK_SYS_GetVersionPath
EXTRN	__CxxThrowException@8:PROC
EXTRN	___CxxFrameHandler3:PROC
EXTRN	__chkstk:PROC
EXTRN	_memcpy:PROC
EXTRN	_memset:PROC
EXTRN	?dll_log@@3UiSK_Logger@@A:BYTE			; dll_log
;	COMDAT ??_C@_0BD@OLBABOEK@vector?$DMT?$DO?5too?5long?$AA@
CONST	SEGMENT
??_C@_0BD@OLBABOEK@vector?$DMT?$DO?5too?5long?$AA@ DB 'vector<T> too long'
	DB	00H						; `string'
CONST	ENDS
;	COMDAT ??_C@_0BI@CFPLBAOH@invalid?5string?5position?$AA@
CONST	SEGMENT
??_C@_0BI@CFPLBAOH@invalid?5string?5position?$AA@ DB 'invalid string posi'
	DB	'tion', 00H					; `string'
CONST	ENDS
;	COMDAT ??_C@_0BA@JFNIOLAK@string?5too?5long?$AA@
CONST	SEGMENT
??_C@_0BA@JFNIOLAK@string?5too?5long?$AA@ DB 'string too long', 00H ; `string'
CONST	ENDS
;	COMDAT xdata$x
xdata$x	SEGMENT
__catchsym$??$emplace_back@Usk_file_entry_s@@@?$vector@Usk_file_entry_s@@V?$allocator@Usk_file_entry_s@@@std@@@std@@QAEX$$QAUsk_file_entry_s@@@Z$50 DD 040H
	DD	00H
	DD	00H
	DD	FLAT:__catch$??$emplace_back@Usk_file_entry_s@@@?$vector@Usk_file_entry_s@@V?$allocator@Usk_file_entry_s@@@std@@@std@@QAEX$$QAUsk_file_entry_s@@@Z$0
__unwindtable$??$emplace_back@Usk_file_entry_s@@@?$vector@Usk_file_entry_s@@V?$allocator@Usk_file_entry_s@@@std@@@std@@QAEX$$QAUsk_file_entry_s@@@Z DD 0ffffffffH
	DD	00H
	DD	0ffffffffH
	DD	00H
__tryblocktable$??$emplace_back@Usk_file_entry_s@@@?$vector@Usk_file_entry_s@@V?$allocator@Usk_file_entry_s@@@std@@@std@@QAEX$$QAUsk_file_entry_s@@@Z DD 00H
	DD	00H
	DD	01H
	DD	01H
	DD	FLAT:__catchsym$??$emplace_back@Usk_file_entry_s@@@?$vector@Usk_file_entry_s@@V?$allocator@Usk_file_entry_s@@@std@@@std@@QAEX$$QAUsk_file_entry_s@@@Z$50
__ehfuncinfo$??$emplace_back@Usk_file_entry_s@@@?$vector@Usk_file_entry_s@@V?$allocator@Usk_file_entry_s@@@std@@@std@@QAEX$$QAUsk_file_entry_s@@@Z DD 019930522H
	DD	02H
	DD	FLAT:__unwindtable$??$emplace_back@Usk_file_entry_s@@@?$vector@Usk_file_entry_s@@V?$allocator@Usk_file_entry_s@@@std@@@std@@QAEX$$QAUsk_file_entry_s@@@Z
	DD	01H
	DD	FLAT:__tryblocktable$??$emplace_back@Usk_file_entry_s@@@?$vector@Usk_file_entry_s@@V?$allocator@Usk_file_entry_s@@@std@@@std@@QAEX$$QAUsk_file_entry_s@@@Z
	DD	2 DUP(00H)
	DD	00H
	DD	01H
xdata$x	ENDS
xdata$x	SEGMENT
__unwindtable$?SK_Decompress7z@@YAJPB_W0_NP6GHHH@Z@Z DD 0ffffffffH
	DD	FLAT:__unwindfunclet$?SK_Decompress7z@@YAJPB_W0_NP6GHHH@Z@Z$0
	DD	00H
	DD	FLAT:__unwindfunclet$?SK_Decompress7z@@YAJPB_W0_NP6GHHH@Z@Z$1
__unwindtable$?SK_Get7ZFileContents@@YA?AV?$vector@Usk_file_entry_s@@V?$allocator@Usk_file_entry_s@@@std@@@std@@PB_W@Z DD 0ffffffffH
	DD	FLAT:__unwindfunclet$?SK_Get7ZFileContents@@YA?AV?$vector@Usk_file_entry_s@@V?$allocator@Usk_file_entry_s@@@std@@@std@@PB_W@Z$0
	DD	00H
	DD	FLAT:__unwindfunclet$?SK_Get7ZFileContents@@YA?AV?$vector@Usk_file_entry_s@@V?$allocator@Usk_file_entry_s@@@std@@@std@@PB_W@Z$3
__ehfuncinfo$?SK_Decompress7z@@YAJPB_W0_NP6GHHH@Z@Z DD 019930522H
	DD	02H
	DD	FLAT:__unwindtable$?SK_Decompress7z@@YAJPB_W0_NP6GHHH@Z@Z
	DD	2 DUP(00H)
	DD	2 DUP(00H)
	DD	00H
	DD	01H
__ehfuncinfo$?SK_Get7ZFileContents@@YA?AV?$vector@Usk_file_entry_s@@V?$allocator@Usk_file_entry_s@@@std@@@std@@PB_W@Z DD 019930522H
	DD	02H
	DD	FLAT:__unwindtable$?SK_Get7ZFileContents@@YA?AV?$vector@Usk_file_entry_s@@V?$allocator@Usk_file_entry_s@@@std@@@std@@PB_W@Z
	DD	2 DUP(00H)
	DD	2 DUP(00H)
	DD	00H
	DD	01H
xdata$x	ENDS
;	COMDAT xdata$x
xdata$x	SEGMENT
__catchsym$?_Copy@?$basic_string@_WU?$char_traits@_W@std@@V?$allocator@_W@2@@std@@QAEXI@Z$18 DD 040H
	DD	00H
	DD	00H
	DD	FLAT:__catch$?_Copy@?$basic_string@_WU?$char_traits@_W@std@@V?$allocator@_W@2@@std@@QAEXI@Z$0
__unwindtable$?_Copy@?$basic_string@_WU?$char_traits@_W@std@@V?$allocator@_W@2@@std@@QAEXI@Z DD 0ffffffffH
	DD	00H
	DD	0ffffffffH
	DD	00H
__tryblocktable$?_Copy@?$basic_string@_WU?$char_traits@_W@std@@V?$allocator@_W@2@@std@@QAEXI@Z DD 00H
	DD	00H
	DD	01H
	DD	01H
	DD	FLAT:__catchsym$?_Copy@?$basic_string@_WU?$char_traits@_W@std@@V?$allocator@_W@2@@std@@QAEXI@Z$18
__ehfuncinfo$?_Copy@?$basic_string@_WU?$char_traits@_W@std@@V?$allocator@_W@2@@std@@QAEXI@Z DD 019930522H
	DD	02H
	DD	FLAT:__unwindtable$?_Copy@?$basic_string@_WU?$char_traits@_W@std@@V?$allocator@_W@2@@std@@QAEXI@Z
	DD	01H
	DD	FLAT:__tryblocktable$?_Copy@?$basic_string@_WU?$char_traits@_W@std@@V?$allocator@_W@2@@std@@QAEXI@Z
	DD	2 DUP(00H)
	DD	00H
	DD	01H
xdata$x	ENDS
; Function compile flags: /Ogtp
; File c:\program files (x86)\microsoft visual studio\2017\community\vc\tools\msvc\14.10.25017\include\xmemory0
; File c:\program files (x86)\microsoft visual studio\2017\community\vc\tools\msvc\14.10.25017\include\iosfwd
; File c:\program files (x86)\microsoft visual studio\2017\community\vc\tools\msvc\14.10.25017\include\xstring
; File c:\program files (x86)\microsoft visual studio\2017\community\vc\tools\msvc\14.10.25017\include\iosfwd
; File c:\program files (x86)\microsoft visual studio\2017\community\vc\tools\msvc\14.10.25017\include\xmemory0
;	COMDAT ??$construct@Usk_file_entry_s@@U1@@?$allocator@Usk_file_entry_s@@@std@@QAEXPAUsk_file_entry_s@@$$QAU2@@Z
_TEXT	SEGMENT
__Ptr$ = 8						; size = 4
_<_Args_0>$ = 12					; size = 4
??$construct@Usk_file_entry_s@@U1@@?$allocator@Usk_file_entry_s@@@std@@QAEXPAUsk_file_entry_s@@$$QAU2@@Z PROC ; std::allocator<sk_file_entry_s>::construct<sk_file_entry_s,sk_file_entry_s>, COMDAT
; _this$ = ecx

; 839  : 		{	// construct _Objty(_Types...) at _Ptr

	npad	2
	push	ebp
	mov	ebp, esp

; 840  : 		::new ((void *)_Ptr) _Objty(_STD forward<_Types>(_Args)...);

	mov	edx, DWORD PTR __Ptr$[ebp]
	test	edx, edx
	je	SHORT $LN3@construct
	mov	ecx, DWORD PTR _<_Args_0>$[ebp]
	mov	eax, DWORD PTR [ecx]
	mov	DWORD PTR [edx], eax
	mov	eax, DWORD PTR [ecx+8]
	mov	DWORD PTR [edx+8], eax
	mov	eax, DWORD PTR [ecx+12]
	mov	DWORD PTR [edx+12], eax
; File c:\program files (x86)\microsoft visual studio\2017\community\vc\tools\msvc\14.10.25017\include\iosfwd

; 326  : 		_Left = _Right;

	xor	eax, eax
; File c:\program files (x86)\microsoft visual studio\2017\community\vc\tools\msvc\14.10.25017\include\xstring

; 1595 : 		_Mysize(0),

	mov	DWORD PTR [edx+32], 0

; 1596 : 		_Myres(0)

	mov	DWORD PTR [edx+36], 0

; 2143 : 		_CSTD memcpy(_My_data_mem, _Right_data_mem, _Memcpy_move_size);

	movups	xmm0, XMMWORD PTR [ecx+16]
	movups	XMMWORD PTR [edx+16], xmm0
	movq	xmm0, QWORD PTR [ecx+32]
	movq	QWORD PTR [edx+32], xmm0

; 3597 : 		_My_data._Mysize = 0;

	mov	DWORD PTR [ecx+32], 0

; 3598 : 		_My_data._Myres = this->_BUF_SIZE - 1;

	mov	DWORD PTR [ecx+36], 7
; File c:\program files (x86)\microsoft visual studio\2017\community\vc\tools\msvc\14.10.25017\include\iosfwd

; 326  : 		_Left = _Right;

	mov	WORD PTR [ecx+16], ax
$LN3@construct:
; File c:\program files (x86)\microsoft visual studio\2017\community\vc\tools\msvc\14.10.25017\include\xmemory0

; 841  : 		}

	pop	ebp
	ret	8
??$construct@Usk_file_entry_s@@U1@@?$allocator@Usk_file_entry_s@@@std@@QAEXPAUsk_file_entry_s@@$$QAU2@@Z ENDP ; std::allocator<sk_file_entry_s>::construct<sk_file_entry_s,sk_file_entry_s>
_TEXT	ENDS
; Function compile flags: /Ogtp
; File c:\program files (x86)\microsoft visual studio\2017\community\vc\tools\msvc\14.10.25017\include\xutility
;	COMDAT ??$_Rechecked@PAUsk_file_entry_s@@PAU1@@std@@YAAAPAUsk_file_entry_s@@AAPAU1@PAU1@@Z
_TEXT	SEGMENT
__Dest$ = 8						; size = 4
__Src$ = 12						; size = 4
??$_Rechecked@PAUsk_file_entry_s@@PAU1@@std@@YAAAPAUsk_file_entry_s@@AAPAU1@PAU1@@Z PROC ; std::_Rechecked<sk_file_entry_s *,sk_file_entry_s *>, COMDAT

; 480  : 	{	// reset checked from unchecked, generic

	npad	2
	push	ebp
	mov	ebp, esp

; 481  : 	_Dest = _Src;

	mov	eax, DWORD PTR __Dest$[ebp]
	mov	ecx, DWORD PTR __Src$[ebp]
	mov	DWORD PTR [eax], ecx

; 482  : 	return (_Dest);
; 483  : 	}

	pop	ebp
	ret	0
??$_Rechecked@PAUsk_file_entry_s@@PAU1@@std@@YAAAPAUsk_file_entry_s@@AAPAU1@PAU1@@Z ENDP ; std::_Rechecked<sk_file_entry_s *,sk_file_entry_s *>
_TEXT	ENDS
; Function compile flags: /Ogtp
; File c:\program files (x86)\microsoft visual studio\2017\community\vc\tools\msvc\14.10.25017\include\xutility
;	COMDAT ??$?0U?$integral_constant@_N$00@std@@@_Any_tag@std@@QAE@$$QAU?$integral_constant@_N$00@1@@Z
_TEXT	SEGMENT
___formal$ = 8						; size = 4
??$?0U?$integral_constant@_N$00@std@@@_Any_tag@std@@QAE@$$QAU?$integral_constant@_N$00@1@@Z PROC ; std::_Any_tag::_Any_tag<std::integral_constant<bool,1> >, COMDAT
; _this$ = ecx

; 556  : 		constexpr _Any_tag(_Ty&&) _NOEXCEPT {}

	mov	eax, ecx
	ret	4
??$?0U?$integral_constant@_N$00@std@@@_Any_tag@std@@QAE@$$QAU?$integral_constant@_N$00@1@@Z ENDP ; std::_Any_tag::_Any_tag<std::integral_constant<bool,1> >
_TEXT	ENDS
; Function compile flags: /Ogtp
; File c:\program files (x86)\microsoft visual studio\2017\community\vc\tools\msvc\14.10.25017\include\xmemory
; File c:\program files (x86)\microsoft visual studio\2017\community\vc\tools\msvc\14.10.25017\include\xmemory0
; File c:\program files (x86)\microsoft visual studio\2017\community\vc\tools\msvc\14.10.25017\include\iosfwd
; File c:\program files (x86)\microsoft visual studio\2017\community\vc\tools\msvc\14.10.25017\include\xstring
; File c:\program files (x86)\microsoft visual studio\2017\community\vc\tools\msvc\14.10.25017\include\iosfwd
; File c:\program files (x86)\microsoft visual studio\2017\community\vc\tools\msvc\14.10.25017\include\xmemory
;	COMDAT ??$_Uninitialized_move_al_unchecked@PAUsk_file_entry_s@@PAU1@V?$allocator@Usk_file_entry_s@@@std@@@std@@YAPAUsk_file_entry_s@@PAU1@00AAU?$_Wrap_alloc@V?$allocator@Usk_file_entry_s@@@std@@@0@U_General_ptr_iterator_tag@0@U_Any_tag@0@@Z
_TEXT	SEGMENT
__First$ = 8						; size = 4
__Last$ = 12						; size = 4
__Dest$ = 16						; size = 4
__Al$ = 20						; size = 4
___formal$ = 24						; size = 1
___formal$ = 28						; size = 1
??$_Uninitialized_move_al_unchecked@PAUsk_file_entry_s@@PAU1@V?$allocator@Usk_file_entry_s@@@std@@@std@@YAPAUsk_file_entry_s@@PAU1@00AAU?$_Wrap_alloc@V?$allocator@Usk_file_entry_s@@@std@@@0@U_General_ptr_iterator_tag@0@U_Any_tag@0@@Z PROC ; std::_Uninitialized_move_al_unchecked<sk_file_entry_s *,sk_file_entry_s *,std::allocator<sk_file_entry_s> >, COMDAT

; 135  : 	{	// move [_First, _Last) to raw _Dest, using _Al, no special optimization

	npad	2
	push	ebp
	mov	ebp, esp

; 139  : 	for (; _First != _Last; ++_Dest, (void)++_First)

	mov	ecx, DWORD PTR __First$[ebp]
	push	ebx
	mov	ebx, DWORD PTR __Last$[ebp]
	cmp	ecx, ebx
	je	SHORT $LN100@Uninitiali
	push	esi
	push	edi
	mov	edi, DWORD PTR __Dest$[ebp]
	add	ecx, 36					; 00000024H
	lea	esi, DWORD PTR [edi+36]
	npad	5
$LL4@Uninitiali:
; File c:\program files (x86)\microsoft visual studio\2017\community\vc\tools\msvc\14.10.25017\include\xmemory0

; 840  : 		::new ((void *)_Ptr) _Objty(_STD forward<_Types>(_Args)...);

	test	edi, edi
	je	SHORT $LN2@Uninitiali
	mov	eax, DWORD PTR [ecx-36]
	mov	DWORD PTR [edi], eax
	mov	eax, DWORD PTR [ecx-28]
	mov	DWORD PTR [esi-28], eax
	mov	eax, DWORD PTR [ecx-24]
	mov	DWORD PTR [esi-24], eax
; File c:\program files (x86)\microsoft visual studio\2017\community\vc\tools\msvc\14.10.25017\include\iosfwd

; 326  : 		_Left = _Right;

	xor	eax, eax
; File c:\program files (x86)\microsoft visual studio\2017\community\vc\tools\msvc\14.10.25017\include\xstring

; 1595 : 		_Mysize(0),

	mov	DWORD PTR [esi-4], 0

; 1596 : 		_Myres(0)

	mov	DWORD PTR [esi], 0

; 2143 : 		_CSTD memcpy(_My_data_mem, _Right_data_mem, _Memcpy_move_size);

	movups	xmm0, XMMWORD PTR [ecx-20]
	movups	XMMWORD PTR [esi-20], xmm0
	movq	xmm0, QWORD PTR [ecx-4]
	movq	QWORD PTR [esi-4], xmm0

; 3597 : 		_My_data._Mysize = 0;

	mov	DWORD PTR [ecx-4], 0

; 3598 : 		_My_data._Myres = this->_BUF_SIZE - 1;

	mov	DWORD PTR [ecx], 7
; File c:\program files (x86)\microsoft visual studio\2017\community\vc\tools\msvc\14.10.25017\include\iosfwd

; 326  : 		_Left = _Right;

	mov	WORD PTR [ecx-20], ax
$LN2@Uninitiali:
; File c:\program files (x86)\microsoft visual studio\2017\community\vc\tools\msvc\14.10.25017\include\xmemory

; 139  : 	for (; _First != _Last; ++_Dest, (void)++_First)

	add	ecx, 40					; 00000028H
	add	edi, 40					; 00000028H
	add	esi, 40					; 00000028H
	lea	edx, DWORD PTR [ecx-36]
	cmp	edx, ebx
	jne	SHORT $LL4@Uninitiali

; 140  : 		{
; 141  : 		_Al.construct(_Unfancy(_Dest), _STD move(*_First));
; 142  : 		}
; 143  : 
; 144  : 	_CATCH_ALL
; 145  : 	_Destroy_range(_Next, _Dest, _Al);
; 146  : 	_RERAISE;
; 147  : 	_CATCH_END
; 148  : 
; 149  : 	return (_Dest);

	mov	eax, edi
	pop	edi
	pop	esi
	pop	ebx

; 150  : 	}

	pop	ebp
	ret	0
$LN100@Uninitiali:

; 140  : 		{
; 141  : 		_Al.construct(_Unfancy(_Dest), _STD move(*_First));
; 142  : 		}
; 143  : 
; 144  : 	_CATCH_ALL
; 145  : 	_Destroy_range(_Next, _Dest, _Al);
; 146  : 	_RERAISE;
; 147  : 	_CATCH_END
; 148  : 
; 149  : 	return (_Dest);

	mov	eax, DWORD PTR __Dest$[ebp]
	pop	ebx

; 150  : 	}

	pop	ebp
	ret	0
??$_Uninitialized_move_al_unchecked@PAUsk_file_entry_s@@PAU1@V?$allocator@Usk_file_entry_s@@@std@@@std@@YAPAUsk_file_entry_s@@PAU1@00AAU?$_Wrap_alloc@V?$allocator@Usk_file_entry_s@@@std@@@0@U_General_ptr_iterator_tag@0@U_Any_tag@0@@Z ENDP ; std::_Uninitialized_move_al_unchecked<sk_file_entry_s *,sk_file_entry_s *,std::allocator<sk_file_entry_s> >
_TEXT	ENDS
; Function compile flags: /Ogtp
; File c:\program files (x86)\microsoft visual studio\2017\community\vc\tools\msvc\14.10.25017\include\xutility
;	COMDAT ??$_Unchecked@PAUsk_file_entry_s@@@std@@YAPAUsk_file_entry_s@@PAU1@@Z
_TEXT	SEGMENT
__Src$ = 8						; size = 4
??$_Unchecked@PAUsk_file_entry_s@@@std@@YAPAUsk_file_entry_s@@PAU1@@Z PROC ; std::_Unchecked<sk_file_entry_s *>, COMDAT

; 450  : 	{	// construct unchecked from checked, generic

	npad	2
	push	ebp
	mov	ebp, esp

; 451  : 	return (_Src);

	mov	eax, DWORD PTR __Src$[ebp]

; 452  : 	}

	pop	ebp
	ret	0
??$_Unchecked@PAUsk_file_entry_s@@@std@@YAPAUsk_file_entry_s@@PAU1@@Z ENDP ; std::_Unchecked<sk_file_entry_s *>
_TEXT	ENDS
; Function compile flags: /Ogtp
; File c:\program files (x86)\microsoft visual studio\2017\community\vc\tools\msvc\14.10.25017\include\xutility
; File c:\program files (x86)\microsoft visual studio\2017\community\vc\tools\msvc\14.10.25017\include\xstring
; File c:\program files (x86)\microsoft visual studio\2017\community\vc\tools\msvc\14.10.25017\include\xutility
; File c:\program files (x86)\microsoft visual studio\2017\community\vc\tools\msvc\14.10.25017\include\xstring
; File c:\program files (x86)\microsoft visual studio\2017\community\vc\tools\msvc\14.10.25017\include\xutility
;	COMDAT ??$?0U?$_Wrap_alloc@V?$allocator@_W@std@@@std@@$$V@?$_Compressed_pair@U?$_Wrap_alloc@V?$allocator@_W@std@@@std@@V?$_String_val@U?$_Simple_types@_W@std@@@2@$00@std@@QAE@U_One_then_variadic_args_t@1@$$QAU?$_Wrap_alloc@V?$allocator@_W@std@@@1@@Z
_TEXT	SEGMENT
___formal$ = 8						; size = 1
__Val1$ = 12						; size = 4
??$?0U?$_Wrap_alloc@V?$allocator@_W@std@@@std@@$$V@?$_Compressed_pair@U?$_Wrap_alloc@V?$allocator@_W@std@@@std@@V?$_String_val@U?$_Simple_types@_W@std@@@2@$00@std@@QAE@U_One_then_variadic_args_t@1@$$QAU?$_Wrap_alloc@V?$allocator@_W@std@@@1@@Z PROC ; std::_Compressed_pair<std::_Wrap_alloc<std::allocator<wchar_t> >,std::_String_val<std::_Simple_types<wchar_t> >,1>::_Compressed_pair<std::_Wrap_alloc<std::allocator<wchar_t> >,std::_String_val<std::_Simple_types<wchar_t> >,1><std::_Wrap_alloc<std::allocator<wchar_t> > >, COMDAT
; _this$ = ecx
; File c:\program files (x86)\microsoft visual studio\2017\community\vc\tools\msvc\14.10.25017\include\xstring

; 1595 : 		_Mysize(0),

	mov	DWORD PTR [ecx+16], 0
; File c:\program files (x86)\microsoft visual studio\2017\community\vc\tools\msvc\14.10.25017\include\xutility

; 313  : 		}

	mov	eax, ecx
; File c:\program files (x86)\microsoft visual studio\2017\community\vc\tools\msvc\14.10.25017\include\xstring

; 1596 : 		_Myres(0)

	mov	DWORD PTR [ecx+20], 0
; File c:\program files (x86)\microsoft visual studio\2017\community\vc\tools\msvc\14.10.25017\include\xutility

; 313  : 		}

	ret	8
??$?0U?$_Wrap_alloc@V?$allocator@_W@std@@@std@@$$V@?$_Compressed_pair@U?$_Wrap_alloc@V?$allocator@_W@std@@@std@@V?$_String_val@U?$_Simple_types@_W@std@@@2@$00@std@@QAE@U_One_then_variadic_args_t@1@$$QAU?$_Wrap_alloc@V?$allocator@_W@std@@@1@@Z ENDP ; std::_Compressed_pair<std::_Wrap_alloc<std::allocator<wchar_t> >,std::_String_val<std::_Simple_types<wchar_t> >,1>::_Compressed_pair<std::_Wrap_alloc<std::allocator<wchar_t> >,std::_String_val<std::_Simple_types<wchar_t> >,1><std::_Wrap_alloc<std::allocator<wchar_t> > >
_TEXT	ENDS
; Function compile flags: /Ogtp
; File c:\program files (x86)\microsoft visual studio\2017\community\vc\tools\msvc\14.10.25017\include\type_traits
;	COMDAT ??$forward@U?$_Wrap_alloc@V?$allocator@_W@std@@@std@@@std@@YA$$QAU?$_Wrap_alloc@V?$allocator@_W@std@@@0@AAU10@@Z
_TEXT	SEGMENT
__Arg$ = 8						; size = 4
??$forward@U?$_Wrap_alloc@V?$allocator@_W@std@@@std@@@std@@YA$$QAU?$_Wrap_alloc@V?$allocator@_W@std@@@0@AAU10@@Z PROC ; std::forward<std::_Wrap_alloc<std::allocator<wchar_t> > >, COMDAT

; 1334 : 	{	// forward an lvalue as either an lvalue or an rvalue

	npad	2
	push	ebp
	mov	ebp, esp

; 1335 : 	return (static_cast<_Ty&&>(_Arg));

	mov	eax, DWORD PTR __Arg$[ebp]

; 1336 : 	}

	pop	ebp
	ret	0
??$forward@U?$_Wrap_alloc@V?$allocator@_W@std@@@std@@@std@@YA$$QAU?$_Wrap_alloc@V?$allocator@_W@std@@@0@AAU10@@Z ENDP ; std::forward<std::_Wrap_alloc<std::allocator<wchar_t> > >
_TEXT	ENDS
; Function compile flags: /Ogtp
; File c:\program files (x86)\microsoft visual studio\2017\community\vc\tools\msvc\14.10.25017\include\xmemory0
;	COMDAT ??$construct@PA_WAAPA_W@?$allocator@_W@std@@QAEXPAPA_WAAPA_W@Z
_TEXT	SEGMENT
__Ptr$ = 8						; size = 4
_<_Args_0>$ = 12					; size = 4
??$construct@PA_WAAPA_W@?$allocator@_W@std@@QAEXPAPA_WAAPA_W@Z PROC ; std::allocator<wchar_t>::construct<wchar_t *,wchar_t * &>, COMDAT
; _this$ = ecx

; 839  : 		{	// construct _Objty(_Types...) at _Ptr

	npad	2
	push	ebp
	mov	ebp, esp

; 840  : 		::new ((void *)_Ptr) _Objty(_STD forward<_Types>(_Args)...);

	mov	ecx, DWORD PTR __Ptr$[ebp]
	test	ecx, ecx
	je	SHORT $LN3@construct
	mov	eax, DWORD PTR _<_Args_0>$[ebp]
	mov	eax, DWORD PTR [eax]
	mov	DWORD PTR [ecx], eax
$LN3@construct:

; 841  : 		}

	pop	ebp
	ret	8
??$construct@PA_WAAPA_W@?$allocator@_W@std@@QAEXPAPA_WAAPA_W@Z ENDP ; std::allocator<wchar_t>::construct<wchar_t *,wchar_t * &>
_TEXT	ENDS
; Function compile flags: /Ogtp
; File c:\program files (x86)\microsoft visual studio\2017\community\vc\tools\msvc\14.10.25017\include\xmemory0
;	COMDAT ??$destroy@PA_W@?$allocator@_W@std@@QAEXPAPA_W@Z
_TEXT	SEGMENT
__Ptr$ = 8						; size = 4
??$destroy@PA_W@?$allocator@_W@std@@QAEXPAPA_W@Z PROC	; std::allocator<wchar_t>::destroy<wchar_t *>, COMDAT
; _this$ = ecx

; 846  : 		_Ptr->~_Uty();
; 847  : 		}

	ret	4
??$destroy@PA_W@?$allocator@_W@std@@QAEXPAPA_W@Z ENDP	; std::allocator<wchar_t>::destroy<wchar_t *>
_TEXT	ENDS
; Function compile flags: /Ogtp
; File c:\program files (x86)\microsoft visual studio\2017\community\vc\tools\msvc\14.10.25017\include\xmemory0
; File c:\program files (x86)\microsoft visual studio\2017\community\vc\tools\msvc\14.10.25017\include\iosfwd
; File c:\program files (x86)\microsoft visual studio\2017\community\vc\tools\msvc\14.10.25017\include\xstring
; File c:\program files (x86)\microsoft visual studio\2017\community\vc\tools\msvc\14.10.25017\include\iosfwd
; File c:\program files (x86)\microsoft visual studio\2017\community\vc\tools\msvc\14.10.25017\include\xmemory0
;	COMDAT ??$construct@Usk_file_entry_s@@U1@@?$allocator_traits@V?$allocator@Usk_file_entry_s@@@std@@@std@@SAXAAV?$allocator@Usk_file_entry_s@@@1@PAUsk_file_entry_s@@$$QAU3@@Z
_TEXT	SEGMENT
__Al$ = 8						; size = 4
__Ptr$ = 12						; size = 4
_<_Args_0>$ = 16					; size = 4
??$construct@Usk_file_entry_s@@U1@@?$allocator_traits@V?$allocator@Usk_file_entry_s@@@std@@@std@@SAXAAV?$allocator@Usk_file_entry_s@@@1@PAUsk_file_entry_s@@$$QAU3@@Z PROC ; std::allocator_traits<std::allocator<sk_file_entry_s> >::construct<sk_file_entry_s,sk_file_entry_s>, COMDAT

; 958  : 		{	// construct _Objty(_Types...) at _Ptr

	npad	2
	push	ebp
	mov	ebp, esp

; 840  : 		::new ((void *)_Ptr) _Objty(_STD forward<_Types>(_Args)...);

	mov	edx, DWORD PTR __Ptr$[ebp]
	test	edx, edx
	je	SHORT $LN8@construct
	mov	ecx, DWORD PTR _<_Args_0>$[ebp]
	mov	eax, DWORD PTR [ecx]
	mov	DWORD PTR [edx], eax
	mov	eax, DWORD PTR [ecx+8]
	mov	DWORD PTR [edx+8], eax
	mov	eax, DWORD PTR [ecx+12]
	mov	DWORD PTR [edx+12], eax
; File c:\program files (x86)\microsoft visual studio\2017\community\vc\tools\msvc\14.10.25017\include\iosfwd

; 326  : 		_Left = _Right;

	xor	eax, eax
; File c:\program files (x86)\microsoft visual studio\2017\community\vc\tools\msvc\14.10.25017\include\xstring

; 1595 : 		_Mysize(0),

	mov	DWORD PTR [edx+32], 0

; 1596 : 		_Myres(0)

	mov	DWORD PTR [edx+36], 0

; 2143 : 		_CSTD memcpy(_My_data_mem, _Right_data_mem, _Memcpy_move_size);

	movups	xmm0, XMMWORD PTR [ecx+16]
	movups	XMMWORD PTR [edx+16], xmm0
	movq	xmm0, QWORD PTR [ecx+32]
	movq	QWORD PTR [edx+32], xmm0

; 3597 : 		_My_data._Mysize = 0;

	mov	DWORD PTR [ecx+32], 0

; 3598 : 		_My_data._Myres = this->_BUF_SIZE - 1;

	mov	DWORD PTR [ecx+36], 7
; File c:\program files (x86)\microsoft visual studio\2017\community\vc\tools\msvc\14.10.25017\include\iosfwd

; 326  : 		_Left = _Right;

	mov	WORD PTR [ecx+16], ax
$LN8@construct:
; File c:\program files (x86)\microsoft visual studio\2017\community\vc\tools\msvc\14.10.25017\include\xmemory0

; 960  : 		}

	pop	ebp
	ret	0
??$construct@Usk_file_entry_s@@U1@@?$allocator_traits@V?$allocator@Usk_file_entry_s@@@std@@@std@@SAXAAV?$allocator@Usk_file_entry_s@@@1@PAUsk_file_entry_s@@$$QAU3@@Z ENDP ; std::allocator_traits<std::allocator<sk_file_entry_s> >::construct<sk_file_entry_s,sk_file_entry_s>
_TEXT	ENDS
; Function compile flags: /Ogtp
; File c:\program files (x86)\microsoft visual studio\2017\community\vc\tools\msvc\14.10.25017\include\xmemory0
; File c:\program files (x86)\microsoft visual studio\2017\community\vc\tools\msvc\14.10.25017\include\xstring
; File c:\program files (x86)\microsoft visual studio\2017\community\vc\tools\msvc\14.10.25017\include\xmemory0
; File c:\program files (x86)\microsoft visual studio\2017\community\vc\tools\msvc\14.10.25017\include\xstring
; File c:\program files (x86)\microsoft visual studio\2017\community\vc\tools\msvc\14.10.25017\include\xmemory0
; File c:\program files (x86)\microsoft visual studio\2017\community\vc\tools\msvc\14.10.25017\include\xstring
; File c:\program files (x86)\microsoft visual studio\2017\community\vc\tools\msvc\14.10.25017\include\iosfwd
; File c:\program files (x86)\microsoft visual studio\2017\community\vc\tools\msvc\14.10.25017\include\xstring
; File c:\program files (x86)\microsoft visual studio\2017\community\vc\tools\msvc\14.10.25017\include\iosfwd
; File c:\program files (x86)\microsoft visual studio\2017\community\vc\tools\msvc\14.10.25017\include\xmemory0
;	COMDAT ??$destroy@Usk_file_entry_s@@@?$allocator@Usk_file_entry_s@@@std@@QAEXPAUsk_file_entry_s@@@Z
_TEXT	SEGMENT
__Ptr$ = 8						; size = 4
??$destroy@Usk_file_entry_s@@@?$allocator@Usk_file_entry_s@@@std@@QAEXPAUsk_file_entry_s@@@Z PROC ; std::allocator<sk_file_entry_s>::destroy<sk_file_entry_s>, COMDAT
; _this$ = ecx

; 845  : 		{	// destroy object at _Ptr

	npad	2
	push	ebp
	mov	ebp, esp
	push	esi
	mov	esi, DWORD PTR __Ptr$[ebp]
; File c:\program files (x86)\microsoft visual studio\2017\community\vc\tools\msvc\14.10.25017\include\xstring

; 1628 : 		return (this->_BUF_SIZE <= _Myres);

	mov	eax, DWORD PTR [esi+36]
	cmp	eax, 8

; 3608 : 		if (_My_data._Large_string_engaged())

	jb	SHORT $LN14@destroy
; File c:\program files (x86)\microsoft visual studio\2017\community\vc\tools\msvc\14.10.25017\include\xmemory0

; 823  : 		_Deallocate(_Ptr, _Count, sizeof (_Ty));

	push	2
; File c:\program files (x86)\microsoft visual studio\2017\community\vc\tools\msvc\14.10.25017\include\xstring

; 3613 : 			_Al.deallocate(_Ptr, _My_data._Myres + 1);

	inc	eax
; File c:\program files (x86)\microsoft visual studio\2017\community\vc\tools\msvc\14.10.25017\include\xmemory0

; 823  : 		_Deallocate(_Ptr, _Count, sizeof (_Ty));

	push	eax
	push	DWORD PTR [esi+16]
	call	?_Deallocate@std@@YAXPAXII@Z		; std::_Deallocate
	add	esp, 12					; 0000000cH
$LN14@destroy:
; File c:\program files (x86)\microsoft visual studio\2017\community\vc\tools\msvc\14.10.25017\include\xstring

; 3616 : 		_My_data._Mysize = 0;

	mov	DWORD PTR [esi+32], 0
; File c:\program files (x86)\microsoft visual studio\2017\community\vc\tools\msvc\14.10.25017\include\iosfwd

; 326  : 		_Left = _Right;

	xor	eax, eax
; File c:\program files (x86)\microsoft visual studio\2017\community\vc\tools\msvc\14.10.25017\include\xstring

; 3617 : 		_My_data._Myres = this->_BUF_SIZE - 1;

	mov	DWORD PTR [esi+36], 7
; File c:\program files (x86)\microsoft visual studio\2017\community\vc\tools\msvc\14.10.25017\include\iosfwd

; 326  : 		_Left = _Right;

	mov	WORD PTR [esi+16], ax
	pop	esi
; File c:\program files (x86)\microsoft visual studio\2017\community\vc\tools\msvc\14.10.25017\include\xmemory0

; 847  : 		}

	pop	ebp
	ret	4
??$destroy@Usk_file_entry_s@@@?$allocator@Usk_file_entry_s@@@std@@QAEXPAUsk_file_entry_s@@@Z ENDP ; std::allocator<sk_file_entry_s>::destroy<sk_file_entry_s>
_TEXT	ENDS
; Function compile flags: /Ogtp
; File c:\program files (x86)\microsoft visual studio\2017\community\vc\tools\msvc\14.10.25017\include\xmemory
; File c:\program files (x86)\microsoft visual studio\2017\community\vc\tools\msvc\14.10.25017\include\xutility
; File c:\program files (x86)\microsoft visual studio\2017\community\vc\tools\msvc\14.10.25017\include\xmemory
;	COMDAT ??$_Uninitialized_move@PAUsk_file_entry_s@@PAU1@V?$allocator@Usk_file_entry_s@@@std@@@std@@YAPAUsk_file_entry_s@@PAU1@00AAU?$_Wrap_alloc@V?$allocator@Usk_file_entry_s@@@std@@@0@@Z
_TEXT	SEGMENT
$T1 = -4						; size = 1
__First$ = 8						; size = 4
__Last$ = 12						; size = 4
__Dest$ = 16						; size = 4
__Al$ = 20						; size = 4
??$_Uninitialized_move@PAUsk_file_entry_s@@PAU1@V?$allocator@Usk_file_entry_s@@@std@@@std@@YAPAUsk_file_entry_s@@PAU1@00AAU?$_Wrap_alloc@V?$allocator@Usk_file_entry_s@@@std@@@0@@Z PROC ; std::_Uninitialized_move<sk_file_entry_s *,sk_file_entry_s *,std::allocator<sk_file_entry_s> >, COMDAT

; 166  : 	{	// move [_First, _Last) to raw _Dest, using _Al

	npad	2
	push	ebp
	mov	ebp, esp
	sub	esp, 8

; 172  : 	return (_Rechecked(_Dest,

	push	ecx
; File c:\program files (x86)\microsoft visual studio\2017\community\vc\tools\msvc\14.10.25017\include\xutility

; 893  : 	return {};

	mov	BYTE PTR $T1[ebp], 0
; File c:\program files (x86)\microsoft visual studio\2017\community\vc\tools\msvc\14.10.25017\include\xmemory

; 172  : 	return (_Rechecked(_Dest,

	push	DWORD PTR $T1[ebp]
	push	DWORD PTR __Al$[ebp]
	push	DWORD PTR __Dest$[ebp]
	push	DWORD PTR __Last$[ebp]
	push	DWORD PTR __First$[ebp]
	call	??$_Uninitialized_move_al_unchecked@PAUsk_file_entry_s@@PAU1@V?$allocator@Usk_file_entry_s@@@std@@@std@@YAPAUsk_file_entry_s@@PAU1@00AAU?$_Wrap_alloc@V?$allocator@Usk_file_entry_s@@@std@@@0@U_General_ptr_iterator_tag@0@U_Any_tag@0@@Z ; std::_Uninitialized_move_al_unchecked<sk_file_entry_s *,sk_file_entry_s *,std::allocator<sk_file_entry_s> >
	add	esp, 24					; 00000018H

; 173  : 		_Uninitialized_move_al_unchecked(_UFirst, _ULast, _UDest, _Al,
; 174  : 			_Ptr_move_cat(_UFirst, _UDest),
; 175  : 			_Uses_default_construct_t<_Alloc, decltype(_Unfancy(_UDest)), decltype(_STD move(*_UFirst))>())));
; 176  : 	}

	mov	esp, ebp
	pop	ebp
	ret	0
??$_Uninitialized_move@PAUsk_file_entry_s@@PAU1@V?$allocator@Usk_file_entry_s@@@std@@@std@@YAPAUsk_file_entry_s@@PAU1@00AAU?$_Wrap_alloc@V?$allocator@Usk_file_entry_s@@@std@@@0@@Z ENDP ; std::_Uninitialized_move<sk_file_entry_s *,sk_file_entry_s *,std::allocator<sk_file_entry_s> >
_TEXT	ENDS
; Function compile flags: /Ogtp
; File c:\program files (x86)\microsoft visual studio\2017\community\vc\tools\msvc\14.10.25017\include\xstring
;	COMDAT ??$?0U?$_Wrap_alloc@V?$allocator@_W@std@@@std@@X@?$_String_alloc@U?$_String_base_types@_WV?$allocator@_W@std@@@std@@@std@@QAE@$$QAU?$_Wrap_alloc@V?$allocator@_W@std@@@1@@Z
_TEXT	SEGMENT
__Al$ = 8						; size = 4
??$?0U?$_Wrap_alloc@V?$allocator@_W@std@@@std@@X@?$_String_alloc@U?$_String_base_types@_WV?$allocator@_W@std@@@std@@@std@@QAE@$$QAU?$_Wrap_alloc@V?$allocator@_W@std@@@1@@Z PROC ; std::_String_alloc<std::_String_base_types<wchar_t,std::allocator<wchar_t> > >::_String_alloc<std::_String_base_types<wchar_t,std::allocator<wchar_t> > ><std::_Wrap_alloc<std::allocator<wchar_t> >,void>, COMDAT
; _this$ = ecx

; 1595 : 		_Mysize(0),

	mov	DWORD PTR [ecx+16], 0

; 1705 : 		}

	mov	eax, ecx

; 1596 : 		_Myres(0)

	mov	DWORD PTR [ecx+20], 0

; 1705 : 		}

	ret	4
??$?0U?$_Wrap_alloc@V?$allocator@_W@std@@@std@@X@?$_String_alloc@U?$_String_base_types@_WV?$allocator@_W@std@@@std@@@std@@QAE@$$QAU?$_Wrap_alloc@V?$allocator@_W@std@@@1@@Z ENDP ; std::_String_alloc<std::_String_base_types<wchar_t,std::allocator<wchar_t> > >::_String_alloc<std::_String_base_types<wchar_t,std::allocator<wchar_t> > ><std::_Wrap_alloc<std::allocator<wchar_t> >,void>
_TEXT	ENDS
; Function compile flags: /Ogtp
; File c:\program files (x86)\microsoft visual studio\2017\community\vc\tools\msvc\14.10.25017\include\type_traits
;	COMDAT ??$move@AAU?$_Wrap_alloc@V?$allocator@_W@std@@@std@@@std@@YA$$QAU?$_Wrap_alloc@V?$allocator@_W@std@@@0@AAU10@@Z
_TEXT	SEGMENT
__Arg$ = 8						; size = 4
??$move@AAU?$_Wrap_alloc@V?$allocator@_W@std@@@std@@@std@@YA$$QAU?$_Wrap_alloc@V?$allocator@_W@std@@@0@AAU10@@Z PROC ; std::move<std::_Wrap_alloc<std::allocator<wchar_t> > &>, COMDAT

; 1350 : 	{	// forward _Arg as movable

	npad	2
	push	ebp
	mov	ebp, esp

; 1351 : 	return (static_cast<typename remove_reference<_Ty>::type&&>(_Arg));

	mov	eax, DWORD PTR __Arg$[ebp]

; 1352 : 	}

	pop	ebp
	ret	0
??$move@AAU?$_Wrap_alloc@V?$allocator@_W@std@@@std@@@std@@YA$$QAU?$_Wrap_alloc@V?$allocator@_W@std@@@0@AAU10@@Z ENDP ; std::move<std::_Wrap_alloc<std::allocator<wchar_t> > &>
_TEXT	ENDS
; Function compile flags: /Ogtp
; File c:\program files (x86)\microsoft visual studio\2017\community\vc\tools\msvc\14.10.25017\include\xmemory0
;	COMDAT ??$construct@PA_WAAPA_W@?$allocator_traits@V?$allocator@_W@std@@@std@@SAXAAV?$allocator@_W@1@PAPA_WAAPA_W@Z
_TEXT	SEGMENT
__Al$ = 8						; size = 4
__Ptr$ = 12						; size = 4
_<_Args_0>$ = 16					; size = 4
??$construct@PA_WAAPA_W@?$allocator_traits@V?$allocator@_W@std@@@std@@SAXAAV?$allocator@_W@1@PAPA_WAAPA_W@Z PROC ; std::allocator_traits<std::allocator<wchar_t> >::construct<wchar_t *,wchar_t * &>, COMDAT

; 958  : 		{	// construct _Objty(_Types...) at _Ptr

	npad	2
	push	ebp
	mov	ebp, esp

; 840  : 		::new ((void *)_Ptr) _Objty(_STD forward<_Types>(_Args)...);

	mov	ecx, DWORD PTR __Ptr$[ebp]
	test	ecx, ecx
	je	SHORT $LN8@construct
	mov	eax, DWORD PTR _<_Args_0>$[ebp]
	mov	eax, DWORD PTR [eax]
	mov	DWORD PTR [ecx], eax
$LN8@construct:

; 959  : 		_Al.construct(_Ptr, _STD forward<_Types>(_Args)...);
; 960  : 		}

	pop	ebp
	ret	0
??$construct@PA_WAAPA_W@?$allocator_traits@V?$allocator@_W@std@@@std@@SAXAAV?$allocator@_W@1@PAPA_WAAPA_W@Z ENDP ; std::allocator_traits<std::allocator<wchar_t> >::construct<wchar_t *,wchar_t * &>
_TEXT	ENDS
; Function compile flags: /Ogtp
; File c:\program files (x86)\microsoft visual studio\2017\community\vc\tools\msvc\14.10.25017\include\type_traits
;	COMDAT ??$forward@AAPA_W@std@@YAAAPA_WAAPA_W@Z
_TEXT	SEGMENT
__Arg$ = 8						; size = 4
??$forward@AAPA_W@std@@YAAAPA_WAAPA_W@Z PROC		; std::forward<wchar_t * &>, COMDAT

; 1334 : 	{	// forward an lvalue as either an lvalue or an rvalue

	npad	2
	push	ebp
	mov	ebp, esp

; 1335 : 	return (static_cast<_Ty&&>(_Arg));

	mov	eax, DWORD PTR __Arg$[ebp]

; 1336 : 	}

	pop	ebp
	ret	0
??$forward@AAPA_W@std@@YAAAPA_WAAPA_W@Z ENDP		; std::forward<wchar_t * &>
_TEXT	ENDS
; Function compile flags: /Ogtp
; File c:\program files (x86)\microsoft visual studio\2017\community\vc\tools\msvc\14.10.25017\include\xmemory0
;	COMDAT ??$_Pocma@U?$_Wrap_alloc@V?$allocator@_W@std@@@std@@@std@@YAXAAU?$_Wrap_alloc@V?$allocator@_W@std@@@0@0U?$integral_constant@_N$00@0@@Z
_TEXT	SEGMENT
__Left$ = 8						; size = 4
__Right$ = 12						; size = 4
___formal$ = 16						; size = 1
??$_Pocma@U?$_Wrap_alloc@V?$allocator@_W@std@@@std@@@std@@YAXAAU?$_Wrap_alloc@V?$allocator@_W@std@@@0@0U?$integral_constant@_N$00@0@@Z PROC ; std::_Pocma<std::_Wrap_alloc<std::allocator<wchar_t> > >, COMDAT

; 1152 : 	_Left = _STD move(_Right);
; 1153 : 	}

	ret	0
??$_Pocma@U?$_Wrap_alloc@V?$allocator@_W@std@@@std@@@std@@YAXAAU?$_Wrap_alloc@V?$allocator@_W@std@@@0@0U?$integral_constant@_N$00@0@@Z ENDP ; std::_Pocma<std::_Wrap_alloc<std::allocator<wchar_t> > >
_TEXT	ENDS
; Function compile flags: /Ogtp
; File c:\program files (x86)\microsoft visual studio\2017\community\vc\tools\msvc\14.10.25017\include\xmemory0
; File c:\program files (x86)\microsoft visual studio\2017\community\vc\tools\msvc\14.10.25017\include\xstring
; File c:\program files (x86)\microsoft visual studio\2017\community\vc\tools\msvc\14.10.25017\include\xmemory0
; File c:\program files (x86)\microsoft visual studio\2017\community\vc\tools\msvc\14.10.25017\include\iosfwd
; File c:\program files (x86)\microsoft visual studio\2017\community\vc\tools\msvc\14.10.25017\include\xstring
; File c:\program files (x86)\microsoft visual studio\2017\community\vc\tools\msvc\14.10.25017\include\iosfwd
; File c:\program files (x86)\microsoft visual studio\2017\community\vc\tools\msvc\14.10.25017\include\xmemory0
;	COMDAT ??$_Destroy_range1@V?$allocator@Usk_file_entry_s@@@std@@PAUsk_file_entry_s@@@std@@YAXPAUsk_file_entry_s@@0AAU?$_Wrap_alloc@V?$allocator@Usk_file_entry_s@@@std@@@0@U?$integral_constant@_N$0A@@0@@Z
_TEXT	SEGMENT
__First$ = 8						; size = 4
__Last$ = 12						; size = 4
__Al$ = 16						; size = 4
___formal$ = 20						; size = 1
??$_Destroy_range1@V?$allocator@Usk_file_entry_s@@@std@@PAUsk_file_entry_s@@@std@@YAXPAUsk_file_entry_s@@0AAU?$_Wrap_alloc@V?$allocator@Usk_file_entry_s@@@std@@@0@U?$integral_constant@_N$0A@@0@@Z PROC ; std::_Destroy_range1<std::allocator<sk_file_entry_s>,sk_file_entry_s *>, COMDAT

; 1199 : 	{	// destroy [_First, _Last), no special optimization

	npad	2
	push	ebp
	mov	ebp, esp
	push	esi

; 1200 : 	for (; _First != _Last; ++_First)

	mov	esi, DWORD PTR __First$[ebp]
	push	edi
	mov	edi, DWORD PTR __Last$[ebp]
	cmp	esi, edi
	je	SHORT $LN78@Destroy_ra
	add	esi, 36					; 00000024H
$LL4@Destroy_ra:
; File c:\program files (x86)\microsoft visual studio\2017\community\vc\tools\msvc\14.10.25017\include\xstring

; 1628 : 		return (this->_BUF_SIZE <= _Myres);

	mov	eax, DWORD PTR [esi]
	cmp	eax, 8

; 3608 : 		if (_My_data._Large_string_engaged())

	jb	SHORT $LN55@Destroy_ra

; 3609 : 			{
; 3610 : 			pointer _Ptr = _My_data._Bx._Ptr;
; 3611 : 			auto& _Al = this->_Getal();
; 3612 : 			_Al.destroy(_STD addressof(_My_data._Bx._Ptr));
; 3613 : 			_Al.deallocate(_Ptr, _My_data._Myres + 1);

	lea	ecx, DWORD PTR [eax+1]
; File c:\program files (x86)\microsoft visual studio\2017\community\vc\tools\msvc\14.10.25017\include\xmemory0

; 823  : 		_Deallocate(_Ptr, _Count, sizeof (_Ty));

	mov	eax, DWORD PTR [esi-20]

; 98   : 	_SCL_SECURE_ALWAYS_VALIDATE(_Count <= (size_t)(-1) / _Sz);

	cmp	ecx, 2147483647				; 7fffffffH
	ja	SHORT $LN74@Destroy_ra

; 99   : 	const size_t _User_size = _Count * _Sz;

	add	ecx, ecx

; 100  : 	if (_BIG_ALLOCATION_THRESHOLD <= _User_size)

	cmp	ecx, 4096				; 00001000H
	jb	SHORT $LN50@Destroy_ra

; 101  : 		{	// deallocate large block
; 102  : 		const uintptr_t _Ptr_user = reinterpret_cast<uintptr_t>(_Ptr);
; 103  : 		_SCL_SECURE_ALWAYS_VALIDATE(

	test	al, 31					; 0000001fH
	jne	SHORT $LN74@Destroy_ra

; 104  : 			(_Ptr_user & (_BIG_ALLOCATION_ALIGNMENT - 1)) == 0);
; 105  : 		const uintptr_t _Ptr_ptr = _Ptr_user - sizeof(void *);
; 106  : 		const uintptr_t _Ptr_container =
; 107  : 			*reinterpret_cast<uintptr_t *>(_Ptr_ptr);

	mov	ecx, DWORD PTR [eax-4]

; 108  : 
; 109  :  #ifdef _DEBUG
; 110  : 		// If the following asserts, it likely means that we are performing
; 111  : 		// an aligned delete on memory coming from an unaligned allocation.
; 112  : 		_SCL_SECURE_ALWAYS_VALIDATE(
; 113  : 			reinterpret_cast<uintptr_t *>(_Ptr_ptr)[-1] ==
; 114  : 				_BIG_ALLOCATION_SENTINEL);
; 115  :  #endif /* _DEBUG */
; 116  : 
; 117  : 		// Extra paranoia on aligned allocation/deallocation
; 118  : 		_SCL_SECURE_ALWAYS_VALIDATE(_Ptr_container < _Ptr_user);

	cmp	ecx, eax
	jae	SHORT $LN74@Destroy_ra

; 119  : 
; 120  :  #ifdef _DEBUG
; 121  : 		_SCL_SECURE_ALWAYS_VALIDATE(2 * sizeof(void *)
; 122  : 			<= _Ptr_user - _Ptr_container);
; 123  : 
; 124  :  #else /* _DEBUG */
; 125  : 		_SCL_SECURE_ALWAYS_VALIDATE(sizeof(void *)

	sub	eax, ecx
	cmp	eax, 4
	jb	SHORT $LN74@Destroy_ra

; 126  : 			<= _Ptr_user - _Ptr_container);
; 127  :  #endif /* _DEBUG */
; 128  : 
; 129  : 		_SCL_SECURE_ALWAYS_VALIDATE(_Ptr_user - _Ptr_container

	cmp	eax, 35					; 00000023H
	ja	SHORT $LN74@Destroy_ra

; 130  : 			<= _NON_USER_SIZE);
; 131  : 
; 132  : 		_Ptr = reinterpret_cast<void *>(_Ptr_container);

	mov	eax, ecx
$LN50@Destroy_ra:

; 133  : 		}
; 134  : 
; 135  :  #else /* defined(_M_IX86) || defined(_M_X64) */
; 136  : 	static_cast<void>(_Count);
; 137  : 	static_cast<void>(_Sz);
; 138  :  #endif /* defined(_M_IX86) || defined(_M_X64) */
; 139  : 
; 140  : 	::operator delete(_Ptr);

	push	eax
	call	??3@YAXPAX@Z				; operator delete
	add	esp, 4
$LN55@Destroy_ra:
; File c:\program files (x86)\microsoft visual studio\2017\community\vc\tools\msvc\14.10.25017\include\iosfwd

; 326  : 		_Left = _Right;

	xor	eax, eax
; File c:\program files (x86)\microsoft visual studio\2017\community\vc\tools\msvc\14.10.25017\include\xstring

; 3616 : 		_My_data._Mysize = 0;

	mov	DWORD PTR [esi-4], 0

; 3617 : 		_My_data._Myres = this->_BUF_SIZE - 1;

	mov	DWORD PTR [esi], 7
; File c:\program files (x86)\microsoft visual studio\2017\community\vc\tools\msvc\14.10.25017\include\iosfwd

; 326  : 		_Left = _Right;

	mov	WORD PTR [esi-20], ax
; File c:\program files (x86)\microsoft visual studio\2017\community\vc\tools\msvc\14.10.25017\include\xmemory0

; 1200 : 	for (; _First != _Last; ++_First)

	add	esi, 40					; 00000028H
	lea	eax, DWORD PTR [esi-36]
	cmp	eax, edi
	jne	SHORT $LL4@Destroy_ra
$LN78@Destroy_ra:
	pop	edi
	pop	esi

; 1201 : 		_Al.destroy(_Unfancy(_First));
; 1202 : 	}

	pop	ebp
	ret	0
$LN74@Destroy_ra:

; 129  : 		_SCL_SECURE_ALWAYS_VALIDATE(_Ptr_user - _Ptr_container

	call	DWORD PTR __imp___invalid_parameter_noinfo_noreturn
$LN81@Destroy_ra:
$LN80@Destroy_ra:
	int	3
??$_Destroy_range1@V?$allocator@Usk_file_entry_s@@@std@@PAUsk_file_entry_s@@@std@@YAXPAUsk_file_entry_s@@0AAU?$_Wrap_alloc@V?$allocator@Usk_file_entry_s@@@std@@@0@U?$integral_constant@_N$0A@@0@@Z ENDP ; std::_Destroy_range1<std::allocator<sk_file_entry_s>,sk_file_entry_s *>
_TEXT	ENDS
; Function compile flags: /Ogtp
; File c:\program files (x86)\microsoft visual studio\2017\community\vc\tools\msvc\14.10.25017\include\xmemory0
;	COMDAT ??$destroy@PA_W@?$allocator_traits@V?$allocator@_W@std@@@std@@SAXAAV?$allocator@_W@1@PAPA_W@Z
_TEXT	SEGMENT
__Al$ = 8						; size = 4
__Ptr$ = 12						; size = 4
??$destroy@PA_W@?$allocator_traits@V?$allocator@_W@std@@@std@@SAXAAV?$allocator@_W@1@PAPA_W@Z PROC ; std::allocator_traits<std::allocator<wchar_t> >::destroy<wchar_t *>, COMDAT

; 965  : 		_Al.destroy(_Ptr);
; 966  : 		}

	ret	0
??$destroy@PA_W@?$allocator_traits@V?$allocator@_W@std@@@std@@SAXAAV?$allocator@_W@1@PAPA_W@Z ENDP ; std::allocator_traits<std::allocator<wchar_t> >::destroy<wchar_t *>
_TEXT	ENDS
; Function compile flags: /Ogtp
; File c:\program files (x86)\microsoft visual studio\2017\community\vc\tools\msvc\14.10.25017\include\xutility
; File c:\program files (x86)\microsoft visual studio\2017\community\vc\tools\msvc\14.10.25017\include\vector
; File c:\program files (x86)\microsoft visual studio\2017\community\vc\tools\msvc\14.10.25017\include\xutility
; File c:\program files (x86)\microsoft visual studio\2017\community\vc\tools\msvc\14.10.25017\include\vector
; File c:\program files (x86)\microsoft visual studio\2017\community\vc\tools\msvc\14.10.25017\include\xutility
;	COMDAT ??$?0U?$_Wrap_alloc@V?$allocator@Usk_file_entry_s@@@std@@@std@@$$V@?$_Compressed_pair@U?$_Wrap_alloc@V?$allocator@Usk_file_entry_s@@@std@@@std@@V?$_Vector_val@U?$_Simple_types@Usk_file_entry_s@@@std@@@2@$00@std@@QAE@U_One_then_variadic_args_t@1@$$QAU?$_Wrap_alloc@V?$allocator@Usk_file_entry_s@@@std@@@1@@Z
_TEXT	SEGMENT
___formal$ = 8						; size = 1
__Val1$ = 12						; size = 4
??$?0U?$_Wrap_alloc@V?$allocator@Usk_file_entry_s@@@std@@@std@@$$V@?$_Compressed_pair@U?$_Wrap_alloc@V?$allocator@Usk_file_entry_s@@@std@@@std@@V?$_Vector_val@U?$_Simple_types@Usk_file_entry_s@@@std@@@2@$00@std@@QAE@U_One_then_variadic_args_t@1@$$QAU?$_Wrap_alloc@V?$allocator@Usk_file_entry_s@@@std@@@1@@Z PROC ; std::_Compressed_pair<std::_Wrap_alloc<std::allocator<sk_file_entry_s> >,std::_Vector_val<std::_Simple_types<sk_file_entry_s> >,1>::_Compressed_pair<std::_Wrap_alloc<std::allocator<sk_file_entry_s> >,std::_Vector_val<std::_Simple_types<sk_file_entry_s> >,1><std::_Wrap_alloc<std::allocator<sk_file_entry_s> > >, COMDAT
; _this$ = ecx
; File c:\program files (x86)\microsoft visual studio\2017\community\vc\tools\msvc\14.10.25017\include\vector

; 476  : 		: _Myfirst(),

	mov	DWORD PTR [ecx], 0
; File c:\program files (x86)\microsoft visual studio\2017\community\vc\tools\msvc\14.10.25017\include\xutility

; 313  : 		}

	mov	eax, ecx
; File c:\program files (x86)\microsoft visual studio\2017\community\vc\tools\msvc\14.10.25017\include\vector

; 477  : 		_Mylast(),

	mov	DWORD PTR [ecx+4], 0

; 478  : 		_Myend()

	mov	DWORD PTR [ecx+8], 0
; File c:\program files (x86)\microsoft visual studio\2017\community\vc\tools\msvc\14.10.25017\include\xutility

; 313  : 		}

	ret	8
??$?0U?$_Wrap_alloc@V?$allocator@Usk_file_entry_s@@@std@@@std@@$$V@?$_Compressed_pair@U?$_Wrap_alloc@V?$allocator@Usk_file_entry_s@@@std@@@std@@V?$_Vector_val@U?$_Simple_types@Usk_file_entry_s@@@std@@@2@$00@std@@QAE@U_One_then_variadic_args_t@1@$$QAU?$_Wrap_alloc@V?$allocator@Usk_file_entry_s@@@std@@@1@@Z ENDP ; std::_Compressed_pair<std::_Wrap_alloc<std::allocator<sk_file_entry_s> >,std::_Vector_val<std::_Simple_types<sk_file_entry_s> >,1>::_Compressed_pair<std::_Wrap_alloc<std::allocator<sk_file_entry_s> >,std::_Vector_val<std::_Simple_types<sk_file_entry_s> >,1><std::_Wrap_alloc<std::allocator<sk_file_entry_s> > >
_TEXT	ENDS
; Function compile flags: /Ogtp
; File c:\program files (x86)\microsoft visual studio\2017\community\vc\tools\msvc\14.10.25017\include\type_traits
;	COMDAT ??$forward@U?$_Wrap_alloc@V?$allocator@Usk_file_entry_s@@@std@@@std@@@std@@YA$$QAU?$_Wrap_alloc@V?$allocator@Usk_file_entry_s@@@std@@@0@AAU10@@Z
_TEXT	SEGMENT
__Arg$ = 8						; size = 4
??$forward@U?$_Wrap_alloc@V?$allocator@Usk_file_entry_s@@@std@@@std@@@std@@YA$$QAU?$_Wrap_alloc@V?$allocator@Usk_file_entry_s@@@std@@@0@AAU10@@Z PROC ; std::forward<std::_Wrap_alloc<std::allocator<sk_file_entry_s> > >, COMDAT

; 1334 : 	{	// forward an lvalue as either an lvalue or an rvalue

	npad	2
	push	ebp
	mov	ebp, esp

; 1335 : 	return (static_cast<_Ty&&>(_Arg));

	mov	eax, DWORD PTR __Arg$[ebp]

; 1336 : 	}

	pop	ebp
	ret	0
??$forward@U?$_Wrap_alloc@V?$allocator@Usk_file_entry_s@@@std@@@std@@@std@@YA$$QAU?$_Wrap_alloc@V?$allocator@Usk_file_entry_s@@@std@@@0@AAU10@@Z ENDP ; std::forward<std::_Wrap_alloc<std::allocator<sk_file_entry_s> > >
_TEXT	ENDS
; Function compile flags: /Ogtp
; File c:\program files (x86)\microsoft visual studio\2017\community\vc\tools\msvc\14.10.25017\include\xmemory0
; File c:\program files (x86)\microsoft visual studio\2017\community\vc\tools\msvc\14.10.25017\include\iosfwd
; File c:\program files (x86)\microsoft visual studio\2017\community\vc\tools\msvc\14.10.25017\include\xstring
; File c:\program files (x86)\microsoft visual studio\2017\community\vc\tools\msvc\14.10.25017\include\iosfwd
; File c:\program files (x86)\microsoft visual studio\2017\community\vc\tools\msvc\14.10.25017\include\xmemory0
;	COMDAT ??$construct@Usk_file_entry_s@@U1@@?$_Wrap_alloc@V?$allocator@Usk_file_entry_s@@@std@@@std@@QAEXPAUsk_file_entry_s@@$$QAU2@@Z
_TEXT	SEGMENT
__Ptr$ = 8						; size = 4
_<_Args_0>$ = 12					; size = 4
??$construct@Usk_file_entry_s@@U1@@?$_Wrap_alloc@V?$allocator@Usk_file_entry_s@@@std@@@std@@QAEXPAUsk_file_entry_s@@$$QAU2@@Z PROC ; std::_Wrap_alloc<std::allocator<sk_file_entry_s> >::construct<sk_file_entry_s,sk_file_entry_s>, COMDAT
; _this$ = ecx

; 1095 : 		{	// construct _Ty(_Types...) at _Ptr

	npad	2
	push	ebp
	mov	ebp, esp

; 840  : 		::new ((void *)_Ptr) _Objty(_STD forward<_Types>(_Args)...);

	mov	edx, DWORD PTR __Ptr$[ebp]
	test	edx, edx
	je	SHORT $LN13@construct
	mov	ecx, DWORD PTR _<_Args_0>$[ebp]
	mov	eax, DWORD PTR [ecx]
	mov	DWORD PTR [edx], eax
	mov	eax, DWORD PTR [ecx+8]
	mov	DWORD PTR [edx+8], eax
	mov	eax, DWORD PTR [ecx+12]
	mov	DWORD PTR [edx+12], eax
; File c:\program files (x86)\microsoft visual studio\2017\community\vc\tools\msvc\14.10.25017\include\iosfwd

; 326  : 		_Left = _Right;

	xor	eax, eax
; File c:\program files (x86)\microsoft visual studio\2017\community\vc\tools\msvc\14.10.25017\include\xstring

; 1595 : 		_Mysize(0),

	mov	DWORD PTR [edx+32], 0

; 1596 : 		_Myres(0)

	mov	DWORD PTR [edx+36], 0

; 2143 : 		_CSTD memcpy(_My_data_mem, _Right_data_mem, _Memcpy_move_size);

	movups	xmm0, XMMWORD PTR [ecx+16]
	movups	XMMWORD PTR [edx+16], xmm0
	movq	xmm0, QWORD PTR [ecx+32]
	movq	QWORD PTR [edx+32], xmm0

; 3597 : 		_My_data._Mysize = 0;

	mov	DWORD PTR [ecx+32], 0

; 3598 : 		_My_data._Myres = this->_BUF_SIZE - 1;

	mov	DWORD PTR [ecx+36], 7
; File c:\program files (x86)\microsoft visual studio\2017\community\vc\tools\msvc\14.10.25017\include\iosfwd

; 326  : 		_Left = _Right;

	mov	WORD PTR [ecx+16], ax
$LN13@construct:
; File c:\program files (x86)\microsoft visual studio\2017\community\vc\tools\msvc\14.10.25017\include\xmemory0

; 1098 : 		}

	pop	ebp
	ret	8
??$construct@Usk_file_entry_s@@U1@@?$_Wrap_alloc@V?$allocator@Usk_file_entry_s@@@std@@@std@@QAEXPAUsk_file_entry_s@@$$QAU2@@Z ENDP ; std::_Wrap_alloc<std::allocator<sk_file_entry_s> >::construct<sk_file_entry_s,sk_file_entry_s>
_TEXT	ENDS
; Function compile flags: /Ogtp
; File c:\program files (x86)\microsoft visual studio\2017\community\vc\tools\msvc\14.10.25017\include\vector
; File c:\program files (x86)\microsoft visual studio\2017\community\vc\tools\msvc\14.10.25017\include\xmemory0
; File c:\program files (x86)\microsoft visual studio\2017\community\vc\tools\msvc\14.10.25017\include\iosfwd
; File c:\program files (x86)\microsoft visual studio\2017\community\vc\tools\msvc\14.10.25017\include\xstring
; File c:\program files (x86)\microsoft visual studio\2017\community\vc\tools\msvc\14.10.25017\include\iosfwd
; File c:\program files (x86)\microsoft visual studio\2017\community\vc\tools\msvc\14.10.25017\include\vector
;	COMDAT ??$_Emplace_back_with_unused_capacity@Usk_file_entry_s@@@?$vector@Usk_file_entry_s@@V?$allocator@Usk_file_entry_s@@@std@@@std@@AAEX$$QAUsk_file_entry_s@@@Z
_TEXT	SEGMENT
_<_Val_0>$ = 8						; size = 4
??$_Emplace_back_with_unused_capacity@Usk_file_entry_s@@@?$vector@Usk_file_entry_s@@V?$allocator@Usk_file_entry_s@@@std@@@std@@AAEX$$QAUsk_file_entry_s@@@Z PROC ; std::vector<sk_file_entry_s,std::allocator<sk_file_entry_s> >::_Emplace_back_with_unused_capacity<sk_file_entry_s>, COMDAT
; _this$ = ecx

; 898  : 		{	// insert by perfectly forwarding into element at end, provide strong guarantee

	npad	2
	push	ebp
	mov	ebp, esp
	push	esi
; File c:\program files (x86)\microsoft visual studio\2017\community\vc\tools\msvc\14.10.25017\include\xmemory0

; 840  : 		::new ((void *)_Ptr) _Objty(_STD forward<_Types>(_Args)...);

	mov	esi, DWORD PTR [ecx+4]
	test	esi, esi
	je	SHORT $LN132@Emplace_ba
	mov	edx, DWORD PTR _<_Val_0>$[ebp]
	mov	eax, DWORD PTR [edx]
	mov	DWORD PTR [esi], eax
	mov	eax, DWORD PTR [edx+8]
	mov	DWORD PTR [esi+8], eax
	mov	eax, DWORD PTR [edx+12]
	mov	DWORD PTR [esi+12], eax
; File c:\program files (x86)\microsoft visual studio\2017\community\vc\tools\msvc\14.10.25017\include\iosfwd

; 326  : 		_Left = _Right;

	xor	eax, eax
; File c:\program files (x86)\microsoft visual studio\2017\community\vc\tools\msvc\14.10.25017\include\xstring

; 1595 : 		_Mysize(0),

	mov	DWORD PTR [esi+32], 0

; 1596 : 		_Myres(0)

	mov	DWORD PTR [esi+36], 0

; 2143 : 		_CSTD memcpy(_My_data_mem, _Right_data_mem, _Memcpy_move_size);

	movups	xmm0, XMMWORD PTR [edx+16]
	movups	XMMWORD PTR [esi+16], xmm0
	movq	xmm0, QWORD PTR [edx+32]
	movq	QWORD PTR [esi+32], xmm0

; 3597 : 		_My_data._Mysize = 0;

	mov	DWORD PTR [edx+32], 0

; 3598 : 		_My_data._Myres = this->_BUF_SIZE - 1;

	mov	DWORD PTR [edx+36], 7
; File c:\program files (x86)\microsoft visual studio\2017\community\vc\tools\msvc\14.10.25017\include\iosfwd

; 326  : 		_Left = _Right;

	mov	WORD PTR [edx+16], ax
$LN132@Emplace_ba:
; File c:\program files (x86)\microsoft visual studio\2017\community\vc\tools\msvc\14.10.25017\include\vector

; 902  : 		++this->_Mylast();

	add	DWORD PTR [ecx+4], 40			; 00000028H
	pop	esi

; 903  : 		}

	pop	ebp
	ret	4
??$_Emplace_back_with_unused_capacity@Usk_file_entry_s@@@?$vector@Usk_file_entry_s@@V?$allocator@Usk_file_entry_s@@@std@@@std@@AAEX$$QAUsk_file_entry_s@@@Z ENDP ; std::vector<sk_file_entry_s,std::allocator<sk_file_entry_s> >::_Emplace_back_with_unused_capacity<sk_file_entry_s>
_TEXT	ENDS
; Function compile flags: /Ogtp
; File c:\program files (x86)\microsoft visual studio\2017\community\vc\tools\msvc\14.10.25017\include\type_traits
;	COMDAT ??$forward@Usk_file_entry_s@@@std@@YA$$QAUsk_file_entry_s@@AAU1@@Z
_TEXT	SEGMENT
__Arg$ = 8						; size = 4
??$forward@Usk_file_entry_s@@@std@@YA$$QAUsk_file_entry_s@@AAU1@@Z PROC ; std::forward<sk_file_entry_s>, COMDAT

; 1334 : 	{	// forward an lvalue as either an lvalue or an rvalue

	npad	2
	push	ebp
	mov	ebp, esp

; 1335 : 	return (static_cast<_Ty&&>(_Arg));

	mov	eax, DWORD PTR __Arg$[ebp]

; 1336 : 	}

	pop	ebp
	ret	0
??$forward@Usk_file_entry_s@@@std@@YA$$QAUsk_file_entry_s@@AAU1@@Z ENDP ; std::forward<sk_file_entry_s>
_TEXT	ENDS
; Function compile flags: /Ogtp
; File c:\program files (x86)\microsoft visual studio\2017\community\vc\tools\msvc\14.10.25017\include\xmemory0
; File c:\program files (x86)\microsoft visual studio\2017\community\vc\tools\msvc\14.10.25017\include\xstring
; File c:\program files (x86)\microsoft visual studio\2017\community\vc\tools\msvc\14.10.25017\include\xmemory0
; File c:\program files (x86)\microsoft visual studio\2017\community\vc\tools\msvc\14.10.25017\include\xstring
; File c:\program files (x86)\microsoft visual studio\2017\community\vc\tools\msvc\14.10.25017\include\xmemory0
; File c:\program files (x86)\microsoft visual studio\2017\community\vc\tools\msvc\14.10.25017\include\xstring
; File c:\program files (x86)\microsoft visual studio\2017\community\vc\tools\msvc\14.10.25017\include\iosfwd
; File c:\program files (x86)\microsoft visual studio\2017\community\vc\tools\msvc\14.10.25017\include\xstring
; File c:\program files (x86)\microsoft visual studio\2017\community\vc\tools\msvc\14.10.25017\include\iosfwd
; File c:\program files (x86)\microsoft visual studio\2017\community\vc\tools\msvc\14.10.25017\include\xmemory0
;	COMDAT ??$destroy@Usk_file_entry_s@@@?$allocator_traits@V?$allocator@Usk_file_entry_s@@@std@@@std@@SAXAAV?$allocator@Usk_file_entry_s@@@1@PAUsk_file_entry_s@@@Z
_TEXT	SEGMENT
__Al$ = 8						; size = 4
__Ptr$ = 12						; size = 4
??$destroy@Usk_file_entry_s@@@?$allocator_traits@V?$allocator@Usk_file_entry_s@@@std@@@std@@SAXAAV?$allocator@Usk_file_entry_s@@@1@PAUsk_file_entry_s@@@Z PROC ; std::allocator_traits<std::allocator<sk_file_entry_s> >::destroy<sk_file_entry_s>, COMDAT

; 964  : 		{	// destroy object at _Ptr

	npad	2
	push	ebp
	mov	ebp, esp
	push	esi
	mov	esi, DWORD PTR __Ptr$[ebp]
; File c:\program files (x86)\microsoft visual studio\2017\community\vc\tools\msvc\14.10.25017\include\xstring

; 1628 : 		return (this->_BUF_SIZE <= _Myres);

	mov	eax, DWORD PTR [esi+36]
	cmp	eax, 8

; 3608 : 		if (_My_data._Large_string_engaged())

	jb	SHORT $LN16@destroy
; File c:\program files (x86)\microsoft visual studio\2017\community\vc\tools\msvc\14.10.25017\include\xmemory0

; 823  : 		_Deallocate(_Ptr, _Count, sizeof (_Ty));

	push	2
; File c:\program files (x86)\microsoft visual studio\2017\community\vc\tools\msvc\14.10.25017\include\xstring

; 3613 : 			_Al.deallocate(_Ptr, _My_data._Myres + 1);

	inc	eax
; File c:\program files (x86)\microsoft visual studio\2017\community\vc\tools\msvc\14.10.25017\include\xmemory0

; 823  : 		_Deallocate(_Ptr, _Count, sizeof (_Ty));

	push	eax
	push	DWORD PTR [esi+16]
	call	?_Deallocate@std@@YAXPAXII@Z		; std::_Deallocate
	add	esp, 12					; 0000000cH
$LN16@destroy:
; File c:\program files (x86)\microsoft visual studio\2017\community\vc\tools\msvc\14.10.25017\include\xstring

; 3616 : 		_My_data._Mysize = 0;

	mov	DWORD PTR [esi+32], 0
; File c:\program files (x86)\microsoft visual studio\2017\community\vc\tools\msvc\14.10.25017\include\iosfwd

; 326  : 		_Left = _Right;

	xor	eax, eax
; File c:\program files (x86)\microsoft visual studio\2017\community\vc\tools\msvc\14.10.25017\include\xstring

; 3617 : 		_My_data._Myres = this->_BUF_SIZE - 1;

	mov	DWORD PTR [esi+36], 7
; File c:\program files (x86)\microsoft visual studio\2017\community\vc\tools\msvc\14.10.25017\include\iosfwd

; 326  : 		_Left = _Right;

	mov	WORD PTR [esi+16], ax
	pop	esi
; File c:\program files (x86)\microsoft visual studio\2017\community\vc\tools\msvc\14.10.25017\include\xmemory0

; 966  : 		}

	pop	ebp
	ret	0
??$destroy@Usk_file_entry_s@@@?$allocator_traits@V?$allocator@Usk_file_entry_s@@@std@@@std@@SAXAAV?$allocator@Usk_file_entry_s@@@1@PAUsk_file_entry_s@@@Z ENDP ; std::allocator_traits<std::allocator<sk_file_entry_s> >::destroy<sk_file_entry_s>
_TEXT	ENDS
; Function compile flags: /Ogtp
; File c:\program files (x86)\microsoft visual studio\2017\community\vc\tools\msvc\14.10.25017\include\xutility
; File c:\program files (x86)\microsoft visual studio\2017\community\vc\tools\msvc\14.10.25017\include\xstring
; File c:\program files (x86)\microsoft visual studio\2017\community\vc\tools\msvc\14.10.25017\include\xmemory0
; File c:\program files (x86)\microsoft visual studio\2017\community\vc\tools\msvc\14.10.25017\include\xstring
; File c:\program files (x86)\microsoft visual studio\2017\community\vc\tools\msvc\14.10.25017\include\xmemory0
; File c:\program files (x86)\microsoft visual studio\2017\community\vc\tools\msvc\14.10.25017\include\xstring
; File c:\program files (x86)\microsoft visual studio\2017\community\vc\tools\msvc\14.10.25017\include\iosfwd
; File c:\program files (x86)\microsoft visual studio\2017\community\vc\tools\msvc\14.10.25017\include\xstring
; File c:\program files (x86)\microsoft visual studio\2017\community\vc\tools\msvc\14.10.25017\include\iosfwd
; File c:\program files (x86)\microsoft visual studio\2017\community\vc\tools\msvc\14.10.25017\include\xstring
; File c:\program files (x86)\microsoft visual studio\2017\community\vc\tools\msvc\14.10.25017\include\iosfwd
; File c:\program files (x86)\microsoft visual studio\2017\community\vc\tools\msvc\14.10.25017\include\xutility
; File c:\program files (x86)\microsoft visual studio\2017\community\vc\tools\msvc\14.10.25017\include\xmemory0
; File c:\program files (x86)\microsoft visual studio\2017\community\vc\tools\msvc\14.10.25017\include\xutility
;	COMDAT ??$_Move_unchecked1@PAUsk_file_entry_s@@PAU1@@std@@YAPAUsk_file_entry_s@@PAU1@00U_General_ptr_iterator_tag@0@@Z
_TEXT	SEGMENT
tv648 = 8						; size = 4
__First$ = 8						; size = 4
__Last$ = 12						; size = 4
__Dest$ = 16						; size = 4
___formal$ = 20						; size = 1
??$_Move_unchecked1@PAUsk_file_entry_s@@PAU1@@std@@YAPAUsk_file_entry_s@@PAU1@00U_General_ptr_iterator_tag@0@@Z PROC ; std::_Move_unchecked1<sk_file_entry_s *,sk_file_entry_s *>, COMDAT

; 2532 : 	{	// move [_First, _Last) to [_Dest, ...), no special optimization

	npad	2
	push	ebp
	mov	ebp, esp

; 2533 : 	for (; _First != _Last; ++_Dest, (void)++_First)

	mov	eax, DWORD PTR __First$[ebp]
	mov	edx, DWORD PTR __Last$[ebp]
	push	ebx
	mov	ebx, DWORD PTR __Dest$[ebp]
	push	esi
	push	edi
	cmp	eax, edx
	je	$LN114@Move_unche
	lea	edi, DWORD PTR [eax+16]
	sub	eax, ebx
	lea	esi, DWORD PTR [ebx+36]
	lea	ecx, DWORD PTR [eax-36]
	mov	DWORD PTR tv648[ebp], ecx
$LL4@Move_unche:
	mov	eax, DWORD PTR [ecx+esi]
	mov	DWORD PTR [ebx], eax
	mov	eax, DWORD PTR [edi-8]
	mov	DWORD PTR [esi-28], eax
	mov	eax, DWORD PTR [edi-4]
	mov	DWORD PTR [esi-24], eax
; File c:\program files (x86)\microsoft visual studio\2017\community\vc\tools\msvc\14.10.25017\include\xstring

; 2076 : 		if (this != _STD addressof(_Right))

	lea	eax, DWORD PTR [esi-20]
	cmp	eax, edi
	je	SHORT $LN2@Move_unche

; 1628 : 		return (this->_BUF_SIZE <= _Myres);

	mov	eax, DWORD PTR [esi]
	cmp	eax, 8

; 3608 : 		if (_My_data._Large_string_engaged())

	jb	SHORT $LN50@Move_unche
; File c:\program files (x86)\microsoft visual studio\2017\community\vc\tools\msvc\14.10.25017\include\xmemory0

; 823  : 		_Deallocate(_Ptr, _Count, sizeof (_Ty));

	mov	ecx, DWORD PTR [esi-20]
; File c:\program files (x86)\microsoft visual studio\2017\community\vc\tools\msvc\14.10.25017\include\xstring

; 3613 : 			_Al.deallocate(_Ptr, _My_data._Myres + 1);

	inc	eax
; File c:\program files (x86)\microsoft visual studio\2017\community\vc\tools\msvc\14.10.25017\include\xmemory0

; 98   : 	_SCL_SECURE_ALWAYS_VALIDATE(_Count <= (size_t)(-1) / _Sz);

	cmp	eax, 2147483647				; 7fffffffH
	ja	SHORT $LN110@Move_unche

; 99   : 	const size_t _User_size = _Count * _Sz;

	add	eax, eax

; 100  : 	if (_BIG_ALLOCATION_THRESHOLD <= _User_size)

	cmp	eax, 4096				; 00001000H
	jb	SHORT $LN45@Move_unche

; 101  : 		{	// deallocate large block
; 102  : 		const uintptr_t _Ptr_user = reinterpret_cast<uintptr_t>(_Ptr);
; 103  : 		_SCL_SECURE_ALWAYS_VALIDATE(

	test	cl, 31					; 0000001fH
	jne	SHORT $LN110@Move_unche

; 104  : 			(_Ptr_user & (_BIG_ALLOCATION_ALIGNMENT - 1)) == 0);
; 105  : 		const uintptr_t _Ptr_ptr = _Ptr_user - sizeof(void *);
; 106  : 		const uintptr_t _Ptr_container =
; 107  : 			*reinterpret_cast<uintptr_t *>(_Ptr_ptr);

	mov	eax, DWORD PTR [ecx-4]

; 108  : 
; 109  :  #ifdef _DEBUG
; 110  : 		// If the following asserts, it likely means that we are performing
; 111  : 		// an aligned delete on memory coming from an unaligned allocation.
; 112  : 		_SCL_SECURE_ALWAYS_VALIDATE(
; 113  : 			reinterpret_cast<uintptr_t *>(_Ptr_ptr)[-1] ==
; 114  : 				_BIG_ALLOCATION_SENTINEL);
; 115  :  #endif /* _DEBUG */
; 116  : 
; 117  : 		// Extra paranoia on aligned allocation/deallocation
; 118  : 		_SCL_SECURE_ALWAYS_VALIDATE(_Ptr_container < _Ptr_user);

	cmp	eax, ecx
	jae	SHORT $LN110@Move_unche

; 119  : 
; 120  :  #ifdef _DEBUG
; 121  : 		_SCL_SECURE_ALWAYS_VALIDATE(2 * sizeof(void *)
; 122  : 			<= _Ptr_user - _Ptr_container);
; 123  : 
; 124  :  #else /* _DEBUG */
; 125  : 		_SCL_SECURE_ALWAYS_VALIDATE(sizeof(void *)

	sub	ecx, eax
	cmp	ecx, 4
	jb	SHORT $LN110@Move_unche

; 129  : 		_SCL_SECURE_ALWAYS_VALIDATE(_Ptr_user - _Ptr_container

	cmp	ecx, 35					; 00000023H
	ja	SHORT $LN110@Move_unche

; 130  : 			<= _NON_USER_SIZE);
; 131  : 
; 132  : 		_Ptr = reinterpret_cast<void *>(_Ptr_container);

	mov	ecx, eax
$LN45@Move_unche:

; 133  : 		}
; 134  : 
; 135  :  #else /* defined(_M_IX86) || defined(_M_X64) */
; 136  : 	static_cast<void>(_Count);
; 137  : 	static_cast<void>(_Sz);
; 138  :  #endif /* defined(_M_IX86) || defined(_M_X64) */
; 139  : 
; 140  : 	::operator delete(_Ptr);

	push	ecx
	call	??3@YAXPAX@Z				; operator delete
	mov	ecx, DWORD PTR tv648[ebp]
	add	esp, 4
	mov	edx, DWORD PTR __Last$[ebp]
$LN50@Move_unche:
; File c:\program files (x86)\microsoft visual studio\2017\community\vc\tools\msvc\14.10.25017\include\xstring

; 3616 : 		_My_data._Mysize = 0;

	mov	DWORD PTR [esi-4], 0
; File c:\program files (x86)\microsoft visual studio\2017\community\vc\tools\msvc\14.10.25017\include\iosfwd

; 326  : 		_Left = _Right;

	xor	eax, eax
; File c:\program files (x86)\microsoft visual studio\2017\community\vc\tools\msvc\14.10.25017\include\xstring

; 3617 : 		_My_data._Myres = this->_BUF_SIZE - 1;

	mov	DWORD PTR [esi], 7
; File c:\program files (x86)\microsoft visual studio\2017\community\vc\tools\msvc\14.10.25017\include\iosfwd

; 326  : 		_Left = _Right;

	mov	WORD PTR [esi-20], ax
; File c:\program files (x86)\microsoft visual studio\2017\community\vc\tools\msvc\14.10.25017\include\xstring

; 2143 : 		_CSTD memcpy(_My_data_mem, _Right_data_mem, _Memcpy_move_size);

	movups	xmm0, XMMWORD PTR [edi]
	movups	XMMWORD PTR [esi-20], xmm0
	movq	xmm0, QWORD PTR [edi+16]
	movq	QWORD PTR [esi-4], xmm0

; 3597 : 		_My_data._Mysize = 0;

	mov	DWORD PTR [edi+16], eax

; 3598 : 		_My_data._Myres = this->_BUF_SIZE - 1;

	mov	DWORD PTR [edi+20], 7
; File c:\program files (x86)\microsoft visual studio\2017\community\vc\tools\msvc\14.10.25017\include\iosfwd

; 326  : 		_Left = _Right;

	mov	WORD PTR [edi], ax
$LN2@Move_unche:
; File c:\program files (x86)\microsoft visual studio\2017\community\vc\tools\msvc\14.10.25017\include\xutility

; 2533 : 	for (; _First != _Last; ++_Dest, (void)++_First)

	add	esi, 40					; 00000028H
	add	ebx, 40					; 00000028H
	add	edi, 40					; 00000028H
	lea	eax, DWORD PTR [ecx+esi]
	cmp	eax, edx
	jne	$LL4@Move_unche
$LN114@Move_unche:
	pop	edi
	pop	esi

; 2534 : 		*_Dest = _STD move(*_First);
; 2535 : 	return (_Dest);

	mov	eax, ebx
	pop	ebx

; 2536 : 	}

	pop	ebp
	ret	0
$LN110@Move_unche:
; File c:\program files (x86)\microsoft visual studio\2017\community\vc\tools\msvc\14.10.25017\include\xmemory0

; 129  : 		_SCL_SECURE_ALWAYS_VALIDATE(_Ptr_user - _Ptr_container

	call	DWORD PTR __imp___invalid_parameter_noinfo_noreturn
$LN118@Move_unche:
$LN117@Move_unche:
	int	3
??$_Move_unchecked1@PAUsk_file_entry_s@@PAU1@@std@@YAPAUsk_file_entry_s@@PAU1@00U_General_ptr_iterator_tag@0@@Z ENDP ; std::_Move_unchecked1<sk_file_entry_s *,sk_file_entry_s *>
_TEXT	ENDS
; Function compile flags: /Ogtp
; File c:\program files (x86)\microsoft visual studio\2017\community\vc\tools\msvc\14.10.25017\include\xutility
;	COMDAT ??$_Ptr_move_cat@Usk_file_entry_s@@U1@@std@@YA?AU_General_ptr_iterator_tag@0@ABQAUsk_file_entry_s@@0@Z
_TEXT	SEGMENT
___formal$ = 8						; size = 4
___formal$ = 12						; size = 4
??$_Ptr_move_cat@Usk_file_entry_s@@U1@@std@@YA?AU_General_ptr_iterator_tag@0@ABQAUsk_file_entry_s@@0@Z PROC ; std::_Ptr_move_cat<sk_file_entry_s,sk_file_entry_s>, COMDAT

; 893  : 	return {};

	xor	al, al

; 894  : 	}

	ret	0
??$_Ptr_move_cat@Usk_file_entry_s@@U1@@std@@YA?AU_General_ptr_iterator_tag@0@ABQAUsk_file_entry_s@@0@Z ENDP ; std::_Ptr_move_cat<sk_file_entry_s,sk_file_entry_s>
_TEXT	ENDS
; Function compile flags: /Ogtp
; File c:\program files (x86)\microsoft visual studio\2017\community\vc\tools\msvc\14.10.25017\include\xstddef
;	COMDAT ??$addressof@V?$_String_val@U?$_Simple_types@_W@std@@@std@@@std@@YAPAV?$_String_val@U?$_Simple_types@_W@std@@@0@AAV10@@Z
_TEXT	SEGMENT
__Val$ = 8						; size = 4
??$addressof@V?$_String_val@U?$_Simple_types@_W@std@@@std@@@std@@YAPAV?$_String_val@U?$_Simple_types@_W@std@@@0@AAV10@@Z PROC ; std::addressof<std::_String_val<std::_Simple_types<wchar_t> > >, COMDAT

; 629  : 	{	// return address of _Val

	npad	2
	push	ebp
	mov	ebp, esp

; 630  : 	return (__builtin_addressof(_Val));

	mov	eax, DWORD PTR __Val$[ebp]

; 631  : 	}

	pop	ebp
	ret	0
??$addressof@V?$_String_val@U?$_Simple_types@_W@std@@@std@@@std@@YAPAV?$_String_val@U?$_Simple_types@_W@std@@@0@AAV10@@Z ENDP ; std::addressof<std::_String_val<std::_Simple_types<wchar_t> > >
_TEXT	ENDS
; Function compile flags: /Ogtp
; File c:\program files (x86)\microsoft visual studio\2017\community\vc\tools\msvc\14.10.25017\include\xmemory0
;	COMDAT ??$construct@PA_WAAPA_W@?$_Wrap_alloc@V?$allocator@_W@std@@@std@@QAEXPAPA_WAAPA_W@Z
_TEXT	SEGMENT
__Ptr$ = 8						; size = 4
_<_Args_0>$ = 12					; size = 4
??$construct@PA_WAAPA_W@?$_Wrap_alloc@V?$allocator@_W@std@@@std@@QAEXPAPA_WAAPA_W@Z PROC ; std::_Wrap_alloc<std::allocator<wchar_t> >::construct<wchar_t *,wchar_t * &>, COMDAT
; _this$ = ecx

; 1095 : 		{	// construct _Ty(_Types...) at _Ptr

	npad	2
	push	ebp
	mov	ebp, esp

; 840  : 		::new ((void *)_Ptr) _Objty(_STD forward<_Types>(_Args)...);

	mov	ecx, DWORD PTR __Ptr$[ebp]
	test	ecx, ecx
	je	SHORT $LN13@construct
	mov	eax, DWORD PTR _<_Args_0>$[ebp]
	mov	eax, DWORD PTR [eax]
	mov	DWORD PTR [ecx], eax
$LN13@construct:

; 1096 : 		_Mytraits::construct(*this, _Ptr,
; 1097 : 			_STD forward<_Types>(_Args)...);
; 1098 : 		}

	pop	ebp
	ret	8
??$construct@PA_WAAPA_W@?$_Wrap_alloc@V?$allocator@_W@std@@@std@@QAEXPAPA_WAAPA_W@Z ENDP ; std::_Wrap_alloc<std::allocator<wchar_t> >::construct<wchar_t *,wchar_t * &>
_TEXT	ENDS
; Function compile flags: /Ogtp
; File c:\program files (x86)\microsoft visual studio\2017\community\vc\tools\msvc\14.10.25017\include\xmemory0
;	COMDAT ??$_Pocma@U?$_Wrap_alloc@V?$allocator@_W@std@@@std@@@std@@YAXAAU?$_Wrap_alloc@V?$allocator@_W@std@@@0@0@Z
_TEXT	SEGMENT
__Left$ = 8						; size = 4
__Right$ = 12						; size = 4
??$_Pocma@U?$_Wrap_alloc@V?$allocator@_W@std@@@std@@@std@@YAXAAU?$_Wrap_alloc@V?$allocator@_W@std@@@0@0@Z PROC ; std::_Pocma<std::_Wrap_alloc<std::allocator<wchar_t> > >, COMDAT

; 1163 : 	typename _Alty::propagate_on_container_move_assignment _Tag;
; 1164 : 	_Pocma(_Left, _Right, _Tag);
; 1165 : 	}

	ret	0
??$_Pocma@U?$_Wrap_alloc@V?$allocator@_W@std@@@std@@@std@@YAXAAU?$_Wrap_alloc@V?$allocator@_W@std@@@0@0@Z ENDP ; std::_Pocma<std::_Wrap_alloc<std::allocator<wchar_t> > >
_TEXT	ENDS
; Function compile flags: /Ogtp
; File c:\program files (x86)\microsoft visual studio\2017\community\vc\tools\msvc\14.10.25017\include\utility
;	COMDAT ??$_Min_value@I@std@@YAABIABI0@Z
_TEXT	SEGMENT
__Left$ = 8						; size = 4
__Right$ = 12						; size = 4
??$_Min_value@I@std@@YAABIABI0@Z PROC			; std::_Min_value<unsigned int>, COMDAT

; 22   : 	{	// return smaller of _Left and _Right

	npad	2
	push	ebp
	mov	ebp, esp

; 23   : 	return (_Right < _Left ? _Right : _Left);

	mov	edx, DWORD PTR __Right$[ebp]
	mov	eax, DWORD PTR __Left$[ebp]
	mov	ecx, DWORD PTR [edx]
	cmp	ecx, DWORD PTR [eax]
	cmovb	eax, edx

; 24   : 	}

	pop	ebp
	ret	0
??$_Min_value@I@std@@YAABIABI0@Z ENDP			; std::_Min_value<unsigned int>
_TEXT	ENDS
; Function compile flags: /Ogtp
; File c:\program files (x86)\microsoft visual studio\2017\community\vc\tools\msvc\14.10.25017\include\xstddef
;	COMDAT ??$addressof@V?$basic_string@_WU?$char_traits@_W@std@@V?$allocator@_W@2@@std@@@std@@YAPAV?$basic_string@_WU?$char_traits@_W@std@@V?$allocator@_W@2@@0@AAV10@@Z
_TEXT	SEGMENT
__Val$ = 8						; size = 4
??$addressof@V?$basic_string@_WU?$char_traits@_W@std@@V?$allocator@_W@2@@std@@@std@@YAPAV?$basic_string@_WU?$char_traits@_W@std@@V?$allocator@_W@2@@0@AAV10@@Z PROC ; std::addressof<std::basic_string<wchar_t,std::char_traits<wchar_t>,std::allocator<wchar_t> > >, COMDAT

; 629  : 	{	// return address of _Val

	npad	2
	push	ebp
	mov	ebp, esp

; 630  : 	return (__builtin_addressof(_Val));

	mov	eax, DWORD PTR __Val$[ebp]

; 631  : 	}

	pop	ebp
	ret	0
??$addressof@V?$basic_string@_WU?$char_traits@_W@std@@V?$allocator@_W@2@@std@@@std@@YAPAV?$basic_string@_WU?$char_traits@_W@std@@V?$allocator@_W@2@@0@AAV10@@Z ENDP ; std::addressof<std::basic_string<wchar_t,std::char_traits<wchar_t>,std::allocator<wchar_t> > >
_TEXT	ENDS
; Function compile flags: /Ogtp
; File c:\program files (x86)\microsoft visual studio\2017\community\vc\tools\msvc\14.10.25017\include\xstddef
;	COMDAT ??$addressof@$$CBV?$basic_string@_WU?$char_traits@_W@std@@V?$allocator@_W@2@@std@@@std@@YAPBV?$basic_string@_WU?$char_traits@_W@std@@V?$allocator@_W@2@@0@ABV10@@Z
_TEXT	SEGMENT
__Val$ = 8						; size = 4
??$addressof@$$CBV?$basic_string@_WU?$char_traits@_W@std@@V?$allocator@_W@2@@std@@@std@@YAPBV?$basic_string@_WU?$char_traits@_W@std@@V?$allocator@_W@2@@0@ABV10@@Z PROC ; std::addressof<std::basic_string<wchar_t,std::char_traits<wchar_t>,std::allocator<wchar_t> > const >, COMDAT

; 629  : 	{	// return address of _Val

	npad	2
	push	ebp
	mov	ebp, esp

; 630  : 	return (__builtin_addressof(_Val));

	mov	eax, DWORD PTR __Val$[ebp]

; 631  : 	}

	pop	ebp
	ret	0
??$addressof@$$CBV?$basic_string@_WU?$char_traits@_W@std@@V?$allocator@_W@2@@std@@@std@@YAPBV?$basic_string@_WU?$char_traits@_W@std@@V?$allocator@_W@2@@0@ABV10@@Z ENDP ; std::addressof<std::basic_string<wchar_t,std::char_traits<wchar_t>,std::allocator<wchar_t> > const >
_TEXT	ENDS
; Function compile flags: /Ogtp
; File c:\program files (x86)\microsoft visual studio\2017\community\vc\tools\msvc\14.10.25017\include\xstddef
;	COMDAT ??$_Unfancy@_W@std@@YAPA_WPA_W@Z
_TEXT	SEGMENT
__Ptr$ = 8						; size = 4
??$_Unfancy@_W@std@@YAPA_WPA_W@Z PROC			; std::_Unfancy<wchar_t>, COMDAT

; 642  : 	{	// do nothing for plain pointers

	npad	2
	push	ebp
	mov	ebp, esp

; 643  : 	return (_Ptr);

	mov	eax, DWORD PTR __Ptr$[ebp]

; 644  : 	}

	pop	ebp
	ret	0
??$_Unfancy@_W@std@@YAPA_WPA_W@Z ENDP			; std::_Unfancy<wchar_t>
_TEXT	ENDS
; Function compile flags: /Ogtp
; File c:\program files (x86)\microsoft visual studio\2017\community\vc\tools\msvc\14.10.25017\include\xmemory0
;	COMDAT ??$_Destroy_range@V?$allocator@Usk_file_entry_s@@@std@@PAUsk_file_entry_s@@@std@@YAXPAUsk_file_entry_s@@0AAU?$_Wrap_alloc@V?$allocator@Usk_file_entry_s@@@std@@@0@@Z
_TEXT	SEGMENT
$T1 = -4						; size = 1
__First$ = 8						; size = 4
__Last$ = 12						; size = 4
__Al$ = 16						; size = 4
??$_Destroy_range@V?$allocator@Usk_file_entry_s@@@std@@PAUsk_file_entry_s@@@std@@YAXPAUsk_file_entry_s@@0AAU?$_Wrap_alloc@V?$allocator@Usk_file_entry_s@@@std@@@0@@Z PROC ; std::_Destroy_range<std::allocator<sk_file_entry_s>,sk_file_entry_s *>, COMDAT

; 1214 : 	{	// destroy [_First, _Last), choose optimization

	npad	2
	push	ebp
	mov	ebp, esp
	push	ecx

; 1215 : 		// note that this is an optimization for debug mode codegen;
; 1216 : 		// in release mode the BE removes all of this
; 1217 : 	typedef typename _Alloc::value_type _Val;
; 1218 : 	_Destroy_range1(_First, _Last, _Al, _Conjunction_t<

	push	DWORD PTR $T1[ebp]
	push	DWORD PTR __Al$[ebp]
	push	DWORD PTR __Last$[ebp]
	push	DWORD PTR __First$[ebp]
	call	??$_Destroy_range1@V?$allocator@Usk_file_entry_s@@@std@@PAUsk_file_entry_s@@@std@@YAXPAUsk_file_entry_s@@0AAU?$_Wrap_alloc@V?$allocator@Usk_file_entry_s@@@std@@@0@U?$integral_constant@_N$0A@@0@@Z ; std::_Destroy_range1<std::allocator<sk_file_entry_s>,sk_file_entry_s *>
	add	esp, 16					; 00000010H

; 1219 : 		is_trivially_destructible<_Val>,
; 1220 : 		_Uses_default_destroy<_Alloc, _Val *>>());
; 1221 : 	}

	mov	esp, ebp
	pop	ebp
	ret	0
??$_Destroy_range@V?$allocator@Usk_file_entry_s@@@std@@PAUsk_file_entry_s@@@std@@YAXPAUsk_file_entry_s@@0AAU?$_Wrap_alloc@V?$allocator@Usk_file_entry_s@@@std@@@0@@Z ENDP ; std::_Destroy_range<std::allocator<sk_file_entry_s>,sk_file_entry_s *>
_TEXT	ENDS
; Function compile flags: /Ogtp
; File c:\program files (x86)\microsoft visual studio\2017\community\vc\tools\msvc\14.10.25017\include\type_traits
;	COMDAT ??$move@AAV?$basic_string@_WU?$char_traits@_W@std@@V?$allocator@_W@2@@std@@@std@@YA$$QAV?$basic_string@_WU?$char_traits@_W@std@@V?$allocator@_W@2@@0@AAV10@@Z
_TEXT	SEGMENT
__Arg$ = 8						; size = 4
??$move@AAV?$basic_string@_WU?$char_traits@_W@std@@V?$allocator@_W@2@@std@@@std@@YA$$QAV?$basic_string@_WU?$char_traits@_W@std@@V?$allocator@_W@2@@0@AAV10@@Z PROC ; std::move<std::basic_string<wchar_t,std::char_traits<wchar_t>,std::allocator<wchar_t> > &>, COMDAT

; 1350 : 	{	// forward _Arg as movable

	npad	2
	push	ebp
	mov	ebp, esp

; 1351 : 	return (static_cast<typename remove_reference<_Ty>::type&&>(_Arg));

	mov	eax, DWORD PTR __Arg$[ebp]

; 1352 : 	}

	pop	ebp
	ret	0
??$move@AAV?$basic_string@_WU?$char_traits@_W@std@@V?$allocator@_W@2@@std@@@std@@YA$$QAV?$basic_string@_WU?$char_traits@_W@std@@V?$allocator@_W@2@@0@AAV10@@Z ENDP ; std::move<std::basic_string<wchar_t,std::char_traits<wchar_t>,std::allocator<wchar_t> > &>
_TEXT	ENDS
; Function compile flags: /Ogtp
; File c:\program files (x86)\microsoft visual studio\2017\community\vc\tools\msvc\14.10.25017\include\xmemory0
;	COMDAT ??$destroy@PA_W@?$_Wrap_alloc@V?$allocator@_W@std@@@std@@QAEXPAPA_W@Z
_TEXT	SEGMENT
__Ptr$ = 8						; size = 4
??$destroy@PA_W@?$_Wrap_alloc@V?$allocator@_W@std@@@std@@QAEXPAPA_W@Z PROC ; std::_Wrap_alloc<std::allocator<wchar_t> >::destroy<wchar_t *>, COMDAT
; _this$ = ecx

; 1103 : 		_Mytraits::destroy(*this, _Ptr);
; 1104 : 		}

	ret	4
??$destroy@PA_W@?$_Wrap_alloc@V?$allocator@_W@std@@@std@@QAEXPAPA_W@Z ENDP ; std::_Wrap_alloc<std::allocator<wchar_t> >::destroy<wchar_t *>
_TEXT	ENDS
; Function compile flags: /Ogtp
; File c:\program files (x86)\microsoft visual studio\2017\community\vc\tools\msvc\14.10.25017\include\xstddef
;	COMDAT ??$addressof@PA_W@std@@YAPAPA_WAAPA_W@Z
_TEXT	SEGMENT
__Val$ = 8						; size = 4
??$addressof@PA_W@std@@YAPAPA_WAAPA_W@Z PROC		; std::addressof<wchar_t *>, COMDAT

; 629  : 	{	// return address of _Val

	npad	2
	push	ebp
	mov	ebp, esp

; 630  : 	return (__builtin_addressof(_Val));

	mov	eax, DWORD PTR __Val$[ebp]

; 631  : 	}

	pop	ebp
	ret	0
??$addressof@PA_W@std@@YAPAPA_WAAPA_W@Z ENDP		; std::addressof<wchar_t *>
_TEXT	ENDS
; Function compile flags: /Ogtp
; File c:\program files (x86)\microsoft visual studio\2017\community\vc\tools\msvc\14.10.25017\include\xutility
; File c:\program files (x86)\microsoft visual studio\2017\community\vc\tools\msvc\14.10.25017\include\xstring
; File c:\program files (x86)\microsoft visual studio\2017\community\vc\tools\msvc\14.10.25017\include\xutility
; File c:\program files (x86)\microsoft visual studio\2017\community\vc\tools\msvc\14.10.25017\include\xstring
; File c:\program files (x86)\microsoft visual studio\2017\community\vc\tools\msvc\14.10.25017\include\xutility
;	COMDAT ??$?0$$V@?$_Compressed_pair@U?$_Wrap_alloc@V?$allocator@_W@std@@@std@@V?$_String_val@U?$_Simple_types@_W@std@@@2@$00@std@@QAE@U_Zero_then_variadic_args_t@1@@Z
_TEXT	SEGMENT
___formal$ = 8						; size = 1
??$?0$$V@?$_Compressed_pair@U?$_Wrap_alloc@V?$allocator@_W@std@@@std@@V?$_String_val@U?$_Simple_types@_W@std@@@2@$00@std@@QAE@U_Zero_then_variadic_args_t@1@@Z PROC ; std::_Compressed_pair<std::_Wrap_alloc<std::allocator<wchar_t> >,std::_String_val<std::_Simple_types<wchar_t> >,1>::_Compressed_pair<std::_Wrap_alloc<std::allocator<wchar_t> >,std::_String_val<std::_Simple_types<wchar_t> >,1><>, COMDAT
; _this$ = ecx
; File c:\program files (x86)\microsoft visual studio\2017\community\vc\tools\msvc\14.10.25017\include\xstring

; 1595 : 		_Mysize(0),

	mov	DWORD PTR [ecx+16], 0
; File c:\program files (x86)\microsoft visual studio\2017\community\vc\tools\msvc\14.10.25017\include\xutility

; 304  : 		}

	mov	eax, ecx
; File c:\program files (x86)\microsoft visual studio\2017\community\vc\tools\msvc\14.10.25017\include\xstring

; 1596 : 		_Myres(0)

	mov	DWORD PTR [ecx+20], 0
; File c:\program files (x86)\microsoft visual studio\2017\community\vc\tools\msvc\14.10.25017\include\xutility

; 304  : 		}

	ret	4
??$?0$$V@?$_Compressed_pair@U?$_Wrap_alloc@V?$allocator@_W@std@@@std@@V?$_String_val@U?$_Simple_types@_W@std@@@2@$00@std@@QAE@U_Zero_then_variadic_args_t@1@@Z ENDP ; std::_Compressed_pair<std::_Wrap_alloc<std::allocator<wchar_t> >,std::_String_val<std::_Simple_types<wchar_t> >,1>::_Compressed_pair<std::_Wrap_alloc<std::allocator<wchar_t> >,std::_String_val<std::_Simple_types<wchar_t> >,1><>
_TEXT	ENDS
; Function compile flags: /Ogtp
; File c:\program files (x86)\microsoft visual studio\2017\community\vc\tools\msvc\14.10.25017\include\xutility
; File c:\program files (x86)\microsoft visual studio\2017\community\vc\tools\msvc\14.10.25017\include\vector
; File c:\program files (x86)\microsoft visual studio\2017\community\vc\tools\msvc\14.10.25017\include\xutility
; File c:\program files (x86)\microsoft visual studio\2017\community\vc\tools\msvc\14.10.25017\include\vector
; File c:\program files (x86)\microsoft visual studio\2017\community\vc\tools\msvc\14.10.25017\include\xutility
;	COMDAT ??$?0$$V@?$_Compressed_pair@U?$_Wrap_alloc@V?$allocator@Usk_file_entry_s@@@std@@@std@@V?$_Vector_val@U?$_Simple_types@Usk_file_entry_s@@@std@@@2@$00@std@@QAE@U_Zero_then_variadic_args_t@1@@Z
_TEXT	SEGMENT
___formal$ = 8						; size = 1
??$?0$$V@?$_Compressed_pair@U?$_Wrap_alloc@V?$allocator@Usk_file_entry_s@@@std@@@std@@V?$_Vector_val@U?$_Simple_types@Usk_file_entry_s@@@std@@@2@$00@std@@QAE@U_Zero_then_variadic_args_t@1@@Z PROC ; std::_Compressed_pair<std::_Wrap_alloc<std::allocator<sk_file_entry_s> >,std::_Vector_val<std::_Simple_types<sk_file_entry_s> >,1>::_Compressed_pair<std::_Wrap_alloc<std::allocator<sk_file_entry_s> >,std::_Vector_val<std::_Simple_types<sk_file_entry_s> >,1><>, COMDAT
; _this$ = ecx
; File c:\program files (x86)\microsoft visual studio\2017\community\vc\tools\msvc\14.10.25017\include\vector

; 476  : 		: _Myfirst(),

	mov	DWORD PTR [ecx], 0
; File c:\program files (x86)\microsoft visual studio\2017\community\vc\tools\msvc\14.10.25017\include\xutility

; 304  : 		}

	mov	eax, ecx
; File c:\program files (x86)\microsoft visual studio\2017\community\vc\tools\msvc\14.10.25017\include\vector

; 477  : 		_Mylast(),

	mov	DWORD PTR [ecx+4], 0

; 478  : 		_Myend()

	mov	DWORD PTR [ecx+8], 0
; File c:\program files (x86)\microsoft visual studio\2017\community\vc\tools\msvc\14.10.25017\include\xutility

; 304  : 		}

	ret	4
??$?0$$V@?$_Compressed_pair@U?$_Wrap_alloc@V?$allocator@Usk_file_entry_s@@@std@@@std@@V?$_Vector_val@U?$_Simple_types@Usk_file_entry_s@@@std@@@2@$00@std@@QAE@U_Zero_then_variadic_args_t@1@@Z ENDP ; std::_Compressed_pair<std::_Wrap_alloc<std::allocator<sk_file_entry_s> >,std::_Vector_val<std::_Simple_types<sk_file_entry_s> >,1>::_Compressed_pair<std::_Wrap_alloc<std::allocator<sk_file_entry_s> >,std::_Vector_val<std::_Simple_types<sk_file_entry_s> >,1><>
_TEXT	ENDS
; Function compile flags: /Ogtp
; File c:\program files (x86)\microsoft visual studio\2017\community\vc\tools\msvc\14.10.25017\include\xstddef
;	COMDAT ??$addressof@Usk_file_entry_s@@@std@@YAPAUsk_file_entry_s@@AAU1@@Z
_TEXT	SEGMENT
__Val$ = 8						; size = 4
??$addressof@Usk_file_entry_s@@@std@@YAPAUsk_file_entry_s@@AAU1@@Z PROC ; std::addressof<sk_file_entry_s>, COMDAT

; 629  : 	{	// return address of _Val

	npad	2
	push	ebp
	mov	ebp, esp

; 630  : 	return (__builtin_addressof(_Val));

	mov	eax, DWORD PTR __Val$[ebp]

; 631  : 	}

	pop	ebp
	ret	0
??$addressof@Usk_file_entry_s@@@std@@YAPAUsk_file_entry_s@@AAU1@@Z ENDP ; std::addressof<sk_file_entry_s>
_TEXT	ENDS
; Function compile flags: /Ogtp
; File c:\program files (x86)\microsoft visual studio\2017\community\vc\tools\msvc\14.10.25017\include\type_traits
;	COMDAT ??$move@AAV?$vector@Usk_file_entry_s@@V?$allocator@Usk_file_entry_s@@@std@@@std@@@std@@YA$$QAV?$vector@Usk_file_entry_s@@V?$allocator@Usk_file_entry_s@@@std@@@0@AAV10@@Z
_TEXT	SEGMENT
__Arg$ = 8						; size = 4
??$move@AAV?$vector@Usk_file_entry_s@@V?$allocator@Usk_file_entry_s@@@std@@@std@@@std@@YA$$QAV?$vector@Usk_file_entry_s@@V?$allocator@Usk_file_entry_s@@@std@@@0@AAV10@@Z PROC ; std::move<std::vector<sk_file_entry_s,std::allocator<sk_file_entry_s> > &>, COMDAT

; 1350 : 	{	// forward _Arg as movable

	npad	2
	push	ebp
	mov	ebp, esp

; 1351 : 	return (static_cast<typename remove_reference<_Ty>::type&&>(_Arg));

	mov	eax, DWORD PTR __Arg$[ebp]

; 1352 : 	}

	pop	ebp
	ret	0
??$move@AAV?$vector@Usk_file_entry_s@@V?$allocator@Usk_file_entry_s@@@std@@@std@@@std@@YA$$QAV?$vector@Usk_file_entry_s@@V?$allocator@Usk_file_entry_s@@@std@@@0@AAV10@@Z ENDP ; std::move<std::vector<sk_file_entry_s,std::allocator<sk_file_entry_s> > &>
_TEXT	ENDS
; Function compile flags: /Ogtp
; File c:\program files (x86)\microsoft visual studio\2017\community\vc\tools\msvc\14.10.25017\include\vector
;	COMDAT ??$?0U?$_Wrap_alloc@V?$allocator@Usk_file_entry_s@@@std@@@std@@X@?$_Vector_alloc@U?$_Vec_base_types@Usk_file_entry_s@@V?$allocator@Usk_file_entry_s@@@std@@@std@@@std@@QAE@$$QAU?$_Wrap_alloc@V?$allocator@Usk_file_entry_s@@@std@@@1@@Z
_TEXT	SEGMENT
__Al$ = 8						; size = 4
??$?0U?$_Wrap_alloc@V?$allocator@Usk_file_entry_s@@@std@@@std@@X@?$_Vector_alloc@U?$_Vec_base_types@Usk_file_entry_s@@V?$allocator@Usk_file_entry_s@@@std@@@std@@@std@@QAE@$$QAU?$_Wrap_alloc@V?$allocator@Usk_file_entry_s@@@std@@@1@@Z PROC ; std::_Vector_alloc<std::_Vec_base_types<sk_file_entry_s,std::allocator<sk_file_entry_s> > >::_Vector_alloc<std::_Vec_base_types<sk_file_entry_s,std::allocator<sk_file_entry_s> > ><std::_Wrap_alloc<std::allocator<sk_file_entry_s> >,void>, COMDAT
; _this$ = ecx

; 476  : 		: _Myfirst(),

	mov	DWORD PTR [ecx], 0

; 517  : 		}

	mov	eax, ecx

; 477  : 		_Mylast(),

	mov	DWORD PTR [ecx+4], 0

; 478  : 		_Myend()

	mov	DWORD PTR [ecx+8], 0

; 517  : 		}

	ret	4
??$?0U?$_Wrap_alloc@V?$allocator@Usk_file_entry_s@@@std@@@std@@X@?$_Vector_alloc@U?$_Vec_base_types@Usk_file_entry_s@@V?$allocator@Usk_file_entry_s@@@std@@@std@@@std@@QAE@$$QAU?$_Wrap_alloc@V?$allocator@Usk_file_entry_s@@@std@@@1@@Z ENDP ; std::_Vector_alloc<std::_Vec_base_types<sk_file_entry_s,std::allocator<sk_file_entry_s> > >::_Vector_alloc<std::_Vec_base_types<sk_file_entry_s,std::allocator<sk_file_entry_s> > ><std::_Wrap_alloc<std::allocator<sk_file_entry_s> >,void>
_TEXT	ENDS
; Function compile flags: /Ogtp
; File c:\program files (x86)\microsoft visual studio\2017\community\vc\tools\msvc\14.10.25017\include\type_traits
;	COMDAT ??$move@AAU?$_Wrap_alloc@V?$allocator@Usk_file_entry_s@@@std@@@std@@@std@@YA$$QAU?$_Wrap_alloc@V?$allocator@Usk_file_entry_s@@@std@@@0@AAU10@@Z
_TEXT	SEGMENT
__Arg$ = 8						; size = 4
??$move@AAU?$_Wrap_alloc@V?$allocator@Usk_file_entry_s@@@std@@@std@@@std@@YA$$QAU?$_Wrap_alloc@V?$allocator@Usk_file_entry_s@@@std@@@0@AAU10@@Z PROC ; std::move<std::_Wrap_alloc<std::allocator<sk_file_entry_s> > &>, COMDAT

; 1350 : 	{	// forward _Arg as movable

	npad	2
	push	ebp
	mov	ebp, esp

; 1351 : 	return (static_cast<typename remove_reference<_Ty>::type&&>(_Arg));

	mov	eax, DWORD PTR __Arg$[ebp]

; 1352 : 	}

	pop	ebp
	ret	0
??$move@AAU?$_Wrap_alloc@V?$allocator@Usk_file_entry_s@@@std@@@std@@@std@@YA$$QAU?$_Wrap_alloc@V?$allocator@Usk_file_entry_s@@@std@@@0@AAU10@@Z ENDP ; std::move<std::_Wrap_alloc<std::allocator<sk_file_entry_s> > &>
_TEXT	ENDS
; Function compile flags: /Ogtp
; File c:\program files (x86)\microsoft visual studio\2017\community\vc\tools\msvc\14.10.25017\include\vector
; File c:\program files (x86)\microsoft visual studio\2017\community\vc\tools\msvc\14.10.25017\include\xmemory0
; File c:\program files (x86)\microsoft visual studio\2017\community\vc\tools\msvc\14.10.25017\include\vector
; File c:\program files (x86)\microsoft visual studio\2017\community\vc\tools\msvc\14.10.25017\include\xmemory
; File c:\program files (x86)\microsoft visual studio\2017\community\vc\tools\msvc\14.10.25017\include\xutility
; File c:\program files (x86)\microsoft visual studio\2017\community\vc\tools\msvc\14.10.25017\include\xmemory
; File c:\program files (x86)\microsoft visual studio\2017\community\vc\tools\msvc\14.10.25017\include\vector
;	COMDAT ??$emplace_back@Usk_file_entry_s@@@?$vector@Usk_file_entry_s@@V?$allocator@Usk_file_entry_s@@@std@@@std@@QAEX$$QAUsk_file_entry_s@@@Z
_TEXT	SEGMENT
__Oldsize$2 = -36					; size = 4
_this$ = -32						; size = 4
__Newsize$1$ = -28					; size = 4
__Newcapacity$3 = -24					; size = 4
__Newvec$4 = -20					; size = 4
__$EHRec$ = -16						; size = 16
$T5 = 8							; size = 1
_<_Val_0>$ = 8						; size = 4
??$emplace_back@Usk_file_entry_s@@@?$vector@Usk_file_entry_s@@V?$allocator@Usk_file_entry_s@@@std@@@std@@QAEX$$QAUsk_file_entry_s@@@Z PROC ; std::vector<sk_file_entry_s,std::allocator<sk_file_entry_s> >::emplace_back<sk_file_entry_s>, COMDAT
; _this$ = ecx

; 908  : 		{	// insert by perfectly forwarding into element at end, provide strong guarantee

	npad	2
	push	ebp
	mov	ebp, esp
	push	-1
	push	__ehhandler$??$emplace_back@Usk_file_entry_s@@@?$vector@Usk_file_entry_s@@V?$allocator@Usk_file_entry_s@@@std@@@std@@QAEX$$QAUsk_file_entry_s@@@Z
	mov	eax, DWORD PTR fs:0
	push	eax
	mov	DWORD PTR fs:0, esp
	sub	esp, 28					; 0000001cH
	push	ebx
	push	esi
	mov	esi, ecx
	push	edi
	mov	DWORD PTR __$EHRec$[ebp], esp
	mov	DWORD PTR _this$[ebp], esi

; 1731 : 		return (this->_Myend() != this->_Mylast());

	mov	edi, DWORD PTR [esi+8]
	mov	ecx, DWORD PTR [esi+4]
	cmp	edi, ecx

; 909  : 		if (_Has_unused_capacity())

	je	SHORT $LN2@emplace_ba

; 910  : 			{
; 911  : 			_Emplace_back_with_unused_capacity(_STD forward<_Valty>(_Val)...);

	push	DWORD PTR _<_Val_0>$[ebp]
	mov	ecx, esi
	call	??$_Emplace_back_with_unused_capacity@Usk_file_entry_s@@@?$vector@Usk_file_entry_s@@V?$allocator@Usk_file_entry_s@@@std@@@std@@AAEX$$QAUsk_file_entry_s@@@Z ; std::vector<sk_file_entry_s,std::allocator<sk_file_entry_s> >::_Emplace_back_with_unused_capacity<sk_file_entry_s>

; 942  : 			}
; 943  : 		}

	mov	ecx, DWORD PTR __$EHRec$[ebp+4]
	mov	DWORD PTR fs:0, ecx
	pop	edi
	pop	esi
	pop	ebx
	mov	esp, ebp
	pop	ebp
	ret	4
$LN2@emplace_ba:

; 1710 : 		return (this->_Mylast() - this->_Myfirst());

	sub	ecx, DWORD PTR [esi]
	mov	eax, 1717986919				; 66666667H
	imul	ecx
	sar	edx, 4
	mov	ebx, edx
	shr	ebx, 31					; 0000001fH
	add	ebx, edx
	mov	DWORD PTR __Oldsize$2[ebp], ebx

; 912  : 			}
; 913  : 		else
; 914  : 			{	// reallocate
; 915  : 			const size_type _Oldsize = size();
; 916  : 
; 917  : 			if (_Oldsize == max_size())

	cmp	ebx, 107374182				; 06666666H
	jne	SHORT $LN4@emplace_ba

; 918  : 				{
; 919  : 				_Xlength();

	call	?_Xlength@?$vector@Usk_file_entry_s@@V?$allocator@Usk_file_entry_s@@@std@@@std@@CAXXZ ; std::vector<sk_file_entry_s,std::allocator<sk_file_entry_s> >::_Xlength
$LN183@emplace_ba:
$LN4@emplace_ba:

; 1720 : 		return (this->_Myend() - this->_Myfirst());

	sub	edi, DWORD PTR [esi]

; 920  : 				}
; 921  : 
; 922  : 			const size_type _Newsize = _Oldsize + 1;

	lea	ecx, DWORD PTR [ebx+1]

; 1720 : 		return (this->_Myend() - this->_Myfirst());

	mov	eax, 1717986919				; 66666667H

; 920  : 				}
; 921  : 
; 922  : 			const size_type _Newsize = _Oldsize + 1;

	mov	DWORD PTR __Newsize$1$[ebp], ecx

; 1720 : 		return (this->_Myend() - this->_Myfirst());

	imul	edi

; 1892 : 		if (_Oldcapacity > max_size() - _Oldcapacity / 2)

	mov	eax, 107374182				; 06666666H

; 1720 : 		return (this->_Myend() - this->_Myfirst());

	sar	edx, 4
	mov	edi, edx
	shr	edi, 31					; 0000001fH
	add	edi, edx

; 1892 : 		if (_Oldcapacity > max_size() - _Oldcapacity / 2)

	mov	edx, edi
	shr	edx, 1
	sub	eax, edx
	cmp	edi, eax
	jbe	SHORT $LN76@emplace_ba

; 1893 : 			{
; 1894 : 			return (_Newsize);	// geometric growth would overflow

	mov	edi, ecx
	mov	DWORD PTR __Newcapacity$3[ebp], ecx
	jmp	SHORT $LN77@emplace_ba
$LN76@emplace_ba:

; 1895 : 			}
; 1896 : 
; 1897 : 		const size_type _Geometric = _Oldcapacity + _Oldcapacity / 2;

	add	edi, edx

; 1898 : 
; 1899 : 		if (_Geometric < _Newsize)

	cmp	edi, ecx
	cmovb	edi, ecx
	mov	DWORD PTR __Newcapacity$3[ebp], edi
$LN77@emplace_ba:
; File c:\program files (x86)\microsoft visual studio\2017\community\vc\tools\msvc\14.10.25017\include\xmemory0

; 1077 : 		return (_Mybase::allocate(_Count));

	push	edi
	mov	ecx, esi
	call	?allocate@?$allocator@Usk_file_entry_s@@@std@@QAEPAUsk_file_entry_s@@I@Z ; std::allocator<sk_file_entry_s>::allocate
; File c:\program files (x86)\microsoft visual studio\2017\community\vc\tools\msvc\14.10.25017\include\vector

; 928  : 			this->_Getal().construct(_Unfancy(_Newvec + _Oldsize), _STD forward<_Valty>(_Val)...);

	push	DWORD PTR _<_Val_0>$[ebp]
	lea	ecx, DWORD PTR [ebx+ebx*4]
	mov	DWORD PTR __Newvec$4[ebp], eax
	mov	DWORD PTR __$EHRec$[ebp+12], 0
	lea	ecx, DWORD PTR [eax+ecx*8]
	push	ecx
	mov	ecx, esi
	call	??$construct@Usk_file_entry_s@@U1@@?$_Wrap_alloc@V?$allocator@Usk_file_entry_s@@@std@@@std@@QAEXPAUsk_file_entry_s@@$$QAU2@@Z ; std::_Wrap_alloc<std::allocator<sk_file_entry_s> >::construct<sk_file_entry_s,sk_file_entry_s>
; File c:\program files (x86)\microsoft visual studio\2017\community\vc\tools\msvc\14.10.25017\include\xmemory

; 172  : 	return (_Rechecked(_Dest,

	mov	ebx, DWORD PTR __Newvec$4[ebp]
	push	ecx
; File c:\program files (x86)\microsoft visual studio\2017\community\vc\tools\msvc\14.10.25017\include\xutility

; 893  : 	return {};

	mov	BYTE PTR $T5[ebp], 0
; File c:\program files (x86)\microsoft visual studio\2017\community\vc\tools\msvc\14.10.25017\include\xmemory

; 172  : 	return (_Rechecked(_Dest,

	push	DWORD PTR $T5[ebp]
	push	esi
	push	ebx
	push	DWORD PTR [esi+4]
	push	DWORD PTR [esi]
	call	??$_Uninitialized_move_al_unchecked@PAUsk_file_entry_s@@PAU1@V?$allocator@Usk_file_entry_s@@@std@@@std@@YAPAUsk_file_entry_s@@PAU1@00AAU?$_Wrap_alloc@V?$allocator@Usk_file_entry_s@@@std@@@0@U_General_ptr_iterator_tag@0@U_Any_tag@0@@Z ; std::_Uninitialized_move_al_unchecked<sk_file_entry_s *,sk_file_entry_s *,std::allocator<sk_file_entry_s> >
	add	esp, 24					; 00000018H
; File c:\program files (x86)\microsoft visual studio\2017\community\vc\tools\msvc\14.10.25017\include\vector

; 941  : 			_Change_array(_Newvec, _Newsize, _Newcapacity);

	mov	ecx, esi
	push	edi
	push	DWORD PTR __Newsize$1$[ebp]
	push	ebx
	call	?_Change_array@?$vector@Usk_file_entry_s@@V?$allocator@Usk_file_entry_s@@@std@@@std@@AAEXQAUsk_file_entry_s@@II@Z ; std::vector<sk_file_entry_s,std::allocator<sk_file_entry_s> >::_Change_array

; 942  : 			}
; 943  : 		}

	mov	ecx, DWORD PTR __$EHRec$[ebp+4]
	pop	edi
	pop	esi
	mov	DWORD PTR fs:0, ecx
	pop	ebx
	mov	esp, ebp
	pop	ebp
	ret	4
__catch$??$emplace_back@Usk_file_entry_s@@@?$vector@Usk_file_entry_s@@V?$allocator@Usk_file_entry_s@@@std@@@std@@QAEX$$QAUsk_file_entry_s@@@Z$0:

; 929  : 			_Emplaced = true;
; 930  : 			_Umove_if_noexcept(this->_Myfirst(), this->_Mylast(), _Newvec);
; 931  : 			_CATCH_ALL
; 932  : 			if (_Emplaced)
; 933  : 				{
; 934  : 				this->_Getal().destroy(_Unfancy(_Newvec + _Oldsize));

	mov	ecx, DWORD PTR _this$[ebp]
	call	?_Getal@?$_Vector_alloc@U?$_Vec_base_types@Usk_file_entry_s@@V?$allocator@Usk_file_entry_s@@@std@@@std@@@std@@QAEAAU?$_Wrap_alloc@V?$allocator@Usk_file_entry_s@@@std@@@2@XZ ; std::_Vector_alloc<std::_Vec_base_types<sk_file_entry_s,std::allocator<sk_file_entry_s> > >::_Getal
	mov	ecx, DWORD PTR __Oldsize$2[ebp]
	mov	edi, eax
	mov	esi, DWORD PTR __Newvec$4[ebp]
	lea	ecx, DWORD PTR [ecx+ecx*4]
	lea	ecx, DWORD PTR [esi+ecx*8]
	push	ecx
	call	??$_Unfancy@Usk_file_entry_s@@@std@@YAPAUsk_file_entry_s@@PAU1@@Z ; std::_Unfancy<sk_file_entry_s>
	add	esp, 4
	mov	ecx, edi
	push	eax
	call	??$destroy@Usk_file_entry_s@@@?$_Wrap_alloc@V?$allocator@Usk_file_entry_s@@@std@@@std@@QAEXPAUsk_file_entry_s@@@Z ; std::_Wrap_alloc<std::allocator<sk_file_entry_s> >::destroy<sk_file_entry_s>

; 935  : 				}
; 936  : 
; 937  : 			this->_Getal().deallocate(_Newvec, _Newcapacity);

	push	DWORD PTR __Newcapacity$3[ebp]
	mov	ecx, edi
	push	esi
	call	?deallocate@?$_Wrap_alloc@V?$allocator@Usk_file_entry_s@@@std@@@std@@QAEXPAUsk_file_entry_s@@I@Z ; std::_Wrap_alloc<std::allocator<sk_file_entry_s> >::deallocate

; 938  : 			_RERAISE;

	push	0
	push	0
	call	__CxxThrowException@8
$LN184@emplace_ba:
$LN182@emplace_ba:
	int	3
_TEXT	ENDS
;	COMDAT text$x
text$x	SEGMENT
__ehhandler$??$emplace_back@Usk_file_entry_s@@@?$vector@Usk_file_entry_s@@V?$allocator@Usk_file_entry_s@@@std@@@std@@QAEX$$QAUsk_file_entry_s@@@Z:
	mov	eax, OFFSET __ehfuncinfo$??$emplace_back@Usk_file_entry_s@@@?$vector@Usk_file_entry_s@@V?$allocator@Usk_file_entry_s@@@std@@@std@@QAEX$$QAUsk_file_entry_s@@@Z
	jmp	___CxxFrameHandler3
text$x	ENDS
??$emplace_back@Usk_file_entry_s@@@?$vector@Usk_file_entry_s@@V?$allocator@Usk_file_entry_s@@@std@@@std@@QAEX$$QAUsk_file_entry_s@@@Z ENDP ; std::vector<sk_file_entry_s,std::allocator<sk_file_entry_s> >::emplace_back<sk_file_entry_s>
; Function compile flags: /Ogtp
; File c:\program files (x86)\microsoft visual studio\2017\community\vc\tools\msvc\14.10.25017\include\type_traits
;	COMDAT ??$move@AAUsk_file_entry_s@@@std@@YA$$QAUsk_file_entry_s@@AAU1@@Z
_TEXT	SEGMENT
__Arg$ = 8						; size = 4
??$move@AAUsk_file_entry_s@@@std@@YA$$QAUsk_file_entry_s@@AAU1@@Z PROC ; std::move<sk_file_entry_s &>, COMDAT

; 1350 : 	{	// forward _Arg as movable

	npad	2
	push	ebp
	mov	ebp, esp

; 1351 : 	return (static_cast<typename remove_reference<_Ty>::type&&>(_Arg));

	mov	eax, DWORD PTR __Arg$[ebp]

; 1352 : 	}

	pop	ebp
	ret	0
??$move@AAUsk_file_entry_s@@@std@@YA$$QAUsk_file_entry_s@@AAU1@@Z ENDP ; std::move<sk_file_entry_s &>
_TEXT	ENDS
; Function compile flags: /Ogtp
; File c:\program files (x86)\microsoft visual studio\2017\community\vc\tools\msvc\14.10.25017\include\xmemory0
; File c:\program files (x86)\microsoft visual studio\2017\community\vc\tools\msvc\14.10.25017\include\xstring
; File c:\program files (x86)\microsoft visual studio\2017\community\vc\tools\msvc\14.10.25017\include\xmemory0
; File c:\program files (x86)\microsoft visual studio\2017\community\vc\tools\msvc\14.10.25017\include\xstring
; File c:\program files (x86)\microsoft visual studio\2017\community\vc\tools\msvc\14.10.25017\include\xmemory0
; File c:\program files (x86)\microsoft visual studio\2017\community\vc\tools\msvc\14.10.25017\include\xstring
; File c:\program files (x86)\microsoft visual studio\2017\community\vc\tools\msvc\14.10.25017\include\iosfwd
; File c:\program files (x86)\microsoft visual studio\2017\community\vc\tools\msvc\14.10.25017\include\xstring
; File c:\program files (x86)\microsoft visual studio\2017\community\vc\tools\msvc\14.10.25017\include\iosfwd
; File c:\program files (x86)\microsoft visual studio\2017\community\vc\tools\msvc\14.10.25017\include\xmemory0
;	COMDAT ??$destroy@Usk_file_entry_s@@@?$_Wrap_alloc@V?$allocator@Usk_file_entry_s@@@std@@@std@@QAEXPAUsk_file_entry_s@@@Z
_TEXT	SEGMENT
__Ptr$ = 8						; size = 4
??$destroy@Usk_file_entry_s@@@?$_Wrap_alloc@V?$allocator@Usk_file_entry_s@@@std@@@std@@QAEXPAUsk_file_entry_s@@@Z PROC ; std::_Wrap_alloc<std::allocator<sk_file_entry_s> >::destroy<sk_file_entry_s>, COMDAT
; _this$ = ecx

; 1102 : 		{	// destroy object at _Ptr

	npad	2
	push	ebp
	mov	ebp, esp
	push	esi
	mov	esi, DWORD PTR __Ptr$[ebp]
; File c:\program files (x86)\microsoft visual studio\2017\community\vc\tools\msvc\14.10.25017\include\xstring

; 1628 : 		return (this->_BUF_SIZE <= _Myres);

	mov	eax, DWORD PTR [esi+36]
	cmp	eax, 8

; 3608 : 		if (_My_data._Large_string_engaged())

	jb	SHORT $LN18@destroy
; File c:\program files (x86)\microsoft visual studio\2017\community\vc\tools\msvc\14.10.25017\include\xmemory0

; 823  : 		_Deallocate(_Ptr, _Count, sizeof (_Ty));

	push	2
; File c:\program files (x86)\microsoft visual studio\2017\community\vc\tools\msvc\14.10.25017\include\xstring

; 3613 : 			_Al.deallocate(_Ptr, _My_data._Myres + 1);

	inc	eax
; File c:\program files (x86)\microsoft visual studio\2017\community\vc\tools\msvc\14.10.25017\include\xmemory0

; 823  : 		_Deallocate(_Ptr, _Count, sizeof (_Ty));

	push	eax
	push	DWORD PTR [esi+16]
	call	?_Deallocate@std@@YAXPAXII@Z		; std::_Deallocate
	add	esp, 12					; 0000000cH
$LN18@destroy:
; File c:\program files (x86)\microsoft visual studio\2017\community\vc\tools\msvc\14.10.25017\include\xstring

; 3616 : 		_My_data._Mysize = 0;

	mov	DWORD PTR [esi+32], 0
; File c:\program files (x86)\microsoft visual studio\2017\community\vc\tools\msvc\14.10.25017\include\iosfwd

; 326  : 		_Left = _Right;

	xor	eax, eax
; File c:\program files (x86)\microsoft visual studio\2017\community\vc\tools\msvc\14.10.25017\include\xstring

; 3617 : 		_My_data._Myres = this->_BUF_SIZE - 1;

	mov	DWORD PTR [esi+36], 7
; File c:\program files (x86)\microsoft visual studio\2017\community\vc\tools\msvc\14.10.25017\include\iosfwd

; 326  : 		_Left = _Right;

	mov	WORD PTR [esi+16], ax
	pop	esi
; File c:\program files (x86)\microsoft visual studio\2017\community\vc\tools\msvc\14.10.25017\include\xmemory0

; 1104 : 		}

	pop	ebp
	ret	4
??$destroy@Usk_file_entry_s@@@?$_Wrap_alloc@V?$allocator@Usk_file_entry_s@@@std@@@std@@QAEXPAUsk_file_entry_s@@@Z ENDP ; std::_Wrap_alloc<std::allocator<sk_file_entry_s> >::destroy<sk_file_entry_s>
_TEXT	ENDS
; Function compile flags: /Ogtp
; File c:\program files (x86)\microsoft visual studio\2017\community\vc\tools\msvc\14.10.25017\include\xstddef
;	COMDAT ??$_Unfancy@Usk_file_entry_s@@@std@@YAPAUsk_file_entry_s@@PAU1@@Z
_TEXT	SEGMENT
__Ptr$ = 8						; size = 4
??$_Unfancy@Usk_file_entry_s@@@std@@YAPAUsk_file_entry_s@@PAU1@@Z PROC ; std::_Unfancy<sk_file_entry_s>, COMDAT

; 642  : 	{	// do nothing for plain pointers

	npad	2
	push	ebp
	mov	ebp, esp

; 643  : 	return (_Ptr);

	mov	eax, DWORD PTR __Ptr$[ebp]

; 644  : 	}

	pop	ebp
	ret	0
??$_Unfancy@Usk_file_entry_s@@@std@@YAPAUsk_file_entry_s@@PAU1@@Z ENDP ; std::_Unfancy<sk_file_entry_s>
_TEXT	ENDS
; Function compile flags: /Ogtp
; File c:\program files (x86)\microsoft visual studio\2017\community\vc\tools\msvc\14.10.25017\include\xutility
;	COMDAT ??$_Move_unchecked@PAUsk_file_entry_s@@PAU1@@std@@YAPAUsk_file_entry_s@@PAU1@00@Z
_TEXT	SEGMENT
$T1 = -4						; size = 1
__First$ = 8						; size = 4
__Last$ = 12						; size = 4
__Dest$ = 16						; size = 4
??$_Move_unchecked@PAUsk_file_entry_s@@PAU1@@std@@YAPAUsk_file_entry_s@@PAU1@00@Z PROC ; std::_Move_unchecked<sk_file_entry_s *,sk_file_entry_s *>, COMDAT

; 2550 : 	{	// move [_First, _Last) to [_Dest, ...), choose optimization

	npad	2
	push	ebp
	mov	ebp, esp
	push	ecx

; 893  : 	return {};

	mov	BYTE PTR $T1[ebp], 0

; 2551 : 		// note: _Move_unchecked is called directly from elsewhere in the STL
; 2552 : 	return (_Move_unchecked1(_First, _Last,

	push	DWORD PTR $T1[ebp]
	push	DWORD PTR __Dest$[ebp]
	push	DWORD PTR __Last$[ebp]
	push	DWORD PTR __First$[ebp]
	call	??$_Move_unchecked1@PAUsk_file_entry_s@@PAU1@@std@@YAPAUsk_file_entry_s@@PAU1@00U_General_ptr_iterator_tag@0@@Z ; std::_Move_unchecked1<sk_file_entry_s *,sk_file_entry_s *>
	add	esp, 16					; 00000010H

; 2553 : 		_Dest, _Ptr_move_cat(_First, _Dest)));
; 2554 : 	}

	mov	esp, ebp
	pop	ebp
	ret	0
??$_Move_unchecked@PAUsk_file_entry_s@@PAU1@@std@@YAPAUsk_file_entry_s@@PAU1@00@Z ENDP ; std::_Move_unchecked<sk_file_entry_s *,sk_file_entry_s *>
_TEXT	ENDS
; Function compile flags: /Ogtp
; File c:\program files (x86)\microsoft visual studio\2017\community\vc\tools\msvc\14.10.25017\include\xstddef
;	COMDAT ??$addressof@V?$_Vector_val@U?$_Simple_types@Usk_file_entry_s@@@std@@@std@@@std@@YAPAV?$_Vector_val@U?$_Simple_types@Usk_file_entry_s@@@std@@@0@AAV10@@Z
_TEXT	SEGMENT
__Val$ = 8						; size = 4
??$addressof@V?$_Vector_val@U?$_Simple_types@Usk_file_entry_s@@@std@@@std@@@std@@YAPAV?$_Vector_val@U?$_Simple_types@Usk_file_entry_s@@@std@@@0@AAV10@@Z PROC ; std::addressof<std::_Vector_val<std::_Simple_types<sk_file_entry_s> > >, COMDAT

; 629  : 	{	// return address of _Val

	npad	2
	push	ebp
	mov	ebp, esp

; 630  : 	return (__builtin_addressof(_Val));

	mov	eax, DWORD PTR __Val$[ebp]

; 631  : 	}

	pop	ebp
	ret	0
??$addressof@V?$_Vector_val@U?$_Simple_types@Usk_file_entry_s@@@std@@@std@@@std@@YAPAV?$_Vector_val@U?$_Simple_types@Usk_file_entry_s@@@std@@@0@AAV10@@Z ENDP ; std::addressof<std::_Vector_val<std::_Simple_types<sk_file_entry_s> > >
_TEXT	ENDS
; Function compile flags: /Ogtp
; File c:\program files (x86)\microsoft visual studio\2017\community\vc\tools\msvc\14.10.25017\include\xmemory0
;	COMDAT ?pointer_to@?$pointer_traits@PAUsk_file_entry_s@@@std@@SAPAUsk_file_entry_s@@AAU3@@Z
_TEXT	SEGMENT
__Val$ = 8						; size = 4
?pointer_to@?$pointer_traits@PAUsk_file_entry_s@@@std@@SAPAUsk_file_entry_s@@AAU3@@Z PROC ; std::pointer_traits<sk_file_entry_s *>::pointer_to, COMDAT

; 289  : 		{	// convert raw reference to pointer

	npad	2
	push	ebp
	mov	ebp, esp

; 290  : 		return (_STD addressof(_Val));

	mov	eax, DWORD PTR __Val$[ebp]

; 291  : 		}

	pop	ebp
	ret	0
?pointer_to@?$pointer_traits@PAUsk_file_entry_s@@@std@@SAPAUsk_file_entry_s@@AAU3@@Z ENDP ; std::pointer_traits<sk_file_entry_s *>::pointer_to
_TEXT	ENDS
; Function compile flags: /Ogtp
; File c:\program files (x86)\microsoft visual studio\2017\community\vc\tools\msvc\14.10.25017\include\vector
;	COMDAT ??E?$_Vector_iterator@V?$_Vector_val@U?$_Simple_types@Usk_file_entry_s@@@std@@@std@@@std@@QAEAAV01@XZ
_TEXT	SEGMENT
??E?$_Vector_iterator@V?$_Vector_val@U?$_Simple_types@Usk_file_entry_s@@@std@@@std@@@std@@QAEAAV01@XZ PROC ; std::_Vector_iterator<std::_Vector_val<std::_Simple_types<sk_file_entry_s> > >::operator++, COMDAT
; _this$ = ecx

; 107  : 		++_Ptr;

	add	DWORD PTR [ecx], 40			; 00000028H

; 332  : 		++*(_Mybase *)this;
; 333  : 		return (*this);

	mov	eax, ecx

; 334  : 		}

	ret	0
??E?$_Vector_iterator@V?$_Vector_val@U?$_Simple_types@Usk_file_entry_s@@@std@@@std@@@std@@QAEAAV01@XZ ENDP ; std::_Vector_iterator<std::_Vector_val<std::_Simple_types<sk_file_entry_s> > >::operator++
_TEXT	ENDS
; Function compile flags: /Ogtp
; File c:\program files (x86)\microsoft visual studio\2017\community\vc\tools\msvc\14.10.25017\include\vector
;	COMDAT ??C?$_Vector_iterator@V?$_Vector_val@U?$_Simple_types@Usk_file_entry_s@@@std@@@std@@@std@@QBEPAUsk_file_entry_s@@XZ
_TEXT	SEGMENT
??C?$_Vector_iterator@V?$_Vector_val@U?$_Simple_types@Usk_file_entry_s@@@std@@@std@@@std@@QBEPAUsk_file_entry_s@@XZ PROC ; std::_Vector_iterator<std::_Vector_val<std::_Simple_types<sk_file_entry_s> > >::operator->, COMDAT
; _this$ = ecx

; 327  : 		return (pointer_traits<pointer>::pointer_to(**this));

	mov	eax, DWORD PTR [ecx]

; 328  : 		}

	ret	0
??C?$_Vector_iterator@V?$_Vector_val@U?$_Simple_types@Usk_file_entry_s@@@std@@@std@@@std@@QBEPAUsk_file_entry_s@@XZ ENDP ; std::_Vector_iterator<std::_Vector_val<std::_Simple_types<sk_file_entry_s> > >::operator->
_TEXT	ENDS
; Function compile flags: /Ogtp
; File c:\program files (x86)\microsoft visual studio\2017\community\vc\tools\msvc\14.10.25017\include\vector
;	COMDAT ??D?$_Vector_iterator@V?$_Vector_val@U?$_Simple_types@Usk_file_entry_s@@@std@@@std@@@std@@QBEAAUsk_file_entry_s@@XZ
_TEXT	SEGMENT
??D?$_Vector_iterator@V?$_Vector_val@U?$_Simple_types@Usk_file_entry_s@@@std@@@std@@@std@@QBEAAUsk_file_entry_s@@XZ PROC ; std::_Vector_iterator<std::_Vector_val<std::_Simple_types<sk_file_entry_s> > >::operator*, COMDAT
; _this$ = ecx

; 322  : 		return ((reference)**(_Mybase *)this);

	mov	eax, DWORD PTR [ecx]

; 323  : 		}

	ret	0
??D?$_Vector_iterator@V?$_Vector_val@U?$_Simple_types@Usk_file_entry_s@@@std@@@std@@@std@@QBEAAUsk_file_entry_s@@XZ ENDP ; std::_Vector_iterator<std::_Vector_val<std::_Simple_types<sk_file_entry_s> > >::operator*
_TEXT	ENDS
; Function compile flags: /Ogtp
; File c:\program files (x86)\microsoft visual studio\2017\community\vc\tools\msvc\14.10.25017\include\vector
;	COMDAT ??0?$_Vector_iterator@V?$_Vector_val@U?$_Simple_types@Usk_file_entry_s@@@std@@@std@@@std@@QAE@PAUsk_file_entry_s@@PBU_Container_base0@1@@Z
_TEXT	SEGMENT
__Parg$ = 8						; size = 4
__Pvector$ = 12						; size = 4
??0?$_Vector_iterator@V?$_Vector_val@U?$_Simple_types@Usk_file_entry_s@@@std@@@std@@@std@@QAE@PAUsk_file_entry_s@@PBU_Container_base0@1@@Z PROC ; std::_Vector_iterator<std::_Vector_val<std::_Simple_types<sk_file_entry_s> > >::_Vector_iterator<std::_Vector_val<std::_Simple_types<sk_file_entry_s> > >, COMDAT
; _this$ = ecx

; 304  : 		{	// construct with pointer _Parg

	npad	2
	push	ebp
	mov	ebp, esp

; 42   : 		: _Ptr(_Parg)

	mov	eax, DWORD PTR __Parg$[ebp]
	mov	DWORD PTR [ecx], eax

; 305  : 		}

	mov	eax, ecx
	pop	ebp
	ret	8
??0?$_Vector_iterator@V?$_Vector_val@U?$_Simple_types@Usk_file_entry_s@@@std@@@std@@@std@@QAE@PAUsk_file_entry_s@@PBU_Container_base0@1@@Z ENDP ; std::_Vector_iterator<std::_Vector_val<std::_Simple_types<sk_file_entry_s> > >::_Vector_iterator<std::_Vector_val<std::_Simple_types<sk_file_entry_s> > >
_TEXT	ENDS
; Function compile flags: /Ogtp
; File c:\program files (x86)\microsoft visual studio\2017\community\vc\tools\msvc\14.10.25017\include\vector
;	COMDAT ?_Compat@?$_Vector_const_iterator@V?$_Vector_val@U?$_Simple_types@Usk_file_entry_s@@@std@@@std@@@std@@QBEXABV12@@Z
_TEXT	SEGMENT
___formal$ = 8						; size = 4
?_Compat@?$_Vector_const_iterator@V?$_Vector_val@U?$_Simple_types@Usk_file_entry_s@@@std@@@std@@@std@@QBEXABV12@@Z PROC ; std::_Vector_const_iterator<std::_Vector_val<std::_Simple_types<sk_file_entry_s> > >::_Compat, COMDAT
; _this$ = ecx

; 253  : 		}

	ret	4
?_Compat@?$_Vector_const_iterator@V?$_Vector_val@U?$_Simple_types@Usk_file_entry_s@@@std@@@std@@@std@@QBEXABV12@@Z ENDP ; std::_Vector_const_iterator<std::_Vector_val<std::_Simple_types<sk_file_entry_s> > >::_Compat
_TEXT	ENDS
; Function compile flags: /Ogtp
; File c:\program files (x86)\microsoft visual studio\2017\community\vc\tools\msvc\14.10.25017\include\vector
;	COMDAT ??9?$_Vector_const_iterator@V?$_Vector_val@U?$_Simple_types@Usk_file_entry_s@@@std@@@std@@@std@@QBE_NABV01@@Z
_TEXT	SEGMENT
__Right$ = 8						; size = 4
??9?$_Vector_const_iterator@V?$_Vector_val@U?$_Simple_types@Usk_file_entry_s@@@std@@@std@@@std@@QBE_NABV01@@Z PROC ; std::_Vector_const_iterator<std::_Vector_val<std::_Simple_types<sk_file_entry_s> > >::operator!=, COMDAT
; _this$ = ecx

; 210  : 		{	// test for iterator inequality

	npad	2
	push	ebp
	mov	ebp, esp
	mov	eax, DWORD PTR __Right$[ebp]
	mov	ecx, DWORD PTR [ecx]
	cmp	ecx, DWORD PTR [eax]
	setne	al

; 211  : 		return (!(*this == _Right));
; 212  : 		}

	pop	ebp
	ret	4
??9?$_Vector_const_iterator@V?$_Vector_val@U?$_Simple_types@Usk_file_entry_s@@@std@@@std@@@std@@QBE_NABV01@@Z ENDP ; std::_Vector_const_iterator<std::_Vector_val<std::_Simple_types<sk_file_entry_s> > >::operator!=
_TEXT	ENDS
; Function compile flags: /Ogtp
; File c:\program files (x86)\microsoft visual studio\2017\community\vc\tools\msvc\14.10.25017\include\vector
;	COMDAT ??8?$_Vector_const_iterator@V?$_Vector_val@U?$_Simple_types@Usk_file_entry_s@@@std@@@std@@@std@@QBE_NABV01@@Z
_TEXT	SEGMENT
__Right$ = 8						; size = 4
??8?$_Vector_const_iterator@V?$_Vector_val@U?$_Simple_types@Usk_file_entry_s@@@std@@@std@@@std@@QBE_NABV01@@Z PROC ; std::_Vector_const_iterator<std::_Vector_val<std::_Simple_types<sk_file_entry_s> > >::operator==, COMDAT
; _this$ = ecx

; 204  : 		{	// test for iterator equality

	npad	2
	push	ebp
	mov	ebp, esp
	mov	eax, DWORD PTR __Right$[ebp]
	mov	ecx, DWORD PTR [ecx]
	cmp	ecx, DWORD PTR [eax]
	sete	al

; 205  : 		_Compat(_Right);
; 206  : 		return (_Ptr == _Right._Ptr);
; 207  : 		}

	pop	ebp
	ret	4
??8?$_Vector_const_iterator@V?$_Vector_val@U?$_Simple_types@Usk_file_entry_s@@@std@@@std@@@std@@QBE_NABV01@@Z ENDP ; std::_Vector_const_iterator<std::_Vector_val<std::_Simple_types<sk_file_entry_s> > >::operator==
_TEXT	ENDS
; Function compile flags: /Ogtp
; File c:\program files (x86)\microsoft visual studio\2017\community\vc\tools\msvc\14.10.25017\include\vector
;	COMDAT ??E?$_Vector_const_iterator@V?$_Vector_val@U?$_Simple_types@Usk_file_entry_s@@@std@@@std@@@std@@QAEAAV01@XZ
_TEXT	SEGMENT
??E?$_Vector_const_iterator@V?$_Vector_val@U?$_Simple_types@Usk_file_entry_s@@@std@@@std@@@std@@QAEAAV01@XZ PROC ; std::_Vector_const_iterator<std::_Vector_val<std::_Simple_types<sk_file_entry_s> > >::operator++, COMDAT
; _this$ = ecx

; 91   :  #if _ITERATOR_DEBUG_LEVEL == 2
; 92   : 		const auto _Mycont = static_cast<const _Myvec *>(this->_Getcont());
; 93   : 		if (_Mycont == 0
; 94   : 			|| _Ptr == nullptr_t{}
; 95   : 			|| _Mycont->_Mylast <= _Ptr)
; 96   : 			{	// report error
; 97   : 			_DEBUG_ERROR("vector iterator not incrementable");
; 98   : 			}
; 99   : 
; 100  :  #elif _ITERATOR_DEBUG_LEVEL == 1
; 101  : 		_SCL_SECURE_VALIDATE(_Ptr != _Tptr());
; 102  : 		const auto _Mycont = static_cast<const _Myvec *>(this->_Getcont());
; 103  : 		_SCL_SECURE_VALIDATE(_Mycont != 0);
; 104  : 		_SCL_SECURE_VALIDATE_RANGE(_Ptr < _Mycont->_Mylast);
; 105  :  #endif /* _ITERATOR_DEBUG_LEVEL */
; 106  : 
; 107  : 		++_Ptr;

	add	DWORD PTR [ecx], 40			; 00000028H

; 108  : 		return (*this);

	mov	eax, ecx

; 109  : 		}

	ret	0
??E?$_Vector_const_iterator@V?$_Vector_val@U?$_Simple_types@Usk_file_entry_s@@@std@@@std@@@std@@QAEAAV01@XZ ENDP ; std::_Vector_const_iterator<std::_Vector_val<std::_Simple_types<sk_file_entry_s> > >::operator++
_TEXT	ENDS
; Function compile flags: /Ogtp
; File c:\program files (x86)\microsoft visual studio\2017\community\vc\tools\msvc\14.10.25017\include\vector
;	COMDAT ??D?$_Vector_const_iterator@V?$_Vector_val@U?$_Simple_types@Usk_file_entry_s@@@std@@@std@@@std@@QBEABUsk_file_entry_s@@XZ
_TEXT	SEGMENT
??D?$_Vector_const_iterator@V?$_Vector_val@U?$_Simple_types@Usk_file_entry_s@@@std@@@std@@@std@@QBEABUsk_file_entry_s@@XZ PROC ; std::_Vector_const_iterator<std::_Vector_val<std::_Simple_types<sk_file_entry_s> > >::operator*, COMDAT
; _this$ = ecx

; 62   :  #if _ITERATOR_DEBUG_LEVEL == 2
; 63   : 		const auto _Mycont = static_cast<const _Myvec *>(this->_Getcont());
; 64   : 		if (_Mycont == 0
; 65   : 			|| _Ptr == _Tptr()
; 66   : 			|| _Ptr < _Mycont->_Myfirst
; 67   : 			|| _Mycont->_Mylast <= _Ptr)
; 68   : 			{	// report error
; 69   : 			_DEBUG_ERROR("vector iterator not dereferencable");
; 70   : 			}
; 71   : 
; 72   :  #elif _ITERATOR_DEBUG_LEVEL == 1
; 73   : 		_SCL_SECURE_VALIDATE(_Ptr != _Tptr());
; 74   : 		const auto _Mycont = static_cast<const _Myvec *>(this->_Getcont());
; 75   : 		_SCL_SECURE_VALIDATE(_Mycont != 0);
; 76   : 		_SCL_SECURE_VALIDATE_RANGE(_Mycont->_Myfirst <= _Ptr && _Ptr < _Mycont->_Mylast);
; 77   :  #endif /* _ITERATOR_DEBUG_LEVEL */
; 78   : 
; 79   : 		_Analysis_assume_(_Ptr != _Tptr());
; 80   : 
; 81   : 		return (*_Ptr);

	mov	eax, DWORD PTR [ecx]

; 82   : 		}

	ret	0
??D?$_Vector_const_iterator@V?$_Vector_val@U?$_Simple_types@Usk_file_entry_s@@@std@@@std@@@std@@QBEABUsk_file_entry_s@@XZ ENDP ; std::_Vector_const_iterator<std::_Vector_val<std::_Simple_types<sk_file_entry_s> > >::operator*
_TEXT	ENDS
; Function compile flags: /Ogtp
; File c:\program files (x86)\microsoft visual studio\2017\community\vc\tools\msvc\14.10.25017\include\vector
;	COMDAT ??0?$_Vector_const_iterator@V?$_Vector_val@U?$_Simple_types@Usk_file_entry_s@@@std@@@std@@@std@@QAE@PAUsk_file_entry_s@@PBU_Container_base0@1@@Z
_TEXT	SEGMENT
__Parg$ = 8						; size = 4
__Pvector$ = 12						; size = 4
??0?$_Vector_const_iterator@V?$_Vector_val@U?$_Simple_types@Usk_file_entry_s@@@std@@@std@@@std@@QAE@PAUsk_file_entry_s@@PBU_Container_base0@1@@Z PROC ; std::_Vector_const_iterator<std::_Vector_val<std::_Simple_types<sk_file_entry_s> > >::_Vector_const_iterator<std::_Vector_val<std::_Simple_types<sk_file_entry_s> > >, COMDAT
; _this$ = ecx

; 43   : 		{	// construct with pointer _Parg

	npad	2
	push	ebp
	mov	ebp, esp

; 42   : 		: _Ptr(_Parg)

	mov	eax, DWORD PTR __Parg$[ebp]
	mov	DWORD PTR [ecx], eax

; 44   : 		this->_Adopt(_Pvector);
; 45   : 		}

	mov	eax, ecx
	pop	ebp
	ret	8
??0?$_Vector_const_iterator@V?$_Vector_val@U?$_Simple_types@Usk_file_entry_s@@@std@@@std@@@std@@QAE@PAUsk_file_entry_s@@PBU_Container_base0@1@@Z ENDP ; std::_Vector_const_iterator<std::_Vector_val<std::_Simple_types<sk_file_entry_s> > >::_Vector_const_iterator<std::_Vector_val<std::_Simple_types<sk_file_entry_s> > >
_TEXT	ENDS
; Function compile flags: /Ogtp
; File c:\program files (x86)\microsoft visual studio\2017\community\vc\tools\msvc\14.10.25017\include\vector
;	COMDAT ?_Orphan_range@?$vector@Usk_file_entry_s@@V?$allocator@Usk_file_entry_s@@@std@@@std@@ABEXPAUsk_file_entry_s@@0@Z
_TEXT	SEGMENT
___formal$ = 8						; size = 4
___formal$ = 12						; size = 4
?_Orphan_range@?$vector@Usk_file_entry_s@@V?$allocator@Usk_file_entry_s@@@std@@@std@@ABEXPAUsk_file_entry_s@@0@Z PROC ; std::vector<sk_file_entry_s,std::allocator<sk_file_entry_s> >::_Orphan_range, COMDAT
; _this$ = ecx

; 1996 : 		}

	ret	8
?_Orphan_range@?$vector@Usk_file_entry_s@@V?$allocator@Usk_file_entry_s@@@std@@@std@@ABEXPAUsk_file_entry_s@@0@Z ENDP ; std::vector<sk_file_entry_s,std::allocator<sk_file_entry_s> >::_Orphan_range
_TEXT	ENDS
; Function compile flags: /Ogtp
; File c:\program files (x86)\microsoft visual studio\2017\community\vc\tools\msvc\14.10.25017\include\vector
;	COMDAT ?_Xlength@?$vector@Usk_file_entry_s@@V?$allocator@Usk_file_entry_s@@@std@@@std@@CAXXZ
_TEXT	SEGMENT
?_Xlength@?$vector@Usk_file_entry_s@@V?$allocator@Usk_file_entry_s@@@std@@@std@@CAXXZ PROC ; std::vector<sk_file_entry_s,std::allocator<sk_file_entry_s> >::_Xlength, COMDAT

; 1962 : 		_Xlength_error("vector<T> too long");

	push	OFFSET ??_C@_0BD@OLBABOEK@vector?$DMT?$DO?5too?5long?$AA@
	call	DWORD PTR __imp_?_Xlength_error@std@@YAXPBD@Z
$LN4@Xlength:
$LN3@Xlength:
	int	3
?_Xlength@?$vector@Usk_file_entry_s@@V?$allocator@Usk_file_entry_s@@@std@@@std@@CAXXZ ENDP ; std::vector<sk_file_entry_s,std::allocator<sk_file_entry_s> >::_Xlength
_TEXT	ENDS
; Function compile flags: /Ogtp
; File c:\program files (x86)\microsoft visual studio\2017\community\vc\tools\msvc\14.10.25017\include\vector
; File c:\program files (x86)\microsoft visual studio\2017\community\vc\tools\msvc\14.10.25017\include\xmemory0
; File c:\program files (x86)\microsoft visual studio\2017\community\vc\tools\msvc\14.10.25017\include\vector
; File c:\program files (x86)\microsoft visual studio\2017\community\vc\tools\msvc\14.10.25017\include\xmemory0
; File c:\program files (x86)\microsoft visual studio\2017\community\vc\tools\msvc\14.10.25017\include\vector
; File c:\program files (x86)\microsoft visual studio\2017\community\vc\tools\msvc\14.10.25017\include\xmemory0
; File c:\program files (x86)\microsoft visual studio\2017\community\vc\tools\msvc\14.10.25017\include\vector
; File c:\program files (x86)\microsoft visual studio\2017\community\vc\tools\msvc\14.10.25017\include\xmemory0
; File c:\program files (x86)\microsoft visual studio\2017\community\vc\tools\msvc\14.10.25017\include\vector
;	COMDAT ?_Tidy@?$vector@Usk_file_entry_s@@V?$allocator@Usk_file_entry_s@@@std@@@std@@AAEXXZ
_TEXT	SEGMENT
$T1 = -4						; size = 1
?_Tidy@?$vector@Usk_file_entry_s@@V?$allocator@Usk_file_entry_s@@@std@@@std@@AAEXXZ PROC ; std::vector<sk_file_entry_s,std::allocator<sk_file_entry_s> >::_Tidy, COMDAT
; _this$ = ecx

; 1946 : 		{	// free all storage

	npad	2
	push	ebp
	mov	ebp, esp
	push	ecx
	push	edi
	mov	edi, ecx

; 1947 : 		this->_Orphan_all();
; 1948 : 
; 1949 : 		if (this->_Myfirst() != pointer())

	mov	eax, DWORD PTR [edi]
	test	eax, eax
	je	SHORT $LN2@Tidy
; File c:\program files (x86)\microsoft visual studio\2017\community\vc\tools\msvc\14.10.25017\include\xmemory0

; 1218 : 	_Destroy_range1(_First, _Last, _Al, _Conjunction_t<

	push	DWORD PTR $T1[ebp]
	push	edi
	push	DWORD PTR [edi+4]
	push	eax
	call	??$_Destroy_range1@V?$allocator@Usk_file_entry_s@@@std@@PAUsk_file_entry_s@@@std@@YAXPAUsk_file_entry_s@@0AAU?$_Wrap_alloc@V?$allocator@Usk_file_entry_s@@@std@@@0@U?$integral_constant@_N$0A@@0@@Z ; std::_Destroy_range1<std::allocator<sk_file_entry_s>,sk_file_entry_s *>
; File c:\program files (x86)\microsoft visual studio\2017\community\vc\tools\msvc\14.10.25017\include\vector

; 1952 : 			this->_Getal().deallocate(this->_Myfirst(), this->_Myend() - this->_Myfirst());

	mov	ecx, DWORD PTR [edi+8]
	mov	eax, 1717986919				; 66666667H
	sub	ecx, DWORD PTR [edi]
	imul	ecx
; File c:\program files (x86)\microsoft visual studio\2017\community\vc\tools\msvc\14.10.25017\include\xmemory0

; 823  : 		_Deallocate(_Ptr, _Count, sizeof (_Ty));

	push	40					; 00000028H
; File c:\program files (x86)\microsoft visual studio\2017\community\vc\tools\msvc\14.10.25017\include\vector

; 1952 : 			this->_Getal().deallocate(this->_Myfirst(), this->_Myend() - this->_Myfirst());

	sar	edx, 4
	mov	eax, edx
	shr	eax, 31					; 0000001fH
	add	eax, edx
; File c:\program files (x86)\microsoft visual studio\2017\community\vc\tools\msvc\14.10.25017\include\xmemory0

; 823  : 		_Deallocate(_Ptr, _Count, sizeof (_Ty));

	push	eax
	push	DWORD PTR [edi]
	call	?_Deallocate@std@@YAXPAXII@Z		; std::_Deallocate
; File c:\program files (x86)\microsoft visual studio\2017\community\vc\tools\msvc\14.10.25017\include\vector

; 1954 : 			this->_Myfirst() = pointer();

	mov	DWORD PTR [edi], 0
; File c:\program files (x86)\microsoft visual studio\2017\community\vc\tools\msvc\14.10.25017\include\xmemory0

; 823  : 		_Deallocate(_Ptr, _Count, sizeof (_Ty));

	add	esp, 28					; 0000001cH
; File c:\program files (x86)\microsoft visual studio\2017\community\vc\tools\msvc\14.10.25017\include\vector

; 1955 : 			this->_Mylast() = pointer();

	mov	DWORD PTR [edi+4], 0

; 1956 : 			this->_Myend() = pointer();

	mov	DWORD PTR [edi+8], 0
$LN2@Tidy:
	pop	edi

; 1957 : 			}
; 1958 : 		}

	mov	esp, ebp
	pop	ebp
	ret	0
?_Tidy@?$vector@Usk_file_entry_s@@V?$allocator@Usk_file_entry_s@@@std@@@std@@AAEXXZ ENDP ; std::vector<sk_file_entry_s,std::allocator<sk_file_entry_s> >::_Tidy
_TEXT	ENDS
; Function compile flags: /Ogtp
; File c:\program files (x86)\microsoft visual studio\2017\community\vc\tools\msvc\14.10.25017\include\vector
; File c:\program files (x86)\microsoft visual studio\2017\community\vc\tools\msvc\14.10.25017\include\xmemory0
; File c:\program files (x86)\microsoft visual studio\2017\community\vc\tools\msvc\14.10.25017\include\vector
; File c:\program files (x86)\microsoft visual studio\2017\community\vc\tools\msvc\14.10.25017\include\xmemory0
; File c:\program files (x86)\microsoft visual studio\2017\community\vc\tools\msvc\14.10.25017\include\vector
; File c:\program files (x86)\microsoft visual studio\2017\community\vc\tools\msvc\14.10.25017\include\xmemory0
; File c:\program files (x86)\microsoft visual studio\2017\community\vc\tools\msvc\14.10.25017\include\vector
;	COMDAT ?_Change_array@?$vector@Usk_file_entry_s@@V?$allocator@Usk_file_entry_s@@@std@@@std@@AAEXQAUsk_file_entry_s@@II@Z
_TEXT	SEGMENT
$T1 = 8							; size = 1
__Newvec$ = 8						; size = 4
__Newsize$ = 12						; size = 4
__Newcapacity$ = 16					; size = 4
?_Change_array@?$vector@Usk_file_entry_s@@V?$allocator@Usk_file_entry_s@@@std@@@std@@AAEXQAUsk_file_entry_s@@II@Z PROC ; std::vector<sk_file_entry_s,std::allocator<sk_file_entry_s> >::_Change_array, COMDAT
; _this$ = ecx

; 1931 : 		{	// orphan all iterators, discard old array, acquire new array

	npad	2
	push	ebp
	mov	ebp, esp
	push	edi
	mov	edi, ecx

; 1932 : 		this->_Orphan_all();
; 1933 : 
; 1934 : 		if (this->_Myfirst() != pointer())

	mov	eax, DWORD PTR [edi]
	test	eax, eax
	je	SHORT $LN2@Change_arr
; File c:\program files (x86)\microsoft visual studio\2017\community\vc\tools\msvc\14.10.25017\include\xmemory0

; 1218 : 	_Destroy_range1(_First, _Last, _Al, _Conjunction_t<

	push	DWORD PTR $T1[ebp]
	push	edi
	push	DWORD PTR [edi+4]
	push	eax
	call	??$_Destroy_range1@V?$allocator@Usk_file_entry_s@@@std@@PAUsk_file_entry_s@@@std@@YAXPAUsk_file_entry_s@@0AAU?$_Wrap_alloc@V?$allocator@Usk_file_entry_s@@@std@@@0@U?$integral_constant@_N$0A@@0@@Z ; std::_Destroy_range1<std::allocator<sk_file_entry_s>,sk_file_entry_s *>
; File c:\program files (x86)\microsoft visual studio\2017\community\vc\tools\msvc\14.10.25017\include\vector

; 1937 : 			this->_Getal().deallocate(this->_Myfirst(), this->_Myend() - this->_Myfirst());

	mov	ecx, DWORD PTR [edi+8]
	mov	eax, 1717986919				; 66666667H
	sub	ecx, DWORD PTR [edi]
	imul	ecx
; File c:\program files (x86)\microsoft visual studio\2017\community\vc\tools\msvc\14.10.25017\include\xmemory0

; 823  : 		_Deallocate(_Ptr, _Count, sizeof (_Ty));

	push	40					; 00000028H
; File c:\program files (x86)\microsoft visual studio\2017\community\vc\tools\msvc\14.10.25017\include\vector

; 1937 : 			this->_Getal().deallocate(this->_Myfirst(), this->_Myend() - this->_Myfirst());

	sar	edx, 4
	mov	eax, edx
	shr	eax, 31					; 0000001fH
	add	eax, edx
; File c:\program files (x86)\microsoft visual studio\2017\community\vc\tools\msvc\14.10.25017\include\xmemory0

; 823  : 		_Deallocate(_Ptr, _Count, sizeof (_Ty));

	push	eax
	push	DWORD PTR [edi]
	call	?_Deallocate@std@@YAXPAXII@Z		; std::_Deallocate
	add	esp, 28					; 0000001cH
$LN2@Change_arr:
; File c:\program files (x86)\microsoft visual studio\2017\community\vc\tools\msvc\14.10.25017\include\vector

; 1940 : 		this->_Myfirst() = _Newvec;

	mov	ecx, DWORD PTR __Newvec$[ebp]

; 1941 : 		this->_Mylast() = _Newvec + _Newsize;

	mov	eax, DWORD PTR __Newsize$[ebp]
	mov	DWORD PTR [edi], ecx
	lea	eax, DWORD PTR [eax+eax*4]
	lea	eax, DWORD PTR [ecx+eax*8]
	mov	DWORD PTR [edi+4], eax

; 1942 : 		this->_Myend() = _Newvec + _Newcapacity;

	mov	eax, DWORD PTR __Newcapacity$[ebp]
	lea	eax, DWORD PTR [eax+eax*4]
	lea	eax, DWORD PTR [ecx+eax*8]
	mov	DWORD PTR [edi+8], eax
	pop	edi

; 1943 : 		}

	pop	ebp
	ret	12					; 0000000cH
?_Change_array@?$vector@Usk_file_entry_s@@V?$allocator@Usk_file_entry_s@@@std@@@std@@AAEXQAUsk_file_entry_s@@II@Z ENDP ; std::vector<sk_file_entry_s,std::allocator<sk_file_entry_s> >::_Change_array
_TEXT	ENDS
; Function compile flags: /Ogtp
; File c:\program files (x86)\microsoft visual studio\2017\community\vc\tools\msvc\14.10.25017\include\vector
;	COMDAT ?_Calculate_growth@?$vector@Usk_file_entry_s@@V?$allocator@Usk_file_entry_s@@@std@@@std@@ABEII@Z
_TEXT	SEGMENT
__Newsize$ = 8						; size = 4
?_Calculate_growth@?$vector@Usk_file_entry_s@@V?$allocator@Usk_file_entry_s@@@std@@@std@@ABEII@Z PROC ; std::vector<sk_file_entry_s,std::allocator<sk_file_entry_s> >::_Calculate_growth, COMDAT
; _this$ = ecx

; 1889 : 		{	// given _Oldcapacity and _Newsize, calculate geometric growth

	npad	2
	push	ebp
	mov	ebp, esp

; 1720 : 		return (this->_Myend() - this->_Myfirst());

	mov	edx, DWORD PTR [ecx+8]
	mov	eax, 1717986919				; 66666667H
	sub	edx, DWORD PTR [ecx]
	imul	edx

; 1890 : 		const size_type _Oldcapacity = capacity();
; 1891 : 
; 1892 : 		if (_Oldcapacity > max_size() - _Oldcapacity / 2)

	mov	eax, 107374182				; 06666666H

; 1720 : 		return (this->_Myend() - this->_Myfirst());

	sar	edx, 4
	mov	ecx, edx
	shr	ecx, 31					; 0000001fH
	add	ecx, edx

; 1890 : 		const size_type _Oldcapacity = capacity();
; 1891 : 
; 1892 : 		if (_Oldcapacity > max_size() - _Oldcapacity / 2)

	mov	edx, ecx
	shr	edx, 1
	sub	eax, edx
	cmp	ecx, eax
	jbe	SHORT $LN2@Calculate_

; 1893 : 			{
; 1894 : 			return (_Newsize);	// geometric growth would overflow

	mov	eax, DWORD PTR __Newsize$[ebp]

; 1900 : 			{
; 1901 : 			return (_Newsize);	// geometric growth would be insufficient
; 1902 : 			}
; 1903 : 
; 1904 : 		return (_Geometric);	// geometric growth is sufficient
; 1905 : 		}

	pop	ebp
	ret	4
$LN2@Calculate_:

; 1895 : 			}
; 1896 : 
; 1897 : 		const size_type _Geometric = _Oldcapacity + _Oldcapacity / 2;

	lea	eax, DWORD PTR [edx+ecx]

; 1898 : 
; 1899 : 		if (_Geometric < _Newsize)

	cmp	eax, DWORD PTR __Newsize$[ebp]
	cmovb	eax, DWORD PTR __Newsize$[ebp]

; 1900 : 			{
; 1901 : 			return (_Newsize);	// geometric growth would be insufficient
; 1902 : 			}
; 1903 : 
; 1904 : 		return (_Geometric);	// geometric growth is sufficient
; 1905 : 		}

	pop	ebp
	ret	4
?_Calculate_growth@?$vector@Usk_file_entry_s@@V?$allocator@Usk_file_entry_s@@@std@@@std@@ABEII@Z ENDP ; std::vector<sk_file_entry_s,std::allocator<sk_file_entry_s> >::_Calculate_growth
_TEXT	ENDS
; Function compile flags: /Ogtp
; File c:\program files (x86)\microsoft visual studio\2017\community\vc\tools\msvc\14.10.25017\include\vector
; File c:\program files (x86)\microsoft visual studio\2017\community\vc\tools\msvc\14.10.25017\include\xmemory0
; File c:\program files (x86)\microsoft visual studio\2017\community\vc\tools\msvc\14.10.25017\include\vector
;	COMDAT ?_Destroy@?$vector@Usk_file_entry_s@@V?$allocator@Usk_file_entry_s@@@std@@@std@@AAEXPAUsk_file_entry_s@@0@Z
_TEXT	SEGMENT
__First$ = 8						; size = 4
$T1 = 12						; size = 1
__Last$ = 12						; size = 4
?_Destroy@?$vector@Usk_file_entry_s@@V?$allocator@Usk_file_entry_s@@@std@@@std@@AAEXPAUsk_file_entry_s@@0@Z PROC ; std::vector<sk_file_entry_s,std::allocator<sk_file_entry_s> >::_Destroy, COMDAT
; _this$ = ecx

; 1884 : 		{	// destroy [_First, _Last) using allocator

	npad	2
	push	ebp
	mov	ebp, esp
; File c:\program files (x86)\microsoft visual studio\2017\community\vc\tools\msvc\14.10.25017\include\xmemory0

; 1218 : 	_Destroy_range1(_First, _Last, _Al, _Conjunction_t<

	push	DWORD PTR $T1[ebp]
	push	ecx
	push	DWORD PTR __Last$[ebp]
	push	DWORD PTR __First$[ebp]
	call	??$_Destroy_range1@V?$allocator@Usk_file_entry_s@@@std@@PAUsk_file_entry_s@@@std@@YAXPAUsk_file_entry_s@@0AAU?$_Wrap_alloc@V?$allocator@Usk_file_entry_s@@@std@@@0@U?$integral_constant@_N$0A@@0@@Z ; std::_Destroy_range1<std::allocator<sk_file_entry_s>,sk_file_entry_s *>
	add	esp, 16					; 00000010H
; File c:\program files (x86)\microsoft visual studio\2017\community\vc\tools\msvc\14.10.25017\include\vector

; 1886 : 		}

	pop	ebp
	ret	8
?_Destroy@?$vector@Usk_file_entry_s@@V?$allocator@Usk_file_entry_s@@@std@@@std@@AAEXPAUsk_file_entry_s@@0@Z ENDP ; std::vector<sk_file_entry_s,std::allocator<sk_file_entry_s> >::_Destroy
_TEXT	ENDS
; Function compile flags: /Ogtp
; File c:\program files (x86)\microsoft visual studio\2017\community\vc\tools\msvc\14.10.25017\include\vector
; File c:\program files (x86)\microsoft visual studio\2017\community\vc\tools\msvc\14.10.25017\include\xmemory
; File c:\program files (x86)\microsoft visual studio\2017\community\vc\tools\msvc\14.10.25017\include\xutility
; File c:\program files (x86)\microsoft visual studio\2017\community\vc\tools\msvc\14.10.25017\include\xmemory
; File c:\program files (x86)\microsoft visual studio\2017\community\vc\tools\msvc\14.10.25017\include\vector
;	COMDAT ?_Umove_if_noexcept@?$vector@Usk_file_entry_s@@V?$allocator@Usk_file_entry_s@@@std@@@std@@AAEXPAUsk_file_entry_s@@00@Z
_TEXT	SEGMENT
$T1 = -4						; size = 1
__First$ = 8						; size = 4
__Last$ = 12						; size = 4
__Dest$ = 16						; size = 4
?_Umove_if_noexcept@?$vector@Usk_file_entry_s@@V?$allocator@Usk_file_entry_s@@@std@@@std@@AAEXPAUsk_file_entry_s@@00@Z PROC ; std::vector<sk_file_entry_s,std::allocator<sk_file_entry_s> >::_Umove_if_noexcept, COMDAT
; _this$ = ecx

; 1878 : 		{	// move_if_noexcept [_First, _Last) to raw _Dest, using allocator

	npad	2
	push	ebp
	mov	ebp, esp
	sub	esp, 8
; File c:\program files (x86)\microsoft visual studio\2017\community\vc\tools\msvc\14.10.25017\include\xmemory

; 172  : 	return (_Rechecked(_Dest,

	push	ecx
; File c:\program files (x86)\microsoft visual studio\2017\community\vc\tools\msvc\14.10.25017\include\xutility

; 893  : 	return {};

	mov	BYTE PTR $T1[ebp], 0
; File c:\program files (x86)\microsoft visual studio\2017\community\vc\tools\msvc\14.10.25017\include\xmemory

; 172  : 	return (_Rechecked(_Dest,

	push	DWORD PTR $T1[ebp]
	push	ecx
	push	DWORD PTR __Dest$[ebp]
	push	DWORD PTR __Last$[ebp]
	push	DWORD PTR __First$[ebp]
	call	??$_Uninitialized_move_al_unchecked@PAUsk_file_entry_s@@PAU1@V?$allocator@Usk_file_entry_s@@@std@@@std@@YAPAUsk_file_entry_s@@PAU1@00AAU?$_Wrap_alloc@V?$allocator@Usk_file_entry_s@@@std@@@0@U_General_ptr_iterator_tag@0@U_Any_tag@0@@Z ; std::_Uninitialized_move_al_unchecked<sk_file_entry_s *,sk_file_entry_s *,std::allocator<sk_file_entry_s> >
	add	esp, 24					; 00000018H
; File c:\program files (x86)\microsoft visual studio\2017\community\vc\tools\msvc\14.10.25017\include\vector

; 1881 : 		}

	mov	esp, ebp
	pop	ebp
	ret	12					; 0000000cH
?_Umove_if_noexcept@?$vector@Usk_file_entry_s@@V?$allocator@Usk_file_entry_s@@@std@@@std@@AAEXPAUsk_file_entry_s@@00@Z ENDP ; std::vector<sk_file_entry_s,std::allocator<sk_file_entry_s> >::_Umove_if_noexcept
_TEXT	ENDS
; Function compile flags: /Ogtp
; File c:\program files (x86)\microsoft visual studio\2017\community\vc\tools\msvc\14.10.25017\include\vector
; File c:\program files (x86)\microsoft visual studio\2017\community\vc\tools\msvc\14.10.25017\include\xmemory
; File c:\program files (x86)\microsoft visual studio\2017\community\vc\tools\msvc\14.10.25017\include\xutility
; File c:\program files (x86)\microsoft visual studio\2017\community\vc\tools\msvc\14.10.25017\include\xmemory
; File c:\program files (x86)\microsoft visual studio\2017\community\vc\tools\msvc\14.10.25017\include\vector
;	COMDAT ?_Umove_if_noexcept1@?$vector@Usk_file_entry_s@@V?$allocator@Usk_file_entry_s@@@std@@@std@@AAEXPAUsk_file_entry_s@@00U?$integral_constant@_N$00@2@@Z
_TEXT	SEGMENT
$T1 = -4						; size = 1
__First$ = 8						; size = 4
__Last$ = 12						; size = 4
__Dest$ = 16						; size = 4
___formal$ = 20						; size = 1
?_Umove_if_noexcept1@?$vector@Usk_file_entry_s@@V?$allocator@Usk_file_entry_s@@@std@@@std@@AAEXPAUsk_file_entry_s@@00U?$integral_constant@_N$00@2@@Z PROC ; std::vector<sk_file_entry_s,std::allocator<sk_file_entry_s> >::_Umove_if_noexcept1, COMDAT
; _this$ = ecx

; 1868 : 		{	// move [_First, _Last) to raw _Dest, using allocator

	npad	2
	push	ebp
	mov	ebp, esp
	sub	esp, 8
; File c:\program files (x86)\microsoft visual studio\2017\community\vc\tools\msvc\14.10.25017\include\xmemory

; 172  : 	return (_Rechecked(_Dest,

	push	ecx
; File c:\program files (x86)\microsoft visual studio\2017\community\vc\tools\msvc\14.10.25017\include\xutility

; 893  : 	return {};

	mov	BYTE PTR $T1[ebp], 0
; File c:\program files (x86)\microsoft visual studio\2017\community\vc\tools\msvc\14.10.25017\include\xmemory

; 172  : 	return (_Rechecked(_Dest,

	push	DWORD PTR $T1[ebp]
	push	ecx
	push	DWORD PTR __Dest$[ebp]
	push	DWORD PTR __Last$[ebp]
	push	DWORD PTR __First$[ebp]
	call	??$_Uninitialized_move_al_unchecked@PAUsk_file_entry_s@@PAU1@V?$allocator@Usk_file_entry_s@@@std@@@std@@YAPAUsk_file_entry_s@@PAU1@00AAU?$_Wrap_alloc@V?$allocator@Usk_file_entry_s@@@std@@@0@U_General_ptr_iterator_tag@0@U_Any_tag@0@@Z ; std::_Uninitialized_move_al_unchecked<sk_file_entry_s *,sk_file_entry_s *,std::allocator<sk_file_entry_s> >
	add	esp, 24					; 00000018H
; File c:\program files (x86)\microsoft visual studio\2017\community\vc\tools\msvc\14.10.25017\include\vector

; 1870 : 		}

	mov	esp, ebp
	pop	ebp
	ret	16					; 00000010H
?_Umove_if_noexcept1@?$vector@Usk_file_entry_s@@V?$allocator@Usk_file_entry_s@@@std@@@std@@AAEXPAUsk_file_entry_s@@00U?$integral_constant@_N$00@2@@Z ENDP ; std::vector<sk_file_entry_s,std::allocator<sk_file_entry_s> >::_Umove_if_noexcept1
_TEXT	ENDS
; Function compile flags: /Ogtp
; File c:\program files (x86)\microsoft visual studio\2017\community\vc\tools\msvc\14.10.25017\include\vector
;	COMDAT ??A?$vector@Usk_file_entry_s@@V?$allocator@Usk_file_entry_s@@@std@@@std@@QAEAAUsk_file_entry_s@@I@Z
_TEXT	SEGMENT
__Pos$ = 8						; size = 4
??A?$vector@Usk_file_entry_s@@V?$allocator@Usk_file_entry_s@@@std@@@std@@QAEAAUsk_file_entry_s@@I@Z PROC ; std::vector<sk_file_entry_s,std::allocator<sk_file_entry_s> >::operator[], COMDAT
; _this$ = ecx

; 1736 : 		{	// subscript mutable sequence

	npad	2
	push	ebp
	mov	ebp, esp

; 1737 :  #if _ITERATOR_DEBUG_LEVEL == 2
; 1738 : 		if (size() <= _Pos)
; 1739 : 			{	// report error
; 1740 : 			_DEBUG_ERROR("vector subscript out of range");
; 1741 : 			}
; 1742 :  #elif _ITERATOR_DEBUG_LEVEL == 1
; 1743 : 		_SCL_SECURE_VALIDATE_RANGE(_Pos < size());
; 1744 :  #endif /* _ITERATOR_DEBUG_LEVEL */
; 1745 : 
; 1746 : 		return (this->_Myfirst()[_Pos]);

	mov	eax, DWORD PTR __Pos$[ebp]
	lea	edx, DWORD PTR [eax+eax*4]
	mov	eax, DWORD PTR [ecx]
	lea	eax, DWORD PTR [eax+edx*8]

; 1747 : 		}

	pop	ebp
	ret	4
??A?$vector@Usk_file_entry_s@@V?$allocator@Usk_file_entry_s@@@std@@@std@@QAEAAUsk_file_entry_s@@I@Z ENDP ; std::vector<sk_file_entry_s,std::allocator<sk_file_entry_s> >::operator[]
_TEXT	ENDS
; Function compile flags: /Ogtp
; File c:\program files (x86)\microsoft visual studio\2017\community\vc\tools\msvc\14.10.25017\include\vector
;	COMDAT ?_Has_unused_capacity@?$vector@Usk_file_entry_s@@V?$allocator@Usk_file_entry_s@@@std@@@std@@ABE_NXZ
_TEXT	SEGMENT
?_Has_unused_capacity@?$vector@Usk_file_entry_s@@V?$allocator@Usk_file_entry_s@@@std@@@std@@ABE_NXZ PROC ; std::vector<sk_file_entry_s,std::allocator<sk_file_entry_s> >::_Has_unused_capacity, COMDAT
; _this$ = ecx

; 1730 : 		{	// micro-optimization for capacity() != size()

	mov	eax, DWORD PTR [ecx+8]
	cmp	eax, DWORD PTR [ecx+4]
	setne	al

; 1731 : 		return (this->_Myend() != this->_Mylast());
; 1732 : 		}

	ret	0
?_Has_unused_capacity@?$vector@Usk_file_entry_s@@V?$allocator@Usk_file_entry_s@@@std@@@std@@ABE_NXZ ENDP ; std::vector<sk_file_entry_s,std::allocator<sk_file_entry_s> >::_Has_unused_capacity
_TEXT	ENDS
; Function compile flags: /Ogtp
; File c:\program files (x86)\microsoft visual studio\2017\community\vc\tools\msvc\14.10.25017\include\vector
;	COMDAT ?capacity@?$vector@Usk_file_entry_s@@V?$allocator@Usk_file_entry_s@@@std@@@std@@QBEIXZ
_TEXT	SEGMENT
?capacity@?$vector@Usk_file_entry_s@@V?$allocator@Usk_file_entry_s@@@std@@@std@@QBEIXZ PROC ; std::vector<sk_file_entry_s,std::allocator<sk_file_entry_s> >::capacity, COMDAT
; _this$ = ecx

; 1720 : 		return (this->_Myend() - this->_Myfirst());

	mov	edx, DWORD PTR [ecx+8]
	mov	eax, 1717986919				; 66666667H
	sub	edx, DWORD PTR [ecx]
	imul	edx
	sar	edx, 4
	mov	eax, edx
	shr	eax, 31					; 0000001fH
	add	eax, edx

; 1721 : 		}

	ret	0
?capacity@?$vector@Usk_file_entry_s@@V?$allocator@Usk_file_entry_s@@@std@@@std@@QBEIXZ ENDP ; std::vector<sk_file_entry_s,std::allocator<sk_file_entry_s> >::capacity
_TEXT	ENDS
; Function compile flags: /Ogtp
; File c:\program files (x86)\microsoft visual studio\2017\community\vc\tools\msvc\14.10.25017\include\vector
;	COMDAT ?max_size@?$vector@Usk_file_entry_s@@V?$allocator@Usk_file_entry_s@@@std@@@std@@QBEIXZ
_TEXT	SEGMENT
?max_size@?$vector@Usk_file_entry_s@@V?$allocator@Usk_file_entry_s@@@std@@@std@@QBEIXZ PROC ; std::vector<sk_file_entry_s,std::allocator<sk_file_entry_s> >::max_size, COMDAT
; _this$ = ecx

; 1715 : 		return (this->_Getal().max_size());

	mov	eax, 107374182				; 06666666H

; 1716 : 		}

	ret	0
?max_size@?$vector@Usk_file_entry_s@@V?$allocator@Usk_file_entry_s@@@std@@@std@@QBEIXZ ENDP ; std::vector<sk_file_entry_s,std::allocator<sk_file_entry_s> >::max_size
_TEXT	ENDS
; Function compile flags: /Ogtp
; File c:\program files (x86)\microsoft visual studio\2017\community\vc\tools\msvc\14.10.25017\include\vector
;	COMDAT ?size@?$vector@Usk_file_entry_s@@V?$allocator@Usk_file_entry_s@@@std@@@std@@QBEIXZ
_TEXT	SEGMENT
?size@?$vector@Usk_file_entry_s@@V?$allocator@Usk_file_entry_s@@@std@@@std@@QBEIXZ PROC ; std::vector<sk_file_entry_s,std::allocator<sk_file_entry_s> >::size, COMDAT
; _this$ = ecx

; 1710 : 		return (this->_Mylast() - this->_Myfirst());

	mov	edx, DWORD PTR [ecx+4]
	mov	eax, 1717986919				; 66666667H
	sub	edx, DWORD PTR [ecx]
	imul	edx
	sar	edx, 4
	mov	eax, edx
	shr	eax, 31					; 0000001fH
	add	eax, edx

; 1711 : 		}

	ret	0
?size@?$vector@Usk_file_entry_s@@V?$allocator@Usk_file_entry_s@@@std@@@std@@QBEIXZ ENDP ; std::vector<sk_file_entry_s,std::allocator<sk_file_entry_s> >::size
_TEXT	ENDS
; Function compile flags: /Ogtp
; File c:\program files (x86)\microsoft visual studio\2017\community\vc\tools\msvc\14.10.25017\include\vector
;	COMDAT ?end@?$vector@Usk_file_entry_s@@V?$allocator@Usk_file_entry_s@@@std@@@std@@QAE?AV?$_Vector_iterator@V?$_Vector_val@U?$_Simple_types@Usk_file_entry_s@@@std@@@std@@@2@XZ
_TEXT	SEGMENT
___$ReturnUdt$ = 8					; size = 4
?end@?$vector@Usk_file_entry_s@@V?$allocator@Usk_file_entry_s@@@std@@@std@@QAE?AV?$_Vector_iterator@V?$_Vector_val@U?$_Simple_types@Usk_file_entry_s@@@std@@@std@@@2@XZ PROC ; std::vector<sk_file_entry_s,std::allocator<sk_file_entry_s> >::end, COMDAT
; _this$ = ecx

; 1654 : 		{	// return iterator for end of mutable sequence

	npad	2
	push	ebp
	mov	ebp, esp

; 42   : 		: _Ptr(_Parg)

	mov	eax, DWORD PTR ___$ReturnUdt$[ebp]
	mov	ecx, DWORD PTR [ecx+4]
	mov	DWORD PTR [eax], ecx

; 1655 : 		return (iterator(this->_Mylast(), _STD addressof(this->_Get_data())));
; 1656 : 		}

	pop	ebp
	ret	4
?end@?$vector@Usk_file_entry_s@@V?$allocator@Usk_file_entry_s@@@std@@@std@@QAE?AV?$_Vector_iterator@V?$_Vector_val@U?$_Simple_types@Usk_file_entry_s@@@std@@@std@@@2@XZ ENDP ; std::vector<sk_file_entry_s,std::allocator<sk_file_entry_s> >::end
_TEXT	ENDS
; Function compile flags: /Ogtp
; File c:\program files (x86)\microsoft visual studio\2017\community\vc\tools\msvc\14.10.25017\include\vector
;	COMDAT ?begin@?$vector@Usk_file_entry_s@@V?$allocator@Usk_file_entry_s@@@std@@@std@@QAE?AV?$_Vector_iterator@V?$_Vector_val@U?$_Simple_types@Usk_file_entry_s@@@std@@@std@@@2@XZ
_TEXT	SEGMENT
___$ReturnUdt$ = 8					; size = 4
?begin@?$vector@Usk_file_entry_s@@V?$allocator@Usk_file_entry_s@@@std@@@std@@QAE?AV?$_Vector_iterator@V?$_Vector_val@U?$_Simple_types@Usk_file_entry_s@@@std@@@std@@@2@XZ PROC ; std::vector<sk_file_entry_s,std::allocator<sk_file_entry_s> >::begin, COMDAT
; _this$ = ecx

; 1644 : 		{	// return iterator for beginning of mutable sequence

	npad	2
	push	ebp
	mov	ebp, esp

; 42   : 		: _Ptr(_Parg)

	mov	eax, DWORD PTR ___$ReturnUdt$[ebp]
	mov	ecx, DWORD PTR [ecx]
	mov	DWORD PTR [eax], ecx

; 1645 : 		return (iterator(this->_Myfirst(), _STD addressof(this->_Get_data())));
; 1646 : 		}

	pop	ebp
	ret	4
?begin@?$vector@Usk_file_entry_s@@V?$allocator@Usk_file_entry_s@@@std@@@std@@QAE?AV?$_Vector_iterator@V?$_Vector_val@U?$_Simple_types@Usk_file_entry_s@@@std@@@std@@@2@XZ ENDP ; std::vector<sk_file_entry_s,std::allocator<sk_file_entry_s> >::begin
_TEXT	ENDS
; Function compile flags: /Ogtp
; File c:\program files (x86)\microsoft visual studio\2017\community\vc\tools\msvc\14.10.25017\include\vector
; File c:\program files (x86)\microsoft visual studio\2017\community\vc\tools\msvc\14.10.25017\include\xutility
; File c:\program files (x86)\microsoft visual studio\2017\community\vc\tools\msvc\14.10.25017\include\vector
; File c:\program files (x86)\microsoft visual studio\2017\community\vc\tools\msvc\14.10.25017\include\xutility
; File c:\program files (x86)\microsoft visual studio\2017\community\vc\tools\msvc\14.10.25017\include\vector
; File c:\program files (x86)\microsoft visual studio\2017\community\vc\tools\msvc\14.10.25017\include\xutility
; File c:\program files (x86)\microsoft visual studio\2017\community\vc\tools\msvc\14.10.25017\include\vector
; File c:\program files (x86)\microsoft visual studio\2017\community\vc\tools\msvc\14.10.25017\include\xutility
; File c:\program files (x86)\microsoft visual studio\2017\community\vc\tools\msvc\14.10.25017\include\xstring
; File c:\program files (x86)\microsoft visual studio\2017\community\vc\tools\msvc\14.10.25017\include\xmemory0
; File c:\program files (x86)\microsoft visual studio\2017\community\vc\tools\msvc\14.10.25017\include\xstring
; File c:\program files (x86)\microsoft visual studio\2017\community\vc\tools\msvc\14.10.25017\include\xmemory0
; File c:\program files (x86)\microsoft visual studio\2017\community\vc\tools\msvc\14.10.25017\include\xstring
; File c:\program files (x86)\microsoft visual studio\2017\community\vc\tools\msvc\14.10.25017\include\iosfwd
; File c:\program files (x86)\microsoft visual studio\2017\community\vc\tools\msvc\14.10.25017\include\xstring
; File c:\program files (x86)\microsoft visual studio\2017\community\vc\tools\msvc\14.10.25017\include\iosfwd
; File c:\program files (x86)\microsoft visual studio\2017\community\vc\tools\msvc\14.10.25017\include\vector
;	COMDAT ?erase@?$vector@Usk_file_entry_s@@V?$allocator@Usk_file_entry_s@@@std@@@std@@QAE?AV?$_Vector_iterator@V?$_Vector_val@U?$_Simple_types@Usk_file_entry_s@@@std@@@std@@@2@V?$_Vector_const_iterator@V?$_Vector_val@U?$_Simple_types@Usk_file_entry_s@@@std@@@std@@@2@@Z
_TEXT	SEGMENT
$T1 = -4						; size = 1
___$ReturnUdt$ = 8					; size = 4
__Where$ = 12						; size = 4
?erase@?$vector@Usk_file_entry_s@@V?$allocator@Usk_file_entry_s@@@std@@@std@@QAE?AV?$_Vector_iterator@V?$_Vector_val@U?$_Simple_types@Usk_file_entry_s@@@std@@@std@@@2@V?$_Vector_const_iterator@V?$_Vector_val@U?$_Simple_types@Usk_file_entry_s@@@std@@@std@@@2@@Z PROC ; std::vector<sk_file_entry_s,std::allocator<sk_file_entry_s> >::erase, COMDAT
; _this$ = ecx

; 1571 : 		{	// erase element at _Where

	npad	2
	push	ebp
	mov	ebp, esp
	push	ecx
; File c:\program files (x86)\microsoft visual studio\2017\community\vc\tools\msvc\14.10.25017\include\xutility

; 2552 : 	return (_Move_unchecked1(_First, _Last,

	mov	eax, DWORD PTR __Where$[ebp]
	push	esi
	push	edi
; File c:\program files (x86)\microsoft visual studio\2017\community\vc\tools\msvc\14.10.25017\include\vector

; 1571 : 		{	// erase element at _Where

	mov	edi, ecx
; File c:\program files (x86)\microsoft visual studio\2017\community\vc\tools\msvc\14.10.25017\include\xutility

; 893  : 	return {};

	mov	BYTE PTR $T1[ebp], 0

; 2552 : 	return (_Move_unchecked1(_First, _Last,

	push	DWORD PTR $T1[ebp]
	push	eax
	push	DWORD PTR [edi+4]
; File c:\program files (x86)\microsoft visual studio\2017\community\vc\tools\msvc\14.10.25017\include\vector

; 1583 : 		_Move_unchecked(_Where._Ptr + 1, this->_Mylast(), _Where._Ptr);

	add	eax, 40					; 00000028H
; File c:\program files (x86)\microsoft visual studio\2017\community\vc\tools\msvc\14.10.25017\include\xutility

; 2552 : 	return (_Move_unchecked1(_First, _Last,

	push	eax
	call	??$_Move_unchecked1@PAUsk_file_entry_s@@PAU1@@std@@YAPAUsk_file_entry_s@@PAU1@00U_General_ptr_iterator_tag@0@@Z ; std::_Move_unchecked1<sk_file_entry_s *,sk_file_entry_s *>
; File c:\program files (x86)\microsoft visual studio\2017\community\vc\tools\msvc\14.10.25017\include\vector

; 1584 : 		this->_Getal().destroy(_Unfancy(this->_Mylast() - 1));

	mov	esi, DWORD PTR [edi+4]
; File c:\program files (x86)\microsoft visual studio\2017\community\vc\tools\msvc\14.10.25017\include\xutility

; 2552 : 	return (_Move_unchecked1(_First, _Last,

	add	esp, 16					; 00000010H
; File c:\program files (x86)\microsoft visual studio\2017\community\vc\tools\msvc\14.10.25017\include\xstring

; 1628 : 		return (this->_BUF_SIZE <= _Myres);

	mov	eax, DWORD PTR [esi-4]
	cmp	eax, 8

; 3608 : 		if (_My_data._Large_string_engaged())

	jb	SHORT $LN50@erase
; File c:\program files (x86)\microsoft visual studio\2017\community\vc\tools\msvc\14.10.25017\include\xmemory0

; 823  : 		_Deallocate(_Ptr, _Count, sizeof (_Ty));

	push	2
; File c:\program files (x86)\microsoft visual studio\2017\community\vc\tools\msvc\14.10.25017\include\xstring

; 3613 : 			_Al.deallocate(_Ptr, _My_data._Myres + 1);

	inc	eax
; File c:\program files (x86)\microsoft visual studio\2017\community\vc\tools\msvc\14.10.25017\include\xmemory0

; 823  : 		_Deallocate(_Ptr, _Count, sizeof (_Ty));

	push	eax
	push	DWORD PTR [esi-24]
	call	?_Deallocate@std@@YAXPAXII@Z		; std::_Deallocate
	add	esp, 12					; 0000000cH
$LN50@erase:
; File c:\program files (x86)\microsoft visual studio\2017\community\vc\tools\msvc\14.10.25017\include\xstring

; 3616 : 		_My_data._Mysize = 0;

	mov	DWORD PTR [esi-8], 0
; File c:\program files (x86)\microsoft visual studio\2017\community\vc\tools\msvc\14.10.25017\include\iosfwd

; 326  : 		_Left = _Right;

	xor	eax, eax
; File c:\program files (x86)\microsoft visual studio\2017\community\vc\tools\msvc\14.10.25017\include\xstring

; 3617 : 		_My_data._Myres = this->_BUF_SIZE - 1;

	mov	DWORD PTR [esi-4], 7
; File c:\program files (x86)\microsoft visual studio\2017\community\vc\tools\msvc\14.10.25017\include\iosfwd

; 326  : 		_Left = _Right;

	mov	WORD PTR [esi-24], ax
; File c:\program files (x86)\microsoft visual studio\2017\community\vc\tools\msvc\14.10.25017\include\vector

; 42   : 		: _Ptr(_Parg)

	mov	eax, DWORD PTR ___$ReturnUdt$[ebp]

; 1585 : 		--this->_Mylast();

	add	DWORD PTR [edi+4], -40			; ffffffd8H

; 42   : 		: _Ptr(_Parg)

	mov	ecx, DWORD PTR __Where$[ebp]
	pop	edi
	mov	DWORD PTR [eax], ecx
	pop	esi

; 1586 : 		return (iterator(_Where._Ptr, _STD addressof(this->_Get_data())));
; 1587 : 		}

	mov	esp, ebp
	pop	ebp
	ret	8
?erase@?$vector@Usk_file_entry_s@@V?$allocator@Usk_file_entry_s@@@std@@@std@@QAE?AV?$_Vector_iterator@V?$_Vector_val@U?$_Simple_types@Usk_file_entry_s@@@std@@@std@@@2@V?$_Vector_const_iterator@V?$_Vector_val@U?$_Simple_types@Usk_file_entry_s@@@std@@@std@@@2@@Z ENDP ; std::vector<sk_file_entry_s,std::allocator<sk_file_entry_s> >::erase
_TEXT	ENDS
; Function compile flags: /Ogtp
; File c:\program files (x86)\microsoft visual studio\2017\community\vc\tools\msvc\14.10.25017\include\vector
;	COMDAT ?push_back@?$vector@Usk_file_entry_s@@V?$allocator@Usk_file_entry_s@@@std@@@std@@QAEX$$QAUsk_file_entry_s@@@Z
_TEXT	SEGMENT
__Val$ = 8						; size = 4
?push_back@?$vector@Usk_file_entry_s@@V?$allocator@Usk_file_entry_s@@@std@@@std@@QAEX$$QAUsk_file_entry_s@@@Z PROC ; std::vector<sk_file_entry_s,std::allocator<sk_file_entry_s> >::push_back, COMDAT
; _this$ = ecx

; 951  : 		{	// insert by moving into element at end, provide strong guarantee

	npad	2
	push	ebp
	mov	ebp, esp

; 953  : 		}

	pop	ebp

; 952  : 		emplace_back(_STD move(_Val));

	jmp	??$emplace_back@Usk_file_entry_s@@@?$vector@Usk_file_entry_s@@V?$allocator@Usk_file_entry_s@@@std@@@std@@QAEX$$QAUsk_file_entry_s@@@Z ; std::vector<sk_file_entry_s,std::allocator<sk_file_entry_s> >::emplace_back<sk_file_entry_s>
?push_back@?$vector@Usk_file_entry_s@@V?$allocator@Usk_file_entry_s@@@std@@@std@@QAEX$$QAUsk_file_entry_s@@@Z ENDP ; std::vector<sk_file_entry_s,std::allocator<sk_file_entry_s> >::push_back
_TEXT	ENDS
; Function compile flags: /Ogtp
; File c:\program files (x86)\microsoft visual studio\2017\community\vc\tools\msvc\14.10.25017\include\vector
; File c:\program files (x86)\microsoft visual studio\2017\community\vc\tools\msvc\14.10.25017\include\xmemory0
; File c:\program files (x86)\microsoft visual studio\2017\community\vc\tools\msvc\14.10.25017\include\vector
; File c:\program files (x86)\microsoft visual studio\2017\community\vc\tools\msvc\14.10.25017\include\xmemory0
; File c:\program files (x86)\microsoft visual studio\2017\community\vc\tools\msvc\14.10.25017\include\vector
; File c:\program files (x86)\microsoft visual studio\2017\community\vc\tools\msvc\14.10.25017\include\xmemory0
; File c:\program files (x86)\microsoft visual studio\2017\community\vc\tools\msvc\14.10.25017\include\vector
; File c:\program files (x86)\microsoft visual studio\2017\community\vc\tools\msvc\14.10.25017\include\xmemory0
; File c:\program files (x86)\microsoft visual studio\2017\community\vc\tools\msvc\14.10.25017\include\vector
;	COMDAT ??1?$vector@Usk_file_entry_s@@V?$allocator@Usk_file_entry_s@@@std@@@std@@QAE@XZ
_TEXT	SEGMENT
$T1 = -4						; size = 1
??1?$vector@Usk_file_entry_s@@V?$allocator@Usk_file_entry_s@@@std@@@std@@QAE@XZ PROC ; std::vector<sk_file_entry_s,std::allocator<sk_file_entry_s> >::~vector<sk_file_entry_s,std::allocator<sk_file_entry_s> >, COMDAT
; _this$ = ecx

; 891  : 		{	// destroy the object

	npad	2
	push	ebp
	mov	ebp, esp
	push	ecx
	push	edi
	mov	edi, ecx

; 1949 : 		if (this->_Myfirst() != pointer())

	mov	eax, DWORD PTR [edi]
	test	eax, eax
	je	SHORT $LN4@vector
; File c:\program files (x86)\microsoft visual studio\2017\community\vc\tools\msvc\14.10.25017\include\xmemory0

; 1218 : 	_Destroy_range1(_First, _Last, _Al, _Conjunction_t<

	push	DWORD PTR $T1[ebp]
	push	edi
	push	DWORD PTR [edi+4]
	push	eax
	call	??$_Destroy_range1@V?$allocator@Usk_file_entry_s@@@std@@PAUsk_file_entry_s@@@std@@YAXPAUsk_file_entry_s@@0AAU?$_Wrap_alloc@V?$allocator@Usk_file_entry_s@@@std@@@0@U?$integral_constant@_N$0A@@0@@Z ; std::_Destroy_range1<std::allocator<sk_file_entry_s>,sk_file_entry_s *>
; File c:\program files (x86)\microsoft visual studio\2017\community\vc\tools\msvc\14.10.25017\include\vector

; 1952 : 			this->_Getal().deallocate(this->_Myfirst(), this->_Myend() - this->_Myfirst());

	mov	ecx, DWORD PTR [edi+8]
	mov	eax, 1717986919				; 66666667H
	sub	ecx, DWORD PTR [edi]
	imul	ecx
; File c:\program files (x86)\microsoft visual studio\2017\community\vc\tools\msvc\14.10.25017\include\xmemory0

; 823  : 		_Deallocate(_Ptr, _Count, sizeof (_Ty));

	push	40					; 00000028H
; File c:\program files (x86)\microsoft visual studio\2017\community\vc\tools\msvc\14.10.25017\include\vector

; 1952 : 			this->_Getal().deallocate(this->_Myfirst(), this->_Myend() - this->_Myfirst());

	sar	edx, 4
	mov	eax, edx
	shr	eax, 31					; 0000001fH
	add	eax, edx
; File c:\program files (x86)\microsoft visual studio\2017\community\vc\tools\msvc\14.10.25017\include\xmemory0

; 823  : 		_Deallocate(_Ptr, _Count, sizeof (_Ty));

	push	eax
	push	DWORD PTR [edi]
	call	?_Deallocate@std@@YAXPAXII@Z		; std::_Deallocate
; File c:\program files (x86)\microsoft visual studio\2017\community\vc\tools\msvc\14.10.25017\include\vector

; 1954 : 			this->_Myfirst() = pointer();

	mov	DWORD PTR [edi], 0
; File c:\program files (x86)\microsoft visual studio\2017\community\vc\tools\msvc\14.10.25017\include\xmemory0

; 823  : 		_Deallocate(_Ptr, _Count, sizeof (_Ty));

	add	esp, 28					; 0000001cH
; File c:\program files (x86)\microsoft visual studio\2017\community\vc\tools\msvc\14.10.25017\include\vector

; 1955 : 			this->_Mylast() = pointer();

	mov	DWORD PTR [edi+4], 0

; 1956 : 			this->_Myend() = pointer();

	mov	DWORD PTR [edi+8], 0
$LN4@vector:
	pop	edi

; 892  : 		_Tidy();
; 893  : 		}

	mov	esp, ebp
	pop	ebp
	ret	0
??1?$vector@Usk_file_entry_s@@V?$allocator@Usk_file_entry_s@@@std@@@std@@QAE@XZ ENDP ; std::vector<sk_file_entry_s,std::allocator<sk_file_entry_s> >::~vector<sk_file_entry_s,std::allocator<sk_file_entry_s> >
_TEXT	ENDS
; Function compile flags: /Ogtp
; File c:\program files (x86)\microsoft visual studio\2017\community\vc\tools\msvc\14.10.25017\include\vector
;	COMDAT ??0?$vector@Usk_file_entry_s@@V?$allocator@Usk_file_entry_s@@@std@@@std@@QAE@$$QAV01@@Z
_TEXT	SEGMENT
__Right$ = 8						; size = 4
??0?$vector@Usk_file_entry_s@@V?$allocator@Usk_file_entry_s@@@std@@@std@@QAE@$$QAV01@@Z PROC ; std::vector<sk_file_entry_s,std::allocator<sk_file_entry_s> >::vector<sk_file_entry_s,std::allocator<sk_file_entry_s> >, COMDAT
; _this$ = ecx

; 860  : 		{	// construct by moving _Right

	npad	2
	push	ebp
	mov	ebp, esp

; 836  : 		this->_Myfirst() = _Right._Myfirst();

	mov	edx, DWORD PTR __Right$[ebp]

; 476  : 		: _Myfirst(),

	mov	DWORD PTR [ecx], 0

; 477  : 		_Mylast(),

	mov	DWORD PTR [ecx+4], 0

; 478  : 		_Myend()

	mov	DWORD PTR [ecx+8], 0

; 836  : 		this->_Myfirst() = _Right._Myfirst();

	mov	eax, DWORD PTR [edx]
	mov	DWORD PTR [ecx], eax

; 837  : 		this->_Mylast() = _Right._Mylast();

	mov	eax, DWORD PTR [edx+4]
	mov	DWORD PTR [ecx+4], eax

; 838  : 		this->_Myend() = _Right._Myend();

	mov	eax, DWORD PTR [edx+8]
	mov	DWORD PTR [ecx+8], eax

; 861  : 		_Move_from(_STD move(_Right), true_type{});
; 862  : 		}

	mov	eax, ecx

; 840  : 		_Right._Myfirst() = pointer();

	mov	DWORD PTR [edx], 0

; 841  : 		_Right._Mylast() = pointer();

	mov	DWORD PTR [edx+4], 0

; 842  : 		_Right._Myend() = pointer();

	mov	DWORD PTR [edx+8], 0

; 861  : 		_Move_from(_STD move(_Right), true_type{});
; 862  : 		}

	pop	ebp
	ret	4
??0?$vector@Usk_file_entry_s@@V?$allocator@Usk_file_entry_s@@@std@@@std@@QAE@$$QAV01@@Z ENDP ; std::vector<sk_file_entry_s,std::allocator<sk_file_entry_s> >::vector<sk_file_entry_s,std::allocator<sk_file_entry_s> >
_TEXT	ENDS
; Function compile flags: /Ogtp
; File c:\program files (x86)\microsoft visual studio\2017\community\vc\tools\msvc\14.10.25017\include\vector
;	COMDAT ?_Move_from@?$vector@Usk_file_entry_s@@V?$allocator@Usk_file_entry_s@@@std@@@std@@AAEX$$QAV12@U?$integral_constant@_N$00@2@@Z
_TEXT	SEGMENT
__Right$ = 8						; size = 4
___formal$ = 12						; size = 1
?_Move_from@?$vector@Usk_file_entry_s@@V?$allocator@Usk_file_entry_s@@@std@@@std@@AAEX$$QAV12@U?$integral_constant@_N$00@2@@Z PROC ; std::vector<sk_file_entry_s,std::allocator<sk_file_entry_s> >::_Move_from, COMDAT
; _this$ = ecx

; 833  : 		{	// move from _Right, stealing its contents

	npad	2
	push	ebp
	mov	ebp, esp

; 834  : 		this->_Swap_all(_Right);
; 835  : 
; 836  : 		this->_Myfirst() = _Right._Myfirst();

	mov	edx, DWORD PTR __Right$[ebp]
	mov	eax, DWORD PTR [edx]
	mov	DWORD PTR [ecx], eax

; 837  : 		this->_Mylast() = _Right._Mylast();

	mov	eax, DWORD PTR [edx+4]
	mov	DWORD PTR [ecx+4], eax

; 838  : 		this->_Myend() = _Right._Myend();

	mov	eax, DWORD PTR [edx+8]
	mov	DWORD PTR [ecx+8], eax

; 839  : 
; 840  : 		_Right._Myfirst() = pointer();

	mov	DWORD PTR [edx], 0

; 841  : 		_Right._Mylast() = pointer();

	mov	DWORD PTR [edx+4], 0

; 842  : 		_Right._Myend() = pointer();

	mov	DWORD PTR [edx+8], 0

; 843  : 		}

	pop	ebp
	ret	8
?_Move_from@?$vector@Usk_file_entry_s@@V?$allocator@Usk_file_entry_s@@@std@@@std@@AAEX$$QAV12@U?$integral_constant@_N$00@2@@Z ENDP ; std::vector<sk_file_entry_s,std::allocator<sk_file_entry_s> >::_Move_from
_TEXT	ENDS
; Function compile flags: /Ogtp
; File c:\program files (x86)\microsoft visual studio\2017\community\vc\tools\msvc\14.10.25017\include\vector
;	COMDAT ??0?$vector@Usk_file_entry_s@@V?$allocator@Usk_file_entry_s@@@std@@@std@@QAE@XZ
_TEXT	SEGMENT
??0?$vector@Usk_file_entry_s@@V?$allocator@Usk_file_entry_s@@@std@@@std@@QAE@XZ PROC ; std::vector<sk_file_entry_s,std::allocator<sk_file_entry_s> >::vector<sk_file_entry_s,std::allocator<sk_file_entry_s> >, COMDAT
; _this$ = ecx

; 476  : 		: _Myfirst(),

	mov	DWORD PTR [ecx], 0

; 723  : 		}

	mov	eax, ecx

; 477  : 		_Mylast(),

	mov	DWORD PTR [ecx+4], 0

; 478  : 		_Myend()

	mov	DWORD PTR [ecx+8], 0

; 723  : 		}

	ret	0
??0?$vector@Usk_file_entry_s@@V?$allocator@Usk_file_entry_s@@@std@@@std@@QAE@XZ ENDP ; std::vector<sk_file_entry_s,std::allocator<sk_file_entry_s> >::vector<sk_file_entry_s,std::allocator<sk_file_entry_s> >
_TEXT	ENDS
; Function compile flags: /Ogtp
; File c:\program files (x86)\microsoft visual studio\2017\community\vc\tools\msvc\14.10.25017\include\xutility
;	COMDAT ?_Get_second@?$_Compressed_pair@U?$_Wrap_alloc@V?$allocator@Usk_file_entry_s@@@std@@@std@@V?$_Vector_val@U?$_Simple_types@Usk_file_entry_s@@@std@@@2@$00@std@@QBEABV?$_Vector_val@U?$_Simple_types@Usk_file_entry_s@@@std@@@2@XZ
_TEXT	SEGMENT
?_Get_second@?$_Compressed_pair@U?$_Wrap_alloc@V?$allocator@Usk_file_entry_s@@@std@@@std@@V?$_Vector_val@U?$_Simple_types@Usk_file_entry_s@@@std@@@2@$00@std@@QBEABV?$_Vector_val@U?$_Simple_types@Usk_file_entry_s@@@std@@@2@XZ PROC ; std::_Compressed_pair<std::_Wrap_alloc<std::allocator<sk_file_entry_s> >,std::_Vector_val<std::_Simple_types<sk_file_entry_s> >,1>::_Get_second, COMDAT
; _this$ = ecx

; 343  : 		return (_Myval2);

	mov	eax, ecx

; 344  : 		}

	ret	0
?_Get_second@?$_Compressed_pair@U?$_Wrap_alloc@V?$allocator@Usk_file_entry_s@@@std@@@std@@V?$_Vector_val@U?$_Simple_types@Usk_file_entry_s@@@std@@@2@$00@std@@QBEABV?$_Vector_val@U?$_Simple_types@Usk_file_entry_s@@@std@@@2@XZ ENDP ; std::_Compressed_pair<std::_Wrap_alloc<std::allocator<sk_file_entry_s> >,std::_Vector_val<std::_Simple_types<sk_file_entry_s> >,1>::_Get_second
_TEXT	ENDS
; Function compile flags: /Ogtp
; File c:\program files (x86)\microsoft visual studio\2017\community\vc\tools\msvc\14.10.25017\include\xutility
;	COMDAT ?_Get_second@?$_Compressed_pair@U?$_Wrap_alloc@V?$allocator@Usk_file_entry_s@@@std@@@std@@V?$_Vector_val@U?$_Simple_types@Usk_file_entry_s@@@std@@@2@$00@std@@QAEAAV?$_Vector_val@U?$_Simple_types@Usk_file_entry_s@@@std@@@2@XZ
_TEXT	SEGMENT
?_Get_second@?$_Compressed_pair@U?$_Wrap_alloc@V?$allocator@Usk_file_entry_s@@@std@@@std@@V?$_Vector_val@U?$_Simple_types@Usk_file_entry_s@@@std@@@2@$00@std@@QAEAAV?$_Vector_val@U?$_Simple_types@Usk_file_entry_s@@@std@@@2@XZ PROC ; std::_Compressed_pair<std::_Wrap_alloc<std::allocator<sk_file_entry_s> >,std::_Vector_val<std::_Simple_types<sk_file_entry_s> >,1>::_Get_second, COMDAT
; _this$ = ecx

; 338  : 		return (_Myval2);

	mov	eax, ecx

; 339  : 		}

	ret	0
?_Get_second@?$_Compressed_pair@U?$_Wrap_alloc@V?$allocator@Usk_file_entry_s@@@std@@@std@@V?$_Vector_val@U?$_Simple_types@Usk_file_entry_s@@@std@@@2@$00@std@@QAEAAV?$_Vector_val@U?$_Simple_types@Usk_file_entry_s@@@std@@@2@XZ ENDP ; std::_Compressed_pair<std::_Wrap_alloc<std::allocator<sk_file_entry_s> >,std::_Vector_val<std::_Simple_types<sk_file_entry_s> >,1>::_Get_second
_TEXT	ENDS
; Function compile flags: /Ogtp
; File c:\program files (x86)\microsoft visual studio\2017\community\vc\tools\msvc\14.10.25017\include\xutility
;	COMDAT ?_Get_first@?$_Compressed_pair@U?$_Wrap_alloc@V?$allocator@Usk_file_entry_s@@@std@@@std@@V?$_Vector_val@U?$_Simple_types@Usk_file_entry_s@@@std@@@2@$00@std@@QBEABU?$_Wrap_alloc@V?$allocator@Usk_file_entry_s@@@std@@@2@XZ
_TEXT	SEGMENT
?_Get_first@?$_Compressed_pair@U?$_Wrap_alloc@V?$allocator@Usk_file_entry_s@@@std@@@std@@V?$_Vector_val@U?$_Simple_types@Usk_file_entry_s@@@std@@@2@$00@std@@QBEABU?$_Wrap_alloc@V?$allocator@Usk_file_entry_s@@@std@@@2@XZ PROC ; std::_Compressed_pair<std::_Wrap_alloc<std::allocator<sk_file_entry_s> >,std::_Vector_val<std::_Simple_types<sk_file_entry_s> >,1>::_Get_first, COMDAT
; _this$ = ecx

; 323  : 		return (*this);

	mov	eax, ecx

; 324  : 		}

	ret	0
?_Get_first@?$_Compressed_pair@U?$_Wrap_alloc@V?$allocator@Usk_file_entry_s@@@std@@@std@@V?$_Vector_val@U?$_Simple_types@Usk_file_entry_s@@@std@@@2@$00@std@@QBEABU?$_Wrap_alloc@V?$allocator@Usk_file_entry_s@@@std@@@2@XZ ENDP ; std::_Compressed_pair<std::_Wrap_alloc<std::allocator<sk_file_entry_s> >,std::_Vector_val<std::_Simple_types<sk_file_entry_s> >,1>::_Get_first
_TEXT	ENDS
; Function compile flags: /Ogtp
; File c:\program files (x86)\microsoft visual studio\2017\community\vc\tools\msvc\14.10.25017\include\xutility
;	COMDAT ?_Get_first@?$_Compressed_pair@U?$_Wrap_alloc@V?$allocator@Usk_file_entry_s@@@std@@@std@@V?$_Vector_val@U?$_Simple_types@Usk_file_entry_s@@@std@@@2@$00@std@@QAEAAU?$_Wrap_alloc@V?$allocator@Usk_file_entry_s@@@std@@@2@XZ
_TEXT	SEGMENT
?_Get_first@?$_Compressed_pair@U?$_Wrap_alloc@V?$allocator@Usk_file_entry_s@@@std@@@std@@V?$_Vector_val@U?$_Simple_types@Usk_file_entry_s@@@std@@@2@$00@std@@QAEAAU?$_Wrap_alloc@V?$allocator@Usk_file_entry_s@@@std@@@2@XZ PROC ; std::_Compressed_pair<std::_Wrap_alloc<std::allocator<sk_file_entry_s> >,std::_Vector_val<std::_Simple_types<sk_file_entry_s> >,1>::_Get_first, COMDAT
; _this$ = ecx

; 318  : 		return (*this);

	mov	eax, ecx

; 319  : 		}

	ret	0
?_Get_first@?$_Compressed_pair@U?$_Wrap_alloc@V?$allocator@Usk_file_entry_s@@@std@@@std@@V?$_Vector_val@U?$_Simple_types@Usk_file_entry_s@@@std@@@2@$00@std@@QAEAAU?$_Wrap_alloc@V?$allocator@Usk_file_entry_s@@@std@@@2@XZ ENDP ; std::_Compressed_pair<std::_Wrap_alloc<std::allocator<sk_file_entry_s> >,std::_Vector_val<std::_Simple_types<sk_file_entry_s> >,1>::_Get_first
_TEXT	ENDS
; Function compile flags: /Ogtp
; File c:\program files (x86)\microsoft visual studio\2017\community\vc\tools\msvc\14.10.25017\include\vector
;	COMDAT ??0?$_Vector_val@U?$_Simple_types@Usk_file_entry_s@@@std@@@std@@QAE@XZ
_TEXT	SEGMENT
??0?$_Vector_val@U?$_Simple_types@Usk_file_entry_s@@@std@@@std@@QAE@XZ PROC ; std::_Vector_val<std::_Simple_types<sk_file_entry_s> >::_Vector_val<std::_Simple_types<sk_file_entry_s> >, COMDAT
; _this$ = ecx

; 476  : 		: _Myfirst(),

	mov	DWORD PTR [ecx], 0

; 480  : 		}

	mov	eax, ecx
	mov	DWORD PTR [ecx+4], 0
	mov	DWORD PTR [ecx+8], 0
	ret	0
??0?$_Vector_val@U?$_Simple_types@Usk_file_entry_s@@@std@@@std@@QAE@XZ ENDP ; std::_Vector_val<std::_Simple_types<sk_file_entry_s> >::_Vector_val<std::_Simple_types<sk_file_entry_s> >
_TEXT	ENDS
; Function compile flags: /Ogtp
; File c:\program files (x86)\microsoft visual studio\2017\community\vc\tools\msvc\14.10.25017\include\vector
;	COMDAT ?_Myend@?$_Vector_alloc@U?$_Vec_base_types@Usk_file_entry_s@@V?$allocator@Usk_file_entry_s@@@std@@@std@@@std@@QBEABQAUsk_file_entry_s@@XZ
_TEXT	SEGMENT
?_Myend@?$_Vector_alloc@U?$_Vec_base_types@Usk_file_entry_s@@V?$allocator@Usk_file_entry_s@@@std@@@std@@@std@@QBEABQAUsk_file_entry_s@@XZ PROC ; std::_Vector_alloc<std::_Vec_base_types<sk_file_entry_s,std::allocator<sk_file_entry_s> > >::_Myend, COMDAT
; _this$ = ecx

; 676  : 		return (_Get_data()._Myend);

	lea	eax, DWORD PTR [ecx+8]

; 677  : 		}

	ret	0
?_Myend@?$_Vector_alloc@U?$_Vec_base_types@Usk_file_entry_s@@V?$allocator@Usk_file_entry_s@@@std@@@std@@@std@@QBEABQAUsk_file_entry_s@@XZ ENDP ; std::_Vector_alloc<std::_Vec_base_types<sk_file_entry_s,std::allocator<sk_file_entry_s> > >::_Myend
_TEXT	ENDS
; Function compile flags: /Ogtp
; File c:\program files (x86)\microsoft visual studio\2017\community\vc\tools\msvc\14.10.25017\include\vector
;	COMDAT ?_Myend@?$_Vector_alloc@U?$_Vec_base_types@Usk_file_entry_s@@V?$allocator@Usk_file_entry_s@@@std@@@std@@@std@@QAEAAPAUsk_file_entry_s@@XZ
_TEXT	SEGMENT
?_Myend@?$_Vector_alloc@U?$_Vec_base_types@Usk_file_entry_s@@V?$allocator@Usk_file_entry_s@@@std@@@std@@@std@@QAEAAPAUsk_file_entry_s@@XZ PROC ; std::_Vector_alloc<std::_Vec_base_types<sk_file_entry_s,std::allocator<sk_file_entry_s> > >::_Myend, COMDAT
; _this$ = ecx

; 671  : 		return (_Get_data()._Myend);

	lea	eax, DWORD PTR [ecx+8]

; 672  : 		}

	ret	0
?_Myend@?$_Vector_alloc@U?$_Vec_base_types@Usk_file_entry_s@@V?$allocator@Usk_file_entry_s@@@std@@@std@@@std@@QAEAAPAUsk_file_entry_s@@XZ ENDP ; std::_Vector_alloc<std::_Vec_base_types<sk_file_entry_s,std::allocator<sk_file_entry_s> > >::_Myend
_TEXT	ENDS
; Function compile flags: /Ogtp
; File c:\program files (x86)\microsoft visual studio\2017\community\vc\tools\msvc\14.10.25017\include\vector
;	COMDAT ?_Mylast@?$_Vector_alloc@U?$_Vec_base_types@Usk_file_entry_s@@V?$allocator@Usk_file_entry_s@@@std@@@std@@@std@@QBEABQAUsk_file_entry_s@@XZ
_TEXT	SEGMENT
?_Mylast@?$_Vector_alloc@U?$_Vec_base_types@Usk_file_entry_s@@V?$allocator@Usk_file_entry_s@@@std@@@std@@@std@@QBEABQAUsk_file_entry_s@@XZ PROC ; std::_Vector_alloc<std::_Vec_base_types<sk_file_entry_s,std::allocator<sk_file_entry_s> > >::_Mylast, COMDAT
; _this$ = ecx

; 666  : 		return (_Get_data()._Mylast);

	lea	eax, DWORD PTR [ecx+4]

; 667  : 		}

	ret	0
?_Mylast@?$_Vector_alloc@U?$_Vec_base_types@Usk_file_entry_s@@V?$allocator@Usk_file_entry_s@@@std@@@std@@@std@@QBEABQAUsk_file_entry_s@@XZ ENDP ; std::_Vector_alloc<std::_Vec_base_types<sk_file_entry_s,std::allocator<sk_file_entry_s> > >::_Mylast
_TEXT	ENDS
; Function compile flags: /Ogtp
; File c:\program files (x86)\microsoft visual studio\2017\community\vc\tools\msvc\14.10.25017\include\vector
;	COMDAT ?_Mylast@?$_Vector_alloc@U?$_Vec_base_types@Usk_file_entry_s@@V?$allocator@Usk_file_entry_s@@@std@@@std@@@std@@QAEAAPAUsk_file_entry_s@@XZ
_TEXT	SEGMENT
?_Mylast@?$_Vector_alloc@U?$_Vec_base_types@Usk_file_entry_s@@V?$allocator@Usk_file_entry_s@@@std@@@std@@@std@@QAEAAPAUsk_file_entry_s@@XZ PROC ; std::_Vector_alloc<std::_Vec_base_types<sk_file_entry_s,std::allocator<sk_file_entry_s> > >::_Mylast, COMDAT
; _this$ = ecx

; 661  : 		return (_Get_data()._Mylast);

	lea	eax, DWORD PTR [ecx+4]

; 662  : 		}

	ret	0
?_Mylast@?$_Vector_alloc@U?$_Vec_base_types@Usk_file_entry_s@@V?$allocator@Usk_file_entry_s@@@std@@@std@@@std@@QAEAAPAUsk_file_entry_s@@XZ ENDP ; std::_Vector_alloc<std::_Vec_base_types<sk_file_entry_s,std::allocator<sk_file_entry_s> > >::_Mylast
_TEXT	ENDS
; Function compile flags: /Ogtp
; File c:\program files (x86)\microsoft visual studio\2017\community\vc\tools\msvc\14.10.25017\include\vector
;	COMDAT ?_Myfirst@?$_Vector_alloc@U?$_Vec_base_types@Usk_file_entry_s@@V?$allocator@Usk_file_entry_s@@@std@@@std@@@std@@QBEABQAUsk_file_entry_s@@XZ
_TEXT	SEGMENT
?_Myfirst@?$_Vector_alloc@U?$_Vec_base_types@Usk_file_entry_s@@V?$allocator@Usk_file_entry_s@@@std@@@std@@@std@@QBEABQAUsk_file_entry_s@@XZ PROC ; std::_Vector_alloc<std::_Vec_base_types<sk_file_entry_s,std::allocator<sk_file_entry_s> > >::_Myfirst, COMDAT
; _this$ = ecx

; 656  : 		return (_Get_data()._Myfirst);

	mov	eax, ecx

; 657  : 		}

	ret	0
?_Myfirst@?$_Vector_alloc@U?$_Vec_base_types@Usk_file_entry_s@@V?$allocator@Usk_file_entry_s@@@std@@@std@@@std@@QBEABQAUsk_file_entry_s@@XZ ENDP ; std::_Vector_alloc<std::_Vec_base_types<sk_file_entry_s,std::allocator<sk_file_entry_s> > >::_Myfirst
_TEXT	ENDS
; Function compile flags: /Ogtp
; File c:\program files (x86)\microsoft visual studio\2017\community\vc\tools\msvc\14.10.25017\include\vector
;	COMDAT ?_Myfirst@?$_Vector_alloc@U?$_Vec_base_types@Usk_file_entry_s@@V?$allocator@Usk_file_entry_s@@@std@@@std@@@std@@QAEAAPAUsk_file_entry_s@@XZ
_TEXT	SEGMENT
?_Myfirst@?$_Vector_alloc@U?$_Vec_base_types@Usk_file_entry_s@@V?$allocator@Usk_file_entry_s@@@std@@@std@@@std@@QAEAAPAUsk_file_entry_s@@XZ PROC ; std::_Vector_alloc<std::_Vec_base_types<sk_file_entry_s,std::allocator<sk_file_entry_s> > >::_Myfirst, COMDAT
; _this$ = ecx

; 651  : 		return (_Get_data()._Myfirst);

	mov	eax, ecx

; 652  : 		}

	ret	0
?_Myfirst@?$_Vector_alloc@U?$_Vec_base_types@Usk_file_entry_s@@V?$allocator@Usk_file_entry_s@@@std@@@std@@@std@@QAEAAPAUsk_file_entry_s@@XZ ENDP ; std::_Vector_alloc<std::_Vec_base_types<sk_file_entry_s,std::allocator<sk_file_entry_s> > >::_Myfirst
_TEXT	ENDS
; Function compile flags: /Ogtp
; File c:\program files (x86)\microsoft visual studio\2017\community\vc\tools\msvc\14.10.25017\include\vector
;	COMDAT ?_Get_data@?$_Vector_alloc@U?$_Vec_base_types@Usk_file_entry_s@@V?$allocator@Usk_file_entry_s@@@std@@@std@@@std@@QBEABV?$_Vector_val@U?$_Simple_types@Usk_file_entry_s@@@std@@@2@XZ
_TEXT	SEGMENT
?_Get_data@?$_Vector_alloc@U?$_Vec_base_types@Usk_file_entry_s@@V?$allocator@Usk_file_entry_s@@@std@@@std@@@std@@QBEABV?$_Vector_val@U?$_Simple_types@Usk_file_entry_s@@@std@@@2@XZ PROC ; std::_Vector_alloc<std::_Vec_base_types<sk_file_entry_s,std::allocator<sk_file_entry_s> > >::_Get_data, COMDAT
; _this$ = ecx

; 646  : 		return (_Mypair._Get_second());

	mov	eax, ecx

; 647  : 		}

	ret	0
?_Get_data@?$_Vector_alloc@U?$_Vec_base_types@Usk_file_entry_s@@V?$allocator@Usk_file_entry_s@@@std@@@std@@@std@@QBEABV?$_Vector_val@U?$_Simple_types@Usk_file_entry_s@@@std@@@2@XZ ENDP ; std::_Vector_alloc<std::_Vec_base_types<sk_file_entry_s,std::allocator<sk_file_entry_s> > >::_Get_data
_TEXT	ENDS
; Function compile flags: /Ogtp
; File c:\program files (x86)\microsoft visual studio\2017\community\vc\tools\msvc\14.10.25017\include\vector
;	COMDAT ?_Get_data@?$_Vector_alloc@U?$_Vec_base_types@Usk_file_entry_s@@V?$allocator@Usk_file_entry_s@@@std@@@std@@@std@@QAEAAV?$_Vector_val@U?$_Simple_types@Usk_file_entry_s@@@std@@@2@XZ
_TEXT	SEGMENT
?_Get_data@?$_Vector_alloc@U?$_Vec_base_types@Usk_file_entry_s@@V?$allocator@Usk_file_entry_s@@@std@@@std@@@std@@QAEAAV?$_Vector_val@U?$_Simple_types@Usk_file_entry_s@@@std@@@2@XZ PROC ; std::_Vector_alloc<std::_Vec_base_types<sk_file_entry_s,std::allocator<sk_file_entry_s> > >::_Get_data, COMDAT
; _this$ = ecx

; 641  : 		return (_Mypair._Get_second());

	mov	eax, ecx

; 642  : 		}

	ret	0
?_Get_data@?$_Vector_alloc@U?$_Vec_base_types@Usk_file_entry_s@@V?$allocator@Usk_file_entry_s@@@std@@@std@@@std@@QAEAAV?$_Vector_val@U?$_Simple_types@Usk_file_entry_s@@@std@@@2@XZ ENDP ; std::_Vector_alloc<std::_Vec_base_types<sk_file_entry_s,std::allocator<sk_file_entry_s> > >::_Get_data
_TEXT	ENDS
; Function compile flags: /Ogtp
; File c:\program files (x86)\microsoft visual studio\2017\community\vc\tools\msvc\14.10.25017\include\vector
;	COMDAT ?_Getal@?$_Vector_alloc@U?$_Vec_base_types@Usk_file_entry_s@@V?$allocator@Usk_file_entry_s@@@std@@@std@@@std@@QBEABU?$_Wrap_alloc@V?$allocator@Usk_file_entry_s@@@std@@@2@XZ
_TEXT	SEGMENT
?_Getal@?$_Vector_alloc@U?$_Vec_base_types@Usk_file_entry_s@@V?$allocator@Usk_file_entry_s@@@std@@@std@@@std@@QBEABU?$_Wrap_alloc@V?$allocator@Usk_file_entry_s@@@std@@@2@XZ PROC ; std::_Vector_alloc<std::_Vec_base_types<sk_file_entry_s,std::allocator<sk_file_entry_s> > >::_Getal, COMDAT
; _this$ = ecx

; 636  : 		return (_Mypair._Get_first());

	mov	eax, ecx

; 637  : 		}

	ret	0
?_Getal@?$_Vector_alloc@U?$_Vec_base_types@Usk_file_entry_s@@V?$allocator@Usk_file_entry_s@@@std@@@std@@@std@@QBEABU?$_Wrap_alloc@V?$allocator@Usk_file_entry_s@@@std@@@2@XZ ENDP ; std::_Vector_alloc<std::_Vec_base_types<sk_file_entry_s,std::allocator<sk_file_entry_s> > >::_Getal
_TEXT	ENDS
; Function compile flags: /Ogtp
; File c:\program files (x86)\microsoft visual studio\2017\community\vc\tools\msvc\14.10.25017\include\vector
;	COMDAT ?_Getal@?$_Vector_alloc@U?$_Vec_base_types@Usk_file_entry_s@@V?$allocator@Usk_file_entry_s@@@std@@@std@@@std@@QAEAAU?$_Wrap_alloc@V?$allocator@Usk_file_entry_s@@@std@@@2@XZ
_TEXT	SEGMENT
?_Getal@?$_Vector_alloc@U?$_Vec_base_types@Usk_file_entry_s@@V?$allocator@Usk_file_entry_s@@@std@@@std@@@std@@QAEAAU?$_Wrap_alloc@V?$allocator@Usk_file_entry_s@@@std@@@2@XZ PROC ; std::_Vector_alloc<std::_Vec_base_types<sk_file_entry_s,std::allocator<sk_file_entry_s> > >::_Getal, COMDAT
; _this$ = ecx

; 631  : 		return (_Mypair._Get_first());

	mov	eax, ecx

; 632  : 		}

	ret	0
?_Getal@?$_Vector_alloc@U?$_Vec_base_types@Usk_file_entry_s@@V?$allocator@Usk_file_entry_s@@@std@@@std@@@std@@QAEAAU?$_Wrap_alloc@V?$allocator@Usk_file_entry_s@@@std@@@2@XZ ENDP ; std::_Vector_alloc<std::_Vec_base_types<sk_file_entry_s,std::allocator<sk_file_entry_s> > >::_Getal
_TEXT	ENDS
; Function compile flags: /Ogtp
; File c:\program files (x86)\microsoft visual studio\2017\community\vc\tools\msvc\14.10.25017\include\vector
;	COMDAT ?_Swap_all@?$_Vector_alloc@U?$_Vec_base_types@Usk_file_entry_s@@V?$allocator@Usk_file_entry_s@@@std@@@std@@@std@@QAEXAAV12@@Z
_TEXT	SEGMENT
__Right$ = 8						; size = 4
?_Swap_all@?$_Vector_alloc@U?$_Vec_base_types@Usk_file_entry_s@@V?$allocator@Usk_file_entry_s@@@std@@@std@@@std@@QAEXAAV12@@Z PROC ; std::_Vector_alloc<std::_Vec_base_types<sk_file_entry_s,std::allocator<sk_file_entry_s> > >::_Swap_all, COMDAT
; _this$ = ecx

; 626  : 		_Get_data()._Swap_all(_Right._Get_data());
; 627  : 		}

	ret	4
?_Swap_all@?$_Vector_alloc@U?$_Vec_base_types@Usk_file_entry_s@@V?$allocator@Usk_file_entry_s@@@std@@@std@@@std@@QAEXAAV12@@Z ENDP ; std::_Vector_alloc<std::_Vec_base_types<sk_file_entry_s,std::allocator<sk_file_entry_s> > >::_Swap_all
_TEXT	ENDS
; Function compile flags: /Ogtp
; File c:\program files (x86)\microsoft visual studio\2017\community\vc\tools\msvc\14.10.25017\include\vector
;	COMDAT ?_Orphan_all@?$_Vector_alloc@U?$_Vec_base_types@Usk_file_entry_s@@V?$allocator@Usk_file_entry_s@@@std@@@std@@@std@@QAEXXZ
_TEXT	SEGMENT
?_Orphan_all@?$_Vector_alloc@U?$_Vec_base_types@Usk_file_entry_s@@V?$allocator@Usk_file_entry_s@@@std@@@std@@@std@@QAEXXZ PROC ; std::_Vector_alloc<std::_Vec_base_types<sk_file_entry_s,std::allocator<sk_file_entry_s> > >::_Orphan_all, COMDAT
; _this$ = ecx

; 621  : 		_Get_data()._Orphan_all();
; 622  : 		}

	ret	0
?_Orphan_all@?$_Vector_alloc@U?$_Vec_base_types@Usk_file_entry_s@@V?$allocator@Usk_file_entry_s@@@std@@@std@@@std@@QAEXXZ ENDP ; std::_Vector_alloc<std::_Vec_base_types<sk_file_entry_s,std::allocator<sk_file_entry_s> > >::_Orphan_all
_TEXT	ENDS
; Function compile flags: /Ogtp
; File c:\program files (x86)\microsoft visual studio\2017\community\vc\tools\msvc\14.10.25017\include\vector
;	COMDAT ??0?$_Vector_alloc@U?$_Vec_base_types@Usk_file_entry_s@@V?$allocator@Usk_file_entry_s@@@std@@@std@@@std@@QAE@XZ
_TEXT	SEGMENT
??0?$_Vector_alloc@U?$_Vec_base_types@Usk_file_entry_s@@V?$allocator@Usk_file_entry_s@@@std@@@std@@@std@@QAE@XZ PROC ; std::_Vector_alloc<std::_Vec_base_types<sk_file_entry_s,std::allocator<sk_file_entry_s> > >::_Vector_alloc<std::_Vec_base_types<sk_file_entry_s,std::allocator<sk_file_entry_s> > >, COMDAT
; _this$ = ecx

; 476  : 		: _Myfirst(),

	mov	DWORD PTR [ecx], 0

; 509  : 		}

	mov	eax, ecx

; 477  : 		_Mylast(),

	mov	DWORD PTR [ecx+4], 0

; 478  : 		_Myend()

	mov	DWORD PTR [ecx+8], 0

; 509  : 		}

	ret	0
??0?$_Vector_alloc@U?$_Vec_base_types@Usk_file_entry_s@@V?$allocator@Usk_file_entry_s@@@std@@@std@@@std@@QAE@XZ ENDP ; std::_Vector_alloc<std::_Vec_base_types<sk_file_entry_s,std::allocator<sk_file_entry_s> > >::_Vector_alloc<std::_Vec_base_types<sk_file_entry_s,std::allocator<sk_file_entry_s> > >
_TEXT	ENDS
; Function compile flags: /Ogtp
; File c:\program files (x86)\microsoft visual studio\2017\community\vc\tools\msvc\14.10.25017\include\xmemory0
;	COMDAT ?max_size@?$_Wrap_alloc@V?$allocator@Usk_file_entry_s@@@std@@@std@@QBEIU_Nil@2@@Z
_TEXT	SEGMENT
___formal$ = 8						; size = 1
?max_size@?$_Wrap_alloc@V?$allocator@Usk_file_entry_s@@@std@@@std@@QBEIU_Nil@2@@Z PROC ; std::_Wrap_alloc<std::allocator<sk_file_entry_s> >::max_size, COMDAT
; _this$ = ecx

; 1108 : 		return (_Mytraits::max_size(*this));

	mov	eax, 107374182				; 06666666H

; 1109 : 		}

	ret	4
?max_size@?$_Wrap_alloc@V?$allocator@Usk_file_entry_s@@@std@@@std@@QBEIU_Nil@2@@Z ENDP ; std::_Wrap_alloc<std::allocator<sk_file_entry_s> >::max_size
_TEXT	ENDS
; Function compile flags: /Ogtp
; File c:\program files (x86)\microsoft visual studio\2017\community\vc\tools\msvc\14.10.25017\include\xmemory0
;	COMDAT ?deallocate@?$_Wrap_alloc@V?$allocator@Usk_file_entry_s@@@std@@@std@@QAEXPAUsk_file_entry_s@@I@Z
_TEXT	SEGMENT
__Ptr$ = 8						; size = 4
__Count$ = 12						; size = 4
?deallocate@?$_Wrap_alloc@V?$allocator@Usk_file_entry_s@@@std@@@std@@QAEXPAUsk_file_entry_s@@I@Z PROC ; std::_Wrap_alloc<std::allocator<sk_file_entry_s> >::deallocate, COMDAT
; _this$ = ecx

; 1087 : 		{	// deallocate object at _Ptr, ignore size

	npad	2
	push	ebp
	mov	ebp, esp

; 823  : 		_Deallocate(_Ptr, _Count, sizeof (_Ty));

	push	40					; 00000028H
	push	DWORD PTR __Count$[ebp]
	push	DWORD PTR __Ptr$[ebp]
	call	?_Deallocate@std@@YAXPAXII@Z		; std::_Deallocate
	add	esp, 12					; 0000000cH

; 1088 : 		_Mybase::deallocate(_Ptr, _Count);
; 1089 : 		}

	pop	ebp
	ret	8
?deallocate@?$_Wrap_alloc@V?$allocator@Usk_file_entry_s@@@std@@@std@@QAEXPAUsk_file_entry_s@@I@Z ENDP ; std::_Wrap_alloc<std::allocator<sk_file_entry_s> >::deallocate
_TEXT	ENDS
; Function compile flags: /Ogtp
; File c:\program files (x86)\microsoft visual studio\2017\community\vc\tools\msvc\14.10.25017\include\xmemory0
;	COMDAT ?allocate@?$_Wrap_alloc@V?$allocator@Usk_file_entry_s@@@std@@@std@@QAEPAUsk_file_entry_s@@I@Z
_TEXT	SEGMENT
__Count$ = 8						; size = 4
?allocate@?$_Wrap_alloc@V?$allocator@Usk_file_entry_s@@@std@@@std@@QAEPAUsk_file_entry_s@@I@Z PROC ; std::_Wrap_alloc<std::allocator<sk_file_entry_s> >::allocate, COMDAT
; _this$ = ecx

; 1076 : 		{	// allocate array of _Count elements

	npad	2
	push	ebp
	mov	ebp, esp

; 1078 : 		}

	pop	ebp

; 1077 : 		return (_Mybase::allocate(_Count));

	jmp	?allocate@?$allocator@Usk_file_entry_s@@@std@@QAEPAUsk_file_entry_s@@I@Z ; std::allocator<sk_file_entry_s>::allocate
?allocate@?$_Wrap_alloc@V?$allocator@Usk_file_entry_s@@@std@@@std@@QAEPAUsk_file_entry_s@@I@Z ENDP ; std::_Wrap_alloc<std::allocator<sk_file_entry_s> >::allocate
_TEXT	ENDS
; Function compile flags: /Ogtp
; File c:\program files (x86)\microsoft visual studio\2017\community\vc\tools\msvc\14.10.25017\include\xmemory0
;	COMDAT ??0?$_Wrap_alloc@V?$allocator@Usk_file_entry_s@@@std@@@std@@QAE@$$QAU01@@Z
_TEXT	SEGMENT
__Right$ = 8						; size = 4
??0?$_Wrap_alloc@V?$allocator@Usk_file_entry_s@@@std@@@std@@QAE@$$QAU01@@Z PROC ; std::_Wrap_alloc<std::allocator<sk_file_entry_s> >::_Wrap_alloc<std::allocator<sk_file_entry_s> >, COMDAT
; _this$ = ecx

; 1048 : 		}

	mov	eax, ecx
	ret	4
??0?$_Wrap_alloc@V?$allocator@Usk_file_entry_s@@@std@@@std@@QAE@$$QAU01@@Z ENDP ; std::_Wrap_alloc<std::allocator<sk_file_entry_s> >::_Wrap_alloc<std::allocator<sk_file_entry_s> >
_TEXT	ENDS
; Function compile flags: /Ogtp
; File c:\program files (x86)\microsoft visual studio\2017\community\vc\tools\msvc\14.10.25017\include\xmemory0
;	COMDAT ??0?$_Wrap_alloc@V?$allocator@Usk_file_entry_s@@@std@@@std@@QAE@XZ
_TEXT	SEGMENT
??0?$_Wrap_alloc@V?$allocator@Usk_file_entry_s@@@std@@@std@@QAE@XZ PROC ; std::_Wrap_alloc<std::allocator<sk_file_entry_s> >::_Wrap_alloc<std::allocator<sk_file_entry_s> >, COMDAT
; _this$ = ecx

; 1038 : 		}

	mov	eax, ecx
	ret	0
??0?$_Wrap_alloc@V?$allocator@Usk_file_entry_s@@@std@@@std@@QAE@XZ ENDP ; std::_Wrap_alloc<std::allocator<sk_file_entry_s> >::_Wrap_alloc<std::allocator<sk_file_entry_s> >
_TEXT	ENDS
; Function compile flags: /Ogtp
; File c:\program files (x86)\microsoft visual studio\2017\community\vc\tools\msvc\14.10.25017\include\xmemory0
;	COMDAT ?max_size@?$allocator_traits@V?$allocator@Usk_file_entry_s@@@std@@@std@@SAIABV?$allocator@Usk_file_entry_s@@@2@@Z
_TEXT	SEGMENT
__Al$ = 8						; size = 4
?max_size@?$allocator_traits@V?$allocator@Usk_file_entry_s@@@std@@@std@@SAIABV?$allocator@Usk_file_entry_s@@@2@@Z PROC ; std::allocator_traits<std::allocator<sk_file_entry_s> >::max_size, COMDAT

; 970  : 		return (_Al.max_size());

	mov	eax, 107374182				; 06666666H

; 971  : 		}

	ret	0
?max_size@?$allocator_traits@V?$allocator@Usk_file_entry_s@@@std@@@std@@SAIABV?$allocator@Usk_file_entry_s@@@2@@Z ENDP ; std::allocator_traits<std::allocator<sk_file_entry_s> >::max_size
_TEXT	ENDS
; Function compile flags: /Ogtp
; File c:\program files (x86)\microsoft visual studio\2017\community\vc\tools\msvc\14.10.25017\include\xmemory0
;	COMDAT ?max_size@?$allocator@Usk_file_entry_s@@@std@@QBEIXZ
_TEXT	SEGMENT
?max_size@?$allocator@Usk_file_entry_s@@@std@@QBEIXZ PROC ; std::allocator<sk_file_entry_s>::max_size, COMDAT
; _this$ = ecx

; 851  : 		return ((size_t)(-1) / sizeof (_Ty));

	mov	eax, 107374182				; 06666666H

; 852  : 		}

	ret	0
?max_size@?$allocator@Usk_file_entry_s@@@std@@QBEIXZ ENDP ; std::allocator<sk_file_entry_s>::max_size
_TEXT	ENDS
; Function compile flags: /Ogtp
; File c:\program files (x86)\microsoft visual studio\2017\community\vc\tools\msvc\14.10.25017\include\xmemory0
;	COMDAT ?allocate@?$allocator@Usk_file_entry_s@@@std@@QAEPAUsk_file_entry_s@@I@Z
_TEXT	SEGMENT
__Count$ = 8						; size = 4
?allocate@?$allocator@Usk_file_entry_s@@@std@@QAEPAUsk_file_entry_s@@I@Z PROC ; std::allocator<sk_file_entry_s>::allocate, COMDAT
; _this$ = ecx

; 827  : 		{	// allocate array of _Count elements

	npad	2
	push	ebp
	mov	ebp, esp

; 53   : 	if (_Count == 0)

	mov	eax, DWORD PTR __Count$[ebp]
	test	eax, eax
	jne	SHORT $LN4@allocate
$LN12@allocate:

; 828  : 		return (static_cast<pointer>(_Allocate(_Count, sizeof (_Ty))));
; 829  : 		}

	pop	ebp
	ret	4
$LN4@allocate:

; 57   : 	if ((size_t)(-1) / _Sz < _Count)

	cmp	eax, 107374182				; 06666666H
	jbe	SHORT $LN5@allocate

; 58   : 		_Xbad_alloc();	// report no memory

	call	DWORD PTR __imp_?_Xbad_alloc@std@@YAXXZ
$LN15@allocate:
$LN5@allocate:

; 59   : 	const size_t _User_size = _Count * _Sz;

	lea	eax, DWORD PTR [eax+eax*4]
	shl	eax, 3

; 60   : 
; 61   :  #if defined(_M_IX86) || defined(_M_X64)
; 62   : 	if (_Try_aligned_allocation
; 63   : 		&& _BIG_ALLOCATION_THRESHOLD <= _User_size)

	cmp	eax, 4096				; 00001000H
	jb	SHORT $LN6@allocate

; 64   : 		{	// allocate large block
; 65   : 		static_assert(sizeof (void *) < _BIG_ALLOCATION_ALIGNMENT,
; 66   : 			"Big allocations should at least match vector register size");
; 67   : 		const size_t _Block_size = _NON_USER_SIZE + _User_size;

	lea	ecx, DWORD PTR [eax+35]

; 68   : 		if (_Block_size <= _User_size)

	cmp	ecx, eax
	ja	SHORT $LN8@allocate

; 69   : 			_Xbad_alloc();	// report no memory

	call	DWORD PTR __imp_?_Xbad_alloc@std@@YAXXZ
$LN16@allocate:
$LN8@allocate:

; 70   : 		const uintptr_t _Ptr_container =
; 71   : 			reinterpret_cast<uintptr_t>(::operator new(_Block_size));

	push	ecx
	call	??2@YAPAXI@Z				; operator new
	mov	ecx, eax
	add	esp, 4

; 72   : 		_SCL_SECURE_ALWAYS_VALIDATE(_Ptr_container != 0);

	test	ecx, ecx
	jne	SHORT $LN9@allocate
	call	DWORD PTR __imp___invalid_parameter_noinfo_noreturn
$LN17@allocate:
$LN9@allocate:

; 73   : 		_Ptr = reinterpret_cast<void *>((_Ptr_container + _NON_USER_SIZE)

	lea	eax, DWORD PTR [ecx+35]
	and	eax, -32				; ffffffe0H

; 74   : 			& ~(_BIG_ALLOCATION_ALIGNMENT - 1));
; 75   : 		static_cast<uintptr_t *>(_Ptr)[-1] = _Ptr_container;

	mov	DWORD PTR [eax-4], ecx

; 828  : 		return (static_cast<pointer>(_Allocate(_Count, sizeof (_Ty))));
; 829  : 		}

	pop	ebp
	ret	4
$LN6@allocate:

; 87   : 		_Ptr = ::operator new(_User_size);

	push	eax
	call	??2@YAPAXI@Z				; operator new
	add	esp, 4

; 88   : 		_SCL_SECURE_ALWAYS_VALIDATE(_Ptr != 0);

	test	eax, eax
	jne	SHORT $LN12@allocate
	call	DWORD PTR __imp___invalid_parameter_noinfo_noreturn
$LN18@allocate:
$LN14@allocate:
	int	3
?allocate@?$allocator@Usk_file_entry_s@@@std@@QAEPAUsk_file_entry_s@@I@Z ENDP ; std::allocator<sk_file_entry_s>::allocate
_TEXT	ENDS
; Function compile flags: /Ogtp
; File c:\program files (x86)\microsoft visual studio\2017\community\vc\tools\msvc\14.10.25017\include\xmemory0
;	COMDAT ?deallocate@?$allocator@Usk_file_entry_s@@@std@@QAEXPAUsk_file_entry_s@@I@Z
_TEXT	SEGMENT
__Ptr$ = 8						; size = 4
__Count$ = 12						; size = 4
?deallocate@?$allocator@Usk_file_entry_s@@@std@@QAEXPAUsk_file_entry_s@@I@Z PROC ; std::allocator<sk_file_entry_s>::deallocate, COMDAT
; _this$ = ecx

; 822  : 		{	// deallocate object at _Ptr

	npad	2
	push	ebp
	mov	ebp, esp

; 823  : 		_Deallocate(_Ptr, _Count, sizeof (_Ty));

	push	40					; 00000028H
	push	DWORD PTR __Count$[ebp]
	push	DWORD PTR __Ptr$[ebp]
	call	?_Deallocate@std@@YAXPAXII@Z		; std::_Deallocate
	add	esp, 12					; 0000000cH

; 824  : 		}

	pop	ebp
	ret	8
?deallocate@?$allocator@Usk_file_entry_s@@@std@@QAEXPAUsk_file_entry_s@@I@Z ENDP ; std::allocator<sk_file_entry_s>::deallocate
_TEXT	ENDS
; Function compile flags: /Ogtp
; File c:\program files (x86)\microsoft visual studio\2017\community\vc\tools\msvc\14.10.25017\include\xmemory0
;	COMDAT ??0?$allocator@Usk_file_entry_s@@@std@@QAE@ABV01@@Z
_TEXT	SEGMENT
___formal$ = 8						; size = 4
??0?$allocator@Usk_file_entry_s@@@std@@QAE@ABV01@@Z PROC ; std::allocator<sk_file_entry_s>::allocator<sk_file_entry_s>, COMDAT
; _this$ = ecx

; 807  : 		{	// construct by copying (do nothing)
; 808  : 		}

	mov	eax, ecx
	ret	4
??0?$allocator@Usk_file_entry_s@@@std@@QAE@ABV01@@Z ENDP ; std::allocator<sk_file_entry_s>::allocator<sk_file_entry_s>
_TEXT	ENDS
; Function compile flags: /Ogtp
; File c:\program files (x86)\microsoft visual studio\2017\community\vc\tools\msvc\14.10.25017\include\xmemory0
;	COMDAT ??0?$allocator@Usk_file_entry_s@@@std@@QAE@XZ
_TEXT	SEGMENT
??0?$allocator@Usk_file_entry_s@@@std@@QAE@XZ PROC	; std::allocator<sk_file_entry_s>::allocator<sk_file_entry_s>, COMDAT
; _this$ = ecx

; 803  : 		{	// construct default allocator (do nothing)
; 804  : 		}

	mov	eax, ecx
	ret	0
??0?$allocator@Usk_file_entry_s@@@std@@QAE@XZ ENDP	; std::allocator<sk_file_entry_s>::allocator<sk_file_entry_s>
_TEXT	ENDS
; Function compile flags: /Ogtp
; File c:\users\andon\source\repos\specialk\src\update\archive.cpp
; File c:\program files (x86)\microsoft visual studio\2017\community\vc\tools\msvc\14.10.25017\include\vector
; File c:\users\andon\source\repos\specialk\src\update\archive.cpp
; File c:\program files (x86)\microsoft visual studio\2017\community\vc\tools\msvc\14.10.25017\include\vector
; File c:\users\andon\source\repos\specialk\src\update\archive.cpp
; File c:\program files (x86)\microsoft visual studio\2017\community\vc\tools\msvc\14.10.25017\include\xstring
; File c:\program files (x86)\microsoft visual studio\2017\community\vc\tools\msvc\14.10.25017\include\xstddef
; File c:\program files (x86)\microsoft visual studio\2017\community\vc\tools\msvc\14.10.25017\include\xstring
; File c:\users\andon\source\repos\specialk\src\update\archive.cpp
; File c:\program files (x86)\microsoft visual studio\2017\community\vc\tools\msvc\14.10.25017\include\xutility
; File c:\program files (x86)\microsoft visual studio\2017\community\vc\tools\msvc\14.10.25017\include\xstring
; File c:\program files (x86)\microsoft visual studio\2017\community\vc\tools\msvc\14.10.25017\include\xutility
; File c:\program files (x86)\microsoft visual studio\2017\community\vc\tools\msvc\14.10.25017\include\xstring
; File c:\program files (x86)\microsoft visual studio\2017\community\vc\tools\msvc\14.10.25017\include\xmemory0
; File c:\program files (x86)\microsoft visual studio\2017\community\vc\tools\msvc\14.10.25017\include\xstring
; File c:\program files (x86)\microsoft visual studio\2017\community\vc\tools\msvc\14.10.25017\include\xmemory0
; File c:\program files (x86)\microsoft visual studio\2017\community\vc\tools\msvc\14.10.25017\include\iosfwd
; File c:\program files (x86)\microsoft visual studio\2017\community\vc\tools\msvc\14.10.25017\include\xstring
; File c:\program files (x86)\microsoft visual studio\2017\community\vc\tools\msvc\14.10.25017\include\vector
; File c:\program files (x86)\microsoft visual studio\2017\community\vc\tools\msvc\14.10.25017\include\iosfwd
; File c:\program files (x86)\microsoft visual studio\2017\community\vc\tools\msvc\14.10.25017\include\vector
; File c:\users\andon\source\repos\specialk\src\update\archive.cpp
; File c:\program files (x86)\microsoft visual studio\2017\community\vc\tools\msvc\14.10.25017\include\vector
; File c:\users\andon\source\repos\specialk\src\update\archive.cpp
; File c:\program files (x86)\microsoft visual studio\2017\community\vc\tools\msvc\14.10.25017\include\vector
; File c:\users\andon\source\repos\specialk\src\update\archive.cpp
; File c:\program files (x86)\microsoft visual studio\2017\community\vc\tools\msvc\14.10.25017\include\vector
; File c:\users\andon\source\repos\specialk\src\update\archive.cpp
; File c:\program files (x86)\microsoft visual studio\2017\community\vc\tools\msvc\14.10.25017\include\vector
; File c:\users\andon\source\repos\specialk\src\update\archive.cpp
; File c:\program files (x86)\microsoft visual studio\2017\community\vc\tools\msvc\14.10.25017\include\xmemory0
; File c:\program files (x86)\microsoft visual studio\2017\community\vc\tools\msvc\14.10.25017\include\vector
; File c:\users\andon\source\repos\specialk\src\update\archive.cpp
; File c:\program files (x86)\microsoft visual studio\2017\community\vc\tools\msvc\14.10.25017\include\vector
; File c:\users\andon\source\repos\specialk\src\update\archive.cpp
; File c:\program files (x86)\microsoft visual studio\2017\community\vc\tools\msvc\14.10.25017\include\vector
; File c:\users\andon\source\repos\specialk\src\update\archive.cpp
; File c:\program files (x86)\microsoft visual studio\2017\community\vc\tools\msvc\14.10.25017\include\vector
; File c:\users\andon\source\repos\specialk\src\update\archive.cpp
; File c:\program files (x86)\microsoft visual studio\2017\community\vc\tools\msvc\14.10.25017\include\xstring
; File c:\program files (x86)\microsoft visual studio\2017\community\vc\tools\msvc\14.10.25017\include\xstddef
; File c:\program files (x86)\microsoft visual studio\2017\community\vc\tools\msvc\14.10.25017\include\xstring
; File c:\program files (x86)\microsoft visual studio\2017\community\vc\tools\msvc\14.10.25017\include\xutility
; File c:\program files (x86)\microsoft visual studio\2017\community\vc\tools\msvc\14.10.25017\include\xstring
; File c:\program files (x86)\microsoft visual studio\2017\community\vc\tools\msvc\14.10.25017\include\xutility
; File c:\program files (x86)\microsoft visual studio\2017\community\vc\tools\msvc\14.10.25017\include\xstring
; File c:\program files (x86)\microsoft visual studio\2017\community\vc\tools\msvc\14.10.25017\include\xmemory0
; File c:\program files (x86)\microsoft visual studio\2017\community\vc\tools\msvc\14.10.25017\include\xstring
; File c:\program files (x86)\microsoft visual studio\2017\community\vc\tools\msvc\14.10.25017\include\xmemory0
; File c:\program files (x86)\microsoft visual studio\2017\community\vc\tools\msvc\14.10.25017\include\vector
; File c:\program files (x86)\microsoft visual studio\2017\community\vc\tools\msvc\14.10.25017\include\iosfwd
; File c:\users\andon\source\repos\specialk\src\update\archive.cpp
; File c:\program files (x86)\microsoft visual studio\2017\community\vc\tools\msvc\14.10.25017\include\vector
; File c:\program files (x86)\microsoft visual studio\2017\community\vc\tools\msvc\14.10.25017\include\xstring
; File c:\program files (x86)\microsoft visual studio\2017\community\vc\tools\msvc\14.10.25017\include\iosfwd
; File c:\program files (x86)\microsoft visual studio\2017\community\vc\tools\msvc\14.10.25017\include\vector
; File c:\users\andon\source\repos\specialk\src\update\archive.cpp
; File c:\program files (x86)\microsoft visual studio\2017\community\vc\tools\msvc\14.10.25017\include\xstring
; File c:\users\andon\source\repos\specialk\src\update\archive.cpp
; File c:\program files (x86)\microsoft visual studio\2017\community\vc\tools\msvc\14.10.25017\include\xstring
; File c:\program files (x86)\microsoft visual studio\2017\community\vc\tools\msvc\14.10.25017\include\xstddef
; File c:\users\andon\source\repos\specialk\src\update\archive.cpp
; File c:\program files (x86)\microsoft visual studio\2017\community\vc\tools\msvc\14.10.25017\include\xstring
; File c:\program files (x86)\microsoft visual studio\2017\community\vc\tools\msvc\14.10.25017\include\xmemory0
; File c:\program files (x86)\microsoft visual studio\2017\community\vc\tools\msvc\14.10.25017\include\xstring
; File c:\program files (x86)\microsoft visual studio\2017\community\vc\tools\msvc\14.10.25017\include\xmemory0
; File c:\program files (x86)\microsoft visual studio\2017\community\vc\tools\msvc\14.10.25017\include\xstring
; File c:\program files (x86)\microsoft visual studio\2017\community\vc\tools\msvc\14.10.25017\include\xstddef
; File c:\program files (x86)\microsoft visual studio\2017\community\vc\tools\msvc\14.10.25017\include\xstring
; File c:\users\andon\source\repos\specialk\src\update\archive.cpp
; File c:\program files (x86)\microsoft visual studio\2017\community\vc\tools\msvc\14.10.25017\include\xstring
; File c:\program files (x86)\microsoft visual studio\2017\community\vc\tools\msvc\14.10.25017\include\xstddef
; File c:\users\andon\source\repos\specialk\src\update\archive.cpp
; File c:\program files (x86)\microsoft visual studio\2017\community\vc\tools\msvc\14.10.25017\include\xstring
; File c:\program files (x86)\microsoft visual studio\2017\community\vc\tools\msvc\14.10.25017\include\xmemory0
; File c:\program files (x86)\microsoft visual studio\2017\community\vc\tools\msvc\14.10.25017\include\xstring
; File c:\program files (x86)\microsoft visual studio\2017\community\vc\tools\msvc\14.10.25017\include\xmemory0
; File c:\users\andon\source\repos\specialk\src\update\archive.cpp
; File c:\program files (x86)\microsoft visual studio\2017\community\vc\tools\msvc\14.10.25017\include\xstring
; File c:\program files (x86)\microsoft visual studio\2017\community\vc\tools\msvc\14.10.25017\include\xstddef
; File c:\program files (x86)\microsoft visual studio\2017\community\vc\tools\msvc\14.10.25017\include\xstring
; File c:\users\andon\source\repos\specialk\src\update\archive.cpp
; File c:\program files (x86)\microsoft visual studio\2017\community\vc\tools\msvc\14.10.25017\include\xmemory0
; File c:\users\andon\source\repos\specialk\src\update\archive.cpp
; File c:\program files (x86)\microsoft visual studio\2017\community\vc\tools\msvc\14.10.25017\include\vector
; File c:\users\andon\source\repos\specialk\src\update\archive.cpp
; File c:\program files (x86)\microsoft visual studio\2017\community\vc\tools\msvc\14.10.25017\include\vector
; File c:\users\andon\source\repos\specialk\src\update\archive.cpp
; File c:\program files (x86)\microsoft visual studio\2017\community\vc\tools\msvc\14.10.25017\include\xstring
; File c:\program files (x86)\microsoft visual studio\2017\community\vc\tools\msvc\14.10.25017\include\xstddef
; File c:\program files (x86)\microsoft visual studio\2017\community\vc\tools\msvc\14.10.25017\include\xstring
; File c:\users\andon\source\repos\specialk\src\update\archive.cpp
; File c:\program files (x86)\microsoft visual studio\2017\community\vc\tools\msvc\14.10.25017\include\vector
; File c:\users\andon\source\repos\specialk\src\update\archive.cpp
; File c:\program files (x86)\microsoft visual studio\2017\community\vc\tools\msvc\14.10.25017\include\xstring
; File c:\users\andon\source\repos\specialk\src\update\archive.cpp
; File c:\program files (x86)\microsoft visual studio\2017\community\vc\tools\msvc\14.10.25017\include\xstring
; File c:\program files (x86)\microsoft visual studio\2017\community\vc\tools\msvc\14.10.25017\include\xstddef
; File c:\users\andon\source\repos\specialk\src\update\archive.cpp
; File c:\program files (x86)\microsoft visual studio\2017\community\vc\tools\msvc\14.10.25017\include\xstring
; File c:\users\andon\source\repos\specialk\src\update\archive.cpp
; File c:\program files (x86)\microsoft visual studio\2017\community\vc\tools\msvc\14.10.25017\include\xstring
; File c:\program files (x86)\microsoft visual studio\2017\community\vc\tools\msvc\14.10.25017\include\xstddef
; File c:\users\andon\source\repos\specialk\src\update\archive.cpp
; File c:\program files (x86)\microsoft visual studio\2017\community\vc\tools\msvc\14.10.25017\include\xstring
; File c:\program files (x86)\microsoft visual studio\2017\community\vc\tools\msvc\14.10.25017\include\xmemory0
; File c:\program files (x86)\microsoft visual studio\2017\community\vc\tools\msvc\14.10.25017\include\xstring
; File c:\program files (x86)\microsoft visual studio\2017\community\vc\tools\msvc\14.10.25017\include\xmemory0
; File c:\users\andon\source\repos\specialk\src\update\archive.cpp
; File c:\program files (x86)\microsoft visual studio\2017\community\vc\tools\msvc\14.10.25017\include\xstring
; File c:\program files (x86)\microsoft visual studio\2017\community\vc\tools\msvc\14.10.25017\include\xstddef
; File c:\users\andon\source\repos\specialk\src\update\archive.cpp
; File c:\program files (x86)\microsoft visual studio\2017\community\vc\tools\msvc\14.10.25017\include\xstring
; File c:\program files (x86)\microsoft visual studio\2017\community\vc\tools\msvc\14.10.25017\include\xmemory0
; File c:\program files (x86)\microsoft visual studio\2017\community\vc\tools\msvc\14.10.25017\include\xstring
; File c:\program files (x86)\microsoft visual studio\2017\community\vc\tools\msvc\14.10.25017\include\xmemory0
; File c:\program files (x86)\microsoft visual studio\2017\community\vc\tools\msvc\14.10.25017\include\xstring
; File c:\program files (x86)\microsoft visual studio\2017\community\vc\tools\msvc\14.10.25017\include\xstddef
; File c:\program files (x86)\microsoft visual studio\2017\community\vc\tools\msvc\14.10.25017\include\xstring
; File c:\users\andon\source\repos\specialk\src\update\archive.cpp
; File c:\program files (x86)\microsoft visual studio\2017\community\vc\tools\msvc\14.10.25017\include\xstring
; File c:\program files (x86)\microsoft visual studio\2017\community\vc\tools\msvc\14.10.25017\include\xstddef
; File c:\program files (x86)\microsoft visual studio\2017\community\vc\tools\msvc\14.10.25017\include\xstring
; File c:\users\andon\source\repos\specialk\src\update\archive.cpp
; File c:\program files (x86)\windows kits\10\include\10.0.10240.0\ucrt\corecrt_wstring.h
; File c:\users\andon\source\repos\specialk\src\update\archive.cpp
; File c:\program files (x86)\windows kits\10\include\10.0.10240.0\ucrt\corecrt_wstring.h
; File c:\users\andon\source\repos\specialk\src\update\archive.cpp
; File c:\program files (x86)\windows kits\10\include\10.0.10240.0\ucrt\corecrt_wstring.h
; File c:\users\andon\source\repos\specialk\src\update\archive.cpp
; File c:\program files (x86)\microsoft visual studio\2017\community\vc\tools\msvc\14.10.25017\include\vector
; File c:\users\andon\source\repos\specialk\src\update\archive.cpp
; File c:\program files (x86)\microsoft visual studio\2017\community\vc\tools\msvc\14.10.25017\include\xstring
; File c:\users\andon\source\repos\specialk\src\update\archive.cpp
; File c:\program files (x86)\microsoft visual studio\2017\community\vc\tools\msvc\14.10.25017\include\xstring
; File c:\program files (x86)\microsoft visual studio\2017\community\vc\tools\msvc\14.10.25017\include\xstddef
; File c:\users\andon\source\repos\specialk\src\update\archive.cpp
; File c:\program files (x86)\microsoft visual studio\2017\community\vc\tools\msvc\14.10.25017\include\vector
; File c:\program files (x86)\microsoft visual studio\2017\community\vc\tools\msvc\14.10.25017\include\xmemory0
; File c:\program files (x86)\microsoft visual studio\2017\community\vc\tools\msvc\14.10.25017\include\vector
; File c:\program files (x86)\microsoft visual studio\2017\community\vc\tools\msvc\14.10.25017\include\xmemory0
; File c:\program files (x86)\microsoft visual studio\2017\community\vc\tools\msvc\14.10.25017\include\vector
; File c:\program files (x86)\microsoft visual studio\2017\community\vc\tools\msvc\14.10.25017\include\xmemory0
; File c:\program files (x86)\microsoft visual studio\2017\community\vc\tools\msvc\14.10.25017\include\vector
; File c:\program files (x86)\microsoft visual studio\2017\community\vc\tools\msvc\14.10.25017\include\xmemory0
; File c:\program files (x86)\microsoft visual studio\2017\community\vc\tools\msvc\14.10.25017\include\vector
; File c:\program files (x86)\microsoft visual studio\2017\community\vc\tools\msvc\14.10.25017\include\xmemory0
; File c:\program files (x86)\microsoft visual studio\2017\community\vc\tools\msvc\14.10.25017\include\vector
; File c:\program files (x86)\microsoft visual studio\2017\community\vc\tools\msvc\14.10.25017\include\xmemory0
; File c:\users\andon\source\repos\specialk\src\update\archive.cpp
_TEXT	SEGMENT
_look_stream$ = -18760					; size = 16412
_wszOldConfig$2 = -2348					; size = 524
_wszDefaultConfig$3 = -1824				; size = 524
_wszUserConfig$4 = -1300				; size = 524
_wszDestPath$5 = -1296					; size = 520
_wszNewConfig$6 = -776					; size = 524
_wszMovePath$7 = -772					; size = 520
_arc$ = -252						; size = 128
$T8 = -124						; size = 24
$T9 = -124						; size = 24
$T10 = -124						; size = 24
$T11 = -124						; size = 24
_thread_tmp_alloc$ = -100				; size = 8
_arc_stream$ = -92					; size = 12
$T12 = -80						; size = 1
$T13 = -80						; size = 1
_dwWritten$14 = -80					; size = 4
_dwWritten$15 = -80					; size = 4
_decomp_size$16 = -76					; size = 4
_offset$17 = -76					; size = 4
_offset$18 = -72					; size = 4
_decomp_size$19 = -72					; size = 4
_block_idx$ = -68					; size = 4
_i$1$ = -64						; size = 4
tv3706 = -60						; size = 4
_config_files$ = -56					; size = 12
_files$ = -44						; size = 12
_out$20 = -32						; size = 4
_out$21 = -32						; size = 4
tv3929 = -28						; size = 4
_out_len$22 = -28					; size = 4
_thread_alloc$ = -24					; size = 8
tv3930 = -16						; size = 4
$T23 = -16						; size = 1
$T24 = -16						; size = 1
_out_len$25 = -16					; size = 4
__$EHRec$ = -12						; size = 12
_wszArchive$ = 8					; size = 4
_wszOldVersion$ = 12					; size = 4
_backup$ = 16						; size = 1
_callback$ = 20						; size = 4
?SK_Decompress7z@@YAJPB_W0_NP6GHHH@Z@Z PROC		; SK_Decompress7z

; 123  : {

	npad	2
	push	ebp
	mov	ebp, esp
	mov	eax, DWORD PTR fs:0
	push	-1
	push	__ehhandler$?SK_Decompress7z@@YAJPB_W0_NP6GHHH@Z@Z
	push	eax
	mov	eax, 18748				; 0000493cH
	mov	DWORD PTR fs:0, esp
	call	__chkstk

; 124  :   if (! crc_init)

	cmp	BYTE PTR ?crc_init@@3_NA, 0
	jne	SHORT $LN15@SK_Decompr

; 125  :   {
; 126  :     CrcGenerateTable ();

	call	@CrcGenerateTable@0

; 127  :     crc_init = true;

	mov	BYTE PTR ?crc_init@@3_NA, 1
$LN15@SK_Decompr:

; 128  :   }
; 129  : 
; 130  : 
; 131  :   // Don't back stuff up if we're installing :P
; 132  :   if (SK_IsHostAppSKIM ())

	push	ebx
	push	esi
	push	edi
	call	?SK_IsHostAppSKIM@@YA_NXZ		; SK_IsHostAppSKIM
	movzx	ecx, BYTE PTR _backup$[ebp]
	xor	edx, edx

; 133  :     backup = false;
; 134  : 
; 135  :   std::vector <sk_file_entry_s> files =
; 136  :     SK_Get7ZFileContents (wszArchive);

	mov	ebx, DWORD PTR _wszArchive$[ebp]
	test	al, al
	lea	eax, DWORD PTR _files$[ebp]
	cmovne	ecx, edx
	push	ebx
	push	eax
	mov	DWORD PTR tv3706[ebp], ecx
	call	?SK_Get7ZFileContents@@YA?AV?$vector@Usk_file_entry_s@@V?$allocator@Usk_file_entry_s@@@std@@@std@@PB_W@Z ; SK_Get7ZFileContents

; 139  :     SK_Get7ZFileContents (wszArchive);

	lea	eax, DWORD PTR _config_files$[ebp]
	mov	DWORD PTR __$EHRec$[ebp+8], 0
	push	ebx
	push	eax
	call	?SK_Get7ZFileContents@@YA?AV?$vector@Usk_file_entry_s@@V?$allocator@Usk_file_entry_s@@@std@@@std@@PB_W@Z ; SK_Get7ZFileContents
	add	esp, 16					; 00000010H
; File c:\program files (x86)\microsoft visual studio\2017\community\vc\tools\msvc\14.10.25017\include\vector

; 206  : 		return (_Ptr == _Right._Ptr);

	mov	edx, DWORD PTR _config_files$[ebp]
	mov	ebx, DWORD PTR _config_files$[ebp+4]
; File c:\users\andon\source\repos\specialk\src\update\archive.cpp

; 139  :     SK_Get7ZFileContents (wszArchive);

	mov	BYTE PTR __$EHRec$[ebp+8], 1
; File c:\program files (x86)\microsoft visual studio\2017\community\vc\tools\msvc\14.10.25017\include\vector

; 206  : 		return (_Ptr == _Right._Ptr);

	cmp	edx, ebx
; File c:\users\andon\source\repos\specialk\src\update\archive.cpp

; 141  :   for ( auto&& it = config_files.begin (); it != config_files.end (); )

	je	$LN1420@SK_Decompr

; 133  :     backup = false;
; 134  : 
; 135  :   std::vector <sk_file_entry_s> files =
; 136  :     SK_Get7ZFileContents (wszArchive);

	lea	esi, DWORD PTR [edx+16]
	lea	edi, DWORD PTR [ebx-4]
$LL2@SK_Decompr:
; File c:\program files (x86)\microsoft visual studio\2017\community\vc\tools\msvc\14.10.25017\include\xstring

; 1628 : 		return (this->_BUF_SIZE <= _Myres);

	cmp	DWORD PTR [esi+20], 8

; 1621 : 		return (_Large_string_engaged()

	jb	SHORT $LN145@SK_Decompr
; File c:\program files (x86)\microsoft visual studio\2017\community\vc\tools\msvc\14.10.25017\include\xstddef

; 643  : 	return (_Ptr);

	mov	eax, DWORD PTR [esi]
; File c:\program files (x86)\microsoft visual studio\2017\community\vc\tools\msvc\14.10.25017\include\xstring

; 1621 : 		return (_Large_string_engaged()

	jmp	SHORT $LN146@SK_Decompr
$LN145@SK_Decompr:
	mov	eax, esi
$LN146@SK_Decompr:
; File c:\users\andon\source\repos\specialk\src\update\archive.cpp

; 143  :     if (! wcsstr (it->name.c_str (), L"default_"))

	push	OFFSET $SG147312
	push	eax
	call	DWORD PTR __imp__wcsstr
	add	esp, 8
	test	eax, eax
	jne	$LN17@SK_Decompr
; File c:\program files (x86)\microsoft visual studio\2017\community\vc\tools\msvc\14.10.25017\include\xutility

; 893  : 	return {};

	mov	BYTE PTR $T24[ebp], al

; 2552 : 	return (_Move_unchecked1(_First, _Last,

	lea	eax, DWORD PTR [esi-16]
	push	DWORD PTR $T24[ebp]
	push	eax
	lea	eax, DWORD PTR [esi+24]
	push	ebx
	push	eax
	call	??$_Move_unchecked1@PAUsk_file_entry_s@@PAU1@@std@@YAPAUsk_file_entry_s@@PAU1@00U_General_ptr_iterator_tag@0@@Z ; std::_Move_unchecked1<sk_file_entry_s *,sk_file_entry_s *>
; File c:\program files (x86)\microsoft visual studio\2017\community\vc\tools\msvc\14.10.25017\include\xstring

; 1628 : 		return (this->_BUF_SIZE <= _Myres);

	mov	eax, DWORD PTR [edi]
; File c:\program files (x86)\microsoft visual studio\2017\community\vc\tools\msvc\14.10.25017\include\xutility

; 2552 : 	return (_Move_unchecked1(_First, _Last,

	add	esp, 16					; 00000010H
; File c:\program files (x86)\microsoft visual studio\2017\community\vc\tools\msvc\14.10.25017\include\xstring

; 1628 : 		return (this->_BUF_SIZE <= _Myres);

	cmp	eax, 8

; 3608 : 		if (_My_data._Large_string_engaged())

	jb	SHORT $LN230@SK_Decompr
; File c:\program files (x86)\microsoft visual studio\2017\community\vc\tools\msvc\14.10.25017\include\xmemory0

; 823  : 		_Deallocate(_Ptr, _Count, sizeof (_Ty));

	mov	ecx, DWORD PTR [edi-20]
; File c:\program files (x86)\microsoft visual studio\2017\community\vc\tools\msvc\14.10.25017\include\xstring

; 3613 : 			_Al.deallocate(_Ptr, _My_data._Myres + 1);

	inc	eax
; File c:\program files (x86)\microsoft visual studio\2017\community\vc\tools\msvc\14.10.25017\include\xmemory0

; 98   : 	_SCL_SECURE_ALWAYS_VALIDATE(_Count <= (size_t)(-1) / _Sz);

	cmp	eax, 2147483647				; 7fffffffH
	ja	$LN1373@SK_Decompr

; 99   : 	const size_t _User_size = _Count * _Sz;

	add	eax, eax

; 100  : 	if (_BIG_ALLOCATION_THRESHOLD <= _User_size)

	cmp	eax, 4096				; 00001000H
	jb	SHORT $LN225@SK_Decompr

; 101  : 		{	// deallocate large block
; 102  : 		const uintptr_t _Ptr_user = reinterpret_cast<uintptr_t>(_Ptr);
; 103  : 		_SCL_SECURE_ALWAYS_VALIDATE(

	test	cl, 31					; 0000001fH
	jne	$LN1373@SK_Decompr

; 104  : 			(_Ptr_user & (_BIG_ALLOCATION_ALIGNMENT - 1)) == 0);
; 105  : 		const uintptr_t _Ptr_ptr = _Ptr_user - sizeof(void *);
; 106  : 		const uintptr_t _Ptr_container =
; 107  : 			*reinterpret_cast<uintptr_t *>(_Ptr_ptr);

	mov	eax, DWORD PTR [ecx-4]

; 108  : 
; 109  :  #ifdef _DEBUG
; 110  : 		// If the following asserts, it likely means that we are performing
; 111  : 		// an aligned delete on memory coming from an unaligned allocation.
; 112  : 		_SCL_SECURE_ALWAYS_VALIDATE(
; 113  : 			reinterpret_cast<uintptr_t *>(_Ptr_ptr)[-1] ==
; 114  : 				_BIG_ALLOCATION_SENTINEL);
; 115  :  #endif /* _DEBUG */
; 116  : 
; 117  : 		// Extra paranoia on aligned allocation/deallocation
; 118  : 		_SCL_SECURE_ALWAYS_VALIDATE(_Ptr_container < _Ptr_user);

	cmp	eax, ecx
	jae	$LN1373@SK_Decompr

; 119  : 
; 120  :  #ifdef _DEBUG
; 121  : 		_SCL_SECURE_ALWAYS_VALIDATE(2 * sizeof(void *)
; 122  : 			<= _Ptr_user - _Ptr_container);
; 123  : 
; 124  :  #else /* _DEBUG */
; 125  : 		_SCL_SECURE_ALWAYS_VALIDATE(sizeof(void *)

	sub	ecx, eax
	cmp	ecx, 4
	jb	$LN1373@SK_Decompr

; 129  : 		_SCL_SECURE_ALWAYS_VALIDATE(_Ptr_user - _Ptr_container

	cmp	ecx, 35					; 00000023H
	ja	$LN1373@SK_Decompr

; 130  : 			<= _NON_USER_SIZE);
; 131  : 
; 132  : 		_Ptr = reinterpret_cast<void *>(_Ptr_container);

	mov	ecx, eax
$LN225@SK_Decompr:

; 133  : 		}
; 134  : 
; 135  :  #else /* defined(_M_IX86) || defined(_M_X64) */
; 136  : 	static_cast<void>(_Count);
; 137  : 	static_cast<void>(_Sz);
; 138  :  #endif /* defined(_M_IX86) || defined(_M_X64) */
; 139  : 
; 140  : 	::operator delete(_Ptr);

	push	ecx
	call	??3@YAXPAX@Z				; operator delete
	add	esp, 4
$LN230@SK_Decompr:
; File c:\program files (x86)\microsoft visual studio\2017\community\vc\tools\msvc\14.10.25017\include\iosfwd

; 326  : 		_Left = _Right;

	xor	eax, eax
; File c:\program files (x86)\microsoft visual studio\2017\community\vc\tools\msvc\14.10.25017\include\xstring

; 3616 : 		_My_data._Mysize = 0;

	mov	DWORD PTR [edi-4], 0

; 3617 : 		_My_data._Myres = this->_BUF_SIZE - 1;

	mov	DWORD PTR [edi], 7
; File c:\program files (x86)\microsoft visual studio\2017\community\vc\tools\msvc\14.10.25017\include\vector

; 1585 : 		--this->_Mylast();

	sub	ebx, 40					; 00000028H
; File c:\program files (x86)\microsoft visual studio\2017\community\vc\tools\msvc\14.10.25017\include\iosfwd

; 326  : 		_Left = _Right;

	mov	WORD PTR [edi-20], ax
; File c:\program files (x86)\microsoft visual studio\2017\community\vc\tools\msvc\14.10.25017\include\vector

; 1585 : 		--this->_Mylast();

	sub	edi, 40					; 00000028H
	mov	DWORD PTR _config_files$[ebp+4], ebx
; File c:\users\andon\source\repos\specialk\src\update\archive.cpp

; 146  :       continue;

	jmp	SHORT $LN1397@SK_Decompr
