; Listing generated by Microsoft (R) Optimizing Compiler Version 19.10.25019.0 

	TITLE	C:\Users\andon\Source\Repos\SpecialK\src\plugins\blue_reflection.cpp
	.686P
	.XMM
	include listing.inc
	.model	flat

INCLUDELIB MSVCRT
INCLUDELIB OLDNAMES

PUBLIC	_CLSID_Registrar
PUBLIC	_IID_IRegistrar
PUBLIC	?_pAtlAutoThreadModule@ATL@@3PAUIAtlAutoThreadModule@1@A ; ATL::_pAtlAutoThreadModule
PUBLIC	_IID_IDocHostUIHandlerDispatch
PUBLIC	?_pAtlModule@ATL@@3PAVCAtlModule@1@A		; ATL::_pAtlModule
PUBLIC	_IID_IAxWinHostWindow
PUBLIC	?dump_bias@@3_NA				; dump_bias
PUBLIC	?min_shadow_bias@@3MA				; min_shadow_bias
PUBLIC	_LIBID_ATLLib
PUBLIC	_IID_IAxWinHostWindowLic
PUBLIC	?__IT_init@@3JC					; __IT_init
PUBLIC	_IID_IAxWinAmbientDispatch
PUBLIC	___pobjMapEntryFirst
PUBLIC	___pobjMapEntryLast
PUBLIC	?shaft@@3Ulight_shaft_s@@A			; shaft
PUBLIC	?_pPerfRegFunc@ATL@@3P6AJPAUHINSTANCE__@@@ZA	; ATL::_pPerfRegFunc
PUBLIC	?_pPerfUnRegFunc@ATL@@3P6AJXZA			; ATL::_pPerfUnRegFunc
PUBLIC	?_AtlRegisterPerUser@ATL@@3_NA			; ATL::_AtlRegisterPerUser
PUBLIC	?fSteps@@3PAMA					; fSteps
PUBLIC	?fBiasMultipliers@@3PAY03MA			; fBiasMultipliers
PUBLIC	?_pModule@ATL@@3PAVCComModule@1@A		; ATL::_pModule
PUBLIC	_IID_IAxWinAmbientDispatchEx
PUBLIC	?chDirSep@ATL@@3_WB				; ATL::chDirSep
PUBLIC	?chRightBracket@ATL@@3_WB			; ATL::chRightBracket
PUBLIC	?chLeftBracket@ATL@@3_WB			; ATL::chLeftBracket
PUBLIC	?chQuote@ATL@@3_WB				; ATL::chQuote
PUBLIC	_IID_IInternalConnection
PUBLIC	?chEquals@ATL@@3_WB				; ATL::chEquals
PUBLIC	?szStringVal@ATL@@3QB_WB			; ATL::szStringVal
PUBLIC	?multiszStringVal@ATL@@3QB_WB			; ATL::multiszStringVal
PUBLIC	?szDwordVal@ATL@@3QB_WB				; ATL::szDwordVal
PUBLIC	?szBinaryVal@ATL@@3QB_WB			; ATL::szBinaryVal
PUBLIC	?szValToken@ATL@@3QB_WB				; ATL::szValToken
PUBLIC	?szForceRemove@ATL@@3QB_WB			; ATL::szForceRemove
PUBLIC	?szNoRemove@ATL@@3QB_WB				; ATL::szNoRemove
PUBLIC	?szDelete@ATL@@3QB_WB				; ATL::szDelete
;	COMDAT ?_pAtlAutoThreadModule@ATL@@3PAUIAtlAutoThreadModule@1@A
_BSS	SEGMENT
?_pAtlAutoThreadModule@ATL@@3PAUIAtlAutoThreadModule@1@A DD 01H DUP (?) ; ATL::_pAtlAutoThreadModule
_BSS	ENDS
;	COMDAT ?_pAtlModule@ATL@@3PAVCAtlModule@1@A
_BSS	SEGMENT
?_pAtlModule@ATL@@3PAVCAtlModule@1@A DD 01H DUP (?)	; ATL::_pAtlModule
_BSS	ENDS
_BSS	SEGMENT
?dump_bias@@3_NA DB 01H DUP (?)				; dump_bias
	ALIGN	4

?min_shadow_bias@@3MA DD 01H DUP (?)			; min_shadow_bias
?__IT_init@@3JC DD 01H DUP (?)				; __IT_init
?_D3D11Dev_CreateBuffer_Original@@3P6GJPAUID3D11Device@@PBUD3D11_BUFFER_DESC@@PBUD3D11_SUBRESOURCE_DATA@@PAPAUID3D11Buffer@@@ZA DD 01H DUP (?) ; _D3D11Dev_CreateBuffer_Original
?_D3D11Dev_CreateShaderResourceView_Original@@3P6GJPAUID3D11Device@@PAUID3D11Resource@@PBUD3D11_SHADER_RESOURCE_VIEW_DESC@@PAPAUID3D11ShaderResourceView@@@ZA DD 01H DUP (?) ; _D3D11Dev_CreateShaderResourceView_Original
?_D3D11Dev_CreateTexture2D_Original@@3P6GJPAUID3D11Device@@PBUD3D11_TEXTURE2D_DESC@@PBUD3D11_SUBRESOURCE_DATA@@PAPAUID3D11Texture2D@@@ZA DD 01H DUP (?) ; _D3D11Dev_CreateTexture2D_Original
?_D3D11Dev_Unmap_Original@@3P6GXPAUID3D11DeviceContext@@PAUID3D11Resource@@I@ZA DD 01H DUP (?) ; _D3D11Dev_Unmap_Original
?_D3D11Dev_Map_Original@@3P6GJPAUID3D11DeviceContext@@PAUID3D11Resource@@IW4D3D11_MAP@@IPAUD3D11_MAPPED_SUBRESOURCE@@@ZA DD 01H DUP (?) ; _D3D11Dev_Map_Original
?SK_PlugIn_ControlPanelWidget_Original@@3P6GXXZA DD 01H DUP (?) ; SK_PlugIn_ControlPanelWidget_Original
?shaft@@3Ulight_shaft_s@@A DB 068H DUP (?)		; shaft
_BSS	ENDS
;	COMDAT ?_pPerfRegFunc@ATL@@3P6AJPAUHINSTANCE__@@@ZA
_BSS	SEGMENT
?_pPerfRegFunc@ATL@@3P6AJPAUHINSTANCE__@@@ZA DD 01H DUP (?) ; ATL::_pPerfRegFunc
_BSS	ENDS
;	COMDAT ?_pPerfUnRegFunc@ATL@@3P6AJXZA
_BSS	SEGMENT
?_pPerfUnRegFunc@ATL@@3P6AJXZA DD 01H DUP (?)		; ATL::_pPerfUnRegFunc
_BSS	ENDS
;	COMDAT ?_AtlRegisterPerUser@ATL@@3_NA
_BSS	SEGMENT
?_AtlRegisterPerUser@ATL@@3_NA DB 01H DUP (?)		; ATL::_AtlRegisterPerUser
_BSS	ENDS
;	COMDAT ?_pModule@ATL@@3PAVCComModule@1@A
_BSS	SEGMENT
?_pModule@ATL@@3PAVCComModule@1@A DD 01H DUP (?)	; ATL::_pModule
_BSS	ENDS
;	COMDAT ?szDelete@ATL@@3QB_WB
CONST	SEGMENT
?szDelete@ATL@@3QB_WB DD FLAT:$SG259974			; ATL::szDelete
CONST	ENDS
;	COMDAT ?szNoRemove@ATL@@3QB_WB
CONST	SEGMENT
?szNoRemove@ATL@@3QB_WB DD FLAT:$SG259972		; ATL::szNoRemove
CONST	ENDS
;	COMDAT ?szForceRemove@ATL@@3QB_WB
CONST	SEGMENT
?szForceRemove@ATL@@3QB_WB DD FLAT:$SG259970		; ATL::szForceRemove
CONST	ENDS
;	COMDAT ?szValToken@ATL@@3QB_WB
CONST	SEGMENT
?szValToken@ATL@@3QB_WB DD FLAT:$SG259968		; ATL::szValToken
CONST	ENDS
;	COMDAT ?szBinaryVal@ATL@@3QB_WB
CONST	SEGMENT
?szBinaryVal@ATL@@3QB_WB DD FLAT:$SG259966		; ATL::szBinaryVal
CONST	ENDS
;	COMDAT ?szDwordVal@ATL@@3QB_WB
CONST	SEGMENT
?szDwordVal@ATL@@3QB_WB DD FLAT:$SG259964		; ATL::szDwordVal
CONST	ENDS
;	COMDAT ?multiszStringVal@ATL@@3QB_WB
CONST	SEGMENT
?multiszStringVal@ATL@@3QB_WB DD FLAT:$SG259962		; ATL::multiszStringVal
CONST	ENDS
;	COMDAT ?szStringVal@ATL@@3QB_WB
CONST	SEGMENT
?szStringVal@ATL@@3QB_WB DD FLAT:$SG259960		; ATL::szStringVal
CONST	ENDS
;	COMDAT ?chEquals@ATL@@3_WB
CONST	SEGMENT
?chEquals@ATL@@3_WB DW 03dH				; ATL::chEquals
CONST	ENDS
;	COMDAT _IID_IInternalConnection
CONST	SEGMENT
_IID_IInternalConnection DD 072ad0770H
	DW	06a9fH
	DW	011d1H
	DB	0bcH
	DB	0ecH
	DB	00H
	DB	060H
	DB	08H
	DB	08fH
	DB	044H
	DB	04eH
CONST	ENDS
;	COMDAT ?chQuote@ATL@@3_WB
CONST	SEGMENT
?chQuote@ATL@@3_WB DW 027H				; ATL::chQuote
CONST	ENDS
;	COMDAT ?chLeftBracket@ATL@@3_WB
CONST	SEGMENT
?chLeftBracket@ATL@@3_WB DW 07bH			; ATL::chLeftBracket
CONST	ENDS
;	COMDAT ?chRightBracket@ATL@@3_WB
CONST	SEGMENT
?chRightBracket@ATL@@3_WB DW 07dH			; ATL::chRightBracket
CONST	ENDS
;	COMDAT ?chDirSep@ATL@@3_WB
CONST	SEGMENT
?chDirSep@ATL@@3_WB DW 05cH				; ATL::chDirSep
CONST	ENDS
;	COMDAT _IID_IAxWinAmbientDispatchEx
CONST	SEGMENT
_IID_IAxWinAmbientDispatchEx DD 0b2d0778bH
	DW	0ac99H
	DW	04c58H
	DB	0a5H
	DB	0c8H
	DB	0e7H
	DB	072H
	DB	04eH
	DB	053H
	DB	016H
	DB	0b5H
CONST	ENDS
_DATA	SEGMENT
?fSteps@@3PAMA DD 03951b717r			; 0.0002 ; fSteps
	DD	039d1b717r			; 0.0004
	DD	03a83126fr			; 0.001
?fBiasMultipliers@@3PAY03MA DD 03fa66666r	; 1.3	; fBiasMultipliers
	DD	03f8ccccdr			; 1.1
	DD	03f800000r			; 1
	DD	03f2e147br			; 0.68
	DD	040066666r			; 2.1
	DD	03fab851fr			; 1.34
	DD	03f8ba5e3r			; 1.091
	DD	03fac9518r			; 1.3483
	DD	03f933333r			; 1.15
	DD	03fa147aer			; 1.26
	DD	03f800000r			; 1
	DD	03f6e147br			; 0.93
_DATA	ENDS
;	COMDAT ___pobjMapEntryLast
ATL$__z	SEGMENT
___pobjMapEntryLast DD 00H
ATL$__z	ENDS
;	COMDAT ___pobjMapEntryFirst
ATL$__a	SEGMENT
___pobjMapEntryFirst DD 00H
ATL$__a	ENDS
;	COMDAT _IID_IAxWinAmbientDispatch
CONST	SEGMENT
_IID_IAxWinAmbientDispatch DD 0b6ea2051H
	DW	048aH
	DW	011d1H
	DB	082H
	DB	0b9H
	DB	00H
	DB	0c0H
	DB	04fH
	DB	0b9H
	DB	094H
	DB	02eH
CONST	ENDS
;	COMDAT _IID_IAxWinHostWindowLic
CONST	SEGMENT
_IID_IAxWinHostWindowLic DD 03935bda8H
	DW	04ed9H
	DW	0495cH
	DB	086H
	DB	050H
	DB	0e0H
	DB	01fH
	DB	0c1H
	DB	0e3H
	DB	08aH
	DB	04bH
CONST	ENDS
;	COMDAT _LIBID_ATLLib
CONST	SEGMENT
_LIBID_ATLLib DD 044ec0535H
	DW	0400fH
	DW	011d0H
	DB	09dH
	DB	0cdH
	DB	00H
	DB	0a0H
	DB	0c9H
	DB	03H
	DB	091H
	DB	0d3H
CONST	ENDS
;	COMDAT _IID_IAxWinHostWindow
CONST	SEGMENT
_IID_IAxWinHostWindow DD 0b6ea2050H
	DW	048aH
	DW	011d1H
	DB	082H
	DB	0b9H
	DB	00H
	DB	0c0H
	DB	04fH
	DB	0b9H
	DB	094H
	DB	02eH
CONST	ENDS
;	COMDAT _IID_IDocHostUIHandlerDispatch
CONST	SEGMENT
_IID_IDocHostUIHandlerDispatch DD 0425b5af0H
	DW	065f1H
	DW	011d1H
	DB	096H
	DB	011H
	DB	00H
	DB	00H
	DB	0f8H
	DB	01eH
	DB	0dH
	DB	0dH
CONST	ENDS
;	COMDAT _IID_IRegistrar
CONST	SEGMENT
_IID_IRegistrar DD 044ec053bH
	DW	0400fH
	DW	011d0H
	DB	09dH
	DB	0cdH
	DB	00H
	DB	0a0H
	DB	0c9H
	DB	03H
	DB	091H
	DB	0d3H
CONST	ENDS
;	COMDAT _CLSID_Registrar
CONST	SEGMENT
_CLSID_Registrar DD 044ec053aH
	DW	0400fH
	DW	011d0H
	DB	09dH
	DB	0cdH
	DB	00H
	DB	0a0H
	DB	0c9H
	DB	03H
	DB	091H
	DB	0d3H
CONST	ENDS
CONST	SEGMENT
$SG248869 DB	'a', 00H, 't', 00H, 'l', 00H, 'T', 00H, 'r', 00H, 'a', 00H
	DB	'c', 00H, 'e', 00H, 'S', 00H, 'n', 00H, 'a', 00H, 'p', 00H, 'i'
	DB	00H, 'n', 00H, 00H, 00H
$SG267937 DB	00H
$SG267940 DB	00H
$SG248916 DB	'a', 00H, 't', 00H, 'l', 00H, 'T', 00H, 'r', 00H, 'a', 00H
	DB	'c', 00H, 'e', 00H, 'N', 00H, 'o', 00H, 't', 00H, 'I', 00H, 'm'
	DB	00H, 'p', 00H, 'l', 00H, 00H, 00H
$SG248963 DB	'a', 00H, 't', 00H, 'l', 00H, 'T', 00H, 'r', 00H, 'a', 00H
	DB	'c', 00H, 'e', 00H, 'A', 00H, 'l', 00H, 'l', 00H, 'o', 00H, 'c'
	DB	00H, 'a', 00H, 't', 00H, 'i', 00H, 'o', 00H, 'n', 00H, 00H, 00H
$SG267950 DB	00H
?piecewise_construct@std@@3Upiecewise_construct_t@1@B	ORG $+1 ; std::piecewise_construct
$SG249010 DB	'a', 00H, 't', 00H, 'l', 00H, 'T', 00H, 'r', 00H, 'a', 00H
	DB	'c', 00H, 'e', 00H, 'E', 00H, 'x', 00H, 'c', 00H, 'e', 00H, 'p'
	DB	00H, 't', 00H, 'i', 00H, 'o', 00H, 'n', 00H, 00H, 00H
$SG249057 DB	'a', 00H, 't', 00H, 'l', 00H, 'T', 00H, 'r', 00H, 'a', 00H
	DB	'c', 00H, 'e', 00H, 'T', 00H, 'i', 00H, 'm', 00H, 'e', 00H, 00H
	DB	00H
	ORG $+2
$SG249104 DB	'a', 00H, 't', 00H, 'l', 00H, 'T', 00H, 'r', 00H, 'a', 00H
	DB	'c', 00H, 'e', 00H, 'C', 00H, 'a', 00H, 'c', 00H, 'h', 00H, 'e'
	DB	00H, 00H, 00H
$SG249151 DB	'a', 00H, 't', 00H, 'l', 00H, 'T', 00H, 'r', 00H, 'a', 00H
	DB	'c', 00H, 'e', 00H, 'S', 00H, 't', 00H, 'e', 00H, 'n', 00H, 'c'
	DB	00H, 'i', 00H, 'l', 00H, 00H, 00H
$SG249198 DB	'a', 00H, 't', 00H, 'l', 00H, 'T', 00H, 'r', 00H, 'a', 00H
	DB	'c', 00H, 'e', 00H, 'S', 00H, 't', 00H, 'r', 00H, 'i', 00H, 'n'
	DB	00H, 'g', 00H, 00H, 00H
	ORG $+2
$SG249245 DB	'a', 00H, 't', 00H, 'l', 00H, 'T', 00H, 'r', 00H, 'a', 00H
	DB	'c', 00H, 'e', 00H, 'M', 00H, 'a', 00H, 'p', 00H, 00H, 00H
$SG249250 DB	'a', 00H, 't', 00H, 'l', 00H, 'T', 00H, 'r', 00H, 'a', 00H
	DB	'c', 00H, 'e', 00H, 'U', 00H, 't', 00H, 'i', 00H, 'l', 00H, 00H
	DB	00H
	ORG $+2
$SG249297 DB	'a', 00H, 't', 00H, 'l', 00H, 'T', 00H, 'r', 00H, 'a', 00H
	DB	'c', 00H, 'e', 00H, 'S', 00H, 'e', 00H, 'c', 00H, 'u', 00H, 'r'
	DB	00H, 'i', 00H, 't', 00H, 'y', 00H, 00H, 00H
	ORG $+2
$SG249344 DB	'a', 00H, 't', 00H, 'l', 00H, 'T', 00H, 'r', 00H, 'a', 00H
	DB	'c', 00H, 'e', 00H, 'S', 00H, 'y', 00H, 'n', 00H, 'c', 00H, 00H
	DB	00H
	ORG $+2
$SG260650 DB	'A', 00H, 'p', 00H, 'p', 00H, 'I', 00H, 'D', 00H, 00H, 00H
$SG260651 DB	'C', 00H, 'L', 00H, 'S', 00H, 'I', 00H, 'D', 00H, 00H, 00H
$SG260652 DB	'C', 00H, 'o', 00H, 'm', 00H, 'p', 00H, 'o', 00H, 'n', 00H
	DB	'e', 00H, 'n', 00H, 't', 00H, ' ', 00H, 'C', 00H, 'a', 00H, 't'
	DB	00H, 'e', 00H, 'g', 00H, 'o', 00H, 'r', 00H, 'i', 00H, 'e', 00H
	DB	's', 00H, 00H, 00H
	ORG $+2
$SG260653 DB	'F', 00H, 'i', 00H, 'l', 00H, 'e', 00H, 'T', 00H, 'y', 00H
	DB	'p', 00H, 'e', 00H, 00H, 00H
	ORG $+2
$SG260654 DB	'I', 00H, 'n', 00H, 't', 00H, 'e', 00H, 'r', 00H, 'f', 00H
	DB	'a', 00H, 'c', 00H, 'e', 00H, 00H, 00H
$SG260655 DB	'H', 00H, 'a', 00H, 'r', 00H, 'd', 00H, 'w', 00H, 'a', 00H
	DB	'r', 00H, 'e', 00H, 00H, 00H
	ORG $+2
$SG249391 DB	'a', 00H, 't', 00H, 'l', 00H, 'T', 00H, 'r', 00H, 'a', 00H
	DB	'c', 00H, 'e', 00H, 'I', 00H, 'S', 00H, 'A', 00H, 'P', 00H, 'I'
	DB	00H, 00H, 00H
$SG260656 DB	'M', 00H, 'i', 00H, 'm', 00H, 'e', 00H, 00H, 00H
	ORG $+2
$SG260657 DB	'S', 00H, 'A', 00H, 'M', 00H, 00H, 00H
$SG260658 DB	'S', 00H, 'E', 00H, 'C', 00H, 'U', 00H, 'R', 00H, 'I', 00H
	DB	'T', 00H, 'Y', 00H, 00H, 00H
	ORG $+2
$SG260659 DB	'S', 00H, 'Y', 00H, 'S', 00H, 'T', 00H, 'E', 00H, 'M', 00H
	DB	00H, 00H
	ORG $+2
$SG260660 DB	'S', 00H, 'o', 00H, 'f', 00H, 't', 00H, 'w', 00H, 'a', 00H
	DB	'r', 00H, 'e', 00H, 00H, 00H
	ORG $+2
$SG260661 DB	'T', 00H, 'y', 00H, 'p', 00H, 'e', 00H, 'L', 00H, 'i', 00H
	DB	'b', 00H, 00H, 00H
$SG248375 DB	'a', 00H, 't', 00H, 'l', 00H, 'T', 00H, 'r', 00H, 'a', 00H
	DB	'c', 00H, 'e', 00H, 'G', 00H, 'e', 00H, 'n', 00H, 'e', 00H, 'r'
	DB	00H, 'a', 00H, 'l', 00H, 00H, 00H
$SG267888 DB	'S', 00H, 'h', 00H, 'a', 00H, 'd', 00H, 'o', 00H, 'w', 00H
	DB	'm', 00H, 'a', 00H, 'p', 00H, ' ', 00H, 'B', 00H, 'i', 00H, 'a'
	DB	00H, 's', 00H, ':', 00H, ' ', 00H, '%', 00H, 'f', 00H, ',', 00H
	DB	' ', 00H, '%', 00H, 'f', 00H, ',', 00H, ' ', 00H, '%', 00H, 'f'
	DB	00H, ',', 00H, ' ', 00H, '%', 00H, 'f', 00H, 00H, 00H
	ORG $+2
$SG248446 DB	'a', 00H, 't', 00H, 'l', 00H, 'T', 00H, 'r', 00H, 'a', 00H
	DB	'c', 00H, 'e', 00H, 'C', 00H, 'O', 00H, 'M', 00H, 00H, 00H
$SG267936 DB	'Blue Reflection', 00H
$SG267939 DB	'God Rays', 00H
	ORG $+3
$SG267941 DB	'%.3f', 00H
	ORG $+3
$SG267942 DB	'Minimum Godray Intensity', 00H
	ORG $+3
$SG267943 DB	'%.3f', 00H
	ORG $+3
$SG267944 DB	'Maximum Godray Intensity', 00H
	ORG $+3
$SG267945 DB	'%.3f', 00H
	ORG $+3
$SG267946 DB	'Current Godray Intensity', 00H
	ORG $+3
$SG267949 DB	'Shadows', 00H
$SG248493 DB	'a', 00H, 't', 00H, 'l', 00H, 'T', 00H, 'r', 00H, 'a', 00H
	DB	'c', 00H, 'e', 00H, 'Q', 00H, 'I', 00H, 00H, 00H
	ORG $+2
$SG267952 DB	'Reduce Shadowmap Aliasing', 00H
	ORG $+2
$SG267956 DB	'Trace Shadowmap Biases in Log', 00H
	ORG $+2
$SG267957 DB	'%.3f', 00H
	ORG $+3
$SG267958 DB	'Minimum Shadow Bias', 00H
$SG267959 DB	'Shadowmap Steps', 00H
$SG267960 DB	'Bias Multipliers (LOD0)', 00H
$SG267961 DB	'Bias Multipliers (LOD1)', 00H
$SG267962 DB	'Bias Multipliers (LOD2)', 00H
$SG248540 DB	'a', 00H, 't', 00H, 'l', 00H, 'T', 00H, 'r', 00H, 'a', 00H
	DB	'c', 00H, 'e', 00H, 'R', 00H, 'e', 00H, 'g', 00H, 'i', 00H, 's'
	DB	00H, 't', 00H, 'r', 00H, 'a', 00H, 'r', 00H, 00H, 00H
$SG268009 DB	'I', 00H, 'n', 00H, 'd', 00H, 'i', 00H, 'g', 00H, 'o', 00H
	DB	' ', 00H, 'T', 00H, 'r', 00H, 'a', 00H, 'n', 00H, 's', 00H, 'l'
	DB	00H, 'a', 00H, 't', 00H, 'i', 00H, 'o', 00H, 'n', 00H, ' ', 00H
	DB	'v', 00H, ' ', 00H, '0', 00H, '.', 00H, '0', 00H, '.', 00H, '5'
	DB	00H, 00H, 00H
	ORG $+2
$SG268010 DB	'I', 00H, 'D', 00H, '3', 00H, 'D', 00H, '1', 00H, '1', 00H
	DB	'D', 00H, 'e', 00H, 'v', 00H, 'i', 00H, 'c', 00H, 'e', 00H, ':'
	DB	00H, ':', 00H, 'C', 00H, 'r', 00H, 'e', 00H, 'a', 00H, 't', 00H
	DB	'e', 00H, 'T', 00H, 'e', 00H, 'x', 00H, 't', 00H, 'u', 00H, 'r'
	DB	00H, 'e', 00H, '2', 00H, 'D', 00H, 00H, 00H
$SG268011 DB	'I', 00H, 'D', 00H, '3', 00H, 'D', 00H, '1', 00H, '1', 00H
	DB	'D', 00H, 'e', 00H, 'v', 00H, 'i', 00H, 'c', 00H, 'e', 00H, ':'
	DB	00H, ':', 00H, 'M', 00H, 'a', 00H, 'p', 00H, 00H, 00H
$SG268012 DB	'I', 00H, 'D', 00H, '3', 00H, 'D', 00H, '1', 00H, '1', 00H
	DB	'D', 00H, 'e', 00H, 'v', 00H, 'i', 00H, 'c', 00H, 'e', 00H, ':'
	DB	00H, ':', 00H, 'U', 00H, 'n', 00H, 'm', 00H, 'a', 00H, 'p', 00H
	DB	00H, 00H
$SG268013 DB	'S', 00H, 'K', 00H, '_', 00H, 'P', 00H, 'l', 00H, 'u', 00H
	DB	'g', 00H, 'I', 00H, 'n', 00H, '_', 00H, 'C', 00H, 'o', 00H, 'n'
	DB	00H, 't', 00H, 'r', 00H, 'o', 00H, 'l', 00H, 'P', 00H, 'a', 00H
	DB	'n', 00H, 'e', 00H, 'l', 00H, 'W', 00H, 'i', 00H, 'd', 00H, 'g'
	DB	00H, 'e', 00H, 't', 00H, 00H, 00H
	ORG $+2
$SG268014 DB	'M', 00H, 'i', 00H, 'n', 00H, 'i', 00H, 'm', 00H, 'u', 00H
	DB	'm', 00H, ' ', 00H, 'G', 00H, 'o', 00H, 'd', 00H, 'r', 00H, 'a'
	DB	00H, 'y', 00H, ' ', 00H, 'I', 00H, 'n', 00H, 't', 00H, 'e', 00H
	DB	'n', 00H, 's', 00H, 'i', 00H, 't', 00H, 'y', 00H, 00H, 00H
	ORG $+2
$SG268015 DB	'M', 00H, 'a', 00H, 'x', 00H, 'i', 00H, 'm', 00H, 'u', 00H
	DB	'm', 00H, ' ', 00H, 'G', 00H, 'o', 00H, 'd', 00H, 'r', 00H, 'a'
	DB	00H, 'y', 00H, ' ', 00H, 'I', 00H, 'n', 00H, 't', 00H, 'e', 00H
	DB	'n', 00H, 's', 00H, 'i', 00H, 't', 00H, 'y', 00H, 00H, 00H
	ORG $+2
$SG268016 DB	'M', 00H, 'i', 00H, 'n', 00H, 'i', 00H, 'm', 00H, 'u', 00H
	DB	'm', 00H, 'I', 00H, 'n', 00H, 't', 00H, 'e', 00H, 'n', 00H, 's'
	DB	00H, 'i', 00H, 't', 00H, 'y', 00H, 00H, 00H
	ORG $+2
$SG268017 DB	'I', 00H, 'n', 00H, 'd', 00H, 'i', 00H, 'g', 00H, 'o', 00H
	DB	'.', 00H, 'G', 00H, 'o', 00H, 'd', 00H, 'r', 00H, 'a', 00H, 'y'
	DB	00H, 's', 00H, 00H, 00H
	ORG $+2
$SG268018 DB	'M', 00H, 'a', 00H, 'x', 00H, 'i', 00H, 'm', 00H, 'u', 00H
	DB	'm', 00H, 'I', 00H, 'n', 00H, 't', 00H, 'e', 00H, 'n', 00H, 's'
	DB	00H, 'i', 00H, 't', 00H, 'y', 00H, 00H, 00H
	ORG $+2
$SG268019 DB	'I', 00H, 'n', 00H, 'd', 00H, 'i', 00H, 'g', 00H, 'o', 00H
	DB	'.', 00H, 'G', 00H, 'o', 00H, 'd', 00H, 'r', 00H, 'a', 00H, 'y'
	DB	00H, 's', 00H, 00H, 00H
	ORG $+2
$SG268022 DB	'M', 00H, 'i', 00H, 'n', 00H, 'i', 00H, 'm', 00H, 'u', 00H
	DB	'm', 00H, ' ', 00H, 'S', 00H, 'h', 00H, 'a', 00H, 'd', 00H, 'o'
	DB	00H, 'w', 00H, 'm', 00H, 'a', 00H, 'p', 00H, ' ', 00H, 'B', 00H
	DB	'i', 00H, 'a', 00H, 's', 00H, 00H, 00H
	ORG $+2
$SG268023 DB	'M', 00H, 'i', 00H, 'n', 00H, 'i', 00H, 'm', 00H, 'u', 00H
	DB	'm', 00H, 'B', 00H, 'i', 00H, 'a', 00H, 's', 00H, 00H, 00H
$SG268024 DB	'I', 00H, 'n', 00H, 'd', 00H, 'i', 00H, 'g', 00H, 'o', 00H
	DB	'.', 00H, 'S', 00H, 'h', 00H, 'a', 00H, 'd', 00H, 'o', 00H, 'w'
	DB	00H, 's', 00H, 00H, 00H
	ORG $+2
$SG248587 DB	'a', 00H, 't', 00H, 'l', 00H, 'T', 00H, 'r', 00H, 'a', 00H
	DB	'c', 00H, 'e', 00H, 'R', 00H, 'e', 00H, 'f', 00H, 'c', 00H, 'o'
	DB	00H, 'u', 00H, 'n', 00H, 't', 00H, 00H, 00H
	ORG $+2
$SG248634 DB	'a', 00H, 't', 00H, 'l', 00H, 'T', 00H, 'r', 00H, 'a', 00H
	DB	'c', 00H, 'e', 00H, 'W', 00H, 'i', 00H, 'n', 00H, 'd', 00H, 'o'
	DB	00H, 'w', 00H, 'i', 00H, 'n', 00H, 'g', 00H, 00H, 00H
$SG248681 DB	'a', 00H, 't', 00H, 'l', 00H, 'T', 00H, 'r', 00H, 'a', 00H
	DB	'c', 00H, 'e', 00H, 'C', 00H, 'o', 00H, 'n', 00H, 't', 00H, 'r'
	DB	00H, 'o', 00H, 'l', 00H, 's', 00H, 00H, 00H
	ORG $+2
$SG259960 DB	'S', 00H, 00H, 00H
$SG259962 DB	'M', 00H, 00H, 00H
$SG259964 DB	'D', 00H, 00H, 00H
$SG259966 DB	'B', 00H, 00H, 00H
$SG259968 DB	'V', 00H, 'a', 00H, 'l', 00H, 00H, 00H
$SG259970 DB	'F', 00H, 'o', 00H, 'r', 00H, 'c', 00H, 'e', 00H, 'R', 00H
	DB	'e', 00H, 'm', 00H, 'o', 00H, 'v', 00H, 'e', 00H, 00H, 00H
$SG259972 DB	'N', 00H, 'o', 00H, 'R', 00H, 'e', 00H, 'm', 00H, 'o', 00H
	DB	'v', 00H, 'e', 00H, 00H, 00H
	ORG $+2
$SG259974 DB	'D', 00H, 'e', 00H, 'l', 00H, 'e', 00H, 't', 00H, 'e', 00H
	DB	00H, 00H
	ORG $+2
$SG248728 DB	'a', 00H, 't', 00H, 'l', 00H, 'T', 00H, 'r', 00H, 'a', 00H
	DB	'c', 00H, 'e', 00H, 'H', 00H, 'o', 00H, 's', 00H, 't', 00H, 'i'
	DB	00H, 'n', 00H, 'g', 00H, 00H, 00H
$SG248775 DB	'a', 00H, 't', 00H, 'l', 00H, 'T', 00H, 'r', 00H, 'a', 00H
	DB	'c', 00H, 'e', 00H, 'D', 00H, 'B', 00H, 'C', 00H, 'l', 00H, 'i'
	DB	00H, 'e', 00H, 'n', 00H, 't', 00H, 00H, 00H
	ORG $+2
$SG248822 DB	'a', 00H, 't', 00H, 'l', 00H, 'T', 00H, 'r', 00H, 'a', 00H
	DB	'c', 00H, 'e', 00H, 'D', 00H, 'B', 00H, 'P', 00H, 'r', 00H, 'o'
	DB	00H, 'v', 00H, 'i', 00H, 'd', 00H, 'e', 00H, 'r', 00H, 00H, 00H
CONST	ENDS
PUBLIC	??_H@YGXPAXIIP6EPAX0@Z@Z			; `vector constructor iterator'
PUBLIC	?__empty_global_delete@@YAXPAX@Z		; __empty_global_delete
PUBLIC	?__empty_global_delete@@YAXPAXI@Z		; __empty_global_delete
PUBLIC	__InterlockedAdd
PUBLIC	_HRESULT_FROM_WIN32
PUBLIC	?_Hash_seq@std@@YAIPBEI@Z			; std::_Hash_seq
PUBLIC	_wmemcpy
PUBLIC	_wmemmove
PUBLIC	??2@YAPAXIPAX@Z					; operator new
PUBLIC	??3@YAXPAX0@Z					; operator delete
PUBLIC	?length@?$char_traits@_W@std@@SAIQB_W@Z		; std::char_traits<wchar_t>::length
PUBLIC	?copy@?$char_traits@_W@std@@SAPA_WQA_WQB_WI@Z	; std::char_traits<wchar_t>::copy
PUBLIC	?move@?$char_traits@_W@std@@SAPA_WQA_WQB_WI@Z	; std::char_traits<wchar_t>::move
PUBLIC	?assign@?$char_traits@_W@std@@SAXAA_WAB_W@Z	; std::char_traits<wchar_t>::assign
PUBLIC	?_Orphan_all@_Container_base0@std@@QAEXXZ	; std::_Container_base0::_Orphan_all
PUBLIC	?_Adopt@_Iterator_base0@std@@QAEXPBX@Z		; std::_Iterator_base0::_Adopt
PUBLIC	?_Getcont@_Iterator_base0@std@@QBEPBU_Container_base0@2@XZ ; std::_Iterator_base0::_Getcont
PUBLIC	?_Allocate@std@@YAPAXII_N@Z			; std::_Allocate
PUBLIC	?_Deallocate@std@@YAXPAXII@Z			; std::_Deallocate
PUBLIC	??0?$allocator@_W@std@@QAE@XZ			; std::allocator<wchar_t>::allocator<wchar_t>
PUBLIC	?deallocate@?$allocator@_W@std@@QAEXPA_WI@Z	; std::allocator<wchar_t>::deallocate
PUBLIC	?allocate@?$allocator@_W@std@@QAEPA_WI@Z	; std::allocator<wchar_t>::allocate
PUBLIC	?max_size@?$allocator@_W@std@@QBEIXZ		; std::allocator<wchar_t>::max_size
PUBLIC	?max_size@?$allocator_traits@V?$allocator@_W@std@@@std@@SAIABV?$allocator@_W@2@@Z ; std::allocator_traits<std::allocator<wchar_t> >::max_size
PUBLIC	??0?$_Wrap_alloc@V?$allocator@_W@std@@@std@@QAE@XZ ; std::_Wrap_alloc<std::allocator<wchar_t> >::_Wrap_alloc<std::allocator<wchar_t> >
PUBLIC	?allocate@?$_Wrap_alloc@V?$allocator@_W@std@@@std@@QAEPA_WI@Z ; std::_Wrap_alloc<std::allocator<wchar_t> >::allocate
PUBLIC	?deallocate@?$_Wrap_alloc@V?$allocator@_W@std@@@std@@QAEXPA_WI@Z ; std::_Wrap_alloc<std::allocator<wchar_t> >::deallocate
PUBLIC	?max_size@?$_Wrap_alloc@V?$allocator@_W@std@@@std@@QBEIU_Nil@2@@Z ; std::_Wrap_alloc<std::allocator<wchar_t> >::max_size
PUBLIC	??0?$_String_val@U?$_Simple_types@_W@std@@@std@@QAE@XZ ; std::_String_val<std::_Simple_types<wchar_t> >::_String_val<std::_Simple_types<wchar_t> >
PUBLIC	?_Myptr@?$_String_val@U?$_Simple_types@_W@std@@@std@@QAEPA_WXZ ; std::_String_val<std::_Simple_types<wchar_t> >::_Myptr
PUBLIC	?_Myptr@?$_String_val@U?$_Simple_types@_W@std@@@std@@QBEPB_WXZ ; std::_String_val<std::_Simple_types<wchar_t> >::_Myptr
PUBLIC	?_Large_string_engaged@?$_String_val@U?$_Simple_types@_W@std@@@std@@QBE_NXZ ; std::_String_val<std::_Simple_types<wchar_t> >::_Large_string_engaged
PUBLIC	??0_Bxty@?$_String_val@U?$_Simple_types@_W@std@@@std@@QAE@XZ ; std::_String_val<std::_Simple_types<wchar_t> >::_Bxty::_Bxty
PUBLIC	??1_Bxty@?$_String_val@U?$_Simple_types@_W@std@@@std@@QAE@XZ ; std::_String_val<std::_Simple_types<wchar_t> >::_Bxty::~_Bxty
PUBLIC	??1?$_String_val@U?$_Simple_types@_W@std@@@std@@QAE@XZ ; std::_String_val<std::_Simple_types<wchar_t> >::~_String_val<std::_Simple_types<wchar_t> >
PUBLIC	?_Myptr@?$_String_alloc@U?$_String_base_types@_WV?$allocator@_W@std@@@std@@@std@@QAEPA_WXZ ; std::_String_alloc<std::_String_base_types<wchar_t,std::allocator<wchar_t> > >::_Myptr
PUBLIC	?_Myptr@?$_String_alloc@U?$_String_base_types@_WV?$allocator@_W@std@@@std@@@std@@QBEPB_WXZ ; std::_String_alloc<std::_String_base_types<wchar_t,std::allocator<wchar_t> > >::_Myptr
PUBLIC	??0?$_String_alloc@U?$_String_base_types@_WV?$allocator@_W@std@@@std@@@std@@QAE@XZ ; std::_String_alloc<std::_String_base_types<wchar_t,std::allocator<wchar_t> > >::_String_alloc<std::_String_base_types<wchar_t,std::allocator<wchar_t> > >
PUBLIC	?_Copy_alloc@?$_String_alloc@U?$_String_base_types@_WV?$allocator@_W@std@@@std@@@std@@QAEXABU?$_Wrap_alloc@V?$allocator@_W@std@@@2@@Z ; std::_String_alloc<std::_String_base_types<wchar_t,std::allocator<wchar_t> > >::_Copy_alloc
PUBLIC	?_Orphan_all@?$_String_alloc@U?$_String_base_types@_WV?$allocator@_W@std@@@std@@@std@@QAEXXZ ; std::_String_alloc<std::_String_base_types<wchar_t,std::allocator<wchar_t> > >::_Orphan_all
PUBLIC	?_Getal@?$_String_alloc@U?$_String_base_types@_WV?$allocator@_W@std@@@std@@@std@@QAEAAU?$_Wrap_alloc@V?$allocator@_W@std@@@2@XZ ; std::_String_alloc<std::_String_base_types<wchar_t,std::allocator<wchar_t> > >::_Getal
PUBLIC	?_Getal@?$_String_alloc@U?$_String_base_types@_WV?$allocator@_W@std@@@std@@@std@@QBEABU?$_Wrap_alloc@V?$allocator@_W@std@@@2@XZ ; std::_String_alloc<std::_String_base_types<wchar_t,std::allocator<wchar_t> > >::_Getal
PUBLIC	?_Get_data@?$_String_alloc@U?$_String_base_types@_WV?$allocator@_W@std@@@std@@@std@@QAEAAV?$_String_val@U?$_Simple_types@_W@std@@@2@XZ ; std::_String_alloc<std::_String_base_types<wchar_t,std::allocator<wchar_t> > >::_Get_data
PUBLIC	?_Get_data@?$_String_alloc@U?$_String_base_types@_WV?$allocator@_W@std@@@std@@@std@@QBEABV?$_String_val@U?$_Simple_types@_W@std@@@2@XZ ; std::_String_alloc<std::_String_base_types<wchar_t,std::allocator<wchar_t> > >::_Get_data
PUBLIC	?_Mysize@?$_String_alloc@U?$_String_base_types@_WV?$allocator@_W@std@@@std@@@std@@QAEAAIXZ ; std::_String_alloc<std::_String_base_types<wchar_t,std::allocator<wchar_t> > >::_Mysize
PUBLIC	?_Mysize@?$_String_alloc@U?$_String_base_types@_WV?$allocator@_W@std@@@std@@@std@@QBEABIXZ ; std::_String_alloc<std::_String_base_types<wchar_t,std::allocator<wchar_t> > >::_Mysize
PUBLIC	?_Myres@?$_String_alloc@U?$_String_base_types@_WV?$allocator@_W@std@@@std@@@std@@QAEAAIXZ ; std::_String_alloc<std::_String_base_types<wchar_t,std::allocator<wchar_t> > >::_Myres
PUBLIC	?_Get_first@?$_Compressed_pair@U?$_Wrap_alloc@V?$allocator@_W@std@@@std@@V?$_String_val@U?$_Simple_types@_W@std@@@2@$00@std@@QAEAAU?$_Wrap_alloc@V?$allocator@_W@std@@@2@XZ ; std::_Compressed_pair<std::_Wrap_alloc<std::allocator<wchar_t> >,std::_String_val<std::_Simple_types<wchar_t> >,1>::_Get_first
PUBLIC	?_Get_first@?$_Compressed_pair@U?$_Wrap_alloc@V?$allocator@_W@std@@@std@@V?$_String_val@U?$_Simple_types@_W@std@@@2@$00@std@@QBEABU?$_Wrap_alloc@V?$allocator@_W@std@@@2@XZ ; std::_Compressed_pair<std::_Wrap_alloc<std::allocator<wchar_t> >,std::_String_val<std::_Simple_types<wchar_t> >,1>::_Get_first
PUBLIC	?_Get_second@?$_Compressed_pair@U?$_Wrap_alloc@V?$allocator@_W@std@@@std@@V?$_String_val@U?$_Simple_types@_W@std@@@2@$00@std@@QAEAAV?$_String_val@U?$_Simple_types@_W@std@@@2@XZ ; std::_Compressed_pair<std::_Wrap_alloc<std::allocator<wchar_t> >,std::_String_val<std::_Simple_types<wchar_t> >,1>::_Get_second
PUBLIC	?_Get_second@?$_Compressed_pair@U?$_Wrap_alloc@V?$allocator@_W@std@@@std@@V?$_String_val@U?$_Simple_types@_W@std@@@2@$00@std@@QBEABV?$_String_val@U?$_Simple_types@_W@std@@@2@XZ ; std::_Compressed_pair<std::_Wrap_alloc<std::allocator<wchar_t> >,std::_String_val<std::_Simple_types<wchar_t> >,1>::_Get_second
PUBLIC	??1?$_Compressed_pair@U?$_Wrap_alloc@V?$allocator@_W@std@@@std@@V?$_String_val@U?$_Simple_types@_W@std@@@2@$00@std@@QAE@XZ ; std::_Compressed_pair<std::_Wrap_alloc<std::allocator<wchar_t> >,std::_String_val<std::_Simple_types<wchar_t> >,1>::~_Compressed_pair<std::_Wrap_alloc<std::allocator<wchar_t> >,std::_String_val<std::_Simple_types<wchar_t> >,1>
PUBLIC	??1?$_String_alloc@U?$_String_base_types@_WV?$allocator@_W@std@@@std@@@std@@QAE@XZ ; std::_String_alloc<std::_String_base_types<wchar_t,std::allocator<wchar_t> > >::~_String_alloc<std::_String_base_types<wchar_t,std::allocator<wchar_t> > >
PUBLIC	??0?$basic_string@_WU?$char_traits@_W@std@@V?$allocator@_W@2@@std@@QAE@QB_W@Z ; std::basic_string<wchar_t,std::char_traits<wchar_t>,std::allocator<wchar_t> >::basic_string<wchar_t,std::char_traits<wchar_t>,std::allocator<wchar_t> >
PUBLIC	?_Assign_lv_contents@?$basic_string@_WU?$char_traits@_W@std@@V?$allocator@_W@2@@std@@QAEXABV12@@Z ; std::basic_string<wchar_t,std::char_traits<wchar_t>,std::allocator<wchar_t> >::_Assign_lv_contents
PUBLIC	??1?$basic_string@_WU?$char_traits@_W@std@@V?$allocator@_W@2@@std@@QAE@XZ ; std::basic_string<wchar_t,std::char_traits<wchar_t>,std::allocator<wchar_t> >::~basic_string<wchar_t,std::char_traits<wchar_t>,std::allocator<wchar_t> >
PUBLIC	??4?$basic_string@_WU?$char_traits@_W@std@@V?$allocator@_W@2@@std@@QAEAAV01@ABV01@@Z ; std::basic_string<wchar_t,std::char_traits<wchar_t>,std::allocator<wchar_t> >::operator=
PUBLIC	?assign@?$basic_string@_WU?$char_traits@_W@std@@V?$allocator@_W@2@@std@@QAEAAV12@ABV12@II@Z ; std::basic_string<wchar_t,std::char_traits<wchar_t>,std::allocator<wchar_t> >::assign
PUBLIC	?assign@?$basic_string@_WU?$char_traits@_W@std@@V?$allocator@_W@2@@std@@QAEAAV12@QB_WI@Z ; std::basic_string<wchar_t,std::char_traits<wchar_t>,std::allocator<wchar_t> >::assign
PUBLIC	?assign@?$basic_string@_WU?$char_traits@_W@std@@V?$allocator@_W@2@@std@@QAEAAV12@QB_W@Z ; std::basic_string<wchar_t,std::char_traits<wchar_t>,std::allocator<wchar_t> >::assign
PUBLIC	?erase@?$basic_string@_WU?$char_traits@_W@std@@V?$allocator@_W@2@@std@@QAEAAV12@I@Z ; std::basic_string<wchar_t,std::char_traits<wchar_t>,std::allocator<wchar_t> >::erase
PUBLIC	?erase@?$basic_string@_WU?$char_traits@_W@std@@V?$allocator@_W@2@@std@@QAEAAV12@II@Z ; std::basic_string<wchar_t,std::char_traits<wchar_t>,std::allocator<wchar_t> >::erase
PUBLIC	?max_size@?$basic_string@_WU?$char_traits@_W@std@@V?$allocator@_W@2@@std@@QBEIXZ ; std::basic_string<wchar_t,std::char_traits<wchar_t>,std::allocator<wchar_t> >::max_size
PUBLIC	?_Clamp_suffix_size@?$basic_string@_WU?$char_traits@_W@std@@V?$allocator@_W@2@@std@@QBEIII@Z ; std::basic_string<wchar_t,std::char_traits<wchar_t>,std::allocator<wchar_t> >::_Clamp_suffix_size
PUBLIC	?_Copy@?$basic_string@_WU?$char_traits@_W@std@@V?$allocator@_W@2@@std@@QAEXI@Z ; std::basic_string<wchar_t,std::char_traits<wchar_t>,std::allocator<wchar_t> >::_Copy
PUBLIC	?_Eos@?$basic_string@_WU?$char_traits@_W@std@@V?$allocator@_W@2@@std@@QAEXI@Z ; std::basic_string<wchar_t,std::char_traits<wchar_t>,std::allocator<wchar_t> >::_Eos
PUBLIC	?_Grow@?$basic_string@_WU?$char_traits@_W@std@@V?$allocator@_W@2@@std@@QAE_NI@Z ; std::basic_string<wchar_t,std::char_traits<wchar_t>,std::allocator<wchar_t> >::_Grow
PUBLIC	?_Inside@?$basic_string@_WU?$char_traits@_W@std@@V?$allocator@_W@2@@std@@QBE_NQB_W@Z ; std::basic_string<wchar_t,std::char_traits<wchar_t>,std::allocator<wchar_t> >::_Inside
PUBLIC	?_Tidy_init@?$basic_string@_WU?$char_traits@_W@std@@V?$allocator@_W@2@@std@@QAEXXZ ; std::basic_string<wchar_t,std::char_traits<wchar_t>,std::allocator<wchar_t> >::_Tidy_init
PUBLIC	?_Tidy_deallocate@?$basic_string@_WU?$char_traits@_W@std@@V?$allocator@_W@2@@std@@QAEXXZ ; std::basic_string<wchar_t,std::char_traits<wchar_t>,std::allocator<wchar_t> >::_Tidy_deallocate
PUBLIC	?_Xlen@?$basic_string@_WU?$char_traits@_W@std@@V?$allocator@_W@2@@std@@SAXXZ ; std::basic_string<wchar_t,std::char_traits<wchar_t>,std::allocator<wchar_t> >::_Xlen
PUBLIC	?_Check_offset@?$basic_string@_WU?$char_traits@_W@std@@V?$allocator@_W@2@@std@@QBEXI@Z ; std::basic_string<wchar_t,std::char_traits<wchar_t>,std::allocator<wchar_t> >::_Check_offset
PUBLIC	?_Xran@?$basic_string@_WU?$char_traits@_W@std@@V?$allocator@_W@2@@std@@SAXXZ ; std::basic_string<wchar_t,std::char_traits<wchar_t>,std::allocator<wchar_t> >::_Xran
PUBLIC	??0?$tuple@$$V@std@@QAE@XZ			; std::tuple<>::tuple<>
PUBLIC	??0?$tuple@$$V@std@@QAE@ABV01@@Z		; std::tuple<>::tuple<>
PUBLIC	??0?$_Uhash_compare@PAUID3D11DeviceContext@@U?$hash@PAUID3D11DeviceContext@@@std@@U?$equal_to@PAUID3D11DeviceContext@@@3@@std@@QAE@U?$hash@PAUID3D11DeviceContext@@@1@U?$equal_to@PAUID3D11DeviceContext@@@1@@Z ; std::_Uhash_compare<ID3D11DeviceContext *,std::hash<ID3D11DeviceContext *>,std::equal_to<ID3D11DeviceContext *> >::_Uhash_compare<ID3D11DeviceContext *,std::hash<ID3D11DeviceContext *>,std::equal_to<ID3D11DeviceContext *> >
PUBLIC	??R?$_Uhash_compare@PAUID3D11DeviceContext@@U?$hash@PAUID3D11DeviceContext@@@std@@U?$equal_to@PAUID3D11DeviceContext@@@3@@std@@QBEIABQAUID3D11DeviceContext@@@Z ; std::_Uhash_compare<ID3D11DeviceContext *,std::hash<ID3D11DeviceContext *>,std::equal_to<ID3D11DeviceContext *> >::operator()
PUBLIC	??R?$_Uhash_compare@PAUID3D11DeviceContext@@U?$hash@PAUID3D11DeviceContext@@@std@@U?$equal_to@PAUID3D11DeviceContext@@@3@@std@@QBE_NABQAUID3D11DeviceContext@@0@Z ; std::_Uhash_compare<ID3D11DeviceContext *,std::hash<ID3D11DeviceContext *>,std::equal_to<ID3D11DeviceContext *> >::operator()
PUBLIC	?_Gethash@?$_Uhash_compare@PAUID3D11DeviceContext@@U?$hash@PAUID3D11DeviceContext@@@std@@U?$equal_to@PAUID3D11DeviceContext@@@3@@std@@QBEABU?$hash@PAUID3D11DeviceContext@@@2@XZ ; std::_Uhash_compare<ID3D11DeviceContext *,std::hash<ID3D11DeviceContext *>,std::equal_to<ID3D11DeviceContext *> >::_Gethash
PUBLIC	?_Getkeyeq@?$_Uhash_compare@PAUID3D11DeviceContext@@U?$hash@PAUID3D11DeviceContext@@@std@@U?$equal_to@PAUID3D11DeviceContext@@@3@@std@@QBEABU?$equal_to@PAUID3D11DeviceContext@@@2@XZ ; std::_Uhash_compare<ID3D11DeviceContext *,std::hash<ID3D11DeviceContext *>,std::equal_to<ID3D11DeviceContext *> >::_Getkeyeq
PUBLIC	?_Get_max_bucket_size@?$_Uhash_compare@PAUID3D11DeviceContext@@U?$hash@PAUID3D11DeviceContext@@@std@@U?$equal_to@PAUID3D11DeviceContext@@@3@@std@@QAEAAMXZ ; std::_Uhash_compare<ID3D11DeviceContext *,std::hash<ID3D11DeviceContext *>,std::equal_to<ID3D11DeviceContext *> >::_Get_max_bucket_size
PUBLIC	?_Get_max_bucket_size@?$_Uhash_compare@PAUID3D11DeviceContext@@U?$hash@PAUID3D11DeviceContext@@@std@@U?$equal_to@PAUID3D11DeviceContext@@@3@@std@@QBEABMXZ ; std::_Uhash_compare<ID3D11DeviceContext *,std::hash<ID3D11DeviceContext *>,std::equal_to<ID3D11DeviceContext *> >::_Get_max_bucket_size
PUBLIC	??R?$equal_to@PAUID3D11DeviceContext@@@std@@QBE_NABQAUID3D11DeviceContext@@0@Z ; std::equal_to<ID3D11DeviceContext *>::operator()
PUBLIC	??R?$_Bitwise_hash@PAUID3D11DeviceContext@@@std@@QBEIABQAUID3D11DeviceContext@@@Z ; std::_Bitwise_hash<ID3D11DeviceContext *>::operator()
PUBLIC	?_Get_first@?$_Compressed_pair@U?$equal_to@PAUID3D11DeviceContext@@@std@@M$00@std@@QBEABU?$equal_to@PAUID3D11DeviceContext@@@2@XZ ; std::_Compressed_pair<std::equal_to<ID3D11DeviceContext *>,float,1>::_Get_first
PUBLIC	?_Get_second@?$_Compressed_pair@U?$equal_to@PAUID3D11DeviceContext@@@std@@M$00@std@@QAEAAMXZ ; std::_Compressed_pair<std::equal_to<ID3D11DeviceContext *>,float,1>::_Get_second
PUBLIC	?_Get_second@?$_Compressed_pair@U?$equal_to@PAUID3D11DeviceContext@@@std@@M$00@std@@QBEABMXZ ; std::_Compressed_pair<std::equal_to<ID3D11DeviceContext *>,float,1>::_Get_second
PUBLIC	?_Get_first@?$_Compressed_pair@U?$hash@PAUID3D11DeviceContext@@@std@@V?$_Compressed_pair@U?$equal_to@PAUID3D11DeviceContext@@@std@@M$00@2@$00@std@@QBEABU?$hash@PAUID3D11DeviceContext@@@2@XZ ; std::_Compressed_pair<std::hash<ID3D11DeviceContext *>,std::_Compressed_pair<std::equal_to<ID3D11DeviceContext *>,float,1>,1>::_Get_first
PUBLIC	?_Get_second@?$_Compressed_pair@U?$hash@PAUID3D11DeviceContext@@@std@@V?$_Compressed_pair@U?$equal_to@PAUID3D11DeviceContext@@@std@@M$00@2@$00@std@@QAEAAV?$_Compressed_pair@U?$equal_to@PAUID3D11DeviceContext@@@std@@M$00@2@XZ ; std::_Compressed_pair<std::hash<ID3D11DeviceContext *>,std::_Compressed_pair<std::equal_to<ID3D11DeviceContext *>,float,1>,1>::_Get_second
PUBLIC	?_Get_second@?$_Compressed_pair@U?$hash@PAUID3D11DeviceContext@@@std@@V?$_Compressed_pair@U?$equal_to@PAUID3D11DeviceContext@@@std@@M$00@2@$00@std@@QBEABV?$_Compressed_pair@U?$equal_to@PAUID3D11DeviceContext@@@std@@M$00@2@XZ ; std::_Compressed_pair<std::hash<ID3D11DeviceContext *>,std::_Compressed_pair<std::equal_to<ID3D11DeviceContext *>,float,1>,1>::_Get_second
PUBLIC	?deallocate@?$allocator@U?$_List_node@U?$pair@QAUID3D11DeviceContext@@I@std@@PAX@std@@@std@@QAEXPAU?$_List_node@U?$pair@QAUID3D11DeviceContext@@I@std@@PAX@2@I@Z ; std::allocator<std::_List_node<std::pair<ID3D11DeviceContext * const,unsigned int>,void *> >::deallocate
PUBLIC	?allocate@?$allocator@U?$_List_node@U?$pair@QAUID3D11DeviceContext@@I@std@@PAX@std@@@std@@QAEPAU?$_List_node@U?$pair@QAUID3D11DeviceContext@@I@std@@PAX@2@I@Z ; std::allocator<std::_List_node<std::pair<ID3D11DeviceContext * const,unsigned int>,void *> >::allocate
PUBLIC	?max_size@?$allocator@U?$_List_node@U?$pair@QAUID3D11DeviceContext@@I@std@@PAX@std@@@std@@QBEIXZ ; std::allocator<std::_List_node<std::pair<ID3D11DeviceContext * const,unsigned int>,void *> >::max_size
PUBLIC	?max_size@?$allocator_traits@V?$allocator@U?$_List_node@U?$pair@QAUID3D11DeviceContext@@I@std@@PAX@std@@@std@@@std@@SAIABV?$allocator@U?$_List_node@U?$pair@QAUID3D11DeviceContext@@I@std@@PAX@std@@@2@@Z ; std::allocator_traits<std::allocator<std::_List_node<std::pair<ID3D11DeviceContext * const,unsigned int>,void *> > >::max_size
PUBLIC	?allocate@?$_Wrap_alloc@V?$allocator@U?$_List_node@U?$pair@QAUID3D11DeviceContext@@I@std@@PAX@std@@@std@@@std@@QAEPAU?$_List_node@U?$pair@QAUID3D11DeviceContext@@I@std@@PAX@2@I@Z ; std::_Wrap_alloc<std::allocator<std::_List_node<std::pair<ID3D11DeviceContext * const,unsigned int>,void *> > >::allocate
PUBLIC	?deallocate@?$_Wrap_alloc@V?$allocator@U?$_List_node@U?$pair@QAUID3D11DeviceContext@@I@std@@PAX@std@@@std@@@std@@QAEXPAU?$_List_node@U?$pair@QAUID3D11DeviceContext@@I@std@@PAX@2@I@Z ; std::_Wrap_alloc<std::allocator<std::_List_node<std::pair<ID3D11DeviceContext * const,unsigned int>,void *> > >::deallocate
PUBLIC	?max_size@?$_Wrap_alloc@V?$allocator@U?$_List_node@U?$pair@QAUID3D11DeviceContext@@I@std@@PAX@std@@@std@@@std@@QBEIU_Nil@2@@Z ; std::_Wrap_alloc<std::allocator<std::_List_node<std::pair<ID3D11DeviceContext * const,unsigned int>,void *> > >::max_size
PUBLIC	?_Nextnode@?$_List_alloc@U?$_List_base_types@U?$pair@QAUID3D11DeviceContext@@I@std@@V?$allocator@U?$pair@QAUID3D11DeviceContext@@I@std@@@2@@std@@@std@@SAAAPAU?$_List_node@U?$pair@QAUID3D11DeviceContext@@I@std@@PAX@2@PAU32@@Z ; std::_List_alloc<std::_List_base_types<std::pair<ID3D11DeviceContext * const,unsigned int>,std::allocator<std::pair<ID3D11DeviceContext * const,unsigned int> > > >::_Nextnode
PUBLIC	?_Prevnode@?$_List_alloc@U?$_List_base_types@U?$pair@QAUID3D11DeviceContext@@I@std@@V?$allocator@U?$pair@QAUID3D11DeviceContext@@I@std@@@2@@std@@@std@@SAAAPAU?$_List_node@U?$pair@QAUID3D11DeviceContext@@I@std@@PAX@2@PAU32@@Z ; std::_List_alloc<std::_List_base_types<std::pair<ID3D11DeviceContext * const,unsigned int>,std::allocator<std::pair<ID3D11DeviceContext * const,unsigned int> > > >::_Prevnode
PUBLIC	?_Myval@?$_List_alloc@U?$_List_base_types@U?$pair@QAUID3D11DeviceContext@@I@std@@V?$allocator@U?$pair@QAUID3D11DeviceContext@@I@std@@@2@@std@@@std@@SAAAU?$pair@QAUID3D11DeviceContext@@I@2@PAU?$_List_node@U?$pair@QAUID3D11DeviceContext@@I@std@@PAX@2@@Z ; std::_List_alloc<std::_List_base_types<std::pair<ID3D11DeviceContext * const,unsigned int>,std::allocator<std::pair<ID3D11DeviceContext * const,unsigned int> > > >::_Myval
PUBLIC	?_Buynode0@?$_List_alloc@U?$_List_base_types@U?$pair@QAUID3D11DeviceContext@@I@std@@V?$allocator@U?$pair@QAUID3D11DeviceContext@@I@std@@@2@@std@@@std@@QAEPAU?$_List_node@U?$pair@QAUID3D11DeviceContext@@I@std@@PAX@2@PAU32@0@Z ; std::_List_alloc<std::_List_base_types<std::pair<ID3D11DeviceContext * const,unsigned int>,std::allocator<std::pair<ID3D11DeviceContext * const,unsigned int> > > >::_Buynode0
PUBLIC	?_Getal@?$_List_alloc@U?$_List_base_types@U?$pair@QAUID3D11DeviceContext@@I@std@@V?$allocator@U?$pair@QAUID3D11DeviceContext@@I@std@@@2@@std@@@std@@QAEAAU?$_Wrap_alloc@V?$allocator@U?$_List_node@U?$pair@QAUID3D11DeviceContext@@I@std@@PAX@std@@@std@@@2@XZ ; std::_List_alloc<std::_List_base_types<std::pair<ID3D11DeviceContext * const,unsigned int>,std::allocator<std::pair<ID3D11DeviceContext * const,unsigned int> > > >::_Getal
PUBLIC	?_Getal@?$_List_alloc@U?$_List_base_types@U?$pair@QAUID3D11DeviceContext@@I@std@@V?$allocator@U?$pair@QAUID3D11DeviceContext@@I@std@@@2@@std@@@std@@QBEABU?$_Wrap_alloc@V?$allocator@U?$_List_node@U?$pair@QAUID3D11DeviceContext@@I@std@@PAX@std@@@std@@@2@XZ ; std::_List_alloc<std::_List_base_types<std::pair<ID3D11DeviceContext * const,unsigned int>,std::allocator<std::pair<ID3D11DeviceContext * const,unsigned int> > > >::_Getal
PUBLIC	?_Get_data@?$_List_alloc@U?$_List_base_types@U?$pair@QAUID3D11DeviceContext@@I@std@@V?$allocator@U?$pair@QAUID3D11DeviceContext@@I@std@@@2@@std@@@std@@QAEAAV?$_List_val@U?$_List_simple_types@U?$pair@QAUID3D11DeviceContext@@I@std@@@std@@@2@XZ ; std::_List_alloc<std::_List_base_types<std::pair<ID3D11DeviceContext * const,unsigned int>,std::allocator<std::pair<ID3D11DeviceContext * const,unsigned int> > > >::_Get_data
PUBLIC	?_Get_data@?$_List_alloc@U?$_List_base_types@U?$pair@QAUID3D11DeviceContext@@I@std@@V?$allocator@U?$pair@QAUID3D11DeviceContext@@I@std@@@2@@std@@@std@@QBEABV?$_List_val@U?$_List_simple_types@U?$pair@QAUID3D11DeviceContext@@I@std@@@std@@@2@XZ ; std::_List_alloc<std::_List_base_types<std::pair<ID3D11DeviceContext * const,unsigned int>,std::allocator<std::pair<ID3D11DeviceContext * const,unsigned int> > > >::_Get_data
PUBLIC	?_Myhead@?$_List_alloc@U?$_List_base_types@U?$pair@QAUID3D11DeviceContext@@I@std@@V?$allocator@U?$pair@QAUID3D11DeviceContext@@I@std@@@2@@std@@@std@@QAEAAPAU?$_List_node@U?$pair@QAUID3D11DeviceContext@@I@std@@PAX@2@XZ ; std::_List_alloc<std::_List_base_types<std::pair<ID3D11DeviceContext * const,unsigned int>,std::allocator<std::pair<ID3D11DeviceContext * const,unsigned int> > > >::_Myhead
PUBLIC	?_Mysize@?$_List_alloc@U?$_List_base_types@U?$pair@QAUID3D11DeviceContext@@I@std@@V?$allocator@U?$pair@QAUID3D11DeviceContext@@I@std@@@2@@std@@@std@@QAEAAIXZ ; std::_List_alloc<std::_List_base_types<std::pair<ID3D11DeviceContext * const,unsigned int>,std::allocator<std::pair<ID3D11DeviceContext * const,unsigned int> > > >::_Mysize
PUBLIC	?_Mysize@?$_List_alloc@U?$_List_base_types@U?$pair@QAUID3D11DeviceContext@@I@std@@V?$allocator@U?$pair@QAUID3D11DeviceContext@@I@std@@@2@@std@@@std@@QBEABIXZ ; std::_List_alloc<std::_List_base_types<std::pair<ID3D11DeviceContext * const,unsigned int>,std::allocator<std::pair<ID3D11DeviceContext * const,unsigned int> > > >::_Mysize
PUBLIC	?_Nextnode@?$_List_val@U?$_List_simple_types@U?$pair@QAUID3D11DeviceContext@@I@std@@@std@@@std@@SAAAPAU?$_List_node@U?$pair@QAUID3D11DeviceContext@@I@std@@PAX@2@PAU32@@Z ; std::_List_val<std::_List_simple_types<std::pair<ID3D11DeviceContext * const,unsigned int> > >::_Nextnode
PUBLIC	?_Prevnode@?$_List_val@U?$_List_simple_types@U?$pair@QAUID3D11DeviceContext@@I@std@@@std@@@std@@SAAAPAU?$_List_node@U?$pair@QAUID3D11DeviceContext@@I@std@@PAX@2@PAU32@@Z ; std::_List_val<std::_List_simple_types<std::pair<ID3D11DeviceContext * const,unsigned int> > >::_Prevnode
PUBLIC	?_Myval@?$_List_val@U?$_List_simple_types@U?$pair@QAUID3D11DeviceContext@@I@std@@@std@@@std@@SAAAU?$pair@QAUID3D11DeviceContext@@I@2@PAU?$_List_node@U?$pair@QAUID3D11DeviceContext@@I@std@@PAX@2@@Z ; std::_List_val<std::_List_simple_types<std::pair<ID3D11DeviceContext * const,unsigned int> > >::_Myval
PUBLIC	?_Get_first@?$_Compressed_pair@U?$_Wrap_alloc@V?$allocator@U?$_List_node@U?$pair@QAUID3D11DeviceContext@@I@std@@PAX@std@@@std@@@std@@V?$_List_val@U?$_List_simple_types@U?$pair@QAUID3D11DeviceContext@@I@std@@@std@@@2@$00@std@@QAEAAU?$_Wrap_alloc@V?$allocator@U?$_List_node@U?$pair@QAUID3D11DeviceContext@@I@std@@PAX@std@@@std@@@2@XZ ; std::_Compressed_pair<std::_Wrap_alloc<std::allocator<std::_List_node<std::pair<ID3D11DeviceContext * const,unsigned int>,void *> > >,std::_List_val<std::_List_simple_types<std::pair<ID3D11DeviceContext * const,unsigned int> > >,1>::_Get_first
PUBLIC	?_Get_first@?$_Compressed_pair@U?$_Wrap_alloc@V?$allocator@U?$_List_node@U?$pair@QAUID3D11DeviceContext@@I@std@@PAX@std@@@std@@@std@@V?$_List_val@U?$_List_simple_types@U?$pair@QAUID3D11DeviceContext@@I@std@@@std@@@2@$00@std@@QBEABU?$_Wrap_alloc@V?$allocator@U?$_List_node@U?$pair@QAUID3D11DeviceContext@@I@std@@PAX@std@@@std@@@2@XZ ; std::_Compressed_pair<std::_Wrap_alloc<std::allocator<std::_List_node<std::pair<ID3D11DeviceContext * const,unsigned int>,void *> > >,std::_List_val<std::_List_simple_types<std::pair<ID3D11DeviceContext * const,unsigned int> > >,1>::_Get_first
PUBLIC	?_Get_second@?$_Compressed_pair@U?$_Wrap_alloc@V?$allocator@U?$_List_node@U?$pair@QAUID3D11DeviceContext@@I@std@@PAX@std@@@std@@@std@@V?$_List_val@U?$_List_simple_types@U?$pair@QAUID3D11DeviceContext@@I@std@@@std@@@2@$00@std@@QAEAAV?$_List_val@U?$_List_simple_types@U?$pair@QAUID3D11DeviceContext@@I@std@@@std@@@2@XZ ; std::_Compressed_pair<std::_Wrap_alloc<std::allocator<std::_List_node<std::pair<ID3D11DeviceContext * const,unsigned int>,void *> > >,std::_List_val<std::_List_simple_types<std::pair<ID3D11DeviceContext * const,unsigned int> > >,1>::_Get_second
PUBLIC	?_Get_second@?$_Compressed_pair@U?$_Wrap_alloc@V?$allocator@U?$_List_node@U?$pair@QAUID3D11DeviceContext@@I@std@@PAX@std@@@std@@@std@@V?$_List_val@U?$_List_simple_types@U?$pair@QAUID3D11DeviceContext@@I@std@@@std@@@2@$00@std@@QBEABV?$_List_val@U?$_List_simple_types@U?$pair@QAUID3D11DeviceContext@@I@std@@@std@@@2@XZ ; std::_Compressed_pair<std::_Wrap_alloc<std::allocator<std::_List_node<std::pair<ID3D11DeviceContext * const,unsigned int>,void *> > >,std::_List_val<std::_List_simple_types<std::pair<ID3D11DeviceContext * const,unsigned int> > >,1>::_Get_second
PUBLIC	?_Freenode@?$_List_buy@U?$pair@QAUID3D11DeviceContext@@I@std@@V?$allocator@U?$pair@QAUID3D11DeviceContext@@I@std@@@2@@std@@QAEXPAU?$_List_node@U?$pair@QAUID3D11DeviceContext@@I@std@@PAX@2@@Z ; std::_List_buy<std::pair<ID3D11DeviceContext * const,unsigned int>,std::allocator<std::pair<ID3D11DeviceContext * const,unsigned int> > >::_Freenode
PUBLIC	?begin@?$list@U?$pair@QAUID3D11DeviceContext@@I@std@@V?$allocator@U?$pair@QAUID3D11DeviceContext@@I@std@@@2@@std@@QAE?AV?$_List_iterator@V?$_List_val@U?$_List_simple_types@U?$pair@QAUID3D11DeviceContext@@I@std@@@std@@@std@@@2@XZ ; std::list<std::pair<ID3D11DeviceContext * const,unsigned int>,std::allocator<std::pair<ID3D11DeviceContext * const,unsigned int> > >::begin
PUBLIC	?end@?$list@U?$pair@QAUID3D11DeviceContext@@I@std@@V?$allocator@U?$pair@QAUID3D11DeviceContext@@I@std@@@2@@std@@QAE?AV?$_List_iterator@V?$_List_val@U?$_List_simple_types@U?$pair@QAUID3D11DeviceContext@@I@std@@@std@@@std@@@2@XZ ; std::list<std::pair<ID3D11DeviceContext * const,unsigned int>,std::allocator<std::pair<ID3D11DeviceContext * const,unsigned int> > >::end
PUBLIC	?_Unchecked_begin@?$list@U?$pair@QAUID3D11DeviceContext@@I@std@@V?$allocator@U?$pair@QAUID3D11DeviceContext@@I@std@@@2@@std@@QAE?AV?$_List_unchecked_iterator@V?$_List_val@U?$_List_simple_types@U?$pair@QAUID3D11DeviceContext@@I@std@@@std@@@std@@@2@XZ ; std::list<std::pair<ID3D11DeviceContext * const,unsigned int>,std::allocator<std::pair<ID3D11DeviceContext * const,unsigned int> > >::_Unchecked_begin
PUBLIC	?_Unchecked_end@?$list@U?$pair@QAUID3D11DeviceContext@@I@std@@V?$allocator@U?$pair@QAUID3D11DeviceContext@@I@std@@@2@@std@@QAE?AV?$_List_unchecked_iterator@V?$_List_val@U?$_List_simple_types@U?$pair@QAUID3D11DeviceContext@@I@std@@@std@@@std@@@2@XZ ; std::list<std::pair<ID3D11DeviceContext * const,unsigned int>,std::allocator<std::pair<ID3D11DeviceContext * const,unsigned int> > >::_Unchecked_end
PUBLIC	?_Make_iter@?$list@U?$pair@QAUID3D11DeviceContext@@I@std@@V?$allocator@U?$pair@QAUID3D11DeviceContext@@I@std@@@2@@std@@QBE?AV?$_List_iterator@V?$_List_val@U?$_List_simple_types@U?$pair@QAUID3D11DeviceContext@@I@std@@@std@@@std@@@2@V?$_List_const_iterator@V?$_List_val@U?$_List_simple_types@U?$pair@QAUID3D11DeviceContext@@I@std@@@std@@@std@@@2@@Z ; std::list<std::pair<ID3D11DeviceContext * const,unsigned int>,std::allocator<std::pair<ID3D11DeviceContext * const,unsigned int> > >::_Make_iter
PUBLIC	?_Make_iter@?$list@U?$pair@QAUID3D11DeviceContext@@I@std@@V?$allocator@U?$pair@QAUID3D11DeviceContext@@I@std@@@2@@std@@QBE?AV?$_List_iterator@V?$_List_val@U?$_List_simple_types@U?$pair@QAUID3D11DeviceContext@@I@std@@@std@@@std@@@2@V?$_List_unchecked_const_iterator@V?$_List_val@U?$_List_simple_types@U?$pair@QAUID3D11DeviceContext@@I@std@@@std@@@std@@U_Iterator_base0@2@@2@@Z ; std::list<std::pair<ID3D11DeviceContext * const,unsigned int>,std::allocator<std::pair<ID3D11DeviceContext * const,unsigned int> > >::_Make_iter
PUBLIC	?size@?$list@U?$pair@QAUID3D11DeviceContext@@I@std@@V?$allocator@U?$pair@QAUID3D11DeviceContext@@I@std@@@2@@std@@QBEIXZ ; std::list<std::pair<ID3D11DeviceContext * const,unsigned int>,std::allocator<std::pair<ID3D11DeviceContext * const,unsigned int> > >::size
PUBLIC	?max_size@?$list@U?$pair@QAUID3D11DeviceContext@@I@std@@V?$allocator@U?$pair@QAUID3D11DeviceContext@@I@std@@@2@@std@@QBEIXZ ; std::list<std::pair<ID3D11DeviceContext * const,unsigned int>,std::allocator<std::pair<ID3D11DeviceContext * const,unsigned int> > >::max_size
PUBLIC	?front@?$list@U?$pair@QAUID3D11DeviceContext@@I@std@@V?$allocator@U?$pair@QAUID3D11DeviceContext@@I@std@@@2@@std@@QAEAAU?$pair@QAUID3D11DeviceContext@@I@2@XZ ; std::list<std::pair<ID3D11DeviceContext * const,unsigned int>,std::allocator<std::pair<ID3D11DeviceContext * const,unsigned int> > >::front
PUBLIC	?_Unlinknode@?$list@U?$pair@QAUID3D11DeviceContext@@I@std@@V?$allocator@U?$pair@QAUID3D11DeviceContext@@I@std@@@2@@std@@QAEPAU?$_List_node@U?$pair@QAUID3D11DeviceContext@@I@std@@PAX@2@V?$_List_const_iterator@V?$_List_val@U?$_List_simple_types@U?$pair@QAUID3D11DeviceContext@@I@std@@@std@@@std@@@2@@Z ; std::list<std::pair<ID3D11DeviceContext * const,unsigned int>,std::allocator<std::pair<ID3D11DeviceContext * const,unsigned int> > >::_Unlinknode
PUBLIC	?erase@?$list@U?$pair@QAUID3D11DeviceContext@@I@std@@V?$allocator@U?$pair@QAUID3D11DeviceContext@@I@std@@@2@@std@@QAE?AV?$_List_iterator@V?$_List_val@U?$_List_simple_types@U?$pair@QAUID3D11DeviceContext@@I@std@@@std@@@std@@@2@V?$_List_const_iterator@V?$_List_val@U?$_List_simple_types@U?$pair@QAUID3D11DeviceContext@@I@std@@@std@@@std@@@2@@Z ; std::list<std::pair<ID3D11DeviceContext * const,unsigned int>,std::allocator<std::pair<ID3D11DeviceContext * const,unsigned int> > >::erase
PUBLIC	?_Unchecked_splice@?$list@U?$pair@QAUID3D11DeviceContext@@I@std@@V?$allocator@U?$pair@QAUID3D11DeviceContext@@I@std@@@2@@std@@QAEXV?$_List_unchecked_const_iterator@V?$_List_val@U?$_List_simple_types@U?$pair@QAUID3D11DeviceContext@@I@std@@@std@@@std@@U_Iterator_base0@2@@2@00@Z ; std::list<std::pair<ID3D11DeviceContext * const,unsigned int>,std::allocator<std::pair<ID3D11DeviceContext * const,unsigned int> > >::_Unchecked_splice
PUBLIC	?_Incsize@?$list@U?$pair@QAUID3D11DeviceContext@@I@std@@V?$allocator@U?$pair@QAUID3D11DeviceContext@@I@std@@@2@@std@@QAEXI@Z ; std::list<std::pair<ID3D11DeviceContext * const,unsigned int>,std::allocator<std::pair<ID3D11DeviceContext * const,unsigned int> > >::_Incsize
PUBLIC	?end@?$_Hash@V?$_Umap_traits@PAUID3D11DeviceContext@@IV?$_Uhash_compare@PAUID3D11DeviceContext@@U?$hash@PAUID3D11DeviceContext@@@std@@U?$equal_to@PAUID3D11DeviceContext@@@3@@std@@V?$allocator@U?$pair@QAUID3D11DeviceContext@@I@std@@@3@$0A@@std@@@std@@QAE?AV?$_List_iterator@V?$_List_val@U?$_List_simple_types@U?$pair@QAUID3D11DeviceContext@@I@std@@@std@@@std@@@2@XZ ; std::_Hash<std::_Umap_traits<ID3D11DeviceContext *,unsigned int,std::_Uhash_compare<ID3D11DeviceContext *,std::hash<ID3D11DeviceContext *>,std::equal_to<ID3D11DeviceContext *> >,std::allocator<std::pair<ID3D11DeviceContext * const,unsigned int> >,0> >::end
PUBLIC	?_Unchecked_begin@?$_Hash@V?$_Umap_traits@PAUID3D11DeviceContext@@IV?$_Uhash_compare@PAUID3D11DeviceContext@@U?$hash@PAUID3D11DeviceContext@@@std@@U?$equal_to@PAUID3D11DeviceContext@@@3@@std@@V?$allocator@U?$pair@QAUID3D11DeviceContext@@I@std@@@3@$0A@@std@@@std@@QAE?AV?$_List_unchecked_iterator@V?$_List_val@U?$_List_simple_types@U?$pair@QAUID3D11DeviceContext@@I@std@@@std@@@std@@@2@XZ ; std::_Hash<std::_Umap_traits<ID3D11DeviceContext *,unsigned int,std::_Uhash_compare<ID3D11DeviceContext *,std::hash<ID3D11DeviceContext *>,std::equal_to<ID3D11DeviceContext *> >,std::allocator<std::pair<ID3D11DeviceContext * const,unsigned int> >,0> >::_Unchecked_begin
PUBLIC	?_Unchecked_end@?$_Hash@V?$_Umap_traits@PAUID3D11DeviceContext@@IV?$_Uhash_compare@PAUID3D11DeviceContext@@U?$hash@PAUID3D11DeviceContext@@@std@@U?$equal_to@PAUID3D11DeviceContext@@@3@@std@@V?$allocator@U?$pair@QAUID3D11DeviceContext@@I@std@@@3@$0A@@std@@@std@@QAE?AV?$_List_unchecked_iterator@V?$_List_val@U?$_List_simple_types@U?$pair@QAUID3D11DeviceContext@@I@std@@@std@@@std@@@2@XZ ; std::_Hash<std::_Umap_traits<ID3D11DeviceContext *,unsigned int,std::_Uhash_compare<ID3D11DeviceContext *,std::hash<ID3D11DeviceContext *>,std::equal_to<ID3D11DeviceContext *> >,std::allocator<std::pair<ID3D11DeviceContext * const,unsigned int> >,0> >::_Unchecked_end
PUBLIC	?_Make_iter@?$_Hash@V?$_Umap_traits@PAUID3D11DeviceContext@@IV?$_Uhash_compare@PAUID3D11DeviceContext@@U?$hash@PAUID3D11DeviceContext@@@std@@U?$equal_to@PAUID3D11DeviceContext@@@3@@std@@V?$allocator@U?$pair@QAUID3D11DeviceContext@@I@std@@@3@$0A@@std@@@std@@QBE?AV?$_List_iterator@V?$_List_val@U?$_List_simple_types@U?$pair@QAUID3D11DeviceContext@@I@std@@@std@@@std@@@2@V?$_List_unchecked_const_iterator@V?$_List_val@U?$_List_simple_types@U?$pair@QAUID3D11DeviceContext@@I@std@@@std@@@std@@U_Iterator_base0@2@@2@@Z ; std::_Hash<std::_Umap_traits<ID3D11DeviceContext *,unsigned int,std::_Uhash_compare<ID3D11DeviceContext *,std::hash<ID3D11DeviceContext *>,std::equal_to<ID3D11DeviceContext *> >,std::allocator<std::pair<ID3D11DeviceContext * const,unsigned int> >,0> >::_Make_iter
PUBLIC	?_Make_iter@?$_Hash@V?$_Umap_traits@PAUID3D11DeviceContext@@IV?$_Uhash_compare@PAUID3D11DeviceContext@@U?$hash@PAUID3D11DeviceContext@@@std@@U?$equal_to@PAUID3D11DeviceContext@@@3@@std@@V?$allocator@U?$pair@QAUID3D11DeviceContext@@I@std@@@3@$0A@@std@@@std@@QBE?AV?$_List_iterator@V?$_List_val@U?$_List_simple_types@U?$pair@QAUID3D11DeviceContext@@I@std@@@std@@@std@@@2@V?$_List_const_iterator@V?$_List_val@U?$_List_simple_types@U?$pair@QAUID3D11DeviceContext@@I@std@@@std@@@std@@@2@@Z ; std::_Hash<std::_Umap_traits<ID3D11DeviceContext *,unsigned int,std::_Uhash_compare<ID3D11DeviceContext *,std::hash<ID3D11DeviceContext *>,std::equal_to<ID3D11DeviceContext *> >,std::allocator<std::pair<ID3D11DeviceContext * const,unsigned int> >,0> >::_Make_iter
PUBLIC	?size@?$_Hash@V?$_Umap_traits@PAUID3D11DeviceContext@@IV?$_Uhash_compare@PAUID3D11DeviceContext@@U?$hash@PAUID3D11DeviceContext@@@std@@U?$equal_to@PAUID3D11DeviceContext@@@3@@std@@V?$allocator@U?$pair@QAUID3D11DeviceContext@@I@std@@@3@$0A@@std@@@std@@QBEIXZ ; std::_Hash<std::_Umap_traits<ID3D11DeviceContext *,unsigned int,std::_Uhash_compare<ID3D11DeviceContext *,std::hash<ID3D11DeviceContext *>,std::equal_to<ID3D11DeviceContext *> >,std::allocator<std::pair<ID3D11DeviceContext * const,unsigned int> >,0> >::size
PUBLIC	?bucket_count@?$_Hash@V?$_Umap_traits@PAUID3D11DeviceContext@@IV?$_Uhash_compare@PAUID3D11DeviceContext@@U?$hash@PAUID3D11DeviceContext@@@std@@U?$equal_to@PAUID3D11DeviceContext@@@3@@std@@V?$allocator@U?$pair@QAUID3D11DeviceContext@@I@std@@@3@$0A@@std@@@std@@QBEIXZ ; std::_Hash<std::_Umap_traits<ID3D11DeviceContext *,unsigned int,std::_Uhash_compare<ID3D11DeviceContext *,std::hash<ID3D11DeviceContext *>,std::equal_to<ID3D11DeviceContext *> >,std::allocator<std::pair<ID3D11DeviceContext * const,unsigned int> >,0> >::bucket_count
PUBLIC	?load_factor@?$_Hash@V?$_Umap_traits@PAUID3D11DeviceContext@@IV?$_Uhash_compare@PAUID3D11DeviceContext@@U?$hash@PAUID3D11DeviceContext@@@std@@U?$equal_to@PAUID3D11DeviceContext@@@3@@std@@V?$allocator@U?$pair@QAUID3D11DeviceContext@@I@std@@@3@$0A@@std@@@std@@QBEMXZ ; std::_Hash<std::_Umap_traits<ID3D11DeviceContext *,unsigned int,std::_Uhash_compare<ID3D11DeviceContext *,std::hash<ID3D11DeviceContext *>,std::equal_to<ID3D11DeviceContext *> >,std::allocator<std::pair<ID3D11DeviceContext * const,unsigned int> >,0> >::load_factor
PUBLIC	?max_load_factor@?$_Hash@V?$_Umap_traits@PAUID3D11DeviceContext@@IV?$_Uhash_compare@PAUID3D11DeviceContext@@U?$hash@PAUID3D11DeviceContext@@@std@@U?$equal_to@PAUID3D11DeviceContext@@@3@@std@@V?$allocator@U?$pair@QAUID3D11DeviceContext@@I@std@@@3@$0A@@std@@@std@@QBEMXZ ; std::_Hash<std::_Umap_traits<ID3D11DeviceContext *,unsigned int,std::_Uhash_compare<ID3D11DeviceContext *,std::hash<ID3D11DeviceContext *>,std::equal_to<ID3D11DeviceContext *> >,std::allocator<std::pair<ID3D11DeviceContext * const,unsigned int> >,0> >::max_load_factor
PUBLIC	?erase@?$_Hash@V?$_Umap_traits@PAUID3D11DeviceContext@@IV?$_Uhash_compare@PAUID3D11DeviceContext@@U?$hash@PAUID3D11DeviceContext@@@std@@U?$equal_to@PAUID3D11DeviceContext@@@3@@std@@V?$allocator@U?$pair@QAUID3D11DeviceContext@@I@std@@@3@$0A@@std@@@std@@QAE?AV?$_List_iterator@V?$_List_val@U?$_List_simple_types@U?$pair@QAUID3D11DeviceContext@@I@std@@@std@@@std@@@2@V?$_List_const_iterator@V?$_List_val@U?$_List_simple_types@U?$pair@QAUID3D11DeviceContext@@I@std@@@std@@@std@@@2@@Z ; std::_Hash<std::_Umap_traits<ID3D11DeviceContext *,unsigned int,std::_Uhash_compare<ID3D11DeviceContext *,std::hash<ID3D11DeviceContext *>,std::equal_to<ID3D11DeviceContext *> >,std::allocator<std::pair<ID3D11DeviceContext * const,unsigned int> >,0> >::erase
PUBLIC	?find@?$_Hash@V?$_Umap_traits@PAUID3D11DeviceContext@@IV?$_Uhash_compare@PAUID3D11DeviceContext@@U?$hash@PAUID3D11DeviceContext@@@std@@U?$equal_to@PAUID3D11DeviceContext@@@3@@std@@V?$allocator@U?$pair@QAUID3D11DeviceContext@@I@std@@@3@$0A@@std@@@std@@QAE?AV?$_List_iterator@V?$_List_val@U?$_List_simple_types@U?$pair@QAUID3D11DeviceContext@@I@std@@@std@@@std@@@2@ABQAUID3D11DeviceContext@@@Z ; std::_Hash<std::_Umap_traits<ID3D11DeviceContext *,unsigned int,std::_Uhash_compare<ID3D11DeviceContext *,std::hash<ID3D11DeviceContext *>,std::equal_to<ID3D11DeviceContext *> >,std::allocator<std::pair<ID3D11DeviceContext * const,unsigned int> >,0> >::find
PUBLIC	?lower_bound@?$_Hash@V?$_Umap_traits@PAUID3D11DeviceContext@@IV?$_Uhash_compare@PAUID3D11DeviceContext@@U?$hash@PAUID3D11DeviceContext@@@std@@U?$equal_to@PAUID3D11DeviceContext@@@3@@std@@V?$allocator@U?$pair@QAUID3D11DeviceContext@@I@std@@@3@$0A@@std@@@std@@QAE?AV?$_List_iterator@V?$_List_val@U?$_List_simple_types@U?$pair@QAUID3D11DeviceContext@@I@std@@@std@@@std@@@2@ABQAUID3D11DeviceContext@@@Z ; std::_Hash<std::_Umap_traits<ID3D11DeviceContext *,unsigned int,std::_Uhash_compare<ID3D11DeviceContext *,std::hash<ID3D11DeviceContext *>,std::equal_to<ID3D11DeviceContext *> >,std::allocator<std::pair<ID3D11DeviceContext * const,unsigned int> >,0> >::lower_bound
PUBLIC	?_Destroy_if_not_nil@?$_Hash@V?$_Umap_traits@PAUID3D11DeviceContext@@IV?$_Uhash_compare@PAUID3D11DeviceContext@@U?$hash@PAUID3D11DeviceContext@@@std@@U?$equal_to@PAUID3D11DeviceContext@@@3@@std@@V?$allocator@U?$pair@QAUID3D11DeviceContext@@I@std@@@3@$0A@@std@@@std@@IAEXV?$_List_unchecked_iterator@V?$_List_val@U?$_List_simple_types@U?$pair@QAUID3D11DeviceContext@@I@std@@@std@@@std@@@2@@Z ; std::_Hash<std::_Umap_traits<ID3D11DeviceContext *,unsigned int,std::_Uhash_compare<ID3D11DeviceContext *,std::hash<ID3D11DeviceContext *>,std::equal_to<ID3D11DeviceContext *> >,std::allocator<std::pair<ID3D11DeviceContext * const,unsigned int> >,0> >::_Destroy_if_not_nil
PUBLIC	?_Vec_lo@?$_Hash@V?$_Umap_traits@PAUID3D11DeviceContext@@IV?$_Uhash_compare@PAUID3D11DeviceContext@@U?$hash@PAUID3D11DeviceContext@@@std@@U?$equal_to@PAUID3D11DeviceContext@@@3@@std@@V?$allocator@U?$pair@QAUID3D11DeviceContext@@I@std@@@3@$0A@@std@@@std@@IAEAAV?$_List_unchecked_iterator@V?$_List_val@U?$_List_simple_types@U?$pair@QAUID3D11DeviceContext@@I@std@@@std@@@std@@@2@I@Z ; std::_Hash<std::_Umap_traits<ID3D11DeviceContext *,unsigned int,std::_Uhash_compare<ID3D11DeviceContext *,std::hash<ID3D11DeviceContext *>,std::equal_to<ID3D11DeviceContext *> >,std::allocator<std::pair<ID3D11DeviceContext * const,unsigned int> >,0> >::_Vec_lo
PUBLIC	?_Vec_hi@?$_Hash@V?$_Umap_traits@PAUID3D11DeviceContext@@IV?$_Uhash_compare@PAUID3D11DeviceContext@@U?$hash@PAUID3D11DeviceContext@@@std@@U?$equal_to@PAUID3D11DeviceContext@@@3@@std@@V?$allocator@U?$pair@QAUID3D11DeviceContext@@I@std@@@3@$0A@@std@@@std@@IAEAAV?$_List_unchecked_iterator@V?$_List_val@U?$_List_simple_types@U?$pair@QAUID3D11DeviceContext@@I@std@@@std@@@std@@@2@I@Z ; std::_Hash<std::_Umap_traits<ID3D11DeviceContext *,unsigned int,std::_Uhash_compare<ID3D11DeviceContext *,std::hash<ID3D11DeviceContext *>,std::equal_to<ID3D11DeviceContext *> >,std::allocator<std::pair<ID3D11DeviceContext * const,unsigned int> >,0> >::_Vec_hi
PUBLIC	?_Begin@?$_Hash@V?$_Umap_traits@PAUID3D11DeviceContext@@IV?$_Uhash_compare@PAUID3D11DeviceContext@@U?$hash@PAUID3D11DeviceContext@@@std@@U?$equal_to@PAUID3D11DeviceContext@@@3@@std@@V?$allocator@U?$pair@QAUID3D11DeviceContext@@I@std@@@3@$0A@@std@@@std@@IAE?AV?$_List_unchecked_iterator@V?$_List_val@U?$_List_simple_types@U?$pair@QAUID3D11DeviceContext@@I@std@@@std@@@std@@@2@I@Z ; std::_Hash<std::_Umap_traits<ID3D11DeviceContext *,unsigned int,std::_Uhash_compare<ID3D11DeviceContext *,std::hash<ID3D11DeviceContext *>,std::equal_to<ID3D11DeviceContext *> >,std::allocator<std::pair<ID3D11DeviceContext * const,unsigned int> >,0> >::_Begin
PUBLIC	?_End@?$_Hash@V?$_Umap_traits@PAUID3D11DeviceContext@@IV?$_Uhash_compare@PAUID3D11DeviceContext@@U?$hash@PAUID3D11DeviceContext@@@std@@U?$equal_to@PAUID3D11DeviceContext@@@3@@std@@V?$allocator@U?$pair@QAUID3D11DeviceContext@@I@std@@@3@$0A@@std@@@std@@IAE?AV?$_List_unchecked_iterator@V?$_List_val@U?$_List_simple_types@U?$pair@QAUID3D11DeviceContext@@I@std@@@std@@@std@@@2@I@Z ; std::_Hash<std::_Umap_traits<ID3D11DeviceContext *,unsigned int,std::_Uhash_compare<ID3D11DeviceContext *,std::hash<ID3D11DeviceContext *>,std::equal_to<ID3D11DeviceContext *> >,std::allocator<std::pair<ID3D11DeviceContext * const,unsigned int> >,0> >::_End
PUBLIC	?_Erase_bucket@?$_Hash@V?$_Umap_traits@PAUID3D11DeviceContext@@IV?$_Uhash_compare@PAUID3D11DeviceContext@@U?$hash@PAUID3D11DeviceContext@@@std@@U?$equal_to@PAUID3D11DeviceContext@@@3@@std@@V?$allocator@U?$pair@QAUID3D11DeviceContext@@I@std@@@3@$0A@@std@@@std@@IAEXV?$_List_iterator@V?$_List_val@U?$_List_simple_types@U?$pair@QAUID3D11DeviceContext@@I@std@@@std@@@std@@@2@I@Z ; std::_Hash<std::_Umap_traits<ID3D11DeviceContext *,unsigned int,std::_Uhash_compare<ID3D11DeviceContext *,std::hash<ID3D11DeviceContext *>,std::equal_to<ID3D11DeviceContext *> >,std::allocator<std::pair<ID3D11DeviceContext * const,unsigned int> >,0> >::_Erase_bucket
PUBLIC	?_Insert_bucket@?$_Hash@V?$_Umap_traits@PAUID3D11DeviceContext@@IV?$_Uhash_compare@PAUID3D11DeviceContext@@U?$hash@PAUID3D11DeviceContext@@@std@@U?$equal_to@PAUID3D11DeviceContext@@@3@@std@@V?$allocator@U?$pair@QAUID3D11DeviceContext@@I@std@@@3@$0A@@std@@@std@@IAEXV?$_List_unchecked_iterator@V?$_List_val@U?$_List_simple_types@U?$pair@QAUID3D11DeviceContext@@I@std@@@std@@@std@@@2@0I@Z ; std::_Hash<std::_Umap_traits<ID3D11DeviceContext *,unsigned int,std::_Uhash_compare<ID3D11DeviceContext *,std::hash<ID3D11DeviceContext *>,std::equal_to<ID3D11DeviceContext *> >,std::allocator<std::pair<ID3D11DeviceContext * const,unsigned int> >,0> >::_Insert_bucket
PUBLIC	?_Hashval@?$_Hash@V?$_Umap_traits@PAUID3D11DeviceContext@@IV?$_Uhash_compare@PAUID3D11DeviceContext@@U?$hash@PAUID3D11DeviceContext@@@std@@U?$equal_to@PAUID3D11DeviceContext@@@3@@std@@V?$allocator@U?$pair@QAUID3D11DeviceContext@@I@std@@@3@$0A@@std@@@std@@IBEIABQAUID3D11DeviceContext@@@Z ; std::_Hash<std::_Umap_traits<ID3D11DeviceContext *,unsigned int,std::_Uhash_compare<ID3D11DeviceContext *,std::hash<ID3D11DeviceContext *>,std::equal_to<ID3D11DeviceContext *> >,std::allocator<std::pair<ID3D11DeviceContext * const,unsigned int> >,0> >::_Hashval
PUBLIC	?_Init@?$_Hash@V?$_Umap_traits@PAUID3D11DeviceContext@@IV?$_Uhash_compare@PAUID3D11DeviceContext@@U?$hash@PAUID3D11DeviceContext@@@std@@U?$equal_to@PAUID3D11DeviceContext@@@3@@std@@V?$allocator@U?$pair@QAUID3D11DeviceContext@@I@std@@@3@$0A@@std@@@std@@IAEXI@Z ; std::_Hash<std::_Umap_traits<ID3D11DeviceContext *,unsigned int,std::_Uhash_compare<ID3D11DeviceContext *,std::hash<ID3D11DeviceContext *>,std::equal_to<ID3D11DeviceContext *> >,std::allocator<std::pair<ID3D11DeviceContext * const,unsigned int> >,0> >::_Init
PUBLIC	?_Check_size@?$_Hash@V?$_Umap_traits@PAUID3D11DeviceContext@@IV?$_Uhash_compare@PAUID3D11DeviceContext@@U?$hash@PAUID3D11DeviceContext@@@std@@U?$equal_to@PAUID3D11DeviceContext@@@3@@std@@V?$allocator@U?$pair@QAUID3D11DeviceContext@@I@std@@@3@$0A@@std@@@std@@IAEXXZ ; std::_Hash<std::_Umap_traits<ID3D11DeviceContext *,unsigned int,std::_Uhash_compare<ID3D11DeviceContext *,std::hash<ID3D11DeviceContext *>,std::equal_to<ID3D11DeviceContext *> >,std::allocator<std::pair<ID3D11DeviceContext * const,unsigned int> >,0> >::_Check_size
PUBLIC	?_Reinsert@?$_Hash@V?$_Umap_traits@PAUID3D11DeviceContext@@IV?$_Uhash_compare@PAUID3D11DeviceContext@@U?$hash@PAUID3D11DeviceContext@@@std@@U?$equal_to@PAUID3D11DeviceContext@@@3@@std@@V?$allocator@U?$pair@QAUID3D11DeviceContext@@I@std@@@3@$0A@@std@@@std@@IAEXXZ ; std::_Hash<std::_Umap_traits<ID3D11DeviceContext *,unsigned int,std::_Uhash_compare<ID3D11DeviceContext *,std::hash<ID3D11DeviceContext *>,std::equal_to<ID3D11DeviceContext *> >,std::allocator<std::pair<ID3D11DeviceContext * const,unsigned int> >,0> >::_Reinsert
PUBLIC	?_Max_bucket_size@?$_Hash@V?$_Umap_traits@PAUID3D11DeviceContext@@IV?$_Uhash_compare@PAUID3D11DeviceContext@@U?$hash@PAUID3D11DeviceContext@@@std@@U?$equal_to@PAUID3D11DeviceContext@@@3@@std@@V?$allocator@U?$pair@QAUID3D11DeviceContext@@I@std@@@3@$0A@@std@@@std@@IBEABMXZ ; std::_Hash<std::_Umap_traits<ID3D11DeviceContext *,unsigned int,std::_Uhash_compare<ID3D11DeviceContext *,std::hash<ID3D11DeviceContext *>,std::equal_to<ID3D11DeviceContext *> >,std::allocator<std::pair<ID3D11DeviceContext * const,unsigned int> >,0> >::_Max_bucket_size
PUBLIC	?deallocate@?$allocator@V?$_List_unchecked_iterator@V?$_List_val@U?$_List_simple_types@U?$pair@QAUID3D11DeviceContext@@I@std@@@std@@@std@@@std@@@std@@QAEXPAV?$_List_unchecked_iterator@V?$_List_val@U?$_List_simple_types@U?$pair@QAUID3D11DeviceContext@@I@std@@@std@@@std@@@2@I@Z ; std::allocator<std::_List_unchecked_iterator<std::_List_val<std::_List_simple_types<std::pair<ID3D11DeviceContext * const,unsigned int> > > > >::deallocate
PUBLIC	?allocate@?$allocator@V?$_List_unchecked_iterator@V?$_List_val@U?$_List_simple_types@U?$pair@QAUID3D11DeviceContext@@I@std@@@std@@@std@@@std@@@std@@QAEPAV?$_List_unchecked_iterator@V?$_List_val@U?$_List_simple_types@U?$pair@QAUID3D11DeviceContext@@I@std@@@std@@@std@@@2@I@Z ; std::allocator<std::_List_unchecked_iterator<std::_List_val<std::_List_simple_types<std::pair<ID3D11DeviceContext * const,unsigned int> > > > >::allocate
PUBLIC	?max_size@?$allocator@V?$_List_unchecked_iterator@V?$_List_val@U?$_List_simple_types@U?$pair@QAUID3D11DeviceContext@@I@std@@@std@@@std@@@std@@@std@@QBEIXZ ; std::allocator<std::_List_unchecked_iterator<std::_List_val<std::_List_simple_types<std::pair<ID3D11DeviceContext * const,unsigned int> > > > >::max_size
PUBLIC	?max_size@?$allocator_traits@V?$allocator@V?$_List_unchecked_iterator@V?$_List_val@U?$_List_simple_types@U?$pair@QAUID3D11DeviceContext@@I@std@@@std@@@std@@@std@@@std@@@std@@SAIABV?$allocator@V?$_List_unchecked_iterator@V?$_List_val@U?$_List_simple_types@U?$pair@QAUID3D11DeviceContext@@I@std@@@std@@@std@@@std@@@2@@Z ; std::allocator_traits<std::allocator<std::_List_unchecked_iterator<std::_List_val<std::_List_simple_types<std::pair<ID3D11DeviceContext * const,unsigned int> > > > > >::max_size
PUBLIC	?allocate@?$_Wrap_alloc@V?$allocator@V?$_List_unchecked_iterator@V?$_List_val@U?$_List_simple_types@U?$pair@QAUID3D11DeviceContext@@I@std@@@std@@@std@@@std@@@std@@@std@@QAEPAV?$_List_unchecked_iterator@V?$_List_val@U?$_List_simple_types@U?$pair@QAUID3D11DeviceContext@@I@std@@@std@@@std@@@2@I@Z ; std::_Wrap_alloc<std::allocator<std::_List_unchecked_iterator<std::_List_val<std::_List_simple_types<std::pair<ID3D11DeviceContext * const,unsigned int> > > > > >::allocate
PUBLIC	?deallocate@?$_Wrap_alloc@V?$allocator@V?$_List_unchecked_iterator@V?$_List_val@U?$_List_simple_types@U?$pair@QAUID3D11DeviceContext@@I@std@@@std@@@std@@@std@@@std@@@std@@QAEXPAV?$_List_unchecked_iterator@V?$_List_val@U?$_List_simple_types@U?$pair@QAUID3D11DeviceContext@@I@std@@@std@@@std@@@2@I@Z ; std::_Wrap_alloc<std::allocator<std::_List_unchecked_iterator<std::_List_val<std::_List_simple_types<std::pair<ID3D11DeviceContext * const,unsigned int> > > > > >::deallocate
PUBLIC	?max_size@?$_Wrap_alloc@V?$allocator@V?$_List_unchecked_iterator@V?$_List_val@U?$_List_simple_types@U?$pair@QAUID3D11DeviceContext@@I@std@@@std@@@std@@@std@@@std@@@std@@QBEIU_Nil@2@@Z ; std::_Wrap_alloc<std::allocator<std::_List_unchecked_iterator<std::_List_val<std::_List_simple_types<std::pair<ID3D11DeviceContext * const,unsigned int> > > > > >::max_size
PUBLIC	?max_size@?$allocator_traits@U?$_Wrap_alloc@V?$allocator@V?$_List_unchecked_iterator@V?$_List_val@U?$_List_simple_types@U?$pair@QAUID3D11DeviceContext@@I@std@@@std@@@std@@@std@@@std@@@std@@@std@@SAIABU?$_Wrap_alloc@V?$allocator@V?$_List_unchecked_iterator@V?$_List_val@U?$_List_simple_types@U?$pair@QAUID3D11DeviceContext@@I@std@@@std@@@std@@@std@@@std@@@2@@Z ; std::allocator_traits<std::_Wrap_alloc<std::allocator<std::_List_unchecked_iterator<std::_List_val<std::_List_simple_types<std::pair<ID3D11DeviceContext * const,unsigned int> > > > > > >::max_size
PUBLIC	?allocate@?$_Wrap_alloc@U?$_Wrap_alloc@V?$allocator@V?$_List_unchecked_iterator@V?$_List_val@U?$_List_simple_types@U?$pair@QAUID3D11DeviceContext@@I@std@@@std@@@std@@@std@@@std@@@std@@@std@@QAEPAV?$_List_unchecked_iterator@V?$_List_val@U?$_List_simple_types@U?$pair@QAUID3D11DeviceContext@@I@std@@@std@@@std@@@2@I@Z ; std::_Wrap_alloc<std::_Wrap_alloc<std::allocator<std::_List_unchecked_iterator<std::_List_val<std::_List_simple_types<std::pair<ID3D11DeviceContext * const,unsigned int> > > > > > >::allocate
PUBLIC	?deallocate@?$_Wrap_alloc@U?$_Wrap_alloc@V?$allocator@V?$_List_unchecked_iterator@V?$_List_val@U?$_List_simple_types@U?$pair@QAUID3D11DeviceContext@@I@std@@@std@@@std@@@std@@@std@@@std@@@std@@QAEXPAV?$_List_unchecked_iterator@V?$_List_val@U?$_List_simple_types@U?$pair@QAUID3D11DeviceContext@@I@std@@@std@@@std@@@2@I@Z ; std::_Wrap_alloc<std::_Wrap_alloc<std::allocator<std::_List_unchecked_iterator<std::_List_val<std::_List_simple_types<std::pair<ID3D11DeviceContext * const,unsigned int> > > > > > >::deallocate
PUBLIC	?max_size@?$_Wrap_alloc@U?$_Wrap_alloc@V?$allocator@V?$_List_unchecked_iterator@V?$_List_val@U?$_List_simple_types@U?$pair@QAUID3D11DeviceContext@@I@std@@@std@@@std@@@std@@@std@@@std@@@std@@QBEIU_Nil@2@@Z ; std::_Wrap_alloc<std::_Wrap_alloc<std::allocator<std::_List_unchecked_iterator<std::_List_val<std::_List_simple_types<std::pair<ID3D11DeviceContext * const,unsigned int> > > > > > >::max_size
PUBLIC	?_Orphan_all@?$_Vector_alloc@U?$_Vec_base_types@V?$_List_unchecked_iterator@V?$_List_val@U?$_List_simple_types@U?$pair@QAUID3D11DeviceContext@@I@std@@@std@@@std@@@std@@U?$_Wrap_alloc@V?$allocator@V?$_List_unchecked_iterator@V?$_List_val@U?$_List_simple_types@U?$pair@QAUID3D11DeviceContext@@I@std@@@std@@@std@@@std@@@std@@@2@@std@@@std@@QAEXXZ ; std::_Vector_alloc<std::_Vec_base_types<std::_List_unchecked_iterator<std::_List_val<std::_List_simple_types<std::pair<ID3D11DeviceContext * const,unsigned int> > > >,std::_Wrap_alloc<std::allocator<std::_List_unchecked_iterator<std::_List_val<std::_List_simple_types<std::pair<ID3D11DeviceContext * const,unsigned int> > > > > > > >::_Orphan_all
PUBLIC	?_Getal@?$_Vector_alloc@U?$_Vec_base_types@V?$_List_unchecked_iterator@V?$_List_val@U?$_List_simple_types@U?$pair@QAUID3D11DeviceContext@@I@std@@@std@@@std@@@std@@U?$_Wrap_alloc@V?$allocator@V?$_List_unchecked_iterator@V?$_List_val@U?$_List_simple_types@U?$pair@QAUID3D11DeviceContext@@I@std@@@std@@@std@@@std@@@std@@@2@@std@@@std@@QAEAAU?$_Wrap_alloc@U?$_Wrap_alloc@V?$allocator@V?$_List_unchecked_iterator@V?$_List_val@U?$_List_simple_types@U?$pair@QAUID3D11DeviceContext@@I@std@@@std@@@std@@@std@@@std@@@std@@@2@XZ ; std::_Vector_alloc<std::_Vec_base_types<std::_List_unchecked_iterator<std::_List_val<std::_List_simple_types<std::pair<ID3D11DeviceContext * const,unsigned int> > > >,std::_Wrap_alloc<std::allocator<std::_List_unchecked_iterator<std::_List_val<std::_List_simple_types<std::pair<ID3D11DeviceContext * const,unsigned int> > > > > > > >::_Getal
PUBLIC	?_Getal@?$_Vector_alloc@U?$_Vec_base_types@V?$_List_unchecked_iterator@V?$_List_val@U?$_List_simple_types@U?$pair@QAUID3D11DeviceContext@@I@std@@@std@@@std@@@std@@U?$_Wrap_alloc@V?$allocator@V?$_List_unchecked_iterator@V?$_List_val@U?$_List_simple_types@U?$pair@QAUID3D11DeviceContext@@I@std@@@std@@@std@@@std@@@std@@@2@@std@@@std@@QBEABU?$_Wrap_alloc@U?$_Wrap_alloc@V?$allocator@V?$_List_unchecked_iterator@V?$_List_val@U?$_List_simple_types@U?$pair@QAUID3D11DeviceContext@@I@std@@@std@@@std@@@std@@@std@@@std@@@2@XZ ; std::_Vector_alloc<std::_Vec_base_types<std::_List_unchecked_iterator<std::_List_val<std::_List_simple_types<std::pair<ID3D11DeviceContext * const,unsigned int> > > >,std::_Wrap_alloc<std::allocator<std::_List_unchecked_iterator<std::_List_val<std::_List_simple_types<std::pair<ID3D11DeviceContext * const,unsigned int> > > > > > > >::_Getal
PUBLIC	?_Get_data@?$_Vector_alloc@U?$_Vec_base_types@V?$_List_unchecked_iterator@V?$_List_val@U?$_List_simple_types@U?$pair@QAUID3D11DeviceContext@@I@std@@@std@@@std@@@std@@U?$_Wrap_alloc@V?$allocator@V?$_List_unchecked_iterator@V?$_List_val@U?$_List_simple_types@U?$pair@QAUID3D11DeviceContext@@I@std@@@std@@@std@@@std@@@std@@@2@@std@@@std@@QAEAAV?$_Vector_val@U?$_Simple_types@V?$_List_unchecked_iterator@V?$_List_val@U?$_List_simple_types@U?$pair@QAUID3D11DeviceContext@@I@std@@@std@@@std@@@std@@@std@@@2@XZ ; std::_Vector_alloc<std::_Vec_base_types<std::_List_unchecked_iterator<std::_List_val<std::_List_simple_types<std::pair<ID3D11DeviceContext * const,unsigned int> > > >,std::_Wrap_alloc<std::allocator<std::_List_unchecked_iterator<std::_List_val<std::_List_simple_types<std::pair<ID3D11DeviceContext * const,unsigned int> > > > > > > >::_Get_data
PUBLIC	?_Get_data@?$_Vector_alloc@U?$_Vec_base_types@V?$_List_unchecked_iterator@V?$_List_val@U?$_List_simple_types@U?$pair@QAUID3D11DeviceContext@@I@std@@@std@@@std@@@std@@U?$_Wrap_alloc@V?$allocator@V?$_List_unchecked_iterator@V?$_List_val@U?$_List_simple_types@U?$pair@QAUID3D11DeviceContext@@I@std@@@std@@@std@@@std@@@std@@@2@@std@@@std@@QBEABV?$_Vector_val@U?$_Simple_types@V?$_List_unchecked_iterator@V?$_List_val@U?$_List_simple_types@U?$pair@QAUID3D11DeviceContext@@I@std@@@std@@@std@@@std@@@std@@@2@XZ ; std::_Vector_alloc<std::_Vec_base_types<std::_List_unchecked_iterator<std::_List_val<std::_List_simple_types<std::pair<ID3D11DeviceContext * const,unsigned int> > > >,std::_Wrap_alloc<std::allocator<std::_List_unchecked_iterator<std::_List_val<std::_List_simple_types<std::pair<ID3D11DeviceContext * const,unsigned int> > > > > > > >::_Get_data
PUBLIC	?_Myfirst@?$_Vector_alloc@U?$_Vec_base_types@V?$_List_unchecked_iterator@V?$_List_val@U?$_List_simple_types@U?$pair@QAUID3D11DeviceContext@@I@std@@@std@@@std@@@std@@U?$_Wrap_alloc@V?$allocator@V?$_List_unchecked_iterator@V?$_List_val@U?$_List_simple_types@U?$pair@QAUID3D11DeviceContext@@I@std@@@std@@@std@@@std@@@std@@@2@@std@@@std@@QAEAAPAV?$_List_unchecked_iterator@V?$_List_val@U?$_List_simple_types@U?$pair@QAUID3D11DeviceContext@@I@std@@@std@@@std@@@2@XZ ; std::_Vector_alloc<std::_Vec_base_types<std::_List_unchecked_iterator<std::_List_val<std::_List_simple_types<std::pair<ID3D11DeviceContext * const,unsigned int> > > >,std::_Wrap_alloc<std::allocator<std::_List_unchecked_iterator<std::_List_val<std::_List_simple_types<std::pair<ID3D11DeviceContext * const,unsigned int> > > > > > > >::_Myfirst
PUBLIC	?_Myfirst@?$_Vector_alloc@U?$_Vec_base_types@V?$_List_unchecked_iterator@V?$_List_val@U?$_List_simple_types@U?$pair@QAUID3D11DeviceContext@@I@std@@@std@@@std@@@std@@U?$_Wrap_alloc@V?$allocator@V?$_List_unchecked_iterator@V?$_List_val@U?$_List_simple_types@U?$pair@QAUID3D11DeviceContext@@I@std@@@std@@@std@@@std@@@std@@@2@@std@@@std@@QBEABQAV?$_List_unchecked_iterator@V?$_List_val@U?$_List_simple_types@U?$pair@QAUID3D11DeviceContext@@I@std@@@std@@@std@@@2@XZ ; std::_Vector_alloc<std::_Vec_base_types<std::_List_unchecked_iterator<std::_List_val<std::_List_simple_types<std::pair<ID3D11DeviceContext * const,unsigned int> > > >,std::_Wrap_alloc<std::allocator<std::_List_unchecked_iterator<std::_List_val<std::_List_simple_types<std::pair<ID3D11DeviceContext * const,unsigned int> > > > > > > >::_Myfirst
PUBLIC	?_Mylast@?$_Vector_alloc@U?$_Vec_base_types@V?$_List_unchecked_iterator@V?$_List_val@U?$_List_simple_types@U?$pair@QAUID3D11DeviceContext@@I@std@@@std@@@std@@@std@@U?$_Wrap_alloc@V?$allocator@V?$_List_unchecked_iterator@V?$_List_val@U?$_List_simple_types@U?$pair@QAUID3D11DeviceContext@@I@std@@@std@@@std@@@std@@@std@@@2@@std@@@std@@QAEAAPAV?$_List_unchecked_iterator@V?$_List_val@U?$_List_simple_types@U?$pair@QAUID3D11DeviceContext@@I@std@@@std@@@std@@@2@XZ ; std::_Vector_alloc<std::_Vec_base_types<std::_List_unchecked_iterator<std::_List_val<std::_List_simple_types<std::pair<ID3D11DeviceContext * const,unsigned int> > > >,std::_Wrap_alloc<std::allocator<std::_List_unchecked_iterator<std::_List_val<std::_List_simple_types<std::pair<ID3D11DeviceContext * const,unsigned int> > > > > > > >::_Mylast
PUBLIC	?_Mylast@?$_Vector_alloc@U?$_Vec_base_types@V?$_List_unchecked_iterator@V?$_List_val@U?$_List_simple_types@U?$pair@QAUID3D11DeviceContext@@I@std@@@std@@@std@@@std@@U?$_Wrap_alloc@V?$allocator@V?$_List_unchecked_iterator@V?$_List_val@U?$_List_simple_types@U?$pair@QAUID3D11DeviceContext@@I@std@@@std@@@std@@@std@@@std@@@2@@std@@@std@@QBEABQAV?$_List_unchecked_iterator@V?$_List_val@U?$_List_simple_types@U?$pair@QAUID3D11DeviceContext@@I@std@@@std@@@std@@@2@XZ ; std::_Vector_alloc<std::_Vec_base_types<std::_List_unchecked_iterator<std::_List_val<std::_List_simple_types<std::pair<ID3D11DeviceContext * const,unsigned int> > > >,std::_Wrap_alloc<std::allocator<std::_List_unchecked_iterator<std::_List_val<std::_List_simple_types<std::pair<ID3D11DeviceContext * const,unsigned int> > > > > > > >::_Mylast
PUBLIC	?_Myend@?$_Vector_alloc@U?$_Vec_base_types@V?$_List_unchecked_iterator@V?$_List_val@U?$_List_simple_types@U?$pair@QAUID3D11DeviceContext@@I@std@@@std@@@std@@@std@@U?$_Wrap_alloc@V?$allocator@V?$_List_unchecked_iterator@V?$_List_val@U?$_List_simple_types@U?$pair@QAUID3D11DeviceContext@@I@std@@@std@@@std@@@std@@@std@@@2@@std@@@std@@QAEAAPAV?$_List_unchecked_iterator@V?$_List_val@U?$_List_simple_types@U?$pair@QAUID3D11DeviceContext@@I@std@@@std@@@std@@@2@XZ ; std::_Vector_alloc<std::_Vec_base_types<std::_List_unchecked_iterator<std::_List_val<std::_List_simple_types<std::pair<ID3D11DeviceContext * const,unsigned int> > > >,std::_Wrap_alloc<std::allocator<std::_List_unchecked_iterator<std::_List_val<std::_List_simple_types<std::pair<ID3D11DeviceContext * const,unsigned int> > > > > > > >::_Myend
PUBLIC	?_Myend@?$_Vector_alloc@U?$_Vec_base_types@V?$_List_unchecked_iterator@V?$_List_val@U?$_List_simple_types@U?$pair@QAUID3D11DeviceContext@@I@std@@@std@@@std@@@std@@U?$_Wrap_alloc@V?$allocator@V?$_List_unchecked_iterator@V?$_List_val@U?$_List_simple_types@U?$pair@QAUID3D11DeviceContext@@I@std@@@std@@@std@@@std@@@std@@@2@@std@@@std@@QBEABQAV?$_List_unchecked_iterator@V?$_List_val@U?$_List_simple_types@U?$pair@QAUID3D11DeviceContext@@I@std@@@std@@@std@@@2@XZ ; std::_Vector_alloc<std::_Vec_base_types<std::_List_unchecked_iterator<std::_List_val<std::_List_simple_types<std::pair<ID3D11DeviceContext * const,unsigned int> > > >,std::_Wrap_alloc<std::allocator<std::_List_unchecked_iterator<std::_List_val<std::_List_simple_types<std::pair<ID3D11DeviceContext * const,unsigned int> > > > > > > >::_Myend
PUBLIC	?_Get_first@?$_Compressed_pair@U?$_Wrap_alloc@U?$_Wrap_alloc@V?$allocator@V?$_List_unchecked_iterator@V?$_List_val@U?$_List_simple_types@U?$pair@QAUID3D11DeviceContext@@I@std@@@std@@@std@@@std@@@std@@@std@@@std@@V?$_Vector_val@U?$_Simple_types@V?$_List_unchecked_iterator@V?$_List_val@U?$_List_simple_types@U?$pair@QAUID3D11DeviceContext@@I@std@@@std@@@std@@@std@@@std@@@2@$00@std@@QAEAAU?$_Wrap_alloc@U?$_Wrap_alloc@V?$allocator@V?$_List_unchecked_iterator@V?$_List_val@U?$_List_simple_types@U?$pair@QAUID3D11DeviceContext@@I@std@@@std@@@std@@@std@@@std@@@std@@@2@XZ ; std::_Compressed_pair<std::_Wrap_alloc<std::_Wrap_alloc<std::allocator<std::_List_unchecked_iterator<std::_List_val<std::_List_simple_types<std::pair<ID3D11DeviceContext * const,unsigned int> > > > > > >,std::_Vector_val<std::_Simple_types<std::_List_unchecked_iterator<std::_List_val<std::_List_simple_types<std::pair<ID3D11DeviceContext * const,unsigned int> > > > > >,1>::_Get_first
PUBLIC	?_Get_first@?$_Compressed_pair@U?$_Wrap_alloc@U?$_Wrap_alloc@V?$allocator@V?$_List_unchecked_iterator@V?$_List_val@U?$_List_simple_types@U?$pair@QAUID3D11DeviceContext@@I@std@@@std@@@std@@@std@@@std@@@std@@@std@@V?$_Vector_val@U?$_Simple_types@V?$_List_unchecked_iterator@V?$_List_val@U?$_List_simple_types@U?$pair@QAUID3D11DeviceContext@@I@std@@@std@@@std@@@std@@@std@@@2@$00@std@@QBEABU?$_Wrap_alloc@U?$_Wrap_alloc@V?$allocator@V?$_List_unchecked_iterator@V?$_List_val@U?$_List_simple_types@U?$pair@QAUID3D11DeviceContext@@I@std@@@std@@@std@@@std@@@std@@@std@@@2@XZ ; std::_Compressed_pair<std::_Wrap_alloc<std::_Wrap_alloc<std::allocator<std::_List_unchecked_iterator<std::_List_val<std::_List_simple_types<std::pair<ID3D11DeviceContext * const,unsigned int> > > > > > >,std::_Vector_val<std::_Simple_types<std::_List_unchecked_iterator<std::_List_val<std::_List_simple_types<std::pair<ID3D11DeviceContext * const,unsigned int> > > > > >,1>::_Get_first
PUBLIC	?_Get_second@?$_Compressed_pair@U?$_Wrap_alloc@U?$_Wrap_alloc@V?$allocator@V?$_List_unchecked_iterator@V?$_List_val@U?$_List_simple_types@U?$pair@QAUID3D11DeviceContext@@I@std@@@std@@@std@@@std@@@std@@@std@@@std@@V?$_Vector_val@U?$_Simple_types@V?$_List_unchecked_iterator@V?$_List_val@U?$_List_simple_types@U?$pair@QAUID3D11DeviceContext@@I@std@@@std@@@std@@@std@@@std@@@2@$00@std@@QAEAAV?$_Vector_val@U?$_Simple_types@V?$_List_unchecked_iterator@V?$_List_val@U?$_List_simple_types@U?$pair@QAUID3D11DeviceContext@@I@std@@@std@@@std@@@std@@@std@@@2@XZ ; std::_Compressed_pair<std::_Wrap_alloc<std::_Wrap_alloc<std::allocator<std::_List_unchecked_iterator<std::_List_val<std::_List_simple_types<std::pair<ID3D11DeviceContext * const,unsigned int> > > > > > >,std::_Vector_val<std::_Simple_types<std::_List_unchecked_iterator<std::_List_val<std::_List_simple_types<std::pair<ID3D11DeviceContext * const,unsigned int> > > > > >,1>::_Get_second
PUBLIC	?_Get_second@?$_Compressed_pair@U?$_Wrap_alloc@U?$_Wrap_alloc@V?$allocator@V?$_List_unchecked_iterator@V?$_List_val@U?$_List_simple_types@U?$pair@QAUID3D11DeviceContext@@I@std@@@std@@@std@@@std@@@std@@@std@@@std@@V?$_Vector_val@U?$_Simple_types@V?$_List_unchecked_iterator@V?$_List_val@U?$_List_simple_types@U?$pair@QAUID3D11DeviceContext@@I@std@@@std@@@std@@@std@@@std@@@2@$00@std@@QBEABV?$_Vector_val@U?$_Simple_types@V?$_List_unchecked_iterator@V?$_List_val@U?$_List_simple_types@U?$pair@QAUID3D11DeviceContext@@I@std@@@std@@@std@@@std@@@std@@@2@XZ ; std::_Compressed_pair<std::_Wrap_alloc<std::_Wrap_alloc<std::allocator<std::_List_unchecked_iterator<std::_List_val<std::_List_simple_types<std::pair<ID3D11DeviceContext * const,unsigned int> > > > > > >,std::_Vector_val<std::_Simple_types<std::_List_unchecked_iterator<std::_List_val<std::_List_simple_types<std::pair<ID3D11DeviceContext * const,unsigned int> > > > > >,1>::_Get_second
PUBLIC	?assign@?$vector@V?$_List_unchecked_iterator@V?$_List_val@U?$_List_simple_types@U?$pair@QAUID3D11DeviceContext@@I@std@@@std@@@std@@@std@@U?$_Wrap_alloc@V?$allocator@V?$_List_unchecked_iterator@V?$_List_val@U?$_List_simple_types@U?$pair@QAUID3D11DeviceContext@@I@std@@@std@@@std@@@std@@@std@@@2@@std@@QAEXIABV?$_List_unchecked_iterator@V?$_List_val@U?$_List_simple_types@U?$pair@QAUID3D11DeviceContext@@I@std@@@std@@@std@@@2@@Z ; std::vector<std::_List_unchecked_iterator<std::_List_val<std::_List_simple_types<std::pair<ID3D11DeviceContext * const,unsigned int> > > >,std::_Wrap_alloc<std::allocator<std::_List_unchecked_iterator<std::_List_val<std::_List_simple_types<std::pair<ID3D11DeviceContext * const,unsigned int> > > > > > >::assign
PUBLIC	?_Reallocate_exactly@?$vector@V?$_List_unchecked_iterator@V?$_List_val@U?$_List_simple_types@U?$pair@QAUID3D11DeviceContext@@I@std@@@std@@@std@@@std@@U?$_Wrap_alloc@V?$allocator@V?$_List_unchecked_iterator@V?$_List_val@U?$_List_simple_types@U?$pair@QAUID3D11DeviceContext@@I@std@@@std@@@std@@@std@@@std@@@2@@std@@AAEXI@Z ; std::vector<std::_List_unchecked_iterator<std::_List_val<std::_List_simple_types<std::pair<ID3D11DeviceContext * const,unsigned int> > > >,std::_Wrap_alloc<std::allocator<std::_List_unchecked_iterator<std::_List_val<std::_List_simple_types<std::pair<ID3D11DeviceContext * const,unsigned int> > > > > > >::_Reallocate_exactly
PUBLIC	?reserve@?$vector@V?$_List_unchecked_iterator@V?$_List_val@U?$_List_simple_types@U?$pair@QAUID3D11DeviceContext@@I@std@@@std@@@std@@@std@@U?$_Wrap_alloc@V?$allocator@V?$_List_unchecked_iterator@V?$_List_val@U?$_List_simple_types@U?$pair@QAUID3D11DeviceContext@@I@std@@@std@@@std@@@std@@@std@@@2@@std@@QAEXI@Z ; std::vector<std::_List_unchecked_iterator<std::_List_val<std::_List_simple_types<std::pair<ID3D11DeviceContext * const,unsigned int> > > >,std::_Wrap_alloc<std::allocator<std::_List_unchecked_iterator<std::_List_val<std::_List_simple_types<std::pair<ID3D11DeviceContext * const,unsigned int> > > > > > >::reserve
PUBLIC	?size@?$vector@V?$_List_unchecked_iterator@V?$_List_val@U?$_List_simple_types@U?$pair@QAUID3D11DeviceContext@@I@std@@@std@@@std@@@std@@U?$_Wrap_alloc@V?$allocator@V?$_List_unchecked_iterator@V?$_List_val@U?$_List_simple_types@U?$pair@QAUID3D11DeviceContext@@I@std@@@std@@@std@@@std@@@std@@@2@@std@@QBEIXZ ; std::vector<std::_List_unchecked_iterator<std::_List_val<std::_List_simple_types<std::pair<ID3D11DeviceContext * const,unsigned int> > > >,std::_Wrap_alloc<std::allocator<std::_List_unchecked_iterator<std::_List_val<std::_List_simple_types<std::pair<ID3D11DeviceContext * const,unsigned int> > > > > > >::size
PUBLIC	?max_size@?$vector@V?$_List_unchecked_iterator@V?$_List_val@U?$_List_simple_types@U?$pair@QAUID3D11DeviceContext@@I@std@@@std@@@std@@@std@@U?$_Wrap_alloc@V?$allocator@V?$_List_unchecked_iterator@V?$_List_val@U?$_List_simple_types@U?$pair@QAUID3D11DeviceContext@@I@std@@@std@@@std@@@std@@@std@@@2@@std@@QBEIXZ ; std::vector<std::_List_unchecked_iterator<std::_List_val<std::_List_simple_types<std::pair<ID3D11DeviceContext * const,unsigned int> > > >,std::_Wrap_alloc<std::allocator<std::_List_unchecked_iterator<std::_List_val<std::_List_simple_types<std::pair<ID3D11DeviceContext * const,unsigned int> > > > > > >::max_size
PUBLIC	?capacity@?$vector@V?$_List_unchecked_iterator@V?$_List_val@U?$_List_simple_types@U?$pair@QAUID3D11DeviceContext@@I@std@@@std@@@std@@@std@@U?$_Wrap_alloc@V?$allocator@V?$_List_unchecked_iterator@V?$_List_val@U?$_List_simple_types@U?$pair@QAUID3D11DeviceContext@@I@std@@@std@@@std@@@std@@@std@@@2@@std@@QBEIXZ ; std::vector<std::_List_unchecked_iterator<std::_List_val<std::_List_simple_types<std::pair<ID3D11DeviceContext * const,unsigned int> > > >,std::_Wrap_alloc<std::allocator<std::_List_unchecked_iterator<std::_List_val<std::_List_simple_types<std::pair<ID3D11DeviceContext * const,unsigned int> > > > > > >::capacity
PUBLIC	??A?$vector@V?$_List_unchecked_iterator@V?$_List_val@U?$_List_simple_types@U?$pair@QAUID3D11DeviceContext@@I@std@@@std@@@std@@@std@@U?$_Wrap_alloc@V?$allocator@V?$_List_unchecked_iterator@V?$_List_val@U?$_List_simple_types@U?$pair@QAUID3D11DeviceContext@@I@std@@@std@@@std@@@std@@@std@@@2@@std@@QAEAAV?$_List_unchecked_iterator@V?$_List_val@U?$_List_simple_types@U?$pair@QAUID3D11DeviceContext@@I@std@@@std@@@std@@@1@I@Z ; std::vector<std::_List_unchecked_iterator<std::_List_val<std::_List_simple_types<std::pair<ID3D11DeviceContext * const,unsigned int> > > >,std::_Wrap_alloc<std::allocator<std::_List_unchecked_iterator<std::_List_val<std::_List_simple_types<std::pair<ID3D11DeviceContext * const,unsigned int> > > > > > >::operator[]
PUBLIC	?_Ufill@?$vector@V?$_List_unchecked_iterator@V?$_List_val@U?$_List_simple_types@U?$pair@QAUID3D11DeviceContext@@I@std@@@std@@@std@@@std@@U?$_Wrap_alloc@V?$allocator@V?$_List_unchecked_iterator@V?$_List_val@U?$_List_simple_types@U?$pair@QAUID3D11DeviceContext@@I@std@@@std@@@std@@@std@@@std@@@2@@std@@AAEPAV?$_List_unchecked_iterator@V?$_List_val@U?$_List_simple_types@U?$pair@QAUID3D11DeviceContext@@I@std@@@std@@@std@@@2@PAV32@IABV32@@Z ; std::vector<std::_List_unchecked_iterator<std::_List_val<std::_List_simple_types<std::pair<ID3D11DeviceContext * const,unsigned int> > > >,std::_Wrap_alloc<std::allocator<std::_List_unchecked_iterator<std::_List_val<std::_List_simple_types<std::pair<ID3D11DeviceContext * const,unsigned int> > > > > > >::_Ufill
PUBLIC	?_Umove_if_noexcept1@?$vector@V?$_List_unchecked_iterator@V?$_List_val@U?$_List_simple_types@U?$pair@QAUID3D11DeviceContext@@I@std@@@std@@@std@@@std@@U?$_Wrap_alloc@V?$allocator@V?$_List_unchecked_iterator@V?$_List_val@U?$_List_simple_types@U?$pair@QAUID3D11DeviceContext@@I@std@@@std@@@std@@@std@@@std@@@2@@std@@AAEXPAV?$_List_unchecked_iterator@V?$_List_val@U?$_List_simple_types@U?$pair@QAUID3D11DeviceContext@@I@std@@@std@@@std@@@2@00U?$integral_constant@_N$00@2@@Z ; std::vector<std::_List_unchecked_iterator<std::_List_val<std::_List_simple_types<std::pair<ID3D11DeviceContext * const,unsigned int> > > >,std::_Wrap_alloc<std::allocator<std::_List_unchecked_iterator<std::_List_val<std::_List_simple_types<std::pair<ID3D11DeviceContext * const,unsigned int> > > > > > >::_Umove_if_noexcept1
PUBLIC	?_Umove_if_noexcept@?$vector@V?$_List_unchecked_iterator@V?$_List_val@U?$_List_simple_types@U?$pair@QAUID3D11DeviceContext@@I@std@@@std@@@std@@@std@@U?$_Wrap_alloc@V?$allocator@V?$_List_unchecked_iterator@V?$_List_val@U?$_List_simple_types@U?$pair@QAUID3D11DeviceContext@@I@std@@@std@@@std@@@std@@@std@@@2@@std@@AAEXPAV?$_List_unchecked_iterator@V?$_List_val@U?$_List_simple_types@U?$pair@QAUID3D11DeviceContext@@I@std@@@std@@@std@@@2@00@Z ; std::vector<std::_List_unchecked_iterator<std::_List_val<std::_List_simple_types<std::pair<ID3D11DeviceContext * const,unsigned int> > > >,std::_Wrap_alloc<std::allocator<std::_List_unchecked_iterator<std::_List_val<std::_List_simple_types<std::pair<ID3D11DeviceContext * const,unsigned int> > > > > > >::_Umove_if_noexcept
PUBLIC	?_Destroy@?$vector@V?$_List_unchecked_iterator@V?$_List_val@U?$_List_simple_types@U?$pair@QAUID3D11DeviceContext@@I@std@@@std@@@std@@@std@@U?$_Wrap_alloc@V?$allocator@V?$_List_unchecked_iterator@V?$_List_val@U?$_List_simple_types@U?$pair@QAUID3D11DeviceContext@@I@std@@@std@@@std@@@std@@@std@@@2@@std@@AAEXPAV?$_List_unchecked_iterator@V?$_List_val@U?$_List_simple_types@U?$pair@QAUID3D11DeviceContext@@I@std@@@std@@@std@@@2@0@Z ; std::vector<std::_List_unchecked_iterator<std::_List_val<std::_List_simple_types<std::pair<ID3D11DeviceContext * const,unsigned int> > > >,std::_Wrap_alloc<std::allocator<std::_List_unchecked_iterator<std::_List_val<std::_List_simple_types<std::pair<ID3D11DeviceContext * const,unsigned int> > > > > > >::_Destroy
PUBLIC	?_Calculate_growth@?$vector@V?$_List_unchecked_iterator@V?$_List_val@U?$_List_simple_types@U?$pair@QAUID3D11DeviceContext@@I@std@@@std@@@std@@@std@@U?$_Wrap_alloc@V?$allocator@V?$_List_unchecked_iterator@V?$_List_val@U?$_List_simple_types@U?$pair@QAUID3D11DeviceContext@@I@std@@@std@@@std@@@std@@@std@@@2@@std@@ABEII@Z ; std::vector<std::_List_unchecked_iterator<std::_List_val<std::_List_simple_types<std::pair<ID3D11DeviceContext * const,unsigned int> > > >,std::_Wrap_alloc<std::allocator<std::_List_unchecked_iterator<std::_List_val<std::_List_simple_types<std::pair<ID3D11DeviceContext * const,unsigned int> > > > > > >::_Calculate_growth
PUBLIC	?_Buy@?$vector@V?$_List_unchecked_iterator@V?$_List_val@U?$_List_simple_types@U?$pair@QAUID3D11DeviceContext@@I@std@@@std@@@std@@@std@@U?$_Wrap_alloc@V?$allocator@V?$_List_unchecked_iterator@V?$_List_val@U?$_List_simple_types@U?$pair@QAUID3D11DeviceContext@@I@std@@@std@@@std@@@std@@@std@@@2@@std@@AAE_NI@Z ; std::vector<std::_List_unchecked_iterator<std::_List_val<std::_List_simple_types<std::pair<ID3D11DeviceContext * const,unsigned int> > > >,std::_Wrap_alloc<std::allocator<std::_List_unchecked_iterator<std::_List_val<std::_List_simple_types<std::pair<ID3D11DeviceContext * const,unsigned int> > > > > > >::_Buy
PUBLIC	?_Change_array@?$vector@V?$_List_unchecked_iterator@V?$_List_val@U?$_List_simple_types@U?$pair@QAUID3D11DeviceContext@@I@std@@@std@@@std@@@std@@U?$_Wrap_alloc@V?$allocator@V?$_List_unchecked_iterator@V?$_List_val@U?$_List_simple_types@U?$pair@QAUID3D11DeviceContext@@I@std@@@std@@@std@@@std@@@std@@@2@@std@@AAEXQAV?$_List_unchecked_iterator@V?$_List_val@U?$_List_simple_types@U?$pair@QAUID3D11DeviceContext@@I@std@@@std@@@std@@@2@II@Z ; std::vector<std::_List_unchecked_iterator<std::_List_val<std::_List_simple_types<std::pair<ID3D11DeviceContext * const,unsigned int> > > >,std::_Wrap_alloc<std::allocator<std::_List_unchecked_iterator<std::_List_val<std::_List_simple_types<std::pair<ID3D11DeviceContext * const,unsigned int> > > > > > >::_Change_array
PUBLIC	?_Xlength@?$vector@V?$_List_unchecked_iterator@V?$_List_val@U?$_List_simple_types@U?$pair@QAUID3D11DeviceContext@@I@std@@@std@@@std@@@std@@U?$_Wrap_alloc@V?$allocator@V?$_List_unchecked_iterator@V?$_List_val@U?$_List_simple_types@U?$pair@QAUID3D11DeviceContext@@I@std@@@std@@@std@@@std@@@std@@@2@@std@@CAXXZ ; std::vector<std::_List_unchecked_iterator<std::_List_val<std::_List_simple_types<std::pair<ID3D11DeviceContext * const,unsigned int> > > >,std::_Wrap_alloc<std::allocator<std::_List_unchecked_iterator<std::_List_val<std::_List_simple_types<std::pair<ID3D11DeviceContext * const,unsigned int> > > > > > >::_Xlength
PUBLIC	??A?$unordered_map@PAUID3D11DeviceContext@@IU?$hash@PAUID3D11DeviceContext@@@std@@U?$equal_to@PAUID3D11DeviceContext@@@3@V?$allocator@U?$pair@QAUID3D11DeviceContext@@I@std@@@3@@std@@QAEAAIABQAUID3D11DeviceContext@@@Z ; std::unordered_map<ID3D11DeviceContext *,unsigned int,std::hash<ID3D11DeviceContext *>,std::equal_to<ID3D11DeviceContext *>,std::allocator<std::pair<ID3D11DeviceContext * const,unsigned int> > >::operator[]
PUBLIC	??0ImVec2@@QAE@MM@Z				; ImVec2::ImVec2
PUBLIC	?register_to_ini@iParameter@sk@@QAEXPAUiSK_INI@@V?$basic_string@_WU?$char_traits@_W@std@@V?$allocator@_W@2@@std@@1@Z ; sk::iParameter::register_to_ini
PUBLIC	??0?$allocator@PAViParameter@sk@@@std@@QAE@XZ	; std::allocator<sk::iParameter *>::allocator<sk::iParameter *>
PUBLIC	?deallocate@?$allocator@PAViParameter@sk@@@std@@QAEXPAPAViParameter@sk@@I@Z ; std::allocator<sk::iParameter *>::deallocate
PUBLIC	??0?$_Wrap_alloc@V?$allocator@PAViParameter@sk@@@std@@@std@@QAE@XZ ; std::_Wrap_alloc<std::allocator<sk::iParameter *> >::_Wrap_alloc<std::allocator<sk::iParameter *> >
PUBLIC	?deallocate@?$_Wrap_alloc@V?$allocator@PAViParameter@sk@@@std@@@std@@QAEXPAPAViParameter@sk@@I@Z ; std::_Wrap_alloc<std::allocator<sk::iParameter *> >::deallocate
PUBLIC	??0?$_Vector_alloc@U?$_Vec_base_types@PAViParameter@sk@@V?$allocator@PAViParameter@sk@@@std@@@std@@@std@@QAE@XZ ; std::_Vector_alloc<std::_Vec_base_types<sk::iParameter *,std::allocator<sk::iParameter *> > >::_Vector_alloc<std::_Vec_base_types<sk::iParameter *,std::allocator<sk::iParameter *> > >
PUBLIC	?_Orphan_all@?$_Vector_alloc@U?$_Vec_base_types@PAViParameter@sk@@V?$allocator@PAViParameter@sk@@@std@@@std@@@std@@QAEXXZ ; std::_Vector_alloc<std::_Vec_base_types<sk::iParameter *,std::allocator<sk::iParameter *> > >::_Orphan_all
PUBLIC	?_Getal@?$_Vector_alloc@U?$_Vec_base_types@PAViParameter@sk@@V?$allocator@PAViParameter@sk@@@std@@@std@@@std@@QAEAAU?$_Wrap_alloc@V?$allocator@PAViParameter@sk@@@std@@@2@XZ ; std::_Vector_alloc<std::_Vec_base_types<sk::iParameter *,std::allocator<sk::iParameter *> > >::_Getal
PUBLIC	?_Get_data@?$_Vector_alloc@U?$_Vec_base_types@PAViParameter@sk@@V?$allocator@PAViParameter@sk@@@std@@@std@@@std@@QAEAAV?$_Vector_val@U?$_Simple_types@PAViParameter@sk@@@std@@@2@XZ ; std::_Vector_alloc<std::_Vec_base_types<sk::iParameter *,std::allocator<sk::iParameter *> > >::_Get_data
PUBLIC	?_Myfirst@?$_Vector_alloc@U?$_Vec_base_types@PAViParameter@sk@@V?$allocator@PAViParameter@sk@@@std@@@std@@@std@@QAEAAPAPAViParameter@sk@@XZ ; std::_Vector_alloc<std::_Vec_base_types<sk::iParameter *,std::allocator<sk::iParameter *> > >::_Myfirst
PUBLIC	?_Mylast@?$_Vector_alloc@U?$_Vec_base_types@PAViParameter@sk@@V?$allocator@PAViParameter@sk@@@std@@@std@@@std@@QAEAAPAPAViParameter@sk@@XZ ; std::_Vector_alloc<std::_Vec_base_types<sk::iParameter *,std::allocator<sk::iParameter *> > >::_Mylast
PUBLIC	?_Myend@?$_Vector_alloc@U?$_Vec_base_types@PAViParameter@sk@@V?$allocator@PAViParameter@sk@@@std@@@std@@@std@@QAEAAPAPAViParameter@sk@@XZ ; std::_Vector_alloc<std::_Vec_base_types<sk::iParameter *,std::allocator<sk::iParameter *> > >::_Myend
PUBLIC	??0?$_Vector_val@U?$_Simple_types@PAViParameter@sk@@@std@@@std@@QAE@XZ ; std::_Vector_val<std::_Simple_types<sk::iParameter *> >::_Vector_val<std::_Simple_types<sk::iParameter *> >
PUBLIC	?_Get_first@?$_Compressed_pair@U?$_Wrap_alloc@V?$allocator@PAViParameter@sk@@@std@@@std@@V?$_Vector_val@U?$_Simple_types@PAViParameter@sk@@@std@@@2@$00@std@@QAEAAU?$_Wrap_alloc@V?$allocator@PAViParameter@sk@@@std@@@2@XZ ; std::_Compressed_pair<std::_Wrap_alloc<std::allocator<sk::iParameter *> >,std::_Vector_val<std::_Simple_types<sk::iParameter *> >,1>::_Get_first
PUBLIC	?_Get_second@?$_Compressed_pair@U?$_Wrap_alloc@V?$allocator@PAViParameter@sk@@@std@@@std@@V?$_Vector_val@U?$_Simple_types@PAViParameter@sk@@@std@@@2@$00@std@@QAEAAV?$_Vector_val@U?$_Simple_types@PAViParameter@sk@@@std@@@2@XZ ; std::_Compressed_pair<std::_Wrap_alloc<std::allocator<sk::iParameter *> >,std::_Vector_val<std::_Simple_types<sk::iParameter *> >,1>::_Get_second
PUBLIC	??0?$vector@PAViParameter@sk@@V?$allocator@PAViParameter@sk@@@std@@@std@@QAE@XZ ; std::vector<sk::iParameter *,std::allocator<sk::iParameter *> >::vector<sk::iParameter *,std::allocator<sk::iParameter *> >
PUBLIC	??1?$vector@PAViParameter@sk@@V?$allocator@PAViParameter@sk@@@std@@@std@@QAE@XZ ; std::vector<sk::iParameter *,std::allocator<sk::iParameter *> >::~vector<sk::iParameter *,std::allocator<sk::iParameter *> >
PUBLIC	?_Destroy@?$vector@PAViParameter@sk@@V?$allocator@PAViParameter@sk@@@std@@@std@@AAEXPAPAViParameter@sk@@0@Z ; std::vector<sk::iParameter *,std::allocator<sk::iParameter *> >::_Destroy
PUBLIC	?_Tidy@?$vector@PAViParameter@sk@@V?$allocator@PAViParameter@sk@@@std@@@std@@AAEXXZ ; std::vector<sk::iParameter *,std::allocator<sk::iParameter *> >::_Tidy
PUBLIC	??0ParameterFactory@sk@@QAE@XZ			; sk::ParameterFactory::ParameterFactory
PUBLIC	??1ParameterFactory@sk@@QAE@XZ			; sk::ParameterFactory::~ParameterFactory
PUBLIC	??0ImVec4@@QAE@MMMM@Z				; ImVec4::ImVec4
PUBLIC	??0?$CTraceCategoryEx@$0IAAAA@$0A@@ATL@@QAE@PB_W@Z ; ATL::CTraceCategoryEx<524288,0>::CTraceCategoryEx<524288,0>
PUBLIC	??0?$CTraceCategoryEx@$00$0A@@ATL@@QAE@PB_W@Z	; ATL::CTraceCategoryEx<1,0>::CTraceCategoryEx<1,0>
PUBLIC	??0?$CTraceCategoryEx@$01$0A@@ATL@@QAE@PB_W@Z	; ATL::CTraceCategoryEx<2,0>::CTraceCategoryEx<2,0>
PUBLIC	??0?$CTraceCategoryEx@$03$0A@@ATL@@QAE@PB_W@Z	; ATL::CTraceCategoryEx<4,0>::CTraceCategoryEx<4,0>
PUBLIC	??0?$CTraceCategoryEx@$07$0A@@ATL@@QAE@PB_W@Z	; ATL::CTraceCategoryEx<8,0>::CTraceCategoryEx<8,0>
PUBLIC	??0?$CTraceCategoryEx@$0BA@$0A@@ATL@@QAE@PB_W@Z	; ATL::CTraceCategoryEx<16,0>::CTraceCategoryEx<16,0>
PUBLIC	??0?$CTraceCategoryEx@$0CA@$0A@@ATL@@QAE@PB_W@Z	; ATL::CTraceCategoryEx<32,0>::CTraceCategoryEx<32,0>
PUBLIC	??0?$CTraceCategoryEx@$0EA@$0A@@ATL@@QAE@PB_W@Z	; ATL::CTraceCategoryEx<64,0>::CTraceCategoryEx<64,0>
PUBLIC	??0?$CTraceCategoryEx@$0IA@$0A@@ATL@@QAE@PB_W@Z	; ATL::CTraceCategoryEx<128,0>::CTraceCategoryEx<128,0>
PUBLIC	??0?$CTraceCategoryEx@$0BAA@$0A@@ATL@@QAE@PB_W@Z ; ATL::CTraceCategoryEx<256,0>::CTraceCategoryEx<256,0>
PUBLIC	??0?$CTraceCategoryEx@$0CAA@$0A@@ATL@@QAE@PB_W@Z ; ATL::CTraceCategoryEx<512,0>::CTraceCategoryEx<512,0>
PUBLIC	??0?$CTraceCategoryEx@$0EAA@$0A@@ATL@@QAE@PB_W@Z ; ATL::CTraceCategoryEx<1024,0>::CTraceCategoryEx<1024,0>
PUBLIC	??0?$CTraceCategoryEx@$0IAA@$0A@@ATL@@QAE@PB_W@Z ; ATL::CTraceCategoryEx<2048,0>::CTraceCategoryEx<2048,0>
PUBLIC	??0?$CTraceCategoryEx@$0BAAA@$0A@@ATL@@QAE@PB_W@Z ; ATL::CTraceCategoryEx<4096,0>::CTraceCategoryEx<4096,0>
PUBLIC	??0?$CTraceCategoryEx@$0CAAA@$0A@@ATL@@QAE@PB_W@Z ; ATL::CTraceCategoryEx<8192,0>::CTraceCategoryEx<8192,0>
PUBLIC	??0?$CTraceCategoryEx@$0EAAA@$0A@@ATL@@QAE@PB_W@Z ; ATL::CTraceCategoryEx<16384,0>::CTraceCategoryEx<16384,0>
PUBLIC	??0?$CTraceCategoryEx@$0IAAA@$0A@@ATL@@QAE@PB_W@Z ; ATL::CTraceCategoryEx<32768,0>::CTraceCategoryEx<32768,0>
PUBLIC	??0?$CTraceCategoryEx@$0BAAAA@$0A@@ATL@@QAE@PB_W@Z ; ATL::CTraceCategoryEx<65536,0>::CTraceCategoryEx<65536,0>
PUBLIC	??0?$CTraceCategoryEx@$0CAAAA@$0A@@ATL@@QAE@PB_W@Z ; ATL::CTraceCategoryEx<131072,0>::CTraceCategoryEx<131072,0>
PUBLIC	??0?$CTraceCategoryEx@$0EAAAA@$0A@@ATL@@QAE@PB_W@Z ; ATL::CTraceCategoryEx<262144,0>::CTraceCategoryEx<262144,0>
PUBLIC	??0?$CTraceCategoryEx@$0BAAAAA@$0A@@ATL@@QAE@PB_W@Z ; ATL::CTraceCategoryEx<1048576,0>::CTraceCategoryEx<1048576,0>
PUBLIC	??0?$CTraceCategoryEx@$0CAAAAA@$0A@@ATL@@QAE@PB_W@Z ; ATL::CTraceCategoryEx<2097152,0>::CTraceCategoryEx<2097152,0>
PUBLIC	??0?$CTraceCategoryEx@$0EAAAAA@$0A@@ATL@@QAE@PB_W@Z ; ATL::CTraceCategoryEx<4194304,0>::CTraceCategoryEx<4194304,0>
PUBLIC	?_AtlRaiseException@ATL@@YAXKK@Z		; ATL::_AtlRaiseException
PUBLIC	?_AtlInitializeCriticalSectionEx@ATL@@YAHPAU_RTL_CRITICAL_SECTION@@KK@Z ; ATL::_AtlInitializeCriticalSectionEx
PUBLIC	??0CComCriticalSection@ATL@@QAE@XZ		; ATL::CComCriticalSection::CComCriticalSection
PUBLIC	??1CComCriticalSection@ATL@@QAE@XZ		; ATL::CComCriticalSection::~CComCriticalSection
PUBLIC	?Init@CComCriticalSection@ATL@@QAEJXZ		; ATL::CComCriticalSection::Init
PUBLIC	?Term@CComCriticalSection@ATL@@QAEJXZ		; ATL::CComCriticalSection::Term
PUBLIC	?GetModuleInstance@CAtlBaseModule@ATL@@QAEPAUHINSTANCE__@@XZ ; ATL::CAtlBaseModule::GetModuleInstance
PUBLIC	??0_ATL_COM_MODULE70@ATL@@QAE@XZ		; ATL::_ATL_COM_MODULE70::_ATL_COM_MODULE70
PUBLIC	??1_ATL_COM_MODULE70@ATL@@QAE@XZ		; ATL::_ATL_COM_MODULE70::~_ATL_COM_MODULE70
PUBLIC	??0?$CSimpleArray@GV?$CSimpleArrayEqualHelper@G@ATL@@@ATL@@QAE@XZ ; ATL::CSimpleArray<unsigned short,ATL::CSimpleArrayEqualHelper<unsigned short> >::CSimpleArray<unsigned short,ATL::CSimpleArrayEqualHelper<unsigned short> >
PUBLIC	??1?$CSimpleArray@GV?$CSimpleArrayEqualHelper@G@ATL@@@ATL@@QAE@XZ ; ATL::CSimpleArray<unsigned short,ATL::CSimpleArrayEqualHelper<unsigned short> >::~CSimpleArray<unsigned short,ATL::CSimpleArrayEqualHelper<unsigned short> >
PUBLIC	?GetSize@?$CSimpleArray@GV?$CSimpleArrayEqualHelper@G@ATL@@@ATL@@QBEHXZ ; ATL::CSimpleArray<unsigned short,ATL::CSimpleArrayEqualHelper<unsigned short> >::GetSize
PUBLIC	?RemoveAll@?$CSimpleArray@GV?$CSimpleArrayEqualHelper@G@ATL@@@ATL@@QAEXXZ ; ATL::CSimpleArray<unsigned short,ATL::CSimpleArrayEqualHelper<unsigned short> >::RemoveAll
PUBLIC	??A?$CSimpleArray@GV?$CSimpleArrayEqualHelper@G@ATL@@@ATL@@QAEAAGH@Z ; ATL::CSimpleArray<unsigned short,ATL::CSimpleArrayEqualHelper<unsigned short> >::operator[]
PUBLIC	??0_ATL_WIN_MODULE70@ATL@@QAE@XZ		; ATL::_ATL_WIN_MODULE70::_ATL_WIN_MODULE70
PUBLIC	??1_ATL_WIN_MODULE70@ATL@@QAE@XZ		; ATL::_ATL_WIN_MODULE70::~_ATL_WIN_MODULE70
PUBLIC	?AtlWinModuleInit@ATL@@YGJPAU_ATL_WIN_MODULE70@1@@Z ; ATL::AtlWinModuleInit
PUBLIC	?AtlWinModuleTerm@ATL@@YGJPAU_ATL_WIN_MODULE70@1@PAUHINSTANCE__@@@Z ; ATL::AtlWinModuleTerm
PUBLIC	??0CAtlComModule@ATL@@QAE@XZ			; ATL::CAtlComModule::CAtlComModule
PUBLIC	??1CAtlComModule@ATL@@QAE@XZ			; ATL::CAtlComModule::~CAtlComModule
PUBLIC	?Term@CAtlComModule@ATL@@QAEXXZ			; ATL::CAtlComModule::Term
PUBLIC	??0CAtlWinModule@ATL@@QAE@XZ			; ATL::CAtlWinModule::CAtlWinModule
PUBLIC	??1CAtlWinModule@ATL@@QAE@XZ			; ATL::CAtlWinModule::~CAtlWinModule
PUBLIC	?Term@CAtlWinModule@ATL@@QAEXXZ			; ATL::CAtlWinModule::Term
PUBLIC	??0godrays_s@it_cfg_s@@QAE@XZ			; it_cfg_s::godrays_s::godrays_s
PUBLIC	??0shadows_s@it_cfg_s@@QAE@XZ			; it_cfg_s::shadows_s::shadows_s
PUBLIC	??0it_cfg_s@@QAE@XZ				; it_cfg_s::it_cfg_s
PUBLIC	??1it_cfg_s@@QAE@XZ				; it_cfg_s::~it_cfg_s
PUBLIC	?SK_IT_ControlPanel@@YGXXZ			; SK_IT_ControlPanel
PUBLIC	??0<unnamed-type-shaft_prefs>@@QAE@XZ		; <unnamed-type-shaft_prefs>::<unnamed-type-shaft_prefs>
PUBLIC	??0?$_Umap_traits@PAUID3D11DeviceContext@@V?$map@PAUID3D11Resource@@UD3D11_MAPPED_SUBRESOURCE@@U?$less@PAUID3D11Resource@@@std@@V?$allocator@U?$pair@QAUID3D11Resource@@UD3D11_MAPPED_SUBRESOURCE@@@std@@@4@@std@@V?$_Uhash_compare@PAUID3D11DeviceContext@@U?$hash@PAUID3D11DeviceContext@@@std@@U?$equal_to@PAUID3D11DeviceContext@@@3@@3@V?$allocator@U?$pair@QAUID3D11DeviceContext@@V?$map@PAUID3D11Resource@@UD3D11_MAPPED_SUBRESOURCE@@U?$less@PAUID3D11Resource@@@std@@V?$allocator@U?$pair@QAUID3D11Resource@@UD3D11_MAPPED_SUBRESOURCE@@@std@@@4@@std@@@std@@@3@$0A@@std@@QAE@ABV?$_Uhash_compare@PAUID3D11DeviceContext@@U?$hash@PAUID3D11DeviceContext@@@std@@U?$equal_to@PAUID3D11DeviceContext@@@3@@1@@Z ; std::_Umap_traits<ID3D11DeviceContext *,std::map<ID3D11Resource *,D3D11_MAPPED_SUBRESOURCE,std::less<ID3D11Resource *>,std::allocator<std::pair<ID3D11Resource * const,D3D11_MAPPED_SUBRESOURCE> > >,std::_Uhash_compare<ID3D11DeviceContext *,std::hash<ID3D11DeviceContext *>,std::equal_to<ID3D11DeviceContext *> >,std::allocator<std::pair<ID3D11DeviceContext * const,std::map<ID3D11Resource *,D3D11_MAPPED_SUBRESOURCE,std::less<ID3D11Resource *>,std::allocator<std::pair<ID3D11Resource * const,D3D11_MAPPED_SUBRESOURCE> > > > >,0>::_Umap_traits<ID3D11DeviceContext *,std::map<ID3D11Resource *,D3D11_MAPPED_SUBRESOURCE,std::less<ID3D11Resource *>,std::allocator<std::pair<ID3D11Resource * const,D3D11_MAPPED_SUBRESOURCE> > >,std::_Uhash_compare<ID3D11DeviceContext *,std::hash<ID3D11DeviceContext *>,std::equal_to<ID3D11DeviceContext *> >,std::allocator<std::pair<ID3D11DeviceContext * const,std::map<ID3D11Resource *,D3D11_MAPPED_SUBRESOURCE,std::less<ID3D11Resource *>,std::allocator<std::pair<ID3D11Resource * const,D3D11_MAPPED_SUBRESOURCE> > > > >,0>
PUBLIC	??0?$allocator@U?$pair@QAUID3D11DeviceContext@@V?$map@PAUID3D11Resource@@UD3D11_MAPPED_SUBRESOURCE@@U?$less@PAUID3D11Resource@@@std@@V?$allocator@U?$pair@QAUID3D11Resource@@UD3D11_MAPPED_SUBRESOURCE@@@std@@@4@@std@@@std@@@std@@QAE@XZ ; std::allocator<std::pair<ID3D11DeviceContext * const,std::map<ID3D11Resource *,D3D11_MAPPED_SUBRESOURCE,std::less<ID3D11Resource *>,std::allocator<std::pair<ID3D11Resource * const,D3D11_MAPPED_SUBRESOURCE> > > > >::allocator<std::pair<ID3D11DeviceContext * const,std::map<ID3D11Resource *,D3D11_MAPPED_SUBRESOURCE,std::less<ID3D11Resource *>,std::allocator<std::pair<ID3D11Resource * const,D3D11_MAPPED_SUBRESOURCE> > > > >
PUBLIC	?deallocate@?$allocator@U?$_List_node@U?$pair@QAUID3D11DeviceContext@@V?$map@PAUID3D11Resource@@UD3D11_MAPPED_SUBRESOURCE@@U?$less@PAUID3D11Resource@@@std@@V?$allocator@U?$pair@QAUID3D11Resource@@UD3D11_MAPPED_SUBRESOURCE@@@std@@@4@@std@@@std@@PAX@std@@@std@@QAEXPAU?$_List_node@U?$pair@QAUID3D11DeviceContext@@V?$map@PAUID3D11Resource@@UD3D11_MAPPED_SUBRESOURCE@@U?$less@PAUID3D11Resource@@@std@@V?$allocator@U?$pair@QAUID3D11Resource@@UD3D11_MAPPED_SUBRESOURCE@@@std@@@4@@std@@@std@@PAX@2@I@Z ; std::allocator<std::_List_node<std::pair<ID3D11DeviceContext * const,std::map<ID3D11Resource *,D3D11_MAPPED_SUBRESOURCE,std::less<ID3D11Resource *>,std::allocator<std::pair<ID3D11Resource * const,D3D11_MAPPED_SUBRESOURCE> > > >,void *> >::deallocate
PUBLIC	?allocate@?$allocator@U?$_List_node@U?$pair@QAUID3D11DeviceContext@@V?$map@PAUID3D11Resource@@UD3D11_MAPPED_SUBRESOURCE@@U?$less@PAUID3D11Resource@@@std@@V?$allocator@U?$pair@QAUID3D11Resource@@UD3D11_MAPPED_SUBRESOURCE@@@std@@@4@@std@@@std@@PAX@std@@@std@@QAEPAU?$_List_node@U?$pair@QAUID3D11DeviceContext@@V?$map@PAUID3D11Resource@@UD3D11_MAPPED_SUBRESOURCE@@U?$less@PAUID3D11Resource@@@std@@V?$allocator@U?$pair@QAUID3D11Resource@@UD3D11_MAPPED_SUBRESOURCE@@@std@@@4@@std@@@std@@PAX@2@I@Z ; std::allocator<std::_List_node<std::pair<ID3D11DeviceContext * const,std::map<ID3D11Resource *,D3D11_MAPPED_SUBRESOURCE,std::less<ID3D11Resource *>,std::allocator<std::pair<ID3D11Resource * const,D3D11_MAPPED_SUBRESOURCE> > > >,void *> >::allocate
PUBLIC	?max_size@?$allocator@U?$_List_node@U?$pair@QAUID3D11DeviceContext@@V?$map@PAUID3D11Resource@@UD3D11_MAPPED_SUBRESOURCE@@U?$less@PAUID3D11Resource@@@std@@V?$allocator@U?$pair@QAUID3D11Resource@@UD3D11_MAPPED_SUBRESOURCE@@@std@@@4@@std@@@std@@PAX@std@@@std@@QBEIXZ ; std::allocator<std::_List_node<std::pair<ID3D11DeviceContext * const,std::map<ID3D11Resource *,D3D11_MAPPED_SUBRESOURCE,std::less<ID3D11Resource *>,std::allocator<std::pair<ID3D11Resource * const,D3D11_MAPPED_SUBRESOURCE> > > >,void *> >::max_size
PUBLIC	?max_size@?$allocator_traits@V?$allocator@U?$_List_node@U?$pair@QAUID3D11DeviceContext@@V?$map@PAUID3D11Resource@@UD3D11_MAPPED_SUBRESOURCE@@U?$less@PAUID3D11Resource@@@std@@V?$allocator@U?$pair@QAUID3D11Resource@@UD3D11_MAPPED_SUBRESOURCE@@@std@@@4@@std@@@std@@PAX@std@@@std@@@std@@SAIABV?$allocator@U?$_List_node@U?$pair@QAUID3D11DeviceContext@@V?$map@PAUID3D11Resource@@UD3D11_MAPPED_SUBRESOURCE@@U?$less@PAUID3D11Resource@@@std@@V?$allocator@U?$pair@QAUID3D11Resource@@UD3D11_MAPPED_SUBRESOURCE@@@std@@@4@@std@@@std@@PAX@std@@@2@@Z ; std::allocator_traits<std::allocator<std::_List_node<std::pair<ID3D11DeviceContext * const,std::map<ID3D11Resource *,D3D11_MAPPED_SUBRESOURCE,std::less<ID3D11Resource *>,std::allocator<std::pair<ID3D11Resource * const,D3D11_MAPPED_SUBRESOURCE> > > >,void *> > >::max_size
PUBLIC	?allocate@?$_Wrap_alloc@V?$allocator@U?$_List_node@U?$pair@QAUID3D11DeviceContext@@V?$map@PAUID3D11Resource@@UD3D11_MAPPED_SUBRESOURCE@@U?$less@PAUID3D11Resource@@@std@@V?$allocator@U?$pair@QAUID3D11Resource@@UD3D11_MAPPED_SUBRESOURCE@@@std@@@4@@std@@@std@@PAX@std@@@std@@@std@@QAEPAU?$_List_node@U?$pair@QAUID3D11DeviceContext@@V?$map@PAUID3D11Resource@@UD3D11_MAPPED_SUBRESOURCE@@U?$less@PAUID3D11Resource@@@std@@V?$allocator@U?$pair@QAUID3D11Resource@@UD3D11_MAPPED_SUBRESOURCE@@@std@@@4@@std@@@std@@PAX@2@I@Z ; std::_Wrap_alloc<std::allocator<std::_List_node<std::pair<ID3D11DeviceContext * const,std::map<ID3D11Resource *,D3D11_MAPPED_SUBRESOURCE,std::less<ID3D11Resource *>,std::allocator<std::pair<ID3D11Resource * const,D3D11_MAPPED_SUBRESOURCE> > > >,void *> > >::allocate
PUBLIC	?deallocate@?$_Wrap_alloc@V?$allocator@U?$_List_node@U?$pair@QAUID3D11DeviceContext@@V?$map@PAUID3D11Resource@@UD3D11_MAPPED_SUBRESOURCE@@U?$less@PAUID3D11Resource@@@std@@V?$allocator@U?$pair@QAUID3D11Resource@@UD3D11_MAPPED_SUBRESOURCE@@@std@@@4@@std@@@std@@PAX@std@@@std@@@std@@QAEXPAU?$_List_node@U?$pair@QAUID3D11DeviceContext@@V?$map@PAUID3D11Resource@@UD3D11_MAPPED_SUBRESOURCE@@U?$less@PAUID3D11Resource@@@std@@V?$allocator@U?$pair@QAUID3D11Resource@@UD3D11_MAPPED_SUBRESOURCE@@@std@@@4@@std@@@std@@PAX@2@I@Z ; std::_Wrap_alloc<std::allocator<std::_List_node<std::pair<ID3D11DeviceContext * const,std::map<ID3D11Resource *,D3D11_MAPPED_SUBRESOURCE,std::less<ID3D11Resource *>,std::allocator<std::pair<ID3D11Resource * const,D3D11_MAPPED_SUBRESOURCE> > > >,void *> > >::deallocate
PUBLIC	?max_size@?$_Wrap_alloc@V?$allocator@U?$_List_node@U?$pair@QAUID3D11DeviceContext@@V?$map@PAUID3D11Resource@@UD3D11_MAPPED_SUBRESOURCE@@U?$less@PAUID3D11Resource@@@std@@V?$allocator@U?$pair@QAUID3D11Resource@@UD3D11_MAPPED_SUBRESOURCE@@@std@@@4@@std@@@std@@PAX@std@@@std@@@std@@QBEIU_Nil@2@@Z ; std::_Wrap_alloc<std::allocator<std::_List_node<std::pair<ID3D11DeviceContext * const,std::map<ID3D11Resource *,D3D11_MAPPED_SUBRESOURCE,std::less<ID3D11Resource *>,std::allocator<std::pair<ID3D11Resource * const,D3D11_MAPPED_SUBRESOURCE> > > >,void *> > >::max_size
PUBLIC	?_Nextnode@?$_List_alloc@U?$_List_base_types@U?$pair@QAUID3D11DeviceContext@@V?$map@PAUID3D11Resource@@UD3D11_MAPPED_SUBRESOURCE@@U?$less@PAUID3D11Resource@@@std@@V?$allocator@U?$pair@QAUID3D11Resource@@UD3D11_MAPPED_SUBRESOURCE@@@std@@@4@@std@@@std@@V?$allocator@U?$pair@QAUID3D11DeviceContext@@V?$map@PAUID3D11Resource@@UD3D11_MAPPED_SUBRESOURCE@@U?$less@PAUID3D11Resource@@@std@@V?$allocator@U?$pair@QAUID3D11Resource@@UD3D11_MAPPED_SUBRESOURCE@@@std@@@4@@std@@@std@@@2@@std@@@std@@SAAAPAU?$_List_node@U?$pair@QAUID3D11DeviceContext@@V?$map@PAUID3D11Resource@@UD3D11_MAPPED_SUBRESOURCE@@U?$less@PAUID3D11Resource@@@std@@V?$allocator@U?$pair@QAUID3D11Resource@@UD3D11_MAPPED_SUBRESOURCE@@@std@@@4@@std@@@std@@PAX@2@PAU32@@Z ; std::_List_alloc<std::_List_base_types<std::pair<ID3D11DeviceContext * const,std::map<ID3D11Resource *,D3D11_MAPPED_SUBRESOURCE,std::less<ID3D11Resource *>,std::allocator<std::pair<ID3D11Resource * const,D3D11_MAPPED_SUBRESOURCE> > > >,std::allocator<std::pair<ID3D11DeviceContext * const,std::map<ID3D11Resource *,D3D11_MAPPED_SUBRESOURCE,std::less<ID3D11Resource *>,std::allocator<std::pair<ID3D11Resource * const,D3D11_MAPPED_SUBRESOURCE> > > > > > >::_Nextnode
PUBLIC	?_Prevnode@?$_List_alloc@U?$_List_base_types@U?$pair@QAUID3D11DeviceContext@@V?$map@PAUID3D11Resource@@UD3D11_MAPPED_SUBRESOURCE@@U?$less@PAUID3D11Resource@@@std@@V?$allocator@U?$pair@QAUID3D11Resource@@UD3D11_MAPPED_SUBRESOURCE@@@std@@@4@@std@@@std@@V?$allocator@U?$pair@QAUID3D11DeviceContext@@V?$map@PAUID3D11Resource@@UD3D11_MAPPED_SUBRESOURCE@@U?$less@PAUID3D11Resource@@@std@@V?$allocator@U?$pair@QAUID3D11Resource@@UD3D11_MAPPED_SUBRESOURCE@@@std@@@4@@std@@@std@@@2@@std@@@std@@SAAAPAU?$_List_node@U?$pair@QAUID3D11DeviceContext@@V?$map@PAUID3D11Resource@@UD3D11_MAPPED_SUBRESOURCE@@U?$less@PAUID3D11Resource@@@std@@V?$allocator@U?$pair@QAUID3D11Resource@@UD3D11_MAPPED_SUBRESOURCE@@@std@@@4@@std@@@std@@PAX@2@PAU32@@Z ; std::_List_alloc<std::_List_base_types<std::pair<ID3D11DeviceContext * const,std::map<ID3D11Resource *,D3D11_MAPPED_SUBRESOURCE,std::less<ID3D11Resource *>,std::allocator<std::pair<ID3D11Resource * const,D3D11_MAPPED_SUBRESOURCE> > > >,std::allocator<std::pair<ID3D11DeviceContext * const,std::map<ID3D11Resource *,D3D11_MAPPED_SUBRESOURCE,std::less<ID3D11Resource *>,std::allocator<std::pair<ID3D11Resource * const,D3D11_MAPPED_SUBRESOURCE> > > > > > >::_Prevnode
PUBLIC	?_Myval@?$_List_alloc@U?$_List_base_types@U?$pair@QAUID3D11DeviceContext@@V?$map@PAUID3D11Resource@@UD3D11_MAPPED_SUBRESOURCE@@U?$less@PAUID3D11Resource@@@std@@V?$allocator@U?$pair@QAUID3D11Resource@@UD3D11_MAPPED_SUBRESOURCE@@@std@@@4@@std@@@std@@V?$allocator@U?$pair@QAUID3D11DeviceContext@@V?$map@PAUID3D11Resource@@UD3D11_MAPPED_SUBRESOURCE@@U?$less@PAUID3D11Resource@@@std@@V?$allocator@U?$pair@QAUID3D11Resource@@UD3D11_MAPPED_SUBRESOURCE@@@std@@@4@@std@@@std@@@2@@std@@@std@@SAAAU?$pair@QAUID3D11DeviceContext@@V?$map@PAUID3D11Resource@@UD3D11_MAPPED_SUBRESOURCE@@U?$less@PAUID3D11Resource@@@std@@V?$allocator@U?$pair@QAUID3D11Resource@@UD3D11_MAPPED_SUBRESOURCE@@@std@@@4@@std@@@2@PAU?$_List_node@U?$pair@QAUID3D11DeviceContext@@V?$map@PAUID3D11Resource@@UD3D11_MAPPED_SUBRESOURCE@@U?$less@PAUID3D11Resource@@@std@@V?$allocator@U?$pair@QAUID3D11Resource@@UD3D11_MAPPED_SUBRESOURCE@@@std@@@4@@std@@@std@@PAX@2@@Z ; std::_List_alloc<std::_List_base_types<std::pair<ID3D11DeviceContext * const,std::map<ID3D11Resource *,D3D11_MAPPED_SUBRESOURCE,std::less<ID3D11Resource *>,std::allocator<std::pair<ID3D11Resource * const,D3D11_MAPPED_SUBRESOURCE> > > >,std::allocator<std::pair<ID3D11DeviceContext * const,std::map<ID3D11Resource *,D3D11_MAPPED_SUBRESOURCE,std::less<ID3D11Resource *>,std::allocator<std::pair<ID3D11Resource * const,D3D11_MAPPED_SUBRESOURCE> > > > > > >::_Myval
PUBLIC	??1?$_List_alloc@U?$_List_base_types@U?$pair@QAUID3D11DeviceContext@@V?$map@PAUID3D11Resource@@UD3D11_MAPPED_SUBRESOURCE@@U?$less@PAUID3D11Resource@@@std@@V?$allocator@U?$pair@QAUID3D11Resource@@UD3D11_MAPPED_SUBRESOURCE@@@std@@@4@@std@@@std@@V?$allocator@U?$pair@QAUID3D11DeviceContext@@V?$map@PAUID3D11Resource@@UD3D11_MAPPED_SUBRESOURCE@@U?$less@PAUID3D11Resource@@@std@@V?$allocator@U?$pair@QAUID3D11Resource@@UD3D11_MAPPED_SUBRESOURCE@@@std@@@4@@std@@@std@@@2@@std@@@std@@QAE@XZ ; std::_List_alloc<std::_List_base_types<std::pair<ID3D11DeviceContext * const,std::map<ID3D11Resource *,D3D11_MAPPED_SUBRESOURCE,std::less<ID3D11Resource *>,std::allocator<std::pair<ID3D11Resource * const,D3D11_MAPPED_SUBRESOURCE> > > >,std::allocator<std::pair<ID3D11DeviceContext * const,std::map<ID3D11Resource *,D3D11_MAPPED_SUBRESOURCE,std::less<ID3D11Resource *>,std::allocator<std::pair<ID3D11Resource * const,D3D11_MAPPED_SUBRESOURCE> > > > > > >::~_List_alloc<std::_List_base_types<std::pair<ID3D11DeviceContext * const,std::map<ID3D11Resource *,D3D11_MAPPED_SUBRESOURCE,std::less<ID3D11Resource *>,std::allocator<std::pair<ID3D11Resource * const,D3D11_MAPPED_SUBRESOURCE> > > >,std::allocator<std::pair<ID3D11DeviceContext * const,std::map<ID3D11Resource *,D3D11_MAPPED_SUBRESOURCE,std::less<ID3D11Resource *>,std::allocator<std::pair<ID3D11Resource * const,D3D11_MAPPED_SUBRESOURCE> > > > > > >
PUBLIC	?_Buyheadnode@?$_List_alloc@U?$_List_base_types@U?$pair@QAUID3D11DeviceContext@@V?$map@PAUID3D11Resource@@UD3D11_MAPPED_SUBRESOURCE@@U?$less@PAUID3D11Resource@@@std@@V?$allocator@U?$pair@QAUID3D11Resource@@UD3D11_MAPPED_SUBRESOURCE@@@std@@@4@@std@@@std@@V?$allocator@U?$pair@QAUID3D11DeviceContext@@V?$map@PAUID3D11Resource@@UD3D11_MAPPED_SUBRESOURCE@@U?$less@PAUID3D11Resource@@@std@@V?$allocator@U?$pair@QAUID3D11Resource@@UD3D11_MAPPED_SUBRESOURCE@@@std@@@4@@std@@@std@@@2@@std@@@std@@QAEPAU?$_List_node@U?$pair@QAUID3D11DeviceContext@@V?$map@PAUID3D11Resource@@UD3D11_MAPPED_SUBRESOURCE@@U?$less@PAUID3D11Resource@@@std@@V?$allocator@U?$pair@QAUID3D11Resource@@UD3D11_MAPPED_SUBRESOURCE@@@std@@@4@@std@@@std@@PAX@2@XZ ; std::_List_alloc<std::_List_base_types<std::pair<ID3D11DeviceContext * const,std::map<ID3D11Resource *,D3D11_MAPPED_SUBRESOURCE,std::less<ID3D11Resource *>,std::allocator<std::pair<ID3D11Resource * const,D3D11_MAPPED_SUBRESOURCE> > > >,std::allocator<std::pair<ID3D11DeviceContext * const,std::map<ID3D11Resource *,D3D11_MAPPED_SUBRESOURCE,std::less<ID3D11Resource *>,std::allocator<std::pair<ID3D11Resource * const,D3D11_MAPPED_SUBRESOURCE> > > > > > >::_Buyheadnode
PUBLIC	?_Freeheadnode@?$_List_alloc@U?$_List_base_types@U?$pair@QAUID3D11DeviceContext@@V?$map@PAUID3D11Resource@@UD3D11_MAPPED_SUBRESOURCE@@U?$less@PAUID3D11Resource@@@std@@V?$allocator@U?$pair@QAUID3D11Resource@@UD3D11_MAPPED_SUBRESOURCE@@@std@@@4@@std@@@std@@V?$allocator@U?$pair@QAUID3D11DeviceContext@@V?$map@PAUID3D11Resource@@UD3D11_MAPPED_SUBRESOURCE@@U?$less@PAUID3D11Resource@@@std@@V?$allocator@U?$pair@QAUID3D11Resource@@UD3D11_MAPPED_SUBRESOURCE@@@std@@@4@@std@@@std@@@2@@std@@@std@@QAEXPAU?$_List_node@U?$pair@QAUID3D11DeviceContext@@V?$map@PAUID3D11Resource@@UD3D11_MAPPED_SUBRESOURCE@@U?$less@PAUID3D11Resource@@@std@@V?$allocator@U?$pair@QAUID3D11Resource@@UD3D11_MAPPED_SUBRESOURCE@@@std@@@4@@std@@@std@@PAX@2@@Z ; std::_List_alloc<std::_List_base_types<std::pair<ID3D11DeviceContext * const,std::map<ID3D11Resource *,D3D11_MAPPED_SUBRESOURCE,std::less<ID3D11Resource *>,std::allocator<std::pair<ID3D11Resource * const,D3D11_MAPPED_SUBRESOURCE> > > >,std::allocator<std::pair<ID3D11DeviceContext * const,std::map<ID3D11Resource *,D3D11_MAPPED_SUBRESOURCE,std::less<ID3D11Resource *>,std::allocator<std::pair<ID3D11Resource * const,D3D11_MAPPED_SUBRESOURCE> > > > > > >::_Freeheadnode
PUBLIC	?_Buynode0@?$_List_alloc@U?$_List_base_types@U?$pair@QAUID3D11DeviceContext@@V?$map@PAUID3D11Resource@@UD3D11_MAPPED_SUBRESOURCE@@U?$less@PAUID3D11Resource@@@std@@V?$allocator@U?$pair@QAUID3D11Resource@@UD3D11_MAPPED_SUBRESOURCE@@@std@@@4@@std@@@std@@V?$allocator@U?$pair@QAUID3D11DeviceContext@@V?$map@PAUID3D11Resource@@UD3D11_MAPPED_SUBRESOURCE@@U?$less@PAUID3D11Resource@@@std@@V?$allocator@U?$pair@QAUID3D11Resource@@UD3D11_MAPPED_SUBRESOURCE@@@std@@@4@@std@@@std@@@2@@std@@@std@@QAEPAU?$_List_node@U?$pair@QAUID3D11DeviceContext@@V?$map@PAUID3D11Resource@@UD3D11_MAPPED_SUBRESOURCE@@U?$less@PAUID3D11Resource@@@std@@V?$allocator@U?$pair@QAUID3D11Resource@@UD3D11_MAPPED_SUBRESOURCE@@@std@@@4@@std@@@std@@PAX@2@PAU32@0@Z ; std::_List_alloc<std::_List_base_types<std::pair<ID3D11DeviceContext * const,std::map<ID3D11Resource *,D3D11_MAPPED_SUBRESOURCE,std::less<ID3D11Resource *>,std::allocator<std::pair<ID3D11Resource * const,D3D11_MAPPED_SUBRESOURCE> > > >,std::allocator<std::pair<ID3D11DeviceContext * const,std::map<ID3D11Resource *,D3D11_MAPPED_SUBRESOURCE,std::less<ID3D11Resource *>,std::allocator<std::pair<ID3D11Resource * const,D3D11_MAPPED_SUBRESOURCE> > > > > > >::_Buynode0
PUBLIC	?_Getal@?$_List_alloc@U?$_List_base_types@U?$pair@QAUID3D11DeviceContext@@V?$map@PAUID3D11Resource@@UD3D11_MAPPED_SUBRESOURCE@@U?$less@PAUID3D11Resource@@@std@@V?$allocator@U?$pair@QAUID3D11Resource@@UD3D11_MAPPED_SUBRESOURCE@@@std@@@4@@std@@@std@@V?$allocator@U?$pair@QAUID3D11DeviceContext@@V?$map@PAUID3D11Resource@@UD3D11_MAPPED_SUBRESOURCE@@U?$less@PAUID3D11Resource@@@std@@V?$allocator@U?$pair@QAUID3D11Resource@@UD3D11_MAPPED_SUBRESOURCE@@@std@@@4@@std@@@std@@@2@@std@@@std@@QAEAAU?$_Wrap_alloc@V?$allocator@U?$_List_node@U?$pair@QAUID3D11DeviceContext@@V?$map@PAUID3D11Resource@@UD3D11_MAPPED_SUBRESOURCE@@U?$less@PAUID3D11Resource@@@std@@V?$allocator@U?$pair@QAUID3D11Resource@@UD3D11_MAPPED_SUBRESOURCE@@@std@@@4@@std@@@std@@PAX@std@@@std@@@2@XZ ; std::_List_alloc<std::_List_base_types<std::pair<ID3D11DeviceContext * const,std::map<ID3D11Resource *,D3D11_MAPPED_SUBRESOURCE,std::less<ID3D11Resource *>,std::allocator<std::pair<ID3D11Resource * const,D3D11_MAPPED_SUBRESOURCE> > > >,std::allocator<std::pair<ID3D11DeviceContext * const,std::map<ID3D11Resource *,D3D11_MAPPED_SUBRESOURCE,std::less<ID3D11Resource *>,std::allocator<std::pair<ID3D11Resource * const,D3D11_MAPPED_SUBRESOURCE> > > > > > >::_Getal
PUBLIC	?_Getal@?$_List_alloc@U?$_List_base_types@U?$pair@QAUID3D11DeviceContext@@V?$map@PAUID3D11Resource@@UD3D11_MAPPED_SUBRESOURCE@@U?$less@PAUID3D11Resource@@@std@@V?$allocator@U?$pair@QAUID3D11Resource@@UD3D11_MAPPED_SUBRESOURCE@@@std@@@4@@std@@@std@@V?$allocator@U?$pair@QAUID3D11DeviceContext@@V?$map@PAUID3D11Resource@@UD3D11_MAPPED_SUBRESOURCE@@U?$less@PAUID3D11Resource@@@std@@V?$allocator@U?$pair@QAUID3D11Resource@@UD3D11_MAPPED_SUBRESOURCE@@@std@@@4@@std@@@std@@@2@@std@@@std@@QBEABU?$_Wrap_alloc@V?$allocator@U?$_List_node@U?$pair@QAUID3D11DeviceContext@@V?$map@PAUID3D11Resource@@UD3D11_MAPPED_SUBRESOURCE@@U?$less@PAUID3D11Resource@@@std@@V?$allocator@U?$pair@QAUID3D11Resource@@UD3D11_MAPPED_SUBRESOURCE@@@std@@@4@@std@@@std@@PAX@std@@@std@@@2@XZ ; std::_List_alloc<std::_List_base_types<std::pair<ID3D11DeviceContext * const,std::map<ID3D11Resource *,D3D11_MAPPED_SUBRESOURCE,std::less<ID3D11Resource *>,std::allocator<std::pair<ID3D11Resource * const,D3D11_MAPPED_SUBRESOURCE> > > >,std::allocator<std::pair<ID3D11DeviceContext * const,std::map<ID3D11Resource *,D3D11_MAPPED_SUBRESOURCE,std::less<ID3D11Resource *>,std::allocator<std::pair<ID3D11Resource * const,D3D11_MAPPED_SUBRESOURCE> > > > > > >::_Getal
PUBLIC	?_Get_data@?$_List_alloc@U?$_List_base_types@U?$pair@QAUID3D11DeviceContext@@V?$map@PAUID3D11Resource@@UD3D11_MAPPED_SUBRESOURCE@@U?$less@PAUID3D11Resource@@@std@@V?$allocator@U?$pair@QAUID3D11Resource@@UD3D11_MAPPED_SUBRESOURCE@@@std@@@4@@std@@@std@@V?$allocator@U?$pair@QAUID3D11DeviceContext@@V?$map@PAUID3D11Resource@@UD3D11_MAPPED_SUBRESOURCE@@U?$less@PAUID3D11Resource@@@std@@V?$allocator@U?$pair@QAUID3D11Resource@@UD3D11_MAPPED_SUBRESOURCE@@@std@@@4@@std@@@std@@@2@@std@@@std@@QAEAAV?$_List_val@U?$_List_simple_types@U?$pair@QAUID3D11DeviceContext@@V?$map@PAUID3D11Resource@@UD3D11_MAPPED_SUBRESOURCE@@U?$less@PAUID3D11Resource@@@std@@V?$allocator@U?$pair@QAUID3D11Resource@@UD3D11_MAPPED_SUBRESOURCE@@@std@@@4@@std@@@std@@@std@@@2@XZ ; std::_List_alloc<std::_List_base_types<std::pair<ID3D11DeviceContext * const,std::map<ID3D11Resource *,D3D11_MAPPED_SUBRESOURCE,std::less<ID3D11Resource *>,std::allocator<std::pair<ID3D11Resource * const,D3D11_MAPPED_SUBRESOURCE> > > >,std::allocator<std::pair<ID3D11DeviceContext * const,std::map<ID3D11Resource *,D3D11_MAPPED_SUBRESOURCE,std::less<ID3D11Resource *>,std::allocator<std::pair<ID3D11Resource * const,D3D11_MAPPED_SUBRESOURCE> > > > > > >::_Get_data
PUBLIC	?_Get_data@?$_List_alloc@U?$_List_base_types@U?$pair@QAUID3D11DeviceContext@@V?$map@PAUID3D11Resource@@UD3D11_MAPPED_SUBRESOURCE@@U?$less@PAUID3D11Resource@@@std@@V?$allocator@U?$pair@QAUID3D11Resource@@UD3D11_MAPPED_SUBRESOURCE@@@std@@@4@@std@@@std@@V?$allocator@U?$pair@QAUID3D11DeviceContext@@V?$map@PAUID3D11Resource@@UD3D11_MAPPED_SUBRESOURCE@@U?$less@PAUID3D11Resource@@@std@@V?$allocator@U?$pair@QAUID3D11Resource@@UD3D11_MAPPED_SUBRESOURCE@@@std@@@4@@std@@@std@@@2@@std@@@std@@QBEABV?$_List_val@U?$_List_simple_types@U?$pair@QAUID3D11DeviceContext@@V?$map@PAUID3D11Resource@@UD3D11_MAPPED_SUBRESOURCE@@U?$less@PAUID3D11Resource@@@std@@V?$allocator@U?$pair@QAUID3D11Resource@@UD3D11_MAPPED_SUBRESOURCE@@@std@@@4@@std@@@std@@@std@@@2@XZ ; std::_List_alloc<std::_List_base_types<std::pair<ID3D11DeviceContext * const,std::map<ID3D11Resource *,D3D11_MAPPED_SUBRESOURCE,std::less<ID3D11Resource *>,std::allocator<std::pair<ID3D11Resource * const,D3D11_MAPPED_SUBRESOURCE> > > >,std::allocator<std::pair<ID3D11DeviceContext * const,std::map<ID3D11Resource *,D3D11_MAPPED_SUBRESOURCE,std::less<ID3D11Resource *>,std::allocator<std::pair<ID3D11Resource * const,D3D11_MAPPED_SUBRESOURCE> > > > > > >::_Get_data
PUBLIC	?_Myhead@?$_List_alloc@U?$_List_base_types@U?$pair@QAUID3D11DeviceContext@@V?$map@PAUID3D11Resource@@UD3D11_MAPPED_SUBRESOURCE@@U?$less@PAUID3D11Resource@@@std@@V?$allocator@U?$pair@QAUID3D11Resource@@UD3D11_MAPPED_SUBRESOURCE@@@std@@@4@@std@@@std@@V?$allocator@U?$pair@QAUID3D11DeviceContext@@V?$map@PAUID3D11Resource@@UD3D11_MAPPED_SUBRESOURCE@@U?$less@PAUID3D11Resource@@@std@@V?$allocator@U?$pair@QAUID3D11Resource@@UD3D11_MAPPED_SUBRESOURCE@@@std@@@4@@std@@@std@@@2@@std@@@std@@QAEAAPAU?$_List_node@U?$pair@QAUID3D11DeviceContext@@V?$map@PAUID3D11Resource@@UD3D11_MAPPED_SUBRESOURCE@@U?$less@PAUID3D11Resource@@@std@@V?$allocator@U?$pair@QAUID3D11Resource@@UD3D11_MAPPED_SUBRESOURCE@@@std@@@4@@std@@@std@@PAX@2@XZ ; std::_List_alloc<std::_List_base_types<std::pair<ID3D11DeviceContext * const,std::map<ID3D11Resource *,D3D11_MAPPED_SUBRESOURCE,std::less<ID3D11Resource *>,std::allocator<std::pair<ID3D11Resource * const,D3D11_MAPPED_SUBRESOURCE> > > >,std::allocator<std::pair<ID3D11DeviceContext * const,std::map<ID3D11Resource *,D3D11_MAPPED_SUBRESOURCE,std::less<ID3D11Resource *>,std::allocator<std::pair<ID3D11Resource * const,D3D11_MAPPED_SUBRESOURCE> > > > > > >::_Myhead
PUBLIC	?_Mysize@?$_List_alloc@U?$_List_base_types@U?$pair@QAUID3D11DeviceContext@@V?$map@PAUID3D11Resource@@UD3D11_MAPPED_SUBRESOURCE@@U?$less@PAUID3D11Resource@@@std@@V?$allocator@U?$pair@QAUID3D11Resource@@UD3D11_MAPPED_SUBRESOURCE@@@std@@@4@@std@@@std@@V?$allocator@U?$pair@QAUID3D11DeviceContext@@V?$map@PAUID3D11Resource@@UD3D11_MAPPED_SUBRESOURCE@@U?$less@PAUID3D11Resource@@@std@@V?$allocator@U?$pair@QAUID3D11Resource@@UD3D11_MAPPED_SUBRESOURCE@@@std@@@4@@std@@@std@@@2@@std@@@std@@QAEAAIXZ ; std::_List_alloc<std::_List_base_types<std::pair<ID3D11DeviceContext * const,std::map<ID3D11Resource *,D3D11_MAPPED_SUBRESOURCE,std::less<ID3D11Resource *>,std::allocator<std::pair<ID3D11Resource * const,D3D11_MAPPED_SUBRESOURCE> > > >,std::allocator<std::pair<ID3D11DeviceContext * const,std::map<ID3D11Resource *,D3D11_MAPPED_SUBRESOURCE,std::less<ID3D11Resource *>,std::allocator<std::pair<ID3D11Resource * const,D3D11_MAPPED_SUBRESOURCE> > > > > > >::_Mysize
PUBLIC	?_Mysize@?$_List_alloc@U?$_List_base_types@U?$pair@QAUID3D11DeviceContext@@V?$map@PAUID3D11Resource@@UD3D11_MAPPED_SUBRESOURCE@@U?$less@PAUID3D11Resource@@@std@@V?$allocator@U?$pair@QAUID3D11Resource@@UD3D11_MAPPED_SUBRESOURCE@@@std@@@4@@std@@@std@@V?$allocator@U?$pair@QAUID3D11DeviceContext@@V?$map@PAUID3D11Resource@@UD3D11_MAPPED_SUBRESOURCE@@U?$less@PAUID3D11Resource@@@std@@V?$allocator@U?$pair@QAUID3D11Resource@@UD3D11_MAPPED_SUBRESOURCE@@@std@@@4@@std@@@std@@@2@@std@@@std@@QBEABIXZ ; std::_List_alloc<std::_List_base_types<std::pair<ID3D11DeviceContext * const,std::map<ID3D11Resource *,D3D11_MAPPED_SUBRESOURCE,std::less<ID3D11Resource *>,std::allocator<std::pair<ID3D11Resource * const,D3D11_MAPPED_SUBRESOURCE> > > >,std::allocator<std::pair<ID3D11DeviceContext * const,std::map<ID3D11Resource *,D3D11_MAPPED_SUBRESOURCE,std::less<ID3D11Resource *>,std::allocator<std::pair<ID3D11Resource * const,D3D11_MAPPED_SUBRESOURCE> > > > > > >::_Mysize
PUBLIC	??0?$_List_val@U?$_List_simple_types@U?$pair@QAUID3D11DeviceContext@@V?$map@PAUID3D11Resource@@UD3D11_MAPPED_SUBRESOURCE@@U?$less@PAUID3D11Resource@@@std@@V?$allocator@U?$pair@QAUID3D11Resource@@UD3D11_MAPPED_SUBRESOURCE@@@std@@@4@@std@@@std@@@std@@@std@@QAE@XZ ; std::_List_val<std::_List_simple_types<std::pair<ID3D11DeviceContext * const,std::map<ID3D11Resource *,D3D11_MAPPED_SUBRESOURCE,std::less<ID3D11Resource *>,std::allocator<std::pair<ID3D11Resource * const,D3D11_MAPPED_SUBRESOURCE> > > > > >::_List_val<std::_List_simple_types<std::pair<ID3D11DeviceContext * const,std::map<ID3D11Resource *,D3D11_MAPPED_SUBRESOURCE,std::less<ID3D11Resource *>,std::allocator<std::pair<ID3D11Resource * const,D3D11_MAPPED_SUBRESOURCE> > > > > >
PUBLIC	?_Nextnode@?$_List_val@U?$_List_simple_types@U?$pair@QAUID3D11DeviceContext@@V?$map@PAUID3D11Resource@@UD3D11_MAPPED_SUBRESOURCE@@U?$less@PAUID3D11Resource@@@std@@V?$allocator@U?$pair@QAUID3D11Resource@@UD3D11_MAPPED_SUBRESOURCE@@@std@@@4@@std@@@std@@@std@@@std@@SAAAPAU?$_List_node@U?$pair@QAUID3D11DeviceContext@@V?$map@PAUID3D11Resource@@UD3D11_MAPPED_SUBRESOURCE@@U?$less@PAUID3D11Resource@@@std@@V?$allocator@U?$pair@QAUID3D11Resource@@UD3D11_MAPPED_SUBRESOURCE@@@std@@@4@@std@@@std@@PAX@2@PAU32@@Z ; std::_List_val<std::_List_simple_types<std::pair<ID3D11DeviceContext * const,std::map<ID3D11Resource *,D3D11_MAPPED_SUBRESOURCE,std::less<ID3D11Resource *>,std::allocator<std::pair<ID3D11Resource * const,D3D11_MAPPED_SUBRESOURCE> > > > > >::_Nextnode
PUBLIC	?_Prevnode@?$_List_val@U?$_List_simple_types@U?$pair@QAUID3D11DeviceContext@@V?$map@PAUID3D11Resource@@UD3D11_MAPPED_SUBRESOURCE@@U?$less@PAUID3D11Resource@@@std@@V?$allocator@U?$pair@QAUID3D11Resource@@UD3D11_MAPPED_SUBRESOURCE@@@std@@@4@@std@@@std@@@std@@@std@@SAAAPAU?$_List_node@U?$pair@QAUID3D11DeviceContext@@V?$map@PAUID3D11Resource@@UD3D11_MAPPED_SUBRESOURCE@@U?$less@PAUID3D11Resource@@@std@@V?$allocator@U?$pair@QAUID3D11Resource@@UD3D11_MAPPED_SUBRESOURCE@@@std@@@4@@std@@@std@@PAX@2@PAU32@@Z ; std::_List_val<std::_List_simple_types<std::pair<ID3D11DeviceContext * const,std::map<ID3D11Resource *,D3D11_MAPPED_SUBRESOURCE,std::less<ID3D11Resource *>,std::allocator<std::pair<ID3D11Resource * const,D3D11_MAPPED_SUBRESOURCE> > > > > >::_Prevnode
PUBLIC	?_Myval@?$_List_val@U?$_List_simple_types@U?$pair@QAUID3D11DeviceContext@@V?$map@PAUID3D11Resource@@UD3D11_MAPPED_SUBRESOURCE@@U?$less@PAUID3D11Resource@@@std@@V?$allocator@U?$pair@QAUID3D11Resource@@UD3D11_MAPPED_SUBRESOURCE@@@std@@@4@@std@@@std@@@std@@@std@@SAAAU?$pair@QAUID3D11DeviceContext@@V?$map@PAUID3D11Resource@@UD3D11_MAPPED_SUBRESOURCE@@U?$less@PAUID3D11Resource@@@std@@V?$allocator@U?$pair@QAUID3D11Resource@@UD3D11_MAPPED_SUBRESOURCE@@@std@@@4@@std@@@2@PAU?$_List_node@U?$pair@QAUID3D11DeviceContext@@V?$map@PAUID3D11Resource@@UD3D11_MAPPED_SUBRESOURCE@@U?$less@PAUID3D11Resource@@@std@@V?$allocator@U?$pair@QAUID3D11Resource@@UD3D11_MAPPED_SUBRESOURCE@@@std@@@4@@std@@@std@@PAX@2@@Z ; std::_List_val<std::_List_simple_types<std::pair<ID3D11DeviceContext * const,std::map<ID3D11Resource *,D3D11_MAPPED_SUBRESOURCE,std::less<ID3D11Resource *>,std::allocator<std::pair<ID3D11Resource * const,D3D11_MAPPED_SUBRESOURCE> > > > > >::_Myval
PUBLIC	?_Get_first@?$_Compressed_pair@U?$_Wrap_alloc@V?$allocator@U?$_List_node@U?$pair@QAUID3D11DeviceContext@@V?$map@PAUID3D11Resource@@UD3D11_MAPPED_SUBRESOURCE@@U?$less@PAUID3D11Resource@@@std@@V?$allocator@U?$pair@QAUID3D11Resource@@UD3D11_MAPPED_SUBRESOURCE@@@std@@@4@@std@@@std@@PAX@std@@@std@@@std@@V?$_List_val@U?$_List_simple_types@U?$pair@QAUID3D11DeviceContext@@V?$map@PAUID3D11Resource@@UD3D11_MAPPED_SUBRESOURCE@@U?$less@PAUID3D11Resource@@@std@@V?$allocator@U?$pair@QAUID3D11Resource@@UD3D11_MAPPED_SUBRESOURCE@@@std@@@4@@std@@@std@@@std@@@2@$00@std@@QAEAAU?$_Wrap_alloc@V?$allocator@U?$_List_node@U?$pair@QAUID3D11DeviceContext@@V?$map@PAUID3D11Resource@@UD3D11_MAPPED_SUBRESOURCE@@U?$less@PAUID3D11Resource@@@std@@V?$allocator@U?$pair@QAUID3D11Resource@@UD3D11_MAPPED_SUBRESOURCE@@@std@@@4@@std@@@std@@PAX@std@@@std@@@2@XZ ; std::_Compressed_pair<std::_Wrap_alloc<std::allocator<std::_List_node<std::pair<ID3D11DeviceContext * const,std::map<ID3D11Resource *,D3D11_MAPPED_SUBRESOURCE,std::less<ID3D11Resource *>,std::allocator<std::pair<ID3D11Resource * const,D3D11_MAPPED_SUBRESOURCE> > > >,void *> > >,std::_List_val<std::_List_simple_types<std::pair<ID3D11DeviceContext * const,std::map<ID3D11Resource *,D3D11_MAPPED_SUBRESOURCE,std::less<ID3D11Resource *>,std::allocator<std::pair<ID3D11Resource * const,D3D11_MAPPED_SUBRESOURCE> > > > > >,1>::_Get_first
PUBLIC	?_Get_first@?$_Compressed_pair@U?$_Wrap_alloc@V?$allocator@U?$_List_node@U?$pair@QAUID3D11DeviceContext@@V?$map@PAUID3D11Resource@@UD3D11_MAPPED_SUBRESOURCE@@U?$less@PAUID3D11Resource@@@std@@V?$allocator@U?$pair@QAUID3D11Resource@@UD3D11_MAPPED_SUBRESOURCE@@@std@@@4@@std@@@std@@PAX@std@@@std@@@std@@V?$_List_val@U?$_List_simple_types@U?$pair@QAUID3D11DeviceContext@@V?$map@PAUID3D11Resource@@UD3D11_MAPPED_SUBRESOURCE@@U?$less@PAUID3D11Resource@@@std@@V?$allocator@U?$pair@QAUID3D11Resource@@UD3D11_MAPPED_SUBRESOURCE@@@std@@@4@@std@@@std@@@std@@@2@$00@std@@QBEABU?$_Wrap_alloc@V?$allocator@U?$_List_node@U?$pair@QAUID3D11DeviceContext@@V?$map@PAUID3D11Resource@@UD3D11_MAPPED_SUBRESOURCE@@U?$less@PAUID3D11Resource@@@std@@V?$allocator@U?$pair@QAUID3D11Resource@@UD3D11_MAPPED_SUBRESOURCE@@@std@@@4@@std@@@std@@PAX@std@@@std@@@2@XZ ; std::_Compressed_pair<std::_Wrap_alloc<std::allocator<std::_List_node<std::pair<ID3D11DeviceContext * const,std::map<ID3D11Resource *,D3D11_MAPPED_SUBRESOURCE,std::less<ID3D11Resource *>,std::allocator<std::pair<ID3D11Resource * const,D3D11_MAPPED_SUBRESOURCE> > > >,void *> > >,std::_List_val<std::_List_simple_types<std::pair<ID3D11DeviceContext * const,std::map<ID3D11Resource *,D3D11_MAPPED_SUBRESOURCE,std::less<ID3D11Resource *>,std::allocator<std::pair<ID3D11Resource * const,D3D11_MAPPED_SUBRESOURCE> > > > > >,1>::_Get_first
PUBLIC	?_Get_second@?$_Compressed_pair@U?$_Wrap_alloc@V?$allocator@U?$_List_node@U?$pair@QAUID3D11DeviceContext@@V?$map@PAUID3D11Resource@@UD3D11_MAPPED_SUBRESOURCE@@U?$less@PAUID3D11Resource@@@std@@V?$allocator@U?$pair@QAUID3D11Resource@@UD3D11_MAPPED_SUBRESOURCE@@@std@@@4@@std@@@std@@PAX@std@@@std@@@std@@V?$_List_val@U?$_List_simple_types@U?$pair@QAUID3D11DeviceContext@@V?$map@PAUID3D11Resource@@UD3D11_MAPPED_SUBRESOURCE@@U?$less@PAUID3D11Resource@@@std@@V?$allocator@U?$pair@QAUID3D11Resource@@UD3D11_MAPPED_SUBRESOURCE@@@std@@@4@@std@@@std@@@std@@@2@$00@std@@QAEAAV?$_List_val@U?$_List_simple_types@U?$pair@QAUID3D11DeviceContext@@V?$map@PAUID3D11Resource@@UD3D11_MAPPED_SUBRESOURCE@@U?$less@PAUID3D11Resource@@@std@@V?$allocator@U?$pair@QAUID3D11Resource@@UD3D11_MAPPED_SUBRESOURCE@@@std@@@4@@std@@@std@@@std@@@2@XZ ; std::_Compressed_pair<std::_Wrap_alloc<std::allocator<std::_List_node<std::pair<ID3D11DeviceContext * const,std::map<ID3D11Resource *,D3D11_MAPPED_SUBRESOURCE,std::less<ID3D11Resource *>,std::allocator<std::pair<ID3D11Resource * const,D3D11_MAPPED_SUBRESOURCE> > > >,void *> > >,std::_List_val<std::_List_simple_types<std::pair<ID3D11DeviceContext * const,std::map<ID3D11Resource *,D3D11_MAPPED_SUBRESOURCE,std::less<ID3D11Resource *>,std::allocator<std::pair<ID3D11Resource * const,D3D11_MAPPED_SUBRESOURCE> > > > > >,1>::_Get_second
PUBLIC	?_Get_second@?$_Compressed_pair@U?$_Wrap_alloc@V?$allocator@U?$_List_node@U?$pair@QAUID3D11DeviceContext@@V?$map@PAUID3D11Resource@@UD3D11_MAPPED_SUBRESOURCE@@U?$less@PAUID3D11Resource@@@std@@V?$allocator@U?$pair@QAUID3D11Resource@@UD3D11_MAPPED_SUBRESOURCE@@@std@@@4@@std@@@std@@PAX@std@@@std@@@std@@V?$_List_val@U?$_List_simple_types@U?$pair@QAUID3D11DeviceContext@@V?$map@PAUID3D11Resource@@UD3D11_MAPPED_SUBRESOURCE@@U?$less@PAUID3D11Resource@@@std@@V?$allocator@U?$pair@QAUID3D11Resource@@UD3D11_MAPPED_SUBRESOURCE@@@std@@@4@@std@@@std@@@std@@@2@$00@std@@QBEABV?$_List_val@U?$_List_simple_types@U?$pair@QAUID3D11DeviceContext@@V?$map@PAUID3D11Resource@@UD3D11_MAPPED_SUBRESOURCE@@U?$less@PAUID3D11Resource@@@std@@V?$allocator@U?$pair@QAUID3D11Resource@@UD3D11_MAPPED_SUBRESOURCE@@@std@@@4@@std@@@std@@@std@@@2@XZ ; std::_Compressed_pair<std::_Wrap_alloc<std::allocator<std::_List_node<std::pair<ID3D11DeviceContext * const,std::map<ID3D11Resource *,D3D11_MAPPED_SUBRESOURCE,std::less<ID3D11Resource *>,std::allocator<std::pair<ID3D11Resource * const,D3D11_MAPPED_SUBRESOURCE> > > >,void *> > >,std::_List_val<std::_List_simple_types<std::pair<ID3D11DeviceContext * const,std::map<ID3D11Resource *,D3D11_MAPPED_SUBRESOURCE,std::less<ID3D11Resource *>,std::allocator<std::pair<ID3D11Resource * const,D3D11_MAPPED_SUBRESOURCE> > > > > >,1>::_Get_second
PUBLIC	?_Freenode@?$_List_buy@U?$pair@QAUID3D11DeviceContext@@V?$map@PAUID3D11Resource@@UD3D11_MAPPED_SUBRESOURCE@@U?$less@PAUID3D11Resource@@@std@@V?$allocator@U?$pair@QAUID3D11Resource@@UD3D11_MAPPED_SUBRESOURCE@@@std@@@4@@std@@@std@@V?$allocator@U?$pair@QAUID3D11DeviceContext@@V?$map@PAUID3D11Resource@@UD3D11_MAPPED_SUBRESOURCE@@U?$less@PAUID3D11Resource@@@std@@V?$allocator@U?$pair@QAUID3D11Resource@@UD3D11_MAPPED_SUBRESOURCE@@@std@@@4@@std@@@std@@@2@@std@@QAEXPAU?$_List_node@U?$pair@QAUID3D11DeviceContext@@V?$map@PAUID3D11Resource@@UD3D11_MAPPED_SUBRESOURCE@@U?$less@PAUID3D11Resource@@@std@@V?$allocator@U?$pair@QAUID3D11Resource@@UD3D11_MAPPED_SUBRESOURCE@@@std@@@4@@std@@@std@@PAX@2@@Z ; std::_List_buy<std::pair<ID3D11DeviceContext * const,std::map<ID3D11Resource *,D3D11_MAPPED_SUBRESOURCE,std::less<ID3D11Resource *>,std::allocator<std::pair<ID3D11Resource * const,D3D11_MAPPED_SUBRESOURCE> > > >,std::allocator<std::pair<ID3D11DeviceContext * const,std::map<ID3D11Resource *,D3D11_MAPPED_SUBRESOURCE,std::less<ID3D11Resource *>,std::allocator<std::pair<ID3D11Resource * const,D3D11_MAPPED_SUBRESOURCE> > > > > >::_Freenode
PUBLIC	??1?$_List_buy@U?$pair@QAUID3D11DeviceContext@@V?$map@PAUID3D11Resource@@UD3D11_MAPPED_SUBRESOURCE@@U?$less@PAUID3D11Resource@@@std@@V?$allocator@U?$pair@QAUID3D11Resource@@UD3D11_MAPPED_SUBRESOURCE@@@std@@@4@@std@@@std@@V?$allocator@U?$pair@QAUID3D11DeviceContext@@V?$map@PAUID3D11Resource@@UD3D11_MAPPED_SUBRESOURCE@@U?$less@PAUID3D11Resource@@@std@@V?$allocator@U?$pair@QAUID3D11Resource@@UD3D11_MAPPED_SUBRESOURCE@@@std@@@4@@std@@@std@@@2@@std@@QAE@XZ ; std::_List_buy<std::pair<ID3D11DeviceContext * const,std::map<ID3D11Resource *,D3D11_MAPPED_SUBRESOURCE,std::less<ID3D11Resource *>,std::allocator<std::pair<ID3D11Resource * const,D3D11_MAPPED_SUBRESOURCE> > > >,std::allocator<std::pair<ID3D11DeviceContext * const,std::map<ID3D11Resource *,D3D11_MAPPED_SUBRESOURCE,std::less<ID3D11Resource *>,std::allocator<std::pair<ID3D11Resource * const,D3D11_MAPPED_SUBRESOURCE> > > > > >::~_List_buy<std::pair<ID3D11DeviceContext * const,std::map<ID3D11Resource *,D3D11_MAPPED_SUBRESOURCE,std::less<ID3D11Resource *>,std::allocator<std::pair<ID3D11Resource * const,D3D11_MAPPED_SUBRESOURCE> > > >,std::allocator<std::pair<ID3D11DeviceContext * const,std::map<ID3D11Resource *,D3D11_MAPPED_SUBRESOURCE,std::less<ID3D11Resource *>,std::allocator<std::pair<ID3D11Resource * const,D3D11_MAPPED_SUBRESOURCE> > > > > >
PUBLIC	??0?$list@U?$pair@QAUID3D11DeviceContext@@V?$map@PAUID3D11Resource@@UD3D11_MAPPED_SUBRESOURCE@@U?$less@PAUID3D11Resource@@@std@@V?$allocator@U?$pair@QAUID3D11Resource@@UD3D11_MAPPED_SUBRESOURCE@@@std@@@4@@std@@@std@@V?$allocator@U?$pair@QAUID3D11DeviceContext@@V?$map@PAUID3D11Resource@@UD3D11_MAPPED_SUBRESOURCE@@U?$less@PAUID3D11Resource@@@std@@V?$allocator@U?$pair@QAUID3D11Resource@@UD3D11_MAPPED_SUBRESOURCE@@@std@@@4@@std@@@std@@@2@@std@@QAE@ABV?$allocator@U?$pair@QAUID3D11DeviceContext@@V?$map@PAUID3D11Resource@@UD3D11_MAPPED_SUBRESOURCE@@U?$less@PAUID3D11Resource@@@std@@V?$allocator@U?$pair@QAUID3D11Resource@@UD3D11_MAPPED_SUBRESOURCE@@@std@@@4@@std@@@std@@@1@@Z ; std::list<std::pair<ID3D11DeviceContext * const,std::map<ID3D11Resource *,D3D11_MAPPED_SUBRESOURCE,std::less<ID3D11Resource *>,std::allocator<std::pair<ID3D11Resource * const,D3D11_MAPPED_SUBRESOURCE> > > >,std::allocator<std::pair<ID3D11DeviceContext * const,std::map<ID3D11Resource *,D3D11_MAPPED_SUBRESOURCE,std::less<ID3D11Resource *>,std::allocator<std::pair<ID3D11Resource * const,D3D11_MAPPED_SUBRESOURCE> > > > > >::list<std::pair<ID3D11DeviceContext * const,std::map<ID3D11Resource *,D3D11_MAPPED_SUBRESOURCE,std::less<ID3D11Resource *>,std::allocator<std::pair<ID3D11Resource * const,D3D11_MAPPED_SUBRESOURCE> > > >,std::allocator<std::pair<ID3D11DeviceContext * const,std::map<ID3D11Resource *,D3D11_MAPPED_SUBRESOURCE,std::less<ID3D11Resource *>,std::allocator<std::pair<ID3D11Resource * const,D3D11_MAPPED_SUBRESOURCE> > > > > >
PUBLIC	??1?$list@U?$pair@QAUID3D11DeviceContext@@V?$map@PAUID3D11Resource@@UD3D11_MAPPED_SUBRESOURCE@@U?$less@PAUID3D11Resource@@@std@@V?$allocator@U?$pair@QAUID3D11Resource@@UD3D11_MAPPED_SUBRESOURCE@@@std@@@4@@std@@@std@@V?$allocator@U?$pair@QAUID3D11DeviceContext@@V?$map@PAUID3D11Resource@@UD3D11_MAPPED_SUBRESOURCE@@U?$less@PAUID3D11Resource@@@std@@V?$allocator@U?$pair@QAUID3D11Resource@@UD3D11_MAPPED_SUBRESOURCE@@@std@@@4@@std@@@std@@@2@@std@@QAE@XZ ; std::list<std::pair<ID3D11DeviceContext * const,std::map<ID3D11Resource *,D3D11_MAPPED_SUBRESOURCE,std::less<ID3D11Resource *>,std::allocator<std::pair<ID3D11Resource * const,D3D11_MAPPED_SUBRESOURCE> > > >,std::allocator<std::pair<ID3D11DeviceContext * const,std::map<ID3D11Resource *,D3D11_MAPPED_SUBRESOURCE,std::less<ID3D11Resource *>,std::allocator<std::pair<ID3D11Resource * const,D3D11_MAPPED_SUBRESOURCE> > > > > >::~list<std::pair<ID3D11DeviceContext * const,std::map<ID3D11Resource *,D3D11_MAPPED_SUBRESOURCE,std::less<ID3D11Resource *>,std::allocator<std::pair<ID3D11Resource * const,D3D11_MAPPED_SUBRESOURCE> > > >,std::allocator<std::pair<ID3D11DeviceContext * const,std::map<ID3D11Resource *,D3D11_MAPPED_SUBRESOURCE,std::less<ID3D11Resource *>,std::allocator<std::pair<ID3D11Resource * const,D3D11_MAPPED_SUBRESOURCE> > > > > >
PUBLIC	?begin@?$list@U?$pair@QAUID3D11DeviceContext@@V?$map@PAUID3D11Resource@@UD3D11_MAPPED_SUBRESOURCE@@U?$less@PAUID3D11Resource@@@std@@V?$allocator@U?$pair@QAUID3D11Resource@@UD3D11_MAPPED_SUBRESOURCE@@@std@@@4@@std@@@std@@V?$allocator@U?$pair@QAUID3D11DeviceContext@@V?$map@PAUID3D11Resource@@UD3D11_MAPPED_SUBRESOURCE@@U?$less@PAUID3D11Resource@@@std@@V?$allocator@U?$pair@QAUID3D11Resource@@UD3D11_MAPPED_SUBRESOURCE@@@std@@@4@@std@@@std@@@2@@std@@QAE?AV?$_List_iterator@V?$_List_val@U?$_List_simple_types@U?$pair@QAUID3D11DeviceContext@@V?$map@PAUID3D11Resource@@UD3D11_MAPPED_SUBRESOURCE@@U?$less@PAUID3D11Resource@@@std@@V?$allocator@U?$pair@QAUID3D11Resource@@UD3D11_MAPPED_SUBRESOURCE@@@std@@@4@@std@@@std@@@std@@@std@@@2@XZ ; std::list<std::pair<ID3D11DeviceContext * const,std::map<ID3D11Resource *,D3D11_MAPPED_SUBRESOURCE,std::less<ID3D11Resource *>,std::allocator<std::pair<ID3D11Resource * const,D3D11_MAPPED_SUBRESOURCE> > > >,std::allocator<std::pair<ID3D11DeviceContext * const,std::map<ID3D11Resource *,D3D11_MAPPED_SUBRESOURCE,std::less<ID3D11Resource *>,std::allocator<std::pair<ID3D11Resource * const,D3D11_MAPPED_SUBRESOURCE> > > > > >::begin
PUBLIC	?end@?$list@U?$pair@QAUID3D11DeviceContext@@V?$map@PAUID3D11Resource@@UD3D11_MAPPED_SUBRESOURCE@@U?$less@PAUID3D11Resource@@@std@@V?$allocator@U?$pair@QAUID3D11Resource@@UD3D11_MAPPED_SUBRESOURCE@@@std@@@4@@std@@@std@@V?$allocator@U?$pair@QAUID3D11DeviceContext@@V?$map@PAUID3D11Resource@@UD3D11_MAPPED_SUBRESOURCE@@U?$less@PAUID3D11Resource@@@std@@V?$allocator@U?$pair@QAUID3D11Resource@@UD3D11_MAPPED_SUBRESOURCE@@@std@@@4@@std@@@std@@@2@@std@@QAE?AV?$_List_iterator@V?$_List_val@U?$_List_simple_types@U?$pair@QAUID3D11DeviceContext@@V?$map@PAUID3D11Resource@@UD3D11_MAPPED_SUBRESOURCE@@U?$less@PAUID3D11Resource@@@std@@V?$allocator@U?$pair@QAUID3D11Resource@@UD3D11_MAPPED_SUBRESOURCE@@@std@@@4@@std@@@std@@@std@@@std@@@2@XZ ; std::list<std::pair<ID3D11DeviceContext * const,std::map<ID3D11Resource *,D3D11_MAPPED_SUBRESOURCE,std::less<ID3D11Resource *>,std::allocator<std::pair<ID3D11Resource * const,D3D11_MAPPED_SUBRESOURCE> > > >,std::allocator<std::pair<ID3D11DeviceContext * const,std::map<ID3D11Resource *,D3D11_MAPPED_SUBRESOURCE,std::less<ID3D11Resource *>,std::allocator<std::pair<ID3D11Resource * const,D3D11_MAPPED_SUBRESOURCE> > > > > >::end
PUBLIC	?_Unchecked_begin@?$list@U?$pair@QAUID3D11DeviceContext@@V?$map@PAUID3D11Resource@@UD3D11_MAPPED_SUBRESOURCE@@U?$less@PAUID3D11Resource@@@std@@V?$allocator@U?$pair@QAUID3D11Resource@@UD3D11_MAPPED_SUBRESOURCE@@@std@@@4@@std@@@std@@V?$allocator@U?$pair@QAUID3D11DeviceContext@@V?$map@PAUID3D11Resource@@UD3D11_MAPPED_SUBRESOURCE@@U?$less@PAUID3D11Resource@@@std@@V?$allocator@U?$pair@QAUID3D11Resource@@UD3D11_MAPPED_SUBRESOURCE@@@std@@@4@@std@@@std@@@2@@std@@QAE?AV?$_List_unchecked_iterator@V?$_List_val@U?$_List_simple_types@U?$pair@QAUID3D11DeviceContext@@V?$map@PAUID3D11Resource@@UD3D11_MAPPED_SUBRESOURCE@@U?$less@PAUID3D11Resource@@@std@@V?$allocator@U?$pair@QAUID3D11Resource@@UD3D11_MAPPED_SUBRESOURCE@@@std@@@4@@std@@@std@@@std@@@std@@@2@XZ ; std::list<std::pair<ID3D11DeviceContext * const,std::map<ID3D11Resource *,D3D11_MAPPED_SUBRESOURCE,std::less<ID3D11Resource *>,std::allocator<std::pair<ID3D11Resource * const,D3D11_MAPPED_SUBRESOURCE> > > >,std::allocator<std::pair<ID3D11DeviceContext * const,std::map<ID3D11Resource *,D3D11_MAPPED_SUBRESOURCE,std::less<ID3D11Resource *>,std::allocator<std::pair<ID3D11Resource * const,D3D11_MAPPED_SUBRESOURCE> > > > > >::_Unchecked_begin
PUBLIC	?_Unchecked_end@?$list@U?$pair@QAUID3D11DeviceContext@@V?$map@PAUID3D11Resource@@UD3D11_MAPPED_SUBRESOURCE@@U?$less@PAUID3D11Resource@@@std@@V?$allocator@U?$pair@QAUID3D11Resource@@UD3D11_MAPPED_SUBRESOURCE@@@std@@@4@@std@@@std@@V?$allocator@U?$pair@QAUID3D11DeviceContext@@V?$map@PAUID3D11Resource@@UD3D11_MAPPED_SUBRESOURCE@@U?$less@PAUID3D11Resource@@@std@@V?$allocator@U?$pair@QAUID3D11Resource@@UD3D11_MAPPED_SUBRESOURCE@@@std@@@4@@std@@@std@@@2@@std@@QAE?AV?$_List_unchecked_iterator@V?$_List_val@U?$_List_simple_types@U?$pair@QAUID3D11DeviceContext@@V?$map@PAUID3D11Resource@@UD3D11_MAPPED_SUBRESOURCE@@U?$less@PAUID3D11Resource@@@std@@V?$allocator@U?$pair@QAUID3D11Resource@@UD3D11_MAPPED_SUBRESOURCE@@@std@@@4@@std@@@std@@@std@@@std@@@2@XZ ; std::list<std::pair<ID3D11DeviceContext * const,std::map<ID3D11Resource *,D3D11_MAPPED_SUBRESOURCE,std::less<ID3D11Resource *>,std::allocator<std::pair<ID3D11Resource * const,D3D11_MAPPED_SUBRESOURCE> > > >,std::allocator<std::pair<ID3D11DeviceContext * const,std::map<ID3D11Resource *,D3D11_MAPPED_SUBRESOURCE,std::less<ID3D11Resource *>,std::allocator<std::pair<ID3D11Resource * const,D3D11_MAPPED_SUBRESOURCE> > > > > >::_Unchecked_end
PUBLIC	?_Make_iter@?$list@U?$pair@QAUID3D11DeviceContext@@V?$map@PAUID3D11Resource@@UD3D11_MAPPED_SUBRESOURCE@@U?$less@PAUID3D11Resource@@@std@@V?$allocator@U?$pair@QAUID3D11Resource@@UD3D11_MAPPED_SUBRESOURCE@@@std@@@4@@std@@@std@@V?$allocator@U?$pair@QAUID3D11DeviceContext@@V?$map@PAUID3D11Resource@@UD3D11_MAPPED_SUBRESOURCE@@U?$less@PAUID3D11Resource@@@std@@V?$allocator@U?$pair@QAUID3D11Resource@@UD3D11_MAPPED_SUBRESOURCE@@@std@@@4@@std@@@std@@@2@@std@@QBE?AV?$_List_iterator@V?$_List_val@U?$_List_simple_types@U?$pair@QAUID3D11DeviceContext@@V?$map@PAUID3D11Resource@@UD3D11_MAPPED_SUBRESOURCE@@U?$less@PAUID3D11Resource@@@std@@V?$allocator@U?$pair@QAUID3D11Resource@@UD3D11_MAPPED_SUBRESOURCE@@@std@@@4@@std@@@std@@@std@@@std@@@2@V?$_List_const_iterator@V?$_List_val@U?$_List_simple_types@U?$pair@QAUID3D11DeviceContext@@V?$map@PAUID3D11Resource@@UD3D11_MAPPED_SUBRESOURCE@@U?$less@PAUID3D11Resource@@@std@@V?$allocator@U?$pair@QAUID3D11Resource@@UD3D11_MAPPED_SUBRESOURCE@@@std@@@4@@std@@@std@@@std@@@std@@@2@@Z ; std::list<std::pair<ID3D11DeviceContext * const,std::map<ID3D11Resource *,D3D11_MAPPED_SUBRESOURCE,std::less<ID3D11Resource *>,std::allocator<std::pair<ID3D11Resource * const,D3D11_MAPPED_SUBRESOURCE> > > >,std::allocator<std::pair<ID3D11DeviceContext * const,std::map<ID3D11Resource *,D3D11_MAPPED_SUBRESOURCE,std::less<ID3D11Resource *>,std::allocator<std::pair<ID3D11Resource * const,D3D11_MAPPED_SUBRESOURCE> > > > > >::_Make_iter
PUBLIC	?_Make_iter@?$list@U?$pair@QAUID3D11DeviceContext@@V?$map@PAUID3D11Resource@@UD3D11_MAPPED_SUBRESOURCE@@U?$less@PAUID3D11Resource@@@std@@V?$allocator@U?$pair@QAUID3D11Resource@@UD3D11_MAPPED_SUBRESOURCE@@@std@@@4@@std@@@std@@V?$allocator@U?$pair@QAUID3D11DeviceContext@@V?$map@PAUID3D11Resource@@UD3D11_MAPPED_SUBRESOURCE@@U?$less@PAUID3D11Resource@@@std@@V?$allocator@U?$pair@QAUID3D11Resource@@UD3D11_MAPPED_SUBRESOURCE@@@std@@@4@@std@@@std@@@2@@std@@QBE?AV?$_List_iterator@V?$_List_val@U?$_List_simple_types@U?$pair@QAUID3D11DeviceContext@@V?$map@PAUID3D11Resource@@UD3D11_MAPPED_SUBRESOURCE@@U?$less@PAUID3D11Resource@@@std@@V?$allocator@U?$pair@QAUID3D11Resource@@UD3D11_MAPPED_SUBRESOURCE@@@std@@@4@@std@@@std@@@std@@@std@@@2@V?$_List_unchecked_const_iterator@V?$_List_val@U?$_List_simple_types@U?$pair@QAUID3D11DeviceContext@@V?$map@PAUID3D11Resource@@UD3D11_MAPPED_SUBRESOURCE@@U?$less@PAUID3D11Resource@@@std@@V?$allocator@U?$pair@QAUID3D11Resource@@UD3D11_MAPPED_SUBRESOURCE@@@std@@@4@@std@@@std@@@std@@@std@@U_Iterator_base0@2@@2@@Z ; std::list<std::pair<ID3D11DeviceContext * const,std::map<ID3D11Resource *,D3D11_MAPPED_SUBRESOURCE,std::less<ID3D11Resource *>,std::allocator<std::pair<ID3D11Resource * const,D3D11_MAPPED_SUBRESOURCE> > > >,std::allocator<std::pair<ID3D11DeviceContext * const,std::map<ID3D11Resource *,D3D11_MAPPED_SUBRESOURCE,std::less<ID3D11Resource *>,std::allocator<std::pair<ID3D11Resource * const,D3D11_MAPPED_SUBRESOURCE> > > > > >::_Make_iter
PUBLIC	?size@?$list@U?$pair@QAUID3D11DeviceContext@@V?$map@PAUID3D11Resource@@UD3D11_MAPPED_SUBRESOURCE@@U?$less@PAUID3D11Resource@@@std@@V?$allocator@U?$pair@QAUID3D11Resource@@UD3D11_MAPPED_SUBRESOURCE@@@std@@@4@@std@@@std@@V?$allocator@U?$pair@QAUID3D11DeviceContext@@V?$map@PAUID3D11Resource@@UD3D11_MAPPED_SUBRESOURCE@@U?$less@PAUID3D11Resource@@@std@@V?$allocator@U?$pair@QAUID3D11Resource@@UD3D11_MAPPED_SUBRESOURCE@@@std@@@4@@std@@@std@@@2@@std@@QBEIXZ ; std::list<std::pair<ID3D11DeviceContext * const,std::map<ID3D11Resource *,D3D11_MAPPED_SUBRESOURCE,std::less<ID3D11Resource *>,std::allocator<std::pair<ID3D11Resource * const,D3D11_MAPPED_SUBRESOURCE> > > >,std::allocator<std::pair<ID3D11DeviceContext * const,std::map<ID3D11Resource *,D3D11_MAPPED_SUBRESOURCE,std::less<ID3D11Resource *>,std::allocator<std::pair<ID3D11Resource * const,D3D11_MAPPED_SUBRESOURCE> > > > > >::size
PUBLIC	?max_size@?$list@U?$pair@QAUID3D11DeviceContext@@V?$map@PAUID3D11Resource@@UD3D11_MAPPED_SUBRESOURCE@@U?$less@PAUID3D11Resource@@@std@@V?$allocator@U?$pair@QAUID3D11Resource@@UD3D11_MAPPED_SUBRESOURCE@@@std@@@4@@std@@@std@@V?$allocator@U?$pair@QAUID3D11DeviceContext@@V?$map@PAUID3D11Resource@@UD3D11_MAPPED_SUBRESOURCE@@U?$less@PAUID3D11Resource@@@std@@V?$allocator@U?$pair@QAUID3D11Resource@@UD3D11_MAPPED_SUBRESOURCE@@@std@@@4@@std@@@std@@@2@@std@@QBEIXZ ; std::list<std::pair<ID3D11DeviceContext * const,std::map<ID3D11Resource *,D3D11_MAPPED_SUBRESOURCE,std::less<ID3D11Resource *>,std::allocator<std::pair<ID3D11Resource * const,D3D11_MAPPED_SUBRESOURCE> > > >,std::allocator<std::pair<ID3D11DeviceContext * const,std::map<ID3D11Resource *,D3D11_MAPPED_SUBRESOURCE,std::less<ID3D11Resource *>,std::allocator<std::pair<ID3D11Resource * const,D3D11_MAPPED_SUBRESOURCE> > > > > >::max_size
PUBLIC	?front@?$list@U?$pair@QAUID3D11DeviceContext@@V?$map@PAUID3D11Resource@@UD3D11_MAPPED_SUBRESOURCE@@U?$less@PAUID3D11Resource@@@std@@V?$allocator@U?$pair@QAUID3D11Resource@@UD3D11_MAPPED_SUBRESOURCE@@@std@@@4@@std@@@std@@V?$allocator@U?$pair@QAUID3D11DeviceContext@@V?$map@PAUID3D11Resource@@UD3D11_MAPPED_SUBRESOURCE@@U?$less@PAUID3D11Resource@@@std@@V?$allocator@U?$pair@QAUID3D11Resource@@UD3D11_MAPPED_SUBRESOURCE@@@std@@@4@@std@@@std@@@2@@std@@QAEAAU?$pair@QAUID3D11DeviceContext@@V?$map@PAUID3D11Resource@@UD3D11_MAPPED_SUBRESOURCE@@U?$less@PAUID3D11Resource@@@std@@V?$allocator@U?$pair@QAUID3D11Resource@@UD3D11_MAPPED_SUBRESOURCE@@@std@@@4@@std@@@2@XZ ; std::list<std::pair<ID3D11DeviceContext * const,std::map<ID3D11Resource *,D3D11_MAPPED_SUBRESOURCE,std::less<ID3D11Resource *>,std::allocator<std::pair<ID3D11Resource * const,D3D11_MAPPED_SUBRESOURCE> > > >,std::allocator<std::pair<ID3D11DeviceContext * const,std::map<ID3D11Resource *,D3D11_MAPPED_SUBRESOURCE,std::less<ID3D11Resource *>,std::allocator<std::pair<ID3D11Resource * const,D3D11_MAPPED_SUBRESOURCE> > > > > >::front
PUBLIC	?_Unlinknode@?$list@U?$pair@QAUID3D11DeviceContext@@V?$map@PAUID3D11Resource@@UD3D11_MAPPED_SUBRESOURCE@@U?$less@PAUID3D11Resource@@@std@@V?$allocator@U?$pair@QAUID3D11Resource@@UD3D11_MAPPED_SUBRESOURCE@@@std@@@4@@std@@@std@@V?$allocator@U?$pair@QAUID3D11DeviceContext@@V?$map@PAUID3D11Resource@@UD3D11_MAPPED_SUBRESOURCE@@U?$less@PAUID3D11Resource@@@std@@V?$allocator@U?$pair@QAUID3D11Resource@@UD3D11_MAPPED_SUBRESOURCE@@@std@@@4@@std@@@std@@@2@@std@@QAEPAU?$_List_node@U?$pair@QAUID3D11DeviceContext@@V?$map@PAUID3D11Resource@@UD3D11_MAPPED_SUBRESOURCE@@U?$less@PAUID3D11Resource@@@std@@V?$allocator@U?$pair@QAUID3D11Resource@@UD3D11_MAPPED_SUBRESOURCE@@@std@@@4@@std@@@std@@PAX@2@V?$_List_const_iterator@V?$_List_val@U?$_List_simple_types@U?$pair@QAUID3D11DeviceContext@@V?$map@PAUID3D11Resource@@UD3D11_MAPPED_SUBRESOURCE@@U?$less@PAUID3D11Resource@@@std@@V?$allocator@U?$pair@QAUID3D11Resource@@UD3D11_MAPPED_SUBRESOURCE@@@std@@@4@@std@@@std@@@std@@@std@@@2@@Z ; std::list<std::pair<ID3D11DeviceContext * const,std::map<ID3D11Resource *,D3D11_MAPPED_SUBRESOURCE,std::less<ID3D11Resource *>,std::allocator<std::pair<ID3D11Resource * const,D3D11_MAPPED_SUBRESOURCE> > > >,std::allocator<std::pair<ID3D11DeviceContext * const,std::map<ID3D11Resource *,D3D11_MAPPED_SUBRESOURCE,std::less<ID3D11Resource *>,std::allocator<std::pair<ID3D11Resource * const,D3D11_MAPPED_SUBRESOURCE> > > > > >::_Unlinknode
PUBLIC	?erase@?$list@U?$pair@QAUID3D11DeviceContext@@V?$map@PAUID3D11Resource@@UD3D11_MAPPED_SUBRESOURCE@@U?$less@PAUID3D11Resource@@@std@@V?$allocator@U?$pair@QAUID3D11Resource@@UD3D11_MAPPED_SUBRESOURCE@@@std@@@4@@std@@@std@@V?$allocator@U?$pair@QAUID3D11DeviceContext@@V?$map@PAUID3D11Resource@@UD3D11_MAPPED_SUBRESOURCE@@U?$less@PAUID3D11Resource@@@std@@V?$allocator@U?$pair@QAUID3D11Resource@@UD3D11_MAPPED_SUBRESOURCE@@@std@@@4@@std@@@std@@@2@@std@@QAE?AV?$_List_iterator@V?$_List_val@U?$_List_simple_types@U?$pair@QAUID3D11DeviceContext@@V?$map@PAUID3D11Resource@@UD3D11_MAPPED_SUBRESOURCE@@U?$less@PAUID3D11Resource@@@std@@V?$allocator@U?$pair@QAUID3D11Resource@@UD3D11_MAPPED_SUBRESOURCE@@@std@@@4@@std@@@std@@@std@@@std@@@2@V?$_List_const_iterator@V?$_List_val@U?$_List_simple_types@U?$pair@QAUID3D11DeviceContext@@V?$map@PAUID3D11Resource@@UD3D11_MAPPED_SUBRESOURCE@@U?$less@PAUID3D11Resource@@@std@@V?$allocator@U?$pair@QAUID3D11Resource@@UD3D11_MAPPED_SUBRESOURCE@@@std@@@4@@std@@@std@@@std@@@std@@@2@@Z ; std::list<std::pair<ID3D11DeviceContext * const,std::map<ID3D11Resource *,D3D11_MAPPED_SUBRESOURCE,std::less<ID3D11Resource *>,std::allocator<std::pair<ID3D11Resource * const,D3D11_MAPPED_SUBRESOURCE> > > >,std::allocator<std::pair<ID3D11DeviceContext * const,std::map<ID3D11Resource *,D3D11_MAPPED_SUBRESOURCE,std::less<ID3D11Resource *>,std::allocator<std::pair<ID3D11Resource * const,D3D11_MAPPED_SUBRESOURCE> > > > > >::erase
PUBLIC	?clear@?$list@U?$pair@QAUID3D11DeviceContext@@V?$map@PAUID3D11Resource@@UD3D11_MAPPED_SUBRESOURCE@@U?$less@PAUID3D11Resource@@@std@@V?$allocator@U?$pair@QAUID3D11Resource@@UD3D11_MAPPED_SUBRESOURCE@@@std@@@4@@std@@@std@@V?$allocator@U?$pair@QAUID3D11DeviceContext@@V?$map@PAUID3D11Resource@@UD3D11_MAPPED_SUBRESOURCE@@U?$less@PAUID3D11Resource@@@std@@V?$allocator@U?$pair@QAUID3D11Resource@@UD3D11_MAPPED_SUBRESOURCE@@@std@@@4@@std@@@std@@@2@@std@@QAEXXZ ; std::list<std::pair<ID3D11DeviceContext * const,std::map<ID3D11Resource *,D3D11_MAPPED_SUBRESOURCE,std::less<ID3D11Resource *>,std::allocator<std::pair<ID3D11Resource * const,D3D11_MAPPED_SUBRESOURCE> > > >,std::allocator<std::pair<ID3D11DeviceContext * const,std::map<ID3D11Resource *,D3D11_MAPPED_SUBRESOURCE,std::less<ID3D11Resource *>,std::allocator<std::pair<ID3D11Resource * const,D3D11_MAPPED_SUBRESOURCE> > > > > >::clear
PUBLIC	?_Unchecked_splice@?$list@U?$pair@QAUID3D11DeviceContext@@V?$map@PAUID3D11Resource@@UD3D11_MAPPED_SUBRESOURCE@@U?$less@PAUID3D11Resource@@@std@@V?$allocator@U?$pair@QAUID3D11Resource@@UD3D11_MAPPED_SUBRESOURCE@@@std@@@4@@std@@@std@@V?$allocator@U?$pair@QAUID3D11DeviceContext@@V?$map@PAUID3D11Resource@@UD3D11_MAPPED_SUBRESOURCE@@U?$less@PAUID3D11Resource@@@std@@V?$allocator@U?$pair@QAUID3D11Resource@@UD3D11_MAPPED_SUBRESOURCE@@@std@@@4@@std@@@std@@@2@@std@@QAEXV?$_List_unchecked_const_iterator@V?$_List_val@U?$_List_simple_types@U?$pair@QAUID3D11DeviceContext@@V?$map@PAUID3D11Resource@@UD3D11_MAPPED_SUBRESOURCE@@U?$less@PAUID3D11Resource@@@std@@V?$allocator@U?$pair@QAUID3D11Resource@@UD3D11_MAPPED_SUBRESOURCE@@@std@@@4@@std@@@std@@@std@@@std@@U_Iterator_base0@2@@2@00@Z ; std::list<std::pair<ID3D11DeviceContext * const,std::map<ID3D11Resource *,D3D11_MAPPED_SUBRESOURCE,std::less<ID3D11Resource *>,std::allocator<std::pair<ID3D11Resource * const,D3D11_MAPPED_SUBRESOURCE> > > >,std::allocator<std::pair<ID3D11DeviceContext * const,std::map<ID3D11Resource *,D3D11_MAPPED_SUBRESOURCE,std::less<ID3D11Resource *>,std::allocator<std::pair<ID3D11Resource * const,D3D11_MAPPED_SUBRESOURCE> > > > > >::_Unchecked_splice
PUBLIC	?_Tidy@?$list@U?$pair@QAUID3D11DeviceContext@@V?$map@PAUID3D11Resource@@UD3D11_MAPPED_SUBRESOURCE@@U?$less@PAUID3D11Resource@@@std@@V?$allocator@U?$pair@QAUID3D11Resource@@UD3D11_MAPPED_SUBRESOURCE@@@std@@@4@@std@@@std@@V?$allocator@U?$pair@QAUID3D11DeviceContext@@V?$map@PAUID3D11Resource@@UD3D11_MAPPED_SUBRESOURCE@@U?$less@PAUID3D11Resource@@@std@@V?$allocator@U?$pair@QAUID3D11Resource@@UD3D11_MAPPED_SUBRESOURCE@@@std@@@4@@std@@@std@@@2@@std@@QAEXXZ ; std::list<std::pair<ID3D11DeviceContext * const,std::map<ID3D11Resource *,D3D11_MAPPED_SUBRESOURCE,std::less<ID3D11Resource *>,std::allocator<std::pair<ID3D11Resource * const,D3D11_MAPPED_SUBRESOURCE> > > >,std::allocator<std::pair<ID3D11DeviceContext * const,std::map<ID3D11Resource *,D3D11_MAPPED_SUBRESOURCE,std::less<ID3D11Resource *>,std::allocator<std::pair<ID3D11Resource * const,D3D11_MAPPED_SUBRESOURCE> > > > > >::_Tidy
PUBLIC	?_Incsize@?$list@U?$pair@QAUID3D11DeviceContext@@V?$map@PAUID3D11Resource@@UD3D11_MAPPED_SUBRESOURCE@@U?$less@PAUID3D11Resource@@@std@@V?$allocator@U?$pair@QAUID3D11Resource@@UD3D11_MAPPED_SUBRESOURCE@@@std@@@4@@std@@@std@@V?$allocator@U?$pair@QAUID3D11DeviceContext@@V?$map@PAUID3D11Resource@@UD3D11_MAPPED_SUBRESOURCE@@U?$less@PAUID3D11Resource@@@std@@V?$allocator@U?$pair@QAUID3D11Resource@@UD3D11_MAPPED_SUBRESOURCE@@@std@@@4@@std@@@std@@@2@@std@@QAEXI@Z ; std::list<std::pair<ID3D11DeviceContext * const,std::map<ID3D11Resource *,D3D11_MAPPED_SUBRESOURCE,std::less<ID3D11Resource *>,std::allocator<std::pair<ID3D11Resource * const,D3D11_MAPPED_SUBRESOURCE> > > >,std::allocator<std::pair<ID3D11DeviceContext * const,std::map<ID3D11Resource *,D3D11_MAPPED_SUBRESOURCE,std::less<ID3D11Resource *>,std::allocator<std::pair<ID3D11Resource * const,D3D11_MAPPED_SUBRESOURCE> > > > > >::_Incsize
PUBLIC	??0?$_Hash@V?$_Umap_traits@PAUID3D11DeviceContext@@V?$map@PAUID3D11Resource@@UD3D11_MAPPED_SUBRESOURCE@@U?$less@PAUID3D11Resource@@@std@@V?$allocator@U?$pair@QAUID3D11Resource@@UD3D11_MAPPED_SUBRESOURCE@@@std@@@4@@std@@V?$_Uhash_compare@PAUID3D11DeviceContext@@U?$hash@PAUID3D11DeviceContext@@@std@@U?$equal_to@PAUID3D11DeviceContext@@@3@@3@V?$allocator@U?$pair@QAUID3D11DeviceContext@@V?$map@PAUID3D11Resource@@UD3D11_MAPPED_SUBRESOURCE@@U?$less@PAUID3D11Resource@@@std@@V?$allocator@U?$pair@QAUID3D11Resource@@UD3D11_MAPPED_SUBRESOURCE@@@std@@@4@@std@@@std@@@3@$0A@@std@@@std@@QAE@ABV?$_Uhash_compare@PAUID3D11DeviceContext@@U?$hash@PAUID3D11DeviceContext@@@std@@U?$equal_to@PAUID3D11DeviceContext@@@3@@1@ABV?$allocator@U?$pair@QAUID3D11DeviceContext@@V?$map@PAUID3D11Resource@@UD3D11_MAPPED_SUBRESOURCE@@U?$less@PAUID3D11Resource@@@std@@V?$allocator@U?$pair@QAUID3D11Resource@@UD3D11_MAPPED_SUBRESOURCE@@@std@@@4@@std@@@std@@@1@@Z ; std::_Hash<std::_Umap_traits<ID3D11DeviceContext *,std::map<ID3D11Resource *,D3D11_MAPPED_SUBRESOURCE,std::less<ID3D11Resource *>,std::allocator<std::pair<ID3D11Resource * const,D3D11_MAPPED_SUBRESOURCE> > >,std::_Uhash_compare<ID3D11DeviceContext *,std::hash<ID3D11DeviceContext *>,std::equal_to<ID3D11DeviceContext *> >,std::allocator<std::pair<ID3D11DeviceContext * const,std::map<ID3D11Resource *,D3D11_MAPPED_SUBRESOURCE,std::less<ID3D11Resource *>,std::allocator<std::pair<ID3D11Resource * const,D3D11_MAPPED_SUBRESOURCE> > > > >,0> >::_Hash<std::_Umap_traits<ID3D11DeviceContext *,std::map<ID3D11Resource *,D3D11_MAPPED_SUBRESOURCE,std::less<ID3D11Resource *>,std::allocator<std::pair<ID3D11Resource * const,D3D11_MAPPED_SUBRESOURCE> > >,std::_Uhash_compare<ID3D11DeviceContext *,std::hash<ID3D11DeviceContext *>,std::equal_to<ID3D11DeviceContext *> >,std::allocator<std::pair<ID3D11DeviceContext * const,std::map<ID3D11Resource *,D3D11_MAPPED_SUBRESOURCE,std::less<ID3D11Resource *>,std::allocator<std::pair<ID3D11Resource * const,D3D11_MAPPED_SUBRESOURCE> > > > >,0> >
PUBLIC	??1?$_Hash@V?$_Umap_traits@PAUID3D11DeviceContext@@V?$map@PAUID3D11Resource@@UD3D11_MAPPED_SUBRESOURCE@@U?$less@PAUID3D11Resource@@@std@@V?$allocator@U?$pair@QAUID3D11Resource@@UD3D11_MAPPED_SUBRESOURCE@@@std@@@4@@std@@V?$_Uhash_compare@PAUID3D11DeviceContext@@U?$hash@PAUID3D11DeviceContext@@@std@@U?$equal_to@PAUID3D11DeviceContext@@@3@@3@V?$allocator@U?$pair@QAUID3D11DeviceContext@@V?$map@PAUID3D11Resource@@UD3D11_MAPPED_SUBRESOURCE@@U?$less@PAUID3D11Resource@@@std@@V?$allocator@U?$pair@QAUID3D11Resource@@UD3D11_MAPPED_SUBRESOURCE@@@std@@@4@@std@@@std@@@3@$0A@@std@@@std@@QAE@XZ ; std::_Hash<std::_Umap_traits<ID3D11DeviceContext *,std::map<ID3D11Resource *,D3D11_MAPPED_SUBRESOURCE,std::less<ID3D11Resource *>,std::allocator<std::pair<ID3D11Resource * const,D3D11_MAPPED_SUBRESOURCE> > >,std::_Uhash_compare<ID3D11DeviceContext *,std::hash<ID3D11DeviceContext *>,std::equal_to<ID3D11DeviceContext *> >,std::allocator<std::pair<ID3D11DeviceContext * const,std::map<ID3D11Resource *,D3D11_MAPPED_SUBRESOURCE,std::less<ID3D11Resource *>,std::allocator<std::pair<ID3D11Resource * const,D3D11_MAPPED_SUBRESOURCE> > > > >,0> >::~_Hash<std::_Umap_traits<ID3D11DeviceContext *,std::map<ID3D11Resource *,D3D11_MAPPED_SUBRESOURCE,std::less<ID3D11Resource *>,std::allocator<std::pair<ID3D11Resource * const,D3D11_MAPPED_SUBRESOURCE> > >,std::_Uhash_compare<ID3D11DeviceContext *,std::hash<ID3D11DeviceContext *>,std::equal_to<ID3D11DeviceContext *> >,std::allocator<std::pair<ID3D11DeviceContext * const,std::map<ID3D11Resource *,D3D11_MAPPED_SUBRESOURCE,std::less<ID3D11Resource *>,std::allocator<std::pair<ID3D11Resource * const,D3D11_MAPPED_SUBRESOURCE> > > > >,0> >
PUBLIC	?end@?$_Hash@V?$_Umap_traits@PAUID3D11DeviceContext@@V?$map@PAUID3D11Resource@@UD3D11_MAPPED_SUBRESOURCE@@U?$less@PAUID3D11Resource@@@std@@V?$allocator@U?$pair@QAUID3D11Resource@@UD3D11_MAPPED_SUBRESOURCE@@@std@@@4@@std@@V?$_Uhash_compare@PAUID3D11DeviceContext@@U?$hash@PAUID3D11DeviceContext@@@std@@U?$equal_to@PAUID3D11DeviceContext@@@3@@3@V?$allocator@U?$pair@QAUID3D11DeviceContext@@V?$map@PAUID3D11Resource@@UD3D11_MAPPED_SUBRESOURCE@@U?$less@PAUID3D11Resource@@@std@@V?$allocator@U?$pair@QAUID3D11Resource@@UD3D11_MAPPED_SUBRESOURCE@@@std@@@4@@std@@@std@@@3@$0A@@std@@@std@@QAE?AV?$_List_iterator@V?$_List_val@U?$_List_simple_types@U?$pair@QAUID3D11DeviceContext@@V?$map@PAUID3D11Resource@@UD3D11_MAPPED_SUBRESOURCE@@U?$less@PAUID3D11Resource@@@std@@V?$allocator@U?$pair@QAUID3D11Resource@@UD3D11_MAPPED_SUBRESOURCE@@@std@@@4@@std@@@std@@@std@@@std@@@2@XZ ; std::_Hash<std::_Umap_traits<ID3D11DeviceContext *,std::map<ID3D11Resource *,D3D11_MAPPED_SUBRESOURCE,std::less<ID3D11Resource *>,std::allocator<std::pair<ID3D11Resource * const,D3D11_MAPPED_SUBRESOURCE> > >,std::_Uhash_compare<ID3D11DeviceContext *,std::hash<ID3D11DeviceContext *>,std::equal_to<ID3D11DeviceContext *> >,std::allocator<std::pair<ID3D11DeviceContext * const,std::map<ID3D11Resource *,D3D11_MAPPED_SUBRESOURCE,std::less<ID3D11Resource *>,std::allocator<std::pair<ID3D11Resource * const,D3D11_MAPPED_SUBRESOURCE> > > > >,0> >::end
PUBLIC	?_Unchecked_begin@?$_Hash@V?$_Umap_traits@PAUID3D11DeviceContext@@V?$map@PAUID3D11Resource@@UD3D11_MAPPED_SUBRESOURCE@@U?$less@PAUID3D11Resource@@@std@@V?$allocator@U?$pair@QAUID3D11Resource@@UD3D11_MAPPED_SUBRESOURCE@@@std@@@4@@std@@V?$_Uhash_compare@PAUID3D11DeviceContext@@U?$hash@PAUID3D11DeviceContext@@@std@@U?$equal_to@PAUID3D11DeviceContext@@@3@@3@V?$allocator@U?$pair@QAUID3D11DeviceContext@@V?$map@PAUID3D11Resource@@UD3D11_MAPPED_SUBRESOURCE@@U?$less@PAUID3D11Resource@@@std@@V?$allocator@U?$pair@QAUID3D11Resource@@UD3D11_MAPPED_SUBRESOURCE@@@std@@@4@@std@@@std@@@3@$0A@@std@@@std@@QAE?AV?$_List_unchecked_iterator@V?$_List_val@U?$_List_simple_types@U?$pair@QAUID3D11DeviceContext@@V?$map@PAUID3D11Resource@@UD3D11_MAPPED_SUBRESOURCE@@U?$less@PAUID3D11Resource@@@std@@V?$allocator@U?$pair@QAUID3D11Resource@@UD3D11_MAPPED_SUBRESOURCE@@@std@@@4@@std@@@std@@@std@@@std@@@2@XZ ; std::_Hash<std::_Umap_traits<ID3D11DeviceContext *,std::map<ID3D11Resource *,D3D11_MAPPED_SUBRESOURCE,std::less<ID3D11Resource *>,std::allocator<std::pair<ID3D11Resource * const,D3D11_MAPPED_SUBRESOURCE> > >,std::_Uhash_compare<ID3D11DeviceContext *,std::hash<ID3D11DeviceContext *>,std::equal_to<ID3D11DeviceContext *> >,std::allocator<std::pair<ID3D11DeviceContext * const,std::map<ID3D11Resource *,D3D11_MAPPED_SUBRESOURCE,std::less<ID3D11Resource *>,std::allocator<std::pair<ID3D11Resource * const,D3D11_MAPPED_SUBRESOURCE> > > > >,0> >::_Unchecked_begin
PUBLIC	?_Unchecked_end@?$_Hash@V?$_Umap_traits@PAUID3D11DeviceContext@@V?$map@PAUID3D11Resource@@UD3D11_MAPPED_SUBRESOURCE@@U?$less@PAUID3D11Resource@@@std@@V?$allocator@U?$pair@QAUID3D11Resource@@UD3D11_MAPPED_SUBRESOURCE@@@std@@@4@@std@@V?$_Uhash_compare@PAUID3D11DeviceContext@@U?$hash@PAUID3D11DeviceContext@@@std@@U?$equal_to@PAUID3D11DeviceContext@@@3@@3@V?$allocator@U?$pair@QAUID3D11DeviceContext@@V?$map@PAUID3D11Resource@@UD3D11_MAPPED_SUBRESOURCE@@U?$less@PAUID3D11Resource@@@std@@V?$allocator@U?$pair@QAUID3D11Resource@@UD3D11_MAPPED_SUBRESOURCE@@@std@@@4@@std@@@std@@@3@$0A@@std@@@std@@QAE?AV?$_List_unchecked_iterator@V?$_List_val@U?$_List_simple_types@U?$pair@QAUID3D11DeviceContext@@V?$map@PAUID3D11Resource@@UD3D11_MAPPED_SUBRESOURCE@@U?$less@PAUID3D11Resource@@@std@@V?$allocator@U?$pair@QAUID3D11Resource@@UD3D11_MAPPED_SUBRESOURCE@@@std@@@4@@std@@@std@@@std@@@std@@@2@XZ ; std::_Hash<std::_Umap_traits<ID3D11DeviceContext *,std::map<ID3D11Resource *,D3D11_MAPPED_SUBRESOURCE,std::less<ID3D11Resource *>,std::allocator<std::pair<ID3D11Resource * const,D3D11_MAPPED_SUBRESOURCE> > >,std::_Uhash_compare<ID3D11DeviceContext *,std::hash<ID3D11DeviceContext *>,std::equal_to<ID3D11DeviceContext *> >,std::allocator<std::pair<ID3D11DeviceContext * const,std::map<ID3D11Resource *,D3D11_MAPPED_SUBRESOURCE,std::less<ID3D11Resource *>,std::allocator<std::pair<ID3D11Resource * const,D3D11_MAPPED_SUBRESOURCE> > > > >,0> >::_Unchecked_end
PUBLIC	?_Make_iter@?$_Hash@V?$_Umap_traits@PAUID3D11DeviceContext@@V?$map@PAUID3D11Resource@@UD3D11_MAPPED_SUBRESOURCE@@U?$less@PAUID3D11Resource@@@std@@V?$allocator@U?$pair@QAUID3D11Resource@@UD3D11_MAPPED_SUBRESOURCE@@@std@@@4@@std@@V?$_Uhash_compare@PAUID3D11DeviceContext@@U?$hash@PAUID3D11DeviceContext@@@std@@U?$equal_to@PAUID3D11DeviceContext@@@3@@3@V?$allocator@U?$pair@QAUID3D11DeviceContext@@V?$map@PAUID3D11Resource@@UD3D11_MAPPED_SUBRESOURCE@@U?$less@PAUID3D11Resource@@@std@@V?$allocator@U?$pair@QAUID3D11Resource@@UD3D11_MAPPED_SUBRESOURCE@@@std@@@4@@std@@@std@@@3@$0A@@std@@@std@@QBE?AV?$_List_iterator@V?$_List_val@U?$_List_simple_types@U?$pair@QAUID3D11DeviceContext@@V?$map@PAUID3D11Resource@@UD3D11_MAPPED_SUBRESOURCE@@U?$less@PAUID3D11Resource@@@std@@V?$allocator@U?$pair@QAUID3D11Resource@@UD3D11_MAPPED_SUBRESOURCE@@@std@@@4@@std@@@std@@@std@@@std@@@2@V?$_List_unchecked_const_iterator@V?$_List_val@U?$_List_simple_types@U?$pair@QAUID3D11DeviceContext@@V?$map@PAUID3D11Resource@@UD3D11_MAPPED_SUBRESOURCE@@U?$less@PAUID3D11Resource@@@std@@V?$allocator@U?$pair@QAUID3D11Resource@@UD3D11_MAPPED_SUBRESOURCE@@@std@@@4@@std@@@std@@@std@@@std@@U_Iterator_base0@2@@2@@Z ; std::_Hash<std::_Umap_traits<ID3D11DeviceContext *,std::map<ID3D11Resource *,D3D11_MAPPED_SUBRESOURCE,std::less<ID3D11Resource *>,std::allocator<std::pair<ID3D11Resource * const,D3D11_MAPPED_SUBRESOURCE> > >,std::_Uhash_compare<ID3D11DeviceContext *,std::hash<ID3D11DeviceContext *>,std::equal_to<ID3D11DeviceContext *> >,std::allocator<std::pair<ID3D11DeviceContext * const,std::map<ID3D11Resource *,D3D11_MAPPED_SUBRESOURCE,std::less<ID3D11Resource *>,std::allocator<std::pair<ID3D11Resource * const,D3D11_MAPPED_SUBRESOURCE> > > > >,0> >::_Make_iter
PUBLIC	?_Make_iter@?$_Hash@V?$_Umap_traits@PAUID3D11DeviceContext@@V?$map@PAUID3D11Resource@@UD3D11_MAPPED_SUBRESOURCE@@U?$less@PAUID3D11Resource@@@std@@V?$allocator@U?$pair@QAUID3D11Resource@@UD3D11_MAPPED_SUBRESOURCE@@@std@@@4@@std@@V?$_Uhash_compare@PAUID3D11DeviceContext@@U?$hash@PAUID3D11DeviceContext@@@std@@U?$equal_to@PAUID3D11DeviceContext@@@3@@3@V?$allocator@U?$pair@QAUID3D11DeviceContext@@V?$map@PAUID3D11Resource@@UD3D11_MAPPED_SUBRESOURCE@@U?$less@PAUID3D11Resource@@@std@@V?$allocator@U?$pair@QAUID3D11Resource@@UD3D11_MAPPED_SUBRESOURCE@@@std@@@4@@std@@@std@@@3@$0A@@std@@@std@@QBE?AV?$_List_iterator@V?$_List_val@U?$_List_simple_types@U?$pair@QAUID3D11DeviceContext@@V?$map@PAUID3D11Resource@@UD3D11_MAPPED_SUBRESOURCE@@U?$less@PAUID3D11Resource@@@std@@V?$allocator@U?$pair@QAUID3D11Resource@@UD3D11_MAPPED_SUBRESOURCE@@@std@@@4@@std@@@std@@@std@@@std@@@2@V?$_List_const_iterator@V?$_List_val@U?$_List_simple_types@U?$pair@QAUID3D11DeviceContext@@V?$map@PAUID3D11Resource@@UD3D11_MAPPED_SUBRESOURCE@@U?$less@PAUID3D11Resource@@@std@@V?$allocator@U?$pair@QAUID3D11Resource@@UD3D11_MAPPED_SUBRESOURCE@@@std@@@4@@std@@@std@@@std@@@std@@@2@@Z ; std::_Hash<std::_Umap_traits<ID3D11DeviceContext *,std::map<ID3D11Resource *,D3D11_MAPPED_SUBRESOURCE,std::less<ID3D11Resource *>,std::allocator<std::pair<ID3D11Resource * const,D3D11_MAPPED_SUBRESOURCE> > >,std::_Uhash_compare<ID3D11DeviceContext *,std::hash<ID3D11DeviceContext *>,std::equal_to<ID3D11DeviceContext *> >,std::allocator<std::pair<ID3D11DeviceContext * const,std::map<ID3D11Resource *,D3D11_MAPPED_SUBRESOURCE,std::less<ID3D11Resource *>,std::allocator<std::pair<ID3D11Resource * const,D3D11_MAPPED_SUBRESOURCE> > > > >,0> >::_Make_iter
PUBLIC	?size@?$_Hash@V?$_Umap_traits@PAUID3D11DeviceContext@@V?$map@PAUID3D11Resource@@UD3D11_MAPPED_SUBRESOURCE@@U?$less@PAUID3D11Resource@@@std@@V?$allocator@U?$pair@QAUID3D11Resource@@UD3D11_MAPPED_SUBRESOURCE@@@std@@@4@@std@@V?$_Uhash_compare@PAUID3D11DeviceContext@@U?$hash@PAUID3D11DeviceContext@@@std@@U?$equal_to@PAUID3D11DeviceContext@@@3@@3@V?$allocator@U?$pair@QAUID3D11DeviceContext@@V?$map@PAUID3D11Resource@@UD3D11_MAPPED_SUBRESOURCE@@U?$less@PAUID3D11Resource@@@std@@V?$allocator@U?$pair@QAUID3D11Resource@@UD3D11_MAPPED_SUBRESOURCE@@@std@@@4@@std@@@std@@@3@$0A@@std@@@std@@QBEIXZ ; std::_Hash<std::_Umap_traits<ID3D11DeviceContext *,std::map<ID3D11Resource *,D3D11_MAPPED_SUBRESOURCE,std::less<ID3D11Resource *>,std::allocator<std::pair<ID3D11Resource * const,D3D11_MAPPED_SUBRESOURCE> > >,std::_Uhash_compare<ID3D11DeviceContext *,std::hash<ID3D11DeviceContext *>,std::equal_to<ID3D11DeviceContext *> >,std::allocator<std::pair<ID3D11DeviceContext * const,std::map<ID3D11Resource *,D3D11_MAPPED_SUBRESOURCE,std::less<ID3D11Resource *>,std::allocator<std::pair<ID3D11Resource * const,D3D11_MAPPED_SUBRESOURCE> > > > >,0> >::size
PUBLIC	?bucket_count@?$_Hash@V?$_Umap_traits@PAUID3D11DeviceContext@@V?$map@PAUID3D11Resource@@UD3D11_MAPPED_SUBRESOURCE@@U?$less@PAUID3D11Resource@@@std@@V?$allocator@U?$pair@QAUID3D11Resource@@UD3D11_MAPPED_SUBRESOURCE@@@std@@@4@@std@@V?$_Uhash_compare@PAUID3D11DeviceContext@@U?$hash@PAUID3D11DeviceContext@@@std@@U?$equal_to@PAUID3D11DeviceContext@@@3@@3@V?$allocator@U?$pair@QAUID3D11DeviceContext@@V?$map@PAUID3D11Resource@@UD3D11_MAPPED_SUBRESOURCE@@U?$less@PAUID3D11Resource@@@std@@V?$allocator@U?$pair@QAUID3D11Resource@@UD3D11_MAPPED_SUBRESOURCE@@@std@@@4@@std@@@std@@@3@$0A@@std@@@std@@QBEIXZ ; std::_Hash<std::_Umap_traits<ID3D11DeviceContext *,std::map<ID3D11Resource *,D3D11_MAPPED_SUBRESOURCE,std::less<ID3D11Resource *>,std::allocator<std::pair<ID3D11Resource * const,D3D11_MAPPED_SUBRESOURCE> > >,std::_Uhash_compare<ID3D11DeviceContext *,std::hash<ID3D11DeviceContext *>,std::equal_to<ID3D11DeviceContext *> >,std::allocator<std::pair<ID3D11DeviceContext * const,std::map<ID3D11Resource *,D3D11_MAPPED_SUBRESOURCE,std::less<ID3D11Resource *>,std::allocator<std::pair<ID3D11Resource * const,D3D11_MAPPED_SUBRESOURCE> > > > >,0> >::bucket_count
PUBLIC	?load_factor@?$_Hash@V?$_Umap_traits@PAUID3D11DeviceContext@@V?$map@PAUID3D11Resource@@UD3D11_MAPPED_SUBRESOURCE@@U?$less@PAUID3D11Resource@@@std@@V?$allocator@U?$pair@QAUID3D11Resource@@UD3D11_MAPPED_SUBRESOURCE@@@std@@@4@@std@@V?$_Uhash_compare@PAUID3D11DeviceContext@@U?$hash@PAUID3D11DeviceContext@@@std@@U?$equal_to@PAUID3D11DeviceContext@@@3@@3@V?$allocator@U?$pair@QAUID3D11DeviceContext@@V?$map@PAUID3D11Resource@@UD3D11_MAPPED_SUBRESOURCE@@U?$less@PAUID3D11Resource@@@std@@V?$allocator@U?$pair@QAUID3D11Resource@@UD3D11_MAPPED_SUBRESOURCE@@@std@@@4@@std@@@std@@@3@$0A@@std@@@std@@QBEMXZ ; std::_Hash<std::_Umap_traits<ID3D11DeviceContext *,std::map<ID3D11Resource *,D3D11_MAPPED_SUBRESOURCE,std::less<ID3D11Resource *>,std::allocator<std::pair<ID3D11Resource * const,D3D11_MAPPED_SUBRESOURCE> > >,std::_Uhash_compare<ID3D11DeviceContext *,std::hash<ID3D11DeviceContext *>,std::equal_to<ID3D11DeviceContext *> >,std::allocator<std::pair<ID3D11DeviceContext * const,std::map<ID3D11Resource *,D3D11_MAPPED_SUBRESOURCE,std::less<ID3D11Resource *>,std::allocator<std::pair<ID3D11Resource * const,D3D11_MAPPED_SUBRESOURCE> > > > >,0> >::load_factor
PUBLIC	?max_load_factor@?$_Hash@V?$_Umap_traits@PAUID3D11DeviceContext@@V?$map@PAUID3D11Resource@@UD3D11_MAPPED_SUBRESOURCE@@U?$less@PAUID3D11Resource@@@std@@V?$allocator@U?$pair@QAUID3D11Resource@@UD3D11_MAPPED_SUBRESOURCE@@@std@@@4@@std@@V?$_Uhash_compare@PAUID3D11DeviceContext@@U?$hash@PAUID3D11DeviceContext@@@std@@U?$equal_to@PAUID3D11DeviceContext@@@3@@3@V?$allocator@U?$pair@QAUID3D11DeviceContext@@V?$map@PAUID3D11Resource@@UD3D11_MAPPED_SUBRESOURCE@@U?$less@PAUID3D11Resource@@@std@@V?$allocator@U?$pair@QAUID3D11Resource@@UD3D11_MAPPED_SUBRESOURCE@@@std@@@4@@std@@@std@@@3@$0A@@std@@@std@@QBEMXZ ; std::_Hash<std::_Umap_traits<ID3D11DeviceContext *,std::map<ID3D11Resource *,D3D11_MAPPED_SUBRESOURCE,std::less<ID3D11Resource *>,std::allocator<std::pair<ID3D11Resource * const,D3D11_MAPPED_SUBRESOURCE> > >,std::_Uhash_compare<ID3D11DeviceContext *,std::hash<ID3D11DeviceContext *>,std::equal_to<ID3D11DeviceContext *> >,std::allocator<std::pair<ID3D11DeviceContext * const,std::map<ID3D11Resource *,D3D11_MAPPED_SUBRESOURCE,std::less<ID3D11Resource *>,std::allocator<std::pair<ID3D11Resource * const,D3D11_MAPPED_SUBRESOURCE> > > > >,0> >::max_load_factor
PUBLIC	?erase@?$_Hash@V?$_Umap_traits@PAUID3D11DeviceContext@@V?$map@PAUID3D11Resource@@UD3D11_MAPPED_SUBRESOURCE@@U?$less@PAUID3D11Resource@@@std@@V?$allocator@U?$pair@QAUID3D11Resource@@UD3D11_MAPPED_SUBRESOURCE@@@std@@@4@@std@@V?$_Uhash_compare@PAUID3D11DeviceContext@@U?$hash@PAUID3D11DeviceContext@@@std@@U?$equal_to@PAUID3D11DeviceContext@@@3@@3@V?$allocator@U?$pair@QAUID3D11DeviceContext@@V?$map@PAUID3D11Resource@@UD3D11_MAPPED_SUBRESOURCE@@U?$less@PAUID3D11Resource@@@std@@V?$allocator@U?$pair@QAUID3D11Resource@@UD3D11_MAPPED_SUBRESOURCE@@@std@@@4@@std@@@std@@@3@$0A@@std@@@std@@QAE?AV?$_List_iterator@V?$_List_val@U?$_List_simple_types@U?$pair@QAUID3D11DeviceContext@@V?$map@PAUID3D11Resource@@UD3D11_MAPPED_SUBRESOURCE@@U?$less@PAUID3D11Resource@@@std@@V?$allocator@U?$pair@QAUID3D11Resource@@UD3D11_MAPPED_SUBRESOURCE@@@std@@@4@@std@@@std@@@std@@@std@@@2@V?$_List_const_iterator@V?$_List_val@U?$_List_simple_types@U?$pair@QAUID3D11DeviceContext@@V?$map@PAUID3D11Resource@@UD3D11_MAPPED_SUBRESOURCE@@U?$less@PAUID3D11Resource@@@std@@V?$allocator@U?$pair@QAUID3D11Resource@@UD3D11_MAPPED_SUBRESOURCE@@@std@@@4@@std@@@std@@@std@@@std@@@2@@Z ; std::_Hash<std::_Umap_traits<ID3D11DeviceContext *,std::map<ID3D11Resource *,D3D11_MAPPED_SUBRESOURCE,std::less<ID3D11Resource *>,std::allocator<std::pair<ID3D11Resource * const,D3D11_MAPPED_SUBRESOURCE> > >,std::_Uhash_compare<ID3D11DeviceContext *,std::hash<ID3D11DeviceContext *>,std::equal_to<ID3D11DeviceContext *> >,std::allocator<std::pair<ID3D11DeviceContext * const,std::map<ID3D11Resource *,D3D11_MAPPED_SUBRESOURCE,std::less<ID3D11Resource *>,std::allocator<std::pair<ID3D11Resource * const,D3D11_MAPPED_SUBRESOURCE> > > > >,0> >::erase
PUBLIC	?find@?$_Hash@V?$_Umap_traits@PAUID3D11DeviceContext@@V?$map@PAUID3D11Resource@@UD3D11_MAPPED_SUBRESOURCE@@U?$less@PAUID3D11Resource@@@std@@V?$allocator@U?$pair@QAUID3D11Resource@@UD3D11_MAPPED_SUBRESOURCE@@@std@@@4@@std@@V?$_Uhash_compare@PAUID3D11DeviceContext@@U?$hash@PAUID3D11DeviceContext@@@std@@U?$equal_to@PAUID3D11DeviceContext@@@3@@3@V?$allocator@U?$pair@QAUID3D11DeviceContext@@V?$map@PAUID3D11Resource@@UD3D11_MAPPED_SUBRESOURCE@@U?$less@PAUID3D11Resource@@@std@@V?$allocator@U?$pair@QAUID3D11Resource@@UD3D11_MAPPED_SUBRESOURCE@@@std@@@4@@std@@@std@@@3@$0A@@std@@@std@@QAE?AV?$_List_iterator@V?$_List_val@U?$_List_simple_types@U?$pair@QAUID3D11DeviceContext@@V?$map@PAUID3D11Resource@@UD3D11_MAPPED_SUBRESOURCE@@U?$less@PAUID3D11Resource@@@std@@V?$allocator@U?$pair@QAUID3D11Resource@@UD3D11_MAPPED_SUBRESOURCE@@@std@@@4@@std@@@std@@@std@@@std@@@2@ABQAUID3D11DeviceContext@@@Z ; std::_Hash<std::_Umap_traits<ID3D11DeviceContext *,std::map<ID3D11Resource *,D3D11_MAPPED_SUBRESOURCE,std::less<ID3D11Resource *>,std::allocator<std::pair<ID3D11Resource * const,D3D11_MAPPED_SUBRESOURCE> > >,std::_Uhash_compare<ID3D11DeviceContext *,std::hash<ID3D11DeviceContext *>,std::equal_to<ID3D11DeviceContext *> >,std::allocator<std::pair<ID3D11DeviceContext * const,std::map<ID3D11Resource *,D3D11_MAPPED_SUBRESOURCE,std::less<ID3D11Resource *>,std::allocator<std::pair<ID3D11Resource * const,D3D11_MAPPED_SUBRESOURCE> > > > >,0> >::find
PUBLIC	?lower_bound@?$_Hash@V?$_Umap_traits@PAUID3D11DeviceContext@@V?$map@PAUID3D11Resource@@UD3D11_MAPPED_SUBRESOURCE@@U?$less@PAUID3D11Resource@@@std@@V?$allocator@U?$pair@QAUID3D11Resource@@UD3D11_MAPPED_SUBRESOURCE@@@std@@@4@@std@@V?$_Uhash_compare@PAUID3D11DeviceContext@@U?$hash@PAUID3D11DeviceContext@@@std@@U?$equal_to@PAUID3D11DeviceContext@@@3@@3@V?$allocator@U?$pair@QAUID3D11DeviceContext@@V?$map@PAUID3D11Resource@@UD3D11_MAPPED_SUBRESOURCE@@U?$less@PAUID3D11Resource@@@std@@V?$allocator@U?$pair@QAUID3D11Resource@@UD3D11_MAPPED_SUBRESOURCE@@@std@@@4@@std@@@std@@@3@$0A@@std@@@std@@QAE?AV?$_List_iterator@V?$_List_val@U?$_List_simple_types@U?$pair@QAUID3D11DeviceContext@@V?$map@PAUID3D11Resource@@UD3D11_MAPPED_SUBRESOURCE@@U?$less@PAUID3D11Resource@@@std@@V?$allocator@U?$pair@QAUID3D11Resource@@UD3D11_MAPPED_SUBRESOURCE@@@std@@@4@@std@@@std@@@std@@@std@@@2@ABQAUID3D11DeviceContext@@@Z ; std::_Hash<std::_Umap_traits<ID3D11DeviceContext *,std::map<ID3D11Resource *,D3D11_MAPPED_SUBRESOURCE,std::less<ID3D11Resource *>,std::allocator<std::pair<ID3D11Resource * const,D3D11_MAPPED_SUBRESOURCE> > >,std::_Uhash_compare<ID3D11DeviceContext *,std::hash<ID3D11DeviceContext *>,std::equal_to<ID3D11DeviceContext *> >,std::allocator<std::pair<ID3D11DeviceContext * const,std::map<ID3D11Resource *,D3D11_MAPPED_SUBRESOURCE,std::less<ID3D11Resource *>,std::allocator<std::pair<ID3D11Resource * const,D3D11_MAPPED_SUBRESOURCE> > > > >,0> >::lower_bound
PUBLIC	?_Destroy_if_not_nil@?$_Hash@V?$_Umap_traits@PAUID3D11DeviceContext@@V?$map@PAUID3D11Resource@@UD3D11_MAPPED_SUBRESOURCE@@U?$less@PAUID3D11Resource@@@std@@V?$allocator@U?$pair@QAUID3D11Resource@@UD3D11_MAPPED_SUBRESOURCE@@@std@@@4@@std@@V?$_Uhash_compare@PAUID3D11DeviceContext@@U?$hash@PAUID3D11DeviceContext@@@std@@U?$equal_to@PAUID3D11DeviceContext@@@3@@3@V?$allocator@U?$pair@QAUID3D11DeviceContext@@V?$map@PAUID3D11Resource@@UD3D11_MAPPED_SUBRESOURCE@@U?$less@PAUID3D11Resource@@@std@@V?$allocator@U?$pair@QAUID3D11Resource@@UD3D11_MAPPED_SUBRESOURCE@@@std@@@4@@std@@@std@@@3@$0A@@std@@@std@@IAEXV?$_List_unchecked_iterator@V?$_List_val@U?$_List_simple_types@U?$pair@QAUID3D11DeviceContext@@V?$map@PAUID3D11Resource@@UD3D11_MAPPED_SUBRESOURCE@@U?$less@PAUID3D11Resource@@@std@@V?$allocator@U?$pair@QAUID3D11Resource@@UD3D11_MAPPED_SUBRESOURCE@@@std@@@4@@std@@@std@@@std@@@std@@@2@@Z ; std::_Hash<std::_Umap_traits<ID3D11DeviceContext *,std::map<ID3D11Resource *,D3D11_MAPPED_SUBRESOURCE,std::less<ID3D11Resource *>,std::allocator<std::pair<ID3D11Resource * const,D3D11_MAPPED_SUBRESOURCE> > >,std::_Uhash_compare<ID3D11DeviceContext *,std::hash<ID3D11DeviceContext *>,std::equal_to<ID3D11DeviceContext *> >,std::allocator<std::pair<ID3D11DeviceContext * const,std::map<ID3D11Resource *,D3D11_MAPPED_SUBRESOURCE,std::less<ID3D11Resource *>,std::allocator<std::pair<ID3D11Resource * const,D3D11_MAPPED_SUBRESOURCE> > > > >,0> >::_Destroy_if_not_nil
PUBLIC	?_Vec_lo@?$_Hash@V?$_Umap_traits@PAUID3D11DeviceContext@@V?$map@PAUID3D11Resource@@UD3D11_MAPPED_SUBRESOURCE@@U?$less@PAUID3D11Resource@@@std@@V?$allocator@U?$pair@QAUID3D11Resource@@UD3D11_MAPPED_SUBRESOURCE@@@std@@@4@@std@@V?$_Uhash_compare@PAUID3D11DeviceContext@@U?$hash@PAUID3D11DeviceContext@@@std@@U?$equal_to@PAUID3D11DeviceContext@@@3@@3@V?$allocator@U?$pair@QAUID3D11DeviceContext@@V?$map@PAUID3D11Resource@@UD3D11_MAPPED_SUBRESOURCE@@U?$less@PAUID3D11Resource@@@std@@V?$allocator@U?$pair@QAUID3D11Resource@@UD3D11_MAPPED_SUBRESOURCE@@@std@@@4@@std@@@std@@@3@$0A@@std@@@std@@IAEAAV?$_List_unchecked_iterator@V?$_List_val@U?$_List_simple_types@U?$pair@QAUID3D11DeviceContext@@V?$map@PAUID3D11Resource@@UD3D11_MAPPED_SUBRESOURCE@@U?$less@PAUID3D11Resource@@@std@@V?$allocator@U?$pair@QAUID3D11Resource@@UD3D11_MAPPED_SUBRESOURCE@@@std@@@4@@std@@@std@@@std@@@std@@@2@I@Z ; std::_Hash<std::_Umap_traits<ID3D11DeviceContext *,std::map<ID3D11Resource *,D3D11_MAPPED_SUBRESOURCE,std::less<ID3D11Resource *>,std::allocator<std::pair<ID3D11Resource * const,D3D11_MAPPED_SUBRESOURCE> > >,std::_Uhash_compare<ID3D11DeviceContext *,std::hash<ID3D11DeviceContext *>,std::equal_to<ID3D11DeviceContext *> >,std::allocator<std::pair<ID3D11DeviceContext * const,std::map<ID3D11Resource *,D3D11_MAPPED_SUBRESOURCE,std::less<ID3D11Resource *>,std::allocator<std::pair<ID3D11Resource * const,D3D11_MAPPED_SUBRESOURCE> > > > >,0> >::_Vec_lo
PUBLIC	?_Vec_hi@?$_Hash@V?$_Umap_traits@PAUID3D11DeviceContext@@V?$map@PAUID3D11Resource@@UD3D11_MAPPED_SUBRESOURCE@@U?$less@PAUID3D11Resource@@@std@@V?$allocator@U?$pair@QAUID3D11Resource@@UD3D11_MAPPED_SUBRESOURCE@@@std@@@4@@std@@V?$_Uhash_compare@PAUID3D11DeviceContext@@U?$hash@PAUID3D11DeviceContext@@@std@@U?$equal_to@PAUID3D11DeviceContext@@@3@@3@V?$allocator@U?$pair@QAUID3D11DeviceContext@@V?$map@PAUID3D11Resource@@UD3D11_MAPPED_SUBRESOURCE@@U?$less@PAUID3D11Resource@@@std@@V?$allocator@U?$pair@QAUID3D11Resource@@UD3D11_MAPPED_SUBRESOURCE@@@std@@@4@@std@@@std@@@3@$0A@@std@@@std@@IAEAAV?$_List_unchecked_iterator@V?$_List_val@U?$_List_simple_types@U?$pair@QAUID3D11DeviceContext@@V?$map@PAUID3D11Resource@@UD3D11_MAPPED_SUBRESOURCE@@U?$less@PAUID3D11Resource@@@std@@V?$allocator@U?$pair@QAUID3D11Resource@@UD3D11_MAPPED_SUBRESOURCE@@@std@@@4@@std@@@std@@@std@@@std@@@2@I@Z ; std::_Hash<std::_Umap_traits<ID3D11DeviceContext *,std::map<ID3D11Resource *,D3D11_MAPPED_SUBRESOURCE,std::less<ID3D11Resource *>,std::allocator<std::pair<ID3D11Resource * const,D3D11_MAPPED_SUBRESOURCE> > >,std::_Uhash_compare<ID3D11DeviceContext *,std::hash<ID3D11DeviceContext *>,std::equal_to<ID3D11DeviceContext *> >,std::allocator<std::pair<ID3D11DeviceContext * const,std::map<ID3D11Resource *,D3D11_MAPPED_SUBRESOURCE,std::less<ID3D11Resource *>,std::allocator<std::pair<ID3D11Resource * const,D3D11_MAPPED_SUBRESOURCE> > > > >,0> >::_Vec_hi
PUBLIC	?_Begin@?$_Hash@V?$_Umap_traits@PAUID3D11DeviceContext@@V?$map@PAUID3D11Resource@@UD3D11_MAPPED_SUBRESOURCE@@U?$less@PAUID3D11Resource@@@std@@V?$allocator@U?$pair@QAUID3D11Resource@@UD3D11_MAPPED_SUBRESOURCE@@@std@@@4@@std@@V?$_Uhash_compare@PAUID3D11DeviceContext@@U?$hash@PAUID3D11DeviceContext@@@std@@U?$equal_to@PAUID3D11DeviceContext@@@3@@3@V?$allocator@U?$pair@QAUID3D11DeviceContext@@V?$map@PAUID3D11Resource@@UD3D11_MAPPED_SUBRESOURCE@@U?$less@PAUID3D11Resource@@@std@@V?$allocator@U?$pair@QAUID3D11Resource@@UD3D11_MAPPED_SUBRESOURCE@@@std@@@4@@std@@@std@@@3@$0A@@std@@@std@@IAE?AV?$_List_unchecked_iterator@V?$_List_val@U?$_List_simple_types@U?$pair@QAUID3D11DeviceContext@@V?$map@PAUID3D11Resource@@UD3D11_MAPPED_SUBRESOURCE@@U?$less@PAUID3D11Resource@@@std@@V?$allocator@U?$pair@QAUID3D11Resource@@UD3D11_MAPPED_SUBRESOURCE@@@std@@@4@@std@@@std@@@std@@@std@@@2@I@Z ; std::_Hash<std::_Umap_traits<ID3D11DeviceContext *,std::map<ID3D11Resource *,D3D11_MAPPED_SUBRESOURCE,std::less<ID3D11Resource *>,std::allocator<std::pair<ID3D11Resource * const,D3D11_MAPPED_SUBRESOURCE> > >,std::_Uhash_compare<ID3D11DeviceContext *,std::hash<ID3D11DeviceContext *>,std::equal_to<ID3D11DeviceContext *> >,std::allocator<std::pair<ID3D11DeviceContext * const,std::map<ID3D11Resource *,D3D11_MAPPED_SUBRESOURCE,std::less<ID3D11Resource *>,std::allocator<std::pair<ID3D11Resource * const,D3D11_MAPPED_SUBRESOURCE> > > > >,0> >::_Begin
PUBLIC	?_End@?$_Hash@V?$_Umap_traits@PAUID3D11DeviceContext@@V?$map@PAUID3D11Resource@@UD3D11_MAPPED_SUBRESOURCE@@U?$less@PAUID3D11Resource@@@std@@V?$allocator@U?$pair@QAUID3D11Resource@@UD3D11_MAPPED_SUBRESOURCE@@@std@@@4@@std@@V?$_Uhash_compare@PAUID3D11DeviceContext@@U?$hash@PAUID3D11DeviceContext@@@std@@U?$equal_to@PAUID3D11DeviceContext@@@3@@3@V?$allocator@U?$pair@QAUID3D11DeviceContext@@V?$map@PAUID3D11Resource@@UD3D11_MAPPED_SUBRESOURCE@@U?$less@PAUID3D11Resource@@@std@@V?$allocator@U?$pair@QAUID3D11Resource@@UD3D11_MAPPED_SUBRESOURCE@@@std@@@4@@std@@@std@@@3@$0A@@std@@@std@@IAE?AV?$_List_unchecked_iterator@V?$_List_val@U?$_List_simple_types@U?$pair@QAUID3D11DeviceContext@@V?$map@PAUID3D11Resource@@UD3D11_MAPPED_SUBRESOURCE@@U?$less@PAUID3D11Resource@@@std@@V?$allocator@U?$pair@QAUID3D11Resource@@UD3D11_MAPPED_SUBRESOURCE@@@std@@@4@@std@@@std@@@std@@@std@@@2@I@Z ; std::_Hash<std::_Umap_traits<ID3D11DeviceContext *,std::map<ID3D11Resource *,D3D11_MAPPED_SUBRESOURCE,std::less<ID3D11Resource *>,std::allocator<std::pair<ID3D11Resource * const,D3D11_MAPPED_SUBRESOURCE> > >,std::_Uhash_compare<ID3D11DeviceContext *,std::hash<ID3D11DeviceContext *>,std::equal_to<ID3D11DeviceContext *> >,std::allocator<std::pair<ID3D11DeviceContext * const,std::map<ID3D11Resource *,D3D11_MAPPED_SUBRESOURCE,std::less<ID3D11Resource *>,std::allocator<std::pair<ID3D11Resource * const,D3D11_MAPPED_SUBRESOURCE> > > > >,0> >::_End
PUBLIC	?_Erase_bucket@?$_Hash@V?$_Umap_traits@PAUID3D11DeviceContext@@V?$map@PAUID3D11Resource@@UD3D11_MAPPED_SUBRESOURCE@@U?$less@PAUID3D11Resource@@@std@@V?$allocator@U?$pair@QAUID3D11Resource@@UD3D11_MAPPED_SUBRESOURCE@@@std@@@4@@std@@V?$_Uhash_compare@PAUID3D11DeviceContext@@U?$hash@PAUID3D11DeviceContext@@@std@@U?$equal_to@PAUID3D11DeviceContext@@@3@@3@V?$allocator@U?$pair@QAUID3D11DeviceContext@@V?$map@PAUID3D11Resource@@UD3D11_MAPPED_SUBRESOURCE@@U?$less@PAUID3D11Resource@@@std@@V?$allocator@U?$pair@QAUID3D11Resource@@UD3D11_MAPPED_SUBRESOURCE@@@std@@@4@@std@@@std@@@3@$0A@@std@@@std@@IAEXV?$_List_iterator@V?$_List_val@U?$_List_simple_types@U?$pair@QAUID3D11DeviceContext@@V?$map@PAUID3D11Resource@@UD3D11_MAPPED_SUBRESOURCE@@U?$less@PAUID3D11Resource@@@std@@V?$allocator@U?$pair@QAUID3D11Resource@@UD3D11_MAPPED_SUBRESOURCE@@@std@@@4@@std@@@std@@@std@@@std@@@2@I@Z ; std::_Hash<std::_Umap_traits<ID3D11DeviceContext *,std::map<ID3D11Resource *,D3D11_MAPPED_SUBRESOURCE,std::less<ID3D11Resource *>,std::allocator<std::pair<ID3D11Resource * const,D3D11_MAPPED_SUBRESOURCE> > >,std::_Uhash_compare<ID3D11DeviceContext *,std::hash<ID3D11DeviceContext *>,std::equal_to<ID3D11DeviceContext *> >,std::allocator<std::pair<ID3D11DeviceContext * const,std::map<ID3D11Resource *,D3D11_MAPPED_SUBRESOURCE,std::less<ID3D11Resource *>,std::allocator<std::pair<ID3D11Resource * const,D3D11_MAPPED_SUBRESOURCE> > > > >,0> >::_Erase_bucket
PUBLIC	?_Insert_bucket@?$_Hash@V?$_Umap_traits@PAUID3D11DeviceContext@@V?$map@PAUID3D11Resource@@UD3D11_MAPPED_SUBRESOURCE@@U?$less@PAUID3D11Resource@@@std@@V?$allocator@U?$pair@QAUID3D11Resource@@UD3D11_MAPPED_SUBRESOURCE@@@std@@@4@@std@@V?$_Uhash_compare@PAUID3D11DeviceContext@@U?$hash@PAUID3D11DeviceContext@@@std@@U?$equal_to@PAUID3D11DeviceContext@@@3@@3@V?$allocator@U?$pair@QAUID3D11DeviceContext@@V?$map@PAUID3D11Resource@@UD3D11_MAPPED_SUBRESOURCE@@U?$less@PAUID3D11Resource@@@std@@V?$allocator@U?$pair@QAUID3D11Resource@@UD3D11_MAPPED_SUBRESOURCE@@@std@@@4@@std@@@std@@@3@$0A@@std@@@std@@IAEXV?$_List_unchecked_iterator@V?$_List_val@U?$_List_simple_types@U?$pair@QAUID3D11DeviceContext@@V?$map@PAUID3D11Resource@@UD3D11_MAPPED_SUBRESOURCE@@U?$less@PAUID3D11Resource@@@std@@V?$allocator@U?$pair@QAUID3D11Resource@@UD3D11_MAPPED_SUBRESOURCE@@@std@@@4@@std@@@std@@@std@@@std@@@2@0I@Z ; std::_Hash<std::_Umap_traits<ID3D11DeviceContext *,std::map<ID3D11Resource *,D3D11_MAPPED_SUBRESOURCE,std::less<ID3D11Resource *>,std::allocator<std::pair<ID3D11Resource * const,D3D11_MAPPED_SUBRESOURCE> > >,std::_Uhash_compare<ID3D11DeviceContext *,std::hash<ID3D11DeviceContext *>,std::equal_to<ID3D11DeviceContext *> >,std::allocator<std::pair<ID3D11DeviceContext * const,std::map<ID3D11Resource *,D3D11_MAPPED_SUBRESOURCE,std::less<ID3D11Resource *>,std::allocator<std::pair<ID3D11Resource * const,D3D11_MAPPED_SUBRESOURCE> > > > >,0> >::_Insert_bucket
PUBLIC	?_Hashval@?$_Hash@V?$_Umap_traits@PAUID3D11DeviceContext@@V?$map@PAUID3D11Resource@@UD3D11_MAPPED_SUBRESOURCE@@U?$less@PAUID3D11Resource@@@std@@V?$allocator@U?$pair@QAUID3D11Resource@@UD3D11_MAPPED_SUBRESOURCE@@@std@@@4@@std@@V?$_Uhash_compare@PAUID3D11DeviceContext@@U?$hash@PAUID3D11DeviceContext@@@std@@U?$equal_to@PAUID3D11DeviceContext@@@3@@3@V?$allocator@U?$pair@QAUID3D11DeviceContext@@V?$map@PAUID3D11Resource@@UD3D11_MAPPED_SUBRESOURCE@@U?$less@PAUID3D11Resource@@@std@@V?$allocator@U?$pair@QAUID3D11Resource@@UD3D11_MAPPED_SUBRESOURCE@@@std@@@4@@std@@@std@@@3@$0A@@std@@@std@@IBEIABQAUID3D11DeviceContext@@@Z ; std::_Hash<std::_Umap_traits<ID3D11DeviceContext *,std::map<ID3D11Resource *,D3D11_MAPPED_SUBRESOURCE,std::less<ID3D11Resource *>,std::allocator<std::pair<ID3D11Resource * const,D3D11_MAPPED_SUBRESOURCE> > >,std::_Uhash_compare<ID3D11DeviceContext *,std::hash<ID3D11DeviceContext *>,std::equal_to<ID3D11DeviceContext *> >,std::allocator<std::pair<ID3D11DeviceContext * const,std::map<ID3D11Resource *,D3D11_MAPPED_SUBRESOURCE,std::less<ID3D11Resource *>,std::allocator<std::pair<ID3D11Resource * const,D3D11_MAPPED_SUBRESOURCE> > > > >,0> >::_Hashval
PUBLIC	?_Init@?$_Hash@V?$_Umap_traits@PAUID3D11DeviceContext@@V?$map@PAUID3D11Resource@@UD3D11_MAPPED_SUBRESOURCE@@U?$less@PAUID3D11Resource@@@std@@V?$allocator@U?$pair@QAUID3D11Resource@@UD3D11_MAPPED_SUBRESOURCE@@@std@@@4@@std@@V?$_Uhash_compare@PAUID3D11DeviceContext@@U?$hash@PAUID3D11DeviceContext@@@std@@U?$equal_to@PAUID3D11DeviceContext@@@3@@3@V?$allocator@U?$pair@QAUID3D11DeviceContext@@V?$map@PAUID3D11Resource@@UD3D11_MAPPED_SUBRESOURCE@@U?$less@PAUID3D11Resource@@@std@@V?$allocator@U?$pair@QAUID3D11Resource@@UD3D11_MAPPED_SUBRESOURCE@@@std@@@4@@std@@@std@@@3@$0A@@std@@@std@@IAEXI@Z ; std::_Hash<std::_Umap_traits<ID3D11DeviceContext *,std::map<ID3D11Resource *,D3D11_MAPPED_SUBRESOURCE,std::less<ID3D11Resource *>,std::allocator<std::pair<ID3D11Resource * const,D3D11_MAPPED_SUBRESOURCE> > >,std::_Uhash_compare<ID3D11DeviceContext *,std::hash<ID3D11DeviceContext *>,std::equal_to<ID3D11DeviceContext *> >,std::allocator<std::pair<ID3D11DeviceContext * const,std::map<ID3D11Resource *,D3D11_MAPPED_SUBRESOURCE,std::less<ID3D11Resource *>,std::allocator<std::pair<ID3D11Resource * const,D3D11_MAPPED_SUBRESOURCE> > > > >,0> >::_Init
PUBLIC	?_Check_size@?$_Hash@V?$_Umap_traits@PAUID3D11DeviceContext@@V?$map@PAUID3D11Resource@@UD3D11_MAPPED_SUBRESOURCE@@U?$less@PAUID3D11Resource@@@std@@V?$allocator@U?$pair@QAUID3D11Resource@@UD3D11_MAPPED_SUBRESOURCE@@@std@@@4@@std@@V?$_Uhash_compare@PAUID3D11DeviceContext@@U?$hash@PAUID3D11DeviceContext@@@std@@U?$equal_to@PAUID3D11DeviceContext@@@3@@3@V?$allocator@U?$pair@QAUID3D11DeviceContext@@V?$map@PAUID3D11Resource@@UD3D11_MAPPED_SUBRESOURCE@@U?$less@PAUID3D11Resource@@@std@@V?$allocator@U?$pair@QAUID3D11Resource@@UD3D11_MAPPED_SUBRESOURCE@@@std@@@4@@std@@@std@@@3@$0A@@std@@@std@@IAEXXZ ; std::_Hash<std::_Umap_traits<ID3D11DeviceContext *,std::map<ID3D11Resource *,D3D11_MAPPED_SUBRESOURCE,std::less<ID3D11Resource *>,std::allocator<std::pair<ID3D11Resource * const,D3D11_MAPPED_SUBRESOURCE> > >,std::_Uhash_compare<ID3D11DeviceContext *,std::hash<ID3D11DeviceContext *>,std::equal_to<ID3D11DeviceContext *> >,std::allocator<std::pair<ID3D11DeviceContext * const,std::map<ID3D11Resource *,D3D11_MAPPED_SUBRESOURCE,std::less<ID3D11Resource *>,std::allocator<std::pair<ID3D11Resource * const,D3D11_MAPPED_SUBRESOURCE> > > > >,0> >::_Check_size
PUBLIC	?_Reinsert@?$_Hash@V?$_Umap_traits@PAUID3D11DeviceContext@@V?$map@PAUID3D11Resource@@UD3D11_MAPPED_SUBRESOURCE@@U?$less@PAUID3D11Resource@@@std@@V?$allocator@U?$pair@QAUID3D11Resource@@UD3D11_MAPPED_SUBRESOURCE@@@std@@@4@@std@@V?$_Uhash_compare@PAUID3D11DeviceContext@@U?$hash@PAUID3D11DeviceContext@@@std@@U?$equal_to@PAUID3D11DeviceContext@@@3@@3@V?$allocator@U?$pair@QAUID3D11DeviceContext@@V?$map@PAUID3D11Resource@@UD3D11_MAPPED_SUBRESOURCE@@U?$less@PAUID3D11Resource@@@std@@V?$allocator@U?$pair@QAUID3D11Resource@@UD3D11_MAPPED_SUBRESOURCE@@@std@@@4@@std@@@std@@@3@$0A@@std@@@std@@IAEXXZ ; std::_Hash<std::_Umap_traits<ID3D11DeviceContext *,std::map<ID3D11Resource *,D3D11_MAPPED_SUBRESOURCE,std::less<ID3D11Resource *>,std::allocator<std::pair<ID3D11Resource * const,D3D11_MAPPED_SUBRESOURCE> > >,std::_Uhash_compare<ID3D11DeviceContext *,std::hash<ID3D11DeviceContext *>,std::equal_to<ID3D11DeviceContext *> >,std::allocator<std::pair<ID3D11DeviceContext * const,std::map<ID3D11Resource *,D3D11_MAPPED_SUBRESOURCE,std::less<ID3D11Resource *>,std::allocator<std::pair<ID3D11Resource * const,D3D11_MAPPED_SUBRESOURCE> > > > >,0> >::_Reinsert
PUBLIC	?_Max_bucket_size@?$_Hash@V?$_Umap_traits@PAUID3D11DeviceContext@@V?$map@PAUID3D11Resource@@UD3D11_MAPPED_SUBRESOURCE@@U?$less@PAUID3D11Resource@@@std@@V?$allocator@U?$pair@QAUID3D11Resource@@UD3D11_MAPPED_SUBRESOURCE@@@std@@@4@@std@@V?$_Uhash_compare@PAUID3D11DeviceContext@@U?$hash@PAUID3D11DeviceContext@@@std@@U?$equal_to@PAUID3D11DeviceContext@@@3@@3@V?$allocator@U?$pair@QAUID3D11DeviceContext@@V?$map@PAUID3D11Resource@@UD3D11_MAPPED_SUBRESOURCE@@U?$less@PAUID3D11Resource@@@std@@V?$allocator@U?$pair@QAUID3D11Resource@@UD3D11_MAPPED_SUBRESOURCE@@@std@@@4@@std@@@std@@@3@$0A@@std@@@std@@IAEAAMXZ ; std::_Hash<std::_Umap_traits<ID3D11DeviceContext *,std::map<ID3D11Resource *,D3D11_MAPPED_SUBRESOURCE,std::less<ID3D11Resource *>,std::allocator<std::pair<ID3D11Resource * const,D3D11_MAPPED_SUBRESOURCE> > >,std::_Uhash_compare<ID3D11DeviceContext *,std::hash<ID3D11DeviceContext *>,std::equal_to<ID3D11DeviceContext *> >,std::allocator<std::pair<ID3D11DeviceContext * const,std::map<ID3D11Resource *,D3D11_MAPPED_SUBRESOURCE,std::less<ID3D11Resource *>,std::allocator<std::pair<ID3D11Resource * const,D3D11_MAPPED_SUBRESOURCE> > > > >,0> >::_Max_bucket_size
PUBLIC	?_Max_bucket_size@?$_Hash@V?$_Umap_traits@PAUID3D11DeviceContext@@V?$map@PAUID3D11Resource@@UD3D11_MAPPED_SUBRESOURCE@@U?$less@PAUID3D11Resource@@@std@@V?$allocator@U?$pair@QAUID3D11Resource@@UD3D11_MAPPED_SUBRESOURCE@@@std@@@4@@std@@V?$_Uhash_compare@PAUID3D11DeviceContext@@U?$hash@PAUID3D11DeviceContext@@@std@@U?$equal_to@PAUID3D11DeviceContext@@@3@@3@V?$allocator@U?$pair@QAUID3D11DeviceContext@@V?$map@PAUID3D11Resource@@UD3D11_MAPPED_SUBRESOURCE@@U?$less@PAUID3D11Resource@@@std@@V?$allocator@U?$pair@QAUID3D11Resource@@UD3D11_MAPPED_SUBRESOURCE@@@std@@@4@@std@@@std@@@3@$0A@@std@@@std@@IBEABMXZ ; std::_Hash<std::_Umap_traits<ID3D11DeviceContext *,std::map<ID3D11Resource *,D3D11_MAPPED_SUBRESOURCE,std::less<ID3D11Resource *>,std::allocator<std::pair<ID3D11Resource * const,D3D11_MAPPED_SUBRESOURCE> > >,std::_Uhash_compare<ID3D11DeviceContext *,std::hash<ID3D11DeviceContext *>,std::equal_to<ID3D11DeviceContext *> >,std::allocator<std::pair<ID3D11DeviceContext * const,std::map<ID3D11Resource *,D3D11_MAPPED_SUBRESOURCE,std::less<ID3D11Resource *>,std::allocator<std::pair<ID3D11Resource * const,D3D11_MAPPED_SUBRESOURCE> > > > >,0> >::_Max_bucket_size
PUBLIC	??0?$allocator@V?$_List_unchecked_iterator@V?$_List_val@U?$_List_simple_types@U?$pair@QAUID3D11DeviceContext@@V?$map@PAUID3D11Resource@@UD3D11_MAPPED_SUBRESOURCE@@U?$less@PAUID3D11Resource@@@std@@V?$allocator@U?$pair@QAUID3D11Resource@@UD3D11_MAPPED_SUBRESOURCE@@@std@@@4@@std@@@std@@@std@@@std@@@std@@@std@@QAE@ABV01@@Z ; std::allocator<std::_List_unchecked_iterator<std::_List_val<std::_List_simple_types<std::pair<ID3D11DeviceContext * const,std::map<ID3D11Resource *,D3D11_MAPPED_SUBRESOURCE,std::less<ID3D11Resource *>,std::allocator<std::pair<ID3D11Resource * const,D3D11_MAPPED_SUBRESOURCE> > > > > > > >::allocator<std::_List_unchecked_iterator<std::_List_val<std::_List_simple_types<std::pair<ID3D11DeviceContext * const,std::map<ID3D11Resource *,D3D11_MAPPED_SUBRESOURCE,std::less<ID3D11Resource *>,std::allocator<std::pair<ID3D11Resource * const,D3D11_MAPPED_SUBRESOURCE> > > > > > > >
PUBLIC	?deallocate@?$allocator@V?$_List_unchecked_iterator@V?$_List_val@U?$_List_simple_types@U?$pair@QAUID3D11DeviceContext@@V?$map@PAUID3D11Resource@@UD3D11_MAPPED_SUBRESOURCE@@U?$less@PAUID3D11Resource@@@std@@V?$allocator@U?$pair@QAUID3D11Resource@@UD3D11_MAPPED_SUBRESOURCE@@@std@@@4@@std@@@std@@@std@@@std@@@std@@@std@@QAEXPAV?$_List_unchecked_iterator@V?$_List_val@U?$_List_simple_types@U?$pair@QAUID3D11DeviceContext@@V?$map@PAUID3D11Resource@@UD3D11_MAPPED_SUBRESOURCE@@U?$less@PAUID3D11Resource@@@std@@V?$allocator@U?$pair@QAUID3D11Resource@@UD3D11_MAPPED_SUBRESOURCE@@@std@@@4@@std@@@std@@@std@@@std@@@2@I@Z ; std::allocator<std::_List_unchecked_iterator<std::_List_val<std::_List_simple_types<std::pair<ID3D11DeviceContext * const,std::map<ID3D11Resource *,D3D11_MAPPED_SUBRESOURCE,std::less<ID3D11Resource *>,std::allocator<std::pair<ID3D11Resource * const,D3D11_MAPPED_SUBRESOURCE> > > > > > > >::deallocate
PUBLIC	?allocate@?$allocator@V?$_List_unchecked_iterator@V?$_List_val@U?$_List_simple_types@U?$pair@QAUID3D11DeviceContext@@V?$map@PAUID3D11Resource@@UD3D11_MAPPED_SUBRESOURCE@@U?$less@PAUID3D11Resource@@@std@@V?$allocator@U?$pair@QAUID3D11Resource@@UD3D11_MAPPED_SUBRESOURCE@@@std@@@4@@std@@@std@@@std@@@std@@@std@@@std@@QAEPAV?$_List_unchecked_iterator@V?$_List_val@U?$_List_simple_types@U?$pair@QAUID3D11DeviceContext@@V?$map@PAUID3D11Resource@@UD3D11_MAPPED_SUBRESOURCE@@U?$less@PAUID3D11Resource@@@std@@V?$allocator@U?$pair@QAUID3D11Resource@@UD3D11_MAPPED_SUBRESOURCE@@@std@@@4@@std@@@std@@@std@@@std@@@2@I@Z ; std::allocator<std::_List_unchecked_iterator<std::_List_val<std::_List_simple_types<std::pair<ID3D11DeviceContext * const,std::map<ID3D11Resource *,D3D11_MAPPED_SUBRESOURCE,std::less<ID3D11Resource *>,std::allocator<std::pair<ID3D11Resource * const,D3D11_MAPPED_SUBRESOURCE> > > > > > > >::allocate
PUBLIC	?max_size@?$allocator@V?$_List_unchecked_iterator@V?$_List_val@U?$_List_simple_types@U?$pair@QAUID3D11DeviceContext@@V?$map@PAUID3D11Resource@@UD3D11_MAPPED_SUBRESOURCE@@U?$less@PAUID3D11Resource@@@std@@V?$allocator@U?$pair@QAUID3D11Resource@@UD3D11_MAPPED_SUBRESOURCE@@@std@@@4@@std@@@std@@@std@@@std@@@std@@@std@@QBEIXZ ; std::allocator<std::_List_unchecked_iterator<std::_List_val<std::_List_simple_types<std::pair<ID3D11DeviceContext * const,std::map<ID3D11Resource *,D3D11_MAPPED_SUBRESOURCE,std::less<ID3D11Resource *>,std::allocator<std::pair<ID3D11Resource * const,D3D11_MAPPED_SUBRESOURCE> > > > > > > >::max_size
PUBLIC	?max_size@?$allocator_traits@V?$allocator@V?$_List_unchecked_iterator@V?$_List_val@U?$_List_simple_types@U?$pair@QAUID3D11DeviceContext@@V?$map@PAUID3D11Resource@@UD3D11_MAPPED_SUBRESOURCE@@U?$less@PAUID3D11Resource@@@std@@V?$allocator@U?$pair@QAUID3D11Resource@@UD3D11_MAPPED_SUBRESOURCE@@@std@@@4@@std@@@std@@@std@@@std@@@std@@@std@@@std@@SAIABV?$allocator@V?$_List_unchecked_iterator@V?$_List_val@U?$_List_simple_types@U?$pair@QAUID3D11DeviceContext@@V?$map@PAUID3D11Resource@@UD3D11_MAPPED_SUBRESOURCE@@U?$less@PAUID3D11Resource@@@std@@V?$allocator@U?$pair@QAUID3D11Resource@@UD3D11_MAPPED_SUBRESOURCE@@@std@@@4@@std@@@std@@@std@@@std@@@std@@@2@@Z ; std::allocator_traits<std::allocator<std::_List_unchecked_iterator<std::_List_val<std::_List_simple_types<std::pair<ID3D11DeviceContext * const,std::map<ID3D11Resource *,D3D11_MAPPED_SUBRESOURCE,std::less<ID3D11Resource *>,std::allocator<std::pair<ID3D11Resource * const,D3D11_MAPPED_SUBRESOURCE> > > > > > > > >::max_size
PUBLIC	??0?$_Wrap_alloc@V?$allocator@V?$_List_unchecked_iterator@V?$_List_val@U?$_List_simple_types@U?$pair@QAUID3D11DeviceContext@@V?$map@PAUID3D11Resource@@UD3D11_MAPPED_SUBRESOURCE@@U?$less@PAUID3D11Resource@@@std@@V?$allocator@U?$pair@QAUID3D11Resource@@UD3D11_MAPPED_SUBRESOURCE@@@std@@@4@@std@@@std@@@std@@@std@@@std@@@std@@@std@@QAE@ABU01@@Z ; std::_Wrap_alloc<std::allocator<std::_List_unchecked_iterator<std::_List_val<std::_List_simple_types<std::pair<ID3D11DeviceContext * const,std::map<ID3D11Resource *,D3D11_MAPPED_SUBRESOURCE,std::less<ID3D11Resource *>,std::allocator<std::pair<ID3D11Resource * const,D3D11_MAPPED_SUBRESOURCE> > > > > > > > >::_Wrap_alloc<std::allocator<std::_List_unchecked_iterator<std::_List_val<std::_List_simple_types<std::pair<ID3D11DeviceContext * const,std::map<ID3D11Resource *,D3D11_MAPPED_SUBRESOURCE,std::less<ID3D11Resource *>,std::allocator<std::pair<ID3D11Resource * const,D3D11_MAPPED_SUBRESOURCE> > > > > > > > >
PUBLIC	?allocate@?$_Wrap_alloc@V?$allocator@V?$_List_unchecked_iterator@V?$_List_val@U?$_List_simple_types@U?$pair@QAUID3D11DeviceContext@@V?$map@PAUID3D11Resource@@UD3D11_MAPPED_SUBRESOURCE@@U?$less@PAUID3D11Resource@@@std@@V?$allocator@U?$pair@QAUID3D11Resource@@UD3D11_MAPPED_SUBRESOURCE@@@std@@@4@@std@@@std@@@std@@@std@@@std@@@std@@@std@@QAEPAV?$_List_unchecked_iterator@V?$_List_val@U?$_List_simple_types@U?$pair@QAUID3D11DeviceContext@@V?$map@PAUID3D11Resource@@UD3D11_MAPPED_SUBRESOURCE@@U?$less@PAUID3D11Resource@@@std@@V?$allocator@U?$pair@QAUID3D11Resource@@UD3D11_MAPPED_SUBRESOURCE@@@std@@@4@@std@@@std@@@std@@@std@@@2@I@Z ; std::_Wrap_alloc<std::allocator<std::_List_unchecked_iterator<std::_List_val<std::_List_simple_types<std::pair<ID3D11DeviceContext * const,std::map<ID3D11Resource *,D3D11_MAPPED_SUBRESOURCE,std::less<ID3D11Resource *>,std::allocator<std::pair<ID3D11Resource * const,D3D11_MAPPED_SUBRESOURCE> > > > > > > > >::allocate
PUBLIC	?deallocate@?$_Wrap_alloc@V?$allocator@V?$_List_unchecked_iterator@V?$_List_val@U?$_List_simple_types@U?$pair@QAUID3D11DeviceContext@@V?$map@PAUID3D11Resource@@UD3D11_MAPPED_SUBRESOURCE@@U?$less@PAUID3D11Resource@@@std@@V?$allocator@U?$pair@QAUID3D11Resource@@UD3D11_MAPPED_SUBRESOURCE@@@std@@@4@@std@@@std@@@std@@@std@@@std@@@std@@@std@@QAEXPAV?$_List_unchecked_iterator@V?$_List_val@U?$_List_simple_types@U?$pair@QAUID3D11DeviceContext@@V?$map@PAUID3D11Resource@@UD3D11_MAPPED_SUBRESOURCE@@U?$less@PAUID3D11Resource@@@std@@V?$allocator@U?$pair@QAUID3D11Resource@@UD3D11_MAPPED_SUBRESOURCE@@@std@@@4@@std@@@std@@@std@@@std@@@2@I@Z ; std::_Wrap_alloc<std::allocator<std::_List_unchecked_iterator<std::_List_val<std::_List_simple_types<std::pair<ID3D11DeviceContext * const,std::map<ID3D11Resource *,D3D11_MAPPED_SUBRESOURCE,std::less<ID3D11Resource *>,std::allocator<std::pair<ID3D11Resource * const,D3D11_MAPPED_SUBRESOURCE> > > > > > > > >::deallocate
PUBLIC	?max_size@?$_Wrap_alloc@V?$allocator@V?$_List_unchecked_iterator@V?$_List_val@U?$_List_simple_types@U?$pair@QAUID3D11DeviceContext@@V?$map@PAUID3D11Resource@@UD3D11_MAPPED_SUBRESOURCE@@U?$less@PAUID3D11Resource@@@std@@V?$allocator@U?$pair@QAUID3D11Resource@@UD3D11_MAPPED_SUBRESOURCE@@@std@@@4@@std@@@std@@@std@@@std@@@std@@@std@@@std@@QBEIU_Nil@2@@Z ; std::_Wrap_alloc<std::allocator<std::_List_unchecked_iterator<std::_List_val<std::_List_simple_types<std::pair<ID3D11DeviceContext * const,std::map<ID3D11Resource *,D3D11_MAPPED_SUBRESOURCE,std::less<ID3D11Resource *>,std::allocator<std::pair<ID3D11Resource * const,D3D11_MAPPED_SUBRESOURCE> > > > > > > > >::max_size
PUBLIC	?max_size@?$allocator_traits@U?$_Wrap_alloc@V?$allocator@V?$_List_unchecked_iterator@V?$_List_val@U?$_List_simple_types@U?$pair@QAUID3D11DeviceContext@@V?$map@PAUID3D11Resource@@UD3D11_MAPPED_SUBRESOURCE@@U?$less@PAUID3D11Resource@@@std@@V?$allocator@U?$pair@QAUID3D11Resource@@UD3D11_MAPPED_SUBRESOURCE@@@std@@@4@@std@@@std@@@std@@@std@@@std@@@std@@@std@@@std@@SAIABU?$_Wrap_alloc@V?$allocator@V?$_List_unchecked_iterator@V?$_List_val@U?$_List_simple_types@U?$pair@QAUID3D11DeviceContext@@V?$map@PAUID3D11Resource@@UD3D11_MAPPED_SUBRESOURCE@@U?$less@PAUID3D11Resource@@@std@@V?$allocator@U?$pair@QAUID3D11Resource@@UD3D11_MAPPED_SUBRESOURCE@@@std@@@4@@std@@@std@@@std@@@std@@@std@@@std@@@2@@Z ; std::allocator_traits<std::_Wrap_alloc<std::allocator<std::_List_unchecked_iterator<std::_List_val<std::_List_simple_types<std::pair<ID3D11DeviceContext * const,std::map<ID3D11Resource *,D3D11_MAPPED_SUBRESOURCE,std::less<ID3D11Resource *>,std::allocator<std::pair<ID3D11Resource * const,D3D11_MAPPED_SUBRESOURCE> > > > > > > > > >::max_size
PUBLIC	?allocate@?$_Wrap_alloc@U?$_Wrap_alloc@V?$allocator@V?$_List_unchecked_iterator@V?$_List_val@U?$_List_simple_types@U?$pair@QAUID3D11DeviceContext@@V?$map@PAUID3D11Resource@@UD3D11_MAPPED_SUBRESOURCE@@U?$less@PAUID3D11Resource@@@std@@V?$allocator@U?$pair@QAUID3D11Resource@@UD3D11_MAPPED_SUBRESOURCE@@@std@@@4@@std@@@std@@@std@@@std@@@std@@@std@@@std@@@std@@QAEPAV?$_List_unchecked_iterator@V?$_List_val@U?$_List_simple_types@U?$pair@QAUID3D11DeviceContext@@V?$map@PAUID3D11Resource@@UD3D11_MAPPED_SUBRESOURCE@@U?$less@PAUID3D11Resource@@@std@@V?$allocator@U?$pair@QAUID3D11Resource@@UD3D11_MAPPED_SUBRESOURCE@@@std@@@4@@std@@@std@@@std@@@std@@@2@I@Z ; std::_Wrap_alloc<std::_Wrap_alloc<std::allocator<std::_List_unchecked_iterator<std::_List_val<std::_List_simple_types<std::pair<ID3D11DeviceContext * const,std::map<ID3D11Resource *,D3D11_MAPPED_SUBRESOURCE,std::less<ID3D11Resource *>,std::allocator<std::pair<ID3D11Resource * const,D3D11_MAPPED_SUBRESOURCE> > > > > > > > > >::allocate
PUBLIC	?deallocate@?$_Wrap_alloc@U?$_Wrap_alloc@V?$allocator@V?$_List_unchecked_iterator@V?$_List_val@U?$_List_simple_types@U?$pair@QAUID3D11DeviceContext@@V?$map@PAUID3D11Resource@@UD3D11_MAPPED_SUBRESOURCE@@U?$less@PAUID3D11Resource@@@std@@V?$allocator@U?$pair@QAUID3D11Resource@@UD3D11_MAPPED_SUBRESOURCE@@@std@@@4@@std@@@std@@@std@@@std@@@std@@@std@@@std@@@std@@QAEXPAV?$_List_unchecked_iterator@V?$_List_val@U?$_List_simple_types@U?$pair@QAUID3D11DeviceContext@@V?$map@PAUID3D11Resource@@UD3D11_MAPPED_SUBRESOURCE@@U?$less@PAUID3D11Resource@@@std@@V?$allocator@U?$pair@QAUID3D11Resource@@UD3D11_MAPPED_SUBRESOURCE@@@std@@@4@@std@@@std@@@std@@@std@@@2@I@Z ; std::_Wrap_alloc<std::_Wrap_alloc<std::allocator<std::_List_unchecked_iterator<std::_List_val<std::_List_simple_types<std::pair<ID3D11DeviceContext * const,std::map<ID3D11Resource *,D3D11_MAPPED_SUBRESOURCE,std::less<ID3D11Resource *>,std::allocator<std::pair<ID3D11Resource * const,D3D11_MAPPED_SUBRESOURCE> > > > > > > > > >::deallocate
PUBLIC	?max_size@?$_Wrap_alloc@U?$_Wrap_alloc@V?$allocator@V?$_List_unchecked_iterator@V?$_List_val@U?$_List_simple_types@U?$pair@QAUID3D11DeviceContext@@V?$map@PAUID3D11Resource@@UD3D11_MAPPED_SUBRESOURCE@@U?$less@PAUID3D11Resource@@@std@@V?$allocator@U?$pair@QAUID3D11Resource@@UD3D11_MAPPED_SUBRESOURCE@@@std@@@4@@std@@@std@@@std@@@std@@@std@@@std@@@std@@@std@@QBEIU_Nil@2@@Z ; std::_Wrap_alloc<std::_Wrap_alloc<std::allocator<std::_List_unchecked_iterator<std::_List_val<std::_List_simple_types<std::pair<ID3D11DeviceContext * const,std::map<ID3D11Resource *,D3D11_MAPPED_SUBRESOURCE,std::less<ID3D11Resource *>,std::allocator<std::pair<ID3D11Resource * const,D3D11_MAPPED_SUBRESOURCE> > > > > > > > > >::max_size
PUBLIC	?_Orphan_all@?$_Vector_alloc@U?$_Vec_base_types@V?$_List_unchecked_iterator@V?$_List_val@U?$_List_simple_types@U?$pair@QAUID3D11DeviceContext@@V?$map@PAUID3D11Resource@@UD3D11_MAPPED_SUBRESOURCE@@U?$less@PAUID3D11Resource@@@std@@V?$allocator@U?$pair@QAUID3D11Resource@@UD3D11_MAPPED_SUBRESOURCE@@@std@@@4@@std@@@std@@@std@@@std@@@std@@U?$_Wrap_alloc@V?$allocator@V?$_List_unchecked_iterator@V?$_List_val@U?$_List_simple_types@U?$pair@QAUID3D11DeviceContext@@V?$map@PAUID3D11Resource@@UD3D11_MAPPED_SUBRESOURCE@@U?$less@PAUID3D11Resource@@@std@@V?$allocator@U?$pair@QAUID3D11Resource@@UD3D11_MAPPED_SUBRESOURCE@@@std@@@4@@std@@@std@@@std@@@std@@@std@@@std@@@2@@std@@@std@@QAEXXZ ; std::_Vector_alloc<std::_Vec_base_types<std::_List_unchecked_iterator<std::_List_val<std::_List_simple_types<std::pair<ID3D11DeviceContext * const,std::map<ID3D11Resource *,D3D11_MAPPED_SUBRESOURCE,std::less<ID3D11Resource *>,std::allocator<std::pair<ID3D11Resource * const,D3D11_MAPPED_SUBRESOURCE> > > > > > >,std::_Wrap_alloc<std::allocator<std::_List_unchecked_iterator<std::_List_val<std::_List_simple_types<std::pair<ID3D11DeviceContext * const,std::map<ID3D11Resource *,D3D11_MAPPED_SUBRESOURCE,std::less<ID3D11Resource *>,std::allocator<std::pair<ID3D11Resource * const,D3D11_MAPPED_SUBRESOURCE> > > > > > > > > > >::_Orphan_all
PUBLIC	?_Getal@?$_Vector_alloc@U?$_Vec_base_types@V?$_List_unchecked_iterator@V?$_List_val@U?$_List_simple_types@U?$pair@QAUID3D11DeviceContext@@V?$map@PAUID3D11Resource@@UD3D11_MAPPED_SUBRESOURCE@@U?$less@PAUID3D11Resource@@@std@@V?$allocator@U?$pair@QAUID3D11Resource@@UD3D11_MAPPED_SUBRESOURCE@@@std@@@4@@std@@@std@@@std@@@std@@@std@@U?$_Wrap_alloc@V?$allocator@V?$_List_unchecked_iterator@V?$_List_val@U?$_List_simple_types@U?$pair@QAUID3D11DeviceContext@@V?$map@PAUID3D11Resource@@UD3D11_MAPPED_SUBRESOURCE@@U?$less@PAUID3D11Resource@@@std@@V?$allocator@U?$pair@QAUID3D11Resource@@UD3D11_MAPPED_SUBRESOURCE@@@std@@@4@@std@@@std@@@std@@@std@@@std@@@std@@@2@@std@@@std@@QAEAAU?$_Wrap_alloc@U?$_Wrap_alloc@V?$allocator@V?$_List_unchecked_iterator@V?$_List_val@U?$_List_simple_types@U?$pair@QAUID3D11DeviceContext@@V?$map@PAUID3D11Resource@@UD3D11_MAPPED_SUBRESOURCE@@U?$less@PAUID3D11Resource@@@std@@V?$allocator@U?$pair@QAUID3D11Resource@@UD3D11_MAPPED_SUBRESOURCE@@@std@@@4@@std@@@std@@@std@@@std@@@std@@@std@@@std@@@2@XZ ; std::_Vector_alloc<std::_Vec_base_types<std::_List_unchecked_iterator<std::_List_val<std::_List_simple_types<std::pair<ID3D11DeviceContext * const,std::map<ID3D11Resource *,D3D11_MAPPED_SUBRESOURCE,std::less<ID3D11Resource *>,std::allocator<std::pair<ID3D11Resource * const,D3D11_MAPPED_SUBRESOURCE> > > > > > >,std::_Wrap_alloc<std::allocator<std::_List_unchecked_iterator<std::_List_val<std::_List_simple_types<std::pair<ID3D11DeviceContext * const,std::map<ID3D11Resource *,D3D11_MAPPED_SUBRESOURCE,std::less<ID3D11Resource *>,std::allocator<std::pair<ID3D11Resource * const,D3D11_MAPPED_SUBRESOURCE> > > > > > > > > > >::_Getal
PUBLIC	?_Getal@?$_Vector_alloc@U?$_Vec_base_types@V?$_List_unchecked_iterator@V?$_List_val@U?$_List_simple_types@U?$pair@QAUID3D11DeviceContext@@V?$map@PAUID3D11Resource@@UD3D11_MAPPED_SUBRESOURCE@@U?$less@PAUID3D11Resource@@@std@@V?$allocator@U?$pair@QAUID3D11Resource@@UD3D11_MAPPED_SUBRESOURCE@@@std@@@4@@std@@@std@@@std@@@std@@@std@@U?$_Wrap_alloc@V?$allocator@V?$_List_unchecked_iterator@V?$_List_val@U?$_List_simple_types@U?$pair@QAUID3D11DeviceContext@@V?$map@PAUID3D11Resource@@UD3D11_MAPPED_SUBRESOURCE@@U?$less@PAUID3D11Resource@@@std@@V?$allocator@U?$pair@QAUID3D11Resource@@UD3D11_MAPPED_SUBRESOURCE@@@std@@@4@@std@@@std@@@std@@@std@@@std@@@std@@@2@@std@@@std@@QBEABU?$_Wrap_alloc@U?$_Wrap_alloc@V?$allocator@V?$_List_unchecked_iterator@V?$_List_val@U?$_List_simple_types@U?$pair@QAUID3D11DeviceContext@@V?$map@PAUID3D11Resource@@UD3D11_MAPPED_SUBRESOURCE@@U?$less@PAUID3D11Resource@@@std@@V?$allocator@U?$pair@QAUID3D11Resource@@UD3D11_MAPPED_SUBRESOURCE@@@std@@@4@@std@@@std@@@std@@@std@@@std@@@std@@@std@@@2@XZ ; std::_Vector_alloc<std::_Vec_base_types<std::_List_unchecked_iterator<std::_List_val<std::_List_simple_types<std::pair<ID3D11DeviceContext * const,std::map<ID3D11Resource *,D3D11_MAPPED_SUBRESOURCE,std::less<ID3D11Resource *>,std::allocator<std::pair<ID3D11Resource * const,D3D11_MAPPED_SUBRESOURCE> > > > > > >,std::_Wrap_alloc<std::allocator<std::_List_unchecked_iterator<std::_List_val<std::_List_simple_types<std::pair<ID3D11DeviceContext * const,std::map<ID3D11Resource *,D3D11_MAPPED_SUBRESOURCE,std::less<ID3D11Resource *>,std::allocator<std::pair<ID3D11Resource * const,D3D11_MAPPED_SUBRESOURCE> > > > > > > > > > >::_Getal
PUBLIC	?_Get_data@?$_Vector_alloc@U?$_Vec_base_types@V?$_List_unchecked_iterator@V?$_List_val@U?$_List_simple_types@U?$pair@QAUID3D11DeviceContext@@V?$map@PAUID3D11Resource@@UD3D11_MAPPED_SUBRESOURCE@@U?$less@PAUID3D11Resource@@@std@@V?$allocator@U?$pair@QAUID3D11Resource@@UD3D11_MAPPED_SUBRESOURCE@@@std@@@4@@std@@@std@@@std@@@std@@@std@@U?$_Wrap_alloc@V?$allocator@V?$_List_unchecked_iterator@V?$_List_val@U?$_List_simple_types@U?$pair@QAUID3D11DeviceContext@@V?$map@PAUID3D11Resource@@UD3D11_MAPPED_SUBRESOURCE@@U?$less@PAUID3D11Resource@@@std@@V?$allocator@U?$pair@QAUID3D11Resource@@UD3D11_MAPPED_SUBRESOURCE@@@std@@@4@@std@@@std@@@std@@@std@@@std@@@std@@@2@@std@@@std@@QAEAAV?$_Vector_val@U?$_Simple_types@V?$_List_unchecked_iterator@V?$_List_val@U?$_List_simple_types@U?$pair@QAUID3D11DeviceContext@@V?$map@PAUID3D11Resource@@UD3D11_MAPPED_SUBRESOURCE@@U?$less@PAUID3D11Resource@@@std@@V?$allocator@U?$pair@QAUID3D11Resource@@UD3D11_MAPPED_SUBRESOURCE@@@std@@@4@@std@@@std@@@std@@@std@@@std@@@std@@@2@XZ ; std::_Vector_alloc<std::_Vec_base_types<std::_List_unchecked_iterator<std::_List_val<std::_List_simple_types<std::pair<ID3D11DeviceContext * const,std::map<ID3D11Resource *,D3D11_MAPPED_SUBRESOURCE,std::less<ID3D11Resource *>,std::allocator<std::pair<ID3D11Resource * const,D3D11_MAPPED_SUBRESOURCE> > > > > > >,std::_Wrap_alloc<std::allocator<std::_List_unchecked_iterator<std::_List_val<std::_List_simple_types<std::pair<ID3D11DeviceContext * const,std::map<ID3D11Resource *,D3D11_MAPPED_SUBRESOURCE,std::less<ID3D11Resource *>,std::allocator<std::pair<ID3D11Resource * const,D3D11_MAPPED_SUBRESOURCE> > > > > > > > > > >::_Get_data
PUBLIC	?_Get_data@?$_Vector_alloc@U?$_Vec_base_types@V?$_List_unchecked_iterator@V?$_List_val@U?$_List_simple_types@U?$pair@QAUID3D11DeviceContext@@V?$map@PAUID3D11Resource@@UD3D11_MAPPED_SUBRESOURCE@@U?$less@PAUID3D11Resource@@@std@@V?$allocator@U?$pair@QAUID3D11Resource@@UD3D11_MAPPED_SUBRESOURCE@@@std@@@4@@std@@@std@@@std@@@std@@@std@@U?$_Wrap_alloc@V?$allocator@V?$_List_unchecked_iterator@V?$_List_val@U?$_List_simple_types@U?$pair@QAUID3D11DeviceContext@@V?$map@PAUID3D11Resource@@UD3D11_MAPPED_SUBRESOURCE@@U?$less@PAUID3D11Resource@@@std@@V?$allocator@U?$pair@QAUID3D11Resource@@UD3D11_MAPPED_SUBRESOURCE@@@std@@@4@@std@@@std@@@std@@@std@@@std@@@std@@@2@@std@@@std@@QBEABV?$_Vector_val@U?$_Simple_types@V?$_List_unchecked_iterator@V?$_List_val@U?$_List_simple_types@U?$pair@QAUID3D11DeviceContext@@V?$map@PAUID3D11Resource@@UD3D11_MAPPED_SUBRESOURCE@@U?$less@PAUID3D11Resource@@@std@@V?$allocator@U?$pair@QAUID3D11Resource@@UD3D11_MAPPED_SUBRESOURCE@@@std@@@4@@std@@@std@@@std@@@std@@@std@@@std@@@2@XZ ; std::_Vector_alloc<std::_Vec_base_types<std::_List_unchecked_iterator<std::_List_val<std::_List_simple_types<std::pair<ID3D11DeviceContext * const,std::map<ID3D11Resource *,D3D11_MAPPED_SUBRESOURCE,std::less<ID3D11Resource *>,std::allocator<std::pair<ID3D11Resource * const,D3D11_MAPPED_SUBRESOURCE> > > > > > >,std::_Wrap_alloc<std::allocator<std::_List_unchecked_iterator<std::_List_val<std::_List_simple_types<std::pair<ID3D11DeviceContext * const,std::map<ID3D11Resource *,D3D11_MAPPED_SUBRESOURCE,std::less<ID3D11Resource *>,std::allocator<std::pair<ID3D11Resource * const,D3D11_MAPPED_SUBRESOURCE> > > > > > > > > > >::_Get_data
PUBLIC	?_Myfirst@?$_Vector_alloc@U?$_Vec_base_types@V?$_List_unchecked_iterator@V?$_List_val@U?$_List_simple_types@U?$pair@QAUID3D11DeviceContext@@V?$map@PAUID3D11Resource@@UD3D11_MAPPED_SUBRESOURCE@@U?$less@PAUID3D11Resource@@@std@@V?$allocator@U?$pair@QAUID3D11Resource@@UD3D11_MAPPED_SUBRESOURCE@@@std@@@4@@std@@@std@@@std@@@std@@@std@@U?$_Wrap_alloc@V?$allocator@V?$_List_unchecked_iterator@V?$_List_val@U?$_List_simple_types@U?$pair@QAUID3D11DeviceContext@@V?$map@PAUID3D11Resource@@UD3D11_MAPPED_SUBRESOURCE@@U?$less@PAUID3D11Resource@@@std@@V?$allocator@U?$pair@QAUID3D11Resource@@UD3D11_MAPPED_SUBRESOURCE@@@std@@@4@@std@@@std@@@std@@@std@@@std@@@std@@@2@@std@@@std@@QAEAAPAV?$_List_unchecked_iterator@V?$_List_val@U?$_List_simple_types@U?$pair@QAUID3D11DeviceContext@@V?$map@PAUID3D11Resource@@UD3D11_MAPPED_SUBRESOURCE@@U?$less@PAUID3D11Resource@@@std@@V?$allocator@U?$pair@QAUID3D11Resource@@UD3D11_MAPPED_SUBRESOURCE@@@std@@@4@@std@@@std@@@std@@@std@@@2@XZ ; std::_Vector_alloc<std::_Vec_base_types<std::_List_unchecked_iterator<std::_List_val<std::_List_simple_types<std::pair<ID3D11DeviceContext * const,std::map<ID3D11Resource *,D3D11_MAPPED_SUBRESOURCE,std::less<ID3D11Resource *>,std::allocator<std::pair<ID3D11Resource * const,D3D11_MAPPED_SUBRESOURCE> > > > > > >,std::_Wrap_alloc<std::allocator<std::_List_unchecked_iterator<std::_List_val<std::_List_simple_types<std::pair<ID3D11DeviceContext * const,std::map<ID3D11Resource *,D3D11_MAPPED_SUBRESOURCE,std::less<ID3D11Resource *>,std::allocator<std::pair<ID3D11Resource * const,D3D11_MAPPED_SUBRESOURCE> > > > > > > > > > >::_Myfirst
PUBLIC	?_Myfirst@?$_Vector_alloc@U?$_Vec_base_types@V?$_List_unchecked_iterator@V?$_List_val@U?$_List_simple_types@U?$pair@QAUID3D11DeviceContext@@V?$map@PAUID3D11Resource@@UD3D11_MAPPED_SUBRESOURCE@@U?$less@PAUID3D11Resource@@@std@@V?$allocator@U?$pair@QAUID3D11Resource@@UD3D11_MAPPED_SUBRESOURCE@@@std@@@4@@std@@@std@@@std@@@std@@@std@@U?$_Wrap_alloc@V?$allocator@V?$_List_unchecked_iterator@V?$_List_val@U?$_List_simple_types@U?$pair@QAUID3D11DeviceContext@@V?$map@PAUID3D11Resource@@UD3D11_MAPPED_SUBRESOURCE@@U?$less@PAUID3D11Resource@@@std@@V?$allocator@U?$pair@QAUID3D11Resource@@UD3D11_MAPPED_SUBRESOURCE@@@std@@@4@@std@@@std@@@std@@@std@@@std@@@std@@@2@@std@@@std@@QBEABQAV?$_List_unchecked_iterator@V?$_List_val@U?$_List_simple_types@U?$pair@QAUID3D11DeviceContext@@V?$map@PAUID3D11Resource@@UD3D11_MAPPED_SUBRESOURCE@@U?$less@PAUID3D11Resource@@@std@@V?$allocator@U?$pair@QAUID3D11Resource@@UD3D11_MAPPED_SUBRESOURCE@@@std@@@4@@std@@@std@@@std@@@std@@@2@XZ ; std::_Vector_alloc<std::_Vec_base_types<std::_List_unchecked_iterator<std::_List_val<std::_List_simple_types<std::pair<ID3D11DeviceContext * const,std::map<ID3D11Resource *,D3D11_MAPPED_SUBRESOURCE,std::less<ID3D11Resource *>,std::allocator<std::pair<ID3D11Resource * const,D3D11_MAPPED_SUBRESOURCE> > > > > > >,std::_Wrap_alloc<std::allocator<std::_List_unchecked_iterator<std::_List_val<std::_List_simple_types<std::pair<ID3D11DeviceContext * const,std::map<ID3D11Resource *,D3D11_MAPPED_SUBRESOURCE,std::less<ID3D11Resource *>,std::allocator<std::pair<ID3D11Resource * const,D3D11_MAPPED_SUBRESOURCE> > > > > > > > > > >::_Myfirst
PUBLIC	?_Mylast@?$_Vector_alloc@U?$_Vec_base_types@V?$_List_unchecked_iterator@V?$_List_val@U?$_List_simple_types@U?$pair@QAUID3D11DeviceContext@@V?$map@PAUID3D11Resource@@UD3D11_MAPPED_SUBRESOURCE@@U?$less@PAUID3D11Resource@@@std@@V?$allocator@U?$pair@QAUID3D11Resource@@UD3D11_MAPPED_SUBRESOURCE@@@std@@@4@@std@@@std@@@std@@@std@@@std@@U?$_Wrap_alloc@V?$allocator@V?$_List_unchecked_iterator@V?$_List_val@U?$_List_simple_types@U?$pair@QAUID3D11DeviceContext@@V?$map@PAUID3D11Resource@@UD3D11_MAPPED_SUBRESOURCE@@U?$less@PAUID3D11Resource@@@std@@V?$allocator@U?$pair@QAUID3D11Resource@@UD3D11_MAPPED_SUBRESOURCE@@@std@@@4@@std@@@std@@@std@@@std@@@std@@@std@@@2@@std@@@std@@QAEAAPAV?$_List_unchecked_iterator@V?$_List_val@U?$_List_simple_types@U?$pair@QAUID3D11DeviceContext@@V?$map@PAUID3D11Resource@@UD3D11_MAPPED_SUBRESOURCE@@U?$less@PAUID3D11Resource@@@std@@V?$allocator@U?$pair@QAUID3D11Resource@@UD3D11_MAPPED_SUBRESOURCE@@@std@@@4@@std@@@std@@@std@@@std@@@2@XZ ; std::_Vector_alloc<std::_Vec_base_types<std::_List_unchecked_iterator<std::_List_val<std::_List_simple_types<std::pair<ID3D11DeviceContext * const,std::map<ID3D11Resource *,D3D11_MAPPED_SUBRESOURCE,std::less<ID3D11Resource *>,std::allocator<std::pair<ID3D11Resource * const,D3D11_MAPPED_SUBRESOURCE> > > > > > >,std::_Wrap_alloc<std::allocator<std::_List_unchecked_iterator<std::_List_val<std::_List_simple_types<std::pair<ID3D11DeviceContext * const,std::map<ID3D11Resource *,D3D11_MAPPED_SUBRESOURCE,std::less<ID3D11Resource *>,std::allocator<std::pair<ID3D11Resource * const,D3D11_MAPPED_SUBRESOURCE> > > > > > > > > > >::_Mylast
PUBLIC	?_Mylast@?$_Vector_alloc@U?$_Vec_base_types@V?$_List_unchecked_iterator@V?$_List_val@U?$_List_simple_types@U?$pair@QAUID3D11DeviceContext@@V?$map@PAUID3D11Resource@@UD3D11_MAPPED_SUBRESOURCE@@U?$less@PAUID3D11Resource@@@std@@V?$allocator@U?$pair@QAUID3D11Resource@@UD3D11_MAPPED_SUBRESOURCE@@@std@@@4@@std@@@std@@@std@@@std@@@std@@U?$_Wrap_alloc@V?$allocator@V?$_List_unchecked_iterator@V?$_List_val@U?$_List_simple_types@U?$pair@QAUID3D11DeviceContext@@V?$map@PAUID3D11Resource@@UD3D11_MAPPED_SUBRESOURCE@@U?$less@PAUID3D11Resource@@@std@@V?$allocator@U?$pair@QAUID3D11Resource@@UD3D11_MAPPED_SUBRESOURCE@@@std@@@4@@std@@@std@@@std@@@std@@@std@@@std@@@2@@std@@@std@@QBEABQAV?$_List_unchecked_iterator@V?$_List_val@U?$_List_simple_types@U?$pair@QAUID3D11DeviceContext@@V?$map@PAUID3D11Resource@@UD3D11_MAPPED_SUBRESOURCE@@U?$less@PAUID3D11Resource@@@std@@V?$allocator@U?$pair@QAUID3D11Resource@@UD3D11_MAPPED_SUBRESOURCE@@@std@@@4@@std@@@std@@@std@@@std@@@2@XZ ; std::_Vector_alloc<std::_Vec_base_types<std::_List_unchecked_iterator<std::_List_val<std::_List_simple_types<std::pair<ID3D11DeviceContext * const,std::map<ID3D11Resource *,D3D11_MAPPED_SUBRESOURCE,std::less<ID3D11Resource *>,std::allocator<std::pair<ID3D11Resource * const,D3D11_MAPPED_SUBRESOURCE> > > > > > >,std::_Wrap_alloc<std::allocator<std::_List_unchecked_iterator<std::_List_val<std::_List_simple_types<std::pair<ID3D11DeviceContext * const,std::map<ID3D11Resource *,D3D11_MAPPED_SUBRESOURCE,std::less<ID3D11Resource *>,std::allocator<std::pair<ID3D11Resource * const,D3D11_MAPPED_SUBRESOURCE> > > > > > > > > > >::_Mylast
PUBLIC	?_Myend@?$_Vector_alloc@U?$_Vec_base_types@V?$_List_unchecked_iterator@V?$_List_val@U?$_List_simple_types@U?$pair@QAUID3D11DeviceContext@@V?$map@PAUID3D11Resource@@UD3D11_MAPPED_SUBRESOURCE@@U?$less@PAUID3D11Resource@@@std@@V?$allocator@U?$pair@QAUID3D11Resource@@UD3D11_MAPPED_SUBRESOURCE@@@std@@@4@@std@@@std@@@std@@@std@@@std@@U?$_Wrap_alloc@V?$allocator@V?$_List_unchecked_iterator@V?$_List_val@U?$_List_simple_types@U?$pair@QAUID3D11DeviceContext@@V?$map@PAUID3D11Resource@@UD3D11_MAPPED_SUBRESOURCE@@U?$less@PAUID3D11Resource@@@std@@V?$allocator@U?$pair@QAUID3D11Resource@@UD3D11_MAPPED_SUBRESOURCE@@@std@@@4@@std@@@std@@@std@@@std@@@std@@@std@@@2@@std@@@std@@QAEAAPAV?$_List_unchecked_iterator@V?$_List_val@U?$_List_simple_types@U?$pair@QAUID3D11DeviceContext@@V?$map@PAUID3D11Resource@@UD3D11_MAPPED_SUBRESOURCE@@U?$less@PAUID3D11Resource@@@std@@V?$allocator@U?$pair@QAUID3D11Resource@@UD3D11_MAPPED_SUBRESOURCE@@@std@@@4@@std@@@std@@@std@@@std@@@2@XZ ; std::_Vector_alloc<std::_Vec_base_types<std::_List_unchecked_iterator<std::_List_val<std::_List_simple_types<std::pair<ID3D11DeviceContext * const,std::map<ID3D11Resource *,D3D11_MAPPED_SUBRESOURCE,std::less<ID3D11Resource *>,std::allocator<std::pair<ID3D11Resource * const,D3D11_MAPPED_SUBRESOURCE> > > > > > >,std::_Wrap_alloc<std::allocator<std::_List_unchecked_iterator<std::_List_val<std::_List_simple_types<std::pair<ID3D11DeviceContext * const,std::map<ID3D11Resource *,D3D11_MAPPED_SUBRESOURCE,std::less<ID3D11Resource *>,std::allocator<std::pair<ID3D11Resource * const,D3D11_MAPPED_SUBRESOURCE> > > > > > > > > > >::_Myend
PUBLIC	?_Myend@?$_Vector_alloc@U?$_Vec_base_types@V?$_List_unchecked_iterator@V?$_List_val@U?$_List_simple_types@U?$pair@QAUID3D11DeviceContext@@V?$map@PAUID3D11Resource@@UD3D11_MAPPED_SUBRESOURCE@@U?$less@PAUID3D11Resource@@@std@@V?$allocator@U?$pair@QAUID3D11Resource@@UD3D11_MAPPED_SUBRESOURCE@@@std@@@4@@std@@@std@@@std@@@std@@@std@@U?$_Wrap_alloc@V?$allocator@V?$_List_unchecked_iterator@V?$_List_val@U?$_List_simple_types@U?$pair@QAUID3D11DeviceContext@@V?$map@PAUID3D11Resource@@UD3D11_MAPPED_SUBRESOURCE@@U?$less@PAUID3D11Resource@@@std@@V?$allocator@U?$pair@QAUID3D11Resource@@UD3D11_MAPPED_SUBRESOURCE@@@std@@@4@@std@@@std@@@std@@@std@@@std@@@std@@@2@@std@@@std@@QBEABQAV?$_List_unchecked_iterator@V?$_List_val@U?$_List_simple_types@U?$pair@QAUID3D11DeviceContext@@V?$map@PAUID3D11Resource@@UD3D11_MAPPED_SUBRESOURCE@@U?$less@PAUID3D11Resource@@@std@@V?$allocator@U?$pair@QAUID3D11Resource@@UD3D11_MAPPED_SUBRESOURCE@@@std@@@4@@std@@@std@@@std@@@std@@@2@XZ ; std::_Vector_alloc<std::_Vec_base_types<std::_List_unchecked_iterator<std::_List_val<std::_List_simple_types<std::pair<ID3D11DeviceContext * const,std::map<ID3D11Resource *,D3D11_MAPPED_SUBRESOURCE,std::less<ID3D11Resource *>,std::allocator<std::pair<ID3D11Resource * const,D3D11_MAPPED_SUBRESOURCE> > > > > > >,std::_Wrap_alloc<std::allocator<std::_List_unchecked_iterator<std::_List_val<std::_List_simple_types<std::pair<ID3D11DeviceContext * const,std::map<ID3D11Resource *,D3D11_MAPPED_SUBRESOURCE,std::less<ID3D11Resource *>,std::allocator<std::pair<ID3D11Resource * const,D3D11_MAPPED_SUBRESOURCE> > > > > > > > > > >::_Myend
PUBLIC	??0?$_Vector_val@U?$_Simple_types@V?$_List_unchecked_iterator@V?$_List_val@U?$_List_simple_types@U?$pair@QAUID3D11DeviceContext@@V?$map@PAUID3D11Resource@@UD3D11_MAPPED_SUBRESOURCE@@U?$less@PAUID3D11Resource@@@std@@V?$allocator@U?$pair@QAUID3D11Resource@@UD3D11_MAPPED_SUBRESOURCE@@@std@@@4@@std@@@std@@@std@@@std@@@std@@@std@@@std@@QAE@XZ ; std::_Vector_val<std::_Simple_types<std::_List_unchecked_iterator<std::_List_val<std::_List_simple_types<std::pair<ID3D11DeviceContext * const,std::map<ID3D11Resource *,D3D11_MAPPED_SUBRESOURCE,std::less<ID3D11Resource *>,std::allocator<std::pair<ID3D11Resource * const,D3D11_MAPPED_SUBRESOURCE> > > > > > > > >::_Vector_val<std::_Simple_types<std::_List_unchecked_iterator<std::_List_val<std::_List_simple_types<std::pair<ID3D11DeviceContext * const,std::map<ID3D11Resource *,D3D11_MAPPED_SUBRESOURCE,std::less<ID3D11Resource *>,std::allocator<std::pair<ID3D11Resource * const,D3D11_MAPPED_SUBRESOURCE> > > > > > > > >
PUBLIC	?_Get_first@?$_Compressed_pair@U?$_Wrap_alloc@U?$_Wrap_alloc@V?$allocator@V?$_List_unchecked_iterator@V?$_List_val@U?$_List_simple_types@U?$pair@QAUID3D11DeviceContext@@V?$map@PAUID3D11Resource@@UD3D11_MAPPED_SUBRESOURCE@@U?$less@PAUID3D11Resource@@@std@@V?$allocator@U?$pair@QAUID3D11Resource@@UD3D11_MAPPED_SUBRESOURCE@@@std@@@4@@std@@@std@@@std@@@std@@@std@@@std@@@std@@@std@@V?$_Vector_val@U?$_Simple_types@V?$_List_unchecked_iterator@V?$_List_val@U?$_List_simple_types@U?$pair@QAUID3D11DeviceContext@@V?$map@PAUID3D11Resource@@UD3D11_MAPPED_SUBRESOURCE@@U?$less@PAUID3D11Resource@@@std@@V?$allocator@U?$pair@QAUID3D11Resource@@UD3D11_MAPPED_SUBRESOURCE@@@std@@@4@@std@@@std@@@std@@@std@@@std@@@std@@@2@$00@std@@QAEAAU?$_Wrap_alloc@U?$_Wrap_alloc@V?$allocator@V?$_List_unchecked_iterator@V?$_List_val@U?$_List_simple_types@U?$pair@QAUID3D11DeviceContext@@V?$map@PAUID3D11Resource@@UD3D11_MAPPED_SUBRESOURCE@@U?$less@PAUID3D11Resource@@@std@@V?$allocator@U?$pair@QAUID3D11Resource@@UD3D11_MAPPED_SUBRESOURCE@@@std@@@4@@std@@@std@@@std@@@std@@@std@@@std@@@std@@@2@XZ ; std::_Compressed_pair<std::_Wrap_alloc<std::_Wrap_alloc<std::allocator<std::_List_unchecked_iterator<std::_List_val<std::_List_simple_types<std::pair<ID3D11DeviceContext * const,std::map<ID3D11Resource *,D3D11_MAPPED_SUBRESOURCE,std::less<ID3D11Resource *>,std::allocator<std::pair<ID3D11Resource * const,D3D11_MAPPED_SUBRESOURCE> > > > > > > > > >,std::_Vector_val<std::_Simple_types<std::_List_unchecked_iterator<std::_List_val<std::_List_simple_types<std::pair<ID3D11DeviceContext * const,std::map<ID3D11Resource *,D3D11_MAPPED_SUBRESOURCE,std::less<ID3D11Resource *>,std::allocator<std::pair<ID3D11Resource * const,D3D11_MAPPED_SUBRESOURCE> > > > > > > > >,1>::_Get_first
PUBLIC	?_Get_first@?$_Compressed_pair@U?$_Wrap_alloc@U?$_Wrap_alloc@V?$allocator@V?$_List_unchecked_iterator@V?$_List_val@U?$_List_simple_types@U?$pair@QAUID3D11DeviceContext@@V?$map@PAUID3D11Resource@@UD3D11_MAPPED_SUBRESOURCE@@U?$less@PAUID3D11Resource@@@std@@V?$allocator@U?$pair@QAUID3D11Resource@@UD3D11_MAPPED_SUBRESOURCE@@@std@@@4@@std@@@std@@@std@@@std@@@std@@@std@@@std@@@std@@V?$_Vector_val@U?$_Simple_types@V?$_List_unchecked_iterator@V?$_List_val@U?$_List_simple_types@U?$pair@QAUID3D11DeviceContext@@V?$map@PAUID3D11Resource@@UD3D11_MAPPED_SUBRESOURCE@@U?$less@PAUID3D11Resource@@@std@@V?$allocator@U?$pair@QAUID3D11Resource@@UD3D11_MAPPED_SUBRESOURCE@@@std@@@4@@std@@@std@@@std@@@std@@@std@@@std@@@2@$00@std@@QBEABU?$_Wrap_alloc@U?$_Wrap_alloc@V?$allocator@V?$_List_unchecked_iterator@V?$_List_val@U?$_List_simple_types@U?$pair@QAUID3D11DeviceContext@@V?$map@PAUID3D11Resource@@UD3D11_MAPPED_SUBRESOURCE@@U?$less@PAUID3D11Resource@@@std@@V?$allocator@U?$pair@QAUID3D11Resource@@UD3D11_MAPPED_SUBRESOURCE@@@std@@@4@@std@@@std@@@std@@@std@@@std@@@std@@@std@@@2@XZ ; std::_Compressed_pair<std::_Wrap_alloc<std::_Wrap_alloc<std::allocator<std::_List_unchecked_iterator<std::_List_val<std::_List_simple_types<std::pair<ID3D11DeviceContext * const,std::map<ID3D11Resource *,D3D11_MAPPED_SUBRESOURCE,std::less<ID3D11Resource *>,std::allocator<std::pair<ID3D11Resource * const,D3D11_MAPPED_SUBRESOURCE> > > > > > > > > >,std::_Vector_val<std::_Simple_types<std::_List_unchecked_iterator<std::_List_val<std::_List_simple_types<std::pair<ID3D11DeviceContext * const,std::map<ID3D11Resource *,D3D11_MAPPED_SUBRESOURCE,std::less<ID3D11Resource *>,std::allocator<std::pair<ID3D11Resource * const,D3D11_MAPPED_SUBRESOURCE> > > > > > > > >,1>::_Get_first
PUBLIC	?_Get_second@?$_Compressed_pair@U?$_Wrap_alloc@U?$_Wrap_alloc@V?$allocator@V?$_List_unchecked_iterator@V?$_List_val@U?$_List_simple_types@U?$pair@QAUID3D11DeviceContext@@V?$map@PAUID3D11Resource@@UD3D11_MAPPED_SUBRESOURCE@@U?$less@PAUID3D11Resource@@@std@@V?$allocator@U?$pair@QAUID3D11Resource@@UD3D11_MAPPED_SUBRESOURCE@@@std@@@4@@std@@@std@@@std@@@std@@@std@@@std@@@std@@@std@@V?$_Vector_val@U?$_Simple_types@V?$_List_unchecked_iterator@V?$_List_val@U?$_List_simple_types@U?$pair@QAUID3D11DeviceContext@@V?$map@PAUID3D11Resource@@UD3D11_MAPPED_SUBRESOURCE@@U?$less@PAUID3D11Resource@@@std@@V?$allocator@U?$pair@QAUID3D11Resource@@UD3D11_MAPPED_SUBRESOURCE@@@std@@@4@@std@@@std@@@std@@@std@@@std@@@std@@@2@$00@std@@QAEAAV?$_Vector_val@U?$_Simple_types@V?$_List_unchecked_iterator@V?$_List_val@U?$_List_simple_types@U?$pair@QAUID3D11DeviceContext@@V?$map@PAUID3D11Resource@@UD3D11_MAPPED_SUBRESOURCE@@U?$less@PAUID3D11Resource@@@std@@V?$allocator@U?$pair@QAUID3D11Resource@@UD3D11_MAPPED_SUBRESOURCE@@@std@@@4@@std@@@std@@@std@@@std@@@std@@@std@@@2@XZ ; std::_Compressed_pair<std::_Wrap_alloc<std::_Wrap_alloc<std::allocator<std::_List_unchecked_iterator<std::_List_val<std::_List_simple_types<std::pair<ID3D11DeviceContext * const,std::map<ID3D11Resource *,D3D11_MAPPED_SUBRESOURCE,std::less<ID3D11Resource *>,std::allocator<std::pair<ID3D11Resource * const,D3D11_MAPPED_SUBRESOURCE> > > > > > > > > >,std::_Vector_val<std::_Simple_types<std::_List_unchecked_iterator<std::_List_val<std::_List_simple_types<std::pair<ID3D11DeviceContext * const,std::map<ID3D11Resource *,D3D11_MAPPED_SUBRESOURCE,std::less<ID3D11Resource *>,std::allocator<std::pair<ID3D11Resource * const,D3D11_MAPPED_SUBRESOURCE> > > > > > > > >,1>::_Get_second
PUBLIC	?_Get_second@?$_Compressed_pair@U?$_Wrap_alloc@U?$_Wrap_alloc@V?$allocator@V?$_List_unchecked_iterator@V?$_List_val@U?$_List_simple_types@U?$pair@QAUID3D11DeviceContext@@V?$map@PAUID3D11Resource@@UD3D11_MAPPED_SUBRESOURCE@@U?$less@PAUID3D11Resource@@@std@@V?$allocator@U?$pair@QAUID3D11Resource@@UD3D11_MAPPED_SUBRESOURCE@@@std@@@4@@std@@@std@@@std@@@std@@@std@@@std@@@std@@@std@@V?$_Vector_val@U?$_Simple_types@V?$_List_unchecked_iterator@V?$_List_val@U?$_List_simple_types@U?$pair@QAUID3D11DeviceContext@@V?$map@PAUID3D11Resource@@UD3D11_MAPPED_SUBRESOURCE@@U?$less@PAUID3D11Resource@@@std@@V?$allocator@U?$pair@QAUID3D11Resource@@UD3D11_MAPPED_SUBRESOURCE@@@std@@@4@@std@@@std@@@std@@@std@@@std@@@std@@@2@$00@std@@QBEABV?$_Vector_val@U?$_Simple_types@V?$_List_unchecked_iterator@V?$_List_val@U?$_List_simple_types@U?$pair@QAUID3D11DeviceContext@@V?$map@PAUID3D11Resource@@UD3D11_MAPPED_SUBRESOURCE@@U?$less@PAUID3D11Resource@@@std@@V?$allocator@U?$pair@QAUID3D11Resource@@UD3D11_MAPPED_SUBRESOURCE@@@std@@@4@@std@@@std@@@std@@@std@@@std@@@std@@@2@XZ ; std::_Compressed_pair<std::_Wrap_alloc<std::_Wrap_alloc<std::allocator<std::_List_unchecked_iterator<std::_List_val<std::_List_simple_types<std::pair<ID3D11DeviceContext * const,std::map<ID3D11Resource *,D3D11_MAPPED_SUBRESOURCE,std::less<ID3D11Resource *>,std::allocator<std::pair<ID3D11Resource * const,D3D11_MAPPED_SUBRESOURCE> > > > > > > > > >,std::_Vector_val<std::_Simple_types<std::_List_unchecked_iterator<std::_List_val<std::_List_simple_types<std::pair<ID3D11DeviceContext * const,std::map<ID3D11Resource *,D3D11_MAPPED_SUBRESOURCE,std::less<ID3D11Resource *>,std::allocator<std::pair<ID3D11Resource * const,D3D11_MAPPED_SUBRESOURCE> > > > > > > > >,1>::_Get_second
PUBLIC	??0?$vector@V?$_List_unchecked_iterator@V?$_List_val@U?$_List_simple_types@U?$pair@QAUID3D11DeviceContext@@V?$map@PAUID3D11Resource@@UD3D11_MAPPED_SUBRESOURCE@@U?$less@PAUID3D11Resource@@@std@@V?$allocator@U?$pair@QAUID3D11Resource@@UD3D11_MAPPED_SUBRESOURCE@@@std@@@4@@std@@@std@@@std@@@std@@@std@@U?$_Wrap_alloc@V?$allocator@V?$_List_unchecked_iterator@V?$_List_val@U?$_List_simple_types@U?$pair@QAUID3D11DeviceContext@@V?$map@PAUID3D11Resource@@UD3D11_MAPPED_SUBRESOURCE@@U?$less@PAUID3D11Resource@@@std@@V?$allocator@U?$pair@QAUID3D11Resource@@UD3D11_MAPPED_SUBRESOURCE@@@std@@@4@@std@@@std@@@std@@@std@@@std@@@std@@@2@@std@@QAE@ABU?$_Wrap_alloc@V?$allocator@V?$_List_unchecked_iterator@V?$_List_val@U?$_List_simple_types@U?$pair@QAUID3D11DeviceContext@@V?$map@PAUID3D11Resource@@UD3D11_MAPPED_SUBRESOURCE@@U?$less@PAUID3D11Resource@@@std@@V?$allocator@U?$pair@QAUID3D11Resource@@UD3D11_MAPPED_SUBRESOURCE@@@std@@@4@@std@@@std@@@std@@@std@@@std@@@std@@@1@@Z ; std::vector<std::_List_unchecked_iterator<std::_List_val<std::_List_simple_types<std::pair<ID3D11DeviceContext * const,std::map<ID3D11Resource *,D3D11_MAPPED_SUBRESOURCE,std::less<ID3D11Resource *>,std::allocator<std::pair<ID3D11Resource * const,D3D11_MAPPED_SUBRESOURCE> > > > > > >,std::_Wrap_alloc<std::allocator<std::_List_unchecked_iterator<std::_List_val<std::_List_simple_types<std::pair<ID3D11DeviceContext * const,std::map<ID3D11Resource *,D3D11_MAPPED_SUBRESOURCE,std::less<ID3D11Resource *>,std::allocator<std::pair<ID3D11Resource * const,D3D11_MAPPED_SUBRESOURCE> > > > > > > > > >::vector<std::_List_unchecked_iterator<std::_List_val<std::_List_simple_types<std::pair<ID3D11DeviceContext * const,std::map<ID3D11Resource *,D3D11_MAPPED_SUBRESOURCE,std::less<ID3D11Resource *>,std::allocator<std::pair<ID3D11Resource * const,D3D11_MAPPED_SUBRESOURCE> > > > > > >,std::_Wrap_alloc<std::allocator<std::_List_unchecked_iterator<std::_List_val<std::_List_simple_types<std::pair<ID3D11DeviceContext * const,std::map<ID3D11Resource *,D3D11_MAPPED_SUBRESOURCE,std::less<ID3D11Resource *>,std::allocator<std::pair<ID3D11Resource * const,D3D11_MAPPED_SUBRESOURCE> > > > > > > > > >
PUBLIC	??1?$vector@V?$_List_unchecked_iterator@V?$_List_val@U?$_List_simple_types@U?$pair@QAUID3D11DeviceContext@@V?$map@PAUID3D11Resource@@UD3D11_MAPPED_SUBRESOURCE@@U?$less@PAUID3D11Resource@@@std@@V?$allocator@U?$pair@QAUID3D11Resource@@UD3D11_MAPPED_SUBRESOURCE@@@std@@@4@@std@@@std@@@std@@@std@@@std@@U?$_Wrap_alloc@V?$allocator@V?$_List_unchecked_iterator@V?$_List_val@U?$_List_simple_types@U?$pair@QAUID3D11DeviceContext@@V?$map@PAUID3D11Resource@@UD3D11_MAPPED_SUBRESOURCE@@U?$less@PAUID3D11Resource@@@std@@V?$allocator@U?$pair@QAUID3D11Resource@@UD3D11_MAPPED_SUBRESOURCE@@@std@@@4@@std@@@std@@@std@@@std@@@std@@@std@@@2@@std@@QAE@XZ ; std::vector<std::_List_unchecked_iterator<std::_List_val<std::_List_simple_types<std::pair<ID3D11DeviceContext * const,std::map<ID3D11Resource *,D3D11_MAPPED_SUBRESOURCE,std::less<ID3D11Resource *>,std::allocator<std::pair<ID3D11Resource * const,D3D11_MAPPED_SUBRESOURCE> > > > > > >,std::_Wrap_alloc<std::allocator<std::_List_unchecked_iterator<std::_List_val<std::_List_simple_types<std::pair<ID3D11DeviceContext * const,std::map<ID3D11Resource *,D3D11_MAPPED_SUBRESOURCE,std::less<ID3D11Resource *>,std::allocator<std::pair<ID3D11Resource * const,D3D11_MAPPED_SUBRESOURCE> > > > > > > > > >::~vector<std::_List_unchecked_iterator<std::_List_val<std::_List_simple_types<std::pair<ID3D11DeviceContext * const,std::map<ID3D11Resource *,D3D11_MAPPED_SUBRESOURCE,std::less<ID3D11Resource *>,std::allocator<std::pair<ID3D11Resource * const,D3D11_MAPPED_SUBRESOURCE> > > > > > >,std::_Wrap_alloc<std::allocator<std::_List_unchecked_iterator<std::_List_val<std::_List_simple_types<std::pair<ID3D11DeviceContext * const,std::map<ID3D11Resource *,D3D11_MAPPED_SUBRESOURCE,std::less<ID3D11Resource *>,std::allocator<std::pair<ID3D11Resource * const,D3D11_MAPPED_SUBRESOURCE> > > > > > > > > >
PUBLIC	?assign@?$vector@V?$_List_unchecked_iterator@V?$_List_val@U?$_List_simple_types@U?$pair@QAUID3D11DeviceContext@@V?$map@PAUID3D11Resource@@UD3D11_MAPPED_SUBRESOURCE@@U?$less@PAUID3D11Resource@@@std@@V?$allocator@U?$pair@QAUID3D11Resource@@UD3D11_MAPPED_SUBRESOURCE@@@std@@@4@@std@@@std@@@std@@@std@@@std@@U?$_Wrap_alloc@V?$allocator@V?$_List_unchecked_iterator@V?$_List_val@U?$_List_simple_types@U?$pair@QAUID3D11DeviceContext@@V?$map@PAUID3D11Resource@@UD3D11_MAPPED_SUBRESOURCE@@U?$less@PAUID3D11Resource@@@std@@V?$allocator@U?$pair@QAUID3D11Resource@@UD3D11_MAPPED_SUBRESOURCE@@@std@@@4@@std@@@std@@@std@@@std@@@std@@@std@@@2@@std@@QAEXIABV?$_List_unchecked_iterator@V?$_List_val@U?$_List_simple_types@U?$pair@QAUID3D11DeviceContext@@V?$map@PAUID3D11Resource@@UD3D11_MAPPED_SUBRESOURCE@@U?$less@PAUID3D11Resource@@@std@@V?$allocator@U?$pair@QAUID3D11Resource@@UD3D11_MAPPED_SUBRESOURCE@@@std@@@4@@std@@@std@@@std@@@std@@@2@@Z ; std::vector<std::_List_unchecked_iterator<std::_List_val<std::_List_simple_types<std::pair<ID3D11DeviceContext * const,std::map<ID3D11Resource *,D3D11_MAPPED_SUBRESOURCE,std::less<ID3D11Resource *>,std::allocator<std::pair<ID3D11Resource * const,D3D11_MAPPED_SUBRESOURCE> > > > > > >,std::_Wrap_alloc<std::allocator<std::_List_unchecked_iterator<std::_List_val<std::_List_simple_types<std::pair<ID3D11DeviceContext * const,std::map<ID3D11Resource *,D3D11_MAPPED_SUBRESOURCE,std::less<ID3D11Resource *>,std::allocator<std::pair<ID3D11Resource * const,D3D11_MAPPED_SUBRESOURCE> > > > > > > > > >::assign
PUBLIC	?_Reallocate_exactly@?$vector@V?$_List_unchecked_iterator@V?$_List_val@U?$_List_simple_types@U?$pair@QAUID3D11DeviceContext@@V?$map@PAUID3D11Resource@@UD3D11_MAPPED_SUBRESOURCE@@U?$less@PAUID3D11Resource@@@std@@V?$allocator@U?$pair@QAUID3D11Resource@@UD3D11_MAPPED_SUBRESOURCE@@@std@@@4@@std@@@std@@@std@@@std@@@std@@U?$_Wrap_alloc@V?$allocator@V?$_List_unchecked_iterator@V?$_List_val@U?$_List_simple_types@U?$pair@QAUID3D11DeviceContext@@V?$map@PAUID3D11Resource@@UD3D11_MAPPED_SUBRESOURCE@@U?$less@PAUID3D11Resource@@@std@@V?$allocator@U?$pair@QAUID3D11Resource@@UD3D11_MAPPED_SUBRESOURCE@@@std@@@4@@std@@@std@@@std@@@std@@@std@@@std@@@2@@std@@AAEXI@Z ; std::vector<std::_List_unchecked_iterator<std::_List_val<std::_List_simple_types<std::pair<ID3D11DeviceContext * const,std::map<ID3D11Resource *,D3D11_MAPPED_SUBRESOURCE,std::less<ID3D11Resource *>,std::allocator<std::pair<ID3D11Resource * const,D3D11_MAPPED_SUBRESOURCE> > > > > > >,std::_Wrap_alloc<std::allocator<std::_List_unchecked_iterator<std::_List_val<std::_List_simple_types<std::pair<ID3D11DeviceContext * const,std::map<ID3D11Resource *,D3D11_MAPPED_SUBRESOURCE,std::less<ID3D11Resource *>,std::allocator<std::pair<ID3D11Resource * const,D3D11_MAPPED_SUBRESOURCE> > > > > > > > > >::_Reallocate_exactly
PUBLIC	?reserve@?$vector@V?$_List_unchecked_iterator@V?$_List_val@U?$_List_simple_types@U?$pair@QAUID3D11DeviceContext@@V?$map@PAUID3D11Resource@@UD3D11_MAPPED_SUBRESOURCE@@U?$less@PAUID3D11Resource@@@std@@V?$allocator@U?$pair@QAUID3D11Resource@@UD3D11_MAPPED_SUBRESOURCE@@@std@@@4@@std@@@std@@@std@@@std@@@std@@U?$_Wrap_alloc@V?$allocator@V?$_List_unchecked_iterator@V?$_List_val@U?$_List_simple_types@U?$pair@QAUID3D11DeviceContext@@V?$map@PAUID3D11Resource@@UD3D11_MAPPED_SUBRESOURCE@@U?$less@PAUID3D11Resource@@@std@@V?$allocator@U?$pair@QAUID3D11Resource@@UD3D11_MAPPED_SUBRESOURCE@@@std@@@4@@std@@@std@@@std@@@std@@@std@@@std@@@2@@std@@QAEXI@Z ; std::vector<std::_List_unchecked_iterator<std::_List_val<std::_List_simple_types<std::pair<ID3D11DeviceContext * const,std::map<ID3D11Resource *,D3D11_MAPPED_SUBRESOURCE,std::less<ID3D11Resource *>,std::allocator<std::pair<ID3D11Resource * const,D3D11_MAPPED_SUBRESOURCE> > > > > > >,std::_Wrap_alloc<std::allocator<std::_List_unchecked_iterator<std::_List_val<std::_List_simple_types<std::pair<ID3D11DeviceContext * const,std::map<ID3D11Resource *,D3D11_MAPPED_SUBRESOURCE,std::less<ID3D11Resource *>,std::allocator<std::pair<ID3D11Resource * const,D3D11_MAPPED_SUBRESOURCE> > > > > > > > > >::reserve
PUBLIC	?size@?$vector@V?$_List_unchecked_iterator@V?$_List_val@U?$_List_simple_types@U?$pair@QAUID3D11DeviceContext@@V?$map@PAUID3D11Resource@@UD3D11_MAPPED_SUBRESOURCE@@U?$less@PAUID3D11Resource@@@std@@V?$allocator@U?$pair@QAUID3D11Resource@@UD3D11_MAPPED_SUBRESOURCE@@@std@@@4@@std@@@std@@@std@@@std@@@std@@U?$_Wrap_alloc@V?$allocator@V?$_List_unchecked_iterator@V?$_List_val@U?$_List_simple_types@U?$pair@QAUID3D11DeviceContext@@V?$map@PAUID3D11Resource@@UD3D11_MAPPED_SUBRESOURCE@@U?$less@PAUID3D11Resource@@@std@@V?$allocator@U?$pair@QAUID3D11Resource@@UD3D11_MAPPED_SUBRESOURCE@@@std@@@4@@std@@@std@@@std@@@std@@@std@@@std@@@2@@std@@QBEIXZ ; std::vector<std::_List_unchecked_iterator<std::_List_val<std::_List_simple_types<std::pair<ID3D11DeviceContext * const,std::map<ID3D11Resource *,D3D11_MAPPED_SUBRESOURCE,std::less<ID3D11Resource *>,std::allocator<std::pair<ID3D11Resource * const,D3D11_MAPPED_SUBRESOURCE> > > > > > >,std::_Wrap_alloc<std::allocator<std::_List_unchecked_iterator<std::_List_val<std::_List_simple_types<std::pair<ID3D11DeviceContext * const,std::map<ID3D11Resource *,D3D11_MAPPED_SUBRESOURCE,std::less<ID3D11Resource *>,std::allocator<std::pair<ID3D11Resource * const,D3D11_MAPPED_SUBRESOURCE> > > > > > > > > >::size
PUBLIC	?max_size@?$vector@V?$_List_unchecked_iterator@V?$_List_val@U?$_List_simple_types@U?$pair@QAUID3D11DeviceContext@@V?$map@PAUID3D11Resource@@UD3D11_MAPPED_SUBRESOURCE@@U?$less@PAUID3D11Resource@@@std@@V?$allocator@U?$pair@QAUID3D11Resource@@UD3D11_MAPPED_SUBRESOURCE@@@std@@@4@@std@@@std@@@std@@@std@@@std@@U?$_Wrap_alloc@V?$allocator@V?$_List_unchecked_iterator@V?$_List_val@U?$_List_simple_types@U?$pair@QAUID3D11DeviceContext@@V?$map@PAUID3D11Resource@@UD3D11_MAPPED_SUBRESOURCE@@U?$less@PAUID3D11Resource@@@std@@V?$allocator@U?$pair@QAUID3D11Resource@@UD3D11_MAPPED_SUBRESOURCE@@@std@@@4@@std@@@std@@@std@@@std@@@std@@@std@@@2@@std@@QBEIXZ ; std::vector<std::_List_unchecked_iterator<std::_List_val<std::_List_simple_types<std::pair<ID3D11DeviceContext * const,std::map<ID3D11Resource *,D3D11_MAPPED_SUBRESOURCE,std::less<ID3D11Resource *>,std::allocator<std::pair<ID3D11Resource * const,D3D11_MAPPED_SUBRESOURCE> > > > > > >,std::_Wrap_alloc<std::allocator<std::_List_unchecked_iterator<std::_List_val<std::_List_simple_types<std::pair<ID3D11DeviceContext * const,std::map<ID3D11Resource *,D3D11_MAPPED_SUBRESOURCE,std::less<ID3D11Resource *>,std::allocator<std::pair<ID3D11Resource * const,D3D11_MAPPED_SUBRESOURCE> > > > > > > > > >::max_size
PUBLIC	?capacity@?$vector@V?$_List_unchecked_iterator@V?$_List_val@U?$_List_simple_types@U?$pair@QAUID3D11DeviceContext@@V?$map@PAUID3D11Resource@@UD3D11_MAPPED_SUBRESOURCE@@U?$less@PAUID3D11Resource@@@std@@V?$allocator@U?$pair@QAUID3D11Resource@@UD3D11_MAPPED_SUBRESOURCE@@@std@@@4@@std@@@std@@@std@@@std@@@std@@U?$_Wrap_alloc@V?$allocator@V?$_List_unchecked_iterator@V?$_List_val@U?$_List_simple_types@U?$pair@QAUID3D11DeviceContext@@V?$map@PAUID3D11Resource@@UD3D11_MAPPED_SUBRESOURCE@@U?$less@PAUID3D11Resource@@@std@@V?$allocator@U?$pair@QAUID3D11Resource@@UD3D11_MAPPED_SUBRESOURCE@@@std@@@4@@std@@@std@@@std@@@std@@@std@@@std@@@2@@std@@QBEIXZ ; std::vector<std::_List_unchecked_iterator<std::_List_val<std::_List_simple_types<std::pair<ID3D11DeviceContext * const,std::map<ID3D11Resource *,D3D11_MAPPED_SUBRESOURCE,std::less<ID3D11Resource *>,std::allocator<std::pair<ID3D11Resource * const,D3D11_MAPPED_SUBRESOURCE> > > > > > >,std::_Wrap_alloc<std::allocator<std::_List_unchecked_iterator<std::_List_val<std::_List_simple_types<std::pair<ID3D11DeviceContext * const,std::map<ID3D11Resource *,D3D11_MAPPED_SUBRESOURCE,std::less<ID3D11Resource *>,std::allocator<std::pair<ID3D11Resource * const,D3D11_MAPPED_SUBRESOURCE> > > > > > > > > >::capacity
PUBLIC	??A?$vector@V?$_List_unchecked_iterator@V?$_List_val@U?$_List_simple_types@U?$pair@QAUID3D11DeviceContext@@V?$map@PAUID3D11Resource@@UD3D11_MAPPED_SUBRESOURCE@@U?$less@PAUID3D11Resource@@@std@@V?$allocator@U?$pair@QAUID3D11Resource@@UD3D11_MAPPED_SUBRESOURCE@@@std@@@4@@std@@@std@@@std@@@std@@@std@@U?$_Wrap_alloc@V?$allocator@V?$_List_unchecked_iterator@V?$_List_val@U?$_List_simple_types@U?$pair@QAUID3D11DeviceContext@@V?$map@PAUID3D11Resource@@UD3D11_MAPPED_SUBRESOURCE@@U?$less@PAUID3D11Resource@@@std@@V?$allocator@U?$pair@QAUID3D11Resource@@UD3D11_MAPPED_SUBRESOURCE@@@std@@@4@@std@@@std@@@std@@@std@@@std@@@std@@@2@@std@@QAEAAV?$_List_unchecked_iterator@V?$_List_val@U?$_List_simple_types@U?$pair@QAUID3D11DeviceContext@@V?$map@PAUID3D11Resource@@UD3D11_MAPPED_SUBRESOURCE@@U?$less@PAUID3D11Resource@@@std@@V?$allocator@U?$pair@QAUID3D11Resource@@UD3D11_MAPPED_SUBRESOURCE@@@std@@@4@@std@@@std@@@std@@@std@@@1@I@Z ; std::vector<std::_List_unchecked_iterator<std::_List_val<std::_List_simple_types<std::pair<ID3D11DeviceContext * const,std::map<ID3D11Resource *,D3D11_MAPPED_SUBRESOURCE,std::less<ID3D11Resource *>,std::allocator<std::pair<ID3D11Resource * const,D3D11_MAPPED_SUBRESOURCE> > > > > > >,std::_Wrap_alloc<std::allocator<std::_List_unchecked_iterator<std::_List_val<std::_List_simple_types<std::pair<ID3D11DeviceContext * const,std::map<ID3D11Resource *,D3D11_MAPPED_SUBRESOURCE,std::less<ID3D11Resource *>,std::allocator<std::pair<ID3D11Resource * const,D3D11_MAPPED_SUBRESOURCE> > > > > > > > > >::operator[]
PUBLIC	?_Ufill@?$vector@V?$_List_unchecked_iterator@V?$_List_val@U?$_List_simple_types@U?$pair@QAUID3D11DeviceContext@@V?$map@PAUID3D11Resource@@UD3D11_MAPPED_SUBRESOURCE@@U?$less@PAUID3D11Resource@@@std@@V?$allocator@U?$pair@QAUID3D11Resource@@UD3D11_MAPPED_SUBRESOURCE@@@std@@@4@@std@@@std@@@std@@@std@@@std@@U?$_Wrap_alloc@V?$allocator@V?$_List_unchecked_iterator@V?$_List_val@U?$_List_simple_types@U?$pair@QAUID3D11DeviceContext@@V?$map@PAUID3D11Resource@@UD3D11_MAPPED_SUBRESOURCE@@U?$less@PAUID3D11Resource@@@std@@V?$allocator@U?$pair@QAUID3D11Resource@@UD3D11_MAPPED_SUBRESOURCE@@@std@@@4@@std@@@std@@@std@@@std@@@std@@@std@@@2@@std@@AAEPAV?$_List_unchecked_iterator@V?$_List_val@U?$_List_simple_types@U?$pair@QAUID3D11DeviceContext@@V?$map@PAUID3D11Resource@@UD3D11_MAPPED_SUBRESOURCE@@U?$less@PAUID3D11Resource@@@std@@V?$allocator@U?$pair@QAUID3D11Resource@@UD3D11_MAPPED_SUBRESOURCE@@@std@@@4@@std@@@std@@@std@@@std@@@2@PAV32@IABV32@@Z ; std::vector<std::_List_unchecked_iterator<std::_List_val<std::_List_simple_types<std::pair<ID3D11DeviceContext * const,std::map<ID3D11Resource *,D3D11_MAPPED_SUBRESOURCE,std::less<ID3D11Resource *>,std::allocator<std::pair<ID3D11Resource * const,D3D11_MAPPED_SUBRESOURCE> > > > > > >,std::_Wrap_alloc<std::allocator<std::_List_unchecked_iterator<std::_List_val<std::_List_simple_types<std::pair<ID3D11DeviceContext * const,std::map<ID3D11Resource *,D3D11_MAPPED_SUBRESOURCE,std::less<ID3D11Resource *>,std::allocator<std::pair<ID3D11Resource * const,D3D11_MAPPED_SUBRESOURCE> > > > > > > > > >::_Ufill
PUBLIC	?_Umove_if_noexcept1@?$vector@V?$_List_unchecked_iterator@V?$_List_val@U?$_List_simple_types@U?$pair@QAUID3D11DeviceContext@@V?$map@PAUID3D11Resource@@UD3D11_MAPPED_SUBRESOURCE@@U?$less@PAUID3D11Resource@@@std@@V?$allocator@U?$pair@QAUID3D11Resource@@UD3D11_MAPPED_SUBRESOURCE@@@std@@@4@@std@@@std@@@std@@@std@@@std@@U?$_Wrap_alloc@V?$allocator@V?$_List_unchecked_iterator@V?$_List_val@U?$_List_simple_types@U?$pair@QAUID3D11DeviceContext@@V?$map@PAUID3D11Resource@@UD3D11_MAPPED_SUBRESOURCE@@U?$less@PAUID3D11Resource@@@std@@V?$allocator@U?$pair@QAUID3D11Resource@@UD3D11_MAPPED_SUBRESOURCE@@@std@@@4@@std@@@std@@@std@@@std@@@std@@@std@@@2@@std@@AAEXPAV?$_List_unchecked_iterator@V?$_List_val@U?$_List_simple_types@U?$pair@QAUID3D11DeviceContext@@V?$map@PAUID3D11Resource@@UD3D11_MAPPED_SUBRESOURCE@@U?$less@PAUID3D11Resource@@@std@@V?$allocator@U?$pair@QAUID3D11Resource@@UD3D11_MAPPED_SUBRESOURCE@@@std@@@4@@std@@@std@@@std@@@std@@@2@00U?$integral_constant@_N$00@2@@Z ; std::vector<std::_List_unchecked_iterator<std::_List_val<std::_List_simple_types<std::pair<ID3D11DeviceContext * const,std::map<ID3D11Resource *,D3D11_MAPPED_SUBRESOURCE,std::less<ID3D11Resource *>,std::allocator<std::pair<ID3D11Resource * const,D3D11_MAPPED_SUBRESOURCE> > > > > > >,std::_Wrap_alloc<std::allocator<std::_List_unchecked_iterator<std::_List_val<std::_List_simple_types<std::pair<ID3D11DeviceContext * const,std::map<ID3D11Resource *,D3D11_MAPPED_SUBRESOURCE,std::less<ID3D11Resource *>,std::allocator<std::pair<ID3D11Resource * const,D3D11_MAPPED_SUBRESOURCE> > > > > > > > > >::_Umove_if_noexcept1
