; Listing generated by Microsoft (R) Optimizing Compiler Version 19.10.25019.0 

	TITLE	C:\Users\andon\Source\Repos\SpecialK\src\diagnostics\compatibility.cpp
	.686P
	.XMM
	include listing.inc
	.model	flat

INCLUDELIB MSVCRT
INCLUDELIB OLDNAMES

PUBLIC	?_pAtlModule@ATL@@3PAVCAtlModule@1@A		; ATL::_pAtlModule
PUBLIC	_IID_IAxWinHostWindow
PUBLIC	_LIBID_ATLLib
PUBLIC	_IID_IAxWinHostWindowLic
PUBLIC	_IID_IAxWinAmbientDispatch
PUBLIC	?SK_bypass_dialog_hwnd@@3PAUHWND__@@A		; SK_bypass_dialog_hwnd
PUBLIC	___pobjMapEntryFirst
PUBLIC	___pobjMapEntryLast
PUBLIC	?SK_LoadLibrary_SILENCE@@3_NA			; SK_LoadLibrary_SILENCE
PUBLIC	?_pPerfRegFunc@ATL@@3P6AJPAUHINSTANCE__@@@ZA	; ATL::_pPerfRegFunc
PUBLIC	?_pPerfUnRegFunc@ATL@@3P6AJXZA			; ATL::_pPerfUnRegFunc
PUBLIC	?_AtlRegisterPerUser@ATL@@3_NA			; ATL::_AtlRegisterPerUser
PUBLIC	?_pModule@ATL@@3PAVCComModule@1@A		; ATL::_pModule
PUBLIC	?SK_BypassResult@@3JC				; SK_BypassResult
PUBLIC	?__bypass@@3Usk_bypass_s@@A			; __bypass
PUBLIC	?pfnGetClientRect@@3PAXA			; pfnGetClientRect
PUBLIC	?pfnGetWindowRect@@3PAXA			; pfnGetWindowRect
PUBLIC	?pfnGetSystemMetrics@@3PAXA			; pfnGetSystemMetrics
PUBLIC	_IID_IAxWinAmbientDispatchEx
PUBLIC	?chDirSep@ATL@@3_WB				; ATL::chDirSep
PUBLIC	?chRightBracket@ATL@@3_WB			; ATL::chRightBracket
PUBLIC	?chLeftBracket@ATL@@3_WB			; ATL::chLeftBracket
PUBLIC	?chQuote@ATL@@3_WB				; ATL::chQuote
PUBLIC	_IID_IInternalConnection
PUBLIC	?chEquals@ATL@@3_WB				; ATL::chEquals
PUBLIC	?szStringVal@ATL@@3QB_WB			; ATL::szStringVal
PUBLIC	?multiszStringVal@ATL@@3QB_WB			; ATL::multiszStringVal
PUBLIC	?szDwordVal@ATL@@3QB_WB				; ATL::szDwordVal
PUBLIC	?szBinaryVal@ATL@@3QB_WB			; ATL::szBinaryVal
PUBLIC	?szValToken@ATL@@3QB_WB				; ATL::szValToken
PUBLIC	?szForceRemove@ATL@@3QB_WB			; ATL::szForceRemove
PUBLIC	?szNoRemove@ATL@@3QB_WB				; ATL::szNoRemove
PUBLIC	?szDelete@ATL@@3QB_WB				; ATL::szDelete
PUBLIC	?FreeLibrary_Original@@3P6GHPAUHINSTANCE__@@@ZA	; FreeLibrary_Original
PUBLIC	?LoadLibraryA_Original@@3P6GPAUHINSTANCE__@@PBD@ZA ; LoadLibraryA_Original
PUBLIC	?LoadLibraryW_Original@@3P6GPAUHINSTANCE__@@PB_W@ZA ; LoadLibraryW_Original
PUBLIC	?LoadLibraryExA_Original@@3P6GPAUHINSTANCE__@@PBDPAXK@ZA ; LoadLibraryExA_Original
PUBLIC	?LoadLibraryExW_Original@@3P6GPAUHINSTANCE__@@PB_WPAXK@ZA ; LoadLibraryExW_Original
PUBLIC	?LoadPackagedLibrary_Original@@3P6GPAUHINSTANCE__@@PB_WK@ZA ; LoadPackagedLibrary_Original
PUBLIC	_CLSID_Registrar
PUBLIC	_IID_IRegistrar
PUBLIC	?_pAtlAutoThreadModule@ATL@@3PAUIAtlAutoThreadModule@1@A ; ATL::_pAtlAutoThreadModule
PUBLIC	_IID_IDocHostUIHandlerDispatch
_BSS	SEGMENT
?GetClientRect_DeadEnd@@3P6GHPAUHWND__@@PAUtagRECT@@@ZA DD 01H DUP (?) ; GetClientRect_DeadEnd
?GetWindowRect_DeadEnd@@3P6GHPAUHWND__@@PAUtagRECT@@@ZA DD 01H DUP (?) ; GetWindowRect_DeadEnd
?GetSystemMetrics_DeadEnd@@3P6GHH@ZA DD 01H DUP (?)	; GetSystemMetrics_DeadEnd
_BSS	ENDS
;	COMDAT ?_pAtlModule@ATL@@3PAVCAtlModule@1@A
_BSS	SEGMENT
?_pAtlModule@ATL@@3PAVCAtlModule@1@A DD 01H DUP (?)	; ATL::_pAtlModule
_BSS	ENDS
_BSS	SEGMENT
?SK_bypass_dialog_hwnd@@3PAUHWND__@@A DD 01H DUP (?)	; SK_bypass_dialog_hwnd
?SK_LoadLibrary_SILENCE@@3_NA DB 01H DUP (?)		; SK_LoadLibrary_SILENCE
_BSS	ENDS
;	COMDAT ?_pPerfRegFunc@ATL@@3P6AJPAUHINSTANCE__@@@ZA
_BSS	SEGMENT
?_pPerfRegFunc@ATL@@3P6AJPAUHINSTANCE__@@@ZA DD 01H DUP (?) ; ATL::_pPerfRegFunc
_BSS	ENDS
;	COMDAT ?_pPerfUnRegFunc@ATL@@3P6AJXZA
_BSS	SEGMENT
?_pPerfUnRegFunc@ATL@@3P6AJXZA DD 01H DUP (?)		; ATL::_pPerfUnRegFunc
_BSS	ENDS
;	COMDAT ?_AtlRegisterPerUser@ATL@@3_NA
_BSS	SEGMENT
?_AtlRegisterPerUser@ATL@@3_NA DB 01H DUP (?)		; ATL::_AtlRegisterPerUser
_BSS	ENDS
;	COMDAT ?_pModule@ATL@@3PAVCComModule@1@A
_BSS	SEGMENT
?_pModule@ATL@@3PAVCComModule@1@A DD 01H DUP (?)	; ATL::_pModule
_BSS	ENDS
_BSS	SEGMENT
	ALIGN	4

?SK_BypassResult@@3JC DD 01H DUP (?)			; SK_BypassResult
?__bypass@@3Usk_bypass_s@@A DB 020cH DUP (?)		; __bypass
?pfnGetClientRect@@3PAXA DD 01H DUP (?)			; pfnGetClientRect
?pfnGetWindowRect@@3PAXA DD 01H DUP (?)			; pfnGetWindowRect
?pfnGetSystemMetrics@@3PAXA DD 01H DUP (?)		; pfnGetSystemMetrics
?loaded_gl@@3_NA DB 01H DUP (?)				; loaded_gl
	ALIGN	4

?loaded_vulkan@@3_NA DB 01H DUP (?)			; loaded_vulkan
	ALIGN	4

?loaded_d3d9@@3_NA DB 01H DUP (?)			; loaded_d3d9
	ALIGN	4

?loaded_d3d8@@3_NA DB 01H DUP (?)			; loaded_d3d8
	ALIGN	4

?loaded_ddraw@@3_NA DB 01H DUP (?)			; loaded_ddraw
	ALIGN	4

?loaded_dxgi@@3_NA DB 01H DUP (?)			; loaded_dxgi
	ALIGN	4

?FreeLibrary_Original@@3P6GHPAUHINSTANCE__@@@ZA DD 01H DUP (?) ; FreeLibrary_Original
?LoadLibraryA_Original@@3P6GPAUHINSTANCE__@@PBD@ZA DD 01H DUP (?) ; LoadLibraryA_Original
?LoadLibraryW_Original@@3P6GPAUHINSTANCE__@@PB_W@ZA DD 01H DUP (?) ; LoadLibraryW_Original
?LoadLibraryExA_Original@@3P6GPAUHINSTANCE__@@PBDPAXK@ZA DD 01H DUP (?) ; LoadLibraryExA_Original
?LoadLibraryExW_Original@@3P6GPAUHINSTANCE__@@PB_WPAXK@ZA DD 01H DUP (?) ; LoadLibraryExW_Original
?LoadPackagedLibrary_Original@@3P6GPAUHINSTANCE__@@PB_WK@ZA DD 01H DUP (?) ; LoadPackagedLibrary_Original
_BSS	ENDS
;	COMDAT ?_pAtlAutoThreadModule@ATL@@3PAUIAtlAutoThreadModule@1@A
_BSS	SEGMENT
?_pAtlAutoThreadModule@ATL@@3PAUIAtlAutoThreadModule@1@A DD 01H DUP (?) ; ATL::_pAtlAutoThreadModule
_BSS	ENDS
;	COMDAT _IID_IDocHostUIHandlerDispatch
CONST	SEGMENT
_IID_IDocHostUIHandlerDispatch DD 0425b5af0H
	DW	065f1H
	DW	011d1H
	DB	096H
	DB	011H
	DB	00H
	DB	00H
	DB	0f8H
	DB	01eH
	DB	0dH
	DB	0dH
CONST	ENDS
;	COMDAT _IID_IRegistrar
CONST	SEGMENT
_IID_IRegistrar DD 044ec053bH
	DW	0400fH
	DW	011d0H
	DB	09dH
	DB	0cdH
	DB	00H
	DB	0a0H
	DB	0c9H
	DB	03H
	DB	091H
	DB	0d3H
CONST	ENDS
;	COMDAT _CLSID_Registrar
CONST	SEGMENT
_CLSID_Registrar DD 044ec053aH
	DW	0400fH
	DW	011d0H
	DB	09dH
	DB	0cdH
	DB	00H
	DB	0a0H
	DB	0c9H
	DB	03H
	DB	091H
	DB	0d3H
CONST	ENDS
;	COMDAT ?szDelete@ATL@@3QB_WB
CONST	SEGMENT
?szDelete@ATL@@3QB_WB DD FLAT:$SG103014			; ATL::szDelete
CONST	ENDS
;	COMDAT ?szNoRemove@ATL@@3QB_WB
CONST	SEGMENT
?szNoRemove@ATL@@3QB_WB DD FLAT:$SG103012		; ATL::szNoRemove
CONST	ENDS
;	COMDAT ?szForceRemove@ATL@@3QB_WB
CONST	SEGMENT
?szForceRemove@ATL@@3QB_WB DD FLAT:$SG103010		; ATL::szForceRemove
CONST	ENDS
;	COMDAT ?szValToken@ATL@@3QB_WB
CONST	SEGMENT
?szValToken@ATL@@3QB_WB DD FLAT:$SG103008		; ATL::szValToken
CONST	ENDS
;	COMDAT ?szBinaryVal@ATL@@3QB_WB
CONST	SEGMENT
?szBinaryVal@ATL@@3QB_WB DD FLAT:$SG103006		; ATL::szBinaryVal
CONST	ENDS
;	COMDAT ?szDwordVal@ATL@@3QB_WB
CONST	SEGMENT
?szDwordVal@ATL@@3QB_WB DD FLAT:$SG103004		; ATL::szDwordVal
CONST	ENDS
;	COMDAT ?multiszStringVal@ATL@@3QB_WB
CONST	SEGMENT
?multiszStringVal@ATL@@3QB_WB DD FLAT:$SG103002		; ATL::multiszStringVal
CONST	ENDS
;	COMDAT ?szStringVal@ATL@@3QB_WB
CONST	SEGMENT
?szStringVal@ATL@@3QB_WB DD FLAT:$SG103000		; ATL::szStringVal
CONST	ENDS
;	COMDAT ?chEquals@ATL@@3_WB
CONST	SEGMENT
?chEquals@ATL@@3_WB DW 03dH				; ATL::chEquals
CONST	ENDS
;	COMDAT _IID_IInternalConnection
CONST	SEGMENT
_IID_IInternalConnection DD 072ad0770H
	DW	06a9fH
	DW	011d1H
	DB	0bcH
	DB	0ecH
	DB	00H
	DB	060H
	DB	08H
	DB	08fH
	DB	044H
	DB	04eH
CONST	ENDS
;	COMDAT ?chQuote@ATL@@3_WB
CONST	SEGMENT
?chQuote@ATL@@3_WB DW 027H				; ATL::chQuote
CONST	ENDS
;	COMDAT ?chLeftBracket@ATL@@3_WB
CONST	SEGMENT
?chLeftBracket@ATL@@3_WB DW 07bH			; ATL::chLeftBracket
CONST	ENDS
;	COMDAT ?chRightBracket@ATL@@3_WB
CONST	SEGMENT
?chRightBracket@ATL@@3_WB DW 07dH			; ATL::chRightBracket
CONST	ENDS
;	COMDAT ?chDirSep@ATL@@3_WB
CONST	SEGMENT
?chDirSep@ATL@@3_WB DW 05cH				; ATL::chDirSep
CONST	ENDS
;	COMDAT _IID_IAxWinAmbientDispatchEx
CONST	SEGMENT
_IID_IAxWinAmbientDispatchEx DD 0b2d0778bH
	DW	0ac99H
	DW	04c58H
	DB	0a5H
	DB	0c8H
	DB	0e7H
	DB	072H
	DB	04eH
	DB	053H
	DB	016H
	DB	0b5H
CONST	ENDS
_DATA	SEGMENT
?wszSteamClientDLL@@3PB_WB DD FLAT:$SG200059		; wszSteamClientDLL
?szSteamClientDLL@@3PBDB DD FLAT:$SG200061		; szSteamClientDLL
?wszSteamNativeDLL@@3PB_WB DD FLAT:$SG200063		; wszSteamNativeDLL
?szSteamNativeDLL@@3PBDB DD FLAT:$SG200065		; szSteamNativeDLL
?wszSteamAPIDLL@@3PB_WB DD FLAT:$SG200067		; wszSteamAPIDLL
?szSteamAPIDLL@@3PBDB DD FLAT:$SG200069			; szSteamAPIDLL
?wszSteamAPIAltDLL@@3PB_WB DD FLAT:$SG200071		; wszSteamAPIAltDLL
?szSteamAPIAltDLL@@3PBDB DD FLAT:$SG200073		; szSteamAPIAltDLL
_DATA	ENDS
;	COMDAT ___pobjMapEntryLast
ATL$__z	SEGMENT
___pobjMapEntryLast DD 00H
ATL$__z	ENDS
;	COMDAT ___pobjMapEntryFirst
ATL$__a	SEGMENT
___pobjMapEntryFirst DD 00H
ATL$__a	ENDS
;	COMDAT _IID_IAxWinAmbientDispatch
CONST	SEGMENT
_IID_IAxWinAmbientDispatch DD 0b6ea2051H
	DW	048aH
	DW	011d1H
	DB	082H
	DB	0b9H
	DB	00H
	DB	0c0H
	DB	04fH
	DB	0b9H
	DB	094H
	DB	02eH
CONST	ENDS
;	COMDAT _IID_IAxWinHostWindowLic
CONST	SEGMENT
_IID_IAxWinHostWindowLic DD 03935bda8H
	DW	04ed9H
	DW	0495cH
	DB	086H
	DB	050H
	DB	0e0H
	DB	01fH
	DB	0c1H
	DB	0e3H
	DB	08aH
	DB	04bH
CONST	ENDS
;	COMDAT _LIBID_ATLLib
CONST	SEGMENT
_LIBID_ATLLib DD 044ec0535H
	DW	0400fH
	DW	011d0H
	DB	09dH
	DB	0cdH
	DB	00H
	DB	0a0H
	DB	0c9H
	DB	03H
	DB	091H
	DB	0d3H
CONST	ENDS
;	COMDAT _IID_IAxWinHostWindow
CONST	SEGMENT
_IID_IAxWinHostWindow DD 0b6ea2050H
	DW	048aH
	DW	011d1H
	DB	082H
	DB	0b9H
	DB	00H
	DB	0c0H
	DB	04fH
	DB	0b9H
	DB	094H
	DB	02eH
CONST	ENDS
CONST	SEGMENT
$SG205824 DB	'%ws\My Mods\SpecialK\SpecialK%lu.dll', 00H
$SG203753 DB	00H
	ORG $+2
$SG205829 DB	'%ws\My Mods\SpecialK\SpecialK%lu.dll', 00H
	ORG $+3
$SG205834 DB	'%ws\My Mods\SpecialK\SpecialK%lu.dll', 00H
	ORG $+3
$SG205839 DB	'%ws\My Mods\SpecialK\SpecialK%lu.dll', 00H
	ORG $+3
$SG90127 DB	'a', 00H, 't', 00H, 'l', 00H, 'T', 00H, 'r', 00H, 'a', 00H
	DB	'c', 00H, 'e', 00H, 'A', 00H, 'l', 00H, 'l', 00H, 'o', 00H, 'c'
	DB	00H, 'a', 00H, 't', 00H, 'i', 00H, 'o', 00H, 'n', 00H, 00H, 00H
	ORG $+2
$SG205844 DB	'%ws\My Mods\SpecialK\SpecialK%lu.dll', 00H
	ORG $+3
$SG205851 DB	'%ws\My Mods\SpecialK\SpecialK%lu.dll', 00H
	ORG $+3
$SG205858 DB	'%ws\My Mods\SpecialK\SpecialK%lu.dll', 00H
	ORG $+3
$SG205861 DB	'I', 00H, 'm', 00H, 'p', 00H, 'o', 00H, 'r', 00H, 't', 00H
	DB	'.', 00H, 'R', 00H, 'e', 00H, 'S', 00H, 'h', 00H, 'a', 00H, 'd'
	DB	00H, 'e', 00H, '3', 00H, '2', 00H, 00H, 00H
	ORG $+2
$SG205864 DB	'F', 00H, 'A', 00H, 'R', 00H, '.', 00H, 'i', 00H, 'n', 00H
	DB	'i', 00H, 00H, 00H
$SG205865 DB	'U', 00H, 'n', 00H, 'X', 00H, '.', 00H, 'i', 00H, 'n', 00H
	DB	'i', 00H, 00H, 00H
$SG205866 DB	'P', 00H, 'P', 00H, 'r', 00H, 'i', 00H, 'n', 00H, 'n', 00H
	DB	'y', 00H, '.', 00H, 'i', 00H, 'n', 00H, 'i', 00H, 00H, 00H
$SG205867 DB	'T', 00H, 'B', 00H, 'F', 00H, 'i', 00H, 'x', 00H, '.', 00H
	DB	'i', 00H, 'n', 00H, 'i', 00H, 00H, 00H
$SG205868 DB	'T', 00H, 'S', 00H, 'F', 00H, 'i', 00H, 'x', 00H, '.', 00H
	DB	'i', 00H, 'n', 00H, 'i', 00H, 00H, 00H
$SG205869 DB	'T', 00H, 'Z', 00H, 'F', 00H, 'i', 00H, 'x', 00H, '.', 00H
	DB	'i', 00H, 'n', 00H, 'i', 00H, 00H, 00H
$SG223280 DB	'[DLL Loader]   ( %-28ws ) loaded ''%#116hs'' <%hs> { ''%'
	DB	'21hs'' }', 00H
	ORG $+3
$SG205872 DB	'Possible API Detection Problems', 00H
$SG223281 DB	'[', 00H, 'D', 00H, 'L', 00H, 'L', 00H, ' ', 00H, 'L', 00H
	DB	'o', 00H, 'a', 00H, 'd', 00H, 'e', 00H, 'r', 00H, ']', 00H, ' '
	DB	00H, ' ', 00H, ' ', 00H, '(', 00H, ' ', 00H, '%', 00H, '-', 00H
	DB	'2', 00H, '8', 00H, 'w', 00H, 's', 00H, ' ', 00H, ')', 00H, ' '
	DB	00H, 'l', 00H, 'o', 00H, 'a', 00H, 'd', 00H, 'e', 00H, 'd', 00H
	DB	' ', 00H, '''', 00H, '%', 00H, '#', 00H, '1', 00H, '1', 00H, '6'
	DB	00H, 'w', 00H, 's', 00H, '''', 00H, ' ', 00H, '<', 00H, '%', 00H
	DB	'w', 00H, 's', 00H, '>', 00H, ' ', 00H, '{', 00H, ' ', 00H, ''''
	DB	00H, '%', 00H, '2', 00H, '1', 00H, 'h', 00H, 's', 00H, '''', 00H
	DB	' ', 00H, '}', 00H, 00H, 00H
	ORG $+2
$SG205874 DB	'e', 00H, 'x', 00H, 'p', 00H, 'l', 00H, 'o', 00H, 'r', 00H
	DB	'e', 00H, 00H, 00H
$SG205877 DB	'w', 00H, 00H, 00H
$SG205873 DB	'API detection may be incorrect, delete ''%ws.dll'' manua'
	DB	'lly if Special K does not inject itself.', 00H
	ORG $+1
$SG223286 DB	'A', 00H, 'c', 00H, 't', 00H, 'i', 00H, 'v', 00H, 'a', 00H
	DB	't', 00H, 'i', 00H, 'o', 00H, 'n', 00H, 00H, 00H
	ORG $+2
$SG223287 DB	'r', 00H, 'x', 00H, 'c', 00H, 'o', 00H, 'r', 00H, 'e', 00H
	DB	00H, 00H
	ORG $+2
$SG223288 DB	'G', 00H, 'e', 00H, 'D', 00H, 'o', 00H, 'S', 00H, 'a', 00H
	DB	'T', 00H, 'o', 00H, 00H, 00H
	ORG $+2
$SG223289 DB	'g', 00H, 'a', 00H, 'm', 00H, 'e', 00H, 'o', 00H, 'v', 00H
	DB	'e', 00H, 'r', 00H, 'l', 00H, 'a', 00H, 'y', 00H, 'r', 00H, 'e'
	DB	00H, 'n', 00H, 'd', 00H, 'e', 00H, 'r', 00H, 'e', 00H, 'r', 00H
	DB	00H, 00H
$SG223290 DB	'R', 00H, 'T', 00H, 'S', 00H, 'S', 00H, 'H', 00H, 'o', 00H
	DB	'o', 00H, 'k', 00H, 's', 00H, 00H, 00H
$SG223291 DB	'N', 00H, 'a', 00H, 'h', 00H, 'i', 00H, 'm', 00H, 'i', 00H
	DB	'c', 00H, '2', 00H, 'D', 00H, 'e', 00H, 'v', 00H, 'P', 00H, 'r'
	DB	00H, 'o', 00H, 'p', 00H, 's', 00H, 00H, 00H
	ORG $+2
$SG205883 DB	'd', 00H, 'x', 00H, 'g', 00H, 'i', 00H, 00H, 00H
	ORG $+2
$SG223292 DB	'R', 00H, 'e', 00H, 'S', 00H, 'h', 00H, 'a', 00H, 'd', 00H
	DB	'e', 00H, 00H, 00H
$SG223293 DB	'A', 00H, 'c', 00H, 't', 00H, 'i', 00H, 'v', 00H, 'a', 00H
	DB	't', 00H, 'i', 00H, 'o', 00H, 'n', 00H, 00H, 00H
	ORG $+2
$SG90174 DB	'a', 00H, 't', 00H, 'l', 00H, 'T', 00H, 'r', 00H, 'a', 00H
	DB	'c', 00H, 'e', 00H, 'E', 00H, 'x', 00H, 'c', 00H, 'e', 00H, 'p'
	DB	00H, 't', 00H, 'i', 00H, 'o', 00H, 'n', 00H, 00H, 00H
$SG223298 DB	'd', 00H, '3', 00H, 'd', 00H, '9', 00H, '.', 00H, 'd', 00H
	DB	'l', 00H, 'l', 00H, 00H, 00H
	ORG $+2
$SG223299 DB	'd3d9.dll', 00H
	ORG $+3
$SG223300 DB	'd', 00H, '3', 00H, 'd', 00H, '9', 00H, '.', 00H, 'd', 00H
	DB	'l', 00H, 'l', 00H, 00H, 00H
	ORG $+2
$SG223301 DB	'd', 00H, '3', 00H, 'd', 00H, 'x', 00H, '9', 00H, '_', 00H
	DB	00H, 00H
	ORG $+2
$SG223302 DB	'd3dx9_', 00H
	ORG $+1
$SG223303 DB	'd', 00H, '3', 00H, 'd', 00H, 'x', 00H, '9', 00H, '_', 00H
	DB	00H, 00H
	ORG $+2
$SG223304 DB	'D', 00H, 'i', 00H, 'r', 00H, 'e', 00H, 'c', 00H, 't', 00H
	DB	'3', 00H, 'D', 00H, '9', 00H, 00H, 00H
$SG223305 DB	'Direct3D9', 00H
	ORG $+2
$SG223306 DB	'D', 00H, 'i', 00H, 'r', 00H, 'e', 00H, 'c', 00H, 't', 00H
	DB	'3', 00H, 'D', 00H, '9', 00H, 00H, 00H
$SG223307 DB	'n', 00H, 'v', 00H, 'd', 00H, '3', 00H, 'd', 00H, 'u', 00H
	DB	'm', 00H, '.', 00H, 'd', 00H, 'l', 00H, 'l', 00H, 00H, 00H
$SG223308 DB	'nvd3dum.dll', 00H
$SG223309 DB	'n', 00H, 'v', 00H, 'd', 00H, '3', 00H, 'd', 00H, 'u', 00H
	DB	'm', 00H, '.', 00H, 'd', 00H, 'l', 00H, 'l', 00H, 00H, 00H
$SG223313 DB	'd', 00H, '3', 00H, 'd', 00H, '8', 00H, '.', 00H, 'd', 00H
	DB	'l', 00H, 'l', 00H, 00H, 00H
	ORG $+2
$SG223314 DB	'd3d8.dll', 00H
	ORG $+3
$SG223315 DB	'd', 00H, '3', 00H, 'd', 00H, '8', 00H, '.', 00H, 'd', 00H
	DB	'l', 00H, 'l', 00H, 00H, 00H
	ORG $+2
$SG223319 DB	'd', 00H, 'd', 00H, 'r', 00H, 'a', 00H, 'w', 00H, '.', 00H
	DB	'd', 00H, 'l', 00H, 'l', 00H, 00H, 00H
$SG223320 DB	'ddraw.dll', 00H
	ORG $+2
$SG223321 DB	'd', 00H, 'd', 00H, 'r', 00H, 'a', 00H, 'w', 00H, '.', 00H
	DB	'd', 00H, 'l', 00H, 'l', 00H, 00H, 00H
$SG223325 DB	'd', 00H, '3', 00H, 'd', 00H, '1', 00H, '1', 00H, '.', 00H
	DB	'd', 00H, 'l', 00H, 'l', 00H, 00H, 00H
$SG223326 DB	'd3d11.dll', 00H
	ORG $+2
$SG223327 DB	'd', 00H, '3', 00H, 'd', 00H, '1', 00H, '1', 00H, '.', 00H
	DB	'd', 00H, 'l', 00H, 'l', 00H, 00H, 00H
$SG223331 DB	'O', 00H, 'p', 00H, 'e', 00H, 'n', 00H, 'G', 00H, 'L', 00H
	DB	'3', 00H, '2', 00H, '.', 00H, 'd', 00H, 'l', 00H, 'l', 00H, 00H
	DB	00H
	ORG $+2
$SG223332 DB	'OpenGL32.dll', 00H
	ORG $+3
$SG223333 DB	'O', 00H, 'p', 00H, 'e', 00H, 'n', 00H, 'G', 00H, 'L', 00H
	DB	'3', 00H, '2', 00H, '.', 00H, 'd', 00H, 'l', 00H, 'l', 00H, 00H
	DB	00H
	ORG $+2
$SG223336 DB	'x', 00H, 'i', 00H, 'n', 00H, 'p', 00H, 'u', 00H, 't', 00H
	DB	'1', 00H, '_', 00H, '3', 00H, '.', 00H, 'd', 00H, 'l', 00H, 'l'
	DB	00H, 00H, 00H
$SG223337 DB	'xinput1_3.dll', 00H
	ORG $+2
$SG223340 DB	'x', 00H, 'i', 00H, 'n', 00H, 'p', 00H, 'u', 00H, 't', 00H
	DB	'1', 00H, '_', 00H, '4', 00H, '.', 00H, 'd', 00H, 'l', 00H, 'l'
	DB	00H, 00H, 00H
$SG223341 DB	'xinput1_4.dll', 00H
	ORG $+2
$SG90221 DB	'a', 00H, 't', 00H, 'l', 00H, 'T', 00H, 'r', 00H, 'a', 00H
	DB	'c', 00H, 'e', 00H, 'T', 00H, 'i', 00H, 'm', 00H, 'e', 00H, 00H
	DB	00H
	ORG $+2
$SG223344 DB	'x', 00H, 'i', 00H, 'n', 00H, 'p', 00H, 'u', 00H, 't', 00H
	DB	'9', 00H, '_', 00H, '1', 00H, '_', 00H, '0', 00H, '.', 00H, 'd'
	DB	00H, 'l', 00H, 'l', 00H, 00H, 00H
$SG223345 DB	'xinput9_1_0.dll', 00H
$SG223348 DB	'd', 00H, 'i', 00H, 'n', 00H, 'p', 00H, 'u', 00H, 't', 00H
	DB	'8', 00H, '.', 00H, 'd', 00H, 'l', 00H, 'l', 00H, 00H, 00H
$SG223349 DB	'dinput8.dll', 00H
$SG223351 DB	'h', 00H, 'i', 00H, 'd', 00H, '.', 00H, 'd', 00H, 'l', 00H
	DB	'l', 00H, 00H, 00H
$SG223352 DB	'hid.dll', 00H
$SG224412 DB	'a', 00H, 'c', 00H, 't', 00H, 'i', 00H, 'o', 00H, 'n', 00H
	DB	'_', 00H, 'x', 00H, '8', 00H, '6', 00H, 00H, 00H
	ORG $+2
$SG90268 DB	'a', 00H, 't', 00H, 'l', 00H, 'T', 00H, 'r', 00H, 'a', 00H
	DB	'c', 00H, 'e', 00H, 'C', 00H, 'a', 00H, 'c', 00H, 'h', 00H, 'e'
	DB	00H, 00H, 00H
$SG224413 DB	'action_x86', 00H
	ORG $+1
$SG224415 DB	'R', 00H, 'T', 00H, 'S', 00H, 'S', 00H, 'H', 00H, 'o', 00H
	DB	'o', 00H, 'k', 00H, 's', 00H, 00H, 00H
$SG224416 DB	'RTSSHooks', 00H
	ORG $+2
$SG224419 DB	'l', 00H, 't', 00H, 'c', 00H, '_', 00H, 'g', 00H, 'a', 00H
	DB	'm', 00H, 'e', 00H, 00H, 00H
	ORG $+2
$SG224420 DB	'ltc_game', 00H
	ORG $+3
$SG224424 DB	'r', 00H, 'x', 00H, 'g', 00H, 'a', 00H, 'm', 00H, 'e', 00H
	DB	'p', 00H, 'a', 00H, 'd', 00H, 'i', 00H, 'n', 00H, 'p', 00H, 'u'
	DB	00H, 't', 00H, '.', 00H, 'd', 00H, 'l', 00H, 'l', 00H, 00H, 00H
	ORG $+2
$SG224425 DB	'rxgamepadinput.dll', 00H
	ORG $+1
$SG224421 DB	'[', 00H, 'B', 00H, 'l', 00H, 'a', 00H, 'c', 00H, 'k', 00H
	DB	' ', 00H, 'L', 00H, 'i', 00H, 's', 00H, 't', 00H, ']', 00H, ' '
	DB	00H, 'P', 00H, 'r', 00H, 'e', 00H, 'v', 00H, 'e', 00H, 'n', 00H
	DB	't', 00H, 'i', 00H, 'n', 00H, 'g', 00H, ' ', 00H, 'R', 00H, 'a'
	DB	00H, 'p', 00H, 't', 00H, 'r', 00H, '''', 00H, 's', 00H, ' ', 00H
	DB	'o', 00H, 'v', 00H, 'e', 00H, 'r', 00H, 'l', 00H, 'a', 00H, 'y'
	DB	00H, ' ', 00H, '(', 00H, 'l', 00H, 't', 00H, 'c', 00H, '_', 00H
	DB	'g', 00H, 'a', 00H, 'm', 00H, 'e', 00H, ')', 00H, ',', 00H, ' '
	DB	00H, 'i', 00H, 't', 00H, ' ', 00H, 'l', 00H, 'i', 00H, 'k', 00H
	DB	'e', 00H, 's', 00H, ' ', 00H, 't', 00H, 'o', 00H, ' ', 00H, 'c'
	DB	00H, 'r', 00H, 'a', 00H, 's', 00H, 'h', 00H, ' ', 00H, 'g', 00H
	DB	'a', 00H, 'm', 00H, 'e', 00H, 's', 00H, '!', 00H, 00H, 00H
	ORG $+2
$SG224426 DB	'r', 00H, 'x', 00H, 'c', 00H, 'o', 00H, 'r', 00H, 'e', 00H
	DB	'.', 00H, 'd', 00H, 'l', 00H, 'l', 00H, 00H, 00H
	ORG $+2
$SG224427 DB	'rxcore.dll', 00H
	ORG $+1
$SG224428 DB	'n', 00H, 'v', 00H, 'i', 00H, 'n', 00H, 'j', 00H, 'e', 00H
	DB	'c', 00H, 't', 00H, '.', 00H, 'd', 00H, 'l', 00H, 'l', 00H, 00H
	DB	00H
	ORG $+2
$SG224429 DB	'nvinject.dll', 00H
	ORG $+3
$SG224430 DB	'r', 00H, 'x', 00H, 'i', 00H, 'n', 00H, 'p', 00H, 'u', 00H
	DB	't', 00H, '.', 00H, 'd', 00H, 'l', 00H, 'l', 00H, 00H, 00H
$SG224431 DB	'rxinput.dll', 00H
$SG90315 DB	'a', 00H, 't', 00H, 'l', 00H, 'T', 00H, 'r', 00H, 'a', 00H
	DB	'c', 00H, 'e', 00H, 'S', 00H, 't', 00H, 'e', 00H, 'n', 00H, 'c'
	DB	00H, 'i', 00H, 'l', 00H, 00H, 00H
$SG90362 DB	'a', 00H, 't', 00H, 'l', 00H, 'T', 00H, 'r', 00H, 'a', 00H
	DB	'c', 00H, 'e', 00H, 'S', 00H, 't', 00H, 'r', 00H, 'i', 00H, 'n'
	DB	00H, 'g', 00H, 00H, 00H
	ORG $+2
$SG204037 DB	'o', 00H, 'p', 00H, 'e', 00H, 'n', 00H, 'g', 00H, 'l', 00H
	DB	'3', 00H, '2', 00H, '.', 00H, 'd', 00H, 'l', 00H, 'l', 00H, 00H
	DB	00H
	ORG $+2
$SG204041 DB	'd', 00H, '3', 00H, 'd', 00H, '1', 00H, '1', 00H, '.', 00H
	DB	'd', 00H, 'l', 00H, 'l', 00H, 00H, 00H
$SG103690 DB	'A', 00H, 'p', 00H, 'p', 00H, 'I', 00H, 'D', 00H, 00H, 00H
$SG103691 DB	'C', 00H, 'L', 00H, 'S', 00H, 'I', 00H, 'D', 00H, 00H, 00H
$SG103692 DB	'C', 00H, 'o', 00H, 'm', 00H, 'p', 00H, 'o', 00H, 'n', 00H
	DB	'e', 00H, 'n', 00H, 't', 00H, ' ', 00H, 'C', 00H, 'a', 00H, 't'
	DB	00H, 'e', 00H, 'g', 00H, 'o', 00H, 'r', 00H, 'i', 00H, 'e', 00H
	DB	's', 00H, 00H, 00H
	ORG $+2
$SG204045 DB	'd', 00H, '3', 00H, 'd', 00H, '9', 00H, '.', 00H, 'd', 00H
	DB	'l', 00H, 'l', 00H, 00H, 00H
	ORG $+2
$SG103693 DB	'F', 00H, 'i', 00H, 'l', 00H, 'e', 00H, 'T', 00H, 'y', 00H
	DB	'p', 00H, 'e', 00H, 00H, 00H
	ORG $+2
$SG103694 DB	'I', 00H, 'n', 00H, 't', 00H, 'e', 00H, 'r', 00H, 'f', 00H
	DB	'a', 00H, 'c', 00H, 'e', 00H, 00H, 00H
$SG103695 DB	'H', 00H, 'a', 00H, 'r', 00H, 'd', 00H, 'w', 00H, 'a', 00H
	DB	'r', 00H, 'e', 00H, 00H, 00H
	ORG $+2
$SG103696 DB	'M', 00H, 'i', 00H, 'm', 00H, 'e', 00H, 00H, 00H
	ORG $+2
$SG204049 DB	'd', 00H, '3', 00H, 'd', 00H, '8', 00H, '.', 00H, 'd', 00H
	DB	'l', 00H, 'l', 00H, 00H, 00H
	ORG $+2
$SG103697 DB	'S', 00H, 'A', 00H, 'M', 00H, 00H, 00H
$SG103698 DB	'S', 00H, 'E', 00H, 'C', 00H, 'U', 00H, 'R', 00H, 'I', 00H
	DB	'T', 00H, 'Y', 00H, 00H, 00H
	ORG $+2
$SG103699 DB	'S', 00H, 'Y', 00H, 'S', 00H, 'T', 00H, 'E', 00H, 'M', 00H
	DB	00H, 00H
	ORG $+2
$SG204052 DB	'\', 00H, 'd', 00H, 'd', 00H, 'r', 00H, 'a', 00H, 'w', 00H
	DB	'.', 00H, 'd', 00H, 'l', 00H, 'l', 00H, 00H, 00H
	ORG $+2
$SG103700 DB	'S', 00H, 'o', 00H, 'f', 00H, 't', 00H, 'w', 00H, 'a', 00H
	DB	'r', 00H, 'e', 00H, 00H, 00H
	ORG $+2
$SG103701 DB	'T', 00H, 'y', 00H, 'p', 00H, 'e', 00H, 'L', 00H, 'i', 00H
	DB	'b', 00H, 00H, 00H
$SG90409 DB	'a', 00H, 't', 00H, 'l', 00H, 'T', 00H, 'r', 00H, 'a', 00H
	DB	'c', 00H, 'e', 00H, 'M', 00H, 'a', 00H, 'p', 00H, 00H, 00H
$SG204075 DB	'R', 00H, 'T', 00H, 'S', 00H, 'S', 00H, 'H', 00H, 'o', 00H
	DB	'o', 00H, 'k', 00H, 's', 00H, 00H, 00H
$SG90414 DB	'a', 00H, 't', 00H, 'l', 00H, 'T', 00H, 'r', 00H, 'a', 00H
	DB	'c', 00H, 'e', 00H, 'U', 00H, 't', 00H, 'i', 00H, 'l', 00H, 00H
	DB	00H
	ORG $+2
$SG204079 DB	'g', 00H, 'a', 00H, 'm', 00H, 'e', 00H, 'o', 00H, 'v', 00H
	DB	'e', 00H, 'r', 00H, 'l', 00H, 'a', 00H, 'y', 00H, 'r', 00H, 'e'
	DB	00H, 'n', 00H, 'd', 00H, 'e', 00H, 'r', 00H, 'e', 00H, 'r', 00H
	DB	00H, 00H
$SG204083 DB	'G', 00H, 'e', 00H, 'D', 00H, 'o', 00H, 'S', 00H, 'a', 00H
	DB	'T', 00H, 'o', 00H, 00H, 00H
	ORG $+2
$SG204086 DB	'l', 00H, 't', 00H, 'c', 00H, '_', 00H, 'h', 00H, 'e', 00H
	DB	'l', 00H, 'p', 00H, 00H, 00H
	ORG $+2
$SG204110 DB	'l', 00H, 'o', 00H, 'g', 00H, 's', 00H, '/', 00H, 'm', 00H
	DB	'o', 00H, 'd', 00H, 'u', 00H, 'l', 00H, 'e', 00H, 's', 00H, '.'
	DB	00H, 'l', 00H, 'o', 00H, 'g', 00H, 00H, 00H
	ORG $+2
$SG204114 DB	'=', 00H, '=', 00H, '=', 00H, '=', 00H, '=', 00H, '=', 00H
	DB	'=', 00H, '=', 00H, '=', 00H, '=', 00H, '=', 00H, '=', 00H, '='
	DB	00H, '=', 00H, '=', 00H, '=', 00H, '=', 00H, '=', 00H, '=', 00H
	DB	'=', 00H, '=', 00H, '=', 00H, '=', 00H, '=', 00H, '=', 00H, '='
	DB	00H, '=', 00H, '=', 00H, '=', 00H, '=', 00H, '=', 00H, '=', 00H
	DB	'=', 00H, '=', 00H, '=', 00H, '=', 00H, '=', 00H, '=', 00H, '='
	DB	00H, '=', 00H, '=', 00H, '=', 00H, '=', 00H, '=', 00H, '=', 00H
	DB	'=', 00H, '=', 00H, '=', 00H, '=', 00H, '=', 00H, '=', 00H, '='
	DB	00H, '=', 00H, '=', 00H, '=', 00H, '=', 00H, '=', 00H, '=', 00H
	DB	'=', 00H, '=', 00H, '=', 00H, '=', 00H, '=', 00H, '=', 00H, '='
	DB	00H, '=', 00H, ' ', 00H, '(', 00H, 'E', 00H, 'n', 00H, 'd', 00H
	DB	' ', 00H, 'P', 00H, 'r', 00H, 'e', 00H, 'l', 00H, 'o', 00H, 'a'
	DB	00H, 'd', 00H, 's', 00H, ')', 00H, ' ', 00H, '=', 00H, '=', 00H
	DB	'=', 00H, '=', 00H, '=', 00H, '=', 00H, '=', 00H, '=', 00H, '='
	DB	00H, '=', 00H, '=', 00H, '=', 00H, '=', 00H, '=', 00H, '=', 00H
	DB	'=', 00H, '=', 00H, '=', 00H, '=', 00H, '=', 00H, '=', 00H, '='
	DB	00H, '=', 00H, '=', 00H, '=', 00H, '=', 00H, '=', 00H, '=', 00H
	DB	'=', 00H, '=', 00H, '=', 00H, '=', 00H, '=', 00H, '=', 00H, '='
	DB	00H, '=', 00H, '=', 00H, '=', 00H, '=', 00H, '=', 00H, '=', 00H
	DB	'=', 00H, '=', 00H, '=', 00H, '=', 00H, '=', 00H, '=', 00H, '='
	DB	00H, '=', 00H, '=', 00H, '=', 00H, '=', 00H, '=', 00H, '=', 00H
	DB	'=', 00H, '=', 00H, '=', 00H, '=', 00H, '=', 00H, '=', 00H, '='
	DB	00H, '=', 00H, '=', 00H, '=', 00H, '=', 00H, '=', 00H, 0aH, 00H
	DB	0aH, 00H, 00H, 00H
	ORG $+2
$SG204123 DB	'R', 00H, 'T', 00H, 'S', 00H, 'S', 00H, 'H', 00H, 'o', 00H
	DB	'o', 00H, 'k', 00H, 's', 00H, '.', 00H, 'd', 00H, 'l', 00H, 'l'
	DB	00H, 00H, 00H
$SG90461 DB	'a', 00H, 't', 00H, 'l', 00H, 'T', 00H, 'r', 00H, 'a', 00H
	DB	'c', 00H, 'e', 00H, 'S', 00H, 'e', 00H, 'c', 00H, 'u', 00H, 'r'
	DB	00H, 'i', 00H, 't', 00H, 'y', 00H, 00H, 00H
	ORG $+2
$SG204124 DB	'[', 00H, 'R', 00H, 'T', 00H, 'S', 00H, 'S', 00H, 'C', 00H
	DB	'o', 00H, 'm', 00H, 'p', 00H, 'a', 00H, 't', 00H, ']', 00H, ' '
	DB	00H, 'R', 00H, 'T', 00H, 'S', 00H, 'S', 00H, ' ', 00H, 'a', 00H
	DB	'p', 00H, 'p', 00H, 'e', 00H, 'a', 00H, 'r', 00H, 's', 00H, ' '
	DB	00H, 't', 00H, 'o', 00H, ' ', 00H, 'b', 00H, 'e', 00H, ' ', 00H
	DB	'i', 00H, 'n', 00H, ' ', 00H, 'H', 00H, 'i', 00H, 'g', 00H, 'h'
	DB	00H, ' ', 00H, 'A', 00H, 'p', 00H, 'p', 00H, ' ', 00H, 'D', 00H
	DB	'e', 00H, 't', 00H, 'e', 00H, 'c', 00H, 't', 00H, 'i', 00H, 'o'
	DB	00H, 'n', 00H, ' ', 00H, 'o', 00H, 'r', 00H, ' ', 00H, 'S', 00H
	DB	't', 00H, 'e', 00H, 'a', 00H, 'l', 00H, 't', 00H, 'h', 00H, ' '
	DB	00H, 'm', 00H, 'o', 00H, 'd', 00H, 'e', 00H, ',', 00H, ' ', 00H
	DB	'y', 00H, 'o', 00H, 'u', 00H, 'r', 00H, ' ', 00H, 'g', 00H, 'a'
	DB	00H, 'm', 00H, 'e', 00H, ' ', 00H, 'i', 00H, 's', 00H, ' ', 00H
	DB	'p', 00H, 'r', 00H, 'o', 00H, 'b', 00H, 'a', 00H, 'b', 00H, 'l'
	DB	00H, 'y', 00H, ' ', 00H, 'g', 00H, 'o', 00H, 'i', 00H, 'n', 00H
	DB	'g', 00H, ' ', 00H, 't', 00H, 'o', 00H, ' ', 00H, 'c', 00H, 'r'
	DB	00H, 'a', 00H, 's', 00H, 'h', 00H, '.', 00H, 00H, 00H
	ORG $+2
$SG204150 DB	'o', 00H, 'p', 00H, 'e', 00H, 'n', 00H, 00H, 00H
	ORG $+2
$SG200059 DB	'S', 00H, 't', 00H, 'e', 00H, 'a', 00H, 'm', 00H, 'C', 00H
	DB	'l', 00H, 'i', 00H, 'e', 00H, 'n', 00H, 't', 00H, 00H, 00H
$SG200061 DB	'SteamClient', 00H
$SG200063 DB	'S', 00H, 't', 00H, 'e', 00H, 'a', 00H, 'm', 00H, 'N', 00H
	DB	'a', 00H, 't', 00H, 'i', 00H, 'v', 00H, 'e', 00H, '.', 00H, 'd'
	DB	00H, 'l', 00H, 'l', 00H, 00H, 00H
$SG200065 DB	'SteamNative.dll', 00H
$SG200067 DB	's', 00H, 't', 00H, 'e', 00H, 'a', 00H, 'm', 00H, '_', 00H
	DB	'a', 00H, 'p', 00H, 'i', 00H, '.', 00H, 'd', 00H, 'l', 00H, 'l'
	DB	00H, 00H, 00H
$SG200069 DB	'steam_api.dll', 00H
	ORG $+2
$SG200071 DB	's', 00H, 't', 00H, 'e', 00H, 'a', 00H, 'm', 00H, '_', 00H
	DB	'a', 00H, 'p', 00H, 'i', 00H, '.', 00H, 'd', 00H, 'l', 00H, 'l'
	DB	00H, 00H, 00H
$SG200073 DB	'steam_api.dll', 00H
	ORG $+2
$SG90508 DB	'a', 00H, 't', 00H, 'l', 00H, 'T', 00H, 'r', 00H, 'a', 00H
	DB	'c', 00H, 'e', 00H, 'S', 00H, 'y', 00H, 'n', 00H, 'c', 00H, 00H
	DB	00H
	ORG $+2
$SG224674 DB	'[DLL Loader]   ( %-28ws ) loaded ''%#116hs'' <%hs> { ''%'
	DB	'21hs'' }', 00H
	ORG $+3
$SG224675 DB	'[', 00H, 'D', 00H, 'L', 00H, 'L', 00H, ' ', 00H, 'L', 00H
	DB	'o', 00H, 'a', 00H, 'd', 00H, 'e', 00H, 'r', 00H, ']', 00H, ' '
	DB	00H, ' ', 00H, ' ', 00H, '(', 00H, ' ', 00H, '%', 00H, '-', 00H
	DB	'2', 00H, '8', 00H, 'w', 00H, 's', 00H, ' ', 00H, ')', 00H, ' '
	DB	00H, 'l', 00H, 'o', 00H, 'a', 00H, 'd', 00H, 'e', 00H, 'd', 00H
	DB	' ', 00H, '''', 00H, '%', 00H, '#', 00H, '1', 00H, '1', 00H, '6'
	DB	00H, 'w', 00H, 's', 00H, '''', 00H, ' ', 00H, '<', 00H, '%', 00H
	DB	'w', 00H, 's', 00H, '>', 00H, ' ', 00H, '{', 00H, ' ', 00H, ''''
	DB	00H, '%', 00H, '2', 00H, '1', 00H, 'h', 00H, 's', 00H, '''', 00H
	DB	' ', 00H, '}', 00H, 00H, 00H
	ORG $+2
$SG204199 DB	'\', 00H, 'P', 00H, 'r', 00H, 'o', 00H, 'f', 00H, 'i', 00H
	DB	'l', 00H, 'e', 00H, 's', 00H, '\', 00H, 'G', 00H, 'l', 00H, 'o'
	DB	00H, 'b', 00H, 'a', 00H, 'l', 00H, 00H, 00H
	ORG $+2
$SG224680 DB	'A', 00H, 'c', 00H, 't', 00H, 'i', 00H, 'v', 00H, 'a', 00H
	DB	't', 00H, 'i', 00H, 'o', 00H, 'n', 00H, 00H, 00H
	ORG $+2
$SG204200 DB	'H', 00H, 'o', 00H, 'o', 00H, 'k', 00H, 'i', 00H, 'n', 00H
	DB	'g', 00H, 00H, 00H
$SG224681 DB	'r', 00H, 'x', 00H, 'c', 00H, 'o', 00H, 'r', 00H, 'e', 00H
	DB	00H, 00H
	ORG $+2
$SG224682 DB	'G', 00H, 'e', 00H, 'D', 00H, 'o', 00H, 'S', 00H, 'a', 00H
	DB	'T', 00H, 'o', 00H, 00H, 00H
	ORG $+2
$SG224683 DB	'g', 00H, 'a', 00H, 'm', 00H, 'e', 00H, 'o', 00H, 'v', 00H
	DB	'e', 00H, 'r', 00H, 'l', 00H, 'a', 00H, 'y', 00H, 'r', 00H, 'e'
	DB	00H, 'n', 00H, 'd', 00H, 'e', 00H, 'r', 00H, 'e', 00H, 'r', 00H
	DB	00H, 00H
$SG204203 DB	'I', 00H, 'n', 00H, 'j', 00H, 'e', 00H, 'c', 00H, 't', 00H
	DB	'i', 00H, 'o', 00H, 'n', 00H, 'D', 00H, 'e', 00H, 'l', 00H, 'a'
	DB	00H, 'y', 00H, 00H, 00H
	ORG $+2
$SG224684 DB	'R', 00H, 'T', 00H, 'S', 00H, 'S', 00H, 'H', 00H, 'o', 00H
	DB	'o', 00H, 'k', 00H, 's', 00H, 00H, 00H
$SG204204 DB	'1', 00H, '0', 00H, '0', 00H, '0', 00H, '0', 00H, 00H, 00H
$SG224685 DB	'N', 00H, 'a', 00H, 'h', 00H, 'i', 00H, 'm', 00H, 'i', 00H
	DB	'c', 00H, '2', 00H, 'D', 00H, 'e', 00H, 'v', 00H, 'P', 00H, 'r'
	DB	00H, 'o', 00H, 'p', 00H, 's', 00H, 00H, 00H
	ORG $+2
$SG204205 DB	'I', 00H, 'n', 00H, 'j', 00H, 'e', 00H, 'c', 00H, 't', 00H
	DB	'i', 00H, 'o', 00H, 'n', 00H, 'D', 00H, 'e', 00H, 'l', 00H, 'a'
	DB	00H, 'y', 00H, 00H, 00H
	ORG $+2
$SG224686 DB	'R', 00H, 'e', 00H, 'S', 00H, 'h', 00H, 'a', 00H, 'd', 00H
	DB	'e', 00H, 00H, 00H
$SG224687 DB	'A', 00H, 'c', 00H, 't', 00H, 'i', 00H, 'v', 00H, 'a', 00H
	DB	't', 00H, 'i', 00H, 'o', 00H, 'n', 00H, 00H, 00H
	ORG $+2
$SG204207 DB	'I', 00H, 'n', 00H, 'j', 00H, 'e', 00H, 'c', 00H, 't', 00H
	DB	'i', 00H, 'o', 00H, 'n', 00H, 'D', 00H, 'e', 00H, 'l', 00H, 'a'
	DB	00H, 'y', 00H, 00H, 00H
	ORG $+2
$SG204208 DB	'I', 00H, 'n', 00H, 'j', 00H, 'e', 00H, 'c', 00H, 't', 00H
	DB	'i', 00H, 'o', 00H, 'n', 00H, 'D', 00H, 'e', 00H, 'l', 00H, 'a'
	DB	00H, 'y', 00H, 00H, 00H
	ORG $+2
$SG204209 DB	'1', 00H, '0', 00H, '0', 00H, '0', 00H, '0', 00H, 00H, 00H
$SG224692 DB	'd', 00H, '3', 00H, 'd', 00H, '9', 00H, '.', 00H, 'd', 00H
	DB	'l', 00H, 'l', 00H, 00H, 00H
	ORG $+2
$SG204212 DB	'I', 00H, 'n', 00H, 'j', 00H, 'e', 00H, 'c', 00H, 't', 00H
	DB	'i', 00H, 'o', 00H, 'n', 00H, 'D', 00H, 'e', 00H, 'l', 00H, 'a'
	DB	00H, 'y', 00H, 'T', 00H, 'r', 00H, 'i', 00H, 'g', 00H, 'g', 00H
	DB	'e', 00H, 'r', 00H, 's', 00H, 00H, 00H
	ORG $+2
$SG224693 DB	'd3d9.dll', 00H
	ORG $+3
$SG224694 DB	'd', 00H, '3', 00H, 'd', 00H, '9', 00H, '.', 00H, 'd', 00H
	DB	'l', 00H, 'l', 00H, 00H, 00H
	ORG $+2
$SG204213 DB	'S', 00H, 'p', 00H, 'e', 00H, 'c', 00H, 'i', 00H, 'a', 00H
	DB	'l', 00H, 'K', 00H, '3', 00H, '2', 00H, '.', 00H, 'd', 00H, 'l'
	DB	00H, 'l', 00H, ',', 00H, 'd', 00H, '3', 00H, 'd', 00H, '9', 00H
	DB	'.', 00H, 'd', 00H, 'l', 00H, 'l', 00H, ',', 00H, 's', 00H, 't'
	DB	00H, 'e', 00H, 'a', 00H, 'm', 00H, '_', 00H, 'a', 00H, 'p', 00H
	DB	'i', 00H, '.', 00H, 'd', 00H, 'l', 00H, 'l', 00H, ',', 00H, 's'
	DB	00H, 't', 00H, 'e', 00H, 'a', 00H, 'm', 00H, '_', 00H, 'a', 00H
	DB	'p', 00H, 'i', 00H, '6', 00H, '4', 00H, '.', 00H, 'd', 00H, 'l'
	DB	00H, 'l', 00H, ',', 00H, 'd', 00H, 'x', 00H, 'g', 00H, 'i', 00H
	DB	'.', 00H, 'd', 00H, 'l', 00H, 'l', 00H, ',', 00H, 'S', 00H, 'p'
	DB	00H, 'e', 00H, 'c', 00H, 'i', 00H, 'a', 00H, 'l', 00H, 'K', 00H
	DB	'6', 00H, '4', 00H, '.', 00H, 'd', 00H, 'l', 00H, 'l', 00H, 00H
	DB	00H
$SG204214 DB	'I', 00H, 'n', 00H, 'j', 00H, 'e', 00H, 'c', 00H, 't', 00H
	DB	'i', 00H, 'o', 00H, 'n', 00H, 'D', 00H, 'e', 00H, 'l', 00H, 'a'
	DB	00H, 'y', 00H, 'T', 00H, 'r', 00H, 'i', 00H, 'g', 00H, 'g', 00H
	DB	'e', 00H, 'r', 00H, 's', 00H, 00H, 00H
	ORG $+2
$SG224695 DB	'd', 00H, '3', 00H, 'd', 00H, 'x', 00H, '9', 00H, '_', 00H
	DB	00H, 00H
	ORG $+2
$SG204215 DB	'I', 00H, 'n', 00H, 'j', 00H, 'e', 00H, 'c', 00H, 't', 00H
	DB	'i', 00H, 'o', 00H, 'n', 00H, 'D', 00H, 'e', 00H, 'l', 00H, 'a'
	DB	00H, 'y', 00H, 'T', 00H, 'r', 00H, 'i', 00H, 'g', 00H, 'g', 00H
	DB	'e', 00H, 'r', 00H, 's', 00H, 00H, 00H
	ORG $+2
$SG224696 DB	'd3dx9_', 00H
	ORG $+1
$SG204216 DB	'S', 00H, 'p', 00H, 'e', 00H, 'c', 00H, 'i', 00H, 'a', 00H
	DB	'l', 00H, 'K', 00H, '3', 00H, '2', 00H, '.', 00H, 'd', 00H, 'l'
	DB	00H, 'l', 00H, 00H, 00H
	ORG $+2
$SG224697 DB	'd', 00H, '3', 00H, 'd', 00H, 'x', 00H, '9', 00H, '_', 00H
	DB	00H, 00H
	ORG $+2
$SG204217 DB	'd', 00H, '3', 00H, 'd', 00H, '9', 00H, '.', 00H, 'd', 00H
	DB	'l', 00H, 'l', 00H, 00H, 00H
	ORG $+2
$SG224698 DB	'D', 00H, 'i', 00H, 'r', 00H, 'e', 00H, 'c', 00H, 't', 00H
	DB	'3', 00H, 'D', 00H, '9', 00H, 00H, 00H
$SG204218 DB	's', 00H, 't', 00H, 'e', 00H, 'a', 00H, 'm', 00H, '_', 00H
	DB	'a', 00H, 'p', 00H, 'i', 00H, '.', 00H, 'd', 00H, 'l', 00H, 'l'
	DB	00H, 00H, 00H
$SG224699 DB	'Direct3D9', 00H
	ORG $+2
$SG204219 DB	's', 00H, 't', 00H, 'e', 00H, 'a', 00H, 'm', 00H, '_', 00H
	DB	'a', 00H, 'p', 00H, 'i', 00H, '6', 00H, '4', 00H, '.', 00H, 'd'
	DB	00H, 'l', 00H, 'l', 00H, 00H, 00H
$SG90555 DB	'a', 00H, 't', 00H, 'l', 00H, 'T', 00H, 'r', 00H, 'a', 00H
	DB	'c', 00H, 'e', 00H, 'I', 00H, 'S', 00H, 'A', 00H, 'P', 00H, 'I'
	DB	00H, 00H, 00H
$SG224700 DB	'D', 00H, 'i', 00H, 'r', 00H, 'e', 00H, 'c', 00H, 't', 00H
	DB	'3', 00H, 'D', 00H, '9', 00H, 00H, 00H
$SG204220 DB	'd', 00H, 'x', 00H, 'g', 00H, 'i', 00H, '.', 00H, 'd', 00H
	DB	'l', 00H, 'l', 00H, 00H, 00H
	ORG $+2
$SG224701 DB	'n', 00H, 'v', 00H, 'd', 00H, '3', 00H, 'd', 00H, 'u', 00H
	DB	'm', 00H, '.', 00H, 'd', 00H, 'l', 00H, 'l', 00H, 00H, 00H
$SG204221 DB	'S', 00H, 'p', 00H, 'e', 00H, 'c', 00H, 'i', 00H, 'a', 00H
	DB	'l', 00H, 'K', 00H, '6', 00H, '4', 00H, '.', 00H, 'd', 00H, 'l'
	DB	00H, 'l', 00H, 00H, 00H
	ORG $+2
$SG224702 DB	'nvd3dum.dll', 00H
$SG224703 DB	'n', 00H, 'v', 00H, 'd', 00H, '3', 00H, 'd', 00H, 'u', 00H
	DB	'm', 00H, '.', 00H, 'd', 00H, 'l', 00H, 'l', 00H, 00H, 00H
$SG204223 DB	',', 00H, 00H, 00H
$SG224707 DB	'd', 00H, '3', 00H, 'd', 00H, '8', 00H, '.', 00H, 'd', 00H
	DB	'l', 00H, 'l', 00H, 00H, 00H
	ORG $+2
$SG89539 DB	'a', 00H, 't', 00H, 'l', 00H, 'T', 00H, 'r', 00H, 'a', 00H
	DB	'c', 00H, 'e', 00H, 'G', 00H, 'e', 00H, 'n', 00H, 'e', 00H, 'r'
	DB	00H, 'a', 00H, 'l', 00H, 00H, 00H
$SG224708 DB	'd3d8.dll', 00H
	ORG $+3
$SG204228 DB	'S', 00H, 'p', 00H, 'e', 00H, 'c', 00H, 'i', 00H, 'a', 00H
	DB	'l', 00H, ' ', 00H, 'K', 00H, ' ', 00H, 'C', 00H, 'o', 00H, 'm'
	DB	00H, 'p', 00H, 'a', 00H, 't', 00H, 'i', 00H, 'b', 00H, 'i', 00H
	DB	'l', 00H, 'i', 00H, 't', 00H, 'y', 00H, ' ', 00H, 'L', 00H, 'a'
	DB	00H, 'y', 00H, 'e', 00H, 'r', 00H, ' ', 00H, '(', 00H, 'v', 00H
	DB	' ', 00H, '0', 00H, '.', 00H, '8', 00H, '.', 00H, '5', 00H, '3'
	DB	00H, '.', 00H, '2', 00H, ')', 00H, 00H, 00H
	ORG $+2
$SG224709 DB	'd', 00H, '3', 00H, 'd', 00H, '8', 00H, '.', 00H, 'd', 00H
	DB	'l', 00H, 'l', 00H, 00H, 00H
	ORG $+2
$SG224713 DB	'd', 00H, 'd', 00H, 'r', 00H, 'a', 00H, 'w', 00H, '.', 00H
	DB	'd', 00H, 'l', 00H, 'l', 00H, 00H, 00H
$SG204229 DB	'R', 00H, 'i', 00H, 'v', 00H, 'a', 00H, 'T', 00H, 'u', 00H
	DB	'n', 00H, 'e', 00H, 'r', 00H, ' ', 00H, 'S', 00H, 't', 00H, 'a'
	DB	00H, 't', 00H, 'i', 00H, 's', 00H, 't', 00H, 'i', 00H, 'c', 00H
	DB	's', 00H, ' ', 00H, 'S', 00H, 'e', 00H, 'r', 00H, 'v', 00H, 'e'
	DB	00H, 'r', 00H, ' ', 00H, 'I', 00H, 'n', 00H, 'c', 00H, 'o', 00H
	DB	'm', 00H, 'p', 00H, 'a', 00H, 't', 00H, 'i', 00H, 'b', 00H, 'i'
	DB	00H, 'l', 00H, 'i', 00H, 't', 00H, 'y', 00H, 00H, 00H
$SG204232 DB	'R', 00H, 'i', 00H, 'v', 00H, 'a', 00H, 'T', 00H, 'u', 00H
	DB	'n', 00H, 'e', 00H, 'r', 00H, ' ', 00H, 'S', 00H, 't', 00H, 'a'
	DB	00H, 't', 00H, 'i', 00H, 's', 00H, 't', 00H, 'i', 00H, 'c', 00H
	DB	's', 00H, ' ', 00H, 'S', 00H, 'e', 00H, 'r', 00H, 'v', 00H, 'e'
	DB	00H, 'r', 00H, ' ', 00H, 'r', 00H, 'e', 00H, 'q', 00H, 'u', 00H
	DB	'i', 00H, 'r', 00H, 'e', 00H, 's', 00H, ' ', 00H, 'a', 00H, ' '
	DB	00H, '1', 00H, '0', 00H, ' ', 00H, 's', 00H, 'e', 00H, 'c', 00H
	DB	'o', 00H, 'n', 00H, 'd', 00H, ' ', 00H, 'i', 00H, 'n', 00H, 'j'
	DB	00H, 'e', 00H, 'c', 00H, 't', 00H, 'i', 00H, 'o', 00H, 'n', 00H
	DB	' ', 00H, 'd', 00H, 'e', 00H, 'l', 00H, 'a', 00H, 'y', 00H, ' '
	DB	00H, 't', 00H, 'o', 00H, ' ', 00H, 'w', 00H, 'o', 00H, 'r', 00H
	DB	'k', 00H, 'a', 00H, 'r', 00H, 'o', 00H, 'u', 00H, 'n', 00H, 'd'
	DB	00H, ' ', 00H, 'c', 00H, 'o', 00H, 'm', 00H, 'p', 00H, 'a', 00H
	DB	't', 00H, 'i', 00H, 'b', 00H, 'i', 00H, 'l', 00H, 'i', 00H, 't'
	DB	00H, 'y', 00H, ' ', 00H, 'i', 00H, 's', 00H, 's', 00H, 'u', 00H
	DB	'e', 00H, 's', 00H, '.', 00H, 00H, 00H
	ORG $+2
$SG224714 DB	'ddraw.dll', 00H
	ORG $+2
$SG204233 DB	'T', 00H, 'h', 00H, 'i', 00H, 's', 00H, ' ', 00H, 'c', 00H
	DB	'a', 00H, 'n', 00H, ' ', 00H, 'b', 00H, 'e', 00H, ' ', 00H, 'f'
	DB	00H, 'i', 00H, 'x', 00H, 'e', 00H, 'd', 00H, ' ', 00H, 'b', 00H
	DB	'y', 00H, ' ', 00H, 's', 00H, 't', 00H, 'a', 00H, 'r', 00H, 't'
	DB	00H, 'i', 00H, 'n', 00H, 'g', 00H, ' ', 00H, 't', 00H, 'h', 00H
	DB	'e', 00H, ' ', 00H, 'g', 00H, 'a', 00H, 'm', 00H, 'e', 00H, ' '
	DB	00H, 'a', 00H, 's', 00H, ' ', 00H, 'A', 00H, 'd', 00H, 'm', 00H
	DB	'i', 00H, 'n', 00H, ' ', 00H, 'o', 00H, 'n', 00H, 'c', 00H, 'e'
	DB	00H, '.', 00H, 00H, 00H
$SG224715 DB	'd', 00H, 'd', 00H, 'r', 00H, 'a', 00H, 'w', 00H, '.', 00H
	DB	'd', 00H, 'l', 00H, 'l', 00H, 00H, 00H
$SG204234 DB	'C', 00H, 'h', 00H, 'e', 00H, 'c', 00H, 'k', 00H, ' ', 00H
	DB	'h', 00H, 'e', 00H, 'r', 00H, 'e', 00H, ' ', 00H, 'i', 00H, 'f'
	DB	00H, ' ', 00H, 'y', 00H, 'o', 00H, 'u', 00H, ' ', 00H, 'd', 00H
	DB	'o', 00H, ' ', 00H, 'n', 00H, 'o', 00H, 't', 00H, ' ', 00H, 'c'
	DB	00H, 'a', 00H, 'r', 00H, 'e', 00H, ' ', 00H, '(', 00H, 'r', 00H
	DB	'i', 00H, 's', 00H, 'k', 00H, 'y', 00H, ')', 00H, '.', 00H, 00H
	DB	00H
	ORG $+2
$SG204237 DB	'R', 00H, 'i', 00H, 'v', 00H, 'a', 00H, 'T', 00H, 'u', 00H
	DB	'n', 00H, 'e', 00H, 'r', 00H, ' ', 00H, 'S', 00H, 't', 00H, 'a'
	DB	00H, 't', 00H, 'i', 00H, 's', 00H, 't', 00H, 'i', 00H, 'c', 00H
	DB	's', 00H, ' ', 00H, 'S', 00H, 'e', 00H, 'r', 00H, 'v', 00H, 'e'
	DB	00H, 'r', 00H, ' ', 00H, 'r', 00H, 'e', 00H, 'q', 00H, 'u', 00H
	DB	'i', 00H, 'r', 00H, 'e', 00H, 's', 00H, ' ', 00H, 'a', 00H, ' '
	DB	00H, '1', 00H, '0', 00H, ' ', 00H, 's', 00H, 'e', 00H, 'c', 00H
	DB	'o', 00H, 'n', 00H, 'd', 00H, ' ', 00H, 'i', 00H, 'n', 00H, 'j'
	DB	00H, 'e', 00H, 'c', 00H, 't', 00H, 'i', 00H, 'o', 00H, 'n', 00H
	DB	' ', 00H, 'd', 00H, 'e', 00H, 'l', 00H, 'a', 00H, 'y', 00H, ' '
	DB	00H, 't', 00H, 'o', 00H, ' ', 00H, 'w', 00H, 'o', 00H, 'r', 00H
	DB	'k', 00H, 'a', 00H, 'r', 00H, 'o', 00H, 'u', 00H, 'n', 00H, 'd'
	DB	00H, ' ', 00H, 'c', 00H, 'o', 00H, 'm', 00H, 'p', 00H, 'a', 00H
	DB	't', 00H, 'i', 00H, 'b', 00H, 'i', 00H, 'l', 00H, 'i', 00H, 't'
	DB	00H, 'y', 00H, ' ', 00H, 'i', 00H, 's', 00H, 's', 00H, 'u', 00H
	DB	'e', 00H, 's', 00H, '.', 00H, 00H, 00H
	ORG $+2
$SG204238 DB	'H', 00H, 'o', 00H, 'o', 00H, 'k', 00H, 'i', 00H, 'n', 00H
	DB	'g', 00H, 00H, 00H
$SG224719 DB	'd', 00H, '3', 00H, 'd', 00H, '1', 00H, '1', 00H, '.', 00H
	DB	'd', 00H, 'l', 00H, 'l', 00H, 00H, 00H
$SG204239 DB	'I', 00H, 'n', 00H, 'j', 00H, 'e', 00H, 'c', 00H, 't', 00H
	DB	'i', 00H, 'o', 00H, 'n', 00H, 'D', 00H, 'e', 00H, 'l', 00H, 'a'
	DB	00H, 'y', 00H, 'T', 00H, 'r', 00H, 'i', 00H, 'g', 00H, 'g', 00H
	DB	'e', 00H, 'r', 00H, 's', 00H, 00H, 00H
	ORG $+2
$SG224720 DB	'd3d11.dll', 00H
	ORG $+2
$SG204240 DB	'H', 00H, 'o', 00H, 'o', 00H, 'k', 00H, 'i', 00H, 'n', 00H
	DB	'g', 00H, 00H, 00H
$SG224721 DB	'd', 00H, '3', 00H, 'd', 00H, '1', 00H, '1', 00H, '.', 00H
	DB	'd', 00H, 'l', 00H, 'l', 00H, 00H, 00H
$SG204241 DB	'I', 00H, 'n', 00H, 'j', 00H, 'e', 00H, 'c', 00H, 't', 00H
	DB	'i', 00H, 'o', 00H, 'n', 00H, 'D', 00H, 'e', 00H, 'l', 00H, 'a'
	DB	00H, 'y', 00H, 00H, 00H
	ORG $+2
$SG204242 DB	0dH, 00H, 0aH, 00H, 0dH, 00H, 0aH, 00H, 'P', 00H, 'r', 00H
	DB	'o', 00H, 'p', 00H, 'o', 00H, 's', 00H, 'e', 00H, 'd', 00H, ' '
	DB	00H, 'C', 00H, 'h', 00H, 'a', 00H, 'n', 00H, 'g', 00H, 'e', 00H
	DB	's', 00H, 0dH, 00H, 0aH, 00H, 0dH, 00H, 0aH, 00H, '<', 00H, 'A'
	DB	00H, ' ', 00H, 'H', 00H, 'R', 00H, 'E', 00H, 'F', 00H, '=', 00H
	DB	'"', 00H, '%', 00H, 's', 00H, '"', 00H, '>', 00H, '%', 00H, 's'
	DB	00H, '<', 00H, '/', 00H, 'A', 00H, '>', 00H, 0dH, 00H, 0aH, 00H
	DB	0dH, 00H, 0aH, 00H, '[', 00H, 'H', 00H, 'o', 00H, 'o', 00H, 'k'
	DB	00H, 'i', 00H, 'n', 00H, 'g', 00H, ']', 00H, 0dH, 00H, 0aH, 00H
	DB	'I', 00H, 'n', 00H, 'j', 00H, 'e', 00H, 'c', 00H, 't', 00H, 'i'
	DB	00H, 'o', 00H, 'n', 00H, 'D', 00H, 'e', 00H, 'l', 00H, 'a', 00H
	DB	'y', 00H, '=', 00H, '%', 00H, 's', 00H, 0dH, 00H, 0aH, 00H, 'I'
	DB	00H, 'n', 00H, 'j', 00H, 'e', 00H, 'c', 00H, 't', 00H, 'i', 00H
	DB	'o', 00H, 'n', 00H, 'D', 00H, 'e', 00H, 'l', 00H, 'a', 00H, 'y'
	DB	00H, 'T', 00H, 'r', 00H, 'i', 00H, 'g', 00H, 'g', 00H, 'e', 00H
	DB	'r', 00H, 's', 00H, '=', 00H, '%', 00H, 's', 00H, 00H, 00H
	ORG $+2
$SG204243 DB	'A', 00H, 'p', 00H, 'p', 00H, 'l', 00H, 'y', 00H, ' ', 00H
	DB	'P', 00H, 'r', 00H, 'o', 00H, 'p', 00H, 'o', 00H, 's', 00H, 'e'
	DB	00H, 'd', 00H, ' ', 00H, 'C', 00H, 'o', 00H, 'n', 00H, 'f', 00H
	DB	'i', 00H, 'g', 00H, ' ', 00H, 'C', 00H, 'h', 00H, 'a', 00H, 'n'
	DB	00H, 'g', 00H, 'e', 00H, 's', 00H, '?', 00H, 00H, 00H
	ORG $+2
$SG224725 DB	'O', 00H, 'p', 00H, 'e', 00H, 'n', 00H, 'G', 00H, 'L', 00H
	DB	'3', 00H, '2', 00H, '.', 00H, 'd', 00H, 'l', 00H, 'l', 00H, 00H
	DB	00H
	ORG $+2
$SG204245 DB	'H', 00H, 'o', 00H, 'o', 00H, 'k', 00H, 'i', 00H, 'n', 00H
	DB	'g', 00H, 00H, 00H
$SG224726 DB	'OpenGL32.dll', 00H
	ORG $+3
$SG204246 DB	'I', 00H, 'n', 00H, 'j', 00H, 'e', 00H, 'c', 00H, 't', 00H
	DB	'i', 00H, 'o', 00H, 'n', 00H, 'D', 00H, 'e', 00H, 'l', 00H, 'a'
	DB	00H, 'y', 00H, 'T', 00H, 'r', 00H, 'i', 00H, 'g', 00H, 'g', 00H
	DB	'e', 00H, 'r', 00H, 's', 00H, 00H, 00H
	ORG $+2
$SG224727 DB	'O', 00H, 'p', 00H, 'e', 00H, 'n', 00H, 'G', 00H, 'L', 00H
	DB	'3', 00H, '2', 00H, '.', 00H, 'd', 00H, 'l', 00H, 'l', 00H, 00H
	DB	00H
	ORG $+2
$SG204247 DB	'H', 00H, 'o', 00H, 'o', 00H, 'k', 00H, 'i', 00H, 'n', 00H
	DB	'g', 00H, 00H, 00H
$SG204248 DB	'I', 00H, 'n', 00H, 'j', 00H, 'e', 00H, 'c', 00H, 't', 00H
	DB	'i', 00H, 'o', 00H, 'n', 00H, 'D', 00H, 'e', 00H, 'l', 00H, 'a'
	DB	00H, 'y', 00H, 00H, 00H
	ORG $+2
$SG204249 DB	'[', 00H, 'R', 00H, 'T', 00H, 'S', 00H, 'S', 00H, 'C', 00H
	DB	'o', 00H, 'm', 00H, 'p', 00H, 'a', 00H, 't', 00H, ']', 00H, ' '
	DB	00H, 'N', 00H, 'E', 00H, 'W', 00H, ' ', 00H, 'G', 00H, 'l', 00H
	DB	'o', 00H, 'b', 00H, 'a', 00H, 'l', 00H, ' ', 00H, 'P', 00H, 'r'
	DB	00H, 'o', 00H, 'f', 00H, 'i', 00H, 'l', 00H, 'e', 00H, ':', 00H
	DB	' ', 00H, ' ', 00H, 'I', 00H, 'n', 00H, 'j', 00H, 'e', 00H, 'c'
	DB	00H, 't', 00H, 'D', 00H, 'e', 00H, 'l', 00H, 'a', 00H, 'y', 00H
	DB	'=', 00H, '%', 00H, 's', 00H, ',', 00H, ' ', 00H, ' ', 00H, 'D'
	DB	00H, 'e', 00H, 'l', 00H, 'a', 00H, 'y', 00H, 'T', 00H, 'r', 00H
	DB	'i', 00H, 'g', 00H, 'g', 00H, 'e', 00H, 'r', 00H, 's', 00H, '='
	DB	00H, '%', 00H, 's', 00H, 00H, 00H
$SG224730 DB	'x', 00H, 'i', 00H, 'n', 00H, 'p', 00H, 'u', 00H, 't', 00H
	DB	'1', 00H, '_', 00H, '3', 00H, '.', 00H, 'd', 00H, 'l', 00H, 'l'
	DB	00H, 00H, 00H
$SG224731 DB	'xinput1_3.dll', 00H
	ORG $+2
$SG224734 DB	'x', 00H, 'i', 00H, 'n', 00H, 'p', 00H, 'u', 00H, 't', 00H
	DB	'1', 00H, '_', 00H, '4', 00H, '.', 00H, 'd', 00H, 'l', 00H, 'l'
	DB	00H, 00H, 00H
$SG224735 DB	'xinput1_4.dll', 00H
	ORG $+2
$SG229856 DB	'O', 00H, 'p', 00H, 'e', 00H, 'n', 00H, 'C', 00H, 'L', 00H
	DB	00H, 00H
	ORG $+2
$SG229857 DB	'OpenCL', 00H
	ORG $+1
$SG229858 DB	'C', 00H, 'E', 00H, 'G', 00H, 'U', 00H, 'I', 00H, 00H, 00H
$SG224738 DB	'x', 00H, 'i', 00H, 'n', 00H, 'p', 00H, 'u', 00H, 't', 00H
	DB	'9', 00H, '_', 00H, '1', 00H, '_', 00H, '0', 00H, '.', 00H, 'd'
	DB	00H, 'l', 00H, 'l', 00H, 00H, 00H
$SG229859 DB	'CEGUI', 00H
	ORG $+2
$SG224739 DB	'xinput9_1_0.dll', 00H
$SG229860 DB	'p', 00H, 'e', 00H, 'r', 00H, 'f', 00H, 'o', 00H, 's', 00H
	DB	00H, 00H
	ORG $+2
$SG229861 DB	'perfos', 00H
	ORG $+1
$SG229862 DB	'a', 00H, 'v', 00H, 'r', 00H, 't', 00H, 00H, 00H
	ORG $+2
$SG224742 DB	'd', 00H, 'i', 00H, 'n', 00H, 'p', 00H, 'u', 00H, 't', 00H
	DB	'8', 00H, '.', 00H, 'd', 00H, 'l', 00H, 'l', 00H, 00H, 00H
$SG229863 DB	'avrt', 00H
	ORG $+3
$SG224743 DB	'dinput8.dll', 00H
$SG229864 DB	'A', 00H, 'U', 00H, 'D', 00H, 'I', 00H, 'O', 00H, 'S', 00H
	DB	'E', 00H, 'S', 00H, 00H, 00H
	ORG $+2
$SG229865 DB	'AUDIOSES', 00H
	ORG $+3
$SG224745 DB	'h', 00H, 'i', 00H, 'd', 00H, '.', 00H, 'd', 00H, 'l', 00H
	DB	'l', 00H, 00H, 00H
$SG229867 DB	'HID', 00H
$SG204265 DB	'S', 00H, 'p', 00H, 'e', 00H, 'c', 00H, 'i', 00H, 'a', 00H
	DB	'l', 00H, ' ', 00H, 'K', 00H, ' ', 00H, 'C', 00H, 'o', 00H, 'm'
	DB	00H, 'p', 00H, 'a', 00H, 't', 00H, 'i', 00H, 'b', 00H, 'i', 00H
	DB	'l', 00H, 'i', 00H, 't', 00H, 'y', 00H, ' ', 00H, 'L', 00H, 'a'
	DB	00H, 'y', 00H, 'e', 00H, 'r', 00H, ' ', 00H, '(', 00H, 'v', 00H
	DB	' ', 00H, '0', 00H, '.', 00H, '8', 00H, '.', 00H, '5', 00H, '3'
	DB	00H, '.', 00H, '2', 00H, ')', 00H, 00H, 00H
	ORG $+2
$SG229866 DB	'H', 00H, 'I', 00H, 'D', 00H, 00H, 00H
$SG224746 DB	'hid.dll', 00H
$SG200171 DB	'N', 00H, 'v', 00H, 'C', 00H, 'a', 00H, 'm', 00H, 'e', 00H
	DB	'r', 00H, 'a', 00H, '6', 00H, '4', 00H, '.', 00H, 'd', 00H, 'l'
	DB	00H, 'l', 00H, 00H, 00H
	ORG $+2
$SG229868 DB	'd', 00H, '3', 00H, 'd', 00H, 'x', 00H, '1', 00H, '1', 00H
	DB	'_', 00H, '4', 00H, '3', 00H, 00H, 00H
$SG229869 DB	'd3dx11_43', 00H
	ORG $+2
$SG229870 DB	'd', 00H, '3', 00H, 'd', 00H, 'x', 00H, '9', 00H, '_', 00H
	DB	'4', 00H, '3', 00H, 00H, 00H
	ORG $+2
$SG229871 DB	'd3dx9_43', 00H
	ORG $+3
$SG200175 DB	's', 00H, 't', 00H, 'e', 00H, 'a', 00H, 'm', 00H, 00H, 00H
$SG229872 DB	's', 00H, 't', 00H, 'e', 00H, 'a', 00H, 'm', 00H, '_', 00H
	DB	'a', 00H, 'p', 00H, 'i', 00H, 00H, 00H
$SG229873 DB	'steam_api', 00H
	ORG $+2
$SG229874 DB	'n', 00H, 'v', 00H, 'a', 00H, 'p', 00H, 'i', 00H, 00H, 00H
$SG200178 DB	's', 00H, 't', 00H, 'e', 00H, 'a', 00H, 'm', 00H, 00H, 00H
$SG229875 DB	'nvapi', 00H
	ORG $+2
$SG229876 DB	'd', 00H, '3', 00H, 'd', 00H, 'c', 00H, 'o', 00H, 'm', 00H
	DB	'p', 00H, 'i', 00H, 'l', 00H, 'e', 00H, 'r', 00H, '_', 00H, 00H
	DB	00H
	ORG $+2
$SG200180 DB	'[', 00H, 'D', 00H, 'L', 00H, 'L', 00H, ' ', 00H, 'L', 00H
	DB	'o', 00H, 'a', 00H, 'd', 00H, 'e', 00H, 'r', 00H, ']', 00H, ' '
	DB	00H, ' ', 00H, ' ', 00H, '(', 00H, ' ', 00H, '%', 00H, '-', 00H
	DB	'2', 00H, '8', 00H, 'l', 00H, 's', 00H, ' ', 00H, ')', 00H, ' '
	DB	00H, 'f', 00H, 'r', 00H, 'e', 00H, 'e', 00H, 'd', 00H, ' ', 00H
	DB	' ', 00H, '''', 00H, '%', 00H, '#', 00H, '6', 00H, '4', 00H, 'l'
	DB	00H, 's', 00H, '''', 00H, ' ', 00H, 'f', 00H, 'r', 00H, 'o', 00H
	DB	'm', 00H, ' ', 00H, '{', 00H, ' ', 00H, '''', 00H, '%', 00H, 'h'
	DB	00H, 's', 00H, '''', 00H, ' ', 00H, '}', 00H, 00H, 00H
	ORG $+2
$SG229877 DB	'd3dcompiler_', 00H
	ORG $+3
$SG89610 DB	'a', 00H, 't', 00H, 'l', 00H, 'T', 00H, 'r', 00H, 'a', 00H
	DB	'c', 00H, 'e', 00H, 'C', 00H, 'O', 00H, 'M', 00H, 00H, 00H
$SG103000 DB	'S', 00H, 00H, 00H
$SG204284 DB	'S', 00H, 'p', 00H, 'e', 00H, 'c', 00H, 'i', 00H, 'a', 00H
	DB	'l', 00H, ' ', 00H, 'K', 00H, ' ', 00H, 'C', 00H, 'o', 00H, 'm'
	DB	00H, 'p', 00H, 'a', 00H, 't', 00H, 'i', 00H, 'b', 00H, 'i', 00H
	DB	'l', 00H, 'i', 00H, 't', 00H, 'y', 00H, ' ', 00H, 'L', 00H, 'a'
	DB	00H, 'y', 00H, 'e', 00H, 'r', 00H, ' ', 00H, '(', 00H, 'v', 00H
	DB	' ', 00H, '0', 00H, '.', 00H, '8', 00H, '.', 00H, '5', 00H, '3'
	DB	00H, '.', 00H, '2', 00H, ')', 00H, 00H, 00H
	ORG $+2
$SG200208 DB	'[', 00H, 'D', 00H, 'L', 00H, 'L', 00H, ' ', 00H, 'L', 00H
	DB	'o', 00H, 'a', 00H, 'd', 00H, 'e', 00H, 'r', 00H, ']', 00H, ' '
	DB	00H, ' ', 00H, '*', 00H, '*', 00H, ' ', 00H, 'C', 00H, 'r', 00H
	DB	'a', 00H, 's', 00H, 'h', 00H, ' ', 00H, 'P', 00H, 'r', 00H, 'e'
	DB	00H, 'v', 00H, 'e', 00H, 'n', 00H, 't', 00H, 'e', 00H, 'd', 00H
	DB	' ', 00H, '*', 00H, '*', 00H, ' ', 00H, ' ', 00H, 'D', 00H, 'L'
	DB	00H, 'L', 00H, ' ', 00H, 'r', 00H, 'a', 00H, 'i', 00H, 's', 00H
	DB	'e', 00H, 'd', 00H, ' ', 00H, 'a', 00H, 'n', 00H, ' ', 00H, 'e'
	DB	00H, 'x', 00H, 'c', 00H, 'e', 00H, 'p', 00H, 't', 00H, 'i', 00H
	DB	'o', 00H, 'n', 00H, ' ', 00H, 'd', 00H, 'u', 00H, 'r', 00H, 'i'
	DB	00H, 'n', 00H, 'g', 00H, ' ', 00H, 'L', 00H, 'o', 00H, 'a', 00H
	DB	'd', 00H, 'L', 00H, 'i', 00H, 'b', 00H, 'r', 00H, 'a', 00H, 'r'
	DB	00H, 'y', 00H, 'A', 00H, ' ', 00H, '(', 00H, '''', 00H, '%', 00H
	DB	'h', 00H, 's', 00H, '''', 00H, ')', 00H, '!', 00H, 00H, 00H
$SG200210 DB	' LoadLibraryA ', 00H
	ORG $+1
$SG200254 DB	'L', 00H, 'o', 00H, 'a', 00H, 'd', 00H, 'P', 00H, 'a', 00H
	DB	'c', 00H, 'k', 00H, 'a', 00H, 'g', 00H, 'e', 00H, 'd', 00H, 'L'
	DB	00H, 'i', 00H, 'b', 00H, 'r', 00H, 'a', 00H, 'r', 00H, 'y', 00H
	DB	00H, 00H
$SG103002 DB	'M', 00H, 00H, 00H
$SG204312 DB	'D', 00H, 'i', 00H, 's', 00H, 'a', 00H, 'b', 00H, 'l', 00H
	DB	'e', 00H, ' ', 00H, 'R', 00H, 'a', 00H, 'p', 00H, 't', 00H, 'r'
	DB	00H, ' ', 00H, '/', 00H, ' ', 00H, 'P', 00H, 'l', 00H, 'a', 00H
	DB	'y', 00H, 's', 00H, '.', 00H, 'T', 00H, 'V', 00H, 0aH, 00H, 0aH
	DB	00H, 'S', 00H, 'p', 00H, 'e', 00H, 'c', 00H, 'i', 00H, 'a', 00H
	DB	'l', 00H, ' ', 00H, 'K', 00H, ' ', 00H, 'w', 00H, 'i', 00H, 'l'
	DB	00H, 'l', 00H, ' ', 00H, 'd', 00H, 'i', 00H, 's', 00H, 'a', 00H
	DB	'b', 00H, 'l', 00H, 'e', 00H, ' ', 00H, 'i', 00H, 't', 00H, ' '
	DB	00H, '(', 00H, 'f', 00H, 'o', 00H, 'r', 00H, ' ', 00H, 't', 00H
	DB	'h', 00H, 'i', 00H, 's', 00H, ' ', 00H, 'g', 00H, 'a', 00H, 'm'
	DB	00H, 'e', 00H, ')', 00H, '.', 00H, 00H, 00H
	ORG $+2
$SG200276 DB	'LoadLibraryExA', 00H
	ORG $+1
$SG103004 DB	'D', 00H, 00H, 00H
$SG204313 DB	'C', 00H, 'h', 00H, 'e', 00H, 'c', 00H, 'k', 00H, ' ', 00H
	DB	'h', 00H, 'e', 00H, 'r', 00H, 'e', 00H, ' ', 00H, 't', 00H, 'o'
	DB	00H, ' ', 00H, 'i', 00H, 'g', 00H, 'n', 00H, 'o', 00H, 'r', 00H
	DB	'e', 00H, ' ', 00H, 't', 00H, 'h', 00H, 'i', 00H, 's', 00H, ' '
	DB	00H, 'w', 00H, 'a', 00H, 'r', 00H, 'n', 00H, 'i', 00H, 'n', 00H
	DB	'g', 00H, ' ', 00H, 'i', 00H, 'n', 00H, ' ', 00H, 't', 00H, 'h'
	DB	00H, 'e', 00H, ' ', 00H, 'f', 00H, 'u', 00H, 't', 00H, 'u', 00H
	DB	'r', 00H, 'e', 00H, '.', 00H, 00H, 00H
	ORG $+2
$SG103006 DB	'B', 00H, 00H, 00H
$SG204314 DB	'I', 00H, 'n', 00H, ' ', 00H, 's', 00H, 'o', 00H, 'm', 00H
	DB	'e', 00H, ' ', 00H, 's', 00H, 'o', 00H, 'f', 00H, 't', 00H, 'w'
	DB	00H, 'a', 00H, 'r', 00H, 'e', 00H, ' ', 00H, 'y', 00H, 'o', 00H
	DB	'u', 00H, ' ', 00H, 'c', 00H, 'a', 00H, 'n', 00H, ' ', 00H, 'e'
	DB	00H, 'x', 00H, 'p', 00H, 'e', 00H, 'c', 00H, 't', 00H, ' ', 00H
	DB	'w', 00H, 'e', 00H, 'i', 00H, 'r', 00H, 'd', 00H, ' ', 00H, 't'
	DB	00H, 'h', 00H, 'i', 00H, 'n', 00H, 'g', 00H, 's', 00H, ' ', 00H
	DB	't', 00H, 'o', 00H, ' ', 00H, 'h', 00H, 'a', 00H, 'p', 00H, 'p'
	DB	00H, 'e', 00H, 'n', 00H, ',', 00H, ' ', 00H, 'i', 00H, 'n', 00H
	DB	'c', 00H, 'l', 00H, 'u', 00H, 'd', 00H, 'i', 00H, 'n', 00H, 'g'
	DB	00H, ' ', 00H, 't', 00H, 'h', 00H, 'e', 00H, ' ', 00H, 'g', 00H
	DB	'a', 00H, 'm', 00H, 'e', 00H, ' ', 00H, 'm', 00H, 'y', 00H, 's'
	DB	00H, 't', 00H, 'e', 00H, 'r', 00H, 'i', 00H, 'o', 00H, 'u', 00H
	DB	's', 00H, 'l', 00H, 'y', 00H, ' ', 00H, 'd', 00H, 'i', 00H, 's'
	DB	00H, 'a', 00H, 'p', 00H, 'p', 00H, 'e', 00H, 'a', 00H, 'r', 00H
	DB	'i', 00H, 'n', 00H, 'g', 00H, '.', 00H, 0aH, 00H, 0aH, 00H, 'I'
	DB	00H, 'f', 00H, ' ', 00H, 't', 00H, 'h', 00H, 'e', 00H, ' ', 00H
	DB	'g', 00H, 'a', 00H, 'm', 00H, 'e', 00H, ' ', 00H, 'b', 00H, 'e'
	DB	00H, 'h', 00H, 'a', 00H, 'v', 00H, 'e', 00H, 's', 00H, ' ', 00H
	DB	's', 00H, 't', 00H, 'r', 00H, 'a', 00H, 'n', 00H, 'g', 00H, 'e'
	DB	00H, 'l', 00H, 'y', 00H, ',', 00H, ' ', 00H, 'y', 00H, 'o', 00H
	DB	'u', 00H, ' ', 00H, 'm', 00H, 'a', 00H, 'y', 00H, ' ', 00H, 'n'
	DB	00H, 'e', 00H, 'e', 00H, 'd', 00H, ' ', 00H, 't', 00H, 'o', 00H
	DB	' ', 00H, 'd', 00H, 'i', 00H, 's', 00H, 'a', 00H, 'b', 00H, 'l'
	DB	00H, 'e', 00H, ' ', 00H, 'i', 00H, 't', 00H, '.', 00H, 00H, 00H
$SG103012 DB	'N', 00H, 'o', 00H, 'R', 00H, 'e', 00H, 'm', 00H, 'o', 00H
	DB	'v', 00H, 'e', 00H, 00H, 00H
	ORG $+2
$SG204315 DB	'A', 00H, 'M', 00H, 'D', 00H, ' ', 00H, 'G', 00H, 'a', 00H
	DB	'm', 00H, 'i', 00H, 'n', 00H, 'g', 00H, ' ', 00H, 'E', 00H, 'v'
	DB	00H, 'o', 00H, 'l', 00H, 'v', 00H, 'e', 00H, 'd', 00H, ' ', 00H
	DB	'o', 00H, 'r', 00H, ' ', 00H, 'R', 00H, 'a', 00H, 'p', 00H, 't'
	DB	00H, 'r', 00H, ' ', 00H, 'i', 00H, 's', 00H, ' ', 00H, 'r', 00H
	DB	'u', 00H, 'n', 00H, 'n', 00H, 'i', 00H, 'n', 00H, 'g', 00H, 00H
	DB	00H
	ORG $+2
$SG200236 DB	'[', 00H, 'D', 00H, 'L', 00H, 'L', 00H, ' ', 00H, 'L', 00H
	DB	'o', 00H, 'a', 00H, 'd', 00H, 'e', 00H, 'r', 00H, ']', 00H, ' '
	DB	00H, ' ', 00H, '*', 00H, '*', 00H, ' ', 00H, 'C', 00H, 'r', 00H
	DB	'a', 00H, 's', 00H, 'h', 00H, ' ', 00H, 'P', 00H, 'r', 00H, 'e'
	DB	00H, 'v', 00H, 'e', 00H, 'n', 00H, 't', 00H, 'e', 00H, 'd', 00H
	DB	' ', 00H, '*', 00H, '*', 00H, ' ', 00H, ' ', 00H, 'D', 00H, 'L'
	DB	00H, 'L', 00H, ' ', 00H, 'r', 00H, 'a', 00H, 'i', 00H, 's', 00H
	DB	'e', 00H, 'd', 00H, ' ', 00H, 'a', 00H, 'n', 00H, ' ', 00H, 'e'
	DB	00H, 'x', 00H, 'c', 00H, 'e', 00H, 'p', 00H, 't', 00H, 'i', 00H
	DB	'o', 00H, 'n', 00H, ' ', 00H, 'd', 00H, 'u', 00H, 'r', 00H, 'i'
	DB	00H, 'n', 00H, 'g', 00H, ' ', 00H, 'L', 00H, 'o', 00H, 'a', 00H
	DB	'd', 00H, 'L', 00H, 'i', 00H, 'b', 00H, 'r', 00H, 'a', 00H, 'r'
	DB	00H, 'y', 00H, 'W', 00H, ' ', 00H, '(', 00H, '''', 00H, '%', 00H
	DB	'w', 00H, 's', 00H, '''', 00H, ')', 00H, '!', 00H, 00H, 00H
$SG200238 DB	' ', 00H, 'L', 00H, 'o', 00H, 'a', 00H, 'd', 00H, 'L', 00H
	DB	'i', 00H, 'b', 00H, 'r', 00H, 'a', 00H, 'r', 00H, 'y', 00H, 'W'
	DB	00H, ' ', 00H, 00H, 00H
	ORG $+2
$SG89657 DB	'a', 00H, 't', 00H, 'l', 00H, 'T', 00H, 'r', 00H, 'a', 00H
	DB	'c', 00H, 'e', 00H, 'Q', 00H, 'I', 00H, 00H, 00H
	ORG $+2
$SG103008 DB	'V', 00H, 'a', 00H, 'l', 00H, 00H, 00H
$SG89704 DB	'a', 00H, 't', 00H, 'l', 00H, 'T', 00H, 'r', 00H, 'a', 00H
	DB	'c', 00H, 'e', 00H, 'R', 00H, 'e', 00H, 'g', 00H, 'i', 00H, 's'
	DB	00H, 't', 00H, 'r', 00H, 'a', 00H, 'r', 00H, 00H, 00H
$SG200274 DB	'[', 00H, 'D', 00H, 'L', 00H, 'L', 00H, ' ', 00H, 'L', 00H
	DB	'o', 00H, 'a', 00H, 'd', 00H, 'e', 00H, 'r', 00H, ']', 00H, ' '
	DB	00H, ' ', 00H, '*', 00H, '*', 00H, ' ', 00H, 'C', 00H, 'r', 00H
	DB	'a', 00H, 's', 00H, 'h', 00H, ' ', 00H, 'P', 00H, 'r', 00H, 'e'
	DB	00H, 'v', 00H, 'e', 00H, 'n', 00H, 't', 00H, 'e', 00H, 'd', 00H
	DB	' ', 00H, '*', 00H, '*', 00H, ' ', 00H, ' ', 00H, 'D', 00H, 'L'
	DB	00H, 'L', 00H, ' ', 00H, 'r', 00H, 'a', 00H, 'i', 00H, 's', 00H
	DB	'e', 00H, 'd', 00H, ' ', 00H, 'a', 00H, 'n', 00H, ' ', 00H, 'e'
	DB	00H, 'x', 00H, 'c', 00H, 'e', 00H, 'p', 00H, 't', 00H, 'i', 00H
	DB	'o', 00H, 'n', 00H, ' ', 00H, 'd', 00H, 'u', 00H, 'r', 00H, 'i'
	DB	00H, 'n', 00H, 'g', 00H, ' ', 00H, 'L', 00H, 'o', 00H, 'a', 00H
	DB	'd', 00H, 'L', 00H, 'i', 00H, 'b', 00H, 'r', 00H, 'a', 00H, 'r'
	DB	00H, 'y', 00H, 'E', 00H, 'x', 00H, 'A', 00H, ' ', 00H, '(', 00H
	DB	'''', 00H, '%', 00H, 'h', 00H, 's', 00H, '''', 00H, ')', 00H, '!'
	DB	00H, 00H, 00H
$SG103010 DB	'F', 00H, 'o', 00H, 'r', 00H, 'c', 00H, 'e', 00H, 'R', 00H
	DB	'e', 00H, 'm', 00H, 'o', 00H, 'v', 00H, 'e', 00H, 00H, 00H
$SG103014 DB	'D', 00H, 'e', 00H, 'l', 00H, 'e', 00H, 't', 00H, 'e', 00H
	DB	00H, 00H
	ORG $+2
$SG200296 DB	'[', 00H, 'D', 00H, 'L', 00H, 'L', 00H, ' ', 00H, 'L', 00H
	DB	'o', 00H, 'a', 00H, 'd', 00H, 'e', 00H, 'r', 00H, ']', 00H, ' '
	DB	00H, ' ', 00H, '*', 00H, '*', 00H, ' ', 00H, 'C', 00H, 'r', 00H
	DB	'a', 00H, 's', 00H, 'h', 00H, ' ', 00H, 'P', 00H, 'r', 00H, 'e'
	DB	00H, 'v', 00H, 'e', 00H, 'n', 00H, 't', 00H, 'e', 00H, 'd', 00H
	DB	' ', 00H, '*', 00H, '*', 00H, ' ', 00H, ' ', 00H, 'D', 00H, 'L'
	DB	00H, 'L', 00H, ' ', 00H, 'r', 00H, 'a', 00H, 'i', 00H, 's', 00H
	DB	'e', 00H, 'd', 00H, ' ', 00H, 'a', 00H, 'n', 00H, ' ', 00H, 'e'
	DB	00H, 'x', 00H, 'c', 00H, 'e', 00H, 'p', 00H, 't', 00H, 'i', 00H
	DB	'o', 00H, 'n', 00H, ' ', 00H, 'd', 00H, 'u', 00H, 'r', 00H, 'i'
	DB	00H, 'n', 00H, 'g', 00H, ' ', 00H, 'L', 00H, 'o', 00H, 'a', 00H
	DB	'd', 00H, 'L', 00H, 'i', 00H, 'b', 00H, 'r', 00H, 'a', 00H, 'r'
	DB	00H, 'y', 00H, 'E', 00H, 'x', 00H, 'W', 00H, ' ', 00H, '(', 00H
	DB	'''', 00H, '%', 00H, 'w', 00H, 's', 00H, '''', 00H, ')', 00H, '!'
	DB	00H, 00H, 00H
$SG200298 DB	'L', 00H, 'o', 00H, 'a', 00H, 'd', 00H, 'L', 00H, 'i', 00H
	DB	'b', 00H, 'r', 00H, 'a', 00H, 'r', 00H, 'y', 00H, 'E', 00H, 'x'
	DB	00H, 'W', 00H, 00H, 00H
	ORG $+2
$SG206447 DB	'S', 00H, 'p', 00H, 'e', 00H, 'c', 00H, 'i', 00H, 'a', 00H
	DB	'l', 00H, ' ', 00H, 'K', 00H, ' ', 00H, 'C', 00H, 'o', 00H, 'n'
	DB	00H, 'f', 00H, 'l', 00H, 'i', 00H, 'c', 00H, 't', 00H, 00H, 00H
	ORG $+2
$SG206448 DB	'P', 00H, 'l', 00H, 'e', 00H, 'a', 00H, 's', 00H, 'e', 00H
	DB	' ', 00H, 'r', 00H, 'e', 00H, '-', 00H, 'c', 00H, 'o', 00H, 'n'
	DB	00H, 'f', 00H, 'i', 00H, 'g', 00H, 'u', 00H, 'r', 00H, 'e', 00H
	DB	' ', 00H, 't', 00H, 'h', 00H, 'i', 00H, 's', 00H, ' ', 00H, 'g'
	DB	00H, 'a', 00H, 'm', 00H, 'e', 00H, ' ', 00H, 't', 00H, 'o', 00H
	DB	' ', 00H, 'r', 00H, 'u', 00H, 'n', 00H, ' ', 00H, 'i', 00H, 'n'
	DB	00H, ' ', 00H, 'w', 00H, 'i', 00H, 'n', 00H, 'd', 00H, 'o', 00H
	DB	'w', 00H, 'e', 00H, 'd', 00H, ' ', 00H, 'm', 00H, 'o', 00H, 'd'
	DB	00H, 'e', 00H, 00H, 00H
$SG206449 DB	'W', 00H, 'O', 00H, 'F', 00H, 'F', 00H, '_', 00H, 'c', 00H
	DB	'o', 00H, 'n', 00H, 'f', 00H, 'i', 00H, 'g', 00H, '.', 00H, 'e'
	DB	00H, 'x', 00H, 'e', 00H, 00H, 00H
$SG206450 DB	'o', 00H, 'p', 00H, 'e', 00H, 'n', 00H, 00H, 00H
	ORG $+2
$SG206451 DB	'W', 00H, 'O', 00H, 'F', 00H, 'F', 00H, '_', 00H, 'c', 00H
	DB	'o', 00H, 'n', 00H, 'f', 00H, 'i', 00H, 'g', 00H, '.', 00H, 'e'
	DB	00H, 'x', 00H, 'e', 00H, 00H, 00H
$SG206452 DB	'W', 00H, 'O', 00H, 'F', 00H, 'F', 00H, '.', 00H, 'e', 00H
	DB	'x', 00H, 'e', 00H, 00H, 00H
	ORG $+2
$SG206453 DB	'o', 00H, 'p', 00H, 'e', 00H, 'n', 00H, 00H, 00H
	ORG $+2
$SG89751 DB	'a', 00H, 't', 00H, 'l', 00H, 'T', 00H, 'r', 00H, 'a', 00H
	DB	'c', 00H, 'e', 00H, 'R', 00H, 'e', 00H, 'f', 00H, 'c', 00H, 'o'
	DB	00H, 'u', 00H, 'n', 00H, 't', 00H, 00H, 00H
	ORG $+2
$SG200382 DB	'LoadLibraryA', 00H
	ORG $+3
$SG200383 DB	'k', 00H, 'e', 00H, 'r', 00H, 'n', 00H, 'e', 00H, 'l', 00H
	DB	'3', 00H, '2', 00H, '.', 00H, 'd', 00H, 'l', 00H, 'l', 00H, 00H
	DB	00H
	ORG $+2
$SG200385 DB	'LoadLibraryW', 00H
	ORG $+3
$SG200386 DB	'k', 00H, 'e', 00H, 'r', 00H, 'n', 00H, 'e', 00H, 'l', 00H
	DB	'3', 00H, '2', 00H, '.', 00H, 'd', 00H, 'l', 00H, 'l', 00H, 00H
	DB	00H
	ORG $+2
$SG200388 DB	'LoadPackagedLibrary', 00H
$SG200389 DB	'k', 00H, 'e', 00H, 'r', 00H, 'n', 00H, 'e', 00H, 'l', 00H
	DB	'3', 00H, '2', 00H, '.', 00H, 'd', 00H, 'l', 00H, 'l', 00H, 00H
	DB	00H
	ORG $+2
$SG89798 DB	'a', 00H, 't', 00H, 'l', 00H, 'T', 00H, 'r', 00H, 'a', 00H
	DB	'c', 00H, 'e', 00H, 'W', 00H, 'i', 00H, 'n', 00H, 'd', 00H, 'o'
	DB	00H, 'w', 00H, 'i', 00H, 'n', 00H, 'g', 00H, 00H, 00H
$SG200391 DB	'LoadPackagedLibrary', 00H
$SG200392 DB	'k', 00H, 'e', 00H, 'r', 00H, 'n', 00H, 'e', 00H, 'l', 00H
	DB	'3', 00H, '2', 00H, '.', 00H, 'd', 00H, 'l', 00H, 'l', 00H, 00H
	DB	00H
	ORG $+2
$SG200394 DB	'LoadLibraryExA', 00H
	ORG $+1
$SG200395 DB	'k', 00H, 'e', 00H, 'r', 00H, 'n', 00H, 'e', 00H, 'l', 00H
	DB	'3', 00H, '2', 00H, '.', 00H, 'd', 00H, 'l', 00H, 'l', 00H, 00H
	DB	00H
	ORG $+2
$SG200397 DB	'LoadLibraryExW', 00H
	ORG $+1
$SG222926 DB	'a', 00H, 'c', 00H, 't', 00H, 'i', 00H, 'o', 00H, 'n', 00H
	DB	'_', 00H, 'x', 00H, '8', 00H, '6', 00H, 00H, 00H
	ORG $+2
$SG200398 DB	'k', 00H, 'e', 00H, 'r', 00H, 'n', 00H, 'e', 00H, 'l', 00H
	DB	'3', 00H, '2', 00H, '.', 00H, 'd', 00H, 'l', 00H, 'l', 00H, 00H
	DB	00H
	ORG $+2
$SG222927 DB	'action_x86', 00H
	ORG $+1
$SG222929 DB	'R', 00H, 'T', 00H, 'S', 00H, 'S', 00H, 'H', 00H, 'o', 00H
	DB	'o', 00H, 'k', 00H, 's', 00H, 00H, 00H
$SG222930 DB	'RTSSHooks', 00H
	ORG $+2
$SG222933 DB	'l', 00H, 't', 00H, 'c', 00H, '_', 00H, 'g', 00H, 'a', 00H
	DB	'm', 00H, 'e', 00H, 00H, 00H
	ORG $+2
$SG222934 DB	'ltc_game', 00H
	ORG $+3
$SG222938 DB	'r', 00H, 'x', 00H, 'g', 00H, 'a', 00H, 'm', 00H, 'e', 00H
	DB	'p', 00H, 'a', 00H, 'd', 00H, 'i', 00H, 'n', 00H, 'p', 00H, 'u'
	DB	00H, 't', 00H, '.', 00H, 'd', 00H, 'l', 00H, 'l', 00H, 00H, 00H
	ORG $+2
$SG222939 DB	'rxgamepadinput.dll', 00H
	ORG $+1
$SG222935 DB	'[', 00H, 'B', 00H, 'l', 00H, 'a', 00H, 'c', 00H, 'k', 00H
	DB	' ', 00H, 'L', 00H, 'i', 00H, 's', 00H, 't', 00H, ']', 00H, ' '
	DB	00H, 'P', 00H, 'r', 00H, 'e', 00H, 'v', 00H, 'e', 00H, 'n', 00H
	DB	't', 00H, 'i', 00H, 'n', 00H, 'g', 00H, ' ', 00H, 'R', 00H, 'a'
	DB	00H, 'p', 00H, 't', 00H, 'r', 00H, '''', 00H, 's', 00H, ' ', 00H
	DB	'o', 00H, 'v', 00H, 'e', 00H, 'r', 00H, 'l', 00H, 'a', 00H, 'y'
	DB	00H, ' ', 00H, '(', 00H, 'l', 00H, 't', 00H, 'c', 00H, '_', 00H
	DB	'g', 00H, 'a', 00H, 'm', 00H, 'e', 00H, ')', 00H, ',', 00H, ' '
	DB	00H, 'i', 00H, 't', 00H, ' ', 00H, 'l', 00H, 'i', 00H, 'k', 00H
	DB	'e', 00H, 's', 00H, ' ', 00H, 't', 00H, 'o', 00H, ' ', 00H, 'c'
	DB	00H, 'r', 00H, 'a', 00H, 's', 00H, 'h', 00H, ' ', 00H, 'g', 00H
	DB	'a', 00H, 'm', 00H, 'e', 00H, 's', 00H, '!', 00H, 00H, 00H
	ORG $+2
$SG222940 DB	'r', 00H, 'x', 00H, 'c', 00H, 'o', 00H, 'r', 00H, 'e', 00H
	DB	'.', 00H, 'd', 00H, 'l', 00H, 'l', 00H, 00H, 00H
	ORG $+2
$SG222941 DB	'rxcore.dll', 00H
	ORG $+1
$SG222942 DB	'n', 00H, 'v', 00H, 'i', 00H, 'n', 00H, 'j', 00H, 'e', 00H
	DB	'c', 00H, 't', 00H, '.', 00H, 'd', 00H, 'l', 00H, 'l', 00H, 00H
	DB	00H
	ORG $+2
$SG222943 DB	'nvinject.dll', 00H
	ORG $+3
$SG222944 DB	'r', 00H, 'x', 00H, 'i', 00H, 'n', 00H, 'p', 00H, 'u', 00H
	DB	't', 00H, '.', 00H, 'd', 00H, 'l', 00H, 'l', 00H, 00H, 00H
$SG222945 DB	'rxinput.dll', 00H
$SG89845 DB	'a', 00H, 't', 00H, 'l', 00H, 'T', 00H, 'r', 00H, 'a', 00H
	DB	'c', 00H, 'e', 00H, 'C', 00H, 'o', 00H, 'n', 00H, 't', 00H, 'r'
	DB	00H, 'o', 00H, 'l', 00H, 's', 00H, 00H, 00H
	ORG $+2
$SG230153 DB	'O', 00H, 'p', 00H, 'e', 00H, 'n', 00H, 'C', 00H, 'L', 00H
	DB	00H, 00H
	ORG $+2
$SG230154 DB	'OpenCL', 00H
	ORG $+1
$SG230155 DB	'C', 00H, 'E', 00H, 'G', 00H, 'U', 00H, 'I', 00H, 00H, 00H
$SG230156 DB	'CEGUI', 00H
	ORG $+2
$SG230157 DB	'p', 00H, 'e', 00H, 'r', 00H, 'f', 00H, 'o', 00H, 's', 00H
	DB	00H, 00H
	ORG $+2
$SG230158 DB	'perfos', 00H
	ORG $+1
$SG230159 DB	'a', 00H, 'v', 00H, 'r', 00H, 't', 00H, 00H, 00H
	ORG $+2
$SG230160 DB	'avrt', 00H
	ORG $+3
$SG230161 DB	'A', 00H, 'U', 00H, 'D', 00H, 'I', 00H, 'O', 00H, 'S', 00H
	DB	'E', 00H, 'S', 00H, 00H, 00H
	ORG $+2
$SG230162 DB	'AUDIOSES', 00H
	ORG $+3
$SG230163 DB	'H', 00H, 'I', 00H, 'D', 00H, 00H, 00H
$SG230164 DB	'HID', 00H
$SG230165 DB	'd', 00H, '3', 00H, 'd', 00H, 'x', 00H, '1', 00H, '1', 00H
	DB	'_', 00H, '4', 00H, '3', 00H, 00H, 00H
$SG230166 DB	'd3dx11_43', 00H
	ORG $+2
$SG230167 DB	'd', 00H, '3', 00H, 'd', 00H, 'x', 00H, '9', 00H, '_', 00H
	DB	'4', 00H, '3', 00H, 00H, 00H
	ORG $+2
$SG230168 DB	'd3dx9_43', 00H
	ORG $+3
$SG230169 DB	's', 00H, 't', 00H, 'e', 00H, 'a', 00H, 'm', 00H, '_', 00H
	DB	'a', 00H, 'p', 00H, 'i', 00H, 00H, 00H
$SG230170 DB	'steam_api', 00H
	ORG $+2
$SG230171 DB	'n', 00H, 'v', 00H, 'a', 00H, 'p', 00H, 'i', 00H, 00H, 00H
$SG230172 DB	'nvapi', 00H
	ORG $+2
$SG230173 DB	'd', 00H, '3', 00H, 'd', 00H, 'c', 00H, 'o', 00H, 'm', 00H
	DB	'p', 00H, 'i', 00H, 'l', 00H, 'e', 00H, 'r', 00H, '_', 00H, 00H
	DB	00H
	ORG $+2
$SG230174 DB	'd3dcompiler_', 00H
	ORG $+3
$SG89892 DB	'a', 00H, 't', 00H, 'l', 00H, 'T', 00H, 'r', 00H, 'a', 00H
	DB	'c', 00H, 'e', 00H, 'H', 00H, 'o', 00H, 's', 00H, 't', 00H, 'i'
	DB	00H, 'n', 00H, 'g', 00H, 00H, 00H
$SG89939 DB	'a', 00H, 't', 00H, 'l', 00H, 'T', 00H, 'r', 00H, 'a', 00H
	DB	'c', 00H, 'e', 00H, 'D', 00H, 'B', 00H, 'C', 00H, 'l', 00H, 'i'
	DB	00H, 'e', 00H, 'n', 00H, 't', 00H, 00H, 00H
	ORG $+2
$SG89986 DB	'a', 00H, 't', 00H, 'l', 00H, 'T', 00H, 'r', 00H, 'a', 00H
	DB	'c', 00H, 'e', 00H, 'D', 00H, 'B', 00H, 'P', 00H, 'r', 00H, 'o'
	DB	00H, 'v', 00H, 'i', 00H, 'd', 00H, 'e', 00H, 'r', 00H, 00H, 00H
	ORG $+2
$SG90033 DB	'a', 00H, 't', 00H, 'l', 00H, 'T', 00H, 'r', 00H, 'a', 00H
	DB	'c', 00H, 'e', 00H, 'S', 00H, 'n', 00H, 'a', 00H, 'p', 00H, 'i'
	DB	00H, 'n', 00H, 00H, 00H
	ORG $+2
$SG205754 DB	'I', 00H, 'n', 00H, 's', 00H, 't', 00H, 'a', 00H, 'l', 00H
	DB	'l', 00H, ' ', 00H, 'W', 00H, 'r', 00H, 'a', 00H, 'p', 00H, 'p'
	DB	00H, 'e', 00H, 'r', 00H, ' ', 00H, 'D', 00H, 'L', 00H, 'L', 00H
	DB	00H, 00H
$SG205755 DB	'D', 00H, 'i', 00H, 's', 00H, 'a', 00H, 'b', 00H, 'l', 00H
	DB	'e', 00H, ' ', 00H, 'P', 00H, 'l', 00H, 'u', 00H, 'g', 00H, '-'
	DB	00H, 'I', 00H, 'n', 00H, 's', 00H, 00H, 00H
	ORG $+2
$SG205756 DB	'R', 00H, 'e', 00H, 's', 00H, 'e', 00H, 't', 00H, ' ', 00H
	DB	'C', 00H, 'o', 00H, 'n', 00H, 'f', 00H, 'i', 00H, 'g', 00H, 00H
	DB	00H
	ORG $+2
$SG205757 DB	'U', 00H, 'n', 00H, 'i', 00H, 'n', 00H, 's', 00H, 't', 00H
	DB	'a', 00H, 'l', 00H, 'l', 00H, ' ', 00H, 'W', 00H, 'r', 00H, 'a'
	DB	00H, 'p', 00H, 'p', 00H, 'e', 00H, 'r', 00H, ' ', 00H, 'D', 00H
	DB	'L', 00H, 'L', 00H, 00H, 00H
$SG205758 DB	'D', 00H, 'i', 00H, 's', 00H, 'a', 00H, 'b', 00H, 'l', 00H
	DB	'e', 00H, ' ', 00H, 'P', 00H, 'l', 00H, 'u', 00H, 'g', 00H, '-'
	DB	00H, 'I', 00H, 'n', 00H, 's', 00H, 00H, 00H
	ORG $+2
$SG205759 DB	'R', 00H, 'e', 00H, 's', 00H, 'e', 00H, 't', 00H, ' ', 00H
	DB	'C', 00H, 'o', 00H, 'n', 00H, 'f', 00H, 'i', 00H, 'g', 00H, 00H
	DB	00H
	ORG $+2
$SG205760 DB	'U', 00H, 'n', 00H, 'i', 00H, 'n', 00H, 's', 00H, 't', 00H
	DB	'a', 00H, 'l', 00H, 'l', 00H, ' ', 00H, 'M', 00H, 'o', 00H, 'd'
	DB	00H, 00H, 00H
$SG205761 DB	'D', 00H, 'i', 00H, 's', 00H, 'a', 00H, 'b', 00H, 'l', 00H
	DB	'e', 00H, ' ', 00H, 'P', 00H, 'l', 00H, 'u', 00H, 'g', 00H, '-'
	DB	00H, 'I', 00H, 'n', 00H, 's', 00H, 00H, 00H
	ORG $+2
$SG205762 DB	'R', 00H, 'e', 00H, 's', 00H, 'e', 00H, 't', 00H, ' ', 00H
	DB	'C', 00H, 'o', 00H, 'n', 00H, 'f', 00H, 'i', 00H, 'g', 00H, 00H
	DB	00H
	ORG $+2
$SG205765 DB	'd', 00H, '3', 00H, 'd', 00H, '8', 00H, 00H, 00H
	ORG $+2
$SG205767 DB	'd', 00H, 'd', 00H, 'r', 00H, 'a', 00H, 'w', 00H, 00H, 00H
$SG205769 DB	'd', 00H, 'x', 00H, 'g', 00H, 'i', 00H, 00H, 00H
	ORG $+2
$SG205771 DB	'd', 00H, '3', 00H, 'd', 00H, '9', 00H, 00H, 00H
	ORG $+2
$SG205773 DB	'O', 00H, 'p', 00H, 'e', 00H, 'n', 00H, 'G', 00H, 'L', 00H
	DB	'3', 00H, '2', 00H, 00H, 00H
	ORG $+2
$SG205775 DB	'v', 00H, 'u', 00H, 'l', 00H, 'k', 00H, 'a', 00H, 'n', 00H
	DB	'-', 00H, '1', 00H, 00H, 00H
	ORG $+2
$SG205776 DB	'(', 00H, 00H, 00H
$SG205777 DB	')', 00H, 00H, 00H
$SG205781 DB	'D', 00H, 'i', 00H, 'r', 00H, 'e', 00H, 'c', 00H, 't', 00H
	DB	'3', 00H, 'D', 00H, '8', 00H, 00H, 00H
$SG205779 DB	' ', 00H, ' ', 00H, '{', 00H, ' ', 00H, 'I', 00H, 'm', 00H
	DB	'p', 00H, 'o', 00H, 'r', 00H, 't', 00H, ' ', 00H, 'A', 00H, 'd'
	DB	00H, 'd', 00H, 'r', 00H, 'e', 00H, 's', 00H, 's', 00H, ' ', 00H
	DB	'T', 00H, 'a', 00H, 'b', 00H, 'l', 00H, 'e', 00H, ' ', 00H, 'F'
	DB	00H, 'A', 00H, 'I', 00H, 'L', 00H, ' ', 00H, '-', 00H, '>', 00H
	DB	' ', 00H, 'D', 00H, 'e', 00H, 't', 00H, 'e', 00H, 'c', 00H, 't'
	DB	00H, 'e', 00H, 'd', 00H, ' ', 00H, 'A', 00H, 'P', 00H, 'I', 00H
	DB	' ', 00H, 'M', 00H, 'a', 00H, 'y', 00H, ' ', 00H, 'B', 00H, 'e'
	DB	00H, ' ', 00H, 'W', 00H, 'r', 00H, 'o', 00H, 'n', 00H, 'g', 00H
	DB	' ', 00H, '}', 00H, 00H, 00H
	ORG $+2
$SG205780 DB	'E', 00H, 'n', 00H, 'a', 00H, 'b', 00H, 'l', 00H, 'e', 00H
	DB	' ', 00H, 'A', 00H, 'l', 00H, 'l', 00H, ' ', 00H, 'A', 00H, 'P'
	DB	00H, 'I', 00H, 's', 00H, 00H, 00H
$SG205782 DB	'D', 00H, 'i', 00H, 'r', 00H, 'e', 00H, 'c', 00H, 't', 00H
	DB	'D', 00H, 'r', 00H, 'a', 00H, 'w', 00H, 00H, 00H
	ORG $+2
$SG205783 DB	'D', 00H, 'i', 00H, 'r', 00H, 'e', 00H, 'c', 00H, 't', 00H
	DB	'3', 00H, 'D', 00H, '9', 00H, '{', 00H, 'E', 00H, 'x', 00H, '}'
	DB	00H, 00H, 00H
$SG205784 DB	'D', 00H, 'i', 00H, 'r', 00H, 'e', 00H, 'c', 00H, 't', 00H
	DB	'3', 00H, 'D', 00H, '1', 00H, '1', 00H, 00H, 00H
	ORG $+2
$SG205785 DB	'O', 00H, 'p', 00H, 'e', 00H, 'n', 00H, 'G', 00H, 'L', 00H
	DB	00H, 00H
	ORG $+2
$SG205786 DB	'S', 00H, 'p', 00H, 'e', 00H, 'c', 00H, 'i', 00H, 'a', 00H
	DB	'l', 00H, ' ', 00H, 'K', 00H, ' ', 00H, 'C', 00H, 'o', 00H, 'm'
	DB	00H, 'p', 00H, 'a', 00H, 't', 00H, 'i', 00H, 'b', 00H, 'i', 00H
	DB	'l', 00H, 'i', 00H, 't', 00H, 'y', 00H, ' ', 00H, 'L', 00H, 'a'
	DB	00H, 'y', 00H, 'e', 00H, 'r', 00H, ' ', 00H, '(', 00H, 'v', 00H
	DB	' ', 00H, '0', 00H, '.', 00H, '8', 00H, '.', 00H, '5', 00H, '3'
	DB	00H, '.', 00H, '2', 00H, ')', 00H, 00H, 00H
	ORG $+2
$SG205791 DB	'S', 00H, 'p', 00H, 'e', 00H, 'c', 00H, 'i', 00H, 'a', 00H
	DB	'l', 00H, ' ', 00H, 'K', 00H, ' ', 00H, 'I', 00H, 'n', 00H, 'j'
	DB	00H, 'e', 00H, 'c', 00H, 't', 00H, 'i', 00H, 'o', 00H, 'n', 00H
	DB	' ', 00H, 'C', 00H, 'o', 00H, 'm', 00H, 'p', 00H, 'a', 00H, 't'
	DB	00H, 'i', 00H, 'b', 00H, 'i', 00H, 'l', 00H, 'i', 00H, 't', 00H
	DB	'y', 00H, ' ', 00H, 'O', 00H, 'p', 00H, 't', 00H, 'i', 00H, 'o'
	DB	00H, 'n', 00H, 's', 00H, 00H, 00H
$SG205799 DB	00H, 00H
	ORG $+2
$SG205792 DB	'C', 00H, 'o', 00H, 'm', 00H, 'p', 00H, 'a', 00H, 't', 00H
	DB	'i', 00H, 'b', 00H, 'i', 00H, 'l', 00H, 'i', 00H, 't', 00H, 'y'
	DB	00H, ' ', 00H, 'M', 00H, 'o', 00H, 'd', 00H, 'e', 00H, ' ', 00H
	DB	'h', 00H, 'a', 00H, 's', 00H, ' ', 00H, 'b', 00H, 'e', 00H, 'e'
	DB	00H, 'n', 00H, ' ', 00H, 'A', 00H, 'c', 00H, 't', 00H, 'i', 00H
	DB	'v', 00H, 'a', 00H, 't', 00H, 'e', 00H, 'd', 00H, ' ', 00H, 'b'
	DB	00H, 'y', 00H, ' ', 00H, 'P', 00H, 'r', 00H, 'e', 00H, 's', 00H
	DB	's', 00H, 'i', 00H, 'n', 00H, 'g', 00H, ' ', 00H, 'a', 00H, 'n'
	DB	00H, 'd', 00H, ' ', 00H, 'H', 00H, 'o', 00H, 'l', 00H, 'd', 00H
	DB	'i', 00H, 'n', 00H, 'g', 00H, ' ', 00H, 'C', 00H, 't', 00H, 'r'
	DB	00H, 'l', 00H, ' ', 00H, '+', 00H, ' ', 00H, 'S', 00H, 'h', 00H
	DB	'i', 00H, 'f', 00H, 't', 00H, 0aH, 00H, 0aH, 00H, 'U', 00H, 's'
	DB	00H, 'e', 00H, ' ', 00H, 't', 00H, 'h', 00H, 'i', 00H, 's', 00H
	DB	' ', 00H, 'm', 00H, 'e', 00H, 'n', 00H, 'u', 00H, ' ', 00H, 't'
	DB	00H, 'o', 00H, ' ', 00H, 't', 00H, 'r', 00H, 'o', 00H, 'u', 00H
	DB	'b', 00H, 'l', 00H, 'e', 00H, 's', 00H, 'h', 00H, 'o', 00H, 'o'
	DB	00H, 't', 00H, ' ', 00H, 'p', 00H, 'r', 00H, 'o', 00H, 'b', 00H
	DB	'l', 00H, 'e', 00H, 'm', 00H, 's', 00H, ' ', 00H, 'c', 00H, 'a'
	DB	00H, 'u', 00H, 's', 00H, 'e', 00H, 'd', 00H, ' ', 00H, 'b', 00H
	DB	'y', 00H, ' ', 00H, 't', 00H, 'h', 00H, 'e', 00H, ' ', 00H, 's'
	DB	00H, 'o', 00H, 'f', 00H, 't', 00H, 'w', 00H, 'a', 00H, 'r', 00H
	DB	'e', 00H, 00H, 00H
$SG90080 DB	'a', 00H, 't', 00H, 'l', 00H, 'T', 00H, 'r', 00H, 'a', 00H
	DB	'c', 00H, 'e', 00H, 'N', 00H, 'o', 00H, 't', 00H, 'I', 00H, 'm'
	DB	00H, 'p', 00H, 'l', 00H, 00H, 00H
$SG205802 DB	'S', 00H, 'p', 00H, 'e', 00H, 'c', 00H, 'i', 00H, 'a', 00H
	DB	'l', 00H, 'K', 00H, 00H, 00H
	ORG $+2
$SG205795 DB	'W', 00H, 'A', 00H, 'R', 00H, 'N', 00H, 'I', 00H, 'N', 00H
	DB	'G', 00H, ':', 00H, ' ', 00H, 'I', 00H, 'n', 00H, 's', 00H, 't'
	DB	00H, 'a', 00H, 'l', 00H, 'l', 00H, 'i', 00H, 'n', 00H, 'g', 00H
	DB	' ', 00H, 't', 00H, 'h', 00H, 'e', 00H, ' ', 00H, 'w', 00H, 'r'
	DB	00H, 'o', 00H, 'n', 00H, 'g', 00H, ' ', 00H, 'A', 00H, 'P', 00H
	DB	'I', 00H, ' ', 00H, 'w', 00H, 'r', 00H, 'a', 00H, 'p', 00H, 'p'
	DB	00H, 'e', 00H, 'r', 00H, ' ', 00H, 'm', 00H, 'a', 00H, 'y', 00H
	DB	' ', 00H, 'r', 00H, 'e', 00H, 'q', 00H, 'u', 00H, 'i', 00H, 'r'
	DB	00H, 'e', 00H, ' ', 00H, 'm', 00H, 'a', 00H, 'n', 00H, 'u', 00H
	DB	'a', 00H, 'l', 00H, ' ', 00H, 'r', 00H, 'e', 00H, 'c', 00H, 'o'
	DB	00H, 'v', 00H, 'e', 00H, 'r', 00H, 'y', 00H, ';', 00H, ' ', 00H
	DB	'i', 00H, 'f', 00H, ' ', 00H, 'i', 00H, 'n', 00H, ' ', 00H, 'd'
	DB	00H, 'o', 00H, 'u', 00H, 'b', 00H, 't', 00H, ',', 00H, ' ', 00H
	DB	'u', 00H, 's', 00H, 'e', 00H, ' ', 00H, 'A', 00H, 'U', 00H, 'T'
	DB	00H, 'O', 00H, '.', 00H, 00H, 00H
$SG205803 DB	00H, 00H
	ORG $+2
$SG205796 DB	'D', 00H, 'i', 00H, 's', 00H, 'a', 00H, 'b', 00H, 'l', 00H
	DB	'e', 00H, ' ', 00H, 'G', 00H, 'l', 00H, 'o', 00H, 'b', 00H, 'a'
	DB	00H, 'l', 00H, ' ', 00H, 'I', 00H, 'n', 00H, 'j', 00H, 'e', 00H
	DB	'c', 00H, 't', 00H, 'i', 00H, 'o', 00H, 'n', 00H, ' ', 00H, 'f'
	DB	00H, 'o', 00H, 'r', 00H, ' ', 00H, 't', 00H, 'h', 00H, 'i', 00H
	DB	's', 00H, ' ', 00H, 'G', 00H, 'a', 00H, 'm', 00H, 'e', 00H, 00H
	DB	00H
	ORG $+2
$SG203752 DB	'[', 00H, ' ', 00H, 'M', 00H, 'o', 00H, 'd', 00H, 'u', 00H
	DB	'l', 00H, 'e', 00H, ' ', 00H, ']', 00H, ' ', 00H, ' ', 00H, '('
	DB	00H, ' ', 00H, '%', 00H, 'p', 00H, 'h', 00H, ' ', 00H, '+', 00H
	DB	' ', 00H, '%', 00H, '0', 00H, '8', 00H, 'u', 00H, ' ', 00H, ')'
	DB	00H, ' ', 00H, ' ', 00H, ' ', 00H, '-', 00H, ':', 00H, '<', 00H
	DB	' ', 00H, '%', 00H, '-', 00H, '6', 00H, '4', 00H, 'h', 00H, 's'
	DB	00H, ' ', 00H, '>', 00H, ':', 00H, '-', 00H, ' ', 00H, ' ', 00H
	DB	' ', 00H, '%', 00H, 's', 00H, 00H, 00H
	ORG $+2
$SG203757 DB	'[', 00H, 'F', 00H, 'i', 00H, 'l', 00H, 'e', 00H, ' ', 00H
	DB	'V', 00H, 'e', 00H, 'r', 00H, ']', 00H, ' ', 00H, ' ', 00H, ' '
	DB	00H, ' ', 00H, '%', 00H, 's', 00H, 0aH, 00H, 00H, 00H
$SG203754 DB	'[', 00H, ' ', 00H, 'M', 00H, 'o', 00H, 'd', 00H, 'u', 00H
	DB	'l', 00H, 'e', 00H, ' ', 00H, ']', 00H, ' ', 00H, ' ', 00H, '('
	DB	00H, ' ', 00H, '%', 00H, 'p', 00H, 'h', 00H, ' ', 00H, '+', 00H
	DB	' ', 00H, '%', 00H, '0', 00H, '8', 00H, 'i', 00H, ' ', 00H, ')'
	DB	00H, ' ', 00H, ' ', 00H, ' ', 00H, ' ', 00H, ' ', 00H, ' ', 00H
	DB	' ', 00H, '%', 00H, '-', 00H, '6', 00H, '4', 00H, 'h', 00H, 's'
	DB	00H, ' ', 00H, ' ', 00H, ' ', 00H, ' ', 00H, ' ', 00H, ' ', 00H
	DB	' ', 00H, '%', 00H, 's', 00H, 00H, 00H
	ORG $+2
$SG203756 DB	' ', 00H, ' ', 00H, 00H, 00H
	ORG $+2
$SG203758 DB	0aH, 00H, 00H, 00H
$SG205808 DB	'd', 00H, 'x', 00H, 'g', 00H, 'i', 00H, 00H, 00H
	ORG $+2
$SG205811 DB	'd', 00H, '3', 00H, 'd', 00H, '9', 00H, 00H, 00H
	ORG $+2
$SG205814 DB	'O', 00H, 'p', 00H, 'e', 00H, 'n', 00H, 'G', 00H, 'L', 00H
	DB	'3', 00H, '2', 00H, 00H, 00H
	ORG $+2
$SG205817 DB	'd', 00H, '3', 00H, 'd', 00H, '8', 00H, 00H, 00H
	ORG $+2
$SG205819 DB	'd', 00H, 'd', 00H, 'r', 00H, 'a', 00H, 'w', 00H, 00H, 00H
CONST	ENDS
PUBLIC	??_H@YGXPAXIIP6EPAX0@Z@Z			; `vector constructor iterator'
PUBLIC	_ReadAcquire
PUBLIC	_HRESULT_FROM_WIN32
PUBLIC	?SK_EnumLoadedModules@@YGXW4SK_ModuleEnum@@@Z	; SK_EnumLoadedModules
PUBLIC	?SK_InitCompatBlacklist@@YGXXZ			; SK_InitCompatBlacklist
PUBLIC	?SK_PreInitLoadLibrary@@YGXXZ			; SK_PreInitLoadLibrary
PUBLIC	?SK_ReHookLoadLibrary@@YGXXZ			; SK_ReHookLoadLibrary
PUBLIC	?SK_UnhookLoadLibrary@@YGXXZ			; SK_UnhookLoadLibrary
PUBLIC	?SK_LockDllLoader@@YGXXZ			; SK_LockDllLoader
PUBLIC	?SK_UnlockDllLoader@@YGXXZ			; SK_UnlockDllLoader
PUBLIC	??2@YAPAXIPAX@Z					; operator new
PUBLIC	_wmemchr
PUBLIC	_wmemcmp
PUBLIC	_wmemcpy
PUBLIC	_wmemmove
PUBLIC	?Free@CCRTAllocator@ATL@@SAXPAX@Z		; ATL::CCRTAllocator::Free
PUBLIC	??0?$CTraceCategoryEx@$0IAAAA@$0A@@ATL@@QAE@PB_W@Z ; ATL::CTraceCategoryEx<524288,0>::CTraceCategoryEx<524288,0>
PUBLIC	??0?$CTraceCategoryEx@$00$0A@@ATL@@QAE@PB_W@Z	; ATL::CTraceCategoryEx<1,0>::CTraceCategoryEx<1,0>
PUBLIC	??0?$CTraceCategoryEx@$01$0A@@ATL@@QAE@PB_W@Z	; ATL::CTraceCategoryEx<2,0>::CTraceCategoryEx<2,0>
PUBLIC	??0?$CTraceCategoryEx@$03$0A@@ATL@@QAE@PB_W@Z	; ATL::CTraceCategoryEx<4,0>::CTraceCategoryEx<4,0>
PUBLIC	??0?$CTraceCategoryEx@$07$0A@@ATL@@QAE@PB_W@Z	; ATL::CTraceCategoryEx<8,0>::CTraceCategoryEx<8,0>
PUBLIC	??0?$CTraceCategoryEx@$0BA@$0A@@ATL@@QAE@PB_W@Z	; ATL::CTraceCategoryEx<16,0>::CTraceCategoryEx<16,0>
PUBLIC	??0?$CTraceCategoryEx@$0CA@$0A@@ATL@@QAE@PB_W@Z	; ATL::CTraceCategoryEx<32,0>::CTraceCategoryEx<32,0>
PUBLIC	??0?$CTraceCategoryEx@$0EA@$0A@@ATL@@QAE@PB_W@Z	; ATL::CTraceCategoryEx<64,0>::CTraceCategoryEx<64,0>
PUBLIC	??0?$CTraceCategoryEx@$0IA@$0A@@ATL@@QAE@PB_W@Z	; ATL::CTraceCategoryEx<128,0>::CTraceCategoryEx<128,0>
PUBLIC	??0?$CTraceCategoryEx@$0BAA@$0A@@ATL@@QAE@PB_W@Z ; ATL::CTraceCategoryEx<256,0>::CTraceCategoryEx<256,0>
PUBLIC	??0?$CTraceCategoryEx@$0CAA@$0A@@ATL@@QAE@PB_W@Z ; ATL::CTraceCategoryEx<512,0>::CTraceCategoryEx<512,0>
PUBLIC	??0?$CTraceCategoryEx@$0EAA@$0A@@ATL@@QAE@PB_W@Z ; ATL::CTraceCategoryEx<1024,0>::CTraceCategoryEx<1024,0>
PUBLIC	??0?$CTraceCategoryEx@$0IAA@$0A@@ATL@@QAE@PB_W@Z ; ATL::CTraceCategoryEx<2048,0>::CTraceCategoryEx<2048,0>
PUBLIC	??0?$CTraceCategoryEx@$0BAAA@$0A@@ATL@@QAE@PB_W@Z ; ATL::CTraceCategoryEx<4096,0>::CTraceCategoryEx<4096,0>
PUBLIC	??0?$CTraceCategoryEx@$0CAAA@$0A@@ATL@@QAE@PB_W@Z ; ATL::CTraceCategoryEx<8192,0>::CTraceCategoryEx<8192,0>
PUBLIC	??0?$CTraceCategoryEx@$0EAAA@$0A@@ATL@@QAE@PB_W@Z ; ATL::CTraceCategoryEx<16384,0>::CTraceCategoryEx<16384,0>
PUBLIC	??0?$CTraceCategoryEx@$0IAAA@$0A@@ATL@@QAE@PB_W@Z ; ATL::CTraceCategoryEx<32768,0>::CTraceCategoryEx<32768,0>
PUBLIC	??0?$CTraceCategoryEx@$0BAAAA@$0A@@ATL@@QAE@PB_W@Z ; ATL::CTraceCategoryEx<65536,0>::CTraceCategoryEx<65536,0>
PUBLIC	??0?$CTraceCategoryEx@$0CAAAA@$0A@@ATL@@QAE@PB_W@Z ; ATL::CTraceCategoryEx<131072,0>::CTraceCategoryEx<131072,0>
PUBLIC	??0?$CTraceCategoryEx@$0EAAAA@$0A@@ATL@@QAE@PB_W@Z ; ATL::CTraceCategoryEx<262144,0>::CTraceCategoryEx<262144,0>
PUBLIC	??0?$CTraceCategoryEx@$0BAAAAA@$0A@@ATL@@QAE@PB_W@Z ; ATL::CTraceCategoryEx<1048576,0>::CTraceCategoryEx<1048576,0>
PUBLIC	??0?$CTraceCategoryEx@$0CAAAAA@$0A@@ATL@@QAE@PB_W@Z ; ATL::CTraceCategoryEx<2097152,0>::CTraceCategoryEx<2097152,0>
PUBLIC	??0?$CTraceCategoryEx@$0EAAAAA@$0A@@ATL@@QAE@PB_W@Z ; ATL::CTraceCategoryEx<4194304,0>::CTraceCategoryEx<4194304,0>
PUBLIC	?_AtlRaiseException@ATL@@YAXKK@Z		; ATL::_AtlRaiseException
PUBLIC	?_AtlInitializeCriticalSectionEx@ATL@@YAHPAU_RTL_CRITICAL_SECTION@@KK@Z ; ATL::_AtlInitializeCriticalSectionEx
PUBLIC	??0CComCriticalSection@ATL@@QAE@XZ		; ATL::CComCriticalSection::CComCriticalSection
PUBLIC	??1CComCriticalSection@ATL@@QAE@XZ		; ATL::CComCriticalSection::~CComCriticalSection
PUBLIC	?Init@CComCriticalSection@ATL@@QAEJXZ		; ATL::CComCriticalSection::Init
PUBLIC	?Term@CComCriticalSection@ATL@@QAEJXZ		; ATL::CComCriticalSection::Term
PUBLIC	?GetModuleInstance@CAtlBaseModule@ATL@@QAEPAUHINSTANCE__@@XZ ; ATL::CAtlBaseModule::GetModuleInstance
PUBLIC	??0_ATL_COM_MODULE70@ATL@@QAE@XZ		; ATL::_ATL_COM_MODULE70::_ATL_COM_MODULE70
PUBLIC	??1_ATL_COM_MODULE70@ATL@@QAE@XZ		; ATL::_ATL_COM_MODULE70::~_ATL_COM_MODULE70
PUBLIC	??0?$CSimpleArray@GV?$CSimpleArrayEqualHelper@G@ATL@@@ATL@@QAE@XZ ; ATL::CSimpleArray<unsigned short,ATL::CSimpleArrayEqualHelper<unsigned short> >::CSimpleArray<unsigned short,ATL::CSimpleArrayEqualHelper<unsigned short> >
PUBLIC	??1?$CSimpleArray@GV?$CSimpleArrayEqualHelper@G@ATL@@@ATL@@QAE@XZ ; ATL::CSimpleArray<unsigned short,ATL::CSimpleArrayEqualHelper<unsigned short> >::~CSimpleArray<unsigned short,ATL::CSimpleArrayEqualHelper<unsigned short> >
PUBLIC	?GetSize@?$CSimpleArray@GV?$CSimpleArrayEqualHelper@G@ATL@@@ATL@@QBEHXZ ; ATL::CSimpleArray<unsigned short,ATL::CSimpleArrayEqualHelper<unsigned short> >::GetSize
PUBLIC	?RemoveAll@?$CSimpleArray@GV?$CSimpleArrayEqualHelper@G@ATL@@@ATL@@QAEXXZ ; ATL::CSimpleArray<unsigned short,ATL::CSimpleArrayEqualHelper<unsigned short> >::RemoveAll
PUBLIC	??A?$CSimpleArray@GV?$CSimpleArrayEqualHelper@G@ATL@@@ATL@@QAEAAGH@Z ; ATL::CSimpleArray<unsigned short,ATL::CSimpleArrayEqualHelper<unsigned short> >::operator[]
PUBLIC	??0_ATL_WIN_MODULE70@ATL@@QAE@XZ		; ATL::_ATL_WIN_MODULE70::_ATL_WIN_MODULE70
PUBLIC	??1_ATL_WIN_MODULE70@ATL@@QAE@XZ		; ATL::_ATL_WIN_MODULE70::~_ATL_WIN_MODULE70
PUBLIC	?AtlWinModuleInit@ATL@@YGJPAU_ATL_WIN_MODULE70@1@@Z ; ATL::AtlWinModuleInit
PUBLIC	?AtlWinModuleTerm@ATL@@YGJPAU_ATL_WIN_MODULE70@1@PAUHINSTANCE__@@@Z ; ATL::AtlWinModuleTerm
PUBLIC	??0CAtlComModule@ATL@@QAE@XZ			; ATL::CAtlComModule::CAtlComModule
PUBLIC	??1CAtlComModule@ATL@@QAE@XZ			; ATL::CAtlComModule::~CAtlComModule
PUBLIC	?Term@CAtlComModule@ATL@@QAEXXZ			; ATL::CAtlComModule::Term
PUBLIC	??0CAtlWinModule@ATL@@QAE@XZ			; ATL::CAtlWinModule::CAtlWinModule
PUBLIC	??1CAtlWinModule@ATL@@QAE@XZ			; ATL::CAtlWinModule::~CAtlWinModule
PUBLIC	?Term@CAtlWinModule@ATL@@QAEXXZ			; ATL::CAtlWinModule::Term
PUBLIC	?_Hash_seq@std@@YAIPBEI@Z			; std::_Hash_seq
PUBLIC	?compare@?$char_traits@_W@std@@SAHQB_W0I@Z	; std::char_traits<wchar_t>::compare
PUBLIC	?length@?$char_traits@_W@std@@SAIQB_W@Z		; std::char_traits<wchar_t>::length
PUBLIC	?copy@?$char_traits@_W@std@@SAPA_WQA_WQB_WI@Z	; std::char_traits<wchar_t>::copy
PUBLIC	?find@?$char_traits@_W@std@@SAPB_WQB_WIAB_W@Z	; std::char_traits<wchar_t>::find
PUBLIC	?move@?$char_traits@_W@std@@SAPA_WQA_WQB_WI@Z	; std::char_traits<wchar_t>::move
PUBLIC	?assign@?$char_traits@_W@std@@SAXAA_WAB_W@Z	; std::char_traits<wchar_t>::assign
PUBLIC	?assign@?$char_traits@D@std@@SAXAADABD@Z	; std::char_traits<char>::assign
PUBLIC	?_Orphan_all@_Container_base0@std@@QAEXXZ	; std::_Container_base0::_Orphan_all
PUBLIC	?_Adopt@_Iterator_base0@std@@QAEXPBX@Z		; std::_Iterator_base0::_Adopt
PUBLIC	?_Getcont@_Iterator_base0@std@@QBEPBU_Container_base0@2@XZ ; std::_Iterator_base0::_Getcont
PUBLIC	??0_Container_proxy@std@@QAE@XZ			; std::_Container_proxy::_Container_proxy
PUBLIC	??0_Container_base12@std@@QAE@XZ		; std::_Container_base12::_Container_base12
PUBLIC	??1_Container_base12@std@@QAE@XZ		; std::_Container_base12::~_Container_base12
PUBLIC	?_Orphan_all@_Container_base12@std@@QAEXXZ	; std::_Container_base12::_Orphan_all
PUBLIC	??0_Iterator_base12@std@@QAE@XZ			; std::_Iterator_base12::_Iterator_base12
PUBLIC	??1_Iterator_base12@std@@QAE@XZ			; std::_Iterator_base12::~_Iterator_base12
PUBLIC	?_Adopt@_Iterator_base12@std@@QAEXPBU_Container_base12@2@@Z ; std::_Iterator_base12::_Adopt
PUBLIC	?_Getcont@_Iterator_base12@std@@QBEPBU_Container_base12@2@XZ ; std::_Iterator_base12::_Getcont
PUBLIC	?_Allocate@std@@YAPAXII_N@Z			; std::_Allocate
PUBLIC	?_Deallocate@std@@YAXPAXII@Z			; std::_Deallocate
PUBLIC	?deallocate@?$allocator@D@std@@QAEXPADI@Z	; std::allocator<char>::deallocate
PUBLIC	?deallocate@?$_Wrap_alloc@V?$allocator@D@std@@@std@@QAEXPADI@Z ; std::_Wrap_alloc<std::allocator<char> >::deallocate
PUBLIC	?_Myptr@?$_String_val@U?$_Simple_types@D@std@@@std@@QBEPBDXZ ; std::_String_val<std::_Simple_types<char> >::_Myptr
PUBLIC	?_Large_string_engaged@?$_String_val@U?$_Simple_types@D@std@@@std@@QBE_NXZ ; std::_String_val<std::_Simple_types<char> >::_Large_string_engaged
PUBLIC	??1_Bxty@?$_String_val@U?$_Simple_types@D@std@@@std@@QAE@XZ ; std::_String_val<std::_Simple_types<char> >::_Bxty::~_Bxty
PUBLIC	??1?$_String_val@U?$_Simple_types@D@std@@@std@@QAE@XZ ; std::_String_val<std::_Simple_types<char> >::~_String_val<std::_Simple_types<char> >
PUBLIC	?_Myptr@?$_String_alloc@U?$_String_base_types@DV?$allocator@D@std@@@std@@@std@@QBEPBDXZ ; std::_String_alloc<std::_String_base_types<char,std::allocator<char> > >::_Myptr
PUBLIC	?_Orphan_all@?$_String_alloc@U?$_String_base_types@DV?$allocator@D@std@@@std@@@std@@QAEXXZ ; std::_String_alloc<std::_String_base_types<char,std::allocator<char> > >::_Orphan_all
PUBLIC	?_Getal@?$_String_alloc@U?$_String_base_types@DV?$allocator@D@std@@@std@@@std@@QAEAAU?$_Wrap_alloc@V?$allocator@D@std@@@2@XZ ; std::_String_alloc<std::_String_base_types<char,std::allocator<char> > >::_Getal
PUBLIC	?_Get_data@?$_String_alloc@U?$_String_base_types@DV?$allocator@D@std@@@std@@@std@@QAEAAV?$_String_val@U?$_Simple_types@D@std@@@2@XZ ; std::_String_alloc<std::_String_base_types<char,std::allocator<char> > >::_Get_data
PUBLIC	?_Get_data@?$_String_alloc@U?$_String_base_types@DV?$allocator@D@std@@@std@@@std@@QBEABV?$_String_val@U?$_Simple_types@D@std@@@2@XZ ; std::_String_alloc<std::_String_base_types<char,std::allocator<char> > >::_Get_data
PUBLIC	?_Get_first@?$_Compressed_pair@U?$_Wrap_alloc@V?$allocator@D@std@@@std@@V?$_String_val@U?$_Simple_types@D@std@@@2@$00@std@@QAEAAU?$_Wrap_alloc@V?$allocator@D@std@@@2@XZ ; std::_Compressed_pair<std::_Wrap_alloc<std::allocator<char> >,std::_String_val<std::_Simple_types<char> >,1>::_Get_first
PUBLIC	?_Get_second@?$_Compressed_pair@U?$_Wrap_alloc@V?$allocator@D@std@@@std@@V?$_String_val@U?$_Simple_types@D@std@@@2@$00@std@@QAEAAV?$_String_val@U?$_Simple_types@D@std@@@2@XZ ; std::_Compressed_pair<std::_Wrap_alloc<std::allocator<char> >,std::_String_val<std::_Simple_types<char> >,1>::_Get_second
PUBLIC	?_Get_second@?$_Compressed_pair@U?$_Wrap_alloc@V?$allocator@D@std@@@std@@V?$_String_val@U?$_Simple_types@D@std@@@2@$00@std@@QBEABV?$_String_val@U?$_Simple_types@D@std@@@2@XZ ; std::_Compressed_pair<std::_Wrap_alloc<std::allocator<char> >,std::_String_val<std::_Simple_types<char> >,1>::_Get_second
PUBLIC	??1?$_Compressed_pair@U?$_Wrap_alloc@V?$allocator@D@std@@@std@@V?$_String_val@U?$_Simple_types@D@std@@@2@$00@std@@QAE@XZ ; std::_Compressed_pair<std::_Wrap_alloc<std::allocator<char> >,std::_String_val<std::_Simple_types<char> >,1>::~_Compressed_pair<std::_Wrap_alloc<std::allocator<char> >,std::_String_val<std::_Simple_types<char> >,1>
PUBLIC	??1?$_String_alloc@U?$_String_base_types@DV?$allocator@D@std@@@std@@@std@@QAE@XZ ; std::_String_alloc<std::_String_base_types<char,std::allocator<char> > >::~_String_alloc<std::_String_base_types<char,std::allocator<char> > >
PUBLIC	??1?$basic_string@DU?$char_traits@D@std@@V?$allocator@D@2@@std@@QAE@XZ ; std::basic_string<char,std::char_traits<char>,std::allocator<char> >::~basic_string<char,std::char_traits<char>,std::allocator<char> >
PUBLIC	?c_str@?$basic_string@DU?$char_traits@D@std@@V?$allocator@D@2@@std@@QBEPBDXZ ; std::basic_string<char,std::char_traits<char>,std::allocator<char> >::c_str
PUBLIC	?_Tidy_deallocate@?$basic_string@DU?$char_traits@D@std@@V?$allocator@D@2@@std@@QAEXXZ ; std::basic_string<char,std::char_traits<char>,std::allocator<char> >::_Tidy_deallocate
PUBLIC	??8type_info@@QBE_NABV0@@Z			; type_info::operator==
PUBLIC	??0?$allocator@_W@std@@QAE@XZ			; std::allocator<wchar_t>::allocator<wchar_t>
PUBLIC	??0?$allocator@_W@std@@QAE@ABV01@@Z		; std::allocator<wchar_t>::allocator<wchar_t>
PUBLIC	?deallocate@?$allocator@_W@std@@QAEXPA_WI@Z	; std::allocator<wchar_t>::deallocate
PUBLIC	?allocate@?$allocator@_W@std@@QAEPA_WI@Z	; std::allocator<wchar_t>::allocate
PUBLIC	?max_size@?$allocator@_W@std@@QBEIXZ		; std::allocator<wchar_t>::max_size
PUBLIC	?max_size@?$allocator_traits@V?$allocator@_W@std@@@std@@SAIABV?$allocator@_W@2@@Z ; std::allocator_traits<std::allocator<wchar_t> >::max_size
PUBLIC	??0?$_Wrap_alloc@V?$allocator@_W@std@@@std@@QAE@XZ ; std::_Wrap_alloc<std::allocator<wchar_t> >::_Wrap_alloc<std::allocator<wchar_t> >
PUBLIC	??0?$_Wrap_alloc@V?$allocator@_W@std@@@std@@QAE@$$QAU01@@Z ; std::_Wrap_alloc<std::allocator<wchar_t> >::_Wrap_alloc<std::allocator<wchar_t> >
PUBLIC	??4?$_Wrap_alloc@V?$allocator@_W@std@@@std@@QAEAAU01@$$QAU01@@Z ; std::_Wrap_alloc<std::allocator<wchar_t> >::operator=
PUBLIC	?allocate@?$_Wrap_alloc@V?$allocator@_W@std@@@std@@QAEPA_WI@Z ; std::_Wrap_alloc<std::allocator<wchar_t> >::allocate
PUBLIC	?deallocate@?$_Wrap_alloc@V?$allocator@_W@std@@@std@@QAEXPA_WI@Z ; std::_Wrap_alloc<std::allocator<wchar_t> >::deallocate
PUBLIC	?max_size@?$_Wrap_alloc@V?$allocator@_W@std@@@std@@QBEIU_Nil@2@@Z ; std::_Wrap_alloc<std::allocator<wchar_t> >::max_size
PUBLIC	??0?$_String_val@U?$_Simple_types@_W@std@@@std@@QAE@XZ ; std::_String_val<std::_Simple_types<wchar_t> >::_String_val<std::_Simple_types<wchar_t> >
PUBLIC	?_Myptr@?$_String_val@U?$_Simple_types@_W@std@@@std@@QAEPA_WXZ ; std::_String_val<std::_Simple_types<wchar_t> >::_Myptr
PUBLIC	?_Myptr@?$_String_val@U?$_Simple_types@_W@std@@@std@@QBEPB_WXZ ; std::_String_val<std::_Simple_types<wchar_t> >::_Myptr
PUBLIC	?_Large_string_engaged@?$_String_val@U?$_Simple_types@_W@std@@@std@@QBE_NXZ ; std::_String_val<std::_Simple_types<wchar_t> >::_Large_string_engaged
PUBLIC	??0_Bxty@?$_String_val@U?$_Simple_types@_W@std@@@std@@QAE@XZ ; std::_String_val<std::_Simple_types<wchar_t> >::_Bxty::_Bxty
PUBLIC	??1_Bxty@?$_String_val@U?$_Simple_types@_W@std@@@std@@QAE@XZ ; std::_String_val<std::_Simple_types<wchar_t> >::_Bxty::~_Bxty
PUBLIC	??1?$_String_val@U?$_Simple_types@_W@std@@@std@@QAE@XZ ; std::_String_val<std::_Simple_types<wchar_t> >::~_String_val<std::_Simple_types<wchar_t> >
PUBLIC	?_Myptr@?$_String_alloc@U?$_String_base_types@_WV?$allocator@_W@std@@@std@@@std@@QAEPA_WXZ ; std::_String_alloc<std::_String_base_types<wchar_t,std::allocator<wchar_t> > >::_Myptr
PUBLIC	?_Myptr@?$_String_alloc@U?$_String_base_types@_WV?$allocator@_W@std@@@std@@@std@@QBEPB_WXZ ; std::_String_alloc<std::_String_base_types<wchar_t,std::allocator<wchar_t> > >::_Myptr
PUBLIC	??0?$_String_alloc@U?$_String_base_types@_WV?$allocator@_W@std@@@std@@@std@@QAE@XZ ; std::_String_alloc<std::_String_base_types<wchar_t,std::allocator<wchar_t> > >::_String_alloc<std::_String_base_types<wchar_t,std::allocator<wchar_t> > >
PUBLIC	?_Move_alloc@?$_String_alloc@U?$_String_base_types@_WV?$allocator@_W@std@@@std@@@std@@QAEXAAU?$_Wrap_alloc@V?$allocator@_W@std@@@2@@Z ; std::_String_alloc<std::_String_base_types<wchar_t,std::allocator<wchar_t> > >::_Move_alloc
PUBLIC	?_Orphan_all@?$_String_alloc@U?$_String_base_types@_WV?$allocator@_W@std@@@std@@@std@@QAEXXZ ; std::_String_alloc<std::_String_base_types<wchar_t,std::allocator<wchar_t> > >::_Orphan_all
PUBLIC	?_Getal@?$_String_alloc@U?$_String_base_types@_WV?$allocator@_W@std@@@std@@@std@@QAEAAU?$_Wrap_alloc@V?$allocator@_W@std@@@2@XZ ; std::_String_alloc<std::_String_base_types<wchar_t,std::allocator<wchar_t> > >::_Getal
PUBLIC	?_Getal@?$_String_alloc@U?$_String_base_types@_WV?$allocator@_W@std@@@std@@@std@@QBEABU?$_Wrap_alloc@V?$allocator@_W@std@@@2@XZ ; std::_String_alloc<std::_String_base_types<wchar_t,std::allocator<wchar_t> > >::_Getal
PUBLIC	?_Get_data@?$_String_alloc@U?$_String_base_types@_WV?$allocator@_W@std@@@std@@@std@@QAEAAV?$_String_val@U?$_Simple_types@_W@std@@@2@XZ ; std::_String_alloc<std::_String_base_types<wchar_t,std::allocator<wchar_t> > >::_Get_data
PUBLIC	?_Get_data@?$_String_alloc@U?$_String_base_types@_WV?$allocator@_W@std@@@std@@@std@@QBEABV?$_String_val@U?$_Simple_types@_W@std@@@2@XZ ; std::_String_alloc<std::_String_base_types<wchar_t,std::allocator<wchar_t> > >::_Get_data
PUBLIC	?_Mysize@?$_String_alloc@U?$_String_base_types@_WV?$allocator@_W@std@@@std@@@std@@QAEAAIXZ ; std::_String_alloc<std::_String_base_types<wchar_t,std::allocator<wchar_t> > >::_Mysize
PUBLIC	?_Mysize@?$_String_alloc@U?$_String_base_types@_WV?$allocator@_W@std@@@std@@@std@@QBEABIXZ ; std::_String_alloc<std::_String_base_types<wchar_t,std::allocator<wchar_t> > >::_Mysize
PUBLIC	?_Myres@?$_String_alloc@U?$_String_base_types@_WV?$allocator@_W@std@@@std@@@std@@QAEAAIXZ ; std::_String_alloc<std::_String_base_types<wchar_t,std::allocator<wchar_t> > >::_Myres
PUBLIC	?_Get_first@?$_Compressed_pair@U?$_Wrap_alloc@V?$allocator@_W@std@@@std@@V?$_String_val@U?$_Simple_types@_W@std@@@2@$00@std@@QAEAAU?$_Wrap_alloc@V?$allocator@_W@std@@@2@XZ ; std::_Compressed_pair<std::_Wrap_alloc<std::allocator<wchar_t> >,std::_String_val<std::_Simple_types<wchar_t> >,1>::_Get_first
PUBLIC	?_Get_first@?$_Compressed_pair@U?$_Wrap_alloc@V?$allocator@_W@std@@@std@@V?$_String_val@U?$_Simple_types@_W@std@@@2@$00@std@@QBEABU?$_Wrap_alloc@V?$allocator@_W@std@@@2@XZ ; std::_Compressed_pair<std::_Wrap_alloc<std::allocator<wchar_t> >,std::_String_val<std::_Simple_types<wchar_t> >,1>::_Get_first
PUBLIC	?_Get_second@?$_Compressed_pair@U?$_Wrap_alloc@V?$allocator@_W@std@@@std@@V?$_String_val@U?$_Simple_types@_W@std@@@2@$00@std@@QAEAAV?$_String_val@U?$_Simple_types@_W@std@@@2@XZ ; std::_Compressed_pair<std::_Wrap_alloc<std::allocator<wchar_t> >,std::_String_val<std::_Simple_types<wchar_t> >,1>::_Get_second
PUBLIC	?_Get_second@?$_Compressed_pair@U?$_Wrap_alloc@V?$allocator@_W@std@@@std@@V?$_String_val@U?$_Simple_types@_W@std@@@2@$00@std@@QBEABV?$_String_val@U?$_Simple_types@_W@std@@@2@XZ ; std::_Compressed_pair<std::_Wrap_alloc<std::allocator<wchar_t> >,std::_String_val<std::_Simple_types<wchar_t> >,1>::_Get_second
PUBLIC	??1?$_Compressed_pair@U?$_Wrap_alloc@V?$allocator@_W@std@@@std@@V?$_String_val@U?$_Simple_types@_W@std@@@2@$00@std@@QAE@XZ ; std::_Compressed_pair<std::_Wrap_alloc<std::allocator<wchar_t> >,std::_String_val<std::_Simple_types<wchar_t> >,1>::~_Compressed_pair<std::_Wrap_alloc<std::allocator<wchar_t> >,std::_String_val<std::_Simple_types<wchar_t> >,1>
PUBLIC	??1?$_String_alloc@U?$_String_base_types@_WV?$allocator@_W@std@@@std@@@std@@QAE@XZ ; std::_String_alloc<std::_String_base_types<wchar_t,std::allocator<wchar_t> > >::~_String_alloc<std::_String_base_types<wchar_t,std::allocator<wchar_t> > >
PUBLIC	??0?$basic_string@_WU?$char_traits@_W@std@@V?$allocator@_W@2@@std@@QAE@QB_W@Z ; std::basic_string<wchar_t,std::char_traits<wchar_t>,std::allocator<wchar_t> >::basic_string<wchar_t,std::char_traits<wchar_t>,std::allocator<wchar_t> >
PUBLIC	??0?$basic_string@_WU?$char_traits@_W@std@@V?$allocator@_W@2@@std@@QAE@$$QAV01@@Z ; std::basic_string<wchar_t,std::char_traits<wchar_t>,std::allocator<wchar_t> >::basic_string<wchar_t,std::char_traits<wchar_t>,std::allocator<wchar_t> >
PUBLIC	??4?$basic_string@_WU?$char_traits@_W@std@@V?$allocator@_W@2@@std@@QAEAAV01@$$QAV01@@Z ; std::basic_string<wchar_t,std::char_traits<wchar_t>,std::allocator<wchar_t> >::operator=
PUBLIC	?_Assign_rv_contents@?$basic_string@_WU?$char_traits@_W@std@@V?$allocator@_W@2@@std@@QAEX$$QAV12@U?$integral_constant@_N$00@2@@Z ; std::basic_string<wchar_t,std::char_traits<wchar_t>,std::allocator<wchar_t> >::_Assign_rv_contents
PUBLIC	?_Assign_rv_contents_with_alloc_always_equal@?$basic_string@_WU?$char_traits@_W@std@@V?$allocator@_W@2@@std@@QAEX$$QAV12@U?$integral_constant@_N$00@2@@Z ; std::basic_string<wchar_t,std::char_traits<wchar_t>,std::allocator<wchar_t> >::_Assign_rv_contents_with_alloc_always_equal
PUBLIC	??1?$basic_string@_WU?$char_traits@_W@std@@V?$allocator@_W@2@@std@@QAE@XZ ; std::basic_string<wchar_t,std::char_traits<wchar_t>,std::allocator<wchar_t> >::~basic_string<wchar_t,std::char_traits<wchar_t>,std::allocator<wchar_t> >
PUBLIC	??4?$basic_string@_WU?$char_traits@_W@std@@V?$allocator@_W@2@@std@@QAEAAV01@QB_W@Z ; std::basic_string<wchar_t,std::char_traits<wchar_t>,std::allocator<wchar_t> >::operator=
PUBLIC	??Y?$basic_string@_WU?$char_traits@_W@std@@V?$allocator@_W@2@@std@@QAEAAV01@QB_W@Z ; std::basic_string<wchar_t,std::char_traits<wchar_t>,std::allocator<wchar_t> >::operator+=
PUBLIC	?append@?$basic_string@_WU?$char_traits@_W@std@@V?$allocator@_W@2@@std@@QAEAAV12@ABV12@II@Z ; std::basic_string<wchar_t,std::char_traits<wchar_t>,std::allocator<wchar_t> >::append
PUBLIC	?append@?$basic_string@_WU?$char_traits@_W@std@@V?$allocator@_W@2@@std@@QAEAAV12@QB_WI@Z ; std::basic_string<wchar_t,std::char_traits<wchar_t>,std::allocator<wchar_t> >::append
PUBLIC	?append@?$basic_string@_WU?$char_traits@_W@std@@V?$allocator@_W@2@@std@@QAEAAV12@QB_W@Z ; std::basic_string<wchar_t,std::char_traits<wchar_t>,std::allocator<wchar_t> >::append
PUBLIC	?assign@?$basic_string@_WU?$char_traits@_W@std@@V?$allocator@_W@2@@std@@QAEAAV12@ABV12@II@Z ; std::basic_string<wchar_t,std::char_traits<wchar_t>,std::allocator<wchar_t> >::assign
PUBLIC	?assign@?$basic_string@_WU?$char_traits@_W@std@@V?$allocator@_W@2@@std@@QAEAAV12@QB_WI@Z ; std::basic_string<wchar_t,std::char_traits<wchar_t>,std::allocator<wchar_t> >::assign
PUBLIC	?assign@?$basic_string@_WU?$char_traits@_W@std@@V?$allocator@_W@2@@std@@QAEAAV12@QB_W@Z ; std::basic_string<wchar_t,std::char_traits<wchar_t>,std::allocator<wchar_t> >::assign
PUBLIC	?erase@?$basic_string@_WU?$char_traits@_W@std@@V?$allocator@_W@2@@std@@QAEAAV12@I@Z ; std::basic_string<wchar_t,std::char_traits<wchar_t>,std::allocator<wchar_t> >::erase
PUBLIC	?erase@?$basic_string@_WU?$char_traits@_W@std@@V?$allocator@_W@2@@std@@QAEAAV12@II@Z ; std::basic_string<wchar_t,std::char_traits<wchar_t>,std::allocator<wchar_t> >::erase
PUBLIC	?c_str@?$basic_string@_WU?$char_traits@_W@std@@V?$allocator@_W@2@@std@@QBEPB_WXZ ; std::basic_string<wchar_t,std::char_traits<wchar_t>,std::allocator<wchar_t> >::c_str
PUBLIC	?length@?$basic_string@_WU?$char_traits@_W@std@@V?$allocator@_W@2@@std@@QBEIXZ ; std::basic_string<wchar_t,std::char_traits<wchar_t>,std::allocator<wchar_t> >::length
PUBLIC	?max_size@?$basic_string@_WU?$char_traits@_W@std@@V?$allocator@_W@2@@std@@QBEIXZ ; std::basic_string<wchar_t,std::char_traits<wchar_t>,std::allocator<wchar_t> >::max_size
PUBLIC	?find@?$basic_string@_WU?$char_traits@_W@std@@V?$allocator@_W@2@@std@@QBEIQB_WI@Z ; std::basic_string<wchar_t,std::char_traits<wchar_t>,std::allocator<wchar_t> >::find
PUBLIC	?_Clamp_suffix_size@?$basic_string@_WU?$char_traits@_W@std@@V?$allocator@_W@2@@std@@QBEIII@Z ; std::basic_string<wchar_t,std::char_traits<wchar_t>,std::allocator<wchar_t> >::_Clamp_suffix_size
PUBLIC	?_Equal@?$basic_string@_WU?$char_traits@_W@std@@V?$allocator@_W@2@@std@@QBE_NQB_W@Z ; std::basic_string<wchar_t,std::char_traits<wchar_t>,std::allocator<wchar_t> >::_Equal
PUBLIC	?_Copy@?$basic_string@_WU?$char_traits@_W@std@@V?$allocator@_W@2@@std@@QAEXI@Z ; std::basic_string<wchar_t,std::char_traits<wchar_t>,std::allocator<wchar_t> >::_Copy
PUBLIC	?_Eos@?$basic_string@_WU?$char_traits@_W@std@@V?$allocator@_W@2@@std@@QAEXI@Z ; std::basic_string<wchar_t,std::char_traits<wchar_t>,std::allocator<wchar_t> >::_Eos
PUBLIC	?_Grow@?$basic_string@_WU?$char_traits@_W@std@@V?$allocator@_W@2@@std@@QAE_NI@Z ; std::basic_string<wchar_t,std::char_traits<wchar_t>,std::allocator<wchar_t> >::_Grow
PUBLIC	?_Inside@?$basic_string@_WU?$char_traits@_W@std@@V?$allocator@_W@2@@std@@QBE_NQB_W@Z ; std::basic_string<wchar_t,std::char_traits<wchar_t>,std::allocator<wchar_t> >::_Inside
PUBLIC	?_Tidy_init@?$basic_string@_WU?$char_traits@_W@std@@V?$allocator@_W@2@@std@@QAEXXZ ; std::basic_string<wchar_t,std::char_traits<wchar_t>,std::allocator<wchar_t> >::_Tidy_init
PUBLIC	?_Tidy_deallocate@?$basic_string@_WU?$char_traits@_W@std@@V?$allocator@_W@2@@std@@QAEXXZ ; std::basic_string<wchar_t,std::char_traits<wchar_t>,std::allocator<wchar_t> >::_Tidy_deallocate
PUBLIC	?_Xlen@?$basic_string@_WU?$char_traits@_W@std@@V?$allocator@_W@2@@std@@SAXXZ ; std::basic_string<wchar_t,std::char_traits<wchar_t>,std::allocator<wchar_t> >::_Xlen
PUBLIC	?_Check_offset@?$basic_string@_WU?$char_traits@_W@std@@V?$allocator@_W@2@@std@@QBEXI@Z ; std::basic_string<wchar_t,std::char_traits<wchar_t>,std::allocator<wchar_t> >::_Check_offset
PUBLIC	?_Xran@?$basic_string@_WU?$char_traits@_W@std@@V?$allocator@_W@2@@std@@SAXXZ ; std::basic_string<wchar_t,std::char_traits<wchar_t>,std::allocator<wchar_t> >::_Xran
PUBLIC	??0type_index@std@@QAE@ABVtype_info@@@Z		; std::type_index::type_index
PUBLIC	??8type_index@std@@QBE_NABV01@@Z		; std::type_index::operator==
PUBLIC	?lock@SK_Thread_CriticalSection@@QAEXXZ		; SK_Thread_CriticalSection::lock
PUBLIC	?unlock@SK_Thread_CriticalSection@@QAEXXZ	; SK_Thread_CriticalSection::unlock
PUBLIC	?SK_RaptrWarn@@YGKPAX@Z				; SK_RaptrWarn
PUBLIC	?SK_ValidateGlobalRTSSProfile@@YGHXZ		; SK_ValidateGlobalRTSSProfile
PUBLIC	??0sk_loader_hooks_t@@QAE@XZ			; sk_loader_hooks_t::sk_loader_hooks_t
PUBLIC	?FreeLibrary_Detour@@YGHPAUHINSTANCE__@@@Z	; FreeLibrary_Detour
PUBLIC	??$?8_WU?$char_traits@_W@std@@V?$allocator@_W@1@@std@@YA_NABV?$basic_string@_WU?$char_traits@_W@std@@V?$allocator@_W@2@@0@QB_W@Z ; std::operator==<wchar_t,std::char_traits<wchar_t>,std::allocator<wchar_t> >
PUBLIC	?LoadLibraryA_Detour@@YGPAUHINSTANCE__@@PBD@Z	; LoadLibraryA_Detour
PUBLIC	??$BlacklistLibrary@D@@YGHPBD@Z			; BlacklistLibrary<char>
PUBLIC	??$SK_TraceLoadLibrary@D@@YGXPAUHINSTANCE__@@PBD1PAX@Z ; SK_TraceLoadLibrary<char>
PUBLIC	?LoadLibraryW_Detour@@YGPAUHINSTANCE__@@PB_W@Z	; LoadLibraryW_Detour
PUBLIC	??$BlacklistLibrary@_W@@YGHPB_W@Z		; BlacklistLibrary<wchar_t>
PUBLIC	??$SK_TraceLoadLibrary@_W@@YGXPAUHINSTANCE__@@PB_W1PAX@Z ; SK_TraceLoadLibrary<wchar_t>
PUBLIC	?LoadPackagedLibrary_Detour@@YGPAUHINSTANCE__@@PB_WK@Z ; LoadPackagedLibrary_Detour
PUBLIC	?LoadLibraryExA_Detour@@YGPAUHINSTANCE__@@PBDPAXK@Z ; LoadLibraryExA_Detour
PUBLIC	?LoadLibraryExW_Detour@@YGPAUHINSTANCE__@@PB_WPAXK@Z ; LoadLibraryExW_Detour
PUBLIC	??0<unnamed-type-overlays>@SK_ThirdPartyDLLs@@QAE@XZ ; SK_ThirdPartyDLLs::<unnamed-type-overlays>::<unnamed-type-overlays>
PUBLIC	??0<unnamed-type-misc>@SK_ThirdPartyDLLs@@QAE@XZ ; SK_ThirdPartyDLLs::<unnamed-type-misc>::<unnamed-type-misc>
PUBLIC	??0SK_ThirdPartyDLLs@@QAE@XZ			; SK_ThirdPartyDLLs::SK_ThirdPartyDLLs
PUBLIC	?SK_CheckForGeDoSaTo@@YG_NXZ			; SK_CheckForGeDoSaTo
PUBLIC	??$static_cast_p2p@X$$A6GPAUHINSTANCE__@@PBD@Z@@YAPAPAXPAP6GPAUHINSTANCE__@@PBD@Z@Z ; static_cast_p2p<void,HINSTANCE__ * __stdcall(char const *)>
PUBLIC	??$static_cast_p2p@X$$A6GPAUHINSTANCE__@@PB_W@Z@@YAPAPAXPAP6GPAUHINSTANCE__@@PB_W@Z@Z ; static_cast_p2p<void,HINSTANCE__ * __stdcall(wchar_t const *)>
PUBLIC	??$static_cast_p2p@X$$A6GPAUHINSTANCE__@@PB_WK@Z@@YAPAPAXPAP6GPAUHINSTANCE__@@PB_WK@Z@Z ; static_cast_p2p<void,HINSTANCE__ * __stdcall(wchar_t const *,unsigned long)>
PUBLIC	??$static_cast_p2p@X$$A6GPAUHINSTANCE__@@PBDPAXK@Z@@YAPAPAXPAP6GPAUHINSTANCE__@@PBDPAXK@Z@Z ; static_cast_p2p<void,HINSTANCE__ * __stdcall(char const *,void *,unsigned long)>
PUBLIC	??$static_cast_p2p@X$$A6GPAUHINSTANCE__@@PB_WPAXK@Z@@YAPAPAXPAP6GPAUHINSTANCE__@@PB_WPAXK@Z@Z ; static_cast_p2p<void,HINSTANCE__ * __stdcall(wchar_t const *,void *,unsigned long)>
PUBLIC	??0enum_working_set_s@@QAE@XZ			; enum_working_set_s::enum_working_set_s
PUBLIC	??0?$_Uhash_compare@PAUHINSTANCE__@@U?$hash@PAUHINSTANCE__@@@std@@U?$equal_to@PAUHINSTANCE__@@@3@@std@@QAE@U?$hash@PAUHINSTANCE__@@@1@U?$equal_to@PAUHINSTANCE__@@@1@@Z ; std::_Uhash_compare<HINSTANCE__ *,std::hash<HINSTANCE__ *>,std::equal_to<HINSTANCE__ *> >::_Uhash_compare<HINSTANCE__ *,std::hash<HINSTANCE__ *>,std::equal_to<HINSTANCE__ *> >
PUBLIC	??R?$_Uhash_compare@PAUHINSTANCE__@@U?$hash@PAUHINSTANCE__@@@std@@U?$equal_to@PAUHINSTANCE__@@@3@@std@@QBEIABQAUHINSTANCE__@@@Z ; std::_Uhash_compare<HINSTANCE__ *,std::hash<HINSTANCE__ *>,std::equal_to<HINSTANCE__ *> >::operator()
PUBLIC	??R?$_Uhash_compare@PAUHINSTANCE__@@U?$hash@PAUHINSTANCE__@@@std@@U?$equal_to@PAUHINSTANCE__@@@3@@std@@QBE_NABQAUHINSTANCE__@@0@Z ; std::_Uhash_compare<HINSTANCE__ *,std::hash<HINSTANCE__ *>,std::equal_to<HINSTANCE__ *> >::operator()
PUBLIC	?_Gethash@?$_Uhash_compare@PAUHINSTANCE__@@U?$hash@PAUHINSTANCE__@@@std@@U?$equal_to@PAUHINSTANCE__@@@3@@std@@QBEABU?$hash@PAUHINSTANCE__@@@2@XZ ; std::_Uhash_compare<HINSTANCE__ *,std::hash<HINSTANCE__ *>,std::equal_to<HINSTANCE__ *> >::_Gethash
PUBLIC	?_Getkeyeq@?$_Uhash_compare@PAUHINSTANCE__@@U?$hash@PAUHINSTANCE__@@@std@@U?$equal_to@PAUHINSTANCE__@@@3@@std@@QBEABU?$equal_to@PAUHINSTANCE__@@@2@XZ ; std::_Uhash_compare<HINSTANCE__ *,std::hash<HINSTANCE__ *>,std::equal_to<HINSTANCE__ *> >::_Getkeyeq
PUBLIC	?_Get_max_bucket_size@?$_Uhash_compare@PAUHINSTANCE__@@U?$hash@PAUHINSTANCE__@@@std@@U?$equal_to@PAUHINSTANCE__@@@3@@std@@QAEAAMXZ ; std::_Uhash_compare<HINSTANCE__ *,std::hash<HINSTANCE__ *>,std::equal_to<HINSTANCE__ *> >::_Get_max_bucket_size
PUBLIC	?_Get_max_bucket_size@?$_Uhash_compare@PAUHINSTANCE__@@U?$hash@PAUHINSTANCE__@@@std@@U?$equal_to@PAUHINSTANCE__@@@3@@std@@QBEABMXZ ; std::_Uhash_compare<HINSTANCE__ *,std::hash<HINSTANCE__ *>,std::equal_to<HINSTANCE__ *> >::_Get_max_bucket_size
PUBLIC	??R?$equal_to@PAUHINSTANCE__@@@std@@QBE_NABQAUHINSTANCE__@@0@Z ; std::equal_to<HINSTANCE__ *>::operator()
PUBLIC	??R?$_Bitwise_hash@PAUHINSTANCE__@@@std@@QBEIABQAUHINSTANCE__@@@Z ; std::_Bitwise_hash<HINSTANCE__ *>::operator()
PUBLIC	?_Get_first@?$_Compressed_pair@U?$equal_to@PAUHINSTANCE__@@@std@@M$00@std@@QBEABU?$equal_to@PAUHINSTANCE__@@@2@XZ ; std::_Compressed_pair<std::equal_to<HINSTANCE__ *>,float,1>::_Get_first
PUBLIC	?_Get_second@?$_Compressed_pair@U?$equal_to@PAUHINSTANCE__@@@std@@M$00@std@@QAEAAMXZ ; std::_Compressed_pair<std::equal_to<HINSTANCE__ *>,float,1>::_Get_second
PUBLIC	?_Get_second@?$_Compressed_pair@U?$equal_to@PAUHINSTANCE__@@@std@@M$00@std@@QBEABMXZ ; std::_Compressed_pair<std::equal_to<HINSTANCE__ *>,float,1>::_Get_second
PUBLIC	?_Get_first@?$_Compressed_pair@U?$hash@PAUHINSTANCE__@@@std@@V?$_Compressed_pair@U?$equal_to@PAUHINSTANCE__@@@std@@M$00@2@$00@std@@QBEABU?$hash@PAUHINSTANCE__@@@2@XZ ; std::_Compressed_pair<std::hash<HINSTANCE__ *>,std::_Compressed_pair<std::equal_to<HINSTANCE__ *>,float,1>,1>::_Get_first
PUBLIC	?_Get_second@?$_Compressed_pair@U?$hash@PAUHINSTANCE__@@@std@@V?$_Compressed_pair@U?$equal_to@PAUHINSTANCE__@@@std@@M$00@2@$00@std@@QAEAAV?$_Compressed_pair@U?$equal_to@PAUHINSTANCE__@@@std@@M$00@2@XZ ; std::_Compressed_pair<std::hash<HINSTANCE__ *>,std::_Compressed_pair<std::equal_to<HINSTANCE__ *>,float,1>,1>::_Get_second
PUBLIC	?_Get_second@?$_Compressed_pair@U?$hash@PAUHINSTANCE__@@@std@@V?$_Compressed_pair@U?$equal_to@PAUHINSTANCE__@@@std@@M$00@2@$00@std@@QBEABV?$_Compressed_pair@U?$equal_to@PAUHINSTANCE__@@@std@@M$00@2@XZ ; std::_Compressed_pair<std::hash<HINSTANCE__ *>,std::_Compressed_pair<std::equal_to<HINSTANCE__ *>,float,1>,1>::_Get_second
PUBLIC	??0?$_Uset_traits@PAUHINSTANCE__@@V?$_Uhash_compare@PAUHINSTANCE__@@U?$hash@PAUHINSTANCE__@@@std@@U?$equal_to@PAUHINSTANCE__@@@3@@std@@V?$allocator@PAUHINSTANCE__@@@3@$0A@@std@@QAE@ABV?$_Uhash_compare@PAUHINSTANCE__@@U?$hash@PAUHINSTANCE__@@@std@@U?$equal_to@PAUHINSTANCE__@@@3@@1@@Z ; std::_Uset_traits<HINSTANCE__ *,std::_Uhash_compare<HINSTANCE__ *,std::hash<HINSTANCE__ *>,std::equal_to<HINSTANCE__ *> >,std::allocator<HINSTANCE__ *>,0>::_Uset_traits<HINSTANCE__ *,std::_Uhash_compare<HINSTANCE__ *,std::hash<HINSTANCE__ *>,std::equal_to<HINSTANCE__ *> >,std::allocator<HINSTANCE__ *>,0>
PUBLIC	?_Kfn@?$_Uset_traits@PAUHINSTANCE__@@V?$_Uhash_compare@PAUHINSTANCE__@@U?$hash@PAUHINSTANCE__@@@std@@U?$equal_to@PAUHINSTANCE__@@@3@@std@@V?$allocator@PAUHINSTANCE__@@@3@$0A@@std@@SAABQAUHINSTANCE__@@ABQAU3@@Z ; std::_Uset_traits<HINSTANCE__ *,std::_Uhash_compare<HINSTANCE__ *,std::hash<HINSTANCE__ *>,std::equal_to<HINSTANCE__ *> >,std::allocator<HINSTANCE__ *>,0>::_Kfn
PUBLIC	??0?$allocator@PAUHINSTANCE__@@@std@@QAE@XZ	; std::allocator<HINSTANCE__ *>::allocator<HINSTANCE__ *>
PUBLIC	?deallocate@?$allocator@U?$_List_node@PAUHINSTANCE__@@PAX@std@@@std@@QAEXPAU?$_List_node@PAUHINSTANCE__@@PAX@2@I@Z ; std::allocator<std::_List_node<HINSTANCE__ *,void *> >::deallocate
PUBLIC	?allocate@?$allocator@U?$_List_node@PAUHINSTANCE__@@PAX@std@@@std@@QAEPAU?$_List_node@PAUHINSTANCE__@@PAX@2@I@Z ; std::allocator<std::_List_node<HINSTANCE__ *,void *> >::allocate
PUBLIC	?max_size@?$allocator@U?$_List_node@PAUHINSTANCE__@@PAX@std@@@std@@QBEIXZ ; std::allocator<std::_List_node<HINSTANCE__ *,void *> >::max_size
PUBLIC	?max_size@?$allocator_traits@V?$allocator@U?$_List_node@PAUHINSTANCE__@@PAX@std@@@std@@@std@@SAIABV?$allocator@U?$_List_node@PAUHINSTANCE__@@PAX@std@@@2@@Z ; std::allocator_traits<std::allocator<std::_List_node<HINSTANCE__ *,void *> > >::max_size
PUBLIC	?allocate@?$_Wrap_alloc@V?$allocator@U?$_List_node@PAUHINSTANCE__@@PAX@std@@@std@@@std@@QAEPAU?$_List_node@PAUHINSTANCE__@@PAX@2@I@Z ; std::_Wrap_alloc<std::allocator<std::_List_node<HINSTANCE__ *,void *> > >::allocate
PUBLIC	?deallocate@?$_Wrap_alloc@V?$allocator@U?$_List_node@PAUHINSTANCE__@@PAX@std@@@std@@@std@@QAEXPAU?$_List_node@PAUHINSTANCE__@@PAX@2@I@Z ; std::_Wrap_alloc<std::allocator<std::_List_node<HINSTANCE__ *,void *> > >::deallocate
PUBLIC	?max_size@?$_Wrap_alloc@V?$allocator@U?$_List_node@PAUHINSTANCE__@@PAX@std@@@std@@@std@@QBEIU_Nil@2@@Z ; std::_Wrap_alloc<std::allocator<std::_List_node<HINSTANCE__ *,void *> > >::max_size
PUBLIC	?_Nextnode@?$_List_alloc@U?$_List_base_types@PAUHINSTANCE__@@V?$allocator@PAUHINSTANCE__@@@std@@@std@@@std@@SAAAPAU?$_List_node@PAUHINSTANCE__@@PAX@2@PAU32@@Z ; std::_List_alloc<std::_List_base_types<HINSTANCE__ *,std::allocator<HINSTANCE__ *> > >::_Nextnode
PUBLIC	?_Prevnode@?$_List_alloc@U?$_List_base_types@PAUHINSTANCE__@@V?$allocator@PAUHINSTANCE__@@@std@@@std@@@std@@SAAAPAU?$_List_node@PAUHINSTANCE__@@PAX@2@PAU32@@Z ; std::_List_alloc<std::_List_base_types<HINSTANCE__ *,std::allocator<HINSTANCE__ *> > >::_Prevnode
PUBLIC	?_Myval@?$_List_alloc@U?$_List_base_types@PAUHINSTANCE__@@V?$allocator@PAUHINSTANCE__@@@std@@@std@@@std@@SAAAPAUHINSTANCE__@@PAU?$_List_node@PAUHINSTANCE__@@PAX@2@@Z ; std::_List_alloc<std::_List_base_types<HINSTANCE__ *,std::allocator<HINSTANCE__ *> > >::_Myval
PUBLIC	??1?$_List_alloc@U?$_List_base_types@PAUHINSTANCE__@@V?$allocator@PAUHINSTANCE__@@@std@@@std@@@std@@QAE@XZ ; std::_List_alloc<std::_List_base_types<HINSTANCE__ *,std::allocator<HINSTANCE__ *> > >::~_List_alloc<std::_List_base_types<HINSTANCE__ *,std::allocator<HINSTANCE__ *> > >
PUBLIC	?_Buyheadnode@?$_List_alloc@U?$_List_base_types@PAUHINSTANCE__@@V?$allocator@PAUHINSTANCE__@@@std@@@std@@@std@@QAEPAU?$_List_node@PAUHINSTANCE__@@PAX@2@XZ ; std::_List_alloc<std::_List_base_types<HINSTANCE__ *,std::allocator<HINSTANCE__ *> > >::_Buyheadnode
PUBLIC	?_Freeheadnode@?$_List_alloc@U?$_List_base_types@PAUHINSTANCE__@@V?$allocator@PAUHINSTANCE__@@@std@@@std@@@std@@QAEXPAU?$_List_node@PAUHINSTANCE__@@PAX@2@@Z ; std::_List_alloc<std::_List_base_types<HINSTANCE__ *,std::allocator<HINSTANCE__ *> > >::_Freeheadnode
PUBLIC	?_Buynode0@?$_List_alloc@U?$_List_base_types@PAUHINSTANCE__@@V?$allocator@PAUHINSTANCE__@@@std@@@std@@@std@@QAEPAU?$_List_node@PAUHINSTANCE__@@PAX@2@PAU32@0@Z ; std::_List_alloc<std::_List_base_types<HINSTANCE__ *,std::allocator<HINSTANCE__ *> > >::_Buynode0
PUBLIC	?_Getal@?$_List_alloc@U?$_List_base_types@PAUHINSTANCE__@@V?$allocator@PAUHINSTANCE__@@@std@@@std@@@std@@QAEAAU?$_Wrap_alloc@V?$allocator@U?$_List_node@PAUHINSTANCE__@@PAX@std@@@std@@@2@XZ ; std::_List_alloc<std::_List_base_types<HINSTANCE__ *,std::allocator<HINSTANCE__ *> > >::_Getal
PUBLIC	?_Getal@?$_List_alloc@U?$_List_base_types@PAUHINSTANCE__@@V?$allocator@PAUHINSTANCE__@@@std@@@std@@@std@@QBEABU?$_Wrap_alloc@V?$allocator@U?$_List_node@PAUHINSTANCE__@@PAX@std@@@std@@@2@XZ ; std::_List_alloc<std::_List_base_types<HINSTANCE__ *,std::allocator<HINSTANCE__ *> > >::_Getal
PUBLIC	?_Get_data@?$_List_alloc@U?$_List_base_types@PAUHINSTANCE__@@V?$allocator@PAUHINSTANCE__@@@std@@@std@@@std@@QAEAAV?$_List_val@U?$_List_simple_types@PAUHINSTANCE__@@@std@@@2@XZ ; std::_List_alloc<std::_List_base_types<HINSTANCE__ *,std::allocator<HINSTANCE__ *> > >::_Get_data
PUBLIC	?_Get_data@?$_List_alloc@U?$_List_base_types@PAUHINSTANCE__@@V?$allocator@PAUHINSTANCE__@@@std@@@std@@@std@@QBEABV?$_List_val@U?$_List_simple_types@PAUHINSTANCE__@@@std@@@2@XZ ; std::_List_alloc<std::_List_base_types<HINSTANCE__ *,std::allocator<HINSTANCE__ *> > >::_Get_data
PUBLIC	?_Myhead@?$_List_alloc@U?$_List_base_types@PAUHINSTANCE__@@V?$allocator@PAUHINSTANCE__@@@std@@@std@@@std@@QAEAAPAU?$_List_node@PAUHINSTANCE__@@PAX@2@XZ ; std::_List_alloc<std::_List_base_types<HINSTANCE__ *,std::allocator<HINSTANCE__ *> > >::_Myhead
PUBLIC	?_Myhead@?$_List_alloc@U?$_List_base_types@PAUHINSTANCE__@@V?$allocator@PAUHINSTANCE__@@@std@@@std@@@std@@QBEABQAU?$_List_node@PAUHINSTANCE__@@PAX@2@XZ ; std::_List_alloc<std::_List_base_types<HINSTANCE__ *,std::allocator<HINSTANCE__ *> > >::_Myhead
PUBLIC	?_Mysize@?$_List_alloc@U?$_List_base_types@PAUHINSTANCE__@@V?$allocator@PAUHINSTANCE__@@@std@@@std@@@std@@QAEAAIXZ ; std::_List_alloc<std::_List_base_types<HINSTANCE__ *,std::allocator<HINSTANCE__ *> > >::_Mysize
PUBLIC	?_Mysize@?$_List_alloc@U?$_List_base_types@PAUHINSTANCE__@@V?$allocator@PAUHINSTANCE__@@@std@@@std@@@std@@QBEABIXZ ; std::_List_alloc<std::_List_base_types<HINSTANCE__ *,std::allocator<HINSTANCE__ *> > >::_Mysize
PUBLIC	??0?$_List_val@U?$_List_simple_types@PAUHINSTANCE__@@@std@@@std@@QAE@XZ ; std::_List_val<std::_List_simple_types<HINSTANCE__ *> >::_List_val<std::_List_simple_types<HINSTANCE__ *> >
PUBLIC	?_Nextnode@?$_List_val@U?$_List_simple_types@PAUHINSTANCE__@@@std@@@std@@SAAAPAU?$_List_node@PAUHINSTANCE__@@PAX@2@PAU32@@Z ; std::_List_val<std::_List_simple_types<HINSTANCE__ *> >::_Nextnode
PUBLIC	?_Prevnode@?$_List_val@U?$_List_simple_types@PAUHINSTANCE__@@@std@@@std@@SAAAPAU?$_List_node@PAUHINSTANCE__@@PAX@2@PAU32@@Z ; std::_List_val<std::_List_simple_types<HINSTANCE__ *> >::_Prevnode
PUBLIC	?_Myval@?$_List_val@U?$_List_simple_types@PAUHINSTANCE__@@@std@@@std@@SAAAPAUHINSTANCE__@@PAU?$_List_node@PAUHINSTANCE__@@PAX@2@@Z ; std::_List_val<std::_List_simple_types<HINSTANCE__ *> >::_Myval
PUBLIC	?_Get_first@?$_Compressed_pair@U?$_Wrap_alloc@V?$allocator@U?$_List_node@PAUHINSTANCE__@@PAX@std@@@std@@@std@@V?$_List_val@U?$_List_simple_types@PAUHINSTANCE__@@@std@@@2@$00@std@@QAEAAU?$_Wrap_alloc@V?$allocator@U?$_List_node@PAUHINSTANCE__@@PAX@std@@@std@@@2@XZ ; std::_Compressed_pair<std::_Wrap_alloc<std::allocator<std::_List_node<HINSTANCE__ *,void *> > >,std::_List_val<std::_List_simple_types<HINSTANCE__ *> >,1>::_Get_first
PUBLIC	?_Get_first@?$_Compressed_pair@U?$_Wrap_alloc@V?$allocator@U?$_List_node@PAUHINSTANCE__@@PAX@std@@@std@@@std@@V?$_List_val@U?$_List_simple_types@PAUHINSTANCE__@@@std@@@2@$00@std@@QBEABU?$_Wrap_alloc@V?$allocator@U?$_List_node@PAUHINSTANCE__@@PAX@std@@@std@@@2@XZ ; std::_Compressed_pair<std::_Wrap_alloc<std::allocator<std::_List_node<HINSTANCE__ *,void *> > >,std::_List_val<std::_List_simple_types<HINSTANCE__ *> >,1>::_Get_first
PUBLIC	?_Get_second@?$_Compressed_pair@U?$_Wrap_alloc@V?$allocator@U?$_List_node@PAUHINSTANCE__@@PAX@std@@@std@@@std@@V?$_List_val@U?$_List_simple_types@PAUHINSTANCE__@@@std@@@2@$00@std@@QAEAAV?$_List_val@U?$_List_simple_types@PAUHINSTANCE__@@@std@@@2@XZ ; std::_Compressed_pair<std::_Wrap_alloc<std::allocator<std::_List_node<HINSTANCE__ *,void *> > >,std::_List_val<std::_List_simple_types<HINSTANCE__ *> >,1>::_Get_second
PUBLIC	?_Get_second@?$_Compressed_pair@U?$_Wrap_alloc@V?$allocator@U?$_List_node@PAUHINSTANCE__@@PAX@std@@@std@@@std@@V?$_List_val@U?$_List_simple_types@PAUHINSTANCE__@@@std@@@2@$00@std@@QBEABV?$_List_val@U?$_List_simple_types@PAUHINSTANCE__@@@std@@@2@XZ ; std::_Compressed_pair<std::_Wrap_alloc<std::allocator<std::_List_node<HINSTANCE__ *,void *> > >,std::_List_val<std::_List_simple_types<HINSTANCE__ *> >,1>::_Get_second
PUBLIC	?_Freenode@?$_List_buy@PAUHINSTANCE__@@V?$allocator@PAUHINSTANCE__@@@std@@@std@@QAEXPAU?$_List_node@PAUHINSTANCE__@@PAX@2@@Z ; std::_List_buy<HINSTANCE__ *,std::allocator<HINSTANCE__ *> >::_Freenode
PUBLIC	??1?$_List_buy@PAUHINSTANCE__@@V?$allocator@PAUHINSTANCE__@@@std@@@std@@QAE@XZ ; std::_List_buy<HINSTANCE__ *,std::allocator<HINSTANCE__ *> >::~_List_buy<HINSTANCE__ *,std::allocator<HINSTANCE__ *> >
PUBLIC	??0?$list@PAUHINSTANCE__@@V?$allocator@PAUHINSTANCE__@@@std@@@std@@QAE@ABV?$allocator@PAUHINSTANCE__@@@1@@Z ; std::list<HINSTANCE__ *,std::allocator<HINSTANCE__ *> >::list<HINSTANCE__ *,std::allocator<HINSTANCE__ *> >
PUBLIC	??1?$list@PAUHINSTANCE__@@V?$allocator@PAUHINSTANCE__@@@std@@@std@@QAE@XZ ; std::list<HINSTANCE__ *,std::allocator<HINSTANCE__ *> >::~list<HINSTANCE__ *,std::allocator<HINSTANCE__ *> >
PUBLIC	?end@?$list@PAUHINSTANCE__@@V?$allocator@PAUHINSTANCE__@@@std@@@std@@QBE?AV?$_List_const_iterator@V?$_List_val@U?$_List_simple_types@PAUHINSTANCE__@@@std@@@std@@@2@XZ ; std::list<HINSTANCE__ *,std::allocator<HINSTANCE__ *> >::end
PUBLIC	?_Unchecked_begin@?$list@PAUHINSTANCE__@@V?$allocator@PAUHINSTANCE__@@@std@@@std@@QAE?AV?$_List_unchecked_iterator@V?$_List_val@U?$_List_simple_types@PAUHINSTANCE__@@@std@@@std@@@2@XZ ; std::list<HINSTANCE__ *,std::allocator<HINSTANCE__ *> >::_Unchecked_begin
PUBLIC	?_Unchecked_end@?$list@PAUHINSTANCE__@@V?$allocator@PAUHINSTANCE__@@@std@@@std@@QAE?AV?$_List_unchecked_iterator@V?$_List_val@U?$_List_simple_types@PAUHINSTANCE__@@@std@@@std@@@2@XZ ; std::list<HINSTANCE__ *,std::allocator<HINSTANCE__ *> >::_Unchecked_end
PUBLIC	?_Unchecked_end@?$list@PAUHINSTANCE__@@V?$allocator@PAUHINSTANCE__@@@std@@@std@@QBE?AV?$_List_unchecked_const_iterator@V?$_List_val@U?$_List_simple_types@PAUHINSTANCE__@@@std@@@std@@U_Iterator_base0@2@@2@XZ ; std::list<HINSTANCE__ *,std::allocator<HINSTANCE__ *> >::_Unchecked_end
PUBLIC	?_Make_iter@?$list@PAUHINSTANCE__@@V?$allocator@PAUHINSTANCE__@@@std@@@std@@QBE?AV?$_List_iterator@V?$_List_val@U?$_List_simple_types@PAUHINSTANCE__@@@std@@@std@@@2@V?$_List_const_iterator@V?$_List_val@U?$_List_simple_types@PAUHINSTANCE__@@@std@@@std@@@2@@Z ; std::list<HINSTANCE__ *,std::allocator<HINSTANCE__ *> >::_Make_iter
PUBLIC	?_Make_iter@?$list@PAUHINSTANCE__@@V?$allocator@PAUHINSTANCE__@@@std@@@std@@QBE?AV?$_List_iterator@V?$_List_val@U?$_List_simple_types@PAUHINSTANCE__@@@std@@@std@@@2@V?$_List_unchecked_const_iterator@V?$_List_val@U?$_List_simple_types@PAUHINSTANCE__@@@std@@@std@@U_Iterator_base0@2@@2@@Z ; std::list<HINSTANCE__ *,std::allocator<HINSTANCE__ *> >::_Make_iter
PUBLIC	?size@?$list@PAUHINSTANCE__@@V?$allocator@PAUHINSTANCE__@@@std@@@std@@QBEIXZ ; std::list<HINSTANCE__ *,std::allocator<HINSTANCE__ *> >::size
PUBLIC	?max_size@?$list@PAUHINSTANCE__@@V?$allocator@PAUHINSTANCE__@@@std@@@std@@QBEIXZ ; std::list<HINSTANCE__ *,std::allocator<HINSTANCE__ *> >::max_size
PUBLIC	?push_front@?$list@PAUHINSTANCE__@@V?$allocator@PAUHINSTANCE__@@@std@@@std@@QAEXABQAUHINSTANCE__@@@Z ; std::list<HINSTANCE__ *,std::allocator<HINSTANCE__ *> >::push_front
PUBLIC	?_Unlinknode@?$list@PAUHINSTANCE__@@V?$allocator@PAUHINSTANCE__@@@std@@@std@@QAEPAU?$_List_node@PAUHINSTANCE__@@PAX@2@V?$_List_const_iterator@V?$_List_val@U?$_List_simple_types@PAUHINSTANCE__@@@std@@@std@@@2@@Z ; std::list<HINSTANCE__ *,std::allocator<HINSTANCE__ *> >::_Unlinknode
PUBLIC	?erase@?$list@PAUHINSTANCE__@@V?$allocator@PAUHINSTANCE__@@@std@@@std@@QAE?AV?$_List_iterator@V?$_List_val@U?$_List_simple_types@PAUHINSTANCE__@@@std@@@std@@@2@V?$_List_const_iterator@V?$_List_val@U?$_List_simple_types@PAUHINSTANCE__@@@std@@@std@@@2@@Z ; std::list<HINSTANCE__ *,std::allocator<HINSTANCE__ *> >::erase
PUBLIC	?clear@?$list@PAUHINSTANCE__@@V?$allocator@PAUHINSTANCE__@@@std@@@std@@QAEXXZ ; std::list<HINSTANCE__ *,std::allocator<HINSTANCE__ *> >::clear
PUBLIC	?_Unchecked_splice@?$list@PAUHINSTANCE__@@V?$allocator@PAUHINSTANCE__@@@std@@@std@@QAEXV?$_List_unchecked_const_iterator@V?$_List_val@U?$_List_simple_types@PAUHINSTANCE__@@@std@@@std@@U_Iterator_base0@2@@2@00@Z ; std::list<HINSTANCE__ *,std::allocator<HINSTANCE__ *> >::_Unchecked_splice
PUBLIC	?_Tidy@?$list@PAUHINSTANCE__@@V?$allocator@PAUHINSTANCE__@@@std@@@std@@QAEXXZ ; std::list<HINSTANCE__ *,std::allocator<HINSTANCE__ *> >::_Tidy
PUBLIC	?_Incsize@?$list@PAUHINSTANCE__@@V?$allocator@PAUHINSTANCE__@@@std@@@std@@QAEXI@Z ; std::list<HINSTANCE__ *,std::allocator<HINSTANCE__ *> >::_Incsize
PUBLIC	??0?$_Hash@V?$_Uset_traits@PAUHINSTANCE__@@V?$_Uhash_compare@PAUHINSTANCE__@@U?$hash@PAUHINSTANCE__@@@std@@U?$equal_to@PAUHINSTANCE__@@@3@@std@@V?$allocator@PAUHINSTANCE__@@@3@$0A@@std@@@std@@QAE@ABV?$_Uhash_compare@PAUHINSTANCE__@@U?$hash@PAUHINSTANCE__@@@std@@U?$equal_to@PAUHINSTANCE__@@@3@@1@ABV?$allocator@PAUHINSTANCE__@@@1@@Z ; std::_Hash<std::_Uset_traits<HINSTANCE__ *,std::_Uhash_compare<HINSTANCE__ *,std::hash<HINSTANCE__ *>,std::equal_to<HINSTANCE__ *> >,std::allocator<HINSTANCE__ *>,0> >::_Hash<std::_Uset_traits<HINSTANCE__ *,std::_Uhash_compare<HINSTANCE__ *,std::hash<HINSTANCE__ *>,std::equal_to<HINSTANCE__ *> >,std::allocator<HINSTANCE__ *>,0> >
PUBLIC	??1?$_Hash@V?$_Uset_traits@PAUHINSTANCE__@@V?$_Uhash_compare@PAUHINSTANCE__@@U?$hash@PAUHINSTANCE__@@@std@@U?$equal_to@PAUHINSTANCE__@@@3@@std@@V?$allocator@PAUHINSTANCE__@@@3@$0A@@std@@@std@@QAE@XZ ; std::_Hash<std::_Uset_traits<HINSTANCE__ *,std::_Uhash_compare<HINSTANCE__ *,std::hash<HINSTANCE__ *>,std::equal_to<HINSTANCE__ *> >,std::allocator<HINSTANCE__ *>,0> >::~_Hash<std::_Uset_traits<HINSTANCE__ *,std::_Uhash_compare<HINSTANCE__ *,std::hash<HINSTANCE__ *>,std::equal_to<HINSTANCE__ *> >,std::allocator<HINSTANCE__ *>,0> >
PUBLIC	?end@?$_Hash@V?$_Uset_traits@PAUHINSTANCE__@@V?$_Uhash_compare@PAUHINSTANCE__@@U?$hash@PAUHINSTANCE__@@@std@@U?$equal_to@PAUHINSTANCE__@@@3@@std@@V?$allocator@PAUHINSTANCE__@@@3@$0A@@std@@@std@@QBE?AV?$_List_const_iterator@V?$_List_val@U?$_List_simple_types@PAUHINSTANCE__@@@std@@@std@@@2@XZ ; std::_Hash<std::_Uset_traits<HINSTANCE__ *,std::_Uhash_compare<HINSTANCE__ *,std::hash<HINSTANCE__ *>,std::equal_to<HINSTANCE__ *> >,std::allocator<HINSTANCE__ *>,0> >::end
PUBLIC	?_Unchecked_begin@?$_Hash@V?$_Uset_traits@PAUHINSTANCE__@@V?$_Uhash_compare@PAUHINSTANCE__@@U?$hash@PAUHINSTANCE__@@@std@@U?$equal_to@PAUHINSTANCE__@@@3@@std@@V?$allocator@PAUHINSTANCE__@@@3@$0A@@std@@@std@@QAE?AV?$_List_unchecked_const_iterator@V?$_List_val@U?$_List_simple_types@PAUHINSTANCE__@@@std@@@std@@U_Iterator_base0@2@@2@XZ ; std::_Hash<std::_Uset_traits<HINSTANCE__ *,std::_Uhash_compare<HINSTANCE__ *,std::hash<HINSTANCE__ *>,std::equal_to<HINSTANCE__ *> >,std::allocator<HINSTANCE__ *>,0> >::_Unchecked_begin
PUBLIC	?_Unchecked_end@?$_Hash@V?$_Uset_traits@PAUHINSTANCE__@@V?$_Uhash_compare@PAUHINSTANCE__@@U?$hash@PAUHINSTANCE__@@@std@@U?$equal_to@PAUHINSTANCE__@@@3@@std@@V?$allocator@PAUHINSTANCE__@@@3@$0A@@std@@@std@@QAE?AV?$_List_unchecked_const_iterator@V?$_List_val@U?$_List_simple_types@PAUHINSTANCE__@@@std@@@std@@U_Iterator_base0@2@@2@XZ ; std::_Hash<std::_Uset_traits<HINSTANCE__ *,std::_Uhash_compare<HINSTANCE__ *,std::hash<HINSTANCE__ *>,std::equal_to<HINSTANCE__ *> >,std::allocator<HINSTANCE__ *>,0> >::_Unchecked_end
PUBLIC	?_Unchecked_end@?$_Hash@V?$_Uset_traits@PAUHINSTANCE__@@V?$_Uhash_compare@PAUHINSTANCE__@@U?$hash@PAUHINSTANCE__@@@std@@U?$equal_to@PAUHINSTANCE__@@@3@@std@@V?$allocator@PAUHINSTANCE__@@@3@$0A@@std@@@std@@QBE?AV?$_List_unchecked_const_iterator@V?$_List_val@U?$_List_simple_types@PAUHINSTANCE__@@@std@@@std@@U_Iterator_base0@2@@2@XZ ; std::_Hash<std::_Uset_traits<HINSTANCE__ *,std::_Uhash_compare<HINSTANCE__ *,std::hash<HINSTANCE__ *>,std::equal_to<HINSTANCE__ *> >,std::allocator<HINSTANCE__ *>,0> >::_Unchecked_end
PUBLIC	?_Make_iter@?$_Hash@V?$_Uset_traits@PAUHINSTANCE__@@V?$_Uhash_compare@PAUHINSTANCE__@@U?$hash@PAUHINSTANCE__@@@std@@U?$equal_to@PAUHINSTANCE__@@@3@@std@@V?$allocator@PAUHINSTANCE__@@@3@$0A@@std@@@std@@QBE?AV?$_List_const_iterator@V?$_List_val@U?$_List_simple_types@PAUHINSTANCE__@@@std@@@std@@@2@V?$_List_unchecked_const_iterator@V?$_List_val@U?$_List_simple_types@PAUHINSTANCE__@@@std@@@std@@U_Iterator_base0@2@@2@@Z ; std::_Hash<std::_Uset_traits<HINSTANCE__ *,std::_Uhash_compare<HINSTANCE__ *,std::hash<HINSTANCE__ *>,std::equal_to<HINSTANCE__ *> >,std::allocator<HINSTANCE__ *>,0> >::_Make_iter
PUBLIC	?_Make_iter@?$_Hash@V?$_Uset_traits@PAUHINSTANCE__@@V?$_Uhash_compare@PAUHINSTANCE__@@U?$hash@PAUHINSTANCE__@@@std@@U?$equal_to@PAUHINSTANCE__@@@3@@std@@V?$allocator@PAUHINSTANCE__@@@3@$0A@@std@@@std@@QBE?AV?$_List_const_iterator@V?$_List_val@U?$_List_simple_types@PAUHINSTANCE__@@@std@@@std@@@2@V32@@Z ; std::_Hash<std::_Uset_traits<HINSTANCE__ *,std::_Uhash_compare<HINSTANCE__ *,std::hash<HINSTANCE__ *>,std::equal_to<HINSTANCE__ *> >,std::allocator<HINSTANCE__ *>,0> >::_Make_iter
PUBLIC	?size@?$_Hash@V?$_Uset_traits@PAUHINSTANCE__@@V?$_Uhash_compare@PAUHINSTANCE__@@U?$hash@PAUHINSTANCE__@@@std@@U?$equal_to@PAUHINSTANCE__@@@3@@std@@V?$allocator@PAUHINSTANCE__@@@3@$0A@@std@@@std@@QBEIXZ ; std::_Hash<std::_Uset_traits<HINSTANCE__ *,std::_Uhash_compare<HINSTANCE__ *,std::hash<HINSTANCE__ *>,std::equal_to<HINSTANCE__ *> >,std::allocator<HINSTANCE__ *>,0> >::size
PUBLIC	?bucket_count@?$_Hash@V?$_Uset_traits@PAUHINSTANCE__@@V?$_Uhash_compare@PAUHINSTANCE__@@U?$hash@PAUHINSTANCE__@@@std@@U?$equal_to@PAUHINSTANCE__@@@3@@std@@V?$allocator@PAUHINSTANCE__@@@3@$0A@@std@@@std@@QBEIXZ ; std::_Hash<std::_Uset_traits<HINSTANCE__ *,std::_Uhash_compare<HINSTANCE__ *,std::hash<HINSTANCE__ *>,std::equal_to<HINSTANCE__ *> >,std::allocator<HINSTANCE__ *>,0> >::bucket_count
PUBLIC	?load_factor@?$_Hash@V?$_Uset_traits@PAUHINSTANCE__@@V?$_Uhash_compare@PAUHINSTANCE__@@U?$hash@PAUHINSTANCE__@@@std@@U?$equal_to@PAUHINSTANCE__@@@3@@std@@V?$allocator@PAUHINSTANCE__@@@3@$0A@@std@@@std@@QBEMXZ ; std::_Hash<std::_Uset_traits<HINSTANCE__ *,std::_Uhash_compare<HINSTANCE__ *,std::hash<HINSTANCE__ *>,std::equal_to<HINSTANCE__ *> >,std::allocator<HINSTANCE__ *>,0> >::load_factor
PUBLIC	?max_load_factor@?$_Hash@V?$_Uset_traits@PAUHINSTANCE__@@V?$_Uhash_compare@PAUHINSTANCE__@@U?$hash@PAUHINSTANCE__@@@std@@U?$equal_to@PAUHINSTANCE__@@@3@@std@@V?$allocator@PAUHINSTANCE__@@@3@$0A@@std@@@std@@QBEMXZ ; std::_Hash<std::_Uset_traits<HINSTANCE__ *,std::_Uhash_compare<HINSTANCE__ *,std::hash<HINSTANCE__ *>,std::equal_to<HINSTANCE__ *> >,std::allocator<HINSTANCE__ *>,0> >::max_load_factor
PUBLIC	?erase@?$_Hash@V?$_Uset_traits@PAUHINSTANCE__@@V?$_Uhash_compare@PAUHINSTANCE__@@U?$hash@PAUHINSTANCE__@@@std@@U?$equal_to@PAUHINSTANCE__@@@3@@std@@V?$allocator@PAUHINSTANCE__@@@3@$0A@@std@@@std@@QAE?AV?$_List_const_iterator@V?$_List_val@U?$_List_simple_types@PAUHINSTANCE__@@@std@@@std@@@2@V32@@Z ; std::_Hash<std::_Uset_traits<HINSTANCE__ *,std::_Uhash_compare<HINSTANCE__ *,std::hash<HINSTANCE__ *>,std::equal_to<HINSTANCE__ *> >,std::allocator<HINSTANCE__ *>,0> >::erase
PUBLIC	?count@?$_Hash@V?$_Uset_traits@PAUHINSTANCE__@@V?$_Uhash_compare@PAUHINSTANCE__@@U?$hash@PAUHINSTANCE__@@@std@@U?$equal_to@PAUHINSTANCE__@@@3@@std@@V?$allocator@PAUHINSTANCE__@@@3@$0A@@std@@@std@@QBEIABQAUHINSTANCE__@@@Z ; std::_Hash<std::_Uset_traits<HINSTANCE__ *,std::_Uhash_compare<HINSTANCE__ *,std::hash<HINSTANCE__ *>,std::equal_to<HINSTANCE__ *> >,std::allocator<HINSTANCE__ *>,0> >::count
PUBLIC	?equal_range@?$_Hash@V?$_Uset_traits@PAUHINSTANCE__@@V?$_Uhash_compare@PAUHINSTANCE__@@U?$hash@PAUHINSTANCE__@@@std@@U?$equal_to@PAUHINSTANCE__@@@3@@std@@V?$allocator@PAUHINSTANCE__@@@3@$0A@@std@@@std@@QBE?AU?$pair@V?$_List_const_iterator@V?$_List_val@U?$_List_simple_types@PAUHINSTANCE__@@@std@@@std@@@std@@V12@@2@ABQAUHINSTANCE__@@@Z ; std::_Hash<std::_Uset_traits<HINSTANCE__ *,std::_Uhash_compare<HINSTANCE__ *,std::hash<HINSTANCE__ *>,std::equal_to<HINSTANCE__ *> >,std::allocator<HINSTANCE__ *>,0> >::equal_range
PUBLIC	?_Destroy_if_not_nil@?$_Hash@V?$_Uset_traits@PAUHINSTANCE__@@V?$_Uhash_compare@PAUHINSTANCE__@@U?$hash@PAUHINSTANCE__@@@std@@U?$equal_to@PAUHINSTANCE__@@@3@@std@@V?$allocator@PAUHINSTANCE__@@@3@$0A@@std@@@std@@IAEXV?$_List_unchecked_const_iterator@V?$_List_val@U?$_List_simple_types@PAUHINSTANCE__@@@std@@@std@@U_Iterator_base0@2@@2@@Z ; std::_Hash<std::_Uset_traits<HINSTANCE__ *,std::_Uhash_compare<HINSTANCE__ *,std::hash<HINSTANCE__ *>,std::equal_to<HINSTANCE__ *> >,std::allocator<HINSTANCE__ *>,0> >::_Destroy_if_not_nil
PUBLIC	?_Destroy_if_not_nil@?$_Hash@V?$_Uset_traits@PAUHINSTANCE__@@V?$_Uhash_compare@PAUHINSTANCE__@@U?$hash@PAUHINSTANCE__@@@std@@U?$equal_to@PAUHINSTANCE__@@@3@@std@@V?$allocator@PAUHINSTANCE__@@@3@$0A@@std@@@std@@IAEXU_Nil@2@@Z ; std::_Hash<std::_Uset_traits<HINSTANCE__ *,std::_Uhash_compare<HINSTANCE__ *,std::hash<HINSTANCE__ *>,std::equal_to<HINSTANCE__ *> >,std::allocator<HINSTANCE__ *>,0> >::_Destroy_if_not_nil
PUBLIC	?_Vec_lo@?$_Hash@V?$_Uset_traits@PAUHINSTANCE__@@V?$_Uhash_compare@PAUHINSTANCE__@@U?$hash@PAUHINSTANCE__@@@std@@U?$equal_to@PAUHINSTANCE__@@@3@@std@@V?$allocator@PAUHINSTANCE__@@@3@$0A@@std@@@std@@IAEAAV?$_List_unchecked_const_iterator@V?$_List_val@U?$_List_simple_types@PAUHINSTANCE__@@@std@@@std@@U_Iterator_base0@2@@2@I@Z ; std::_Hash<std::_Uset_traits<HINSTANCE__ *,std::_Uhash_compare<HINSTANCE__ *,std::hash<HINSTANCE__ *>,std::equal_to<HINSTANCE__ *> >,std::allocator<HINSTANCE__ *>,0> >::_Vec_lo
PUBLIC	?_Vec_lo@?$_Hash@V?$_Uset_traits@PAUHINSTANCE__@@V?$_Uhash_compare@PAUHINSTANCE__@@U?$hash@PAUHINSTANCE__@@@std@@U?$equal_to@PAUHINSTANCE__@@@3@@std@@V?$allocator@PAUHINSTANCE__@@@3@$0A@@std@@@std@@IBEAAV?$_List_unchecked_const_iterator@V?$_List_val@U?$_List_simple_types@PAUHINSTANCE__@@@std@@@std@@U_Iterator_base0@2@@2@I@Z ; std::_Hash<std::_Uset_traits<HINSTANCE__ *,std::_Uhash_compare<HINSTANCE__ *,std::hash<HINSTANCE__ *>,std::equal_to<HINSTANCE__ *> >,std::allocator<HINSTANCE__ *>,0> >::_Vec_lo
PUBLIC	?_Vec_hi@?$_Hash@V?$_Uset_traits@PAUHINSTANCE__@@V?$_Uhash_compare@PAUHINSTANCE__@@U?$hash@PAUHINSTANCE__@@@std@@U?$equal_to@PAUHINSTANCE__@@@3@@std@@V?$allocator@PAUHINSTANCE__@@@3@$0A@@std@@@std@@IAEAAV?$_List_unchecked_const_iterator@V?$_List_val@U?$_List_simple_types@PAUHINSTANCE__@@@std@@@std@@U_Iterator_base0@2@@2@I@Z ; std::_Hash<std::_Uset_traits<HINSTANCE__ *,std::_Uhash_compare<HINSTANCE__ *,std::hash<HINSTANCE__ *>,std::equal_to<HINSTANCE__ *> >,std::allocator<HINSTANCE__ *>,0> >::_Vec_hi
PUBLIC	?_Vec_hi@?$_Hash@V?$_Uset_traits@PAUHINSTANCE__@@V?$_Uhash_compare@PAUHINSTANCE__@@U?$hash@PAUHINSTANCE__@@@std@@U?$equal_to@PAUHINSTANCE__@@@3@@std@@V?$allocator@PAUHINSTANCE__@@@3@$0A@@std@@@std@@IBEAAV?$_List_unchecked_const_iterator@V?$_List_val@U?$_List_simple_types@PAUHINSTANCE__@@@std@@@std@@U_Iterator_base0@2@@2@I@Z ; std::_Hash<std::_Uset_traits<HINSTANCE__ *,std::_Uhash_compare<HINSTANCE__ *,std::hash<HINSTANCE__ *>,std::equal_to<HINSTANCE__ *> >,std::allocator<HINSTANCE__ *>,0> >::_Vec_hi
PUBLIC	?_Begin@?$_Hash@V?$_Uset_traits@PAUHINSTANCE__@@V?$_Uhash_compare@PAUHINSTANCE__@@U?$hash@PAUHINSTANCE__@@@std@@U?$equal_to@PAUHINSTANCE__@@@3@@std@@V?$allocator@PAUHINSTANCE__@@@3@$0A@@std@@@std@@IAE?AV?$_List_unchecked_const_iterator@V?$_List_val@U?$_List_simple_types@PAUHINSTANCE__@@@std@@@std@@U_Iterator_base0@2@@2@I@Z ; std::_Hash<std::_Uset_traits<HINSTANCE__ *,std::_Uhash_compare<HINSTANCE__ *,std::hash<HINSTANCE__ *>,std::equal_to<HINSTANCE__ *> >,std::allocator<HINSTANCE__ *>,0> >::_Begin
PUBLIC	?_Begin@?$_Hash@V?$_Uset_traits@PAUHINSTANCE__@@V?$_Uhash_compare@PAUHINSTANCE__@@U?$hash@PAUHINSTANCE__@@@std@@U?$equal_to@PAUHINSTANCE__@@@3@@std@@V?$allocator@PAUHINSTANCE__@@@3@$0A@@std@@@std@@IBE?AV?$_List_unchecked_const_iterator@V?$_List_val@U?$_List_simple_types@PAUHINSTANCE__@@@std@@@std@@U_Iterator_base0@2@@2@I@Z ; std::_Hash<std::_Uset_traits<HINSTANCE__ *,std::_Uhash_compare<HINSTANCE__ *,std::hash<HINSTANCE__ *>,std::equal_to<HINSTANCE__ *> >,std::allocator<HINSTANCE__ *>,0> >::_Begin
PUBLIC	?_End@?$_Hash@V?$_Uset_traits@PAUHINSTANCE__@@V?$_Uhash_compare@PAUHINSTANCE__@@U?$hash@PAUHINSTANCE__@@@std@@U?$equal_to@PAUHINSTANCE__@@@3@@std@@V?$allocator@PAUHINSTANCE__@@@3@$0A@@std@@@std@@IAE?AV?$_List_unchecked_const_iterator@V?$_List_val@U?$_List_simple_types@PAUHINSTANCE__@@@std@@@std@@U_Iterator_base0@2@@2@I@Z ; std::_Hash<std::_Uset_traits<HINSTANCE__ *,std::_Uhash_compare<HINSTANCE__ *,std::hash<HINSTANCE__ *>,std::equal_to<HINSTANCE__ *> >,std::allocator<HINSTANCE__ *>,0> >::_End
PUBLIC	?_End@?$_Hash@V?$_Uset_traits@PAUHINSTANCE__@@V?$_Uhash_compare@PAUHINSTANCE__@@U?$hash@PAUHINSTANCE__@@@std@@U?$equal_to@PAUHINSTANCE__@@@3@@std@@V?$allocator@PAUHINSTANCE__@@@3@$0A@@std@@@std@@IBE?AV?$_List_unchecked_const_iterator@V?$_List_val@U?$_List_simple_types@PAUHINSTANCE__@@@std@@@std@@U_Iterator_base0@2@@2@I@Z ; std::_Hash<std::_Uset_traits<HINSTANCE__ *,std::_Uhash_compare<HINSTANCE__ *,std::hash<HINSTANCE__ *>,std::equal_to<HINSTANCE__ *> >,std::allocator<HINSTANCE__ *>,0> >::_End
PUBLIC	?_Erase_bucket@?$_Hash@V?$_Uset_traits@PAUHINSTANCE__@@V?$_Uhash_compare@PAUHINSTANCE__@@U?$hash@PAUHINSTANCE__@@@std@@U?$equal_to@PAUHINSTANCE__@@@3@@std@@V?$allocator@PAUHINSTANCE__@@@3@$0A@@std@@@std@@IAEXV?$_List_const_iterator@V?$_List_val@U?$_List_simple_types@PAUHINSTANCE__@@@std@@@std@@@2@I@Z ; std::_Hash<std::_Uset_traits<HINSTANCE__ *,std::_Uhash_compare<HINSTANCE__ *,std::hash<HINSTANCE__ *>,std::equal_to<HINSTANCE__ *> >,std::allocator<HINSTANCE__ *>,0> >::_Erase_bucket
PUBLIC	?_Insert_bucket@?$_Hash@V?$_Uset_traits@PAUHINSTANCE__@@V?$_Uhash_compare@PAUHINSTANCE__@@U?$hash@PAUHINSTANCE__@@@std@@U?$equal_to@PAUHINSTANCE__@@@3@@std@@V?$allocator@PAUHINSTANCE__@@@3@$0A@@std@@@std@@IAEXV?$_List_unchecked_const_iterator@V?$_List_val@U?$_List_simple_types@PAUHINSTANCE__@@@std@@@std@@U_Iterator_base0@2@@2@0I@Z ; std::_Hash<std::_Uset_traits<HINSTANCE__ *,std::_Uhash_compare<HINSTANCE__ *,std::hash<HINSTANCE__ *>,std::equal_to<HINSTANCE__ *> >,std::allocator<HINSTANCE__ *>,0> >::_Insert_bucket
PUBLIC	?_Hashval@?$_Hash@V?$_Uset_traits@PAUHINSTANCE__@@V?$_Uhash_compare@PAUHINSTANCE__@@U?$hash@PAUHINSTANCE__@@@std@@U?$equal_to@PAUHINSTANCE__@@@3@@std@@V?$allocator@PAUHINSTANCE__@@@3@$0A@@std@@@std@@IBEIABQAUHINSTANCE__@@@Z ; std::_Hash<std::_Uset_traits<HINSTANCE__ *,std::_Uhash_compare<HINSTANCE__ *,std::hash<HINSTANCE__ *>,std::equal_to<HINSTANCE__ *> >,std::allocator<HINSTANCE__ *>,0> >::_Hashval
PUBLIC	?_Init@?$_Hash@V?$_Uset_traits@PAUHINSTANCE__@@V?$_Uhash_compare@PAUHINSTANCE__@@U?$hash@PAUHINSTANCE__@@@std@@U?$equal_to@PAUHINSTANCE__@@@3@@std@@V?$allocator@PAUHINSTANCE__@@@3@$0A@@std@@@std@@IAEXI@Z ; std::_Hash<std::_Uset_traits<HINSTANCE__ *,std::_Uhash_compare<HINSTANCE__ *,std::hash<HINSTANCE__ *>,std::equal_to<HINSTANCE__ *> >,std::allocator<HINSTANCE__ *>,0> >::_Init
PUBLIC	?_Check_size@?$_Hash@V?$_Uset_traits@PAUHINSTANCE__@@V?$_Uhash_compare@PAUHINSTANCE__@@U?$hash@PAUHINSTANCE__@@@std@@U?$equal_to@PAUHINSTANCE__@@@3@@std@@V?$allocator@PAUHINSTANCE__@@@3@$0A@@std@@@std@@IAEXXZ ; std::_Hash<std::_Uset_traits<HINSTANCE__ *,std::_Uhash_compare<HINSTANCE__ *,std::hash<HINSTANCE__ *>,std::equal_to<HINSTANCE__ *> >,std::allocator<HINSTANCE__ *>,0> >::_Check_size
PUBLIC	?_Reinsert@?$_Hash@V?$_Uset_traits@PAUHINSTANCE__@@V?$_Uhash_compare@PAUHINSTANCE__@@U?$hash@PAUHINSTANCE__@@@std@@U?$equal_to@PAUHINSTANCE__@@@3@@std@@V?$allocator@PAUHINSTANCE__@@@3@$0A@@std@@@std@@IAEXXZ ; std::_Hash<std::_Uset_traits<HINSTANCE__ *,std::_Uhash_compare<HINSTANCE__ *,std::hash<HINSTANCE__ *>,std::equal_to<HINSTANCE__ *> >,std::allocator<HINSTANCE__ *>,0> >::_Reinsert
PUBLIC	?_Max_bucket_size@?$_Hash@V?$_Uset_traits@PAUHINSTANCE__@@V?$_Uhash_compare@PAUHINSTANCE__@@U?$hash@PAUHINSTANCE__@@@std@@U?$equal_to@PAUHINSTANCE__@@@3@@std@@V?$allocator@PAUHINSTANCE__@@@3@$0A@@std@@@std@@IAEAAMXZ ; std::_Hash<std::_Uset_traits<HINSTANCE__ *,std::_Uhash_compare<HINSTANCE__ *,std::hash<HINSTANCE__ *>,std::equal_to<HINSTANCE__ *> >,std::allocator<HINSTANCE__ *>,0> >::_Max_bucket_size
PUBLIC	?_Max_bucket_size@?$_Hash@V?$_Uset_traits@PAUHINSTANCE__@@V?$_Uhash_compare@PAUHINSTANCE__@@U?$hash@PAUHINSTANCE__@@@std@@U?$equal_to@PAUHINSTANCE__@@@3@@std@@V?$allocator@PAUHINSTANCE__@@@3@$0A@@std@@@std@@IBEABMXZ ; std::_Hash<std::_Uset_traits<HINSTANCE__ *,std::_Uhash_compare<HINSTANCE__ *,std::hash<HINSTANCE__ *>,std::equal_to<HINSTANCE__ *> >,std::allocator<HINSTANCE__ *>,0> >::_Max_bucket_size
PUBLIC	??0?$allocator@V?$_List_unchecked_const_iterator@V?$_List_val@U?$_List_simple_types@PAUHINSTANCE__@@@std@@@std@@U_Iterator_base0@2@@std@@@std@@QAE@ABV01@@Z ; std::allocator<std::_List_unchecked_const_iterator<std::_List_val<std::_List_simple_types<HINSTANCE__ *> >,std::_Iterator_base0> >::allocator<std::_List_unchecked_const_iterator<std::_List_val<std::_List_simple_types<HINSTANCE__ *> >,std::_Iterator_base0> >
PUBLIC	?deallocate@?$allocator@V?$_List_unchecked_const_iterator@V?$_List_val@U?$_List_simple_types@PAUHINSTANCE__@@@std@@@std@@U_Iterator_base0@2@@std@@@std@@QAEXPAV?$_List_unchecked_const_iterator@V?$_List_val@U?$_List_simple_types@PAUHINSTANCE__@@@std@@@std@@U_Iterator_base0@2@@2@I@Z ; std::allocator<std::_List_unchecked_const_iterator<std::_List_val<std::_List_simple_types<HINSTANCE__ *> >,std::_Iterator_base0> >::deallocate
PUBLIC	?allocate@?$allocator@V?$_List_unchecked_const_iterator@V?$_List_val@U?$_List_simple_types@PAUHINSTANCE__@@@std@@@std@@U_Iterator_base0@2@@std@@@std@@QAEPAV?$_List_unchecked_const_iterator@V?$_List_val@U?$_List_simple_types@PAUHINSTANCE__@@@std@@@std@@U_Iterator_base0@2@@2@I@Z ; std::allocator<std::_List_unchecked_const_iterator<std::_List_val<std::_List_simple_types<HINSTANCE__ *> >,std::_Iterator_base0> >::allocate
PUBLIC	?max_size@?$allocator@V?$_List_unchecked_const_iterator@V?$_List_val@U?$_List_simple_types@PAUHINSTANCE__@@@std@@@std@@U_Iterator_base0@2@@std@@@std@@QBEIXZ ; std::allocator<std::_List_unchecked_const_iterator<std::_List_val<std::_List_simple_types<HINSTANCE__ *> >,std::_Iterator_base0> >::max_size
PUBLIC	?max_size@?$allocator_traits@V?$allocator@V?$_List_unchecked_const_iterator@V?$_List_val@U?$_List_simple_types@PAUHINSTANCE__@@@std@@@std@@U_Iterator_base0@2@@std@@@std@@@std@@SAIABV?$allocator@V?$_List_unchecked_const_iterator@V?$_List_val@U?$_List_simple_types@PAUHINSTANCE__@@@std@@@std@@U_Iterator_base0@2@@std@@@2@@Z ; std::allocator_traits<std::allocator<std::_List_unchecked_const_iterator<std::_List_val<std::_List_simple_types<HINSTANCE__ *> >,std::_Iterator_base0> > >::max_size
PUBLIC	??0?$_Wrap_alloc@V?$allocator@V?$_List_unchecked_const_iterator@V?$_List_val@U?$_List_simple_types@PAUHINSTANCE__@@@std@@@std@@U_Iterator_base0@2@@std@@@std@@@std@@QAE@ABU01@@Z ; std::_Wrap_alloc<std::allocator<std::_List_unchecked_const_iterator<std::_List_val<std::_List_simple_types<HINSTANCE__ *> >,std::_Iterator_base0> > >::_Wrap_alloc<std::allocator<std::_List_unchecked_const_iterator<std::_List_val<std::_List_simple_types<HINSTANCE__ *> >,std::_Iterator_base0> > >
PUBLIC	?allocate@?$_Wrap_alloc@V?$allocator@V?$_List_unchecked_const_iterator@V?$_List_val@U?$_List_simple_types@PAUHINSTANCE__@@@std@@@std@@U_Iterator_base0@2@@std@@@std@@@std@@QAEPAV?$_List_unchecked_const_iterator@V?$_List_val@U?$_List_simple_types@PAUHINSTANCE__@@@std@@@std@@U_Iterator_base0@2@@2@I@Z ; std::_Wrap_alloc<std::allocator<std::_List_unchecked_const_iterator<std::_List_val<std::_List_simple_types<HINSTANCE__ *> >,std::_Iterator_base0> > >::allocate
PUBLIC	?deallocate@?$_Wrap_alloc@V?$allocator@V?$_List_unchecked_const_iterator@V?$_List_val@U?$_List_simple_types@PAUHINSTANCE__@@@std@@@std@@U_Iterator_base0@2@@std@@@std@@@std@@QAEXPAV?$_List_unchecked_const_iterator@V?$_List_val@U?$_List_simple_types@PAUHINSTANCE__@@@std@@@std@@U_Iterator_base0@2@@2@I@Z ; std::_Wrap_alloc<std::allocator<std::_List_unchecked_const_iterator<std::_List_val<std::_List_simple_types<HINSTANCE__ *> >,std::_Iterator_base0> > >::deallocate
PUBLIC	?max_size@?$_Wrap_alloc@V?$allocator@V?$_List_unchecked_const_iterator@V?$_List_val@U?$_List_simple_types@PAUHINSTANCE__@@@std@@@std@@U_Iterator_base0@2@@std@@@std@@@std@@QBEIU_Nil@2@@Z ; std::_Wrap_alloc<std::allocator<std::_List_unchecked_const_iterator<std::_List_val<std::_List_simple_types<HINSTANCE__ *> >,std::_Iterator_base0> > >::max_size
PUBLIC	?max_size@?$allocator_traits@U?$_Wrap_alloc@V?$allocator@V?$_List_unchecked_const_iterator@V?$_List_val@U?$_List_simple_types@PAUHINSTANCE__@@@std@@@std@@U_Iterator_base0@2@@std@@@std@@@std@@@std@@SAIABU?$_Wrap_alloc@V?$allocator@V?$_List_unchecked_const_iterator@V?$_List_val@U?$_List_simple_types@PAUHINSTANCE__@@@std@@@std@@U_Iterator_base0@2@@std@@@std@@@2@@Z ; std::allocator_traits<std::_Wrap_alloc<std::allocator<std::_List_unchecked_const_iterator<std::_List_val<std::_List_simple_types<HINSTANCE__ *> >,std::_Iterator_base0> > > >::max_size
PUBLIC	?allocate@?$_Wrap_alloc@U?$_Wrap_alloc@V?$allocator@V?$_List_unchecked_const_iterator@V?$_List_val@U?$_List_simple_types@PAUHINSTANCE__@@@std@@@std@@U_Iterator_base0@2@@std@@@std@@@std@@@std@@QAEPAV?$_List_unchecked_const_iterator@V?$_List_val@U?$_List_simple_types@PAUHINSTANCE__@@@std@@@std@@U_Iterator_base0@2@@2@I@Z ; std::_Wrap_alloc<std::_Wrap_alloc<std::allocator<std::_List_unchecked_const_iterator<std::_List_val<std::_List_simple_types<HINSTANCE__ *> >,std::_Iterator_base0> > > >::allocate
PUBLIC	?deallocate@?$_Wrap_alloc@U?$_Wrap_alloc@V?$allocator@V?$_List_unchecked_const_iterator@V?$_List_val@U?$_List_simple_types@PAUHINSTANCE__@@@std@@@std@@U_Iterator_base0@2@@std@@@std@@@std@@@std@@QAEXPAV?$_List_unchecked_const_iterator@V?$_List_val@U?$_List_simple_types@PAUHINSTANCE__@@@std@@@std@@U_Iterator_base0@2@@2@I@Z ; std::_Wrap_alloc<std::_Wrap_alloc<std::allocator<std::_List_unchecked_const_iterator<std::_List_val<std::_List_simple_types<HINSTANCE__ *> >,std::_Iterator_base0> > > >::deallocate
PUBLIC	?max_size@?$_Wrap_alloc@U?$_Wrap_alloc@V?$allocator@V?$_List_unchecked_const_iterator@V?$_List_val@U?$_List_simple_types@PAUHINSTANCE__@@@std@@@std@@U_Iterator_base0@2@@std@@@std@@@std@@@std@@QBEIU_Nil@2@@Z ; std::_Wrap_alloc<std::_Wrap_alloc<std::allocator<std::_List_unchecked_const_iterator<std::_List_val<std::_List_simple_types<HINSTANCE__ *> >,std::_Iterator_base0> > > >::max_size
PUBLIC	?_Orphan_all@?$_Vector_alloc@U?$_Vec_base_types@V?$_List_unchecked_const_iterator@V?$_List_val@U?$_List_simple_types@PAUHINSTANCE__@@@std@@@std@@U_Iterator_base0@2@@std@@U?$_Wrap_alloc@V?$allocator@V?$_List_unchecked_const_iterator@V?$_List_val@U?$_List_simple_types@PAUHINSTANCE__@@@std@@@std@@U_Iterator_base0@2@@std@@@std@@@2@@std@@@std@@QAEXXZ ; std::_Vector_alloc<std::_Vec_base_types<std::_List_unchecked_const_iterator<std::_List_val<std::_List_simple_types<HINSTANCE__ *> >,std::_Iterator_base0>,std::_Wrap_alloc<std::allocator<std::_List_unchecked_const_iterator<std::_List_val<std::_List_simple_types<HINSTANCE__ *> >,std::_Iterator_base0> > > > >::_Orphan_all
PUBLIC	?_Getal@?$_Vector_alloc@U?$_Vec_base_types@V?$_List_unchecked_const_iterator@V?$_List_val@U?$_List_simple_types@PAUHINSTANCE__@@@std@@@std@@U_Iterator_base0@2@@std@@U?$_Wrap_alloc@V?$allocator@V?$_List_unchecked_const_iterator@V?$_List_val@U?$_List_simple_types@PAUHINSTANCE__@@@std@@@std@@U_Iterator_base0@2@@std@@@std@@@2@@std@@@std@@QAEAAU?$_Wrap_alloc@U?$_Wrap_alloc@V?$allocator@V?$_List_unchecked_const_iterator@V?$_List_val@U?$_List_simple_types@PAUHINSTANCE__@@@std@@@std@@U_Iterator_base0@2@@std@@@std@@@std@@@2@XZ ; std::_Vector_alloc<std::_Vec_base_types<std::_List_unchecked_const_iterator<std::_List_val<std::_List_simple_types<HINSTANCE__ *> >,std::_Iterator_base0>,std::_Wrap_alloc<std::allocator<std::_List_unchecked_const_iterator<std::_List_val<std::_List_simple_types<HINSTANCE__ *> >,std::_Iterator_base0> > > > >::_Getal
PUBLIC	?_Getal@?$_Vector_alloc@U?$_Vec_base_types@V?$_List_unchecked_const_iterator@V?$_List_val@U?$_List_simple_types@PAUHINSTANCE__@@@std@@@std@@U_Iterator_base0@2@@std@@U?$_Wrap_alloc@V?$allocator@V?$_List_unchecked_const_iterator@V?$_List_val@U?$_List_simple_types@PAUHINSTANCE__@@@std@@@std@@U_Iterator_base0@2@@std@@@std@@@2@@std@@@std@@QBEABU?$_Wrap_alloc@U?$_Wrap_alloc@V?$allocator@V?$_List_unchecked_const_iterator@V?$_List_val@U?$_List_simple_types@PAUHINSTANCE__@@@std@@@std@@U_Iterator_base0@2@@std@@@std@@@std@@@2@XZ ; std::_Vector_alloc<std::_Vec_base_types<std::_List_unchecked_const_iterator<std::_List_val<std::_List_simple_types<HINSTANCE__ *> >,std::_Iterator_base0>,std::_Wrap_alloc<std::allocator<std::_List_unchecked_const_iterator<std::_List_val<std::_List_simple_types<HINSTANCE__ *> >,std::_Iterator_base0> > > > >::_Getal
PUBLIC	?_Get_data@?$_Vector_alloc@U?$_Vec_base_types@V?$_List_unchecked_const_iterator@V?$_List_val@U?$_List_simple_types@PAUHINSTANCE__@@@std@@@std@@U_Iterator_base0@2@@std@@U?$_Wrap_alloc@V?$allocator@V?$_List_unchecked_const_iterator@V?$_List_val@U?$_List_simple_types@PAUHINSTANCE__@@@std@@@std@@U_Iterator_base0@2@@std@@@std@@@2@@std@@@std@@QAEAAV?$_Vector_val@U?$_Simple_types@V?$_List_unchecked_const_iterator@V?$_List_val@U?$_List_simple_types@PAUHINSTANCE__@@@std@@@std@@U_Iterator_base0@2@@std@@@std@@@2@XZ ; std::_Vector_alloc<std::_Vec_base_types<std::_List_unchecked_const_iterator<std::_List_val<std::_List_simple_types<HINSTANCE__ *> >,std::_Iterator_base0>,std::_Wrap_alloc<std::allocator<std::_List_unchecked_const_iterator<std::_List_val<std::_List_simple_types<HINSTANCE__ *> >,std::_Iterator_base0> > > > >::_Get_data
PUBLIC	?_Get_data@?$_Vector_alloc@U?$_Vec_base_types@V?$_List_unchecked_const_iterator@V?$_List_val@U?$_List_simple_types@PAUHINSTANCE__@@@std@@@std@@U_Iterator_base0@2@@std@@U?$_Wrap_alloc@V?$allocator@V?$_List_unchecked_const_iterator@V?$_List_val@U?$_List_simple_types@PAUHINSTANCE__@@@std@@@std@@U_Iterator_base0@2@@std@@@std@@@2@@std@@@std@@QBEABV?$_Vector_val@U?$_Simple_types@V?$_List_unchecked_const_iterator@V?$_List_val@U?$_List_simple_types@PAUHINSTANCE__@@@std@@@std@@U_Iterator_base0@2@@std@@@std@@@2@XZ ; std::_Vector_alloc<std::_Vec_base_types<std::_List_unchecked_const_iterator<std::_List_val<std::_List_simple_types<HINSTANCE__ *> >,std::_Iterator_base0>,std::_Wrap_alloc<std::allocator<std::_List_unchecked_const_iterator<std::_List_val<std::_List_simple_types<HINSTANCE__ *> >,std::_Iterator_base0> > > > >::_Get_data
PUBLIC	?_Myfirst@?$_Vector_alloc@U?$_Vec_base_types@V?$_List_unchecked_const_iterator@V?$_List_val@U?$_List_simple_types@PAUHINSTANCE__@@@std@@@std@@U_Iterator_base0@2@@std@@U?$_Wrap_alloc@V?$allocator@V?$_List_unchecked_const_iterator@V?$_List_val@U?$_List_simple_types@PAUHINSTANCE__@@@std@@@std@@U_Iterator_base0@2@@std@@@std@@@2@@std@@@std@@QAEAAPAV?$_List_unchecked_const_iterator@V?$_List_val@U?$_List_simple_types@PAUHINSTANCE__@@@std@@@std@@U_Iterator_base0@2@@2@XZ ; std::_Vector_alloc<std::_Vec_base_types<std::_List_unchecked_const_iterator<std::_List_val<std::_List_simple_types<HINSTANCE__ *> >,std::_Iterator_base0>,std::_Wrap_alloc<std::allocator<std::_List_unchecked_const_iterator<std::_List_val<std::_List_simple_types<HINSTANCE__ *> >,std::_Iterator_base0> > > > >::_Myfirst
PUBLIC	?_Myfirst@?$_Vector_alloc@U?$_Vec_base_types@V?$_List_unchecked_const_iterator@V?$_List_val@U?$_List_simple_types@PAUHINSTANCE__@@@std@@@std@@U_Iterator_base0@2@@std@@U?$_Wrap_alloc@V?$allocator@V?$_List_unchecked_const_iterator@V?$_List_val@U?$_List_simple_types@PAUHINSTANCE__@@@std@@@std@@U_Iterator_base0@2@@std@@@std@@@2@@std@@@std@@QBEABQAV?$_List_unchecked_const_iterator@V?$_List_val@U?$_List_simple_types@PAUHINSTANCE__@@@std@@@std@@U_Iterator_base0@2@@2@XZ ; std::_Vector_alloc<std::_Vec_base_types<std::_List_unchecked_const_iterator<std::_List_val<std::_List_simple_types<HINSTANCE__ *> >,std::_Iterator_base0>,std::_Wrap_alloc<std::allocator<std::_List_unchecked_const_iterator<std::_List_val<std::_List_simple_types<HINSTANCE__ *> >,std::_Iterator_base0> > > > >::_Myfirst
PUBLIC	?_Mylast@?$_Vector_alloc@U?$_Vec_base_types@V?$_List_unchecked_const_iterator@V?$_List_val@U?$_List_simple_types@PAUHINSTANCE__@@@std@@@std@@U_Iterator_base0@2@@std@@U?$_Wrap_alloc@V?$allocator@V?$_List_unchecked_const_iterator@V?$_List_val@U?$_List_simple_types@PAUHINSTANCE__@@@std@@@std@@U_Iterator_base0@2@@std@@@std@@@2@@std@@@std@@QAEAAPAV?$_List_unchecked_const_iterator@V?$_List_val@U?$_List_simple_types@PAUHINSTANCE__@@@std@@@std@@U_Iterator_base0@2@@2@XZ ; std::_Vector_alloc<std::_Vec_base_types<std::_List_unchecked_const_iterator<std::_List_val<std::_List_simple_types<HINSTANCE__ *> >,std::_Iterator_base0>,std::_Wrap_alloc<std::allocator<std::_List_unchecked_const_iterator<std::_List_val<std::_List_simple_types<HINSTANCE__ *> >,std::_Iterator_base0> > > > >::_Mylast
PUBLIC	?_Mylast@?$_Vector_alloc@U?$_Vec_base_types@V?$_List_unchecked_const_iterator@V?$_List_val@U?$_List_simple_types@PAUHINSTANCE__@@@std@@@std@@U_Iterator_base0@2@@std@@U?$_Wrap_alloc@V?$allocator@V?$_List_unchecked_const_iterator@V?$_List_val@U?$_List_simple_types@PAUHINSTANCE__@@@std@@@std@@U_Iterator_base0@2@@std@@@std@@@2@@std@@@std@@QBEABQAV?$_List_unchecked_const_iterator@V?$_List_val@U?$_List_simple_types@PAUHINSTANCE__@@@std@@@std@@U_Iterator_base0@2@@2@XZ ; std::_Vector_alloc<std::_Vec_base_types<std::_List_unchecked_const_iterator<std::_List_val<std::_List_simple_types<HINSTANCE__ *> >,std::_Iterator_base0>,std::_Wrap_alloc<std::allocator<std::_List_unchecked_const_iterator<std::_List_val<std::_List_simple_types<HINSTANCE__ *> >,std::_Iterator_base0> > > > >::_Mylast
PUBLIC	?_Myend@?$_Vector_alloc@U?$_Vec_base_types@V?$_List_unchecked_const_iterator@V?$_List_val@U?$_List_simple_types@PAUHINSTANCE__@@@std@@@std@@U_Iterator_base0@2@@std@@U?$_Wrap_alloc@V?$allocator@V?$_List_unchecked_const_iterator@V?$_List_val@U?$_List_simple_types@PAUHINSTANCE__@@@std@@@std@@U_Iterator_base0@2@@std@@@std@@@2@@std@@@std@@QAEAAPAV?$_List_unchecked_const_iterator@V?$_List_val@U?$_List_simple_types@PAUHINSTANCE__@@@std@@@std@@U_Iterator_base0@2@@2@XZ ; std::_Vector_alloc<std::_Vec_base_types<std::_List_unchecked_const_iterator<std::_List_val<std::_List_simple_types<HINSTANCE__ *> >,std::_Iterator_base0>,std::_Wrap_alloc<std::allocator<std::_List_unchecked_const_iterator<std::_List_val<std::_List_simple_types<HINSTANCE__ *> >,std::_Iterator_base0> > > > >::_Myend
PUBLIC	?_Myend@?$_Vector_alloc@U?$_Vec_base_types@V?$_List_unchecked_const_iterator@V?$_List_val@U?$_List_simple_types@PAUHINSTANCE__@@@std@@@std@@U_Iterator_base0@2@@std@@U?$_Wrap_alloc@V?$allocator@V?$_List_unchecked_const_iterator@V?$_List_val@U?$_List_simple_types@PAUHINSTANCE__@@@std@@@std@@U_Iterator_base0@2@@std@@@std@@@2@@std@@@std@@QBEABQAV?$_List_unchecked_const_iterator@V?$_List_val@U?$_List_simple_types@PAUHINSTANCE__@@@std@@@std@@U_Iterator_base0@2@@2@XZ ; std::_Vector_alloc<std::_Vec_base_types<std::_List_unchecked_const_iterator<std::_List_val<std::_List_simple_types<HINSTANCE__ *> >,std::_Iterator_base0>,std::_Wrap_alloc<std::allocator<std::_List_unchecked_const_iterator<std::_List_val<std::_List_simple_types<HINSTANCE__ *> >,std::_Iterator_base0> > > > >::_Myend
PUBLIC	??0?$_Vector_val@U?$_Simple_types@V?$_List_unchecked_const_iterator@V?$_List_val@U?$_List_simple_types@PAUHINSTANCE__@@@std@@@std@@U_Iterator_base0@2@@std@@@std@@@std@@QAE@XZ ; std::_Vector_val<std::_Simple_types<std::_List_unchecked_const_iterator<std::_List_val<std::_List_simple_types<HINSTANCE__ *> >,std::_Iterator_base0> > >::_Vector_val<std::_Simple_types<std::_List_unchecked_const_iterator<std::_List_val<std::_List_simple_types<HINSTANCE__ *> >,std::_Iterator_base0> > >
PUBLIC	?_Get_first@?$_Compressed_pair@U?$_Wrap_alloc@U?$_Wrap_alloc@V?$allocator@V?$_List_unchecked_const_iterator@V?$_List_val@U?$_List_simple_types@PAUHINSTANCE__@@@std@@@std@@U_Iterator_base0@2@@std@@@std@@@std@@@std@@V?$_Vector_val@U?$_Simple_types@V?$_List_unchecked_const_iterator@V?$_List_val@U?$_List_simple_types@PAUHINSTANCE__@@@std@@@std@@U_Iterator_base0@2@@std@@@std@@@2@$00@std@@QAEAAU?$_Wrap_alloc@U?$_Wrap_alloc@V?$allocator@V?$_List_unchecked_const_iterator@V?$_List_val@U?$_List_simple_types@PAUHINSTANCE__@@@std@@@std@@U_Iterator_base0@2@@std@@@std@@@std@@@2@XZ ; std::_Compressed_pair<std::_Wrap_alloc<std::_Wrap_alloc<std::allocator<std::_List_unchecked_const_iterator<std::_List_val<std::_List_simple_types<HINSTANCE__ *> >,std::_Iterator_base0> > > >,std::_Vector_val<std::_Simple_types<std::_List_unchecked_const_iterator<std::_List_val<std::_List_simple_types<HINSTANCE__ *> >,std::_Iterator_base0> > >,1>::_Get_first
PUBLIC	?_Get_first@?$_Compressed_pair@U?$_Wrap_alloc@U?$_Wrap_alloc@V?$allocator@V?$_List_unchecked_const_iterator@V?$_List_val@U?$_List_simple_types@PAUHINSTANCE__@@@std@@@std@@U_Iterator_base0@2@@std@@@std@@@std@@@std@@V?$_Vector_val@U?$_Simple_types@V?$_List_unchecked_const_iterator@V?$_List_val@U?$_List_simple_types@PAUHINSTANCE__@@@std@@@std@@U_Iterator_base0@2@@std@@@std@@@2@$00@std@@QBEABU?$_Wrap_alloc@U?$_Wrap_alloc@V?$allocator@V?$_List_unchecked_const_iterator@V?$_List_val@U?$_List_simple_types@PAUHINSTANCE__@@@std@@@std@@U_Iterator_base0@2@@std@@@std@@@std@@@2@XZ ; std::_Compressed_pair<std::_Wrap_alloc<std::_Wrap_alloc<std::allocator<std::_List_unchecked_const_iterator<std::_List_val<std::_List_simple_types<HINSTANCE__ *> >,std::_Iterator_base0> > > >,std::_Vector_val<std::_Simple_types<std::_List_unchecked_const_iterator<std::_List_val<std::_List_simple_types<HINSTANCE__ *> >,std::_Iterator_base0> > >,1>::_Get_first
PUBLIC	?_Get_second@?$_Compressed_pair@U?$_Wrap_alloc@U?$_Wrap_alloc@V?$allocator@V?$_List_unchecked_const_iterator@V?$_List_val@U?$_List_simple_types@PAUHINSTANCE__@@@std@@@std@@U_Iterator_base0@2@@std@@@std@@@std@@@std@@V?$_Vector_val@U?$_Simple_types@V?$_List_unchecked_const_iterator@V?$_List_val@U?$_List_simple_types@PAUHINSTANCE__@@@std@@@std@@U_Iterator_base0@2@@std@@@std@@@2@$00@std@@QAEAAV?$_Vector_val@U?$_Simple_types@V?$_List_unchecked_const_iterator@V?$_List_val@U?$_List_simple_types@PAUHINSTANCE__@@@std@@@std@@U_Iterator_base0@2@@std@@@std@@@2@XZ ; std::_Compressed_pair<std::_Wrap_alloc<std::_Wrap_alloc<std::allocator<std::_List_unchecked_const_iterator<std::_List_val<std::_List_simple_types<HINSTANCE__ *> >,std::_Iterator_base0> > > >,std::_Vector_val<std::_Simple_types<std::_List_unchecked_const_iterator<std::_List_val<std::_List_simple_types<HINSTANCE__ *> >,std::_Iterator_base0> > >,1>::_Get_second
PUBLIC	?_Get_second@?$_Compressed_pair@U?$_Wrap_alloc@U?$_Wrap_alloc@V?$allocator@V?$_List_unchecked_const_iterator@V?$_List_val@U?$_List_simple_types@PAUHINSTANCE__@@@std@@@std@@U_Iterator_base0@2@@std@@@std@@@std@@@std@@V?$_Vector_val@U?$_Simple_types@V?$_List_unchecked_const_iterator@V?$_List_val@U?$_List_simple_types@PAUHINSTANCE__@@@std@@@std@@U_Iterator_base0@2@@std@@@std@@@2@$00@std@@QBEABV?$_Vector_val@U?$_Simple_types@V?$_List_unchecked_const_iterator@V?$_List_val@U?$_List_simple_types@PAUHINSTANCE__@@@std@@@std@@U_Iterator_base0@2@@std@@@std@@@2@XZ ; std::_Compressed_pair<std::_Wrap_alloc<std::_Wrap_alloc<std::allocator<std::_List_unchecked_const_iterator<std::_List_val<std::_List_simple_types<HINSTANCE__ *> >,std::_Iterator_base0> > > >,std::_Vector_val<std::_Simple_types<std::_List_unchecked_const_iterator<std::_List_val<std::_List_simple_types<HINSTANCE__ *> >,std::_Iterator_base0> > >,1>::_Get_second
PUBLIC	??0?$vector@V?$_List_unchecked_const_iterator@V?$_List_val@U?$_List_simple_types@PAUHINSTANCE__@@@std@@@std@@U_Iterator_base0@2@@std@@U?$_Wrap_alloc@V?$allocator@V?$_List_unchecked_const_iterator@V?$_List_val@U?$_List_simple_types@PAUHINSTANCE__@@@std@@@std@@U_Iterator_base0@2@@std@@@std@@@2@@std@@QAE@ABU?$_Wrap_alloc@V?$allocator@V?$_List_unchecked_const_iterator@V?$_List_val@U?$_List_simple_types@PAUHINSTANCE__@@@std@@@std@@U_Iterator_base0@2@@std@@@std@@@1@@Z ; std::vector<std::_List_unchecked_const_iterator<std::_List_val<std::_List_simple_types<HINSTANCE__ *> >,std::_Iterator_base0>,std::_Wrap_alloc<std::allocator<std::_List_unchecked_const_iterator<std::_List_val<std::_List_simple_types<HINSTANCE__ *> >,std::_Iterator_base0> > > >::vector<std::_List_unchecked_const_iterator<std::_List_val<std::_List_simple_types<HINSTANCE__ *> >,std::_Iterator_base0>,std::_Wrap_alloc<std::allocator<std::_List_unchecked_const_iterator<std::_List_val<std::_List_simple_types<HINSTANCE__ *> >,std::_Iterator_base0> > > >
PUBLIC	??1?$vector@V?$_List_unchecked_const_iterator@V?$_List_val@U?$_List_simple_types@PAUHINSTANCE__@@@std@@@std@@U_Iterator_base0@2@@std@@U?$_Wrap_alloc@V?$allocator@V?$_List_unchecked_const_iterator@V?$_List_val@U?$_List_simple_types@PAUHINSTANCE__@@@std@@@std@@U_Iterator_base0@2@@std@@@std@@@2@@std@@QAE@XZ ; std::vector<std::_List_unchecked_const_iterator<std::_List_val<std::_List_simple_types<HINSTANCE__ *> >,std::_Iterator_base0>,std::_Wrap_alloc<std::allocator<std::_List_unchecked_const_iterator<std::_List_val<std::_List_simple_types<HINSTANCE__ *> >,std::_Iterator_base0> > > >::~vector<std::_List_unchecked_const_iterator<std::_List_val<std::_List_simple_types<HINSTANCE__ *> >,std::_Iterator_base0>,std::_Wrap_alloc<std::allocator<std::_List_unchecked_const_iterator<std::_List_val<std::_List_simple_types<HINSTANCE__ *> >,std::_Iterator_base0> > > >
PUBLIC	?assign@?$vector@V?$_List_unchecked_const_iterator@V?$_List_val@U?$_List_simple_types@PAUHINSTANCE__@@@std@@@std@@U_Iterator_base0@2@@std@@U?$_Wrap_alloc@V?$allocator@V?$_List_unchecked_const_iterator@V?$_List_val@U?$_List_simple_types@PAUHINSTANCE__@@@std@@@std@@U_Iterator_base0@2@@std@@@std@@@2@@std@@QAEXIABV?$_List_unchecked_const_iterator@V?$_List_val@U?$_List_simple_types@PAUHINSTANCE__@@@std@@@std@@U_Iterator_base0@2@@2@@Z ; std::vector<std::_List_unchecked_const_iterator<std::_List_val<std::_List_simple_types<HINSTANCE__ *> >,std::_Iterator_base0>,std::_Wrap_alloc<std::allocator<std::_List_unchecked_const_iterator<std::_List_val<std::_List_simple_types<HINSTANCE__ *> >,std::_Iterator_base0> > > >::assign
PUBLIC	?_Reallocate_exactly@?$vector@V?$_List_unchecked_const_iterator@V?$_List_val@U?$_List_simple_types@PAUHINSTANCE__@@@std@@@std@@U_Iterator_base0@2@@std@@U?$_Wrap_alloc@V?$allocator@V?$_List_unchecked_const_iterator@V?$_List_val@U?$_List_simple_types@PAUHINSTANCE__@@@std@@@std@@U_Iterator_base0@2@@std@@@std@@@2@@std@@AAEXI@Z ; std::vector<std::_List_unchecked_const_iterator<std::_List_val<std::_List_simple_types<HINSTANCE__ *> >,std::_Iterator_base0>,std::_Wrap_alloc<std::allocator<std::_List_unchecked_const_iterator<std::_List_val<std::_List_simple_types<HINSTANCE__ *> >,std::_Iterator_base0> > > >::_Reallocate_exactly
PUBLIC	?reserve@?$vector@V?$_List_unchecked_const_iterator@V?$_List_val@U?$_List_simple_types@PAUHINSTANCE__@@@std@@@std@@U_Iterator_base0@2@@std@@U?$_Wrap_alloc@V?$allocator@V?$_List_unchecked_const_iterator@V?$_List_val@U?$_List_simple_types@PAUHINSTANCE__@@@std@@@std@@U_Iterator_base0@2@@std@@@std@@@2@@std@@QAEXI@Z ; std::vector<std::_List_unchecked_const_iterator<std::_List_val<std::_List_simple_types<HINSTANCE__ *> >,std::_Iterator_base0>,std::_Wrap_alloc<std::allocator<std::_List_unchecked_const_iterator<std::_List_val<std::_List_simple_types<HINSTANCE__ *> >,std::_Iterator_base0> > > >::reserve
PUBLIC	?size@?$vector@V?$_List_unchecked_const_iterator@V?$_List_val@U?$_List_simple_types@PAUHINSTANCE__@@@std@@@std@@U_Iterator_base0@2@@std@@U?$_Wrap_alloc@V?$allocator@V?$_List_unchecked_const_iterator@V?$_List_val@U?$_List_simple_types@PAUHINSTANCE__@@@std@@@std@@U_Iterator_base0@2@@std@@@std@@@2@@std@@QBEIXZ ; std::vector<std::_List_unchecked_const_iterator<std::_List_val<std::_List_simple_types<HINSTANCE__ *> >,std::_Iterator_base0>,std::_Wrap_alloc<std::allocator<std::_List_unchecked_const_iterator<std::_List_val<std::_List_simple_types<HINSTANCE__ *> >,std::_Iterator_base0> > > >::size
PUBLIC	?max_size@?$vector@V?$_List_unchecked_const_iterator@V?$_List_val@U?$_List_simple_types@PAUHINSTANCE__@@@std@@@std@@U_Iterator_base0@2@@std@@U?$_Wrap_alloc@V?$allocator@V?$_List_unchecked_const_iterator@V?$_List_val@U?$_List_simple_types@PAUHINSTANCE__@@@std@@@std@@U_Iterator_base0@2@@std@@@std@@@2@@std@@QBEIXZ ; std::vector<std::_List_unchecked_const_iterator<std::_List_val<std::_List_simple_types<HINSTANCE__ *> >,std::_Iterator_base0>,std::_Wrap_alloc<std::allocator<std::_List_unchecked_const_iterator<std::_List_val<std::_List_simple_types<HINSTANCE__ *> >,std::_Iterator_base0> > > >::max_size
PUBLIC	?capacity@?$vector@V?$_List_unchecked_const_iterator@V?$_List_val@U?$_List_simple_types@PAUHINSTANCE__@@@std@@@std@@U_Iterator_base0@2@@std@@U?$_Wrap_alloc@V?$allocator@V?$_List_unchecked_const_iterator@V?$_List_val@U?$_List_simple_types@PAUHINSTANCE__@@@std@@@std@@U_Iterator_base0@2@@std@@@std@@@2@@std@@QBEIXZ ; std::vector<std::_List_unchecked_const_iterator<std::_List_val<std::_List_simple_types<HINSTANCE__ *> >,std::_Iterator_base0>,std::_Wrap_alloc<std::allocator<std::_List_unchecked_const_iterator<std::_List_val<std::_List_simple_types<HINSTANCE__ *> >,std::_Iterator_base0> > > >::capacity
PUBLIC	??A?$vector@V?$_List_unchecked_const_iterator@V?$_List_val@U?$_List_simple_types@PAUHINSTANCE__@@@std@@@std@@U_Iterator_base0@2@@std@@U?$_Wrap_alloc@V?$allocator@V?$_List_unchecked_const_iterator@V?$_List_val@U?$_List_simple_types@PAUHINSTANCE__@@@std@@@std@@U_Iterator_base0@2@@std@@@std@@@2@@std@@QAEAAV?$_List_unchecked_const_iterator@V?$_List_val@U?$_List_simple_types@PAUHINSTANCE__@@@std@@@std@@U_Iterator_base0@2@@1@I@Z ; std::vector<std::_List_unchecked_const_iterator<std::_List_val<std::_List_simple_types<HINSTANCE__ *> >,std::_Iterator_base0>,std::_Wrap_alloc<std::allocator<std::_List_unchecked_const_iterator<std::_List_val<std::_List_simple_types<HINSTANCE__ *> >,std::_Iterator_base0> > > >::operator[]
PUBLIC	??A?$vector@V?$_List_unchecked_const_iterator@V?$_List_val@U?$_List_simple_types@PAUHINSTANCE__@@@std@@@std@@U_Iterator_base0@2@@std@@U?$_Wrap_alloc@V?$allocator@V?$_List_unchecked_const_iterator@V?$_List_val@U?$_List_simple_types@PAUHINSTANCE__@@@std@@@std@@U_Iterator_base0@2@@std@@@std@@@2@@std@@QBEABV?$_List_unchecked_const_iterator@V?$_List_val@U?$_List_simple_types@PAUHINSTANCE__@@@std@@@std@@U_Iterator_base0@2@@1@I@Z ; std::vector<std::_List_unchecked_const_iterator<std::_List_val<std::_List_simple_types<HINSTANCE__ *> >,std::_Iterator_base0>,std::_Wrap_alloc<std::allocator<std::_List_unchecked_const_iterator<std::_List_val<std::_List_simple_types<HINSTANCE__ *> >,std::_Iterator_base0> > > >::operator[]
PUBLIC	?_Ufill@?$vector@V?$_List_unchecked_const_iterator@V?$_List_val@U?$_List_simple_types@PAUHINSTANCE__@@@std@@@std@@U_Iterator_base0@2@@std@@U?$_Wrap_alloc@V?$allocator@V?$_List_unchecked_const_iterator@V?$_List_val@U?$_List_simple_types@PAUHINSTANCE__@@@std@@@std@@U_Iterator_base0@2@@std@@@std@@@2@@std@@AAEPAV?$_List_unchecked_const_iterator@V?$_List_val@U?$_List_simple_types@PAUHINSTANCE__@@@std@@@std@@U_Iterator_base0@2@@2@PAV32@IABV32@@Z ; std::vector<std::_List_unchecked_const_iterator<std::_List_val<std::_List_simple_types<HINSTANCE__ *> >,std::_Iterator_base0>,std::_Wrap_alloc<std::allocator<std::_List_unchecked_const_iterator<std::_List_val<std::_List_simple_types<HINSTANCE__ *> >,std::_Iterator_base0> > > >::_Ufill
PUBLIC	?_Umove_if_noexcept1@?$vector@V?$_List_unchecked_const_iterator@V?$_List_val@U?$_List_simple_types@PAUHINSTANCE__@@@std@@@std@@U_Iterator_base0@2@@std@@U?$_Wrap_alloc@V?$allocator@V?$_List_unchecked_const_iterator@V?$_List_val@U?$_List_simple_types@PAUHINSTANCE__@@@std@@@std@@U_Iterator_base0@2@@std@@@std@@@2@@std@@AAEXPAV?$_List_unchecked_const_iterator@V?$_List_val@U?$_List_simple_types@PAUHINSTANCE__@@@std@@@std@@U_Iterator_base0@2@@2@00U?$integral_constant@_N$00@2@@Z ; std::vector<std::_List_unchecked_const_iterator<std::_List_val<std::_List_simple_types<HINSTANCE__ *> >,std::_Iterator_base0>,std::_Wrap_alloc<std::allocator<std::_List_unchecked_const_iterator<std::_List_val<std::_List_simple_types<HINSTANCE__ *> >,std::_Iterator_base0> > > >::_Umove_if_noexcept1
PUBLIC	?_Umove_if_noexcept@?$vector@V?$_List_unchecked_const_iterator@V?$_List_val@U?$_List_simple_types@PAUHINSTANCE__@@@std@@@std@@U_Iterator_base0@2@@std@@U?$_Wrap_alloc@V?$allocator@V?$_List_unchecked_const_iterator@V?$_List_val@U?$_List_simple_types@PAUHINSTANCE__@@@std@@@std@@U_Iterator_base0@2@@std@@@std@@@2@@std@@AAEXPAV?$_List_unchecked_const_iterator@V?$_List_val@U?$_List_simple_types@PAUHINSTANCE__@@@std@@@std@@U_Iterator_base0@2@@2@00@Z ; std::vector<std::_List_unchecked_const_iterator<std::_List_val<std::_List_simple_types<HINSTANCE__ *> >,std::_Iterator_base0>,std::_Wrap_alloc<std::allocator<std::_List_unchecked_const_iterator<std::_List_val<std::_List_simple_types<HINSTANCE__ *> >,std::_Iterator_base0> > > >::_Umove_if_noexcept
PUBLIC	?_Destroy@?$vector@V?$_List_unchecked_const_iterator@V?$_List_val@U?$_List_simple_types@PAUHINSTANCE__@@@std@@@std@@U_Iterator_base0@2@@std@@U?$_Wrap_alloc@V?$allocator@V?$_List_unchecked_const_iterator@V?$_List_val@U?$_List_simple_types@PAUHINSTANCE__@@@std@@@std@@U_Iterator_base0@2@@std@@@std@@@2@@std@@AAEXPAV?$_List_unchecked_const_iterator@V?$_List_val@U?$_List_simple_types@PAUHINSTANCE__@@@std@@@std@@U_Iterator_base0@2@@2@0@Z ; std::vector<std::_List_unchecked_const_iterator<std::_List_val<std::_List_simple_types<HINSTANCE__ *> >,std::_Iterator_base0>,std::_Wrap_alloc<std::allocator<std::_List_unchecked_const_iterator<std::_List_val<std::_List_simple_types<HINSTANCE__ *> >,std::_Iterator_base0> > > >::_Destroy
PUBLIC	?_Calculate_growth@?$vector@V?$_List_unchecked_const_iterator@V?$_List_val@U?$_List_simple_types@PAUHINSTANCE__@@@std@@@std@@U_Iterator_base0@2@@std@@U?$_Wrap_alloc@V?$allocator@V?$_List_unchecked_const_iterator@V?$_List_val@U?$_List_simple_types@PAUHINSTANCE__@@@std@@@std@@U_Iterator_base0@2@@std@@@std@@@2@@std@@ABEII@Z ; std::vector<std::_List_unchecked_const_iterator<std::_List_val<std::_List_simple_types<HINSTANCE__ *> >,std::_Iterator_base0>,std::_Wrap_alloc<std::allocator<std::_List_unchecked_const_iterator<std::_List_val<std::_List_simple_types<HINSTANCE__ *> >,std::_Iterator_base0> > > >::_Calculate_growth
PUBLIC	?_Buy@?$vector@V?$_List_unchecked_const_iterator@V?$_List_val@U?$_List_simple_types@PAUHINSTANCE__@@@std@@@std@@U_Iterator_base0@2@@std@@U?$_Wrap_alloc@V?$allocator@V?$_List_unchecked_const_iterator@V?$_List_val@U?$_List_simple_types@PAUHINSTANCE__@@@std@@@std@@U_Iterator_base0@2@@std@@@std@@@2@@std@@AAE_NI@Z ; std::vector<std::_List_unchecked_const_iterator<std::_List_val<std::_List_simple_types<HINSTANCE__ *> >,std::_Iterator_base0>,std::_Wrap_alloc<std::allocator<std::_List_unchecked_const_iterator<std::_List_val<std::_List_simple_types<HINSTANCE__ *> >,std::_Iterator_base0> > > >::_Buy
PUBLIC	?_Change_array@?$vector@V?$_List_unchecked_const_iterator@V?$_List_val@U?$_List_simple_types@PAUHINSTANCE__@@@std@@@std@@U_Iterator_base0@2@@std@@U?$_Wrap_alloc@V?$allocator@V?$_List_unchecked_const_iterator@V?$_List_val@U?$_List_simple_types@PAUHINSTANCE__@@@std@@@std@@U_Iterator_base0@2@@std@@@std@@@2@@std@@AAEXQAV?$_List_unchecked_const_iterator@V?$_List_val@U?$_List_simple_types@PAUHINSTANCE__@@@std@@@std@@U_Iterator_base0@2@@2@II@Z ; std::vector<std::_List_unchecked_const_iterator<std::_List_val<std::_List_simple_types<HINSTANCE__ *> >,std::_Iterator_base0>,std::_Wrap_alloc<std::allocator<std::_List_unchecked_const_iterator<std::_List_val<std::_List_simple_types<HINSTANCE__ *> >,std::_Iterator_base0> > > >::_Change_array
PUBLIC	?_Tidy@?$vector@V?$_List_unchecked_const_iterator@V?$_List_val@U?$_List_simple_types@PAUHINSTANCE__@@@std@@@std@@U_Iterator_base0@2@@std@@U?$_Wrap_alloc@V?$allocator@V?$_List_unchecked_const_iterator@V?$_List_val@U?$_List_simple_types@PAUHINSTANCE__@@@std@@@std@@U_Iterator_base0@2@@std@@@std@@@2@@std@@AAEXXZ ; std::vector<std::_List_unchecked_const_iterator<std::_List_val<std::_List_simple_types<HINSTANCE__ *> >,std::_Iterator_base0>,std::_Wrap_alloc<std::allocator<std::_List_unchecked_const_iterator<std::_List_val<std::_List_simple_types<HINSTANCE__ *> >,std::_Iterator_base0> > > >::_Tidy
PUBLIC	?_Xlength@?$vector@V?$_List_unchecked_const_iterator@V?$_List_val@U?$_List_simple_types@PAUHINSTANCE__@@@std@@@std@@U_Iterator_base0@2@@std@@U?$_Wrap_alloc@V?$allocator@V?$_List_unchecked_const_iterator@V?$_List_val@U?$_List_simple_types@PAUHINSTANCE__@@@std@@@std@@U_Iterator_base0@2@@std@@@std@@@2@@std@@CAXXZ ; std::vector<std::_List_unchecked_const_iterator<std::_List_val<std::_List_simple_types<HINSTANCE__ *> >,std::_Iterator_base0>,std::_Wrap_alloc<std::allocator<std::_List_unchecked_const_iterator<std::_List_val<std::_List_simple_types<HINSTANCE__ *> >,std::_Iterator_base0> > > >::_Xlength
PUBLIC	??0?$unordered_set@PAUHINSTANCE__@@U?$hash@PAUHINSTANCE__@@@std@@U?$equal_to@PAUHINSTANCE__@@@3@V?$allocator@PAUHINSTANCE__@@@3@@std@@QAE@XZ ; std::unordered_set<HINSTANCE__ *,std::hash<HINSTANCE__ *>,std::equal_to<HINSTANCE__ *>,std::allocator<HINSTANCE__ *> >::unordered_set<HINSTANCE__ *,std::hash<HINSTANCE__ *>,std::equal_to<HINSTANCE__ *>,std::allocator<HINSTANCE__ *> >
PUBLIC	??1?$unordered_set@PAUHINSTANCE__@@U?$hash@PAUHINSTANCE__@@@std@@U?$equal_to@PAUHINSTANCE__@@@3@V?$allocator@PAUHINSTANCE__@@@3@@std@@QAE@XZ ; std::unordered_set<HINSTANCE__ *,std::hash<HINSTANCE__ *>,std::equal_to<HINSTANCE__ *>,std::allocator<HINSTANCE__ *> >::~unordered_set<HINSTANCE__ *,std::hash<HINSTANCE__ *>,std::equal_to<HINSTANCE__ *>,std::allocator<HINSTANCE__ *> >
PUBLIC	?_SK_SummarizeModule@@YAXPAXIPAUHINSTANCE__@@IPA_WPAUiSK_Logger@@@Z ; _SK_SummarizeModule
PUBLIC	??$?9_WU?$char_traits@_W@std@@V?$allocator@_W@1@@std@@YA_NABV?$basic_string@_WU?$char_traits@_W@std@@V?$allocator@_W@2@@0@QB_W@Z ; std::operator!=<wchar_t,std::char_traits<wchar_t>,std::allocator<wchar_t> >
PUBLIC	?SK_ThreadWalkModules@@YAXPAUenum_working_set_s@@@Z ; SK_ThreadWalkModules
PUBLIC	??$insert@$0A@$0A@@?$_Hash@V?$_Uset_traits@PAUHINSTANCE__@@V?$_Uhash_compare@PAUHINSTANCE__@@U?$hash@PAUHINSTANCE__@@@std@@U?$equal_to@PAUHINSTANCE__@@@3@@std@@V?$allocator@PAUHINSTANCE__@@@3@$0A@@std@@@std@@QAE?AU?$pair@V?$_List_const_iterator@V?$_List_val@U?$_List_simple_types@PAUHINSTANCE__@@@std@@@std@@@std@@_N@1@ABQAUHINSTANCE__@@@Z ; std::_Hash<std::_Uset_traits<HINSTANCE__ *,std::_Uhash_compare<HINSTANCE__ *,std::hash<HINSTANCE__ *>,std::equal_to<HINSTANCE__ *> >,std::allocator<HINSTANCE__ *>,0> >::insert<0,0>
PUBLIC	??0?$_List_unchecked_const_iterator@V?$_List_val@U?$_List_simple_types@PAUHINSTANCE__@@@std@@@std@@U_Iterator_base0@2@@std@@QAE@XZ ; std::_List_unchecked_const_iterator<std::_List_val<std::_List_simple_types<HINSTANCE__ *> >,std::_Iterator_base0>::_List_unchecked_const_iterator<std::_List_val<std::_List_simple_types<HINSTANCE__ *> >,std::_Iterator_base0>
PUBLIC	??0?$_List_unchecked_const_iterator@V?$_List_val@U?$_List_simple_types@PAUHINSTANCE__@@@std@@@std@@U_Iterator_base0@2@@std@@QAE@PAU?$_List_node@PAUHINSTANCE__@@PAX@1@PBV?$_List_val@U?$_List_simple_types@PAUHINSTANCE__@@@std@@@1@@Z ; std::_List_unchecked_const_iterator<std::_List_val<std::_List_simple_types<HINSTANCE__ *> >,std::_Iterator_base0>::_List_unchecked_const_iterator<std::_List_val<std::_List_simple_types<HINSTANCE__ *> >,std::_Iterator_base0>
PUBLIC	??D?$_List_unchecked_const_iterator@V?$_List_val@U?$_List_simple_types@PAUHINSTANCE__@@@std@@@std@@U_Iterator_base0@2@@std@@QBEABQAUHINSTANCE__@@XZ ; std::_List_unchecked_const_iterator<std::_List_val<std::_List_simple_types<HINSTANCE__ *> >,std::_Iterator_base0>::operator*
PUBLIC	??E?$_List_unchecked_const_iterator@V?$_List_val@U?$_List_simple_types@PAUHINSTANCE__@@@std@@@std@@U_Iterator_base0@2@@std@@QAEAAV01@XZ ; std::_List_unchecked_const_iterator<std::_List_val<std::_List_simple_types<HINSTANCE__ *> >,std::_Iterator_base0>::operator++
PUBLIC	??F?$_List_unchecked_const_iterator@V?$_List_val@U?$_List_simple_types@PAUHINSTANCE__@@@std@@@std@@U_Iterator_base0@2@@std@@QAEAAV01@XZ ; std::_List_unchecked_const_iterator<std::_List_val<std::_List_simple_types<HINSTANCE__ *> >,std::_Iterator_base0>::operator--
PUBLIC	??8?$_List_unchecked_const_iterator@V?$_List_val@U?$_List_simple_types@PAUHINSTANCE__@@@std@@@std@@U_Iterator_base0@2@@std@@QBE_NABV01@@Z ; std::_List_unchecked_const_iterator<std::_List_val<std::_List_simple_types<HINSTANCE__ *> >,std::_Iterator_base0>::operator==
PUBLIC	??9?$_List_unchecked_const_iterator@V?$_List_val@U?$_List_simple_types@PAUHINSTANCE__@@@std@@@std@@U_Iterator_base0@2@@std@@QBE_NABV01@@Z ; std::_List_unchecked_const_iterator<std::_List_val<std::_List_simple_types<HINSTANCE__ *> >,std::_Iterator_base0>::operator!=
PUBLIC	?_Mynode@?$_List_unchecked_const_iterator@V?$_List_val@U?$_List_simple_types@PAUHINSTANCE__@@@std@@@std@@U_Iterator_base0@2@@std@@QBEPAU?$_List_node@PAUHINSTANCE__@@PAX@2@XZ ; std::_List_unchecked_const_iterator<std::_List_val<std::_List_simple_types<HINSTANCE__ *> >,std::_Iterator_base0>::_Mynode
PUBLIC	??0?$_List_const_iterator@V?$_List_val@U?$_List_simple_types@PAUHINSTANCE__@@@std@@@std@@@std@@QAE@PAU?$_List_node@PAUHINSTANCE__@@PAX@1@PBV?$_List_val@U?$_List_simple_types@PAUHINSTANCE__@@@std@@@1@@Z ; std::_List_const_iterator<std::_List_val<std::_List_simple_types<HINSTANCE__ *> > >::_List_const_iterator<std::_List_val<std::_List_simple_types<HINSTANCE__ *> > >
PUBLIC	?_Unchecked@?$_List_const_iterator@V?$_List_val@U?$_List_simple_types@PAUHINSTANCE__@@@std@@@std@@@std@@QBE?AV?$_List_unchecked_const_iterator@V?$_List_val@U?$_List_simple_types@PAUHINSTANCE__@@@std@@@std@@U_Iterator_base0@2@@2@XZ ; std::_List_const_iterator<std::_List_val<std::_List_simple_types<HINSTANCE__ *> > >::_Unchecked
PUBLIC	??D?$_List_const_iterator@V?$_List_val@U?$_List_simple_types@PAUHINSTANCE__@@@std@@@std@@@std@@QBEABQAUHINSTANCE__@@XZ ; std::_List_const_iterator<std::_List_val<std::_List_simple_types<HINSTANCE__ *> > >::operator*
PUBLIC	??E?$_List_const_iterator@V?$_List_val@U?$_List_simple_types@PAUHINSTANCE__@@@std@@@std@@@std@@QAEAAV01@XZ ; std::_List_const_iterator<std::_List_val<std::_List_simple_types<HINSTANCE__ *> > >::operator++
PUBLIC	??E?$_List_const_iterator@V?$_List_val@U?$_List_simple_types@PAUHINSTANCE__@@@std@@@std@@@std@@QAE?AV01@H@Z ; std::_List_const_iterator<std::_List_val<std::_List_simple_types<HINSTANCE__ *> > >::operator++
PUBLIC	??8?$_List_const_iterator@V?$_List_val@U?$_List_simple_types@PAUHINSTANCE__@@@std@@@std@@@std@@QBE_NABV01@@Z ; std::_List_const_iterator<std::_List_val<std::_List_simple_types<HINSTANCE__ *> > >::operator==
PUBLIC	??9?$_List_const_iterator@V?$_List_val@U?$_List_simple_types@PAUHINSTANCE__@@@std@@@std@@@std@@QBE_NABV01@@Z ; std::_List_const_iterator<std::_List_val<std::_List_simple_types<HINSTANCE__ *> > >::operator!=
PUBLIC	?SK_BootModule@@YAXPB_W@Z			; SK_BootModule
PUBLIC	?SK_WalkModules@@YAXHPAXPAPAUHINSTANCE__@@W4SK_ModuleEnum@@@Z ; SK_WalkModules
PUBLIC	?TaskDialogCallback@@YGJPAUHWND__@@IIJJ@Z	; TaskDialogCallback
PUBLIC	?SK_TaskBoxWithConfirm@@YGJPA_WPB_W00010PAH@Z	; SK_TaskBoxWithConfirm
PUBLIC	?SK_TaskBoxWithConfirmEx@@YGJPA_WPB_W00010PAH0@Z ; SK_TaskBoxWithConfirmEx
PUBLIC	??0?$allocator@K@std@@QAE@XZ			; std::allocator<unsigned long>::allocator<unsigned long>
PUBLIC	??0?$allocator@K@std@@QAE@ABV01@@Z		; std::allocator<unsigned long>::allocator<unsigned long>
PUBLIC	?deallocate@?$allocator@K@std@@QAEXPAKI@Z	; std::allocator<unsigned long>::deallocate
PUBLIC	?allocate@?$allocator@K@std@@QAEPAKI@Z		; std::allocator<unsigned long>::allocate
PUBLIC	?max_size@?$allocator@K@std@@QBEIXZ		; std::allocator<unsigned long>::max_size
PUBLIC	?max_size@?$allocator_traits@V?$allocator@K@std@@@std@@SAIABV?$allocator@K@2@@Z ; std::allocator_traits<std::allocator<unsigned long> >::max_size
PUBLIC	?select_on_container_copy_construction@?$allocator_traits@V?$allocator@K@std@@@std@@SA?AV?$allocator@K@2@ABV32@@Z ; std::allocator_traits<std::allocator<unsigned long> >::select_on_container_copy_construction
PUBLIC	?select_on_container_copy_construction@?$_Wrap_alloc@V?$allocator@K@std@@@std@@QBE?AU12@U_Nil@2@@Z ; std::_Wrap_alloc<std::allocator<unsigned long> >::select_on_container_copy_construction
PUBLIC	??0?$_Wrap_alloc@V?$allocator@K@std@@@std@@QAE@XZ ; std::_Wrap_alloc<std::allocator<unsigned long> >::_Wrap_alloc<std::allocator<unsigned long> >
PUBLIC	??0?$_Wrap_alloc@V?$allocator@K@std@@@std@@QAE@$$QAU01@@Z ; std::_Wrap_alloc<std::allocator<unsigned long> >::_Wrap_alloc<std::allocator<unsigned long> >
PUBLIC	?allocate@?$_Wrap_alloc@V?$allocator@K@std@@@std@@QAEPAKI@Z ; std::_Wrap_alloc<std::allocator<unsigned long> >::allocate
PUBLIC	?deallocate@?$_Wrap_alloc@V?$allocator@K@std@@@std@@QAEXPAKI@Z ; std::_Wrap_alloc<std::allocator<unsigned long> >::deallocate
PUBLIC	?max_size@?$_Wrap_alloc@V?$allocator@K@std@@@std@@QBEIU_Nil@2@@Z ; std::_Wrap_alloc<std::allocator<unsigned long> >::max_size
PUBLIC	?deallocate@?$allocator@PAK@std@@QAEXPAPAKI@Z	; std::allocator<unsigned long *>::deallocate
PUBLIC	?allocate@?$allocator@PAK@std@@QAEPAPAKI@Z	; std::allocator<unsigned long *>::allocate
PUBLIC	?allocate@?$_Wrap_alloc@V?$allocator@PAK@std@@@std@@QAEPAPAKI@Z ; std::_Wrap_alloc<std::allocator<unsigned long *> >::allocate
PUBLIC	?deallocate@?$_Wrap_alloc@V?$allocator@PAK@std@@@std@@QAEXPAPAKI@Z ; std::_Wrap_alloc<std::allocator<unsigned long *> >::deallocate
PUBLIC	?_Getblock@?$_Deque_alloc@U?$_Deque_base_types@KV?$allocator@K@std@@@std@@@std@@QBEII@Z ; std::_Deque_alloc<std::_Deque_base_types<unsigned long,std::allocator<unsigned long> > >::_Getblock
PUBLIC	??0?$_Deque_alloc@U?$_Deque_base_types@KV?$allocator@K@std@@@std@@@std@@QAE@XZ ; std::_Deque_alloc<std::_Deque_base_types<unsigned long,std::allocator<unsigned long> > >::_Deque_alloc<std::_Deque_base_types<unsigned long,std::allocator<unsigned long> > >
PUBLIC	??1?$_Deque_alloc@U?$_Deque_base_types@KV?$allocator@K@std@@@std@@@std@@QAE@XZ ; std::_Deque_alloc<std::_Deque_base_types<unsigned long,std::allocator<unsigned long> > >::~_Deque_alloc<std::_Deque_base_types<unsigned long,std::allocator<unsigned long> > >
PUBLIC	?_Alloc_proxy@?$_Deque_alloc@U?$_Deque_base_types@KV?$allocator@K@std@@@std@@@std@@QAEXXZ ; std::_Deque_alloc<std::_Deque_base_types<unsigned long,std::allocator<unsigned long> > >::_Alloc_proxy
PUBLIC	?_Free_proxy@?$_Deque_alloc@U?$_Deque_base_types@KV?$allocator@K@std@@@std@@@std@@QAEXXZ ; std::_Deque_alloc<std::_Deque_base_types<unsigned long,std::allocator<unsigned long> > >::_Free_proxy
PUBLIC	?_Myproxy@?$_Deque_alloc@U?$_Deque_base_types@KV?$allocator@K@std@@@std@@@std@@QAEAAPAU_Container_proxy@2@XZ ; std::_Deque_alloc<std::_Deque_base_types<unsigned long,std::allocator<unsigned long> > >::_Myproxy
PUBLIC	?_Orphan_all@?$_Deque_alloc@U?$_Deque_base_types@KV?$allocator@K@std@@@std@@@std@@QAEXXZ ; std::_Deque_alloc<std::_Deque_base_types<unsigned long,std::allocator<unsigned long> > >::_Orphan_all
PUBLIC	?_Getal@?$_Deque_alloc@U?$_Deque_base_types@KV?$allocator@K@std@@@std@@@std@@QAEAAU?$_Wrap_alloc@V?$allocator@K@std@@@2@XZ ; std::_Deque_alloc<std::_Deque_base_types<unsigned long,std::allocator<unsigned long> > >::_Getal
PUBLIC	?_Getal@?$_Deque_alloc@U?$_Deque_base_types@KV?$allocator@K@std@@@std@@@std@@QBEABU?$_Wrap_alloc@V?$allocator@K@std@@@2@XZ ; std::_Deque_alloc<std::_Deque_base_types<unsigned long,std::allocator<unsigned long> > >::_Getal
PUBLIC	?_Get_data@?$_Deque_alloc@U?$_Deque_base_types@KV?$allocator@K@std@@@std@@@std@@QAEAAV?$_Deque_val@U?$_Deque_simple_types@K@std@@@2@XZ ; std::_Deque_alloc<std::_Deque_base_types<unsigned long,std::allocator<unsigned long> > >::_Get_data
PUBLIC	?_Get_data@?$_Deque_alloc@U?$_Deque_base_types@KV?$allocator@K@std@@@std@@@std@@QBEABV?$_Deque_val@U?$_Deque_simple_types@K@std@@@2@XZ ; std::_Deque_alloc<std::_Deque_base_types<unsigned long,std::allocator<unsigned long> > >::_Get_data
PUBLIC	?_Map@?$_Deque_alloc@U?$_Deque_base_types@KV?$allocator@K@std@@@std@@@std@@QAEAAPAPAKXZ ; std::_Deque_alloc<std::_Deque_base_types<unsigned long,std::allocator<unsigned long> > >::_Map
PUBLIC	?_Mapsize@?$_Deque_alloc@U?$_Deque_base_types@KV?$allocator@K@std@@@std@@@std@@QAEAAIXZ ; std::_Deque_alloc<std::_Deque_base_types<unsigned long,std::allocator<unsigned long> > >::_Mapsize
PUBLIC	?_Myoff@?$_Deque_alloc@U?$_Deque_base_types@KV?$allocator@K@std@@@std@@@std@@QAEAAIXZ ; std::_Deque_alloc<std::_Deque_base_types<unsigned long,std::allocator<unsigned long> > >::_Myoff
PUBLIC	?_Myoff@?$_Deque_alloc@U?$_Deque_base_types@KV?$allocator@K@std@@@std@@@std@@QBEABIXZ ; std::_Deque_alloc<std::_Deque_base_types<unsigned long,std::allocator<unsigned long> > >::_Myoff
PUBLIC	?_Mysize@?$_Deque_alloc@U?$_Deque_base_types@KV?$allocator@K@std@@@std@@@std@@QAEAAIXZ ; std::_Deque_alloc<std::_Deque_base_types<unsigned long,std::allocator<unsigned long> > >::_Mysize
PUBLIC	?_Mysize@?$_Deque_alloc@U?$_Deque_base_types@KV?$allocator@K@std@@@std@@@std@@QBEABIXZ ; std::_Deque_alloc<std::_Deque_base_types<unsigned long,std::allocator<unsigned long> > >::_Mysize
PUBLIC	??0?$_Deque_val@U?$_Deque_simple_types@K@std@@@std@@QAE@XZ ; std::_Deque_val<std::_Deque_simple_types<unsigned long> >::_Deque_val<std::_Deque_simple_types<unsigned long> >
PUBLIC	?_Getblock@?$_Deque_val@U?$_Deque_simple_types@K@std@@@std@@QBEII@Z ; std::_Deque_val<std::_Deque_simple_types<unsigned long> >::_Getblock
PUBLIC	??1?$_Deque_val@U?$_Deque_simple_types@K@std@@@std@@QAE@XZ ; std::_Deque_val<std::_Deque_simple_types<unsigned long> >::~_Deque_val<std::_Deque_simple_types<unsigned long> >
PUBLIC	?_Get_first@?$_Compressed_pair@U?$_Wrap_alloc@V?$allocator@K@std@@@std@@V?$_Deque_val@U?$_Deque_simple_types@K@std@@@2@$00@std@@QAEAAU?$_Wrap_alloc@V?$allocator@K@std@@@2@XZ ; std::_Compressed_pair<std::_Wrap_alloc<std::allocator<unsigned long> >,std::_Deque_val<std::_Deque_simple_types<unsigned long> >,1>::_Get_first
PUBLIC	?_Get_first@?$_Compressed_pair@U?$_Wrap_alloc@V?$allocator@K@std@@@std@@V?$_Deque_val@U?$_Deque_simple_types@K@std@@@2@$00@std@@QBEABU?$_Wrap_alloc@V?$allocator@K@std@@@2@XZ ; std::_Compressed_pair<std::_Wrap_alloc<std::allocator<unsigned long> >,std::_Deque_val<std::_Deque_simple_types<unsigned long> >,1>::_Get_first
PUBLIC	?_Get_second@?$_Compressed_pair@U?$_Wrap_alloc@V?$allocator@K@std@@@std@@V?$_Deque_val@U?$_Deque_simple_types@K@std@@@2@$00@std@@QAEAAV?$_Deque_val@U?$_Deque_simple_types@K@std@@@2@XZ ; std::_Compressed_pair<std::_Wrap_alloc<std::allocator<unsigned long> >,std::_Deque_val<std::_Deque_simple_types<unsigned long> >,1>::_Get_second
PUBLIC	?_Get_second@?$_Compressed_pair@U?$_Wrap_alloc@V?$allocator@K@std@@@std@@V?$_Deque_val@U?$_Deque_simple_types@K@std@@@2@$00@std@@QBEABV?$_Deque_val@U?$_Deque_simple_types@K@std@@@2@XZ ; std::_Compressed_pair<std::_Wrap_alloc<std::allocator<unsigned long> >,std::_Deque_val<std::_Deque_simple_types<unsigned long> >,1>::_Get_second
PUBLIC	??1?$_Compressed_pair@U?$_Wrap_alloc@V?$allocator@K@std@@@std@@V?$_Deque_val@U?$_Deque_simple_types@K@std@@@2@$00@std@@QAE@XZ ; std::_Compressed_pair<std::_Wrap_alloc<std::allocator<unsigned long> >,std::_Deque_val<std::_Deque_simple_types<unsigned long> >,1>::~_Compressed_pair<std::_Wrap_alloc<std::allocator<unsigned long> >,std::_Deque_val<std::_Deque_simple_types<unsigned long> >,1>
PUBLIC	??0?$deque@KV?$allocator@K@std@@@std@@QAE@XZ	; std::deque<unsigned long,std::allocator<unsigned long> >::deque<unsigned long,std::allocator<unsigned long> >
PUBLIC	??0?$deque@KV?$allocator@K@std@@@std@@QAE@ABV01@@Z ; std::deque<unsigned long,std::allocator<unsigned long> >::deque<unsigned long,std::allocator<unsigned long> >
PUBLIC	??1?$deque@KV?$allocator@K@std@@@std@@QAE@XZ	; std::deque<unsigned long,std::allocator<unsigned long> >::~deque<unsigned long,std::allocator<unsigned long> >
PUBLIC	?begin@?$deque@KV?$allocator@K@std@@@std@@QBE?AV?$_Deque_const_iterator@V?$_Deque_val@U?$_Deque_simple_types@K@std@@@std@@@2@XZ ; std::deque<unsigned long,std::allocator<unsigned long> >::begin
PUBLIC	?end@?$deque@KV?$allocator@K@std@@@std@@QBE?AV?$_Deque_const_iterator@V?$_Deque_val@U?$_Deque_simple_types@K@std@@@std@@@2@XZ ; std::deque<unsigned long,std::allocator<unsigned long> >::end
PUBLIC	?max_size@?$deque@KV?$allocator@K@std@@@std@@QBEIXZ ; std::deque<unsigned long,std::allocator<unsigned long> >::max_size
PUBLIC	?empty@?$deque@KV?$allocator@K@std@@@std@@QBE_NXZ ; std::deque<unsigned long,std::allocator<unsigned long> >::empty
PUBLIC	?pop_back@?$deque@KV?$allocator@K@std@@@std@@QAEXXZ ; std::deque<unsigned long,std::allocator<unsigned long> >::pop_back
PUBLIC	?_Xlen@?$deque@KV?$allocator@K@std@@@std@@IBEXXZ ; std::deque<unsigned long,std::allocator<unsigned long> >::_Xlen
PUBLIC	?_Growmap@?$deque@KV?$allocator@K@std@@@std@@IAEXI@Z ; std::deque<unsigned long,std::allocator<unsigned long> >::_Growmap
PUBLIC	?_Tidy@?$deque@KV?$allocator@K@std@@@std@@IAEXXZ ; std::deque<unsigned long,std::allocator<unsigned long> >::_Tidy
PUBLIC	??0?$queue@KV?$deque@KV?$allocator@K@std@@@std@@@std@@QAE@XZ ; std::queue<unsigned long,std::deque<unsigned long,std::allocator<unsigned long> > >::queue<unsigned long,std::deque<unsigned long,std::allocator<unsigned long> > >
PUBLIC	??1?$queue@KV?$deque@KV?$allocator@K@std@@@std@@@std@@QAE@XZ ; std::queue<unsigned long,std::deque<unsigned long,std::allocator<unsigned long> > >::~queue<unsigned long,std::deque<unsigned long,std::allocator<unsigned long> > >
PUBLIC	??0?$queue@KV?$deque@KV?$allocator@K@std@@@std@@@std@@QAE@ABV01@@Z ; std::queue<unsigned long,std::deque<unsigned long,std::allocator<unsigned long> > >::queue<unsigned long,std::deque<unsigned long,std::allocator<unsigned long> > >
PUBLIC	?SK_Bypass_CRT@@YGKPAX@Z			; SK_Bypass_CRT
PUBLIC	??$?H_WU?$char_traits@_W@std@@V?$allocator@_W@1@@std@@YA?AV?$basic_string@_WU?$char_traits@_W@std@@V?$allocator@_W@2@@0@$$QAV10@QB_W@Z ; std::operator+<wchar_t,std::char_traits<wchar_t>,std::allocator<wchar_t> >
PUBLIC	??R<lambda_55f83f870d089daf2b9021acb718ea77>@@QBEHXZ ; <lambda_55f83f870d089daf2b9021acb718ea77>::operator()
PUBLIC	?GetClientRect_BlockingCallOfDeath@@YGHPAUHWND__@@PAUtagRECT@@@Z ; GetClientRect_BlockingCallOfDeath
PUBLIC	?GetWindowRect_BlockingCallOfDeath@@YGHPAUHWND__@@PAUtagRECT@@@Z ; GetWindowRect_BlockingCallOfDeath
PUBLIC	?GetSystemMetrics_BlockingCallOfDeath@@YGHH@Z	; GetSystemMetrics_BlockingCallOfDeath
PUBLIC	?SK_BypassInject@@YG?AU?$pair@V?$queue@KV?$deque@KV?$allocator@K@std@@@std@@@std@@H@std@@XZ ; SK_BypassInject
PUBLIC	??1?$pair@V?$queue@KV?$deque@KV?$allocator@K@std@@@std@@@std@@H@std@@QAE@XZ ; std::pair<std::queue<unsigned long,std::deque<unsigned long,std::allocator<unsigned long> > >,int>::~pair<std::queue<unsigned long,std::deque<unsigned long,std::allocator<unsigned long> > >,int>
PUBLIC	??$make_pair@AAV?$queue@KV?$deque@KV?$allocator@K@std@@@std@@@std@@AAH@std@@YA?AU?$pair@V?$queue@KV?$deque@KV?$allocator@K@std@@@std@@@std@@H@0@AAV?$queue@KV?$deque@KV?$allocator@K@std@@@std@@@0@AAH@Z ; std::make_pair<std::queue<unsigned long,std::deque<unsigned long,std::allocator<unsigned long> > > &,int &>
PUBLIC	?SK_COMPAT_FixUpFullscreen_DXGI@@YAX_N@Z	; SK_COMPAT_FixUpFullscreen_DXGI
PUBLIC	??$distance@V?$_List_const_iterator@V?$_List_val@U?$_List_simple_types@PAUHINSTANCE__@@@std@@@std@@@std@@@std@@YAHV?$_List_const_iterator@V?$_List_val@U?$_List_simple_types@PAUHINSTANCE__@@@std@@@std@@@0@0@Z ; std::distance<std::_List_const_iterator<std::_List_val<std::_List_simple_types<HINSTANCE__ *> > > >
PUBLIC	??$?0U?$_Wrap_alloc@V?$allocator@K@std@@@std@@X@?$_Deque_alloc@U?$_Deque_base_types@KV?$allocator@K@std@@@std@@@std@@QAE@$$QAU?$_Wrap_alloc@V?$allocator@K@std@@@1@@Z ; std::_Deque_alloc<std::_Deque_base_types<unsigned long,std::allocator<unsigned long> > >::_Deque_alloc<std::_Deque_base_types<unsigned long,std::allocator<unsigned long> > ><std::_Wrap_alloc<std::allocator<unsigned long> >,void>
PUBLIC	??0?$_Deque_const_iterator@V?$_Deque_val@U?$_Deque_simple_types@K@std@@@std@@@std@@QAE@IPBU_Container_base12@1@@Z ; std::_Deque_const_iterator<std::_Deque_val<std::_Deque_simple_types<unsigned long> > >::_Deque_const_iterator<std::_Deque_val<std::_Deque_simple_types<unsigned long> > >
PUBLIC	??D?$_Deque_const_iterator@V?$_Deque_val@U?$_Deque_simple_types@K@std@@@std@@@std@@QBEABKXZ ; std::_Deque_const_iterator<std::_Deque_val<std::_Deque_simple_types<unsigned long> > >::operator*
PUBLIC	??E?$_Deque_const_iterator@V?$_Deque_val@U?$_Deque_simple_types@K@std@@@std@@@std@@QAEAAV01@XZ ; std::_Deque_const_iterator<std::_Deque_val<std::_Deque_simple_types<unsigned long> > >::operator++
PUBLIC	??8?$_Deque_const_iterator@V?$_Deque_val@U?$_Deque_simple_types@K@std@@@std@@@std@@QBE_NABV01@@Z ; std::_Deque_const_iterator<std::_Deque_val<std::_Deque_simple_types<unsigned long> > >::operator==
PUBLIC	??9?$_Deque_const_iterator@V?$_Deque_val@U?$_Deque_simple_types@K@std@@@std@@@std@@QBE_NABV01@@Z ; std::_Deque_const_iterator<std::_Deque_val<std::_Deque_simple_types<unsigned long> > >::operator!=
PUBLIC	?_Compat@?$_Deque_const_iterator@V?$_Deque_val@U?$_Deque_simple_types@K@std@@@std@@@std@@QBEXABV12@@Z ; std::_Deque_const_iterator<std::_Deque_val<std::_Deque_simple_types<unsigned long> > >::_Compat
PUBLIC	?_Setcont@?$_Deque_const_iterator@V?$_Deque_val@U?$_Deque_simple_types@K@std@@@std@@@std@@QAEXPBV?$_Deque_val@U?$_Deque_simple_types@K@std@@@2@@Z ; std::_Deque_const_iterator<std::_Deque_val<std::_Deque_simple_types<unsigned long> > >::_Setcont
PUBLIC	??1?$_Deque_const_iterator@V?$_Deque_val@U?$_Deque_simple_types@K@std@@@std@@@std@@QAE@XZ ; std::_Deque_const_iterator<std::_Deque_val<std::_Deque_simple_types<unsigned long> > >::~_Deque_const_iterator<std::_Deque_val<std::_Deque_simple_types<unsigned long> > >
PUBLIC	??$_Construct@V?$_Deque_const_iterator@V?$_Deque_val@U?$_Deque_simple_types@K@std@@@std@@@std@@@?$deque@KV?$allocator@K@std@@@std@@QAEXV?$_Deque_const_iterator@V?$_Deque_val@U?$_Deque_simple_types@K@std@@@std@@@1@0@Z ; std::deque<unsigned long,std::allocator<unsigned long> >::_Construct<std::_Deque_const_iterator<std::_Deque_val<std::_Deque_simple_types<unsigned long> > > >
PUBLIC	??$_Traits_find@U?$char_traits@_W@std@@@std@@YAIQB_WII0I@Z ; std::_Traits_find<std::char_traits<wchar_t> >
PUBLIC	??$addressof@V?$basic_string@_WU?$char_traits@_W@std@@V?$allocator@_W@2@@std@@@std@@YAPAV?$basic_string@_WU?$char_traits@_W@std@@V?$allocator@_W@2@@0@AAV10@@Z ; std::addressof<std::basic_string<wchar_t,std::char_traits<wchar_t>,std::allocator<wchar_t> > >
PUBLIC	??$move@AAV?$basic_string@_WU?$char_traits@_W@std@@V?$allocator@_W@2@@std@@@std@@YA$$QAV?$basic_string@_WU?$char_traits@_W@std@@V?$allocator@_W@2@@0@AAV10@@Z ; std::move<std::basic_string<wchar_t,std::char_traits<wchar_t>,std::allocator<wchar_t> > &>
PUBLIC	??$?0V?$allocator@K@std@@@?$_Wrap_alloc@V?$allocator@K@std@@@std@@QAE@$$QAV?$allocator@K@1@@Z ; std::_Wrap_alloc<std::allocator<unsigned long> >::_Wrap_alloc<std::allocator<unsigned long> ><std::allocator<unsigned long> >
PUBLIC	??$?0V?$_List_const_iterator@V?$_List_val@U?$_List_simple_types@PAUHINSTANCE__@@@std@@@std@@@std@@V01@X$0A@@?$pair@V?$_List_const_iterator@V?$_List_val@U?$_List_simple_types@PAUHINSTANCE__@@@std@@@std@@@std@@V12@@std@@QAE@$$QAV?$_List_const_iterator@V?$_List_val@U?$_List_simple_types@PAUHINSTANCE__@@@std@@@std@@@1@0@Z ; std::pair<std::_List_const_iterator<std::_List_val<std::_List_simple_types<HINSTANCE__ *> > >,std::_List_const_iterator<std::_List_val<std::_List_simple_types<HINSTANCE__ *> > > >::pair<std::_List_const_iterator<std::_List_val<std::_List_simple_types<HINSTANCE__ *> > >,std::_List_const_iterator<std::_List_val<std::_List_simple_types<HINSTANCE__ *> > > ><std::_List_const_iterator<std::_List_val<std::_List_simple_types<HINSTANCE__ *> > >,std::_List_const_iterator<std::_List_val<std::_List_simple_types<HINSTANCE__ *> > >,void,0>
PUBLIC	??$?0ABV?$allocator@PAUHINSTANCE__@@@std@@@?$_Wrap_alloc@V?$allocator@V?$_List_unchecked_const_iterator@V?$_List_val@U?$_List_simple_types@PAUHINSTANCE__@@@std@@@std@@U_Iterator_base0@2@@std@@@std@@@std@@QAE@ABV?$allocator@PAUHINSTANCE__@@@1@@Z ; std::_Wrap_alloc<std::allocator<std::_List_unchecked_const_iterator<std::_List_val<std::_List_simple_types<HINSTANCE__ *> >,std::_Iterator_base0> > >::_Wrap_alloc<std::allocator<std::_List_unchecked_const_iterator<std::_List_val<std::_List_simple_types<HINSTANCE__ *> >,std::_Iterator_base0> > ><std::allocator<HINSTANCE__ *> const &>
PUBLIC	??$?0AAU?$hash@PAUHINSTANCE__@@@std@@U_One_then_variadic_args_t@1@AAU?$equal_to@PAUHINSTANCE__@@@1@M@?$_Compressed_pair@U?$hash@PAUHINSTANCE__@@@std@@V?$_Compressed_pair@U?$equal_to@PAUHINSTANCE__@@@std@@M$00@2@$00@std@@QAE@U_One_then_variadic_args_t@1@AAU?$hash@PAUHINSTANCE__@@@1@$$QAU21@AAU?$equal_to@PAUHINSTANCE__@@@1@$$QAM@Z ; std::_Compressed_pair<std::hash<HINSTANCE__ *>,std::_Compressed_pair<std::equal_to<HINSTANCE__ *>,float,1>,1>::_Compressed_pair<std::hash<HINSTANCE__ *>,std::_Compressed_pair<std::equal_to<HINSTANCE__ *>,float,1>,1><std::hash<HINSTANCE__ *> &,std::_One_then_variadic_args_t,std::equal_to<HINSTANCE__ *> &,float>
PUBLIC	??$?0AAU?$_Wrap_alloc@V?$allocator@K@std@@@std@@@?$_Wrap_alloc@V?$allocator@PAK@std@@@std@@QAE@AAU?$_Wrap_alloc@V?$allocator@K@std@@@1@@Z ; std::_Wrap_alloc<std::allocator<unsigned long *> >::_Wrap_alloc<std::allocator<unsigned long *> ><std::_Wrap_alloc<std::allocator<unsigned long> > &>
PUBLIC	??$addressof@PAK@std@@YAPAPAKAAPAK@Z		; std::addressof<unsigned long *>
PUBLIC	??$destroy@PAK@?$_Wrap_alloc@V?$allocator@K@std@@@std@@QAEXPAPAK@Z ; std::_Wrap_alloc<std::allocator<unsigned long> >::destroy<unsigned long *>
PUBLIC	??$addressof@$$CBV?$_Deque_val@U?$_Deque_simple_types@K@std@@@std@@@std@@YAPBV?$_Deque_val@U?$_Deque_simple_types@K@std@@@0@ABV10@@Z ; std::addressof<std::_Deque_val<std::_Deque_simple_types<unsigned long> > const >
PUBLIC	??$_Pocma@U?$_Wrap_alloc@V?$allocator@_W@std@@@std@@@std@@YAXAAU?$_Wrap_alloc@V?$allocator@_W@std@@@0@0@Z ; std::_Pocma<std::_Wrap_alloc<std::allocator<wchar_t> > >
PUBLIC	??$?0$$V@?$_Compressed_pair@U?$_Wrap_alloc@V?$allocator@_W@std@@@std@@V?$_String_val@U?$_Simple_types@_W@std@@@2@$00@std@@QAE@U_Zero_then_variadic_args_t@1@@Z ; std::_Compressed_pair<std::_Wrap_alloc<std::allocator<wchar_t> >,std::_String_val<std::_Simple_types<wchar_t> >,1>::_Compressed_pair<std::_Wrap_alloc<std::allocator<wchar_t> >,std::_String_val<std::_Simple_types<wchar_t> >,1><>
PUBLIC	??$addressof@PA_W@std@@YAPAPA_WAAPA_W@Z		; std::addressof<wchar_t *>
PUBLIC	??$destroy@PA_W@?$_Wrap_alloc@V?$allocator@_W@std@@@std@@QAEXPAPA_W@Z ; std::_Wrap_alloc<std::allocator<wchar_t> >::destroy<wchar_t *>
PUBLIC	??$addressof@V?$_String_val@U?$_Simple_types@_W@std@@@std@@@std@@YAPAV?$_String_val@U?$_Simple_types@_W@std@@@0@AAV10@@Z ; std::addressof<std::_String_val<std::_Simple_types<wchar_t> > >
PUBLIC	??$move@AAU?$_Wrap_alloc@V?$allocator@_W@std@@@std@@@std@@YA$$QAU?$_Wrap_alloc@V?$allocator@_W@std@@@0@AAU10@@Z ; std::move<std::_Wrap_alloc<std::allocator<wchar_t> > &>
PUBLIC	??$?0U?$_Wrap_alloc@V?$allocator@_W@std@@@std@@X@?$_String_alloc@U?$_String_base_types@_WV?$allocator@_W@std@@@std@@@std@@QAE@$$QAU?$_Wrap_alloc@V?$allocator@_W@std@@@1@@Z ; std::_String_alloc<std::_String_base_types<wchar_t,std::allocator<wchar_t> > >::_String_alloc<std::_String_base_types<wchar_t,std::allocator<wchar_t> > ><std::_Wrap_alloc<std::allocator<wchar_t> >,void>
PUBLIC	??$addressof@PAD@std@@YAPAPADAAPAD@Z		; std::addressof<char *>
PUBLIC	??$destroy@PAD@?$_Wrap_alloc@V?$allocator@D@std@@@std@@QAEXPAPAD@Z ; std::_Wrap_alloc<std::allocator<char> >::destroy<char *>
PUBLIC	?deallocate@?$allocator@U_Container_proxy@std@@@std@@QAEXPAU_Container_proxy@2@I@Z ; std::allocator<std::_Container_proxy>::deallocate
PUBLIC	?allocate@?$allocator@U_Container_proxy@std@@@std@@QAEPAU_Container_proxy@2@I@Z ; std::allocator<std::_Container_proxy>::allocate
PUBLIC	?address@?$_Wrap_alloc@V?$allocator@U_Container_proxy@std@@@std@@@std@@QBEPAU_Container_proxy@2@AAU32@@Z ; std::_Wrap_alloc<std::allocator<std::_Container_proxy> >::address
PUBLIC	?allocate@?$_Wrap_alloc@V?$allocator@U_Container_proxy@std@@@std@@@std@@QAEPAU_Container_proxy@2@I@Z ; std::_Wrap_alloc<std::allocator<std::_Container_proxy> >::allocate
PUBLIC	?deallocate@?$_Wrap_alloc@V?$allocator@U_Container_proxy@std@@@std@@@std@@QAEXPAU_Container_proxy@2@I@Z ; std::_Wrap_alloc<std::allocator<std::_Container_proxy> >::deallocate
PUBLIC	??$?0AAU?$_Wrap_alloc@V?$allocator@K@std@@@std@@@?$_Wrap_alloc@V?$allocator@U_Container_proxy@std@@@std@@@std@@QAE@AAU?$_Wrap_alloc@V?$allocator@K@std@@@1@@Z ; std::_Wrap_alloc<std::allocator<std::_Container_proxy> >::_Wrap_alloc<std::allocator<std::_Container_proxy> ><std::_Wrap_alloc<std::allocator<unsigned long> > &>
PUBLIC	??$destroy@U_Container_proxy@std@@@?$_Wrap_alloc@V?$allocator@U_Container_proxy@std@@@std@@@std@@QAEXPAU_Container_proxy@1@@Z ; std::_Wrap_alloc<std::allocator<std::_Container_proxy> >::destroy<std::_Container_proxy>
PUBLIC	??$?0$$V@?$_Compressed_pair@U?$_Wrap_alloc@V?$allocator@K@std@@@std@@V?$_Deque_val@U?$_Deque_simple_types@K@std@@@2@$00@std@@QAE@U_Zero_then_variadic_args_t@1@@Z ; std::_Compressed_pair<std::_Wrap_alloc<std::allocator<unsigned long> >,std::_Deque_val<std::_Deque_simple_types<unsigned long> >,1>::_Compressed_pair<std::_Wrap_alloc<std::allocator<unsigned long> >,std::_Deque_val<std::_Deque_simple_types<unsigned long> >,1><>
PUBLIC	??$?0ABU?$_Wrap_alloc@V?$allocator@V?$_List_unchecked_const_iterator@V?$_List_val@U?$_List_simple_types@PAUHINSTANCE__@@@std@@@std@@U_Iterator_base0@2@@std@@@std@@@std@@X@?$_Vector_alloc@U?$_Vec_base_types@V?$_List_unchecked_const_iterator@V?$_List_val@U?$_List_simple_types@PAUHINSTANCE__@@@std@@@std@@U_Iterator_base0@2@@std@@U?$_Wrap_alloc@V?$allocator@V?$_List_unchecked_const_iterator@V?$_List_val@U?$_List_simple_types@PAUHINSTANCE__@@@std@@@std@@U_Iterator_base0@2@@std@@@std@@@2@@std@@@std@@QAE@ABU?$_Wrap_alloc@V?$allocator@V?$_List_unchecked_const_iterator@V?$_List_val@U?$_List_simple_types@PAUHINSTANCE__@@@std@@@std@@U_Iterator_base0@2@@std@@@std@@@1@@Z ; std::_Vector_alloc<std::_Vec_base_types<std::_List_unchecked_const_iterator<std::_List_val<std::_List_simple_types<HINSTANCE__ *> >,std::_Iterator_base0>,std::_Wrap_alloc<std::allocator<std::_List_unchecked_const_iterator<std::_List_val<std::_List_simple_types<HINSTANCE__ *> >,std::_Iterator_base0> > > > >::_Vector_alloc<std::_Vec_base_types<std::_List_unchecked_const_iterator<std::_List_val<std::_List_simple_types<HINSTANCE__ *> >,std::_Iterator_base0>,std::_Wrap_alloc<std::allocator<std::_List_unchecked_const_iterator<std::_List_val<std::_List_simple_types<HINSTANCE__ *> >,std::_Iterator_base0> > > > ><std::_Wrap_alloc<std::allocator<std::_List_unchecked_const_iterator<std::_List_val<std::_List_simple_types<HINSTANCE__ *> >,std::_Iterator_base0> > > const &,void>
PUBLIC	??$?0ABV?$allocator@PAUHINSTANCE__@@@std@@X@?$_List_buy@PAUHINSTANCE__@@V?$allocator@PAUHINSTANCE__@@@std@@@std@@QAE@ABV?$allocator@PAUHINSTANCE__@@@1@@Z ; std::_List_buy<HINSTANCE__ *,std::allocator<HINSTANCE__ *> >::_List_buy<HINSTANCE__ *,std::allocator<HINSTANCE__ *> ><std::allocator<HINSTANCE__ *> const &,void>
PUBLIC	??0?$_List_iterator@V?$_List_val@U?$_List_simple_types@PAUHINSTANCE__@@@std@@@std@@@std@@QAE@PAU?$_List_node@PAUHINSTANCE__@@PAX@1@PBV?$_List_val@U?$_List_simple_types@PAUHINSTANCE__@@@std@@@1@@Z ; std::_List_iterator<std::_List_val<std::_List_simple_types<HINSTANCE__ *> > >::_List_iterator<std::_List_val<std::_List_simple_types<HINSTANCE__ *> > >
PUBLIC	??$_Unfancy@K@std@@YAPAKPAK@Z			; std::_Unfancy<unsigned long>
PUBLIC	??$destroy@K@?$_Wrap_alloc@V?$allocator@K@std@@@std@@QAEXPAK@Z ; std::_Wrap_alloc<std::allocator<unsigned long> >::destroy<unsigned long>
PUBLIC	??$_Unfancy@_W@std@@YAPA_WPA_W@Z		; std::_Unfancy<wchar_t>
PUBLIC	??$_Unfancy@D@std@@YAPADPAD@Z			; std::_Unfancy<char>
PUBLIC	??$addressof@$$CBV?$basic_string@_WU?$char_traits@_W@std@@V?$allocator@_W@2@@std@@@std@@YAPBV?$basic_string@_WU?$char_traits@_W@std@@V?$allocator@_W@2@@0@ABV10@@Z ; std::addressof<std::basic_string<wchar_t,std::char_traits<wchar_t>,std::allocator<wchar_t> > const >
PUBLIC	??$_Min_value@I@std@@YAABIABI0@Z		; std::_Min_value<unsigned int>
PUBLIC	?pointer_to@?$pointer_traits@PAU_Container_proxy@std@@@std@@SAPAU_Container_proxy@2@AAU32@@Z ; std::pointer_traits<std::_Container_proxy *>::pointer_to
PUBLIC	??$_Unfancy@U_Container_proxy@std@@@std@@YAPAU_Container_proxy@0@PAU10@@Z ; std::_Unfancy<std::_Container_proxy>
PUBLIC	??$construct@U_Container_proxy@std@@U12@@?$_Wrap_alloc@V?$allocator@U_Container_proxy@std@@@std@@@std@@QAEXPAU_Container_proxy@1@$$QAU21@@Z ; std::_Wrap_alloc<std::allocator<std::_Container_proxy> >::construct<std::_Container_proxy,std::_Container_proxy>
PUBLIC	??$addressof@V?$_Deque_val@U?$_Deque_simple_types@K@std@@@std@@@std@@YAPAV?$_Deque_val@U?$_Deque_simple_types@K@std@@@0@AAV10@@Z ; std::addressof<std::_Deque_val<std::_Deque_simple_types<unsigned long> > >
PUBLIC	??$_Destroy_range@U?$_Wrap_alloc@V?$allocator@V?$_List_unchecked_const_iterator@V?$_List_val@U?$_List_simple_types@PAUHINSTANCE__@@@std@@@std@@U_Iterator_base0@2@@std@@@std@@@std@@PAV?$_List_unchecked_const_iterator@V?$_List_val@U?$_List_simple_types@PAUHINSTANCE__@@@std@@@std@@U_Iterator_base0@2@@2@@std@@YAXPAV?$_List_unchecked_const_iterator@V?$_List_val@U?$_List_simple_types@PAUHINSTANCE__@@@std@@@std@@U_Iterator_base0@2@@0@0AAU?$_Wrap_alloc@U?$_Wrap_alloc@V?$allocator@V?$_List_unchecked_const_iterator@V?$_List_val@U?$_List_simple_types@PAUHINSTANCE__@@@std@@@std@@U_Iterator_base0@2@@std@@@std@@@std@@@0@@Z ; std::_Destroy_range<std::_Wrap_alloc<std::allocator<std::_List_unchecked_const_iterator<std::_List_val<std::_List_simple_types<HINSTANCE__ *> >,std::_Iterator_base0> > >,std::_List_unchecked_const_iterator<std::_List_val<std::_List_simple_types<HINSTANCE__ *> >,std::_Iterator_base0> *>
PUBLIC	??$_Fill_unchecked@PAV?$_List_unchecked_const_iterator@V?$_List_val@U?$_List_simple_types@PAUHINSTANCE__@@@std@@@std@@U_Iterator_base0@2@@std@@V12@@std@@YAXPAV?$_List_unchecked_const_iterator@V?$_List_val@U?$_List_simple_types@PAUHINSTANCE__@@@std@@@std@@U_Iterator_base0@2@@0@0ABV10@@Z ; std::_Fill_unchecked<std::_List_unchecked_const_iterator<std::_List_val<std::_List_simple_types<HINSTANCE__ *> >,std::_Iterator_base0> *,std::_List_unchecked_const_iterator<std::_List_val<std::_List_simple_types<HINSTANCE__ *> >,std::_Iterator_base0> >
PUBLIC	??$addressof@PAU?$_List_node@PAUHINSTANCE__@@PAX@std@@@std@@YAPAPAU?$_List_node@PAUHINSTANCE__@@PAX@0@AAPAU10@@Z ; std::addressof<std::_List_node<HINSTANCE__ *,void *> *>
PUBLIC	??$destroy@PAU?$_List_node@PAUHINSTANCE__@@PAX@std@@@?$_Wrap_alloc@V?$allocator@U?$_List_node@PAUHINSTANCE__@@PAX@std@@@std@@@std@@QAEXPAPAU?$_List_node@PAUHINSTANCE__@@PAX@1@@Z ; std::_Wrap_alloc<std::allocator<std::_List_node<HINSTANCE__ *,void *> > >::destroy<std::_List_node<HINSTANCE__ *,void *> *>
PUBLIC	??$addressof@$$CBV?$_List_val@U?$_List_simple_types@PAUHINSTANCE__@@@std@@@std@@@std@@YAPBV?$_List_val@U?$_List_simple_types@PAUHINSTANCE__@@@std@@@0@ABV10@@Z ; std::addressof<std::_List_val<std::_List_simple_types<HINSTANCE__ *> > const >
PUBLIC	??0?$_List_unchecked_iterator@V?$_List_val@U?$_List_simple_types@PAUHINSTANCE__@@@std@@@std@@@std@@QAE@PAU?$_List_node@PAUHINSTANCE__@@PAX@1@PBV?$_List_val@U?$_List_simple_types@PAUHINSTANCE__@@@std@@@1@@Z ; std::_List_unchecked_iterator<std::_List_val<std::_List_simple_types<HINSTANCE__ *> > >::_List_unchecked_iterator<std::_List_val<std::_List_simple_types<HINSTANCE__ *> > >
PUBLIC	??$construct@PA_WAAPA_W@?$_Wrap_alloc@V?$allocator@_W@std@@@std@@QAEXPAPA_WAAPA_W@Z ; std::_Wrap_alloc<std::allocator<wchar_t> >::construct<wchar_t *,wchar_t * &>
PUBLIC	??$addressof@U_Container_proxy@std@@@std@@YAPAU_Container_proxy@0@AAU10@@Z ; std::addressof<std::_Container_proxy>
PUBLIC	??$_Uninitialized_fill_n@PAV?$_List_unchecked_const_iterator@V?$_List_val@U?$_List_simple_types@PAUHINSTANCE__@@@std@@@std@@U_Iterator_base0@2@@std@@IU?$_Wrap_alloc@V?$allocator@V?$_List_unchecked_const_iterator@V?$_List_val@U?$_List_simple_types@PAUHINSTANCE__@@@std@@@std@@U_Iterator_base0@2@@std@@@std@@@2@@std@@YAPAV?$_List_unchecked_const_iterator@V?$_List_val@U?$_List_simple_types@PAUHINSTANCE__@@@std@@@std@@U_Iterator_base0@2@@0@PAV10@IABV10@AAU?$_Wrap_alloc@U?$_Wrap_alloc@V?$allocator@V?$_List_unchecked_const_iterator@V?$_List_val@U?$_List_simple_types@PAUHINSTANCE__@@@std@@@std@@U_Iterator_base0@2@@std@@@std@@@std@@@0@@Z ; std::_Uninitialized_fill_n<std::_List_unchecked_const_iterator<std::_List_val<std::_List_simple_types<HINSTANCE__ *> >,std::_Iterator_base0> *,unsigned int,std::_Wrap_alloc<std::allocator<std::_List_unchecked_const_iterator<std::_List_val<std::_List_simple_types<HINSTANCE__ *> >,std::_Iterator_base0> > > >
PUBLIC	??$addressof@PAUHINSTANCE__@@@std@@YAPAPAUHINSTANCE__@@AAPAU1@@Z ; std::addressof<HINSTANCE__ *>
PUBLIC	??$destroy@PAUHINSTANCE__@@@?$_Wrap_alloc@V?$allocator@U?$_List_node@PAUHINSTANCE__@@PAX@std@@@std@@@std@@QAEXPAPAUHINSTANCE__@@@Z ; std::_Wrap_alloc<std::allocator<std::_List_node<HINSTANCE__ *,void *> > >::destroy<HINSTANCE__ *>
PUBLIC	??$addressof@V?$_List_val@U?$_List_simple_types@PAUHINSTANCE__@@@std@@@std@@@std@@YAPAV?$_List_val@U?$_List_simple_types@PAUHINSTANCE__@@@std@@@0@AAV10@@Z ; std::addressof<std::_List_val<std::_List_simple_types<HINSTANCE__ *> > >
PUBLIC	??$_Fn@U?$_Wrap_alloc@V?$allocator@V?$_List_unchecked_const_iterator@V?$_List_val@U?$_List_simple_types@PAUHINSTANCE__@@@std@@@std@@U_Iterator_base0@2@@std@@@std@@@std@@@_Alloc_max_size@std@@SAIHABU?$_Wrap_alloc@V?$allocator@V?$_List_unchecked_const_iterator@V?$_List_val@U?$_List_simple_types@PAUHINSTANCE__@@@std@@@std@@U_Iterator_base0@2@@std@@@std@@@1@@Z ; std::_Alloc_max_size::_Fn<std::_Wrap_alloc<std::allocator<std::_List_unchecked_const_iterator<std::_List_val<std::_List_simple_types<HINSTANCE__ *> >,std::_Iterator_base0> > > >
PUBLIC	??$_Uninitialized_move@PAV?$_List_unchecked_const_iterator@V?$_List_val@U?$_List_simple_types@PAUHINSTANCE__@@@std@@@std@@U_Iterator_base0@2@@std@@PAV12@U?$_Wrap_alloc@V?$allocator@V?$_List_unchecked_const_iterator@V?$_List_val@U?$_List_simple_types@PAUHINSTANCE__@@@std@@@std@@U_Iterator_base0@2@@std@@@std@@@2@@std@@YAPAV?$_List_unchecked_const_iterator@V?$_List_val@U?$_List_simple_types@PAUHINSTANCE__@@@std@@@std@@U_Iterator_base0@2@@0@PAV10@00AAU?$_Wrap_alloc@U?$_Wrap_alloc@V?$allocator@V?$_List_unchecked_const_iterator@V?$_List_val@U?$_List_simple_types@PAUHINSTANCE__@@@std@@@std@@U_Iterator_base0@2@@std@@@std@@@std@@@0@@Z ; std::_Uninitialized_move<std::_List_unchecked_const_iterator<std::_List_val<std::_List_simple_types<HINSTANCE__ *> >,std::_Iterator_base0> *,std::_List_unchecked_const_iterator<std::_List_val<std::_List_simple_types<HINSTANCE__ *> >,std::_Iterator_base0> *,std::_Wrap_alloc<std::allocator<std::_List_unchecked_const_iterator<std::_List_val<std::_List_simple_types<HINSTANCE__ *> >,std::_Iterator_base0> > > >
PUBLIC	??0?$allocator@PBD@std@@QAE@XZ			; std::allocator<char const *>::allocator<char const *>
PUBLIC	??0?$allocator@PBD@std@@QAE@ABV01@@Z		; std::allocator<char const *>::allocator<char const *>
PUBLIC	?deallocate@?$allocator@PBD@std@@QAEXPAPBDI@Z	; std::allocator<char const *>::deallocate
PUBLIC	?allocate@?$allocator@PBD@std@@QAEPAPBDI@Z	; std::allocator<char const *>::allocate
PUBLIC	?max_size@?$allocator@PBD@std@@QBEIXZ		; std::allocator<char const *>::max_size
PUBLIC	?max_size@?$allocator_traits@V?$allocator@PBD@std@@@std@@SAIABV?$allocator@PBD@2@@Z ; std::allocator_traits<std::allocator<char const *> >::max_size
PUBLIC	??0?$_Wrap_alloc@V?$allocator@PBD@std@@@std@@QAE@XZ ; std::_Wrap_alloc<std::allocator<char const *> >::_Wrap_alloc<std::allocator<char const *> >
PUBLIC	?allocate@?$_Wrap_alloc@V?$allocator@PBD@std@@@std@@QAEPAPBDI@Z ; std::_Wrap_alloc<std::allocator<char const *> >::allocate
PUBLIC	?deallocate@?$_Wrap_alloc@V?$allocator@PBD@std@@@std@@QAEXPAPBDI@Z ; std::_Wrap_alloc<std::allocator<char const *> >::deallocate
PUBLIC	?max_size@?$_Wrap_alloc@V?$allocator@PBD@std@@@std@@QBEIU_Nil@2@@Z ; std::_Wrap_alloc<std::allocator<char const *> >::max_size
PUBLIC	??0?$_Vector_alloc@U?$_Vec_base_types@PBDV?$allocator@PBD@std@@@std@@@std@@QAE@XZ ; std::_Vector_alloc<std::_Vec_base_types<char const *,std::allocator<char const *> > >::_Vector_alloc<std::_Vec_base_types<char const *,std::allocator<char const *> > >
PUBLIC	?_Orphan_all@?$_Vector_alloc@U?$_Vec_base_types@PBDV?$allocator@PBD@std@@@std@@@std@@QAEXXZ ; std::_Vector_alloc<std::_Vec_base_types<char const *,std::allocator<char const *> > >::_Orphan_all
PUBLIC	?_Getal@?$_Vector_alloc@U?$_Vec_base_types@PBDV?$allocator@PBD@std@@@std@@@std@@QAEAAU?$_Wrap_alloc@V?$allocator@PBD@std@@@2@XZ ; std::_Vector_alloc<std::_Vec_base_types<char const *,std::allocator<char const *> > >::_Getal
PUBLIC	?_Getal@?$_Vector_alloc@U?$_Vec_base_types@PBDV?$allocator@PBD@std@@@std@@@std@@QBEABU?$_Wrap_alloc@V?$allocator@PBD@std@@@2@XZ ; std::_Vector_alloc<std::_Vec_base_types<char const *,std::allocator<char const *> > >::_Getal
PUBLIC	?_Get_data@?$_Vector_alloc@U?$_Vec_base_types@PBDV?$allocator@PBD@std@@@std@@@std@@QAEAAV?$_Vector_val@U?$_Simple_types@PBD@std@@@2@XZ ; std::_Vector_alloc<std::_Vec_base_types<char const *,std::allocator<char const *> > >::_Get_data
PUBLIC	?_Get_data@?$_Vector_alloc@U?$_Vec_base_types@PBDV?$allocator@PBD@std@@@std@@@std@@QBEABV?$_Vector_val@U?$_Simple_types@PBD@std@@@2@XZ ; std::_Vector_alloc<std::_Vec_base_types<char const *,std::allocator<char const *> > >::_Get_data
PUBLIC	?_Myfirst@?$_Vector_alloc@U?$_Vec_base_types@PBDV?$allocator@PBD@std@@@std@@@std@@QAEAAPAPBDXZ ; std::_Vector_alloc<std::_Vec_base_types<char const *,std::allocator<char const *> > >::_Myfirst
PUBLIC	?_Myfirst@?$_Vector_alloc@U?$_Vec_base_types@PBDV?$allocator@PBD@std@@@std@@@std@@QBEABQAPBDXZ ; std::_Vector_alloc<std::_Vec_base_types<char const *,std::allocator<char const *> > >::_Myfirst
PUBLIC	?_Mylast@?$_Vector_alloc@U?$_Vec_base_types@PBDV?$allocator@PBD@std@@@std@@@std@@QAEAAPAPBDXZ ; std::_Vector_alloc<std::_Vec_base_types<char const *,std::allocator<char const *> > >::_Mylast
PUBLIC	?_Mylast@?$_Vector_alloc@U?$_Vec_base_types@PBDV?$allocator@PBD@std@@@std@@@std@@QBEABQAPBDXZ ; std::_Vector_alloc<std::_Vec_base_types<char const *,std::allocator<char const *> > >::_Mylast
PUBLIC	?_Myend@?$_Vector_alloc@U?$_Vec_base_types@PBDV?$allocator@PBD@std@@@std@@@std@@QAEAAPAPBDXZ ; std::_Vector_alloc<std::_Vec_base_types<char const *,std::allocator<char const *> > >::_Myend
PUBLIC	?_Myend@?$_Vector_alloc@U?$_Vec_base_types@PBDV?$allocator@PBD@std@@@std@@@std@@QBEABQAPBDXZ ; std::_Vector_alloc<std::_Vec_base_types<char const *,std::allocator<char const *> > >::_Myend
PUBLIC	??0?$_Vector_val@U?$_Simple_types@PBD@std@@@std@@QAE@XZ ; std::_Vector_val<std::_Simple_types<char const *> >::_Vector_val<std::_Simple_types<char const *> >
PUBLIC	?_Get_first@?$_Compressed_pair@U?$_Wrap_alloc@V?$allocator@PBD@std@@@std@@V?$_Vector_val@U?$_Simple_types@PBD@std@@@2@$00@std@@QAEAAU?$_Wrap_alloc@V?$allocator@PBD@std@@@2@XZ ; std::_Compressed_pair<std::_Wrap_alloc<std::allocator<char const *> >,std::_Vector_val<std::_Simple_types<char const *> >,1>::_Get_first
PUBLIC	?_Get_first@?$_Compressed_pair@U?$_Wrap_alloc@V?$allocator@PBD@std@@@std@@V?$_Vector_val@U?$_Simple_types@PBD@std@@@2@$00@std@@QBEABU?$_Wrap_alloc@V?$allocator@PBD@std@@@2@XZ ; std::_Compressed_pair<std::_Wrap_alloc<std::allocator<char const *> >,std::_Vector_val<std::_Simple_types<char const *> >,1>::_Get_first
PUBLIC	?_Get_second@?$_Compressed_pair@U?$_Wrap_alloc@V?$allocator@PBD@std@@@std@@V?$_Vector_val@U?$_Simple_types@PBD@std@@@2@$00@std@@QAEAAV?$_Vector_val@U?$_Simple_types@PBD@std@@@2@XZ ; std::_Compressed_pair<std::_Wrap_alloc<std::allocator<char const *> >,std::_Vector_val<std::_Simple_types<char const *> >,1>::_Get_second
PUBLIC	?_Get_second@?$_Compressed_pair@U?$_Wrap_alloc@V?$allocator@PBD@std@@@std@@V?$_Vector_val@U?$_Simple_types@PBD@std@@@2@$00@std@@QBEABV?$_Vector_val@U?$_Simple_types@PBD@std@@@2@XZ ; std::_Compressed_pair<std::_Wrap_alloc<std::allocator<char const *> >,std::_Vector_val<std::_Simple_types<char const *> >,1>::_Get_second
PUBLIC	??0?$vector@PBDV?$allocator@PBD@std@@@std@@QAE@XZ ; std::vector<char const *,std::allocator<char const *> >::vector<char const *,std::allocator<char const *> >
PUBLIC	??0?$vector@PBDV?$allocator@PBD@std@@@std@@QAE@V?$initializer_list@PBD@1@ABV?$allocator@PBD@1@@Z ; std::vector<char const *,std::allocator<char const *> >::vector<char const *,std::allocator<char const *> >
PUBLIC	??1?$vector@PBDV?$allocator@PBD@std@@@std@@QAE@XZ ; std::vector<char const *,std::allocator<char const *> >::~vector<char const *,std::allocator<char const *> >
PUBLIC	?begin@?$vector@PBDV?$allocator@PBD@std@@@std@@QAE?AV?$_Vector_iterator@V?$_Vector_val@U?$_Simple_types@PBD@std@@@std@@@2@XZ ; std::vector<char const *,std::allocator<char const *> >::begin
PUBLIC	?end@?$vector@PBDV?$allocator@PBD@std@@@std@@QAE?AV?$_Vector_iterator@V?$_Vector_val@U?$_Simple_types@PBD@std@@@std@@@2@XZ ; std::vector<char const *,std::allocator<char const *> >::end
PUBLIC	?size@?$vector@PBDV?$allocator@PBD@std@@@std@@QBEIXZ ; std::vector<char const *,std::allocator<char const *> >::size
PUBLIC	?max_size@?$vector@PBDV?$allocator@PBD@std@@@std@@QBEIXZ ; std::vector<char const *,std::allocator<char const *> >::max_size
PUBLIC	?capacity@?$vector@PBDV?$allocator@PBD@std@@@std@@QBEIXZ ; std::vector<char const *,std::allocator<char const *> >::capacity
PUBLIC	?_Has_unused_capacity@?$vector@PBDV?$allocator@PBD@std@@@std@@ABE_NXZ ; std::vector<char const *,std::allocator<char const *> >::_Has_unused_capacity
PUBLIC	?_Umove_if_noexcept1@?$vector@PBDV?$allocator@PBD@std@@@std@@AAEXPAPBD00U?$integral_constant@_N$00@2@@Z ; std::vector<char const *,std::allocator<char const *> >::_Umove_if_noexcept1
PUBLIC	?_Umove_if_noexcept@?$vector@PBDV?$allocator@PBD@std@@@std@@AAEXPAPBD00@Z ; std::vector<char const *,std::allocator<char const *> >::_Umove_if_noexcept
PUBLIC	?_Destroy@?$vector@PBDV?$allocator@PBD@std@@@std@@AAEXPAPBD0@Z ; std::vector<char const *,std::allocator<char const *> >::_Destroy
PUBLIC	?_Calculate_growth@?$vector@PBDV?$allocator@PBD@std@@@std@@ABEII@Z ; std::vector<char const *,std::allocator<char const *> >::_Calculate_growth
PUBLIC	?_Buy@?$vector@PBDV?$allocator@PBD@std@@@std@@AAE_NI@Z ; std::vector<char const *,std::allocator<char const *> >::_Buy
PUBLIC	?_Change_array@?$vector@PBDV?$allocator@PBD@std@@@std@@AAEXQAPBDII@Z ; std::vector<char const *,std::allocator<char const *> >::_Change_array
PUBLIC	?_Tidy@?$vector@PBDV?$allocator@PBD@std@@@std@@AAEXXZ ; std::vector<char const *,std::allocator<char const *> >::_Tidy
PUBLIC	?_Xlength@?$vector@PBDV?$allocator@PBD@std@@@std@@CAXXZ ; std::vector<char const *,std::allocator<char const *> >::_Xlength
PUBLIC	?_Orphan_range@?$vector@PBDV?$allocator@PBD@std@@@std@@ABEXPAPBD0@Z ; std::vector<char const *,std::allocator<char const *> >::_Orphan_range
PUBLIC	??$emplace_back@PBD@?$vector@PBDV?$allocator@PBD@std@@@std@@QAEX$$QAPBD@Z ; std::vector<char const *,std::allocator<char const *> >::emplace_back<char const *>
PUBLIC	??0?$_Vector_const_iterator@V?$_Vector_val@U?$_Simple_types@PBD@std@@@std@@@std@@QAE@PAPBDPBU_Container_base0@1@@Z ; std::_Vector_const_iterator<std::_Vector_val<std::_Simple_types<char const *> > >::_Vector_const_iterator<std::_Vector_val<std::_Simple_types<char const *> > >
PUBLIC	??D?$_Vector_const_iterator@V?$_Vector_val@U?$_Simple_types@PBD@std@@@std@@@std@@QBEABQBDXZ ; std::_Vector_const_iterator<std::_Vector_val<std::_Simple_types<char const *> > >::operator*
PUBLIC	??E?$_Vector_const_iterator@V?$_Vector_val@U?$_Simple_types@PBD@std@@@std@@@std@@QAEAAV01@XZ ; std::_Vector_const_iterator<std::_Vector_val<std::_Simple_types<char const *> > >::operator++
PUBLIC	??8?$_Vector_const_iterator@V?$_Vector_val@U?$_Simple_types@PBD@std@@@std@@@std@@QBE_NABV01@@Z ; std::_Vector_const_iterator<std::_Vector_val<std::_Simple_types<char const *> > >::operator==
PUBLIC	??9?$_Vector_const_iterator@V?$_Vector_val@U?$_Simple_types@PBD@std@@@std@@@std@@QBE_NABV01@@Z ; std::_Vector_const_iterator<std::_Vector_val<std::_Simple_types<char const *> > >::operator!=
PUBLIC	?_Compat@?$_Vector_const_iterator@V?$_Vector_val@U?$_Simple_types@PBD@std@@@std@@@std@@QBEXABV12@@Z ; std::_Vector_const_iterator<std::_Vector_val<std::_Simple_types<char const *> > >::_Compat
PUBLIC	??0?$_Vector_iterator@V?$_Vector_val@U?$_Simple_types@PBD@std@@@std@@@std@@QAE@PAPBDPBU_Container_base0@1@@Z ; std::_Vector_iterator<std::_Vector_val<std::_Simple_types<char const *> > >::_Vector_iterator<std::_Vector_val<std::_Simple_types<char const *> > >
PUBLIC	??D?$_Vector_iterator@V?$_Vector_val@U?$_Simple_types@PBD@std@@@std@@@std@@QBEAAPBDXZ ; std::_Vector_iterator<std::_Vector_val<std::_Simple_types<char const *> > >::operator*
PUBLIC	??E?$_Vector_iterator@V?$_Vector_val@U?$_Simple_types@PBD@std@@@std@@@std@@QAEAAV01@XZ ; std::_Vector_iterator<std::_Vector_val<std::_Simple_types<char const *> > >::operator++
PUBLIC	??0?$CHeapPtrBase@DVCCRTAllocator@ATL@@@ATL@@IAE@PAD@Z ; ATL::CHeapPtrBase<char,ATL::CCRTAllocator>::CHeapPtrBase<char,ATL::CCRTAllocator>
PUBLIC	??1?$CHeapPtrBase@DVCCRTAllocator@ATL@@@ATL@@QAE@XZ ; ATL::CHeapPtrBase<char,ATL::CCRTAllocator>::~CHeapPtrBase<char,ATL::CCRTAllocator>
PUBLIC	??B?$CHeapPtrBase@DVCCRTAllocator@ATL@@@ATL@@QBEPADXZ ; ATL::CHeapPtrBase<char,ATL::CCRTAllocator>::operator char *
PUBLIC	?Free@?$CHeapPtrBase@DVCCRTAllocator@ATL@@@ATL@@QAEXXZ ; ATL::CHeapPtrBase<char,ATL::CCRTAllocator>::Free
PUBLIC	??0?$CHeapPtr@DVCCRTAllocator@ATL@@@ATL@@QAE@PAD@Z ; ATL::CHeapPtr<char,ATL::CCRTAllocator>::CHeapPtr<char,ATL::CCRTAllocator>
PUBLIC	??1?$CHeapPtr@DVCCRTAllocator@ATL@@@ATL@@QAE@XZ	; ATL::CHeapPtr<char,ATL::CCRTAllocator>::~CHeapPtr<char,ATL::CCRTAllocator>
PUBLIC	??0?$CHeapPtrBase@_WVCCRTAllocator@ATL@@@ATL@@IAE@PA_W@Z ; ATL::CHeapPtrBase<wchar_t,ATL::CCRTAllocator>::CHeapPtrBase<wchar_t,ATL::CCRTAllocator>
PUBLIC	??1?$CHeapPtrBase@_WVCCRTAllocator@ATL@@@ATL@@QAE@XZ ; ATL::CHeapPtrBase<wchar_t,ATL::CCRTAllocator>::~CHeapPtrBase<wchar_t,ATL::CCRTAllocator>
PUBLIC	??B?$CHeapPtrBase@_WVCCRTAllocator@ATL@@@ATL@@QBEPA_WXZ ; ATL::CHeapPtrBase<wchar_t,ATL::CCRTAllocator>::operator wchar_t *
PUBLIC	?Free@?$CHeapPtrBase@_WVCCRTAllocator@ATL@@@ATL@@QAEXXZ ; ATL::CHeapPtrBase<wchar_t,ATL::CCRTAllocator>::Free
PUBLIC	??0?$CHeapPtr@_WVCCRTAllocator@ATL@@@ATL@@QAE@PA_W@Z ; ATL::CHeapPtr<wchar_t,ATL::CCRTAllocator>::CHeapPtr<wchar_t,ATL::CCRTAllocator>
PUBLIC	??1?$CHeapPtr@_WVCCRTAllocator@ATL@@@ATL@@QAE@XZ ; ATL::CHeapPtr<wchar_t,ATL::CCRTAllocator>::~CHeapPtr<wchar_t,ATL::CCRTAllocator>
PUBLIC	??$SK_LoadLibrary_IsPinnable@D@@YG_NPBD@Z	; SK_LoadLibrary_IsPinnable<char>
PUBLIC	??$SK_LoadLibrary_PinModule@D@@YGHPBD@Z		; SK_LoadLibrary_PinModule<char>
PUBLIC	??0?$allocator@PB_W@std@@QAE@XZ			; std::allocator<wchar_t const *>::allocator<wchar_t const *>
PUBLIC	??0?$allocator@PB_W@std@@QAE@ABV01@@Z		; std::allocator<wchar_t const *>::allocator<wchar_t const *>
PUBLIC	?deallocate@?$allocator@PB_W@std@@QAEXPAPB_WI@Z	; std::allocator<wchar_t const *>::deallocate
PUBLIC	?allocate@?$allocator@PB_W@std@@QAEPAPB_WI@Z	; std::allocator<wchar_t const *>::allocate
PUBLIC	?max_size@?$allocator@PB_W@std@@QBEIXZ		; std::allocator<wchar_t const *>::max_size
PUBLIC	?max_size@?$allocator_traits@V?$allocator@PB_W@std@@@std@@SAIABV?$allocator@PB_W@2@@Z ; std::allocator_traits<std::allocator<wchar_t const *> >::max_size
PUBLIC	??0?$_Wrap_alloc@V?$allocator@PB_W@std@@@std@@QAE@XZ ; std::_Wrap_alloc<std::allocator<wchar_t const *> >::_Wrap_alloc<std::allocator<wchar_t const *> >
PUBLIC	?allocate@?$_Wrap_alloc@V?$allocator@PB_W@std@@@std@@QAEPAPB_WI@Z ; std::_Wrap_alloc<std::allocator<wchar_t const *> >::allocate
PUBLIC	?deallocate@?$_Wrap_alloc@V?$allocator@PB_W@std@@@std@@QAEXPAPB_WI@Z ; std::_Wrap_alloc<std::allocator<wchar_t const *> >::deallocate
PUBLIC	?max_size@?$_Wrap_alloc@V?$allocator@PB_W@std@@@std@@QBEIU_Nil@2@@Z ; std::_Wrap_alloc<std::allocator<wchar_t const *> >::max_size
PUBLIC	??0?$_Vector_alloc@U?$_Vec_base_types@PB_WV?$allocator@PB_W@std@@@std@@@std@@QAE@XZ ; std::_Vector_alloc<std::_Vec_base_types<wchar_t const *,std::allocator<wchar_t const *> > >::_Vector_alloc<std::_Vec_base_types<wchar_t const *,std::allocator<wchar_t const *> > >
PUBLIC	?_Orphan_all@?$_Vector_alloc@U?$_Vec_base_types@PB_WV?$allocator@PB_W@std@@@std@@@std@@QAEXXZ ; std::_Vector_alloc<std::_Vec_base_types<wchar_t const *,std::allocator<wchar_t const *> > >::_Orphan_all
PUBLIC	?_Getal@?$_Vector_alloc@U?$_Vec_base_types@PB_WV?$allocator@PB_W@std@@@std@@@std@@QAEAAU?$_Wrap_alloc@V?$allocator@PB_W@std@@@2@XZ ; std::_Vector_alloc<std::_Vec_base_types<wchar_t const *,std::allocator<wchar_t const *> > >::_Getal
PUBLIC	?_Getal@?$_Vector_alloc@U?$_Vec_base_types@PB_WV?$allocator@PB_W@std@@@std@@@std@@QBEABU?$_Wrap_alloc@V?$allocator@PB_W@std@@@2@XZ ; std::_Vector_alloc<std::_Vec_base_types<wchar_t const *,std::allocator<wchar_t const *> > >::_Getal
PUBLIC	?_Get_data@?$_Vector_alloc@U?$_Vec_base_types@PB_WV?$allocator@PB_W@std@@@std@@@std@@QAEAAV?$_Vector_val@U?$_Simple_types@PB_W@std@@@2@XZ ; std::_Vector_alloc<std::_Vec_base_types<wchar_t const *,std::allocator<wchar_t const *> > >::_Get_data
PUBLIC	?_Get_data@?$_Vector_alloc@U?$_Vec_base_types@PB_WV?$allocator@PB_W@std@@@std@@@std@@QBEABV?$_Vector_val@U?$_Simple_types@PB_W@std@@@2@XZ ; std::_Vector_alloc<std::_Vec_base_types<wchar_t const *,std::allocator<wchar_t const *> > >::_Get_data
PUBLIC	?_Myfirst@?$_Vector_alloc@U?$_Vec_base_types@PB_WV?$allocator@PB_W@std@@@std@@@std@@QAEAAPAPB_WXZ ; std::_Vector_alloc<std::_Vec_base_types<wchar_t const *,std::allocator<wchar_t const *> > >::_Myfirst
PUBLIC	?_Myfirst@?$_Vector_alloc@U?$_Vec_base_types@PB_WV?$allocator@PB_W@std@@@std@@@std@@QBEABQAPB_WXZ ; std::_Vector_alloc<std::_Vec_base_types<wchar_t const *,std::allocator<wchar_t const *> > >::_Myfirst
PUBLIC	?_Mylast@?$_Vector_alloc@U?$_Vec_base_types@PB_WV?$allocator@PB_W@std@@@std@@@std@@QAEAAPAPB_WXZ ; std::_Vector_alloc<std::_Vec_base_types<wchar_t const *,std::allocator<wchar_t const *> > >::_Mylast
PUBLIC	?_Mylast@?$_Vector_alloc@U?$_Vec_base_types@PB_WV?$allocator@PB_W@std@@@std@@@std@@QBEABQAPB_WXZ ; std::_Vector_alloc<std::_Vec_base_types<wchar_t const *,std::allocator<wchar_t const *> > >::_Mylast
PUBLIC	?_Myend@?$_Vector_alloc@U?$_Vec_base_types@PB_WV?$allocator@PB_W@std@@@std@@@std@@QAEAAPAPB_WXZ ; std::_Vector_alloc<std::_Vec_base_types<wchar_t const *,std::allocator<wchar_t const *> > >::_Myend
PUBLIC	?_Myend@?$_Vector_alloc@U?$_Vec_base_types@PB_WV?$allocator@PB_W@std@@@std@@@std@@QBEABQAPB_WXZ ; std::_Vector_alloc<std::_Vec_base_types<wchar_t const *,std::allocator<wchar_t const *> > >::_Myend
PUBLIC	??0?$_Vector_val@U?$_Simple_types@PB_W@std@@@std@@QAE@XZ ; std::_Vector_val<std::_Simple_types<wchar_t const *> >::_Vector_val<std::_Simple_types<wchar_t const *> >
PUBLIC	?_Get_first@?$_Compressed_pair@U?$_Wrap_alloc@V?$allocator@PB_W@std@@@std@@V?$_Vector_val@U?$_Simple_types@PB_W@std@@@2@$00@std@@QAEAAU?$_Wrap_alloc@V?$allocator@PB_W@std@@@2@XZ ; std::_Compressed_pair<std::_Wrap_alloc<std::allocator<wchar_t const *> >,std::_Vector_val<std::_Simple_types<wchar_t const *> >,1>::_Get_first
PUBLIC	?_Get_first@?$_Compressed_pair@U?$_Wrap_alloc@V?$allocator@PB_W@std@@@std@@V?$_Vector_val@U?$_Simple_types@PB_W@std@@@2@$00@std@@QBEABU?$_Wrap_alloc@V?$allocator@PB_W@std@@@2@XZ ; std::_Compressed_pair<std::_Wrap_alloc<std::allocator<wchar_t const *> >,std::_Vector_val<std::_Simple_types<wchar_t const *> >,1>::_Get_first
PUBLIC	?_Get_second@?$_Compressed_pair@U?$_Wrap_alloc@V?$allocator@PB_W@std@@@std@@V?$_Vector_val@U?$_Simple_types@PB_W@std@@@2@$00@std@@QAEAAV?$_Vector_val@U?$_Simple_types@PB_W@std@@@2@XZ ; std::_Compressed_pair<std::_Wrap_alloc<std::allocator<wchar_t const *> >,std::_Vector_val<std::_Simple_types<wchar_t const *> >,1>::_Get_second
PUBLIC	?_Get_second@?$_Compressed_pair@U?$_Wrap_alloc@V?$allocator@PB_W@std@@@std@@V?$_Vector_val@U?$_Simple_types@PB_W@std@@@2@$00@std@@QBEABV?$_Vector_val@U?$_Simple_types@PB_W@std@@@2@XZ ; std::_Compressed_pair<std::_Wrap_alloc<std::allocator<wchar_t const *> >,std::_Vector_val<std::_Simple_types<wchar_t const *> >,1>::_Get_second
PUBLIC	??0?$vector@PB_WV?$allocator@PB_W@std@@@std@@QAE@XZ ; std::vector<wchar_t const *,std::allocator<wchar_t const *> >::vector<wchar_t const *,std::allocator<wchar_t const *> >
PUBLIC	??0?$vector@PB_WV?$allocator@PB_W@std@@@std@@QAE@V?$initializer_list@PB_W@1@ABV?$allocator@PB_W@1@@Z ; std::vector<wchar_t const *,std::allocator<wchar_t const *> >::vector<wchar_t const *,std::allocator<wchar_t const *> >
PUBLIC	??1?$vector@PB_WV?$allocator@PB_W@std@@@std@@QAE@XZ ; std::vector<wchar_t const *,std::allocator<wchar_t const *> >::~vector<wchar_t const *,std::allocator<wchar_t const *> >
PUBLIC	?begin@?$vector@PB_WV?$allocator@PB_W@std@@@std@@QAE?AV?$_Vector_iterator@V?$_Vector_val@U?$_Simple_types@PB_W@std@@@std@@@2@XZ ; std::vector<wchar_t const *,std::allocator<wchar_t const *> >::begin
PUBLIC	?end@?$vector@PB_WV?$allocator@PB_W@std@@@std@@QAE?AV?$_Vector_iterator@V?$_Vector_val@U?$_Simple_types@PB_W@std@@@std@@@2@XZ ; std::vector<wchar_t const *,std::allocator<wchar_t const *> >::end
PUBLIC	?size@?$vector@PB_WV?$allocator@PB_W@std@@@std@@QBEIXZ ; std::vector<wchar_t const *,std::allocator<wchar_t const *> >::size
PUBLIC	?max_size@?$vector@PB_WV?$allocator@PB_W@std@@@std@@QBEIXZ ; std::vector<wchar_t const *,std::allocator<wchar_t const *> >::max_size
PUBLIC	?capacity@?$vector@PB_WV?$allocator@PB_W@std@@@std@@QBEIXZ ; std::vector<wchar_t const *,std::allocator<wchar_t const *> >::capacity
PUBLIC	?_Has_unused_capacity@?$vector@PB_WV?$allocator@PB_W@std@@@std@@ABE_NXZ ; std::vector<wchar_t const *,std::allocator<wchar_t const *> >::_Has_unused_capacity
PUBLIC	?_Umove_if_noexcept1@?$vector@PB_WV?$allocator@PB_W@std@@@std@@AAEXPAPB_W00U?$integral_constant@_N$00@2@@Z ; std::vector<wchar_t const *,std::allocator<wchar_t const *> >::_Umove_if_noexcept1
PUBLIC	?_Umove_if_noexcept@?$vector@PB_WV?$allocator@PB_W@std@@@std@@AAEXPAPB_W00@Z ; std::vector<wchar_t const *,std::allocator<wchar_t const *> >::_Umove_if_noexcept
PUBLIC	?_Destroy@?$vector@PB_WV?$allocator@PB_W@std@@@std@@AAEXPAPB_W0@Z ; std::vector<wchar_t const *,std::allocator<wchar_t const *> >::_Destroy
PUBLIC	?_Calculate_growth@?$vector@PB_WV?$allocator@PB_W@std@@@std@@ABEII@Z ; std::vector<wchar_t const *,std::allocator<wchar_t const *> >::_Calculate_growth
PUBLIC	?_Buy@?$vector@PB_WV?$allocator@PB_W@std@@@std@@AAE_NI@Z ; std::vector<wchar_t const *,std::allocator<wchar_t const *> >::_Buy
PUBLIC	?_Change_array@?$vector@PB_WV?$allocator@PB_W@std@@@std@@AAEXQAPB_WII@Z ; std::vector<wchar_t const *,std::allocator<wchar_t const *> >::_Change_array
PUBLIC	?_Tidy@?$vector@PB_WV?$allocator@PB_W@std@@@std@@AAEXXZ ; std::vector<wchar_t const *,std::allocator<wchar_t const *> >::_Tidy
PUBLIC	?_Xlength@?$vector@PB_WV?$allocator@PB_W@std@@@std@@CAXXZ ; std::vector<wchar_t const *,std::allocator<wchar_t const *> >::_Xlength
PUBLIC	?_Orphan_range@?$vector@PB_WV?$allocator@PB_W@std@@@std@@ABEXPAPB_W0@Z ; std::vector<wchar_t const *,std::allocator<wchar_t const *> >::_Orphan_range
PUBLIC	??$emplace_back@PB_W@?$vector@PB_WV?$allocator@PB_W@std@@@std@@QAEX$$QAPB_W@Z ; std::vector<wchar_t const *,std::allocator<wchar_t const *> >::emplace_back<wchar_t const *>
PUBLIC	??0?$_Vector_const_iterator@V?$_Vector_val@U?$_Simple_types@PB_W@std@@@std@@@std@@QAE@PAPB_WPBU_Container_base0@1@@Z ; std::_Vector_const_iterator<std::_Vector_val<std::_Simple_types<wchar_t const *> > >::_Vector_const_iterator<std::_Vector_val<std::_Simple_types<wchar_t const *> > >
PUBLIC	??D?$_Vector_const_iterator@V?$_Vector_val@U?$_Simple_types@PB_W@std@@@std@@@std@@QBEABQB_WXZ ; std::_Vector_const_iterator<std::_Vector_val<std::_Simple_types<wchar_t const *> > >::operator*
PUBLIC	??E?$_Vector_const_iterator@V?$_Vector_val@U?$_Simple_types@PB_W@std@@@std@@@std@@QAEAAV01@XZ ; std::_Vector_const_iterator<std::_Vector_val<std::_Simple_types<wchar_t const *> > >::operator++
PUBLIC	??8?$_Vector_const_iterator@V?$_Vector_val@U?$_Simple_types@PB_W@std@@@std@@@std@@QBE_NABV01@@Z ; std::_Vector_const_iterator<std::_Vector_val<std::_Simple_types<wchar_t const *> > >::operator==
PUBLIC	??9?$_Vector_const_iterator@V?$_Vector_val@U?$_Simple_types@PB_W@std@@@std@@@std@@QBE_NABV01@@Z ; std::_Vector_const_iterator<std::_Vector_val<std::_Simple_types<wchar_t const *> > >::operator!=
PUBLIC	?_Compat@?$_Vector_const_iterator@V?$_Vector_val@U?$_Simple_types@PB_W@std@@@std@@@std@@QBEXABV12@@Z ; std::_Vector_const_iterator<std::_Vector_val<std::_Simple_types<wchar_t const *> > >::_Compat
PUBLIC	??0?$_Vector_iterator@V?$_Vector_val@U?$_Simple_types@PB_W@std@@@std@@@std@@QAE@PAPB_WPBU_Container_base0@1@@Z ; std::_Vector_iterator<std::_Vector_val<std::_Simple_types<wchar_t const *> > >::_Vector_iterator<std::_Vector_val<std::_Simple_types<wchar_t const *> > >
PUBLIC	??D?$_Vector_iterator@V?$_Vector_val@U?$_Simple_types@PB_W@std@@@std@@@std@@QBEAAPB_WXZ ; std::_Vector_iterator<std::_Vector_val<std::_Simple_types<wchar_t const *> > >::operator*
PUBLIC	??E?$_Vector_iterator@V?$_Vector_val@U?$_Simple_types@PB_W@std@@@std@@@std@@QAEAAV01@XZ ; std::_Vector_iterator<std::_Vector_val<std::_Simple_types<wchar_t const *> > >::operator++
PUBLIC	??$SK_LoadLibrary_IsPinnable@_W@@YG_NPB_W@Z	; SK_LoadLibrary_IsPinnable<wchar_t>
PUBLIC	??$SK_LoadLibrary_PinModule@_W@@YGHPB_W@Z	; SK_LoadLibrary_PinModule<wchar_t>
PUBLIC	??$_Insert@ABQAUHINSTANCE__@@U_Nil@std@@@?$_Hash@V?$_Uset_traits@PAUHINSTANCE__@@V?$_Uhash_compare@PAUHINSTANCE__@@U?$hash@PAUHINSTANCE__@@@std@@U?$equal_to@PAUHINSTANCE__@@@3@@std@@V?$allocator@PAUHINSTANCE__@@@3@$0A@@std@@@std@@IAE?AU?$pair@V?$_List_const_iterator@V?$_List_val@U?$_List_simple_types@PAUHINSTANCE__@@@std@@@std@@@std@@_N@1@ABQAUHINSTANCE__@@U_Nil@1@@Z ; std::_Hash<std::_Uset_traits<HINSTANCE__ *,std::_Uhash_compare<HINSTANCE__ *,std::hash<HINSTANCE__ *>,std::equal_to<HINSTANCE__ *> >,std::allocator<HINSTANCE__ *>,0> >::_Insert<HINSTANCE__ * const &,std::_Nil>
PUBLIC	??$forward@AAV?$queue@KV?$deque@KV?$allocator@K@std@@@std@@@std@@@std@@YAAAV?$queue@KV?$deque@KV?$allocator@K@std@@@std@@@0@AAV10@@Z ; std::forward<std::queue<unsigned long,std::deque<unsigned long,std::allocator<unsigned long> > > &>
PUBLIC	??$forward@AAH@std@@YAAAHAAH@Z			; std::forward<int &>
PUBLIC	??$?0AAV?$queue@KV?$deque@KV?$allocator@K@std@@@std@@@std@@AAHX$0A@@?$pair@V?$queue@KV?$deque@KV?$allocator@K@std@@@std@@@std@@H@std@@QAE@AAV?$queue@KV?$deque@KV?$allocator@K@std@@@std@@@1@AAH@Z ; std::pair<std::queue<unsigned long,std::deque<unsigned long,std::allocator<unsigned long> > >,int>::pair<std::queue<unsigned long,std::deque<unsigned long,std::allocator<unsigned long> > >,int><std::queue<unsigned long,std::deque<unsigned long,std::allocator<unsigned long> > > &,int &,void,0>
PUBLIC	??$_Distance1@V?$_List_const_iterator@V?$_List_val@U?$_List_simple_types@PAUHINSTANCE__@@@std@@@std@@@std@@@std@@YAHV?$_List_const_iterator@V?$_List_val@U?$_List_simple_types@PAUHINSTANCE__@@@std@@@std@@@0@0Uinput_iterator_tag@0@@Z ; std::_Distance1<std::_List_const_iterator<std::_List_val<std::_List_simple_types<HINSTANCE__ *> > > >
PUBLIC	??$forward@U?$_Wrap_alloc@V?$allocator@K@std@@@std@@@std@@YA$$QAU?$_Wrap_alloc@V?$allocator@K@std@@@0@AAU10@@Z ; std::forward<std::_Wrap_alloc<std::allocator<unsigned long> > >
PUBLIC	??$?0U?$_Wrap_alloc@V?$allocator@K@std@@@std@@$$V@?$_Compressed_pair@U?$_Wrap_alloc@V?$allocator@K@std@@@std@@V?$_Deque_val@U?$_Deque_simple_types@K@std@@@2@$00@std@@QAE@U_One_then_variadic_args_t@1@$$QAU?$_Wrap_alloc@V?$allocator@K@std@@@1@@Z ; std::_Compressed_pair<std::_Wrap_alloc<std::allocator<unsigned long> >,std::_Deque_val<std::_Deque_simple_types<unsigned long> >,1>::_Compressed_pair<std::_Wrap_alloc<std::allocator<unsigned long> >,std::_Deque_val<std::_Deque_simple_types<unsigned long> >,1><std::_Wrap_alloc<std::allocator<unsigned long> > >
PUBLIC	??$emplace_back@ABK@?$deque@KV?$allocator@K@std@@@std@@QAEXABK@Z ; std::deque<unsigned long,std::allocator<unsigned long> >::emplace_back<unsigned long const &>
PUBLIC	??$forward@V?$allocator@K@std@@@std@@YA$$QAV?$allocator@K@0@AAV10@@Z ; std::forward<std::allocator<unsigned long> >
PUBLIC	??$forward@V?$_List_const_iterator@V?$_List_val@U?$_List_simple_types@PAUHINSTANCE__@@@std@@@std@@@std@@@std@@YA$$QAV?$_List_const_iterator@V?$_List_val@U?$_List_simple_types@PAUHINSTANCE__@@@std@@@std@@@0@AAV10@@Z ; std::forward<std::_List_const_iterator<std::_List_val<std::_List_simple_types<HINSTANCE__ *> > > >
PUBLIC	??$forward@ABV?$allocator@PAUHINSTANCE__@@@std@@@std@@YAABV?$allocator@PAUHINSTANCE__@@@0@ABV10@@Z ; std::forward<std::allocator<HINSTANCE__ *> const &>
PUBLIC	??$?0PAUHINSTANCE__@@@?$allocator@V?$_List_unchecked_const_iterator@V?$_List_val@U?$_List_simple_types@PAUHINSTANCE__@@@std@@@std@@U_Iterator_base0@2@@std@@@std@@QAE@ABV?$allocator@PAUHINSTANCE__@@@1@@Z ; std::allocator<std::_List_unchecked_const_iterator<std::_List_val<std::_List_simple_types<HINSTANCE__ *> >,std::_Iterator_base0> >::allocator<std::_List_unchecked_const_iterator<std::_List_val<std::_List_simple_types<HINSTANCE__ *> >,std::_Iterator_base0> ><HINSTANCE__ *>
PUBLIC	??$forward@AAU?$hash@PAUHINSTANCE__@@@std@@@std@@YAAAU?$hash@PAUHINSTANCE__@@@0@AAU10@@Z ; std::forward<std::hash<HINSTANCE__ *> &>
PUBLIC	??$forward@U_One_then_variadic_args_t@std@@@std@@YA$$QAU_One_then_variadic_args_t@0@AAU10@@Z ; std::forward<std::_One_then_variadic_args_t>
PUBLIC	??$forward@AAU?$equal_to@PAUHINSTANCE__@@@std@@@std@@YAAAU?$equal_to@PAUHINSTANCE__@@@0@AAU10@@Z ; std::forward<std::equal_to<HINSTANCE__ *> &>
PUBLIC	??$forward@M@std@@YA$$QAMAAM@Z			; std::forward<float>
PUBLIC	??$?0AAU?$equal_to@PAUHINSTANCE__@@@std@@M@?$_Compressed_pair@U?$equal_to@PAUHINSTANCE__@@@std@@M$00@std@@QAE@U_One_then_variadic_args_t@1@AAU?$equal_to@PAUHINSTANCE__@@@1@$$QAM@Z ; std::_Compressed_pair<std::equal_to<HINSTANCE__ *>,float,1>::_Compressed_pair<std::equal_to<HINSTANCE__ *>,float,1><std::equal_to<HINSTANCE__ *> &,float>
PUBLIC	??$forward@AAU?$_Wrap_alloc@V?$allocator@K@std@@@std@@@std@@YAAAU?$_Wrap_alloc@V?$allocator@K@std@@@0@AAU10@@Z ; std::forward<std::_Wrap_alloc<std::allocator<unsigned long> > &>
PUBLIC	??$?0K@?$allocator@PAK@std@@QAE@ABV?$allocator@K@1@@Z ; std::allocator<unsigned long *>::allocator<unsigned long *><unsigned long>
PUBLIC	??$destroy@PAK@?$allocator_traits@V?$allocator@K@std@@@std@@SAXAAV?$allocator@K@1@PAPAK@Z ; std::allocator_traits<std::allocator<unsigned long> >::destroy<unsigned long *>
PUBLIC	??$_Pocma@U?$_Wrap_alloc@V?$allocator@_W@std@@@std@@@std@@YAXAAU?$_Wrap_alloc@V?$allocator@_W@std@@@0@0U?$integral_constant@_N$00@0@@Z ; std::_Pocma<std::_Wrap_alloc<std::allocator<wchar_t> > >
PUBLIC	??$destroy@PA_W@?$allocator_traits@V?$allocator@_W@std@@@std@@SAXAAV?$allocator@_W@1@PAPA_W@Z ; std::allocator_traits<std::allocator<wchar_t> >::destroy<wchar_t *>
PUBLIC	??$forward@U?$_Wrap_alloc@V?$allocator@_W@std@@@std@@@std@@YA$$QAU?$_Wrap_alloc@V?$allocator@_W@std@@@0@AAU10@@Z ; std::forward<std::_Wrap_alloc<std::allocator<wchar_t> > >
PUBLIC	??$?0U?$_Wrap_alloc@V?$allocator@_W@std@@@std@@$$V@?$_Compressed_pair@U?$_Wrap_alloc@V?$allocator@_W@std@@@std@@V?$_String_val@U?$_Simple_types@_W@std@@@2@$00@std@@QAE@U_One_then_variadic_args_t@1@$$QAU?$_Wrap_alloc@V?$allocator@_W@std@@@1@@Z ; std::_Compressed_pair<std::_Wrap_alloc<std::allocator<wchar_t> >,std::_String_val<std::_Simple_types<wchar_t> >,1>::_Compressed_pair<std::_Wrap_alloc<std::allocator<wchar_t> >,std::_String_val<std::_Simple_types<wchar_t> >,1><std::_Wrap_alloc<std::allocator<wchar_t> > >
PUBLIC	??$destroy@PAD@?$allocator_traits@V?$allocator@D@std@@@std@@SAXAAV?$allocator@D@1@PAPAD@Z ; std::allocator_traits<std::allocator<char> >::destroy<char *>
PUBLIC	??$?0K@?$allocator@U_Container_proxy@std@@@std@@QAE@ABV?$allocator@K@1@@Z ; std::allocator<std::_Container_proxy>::allocator<std::_Container_proxy><unsigned long>
PUBLIC	??$destroy@U_Container_proxy@std@@@?$allocator_traits@V?$allocator@U_Container_proxy@std@@@std@@@std@@SAXAAV?$allocator@U_Container_proxy@std@@@1@PAU_Container_proxy@1@@Z ; std::allocator_traits<std::allocator<std::_Container_proxy> >::destroy<std::_Container_proxy>
PUBLIC	??$forward@ABU?$_Wrap_alloc@V?$allocator@V?$_List_unchecked_const_iterator@V?$_List_val@U?$_List_simple_types@PAUHINSTANCE__@@@std@@@std@@U_Iterator_base0@2@@std@@@std@@@std@@@std@@YAABU?$_Wrap_alloc@V?$allocator@V?$_List_unchecked_const_iterator@V?$_List_val@U?$_List_simple_types@PAUHINSTANCE__@@@std@@@std@@U_Iterator_base0@2@@std@@@std@@@0@ABU10@@Z ; std::forward<std::_Wrap_alloc<std::allocator<std::_List_unchecked_const_iterator<std::_List_val<std::_List_simple_types<HINSTANCE__ *> >,std::_Iterator_base0> > > const &>
PUBLIC	??$?0ABU?$_Wrap_alloc@V?$allocator@V?$_List_unchecked_const_iterator@V?$_List_val@U?$_List_simple_types@PAUHINSTANCE__@@@std@@@std@@U_Iterator_base0@2@@std@@@std@@@std@@$$V@?$_Compressed_pair@U?$_Wrap_alloc@U?$_Wrap_alloc@V?$allocator@V?$_List_unchecked_const_iterator@V?$_List_val@U?$_List_simple_types@PAUHINSTANCE__@@@std@@@std@@U_Iterator_base0@2@@std@@@std@@@std@@@std@@V?$_Vector_val@U?$_Simple_types@V?$_List_unchecked_const_iterator@V?$_List_val@U?$_List_simple_types@PAUHINSTANCE__@@@std@@@std@@U_Iterator_base0@2@@std@@@std@@@2@$00@std@@QAE@U_One_then_variadic_args_t@1@ABU?$_Wrap_alloc@V?$allocator@V?$_List_unchecked_const_iterator@V?$_List_val@U?$_List_simple_types@PAUHINSTANCE__@@@std@@@std@@U_Iterator_base0@2@@std@@@std@@@1@@Z ; std::_Compressed_pair<std::_Wrap_alloc<std::_Wrap_alloc<std::allocator<std::_List_unchecked_const_iterator<std::_List_val<std::_List_simple_types<HINSTANCE__ *> >,std::_Iterator_base0> > > >,std::_Vector_val<std::_Simple_types<std::_List_unchecked_const_iterator<std::_List_val<std::_List_simple_types<HINSTANCE__ *> >,std::_Iterator_base0> > >,1>::_Compressed_pair<std::_Wrap_alloc<std::_Wrap_alloc<std::allocator<std::_List_unchecked_const_iterator<std::_List_val<std::_List_simple_types<HINSTANCE__ *> >,std::_Iterator_base0> > > >,std::_Vector_val<std::_Simple_types<std::_List_unchecked_const_iterator<std::_List_val<std::_List_simple_types<HINSTANCE__ *> >,std::_Iterator_base0> > >,1><std::_Wrap_alloc<std::allocator<std::_List_unchecked_const_iterator<std::_List_val<std::_List_simple_types<HINSTANCE__ *> >,std::_Iterator_base0> > > const &>
PUBLIC	??$?0ABV?$allocator@PAUHINSTANCE__@@@std@@X@?$_List_alloc@U?$_List_base_types@PAUHINSTANCE__@@V?$allocator@PAUHINSTANCE__@@@std@@@std@@@std@@QAE@ABV?$allocator@PAUHINSTANCE__@@@1@@Z ; std::_List_alloc<std::_List_base_types<HINSTANCE__ *,std::allocator<HINSTANCE__ *> > >::_List_alloc<std::_List_base_types<HINSTANCE__ *,std::allocator<HINSTANCE__ *> > ><std::allocator<HINSTANCE__ *> const &,void>
PUBLIC	??$destroy@K@?$allocator_traits@V?$allocator@K@std@@@std@@SAXAAV?$allocator@K@1@PAK@Z ; std::allocator_traits<std::allocator<unsigned long> >::destroy<unsigned long>
PUBLIC	??$forward@U_Container_proxy@std@@@std@@YA$$QAU_Container_proxy@0@AAU10@@Z ; std::forward<std::_Container_proxy>
PUBLIC	??$construct@U_Container_proxy@std@@U12@@?$allocator_traits@V?$allocator@U_Container_proxy@std@@@std@@@std@@SAXAAV?$allocator@U_Container_proxy@std@@@1@PAU_Container_proxy@1@$$QAU31@@Z ; std::allocator_traits<std::allocator<std::_Container_proxy> >::construct<std::_Container_proxy,std::_Container_proxy>
PUBLIC	??$_Destroy_range1@U?$_Wrap_alloc@V?$allocator@V?$_List_unchecked_const_iterator@V?$_List_val@U?$_List_simple_types@PAUHINSTANCE__@@@std@@@std@@U_Iterator_base0@2@@std@@@std@@@std@@PAV?$_List_unchecked_const_iterator@V?$_List_val@U?$_List_simple_types@PAUHINSTANCE__@@@std@@@std@@U_Iterator_base0@2@@2@@std@@YAXPAV?$_List_unchecked_const_iterator@V?$_List_val@U?$_List_simple_types@PAUHINSTANCE__@@@std@@@std@@U_Iterator_base0@2@@0@0AAU?$_Wrap_alloc@U?$_Wrap_alloc@V?$allocator@V?$_List_unchecked_const_iterator@V?$_List_val@U?$_List_simple_types@PAUHINSTANCE__@@@std@@@std@@U_Iterator_base0@2@@std@@@std@@@std@@@0@U?$integral_constant@_N$0A@@0@@Z ; std::_Destroy_range1<std::_Wrap_alloc<std::allocator<std::_List_unchecked_const_iterator<std::_List_val<std::_List_simple_types<HINSTANCE__ *> >,std::_Iterator_base0> > >,std::_List_unchecked_const_iterator<std::_List_val<std::_List_simple_types<HINSTANCE__ *> >,std::_Iterator_base0> *>
PUBLIC	??$_Fill_memset_is_safe@PAV?$_List_unchecked_const_iterator@V?$_List_val@U?$_List_simple_types@PAUHINSTANCE__@@@std@@@std@@U_Iterator_base0@2@@std@@V12@@std@@YA?AU?$integral_constant@_N$0A@@0@ABQAV?$_List_unchecked_const_iterator@V?$_List_val@U?$_List_simple_types@PAUHINSTANCE__@@@std@@@std@@U_Iterator_base0@2@@0@ABV20@@Z ; std::_Fill_memset_is_safe<std::_List_unchecked_const_iterator<std::_List_val<std::_List_simple_types<HINSTANCE__ *> >,std::_Iterator_base0> *,std::_List_unchecked_const_iterator<std::_List_val<std::_List_simple_types<HINSTANCE__ *> >,std::_Iterator_base0> >
PUBLIC	??$_Fill_unchecked1@PAV?$_List_unchecked_const_iterator@V?$_List_val@U?$_List_simple_types@PAUHINSTANCE__@@@std@@@std@@U_Iterator_base0@2@@std@@V12@@std@@YAXPAV?$_List_unchecked_const_iterator@V?$_List_val@U?$_List_simple_types@PAUHINSTANCE__@@@std@@@std@@U_Iterator_base0@2@@0@0ABV10@U?$integral_constant@_N$0A@@0@@Z ; std::_Fill_unchecked1<std::_List_unchecked_const_iterator<std::_List_val<std::_List_simple_types<HINSTANCE__ *> >,std::_Iterator_base0> *,std::_List_unchecked_const_iterator<std::_List_val<std::_List_simple_types<HINSTANCE__ *> >,std::_Iterator_base0> >
PUBLIC	??$destroy@PAU?$_List_node@PAUHINSTANCE__@@PAX@std@@@?$allocator_traits@V?$allocator@U?$_List_node@PAUHINSTANCE__@@PAX@std@@@std@@@std@@SAXAAV?$allocator@U?$_List_node@PAUHINSTANCE__@@PAX@std@@@1@PAPAU?$_List_node@PAUHINSTANCE__@@PAX@1@@Z ; std::allocator_traits<std::allocator<std::_List_node<HINSTANCE__ *,void *> > >::destroy<std::_List_node<HINSTANCE__ *,void *> *>
PUBLIC	??$forward@AAPA_W@std@@YAAAPA_WAAPA_W@Z		; std::forward<wchar_t * &>
PUBLIC	??$construct@PA_WAAPA_W@?$allocator_traits@V?$allocator@_W@std@@@std@@SAXAAV?$allocator@_W@1@PAPA_WAAPA_W@Z ; std::allocator_traits<std::allocator<wchar_t> >::construct<wchar_t *,wchar_t * &>
PUBLIC	??$_Unfancy@V?$_List_unchecked_const_iterator@V?$_List_val@U?$_List_simple_types@PAUHINSTANCE__@@@std@@@std@@U_Iterator_base0@2@@std@@@std@@YAPAV?$_List_unchecked_const_iterator@V?$_List_val@U?$_List_simple_types@PAUHINSTANCE__@@@std@@@std@@U_Iterator_base0@2@@0@PAV10@@Z ; std::_Unfancy<std::_List_unchecked_const_iterator<std::_List_val<std::_List_simple_types<HINSTANCE__ *> >,std::_Iterator_base0> >
PUBLIC	??$_Uninit_alloc_fill_n1@PAV?$_List_unchecked_const_iterator@V?$_List_val@U?$_List_simple_types@PAUHINSTANCE__@@@std@@@std@@U_Iterator_base0@2@@std@@IU?$_Wrap_alloc@V?$allocator@V?$_List_unchecked_const_iterator@V?$_List_val@U?$_List_simple_types@PAUHINSTANCE__@@@std@@@std@@U_Iterator_base0@2@@std@@@std@@@2@@std@@YAPAV?$_List_unchecked_const_iterator@V?$_List_val@U?$_List_simple_types@PAUHINSTANCE__@@@std@@@std@@U_Iterator_base0@2@@0@PAV10@IABV10@AAU?$_Wrap_alloc@U?$_Wrap_alloc@V?$allocator@V?$_List_unchecked_const_iterator@V?$_List_val@U?$_List_simple_types@PAUHINSTANCE__@@@std@@@std@@U_Iterator_base0@2@@std@@@std@@@std@@@0@U?$integral_constant@_N$0A@@0@@Z ; std::_Uninit_alloc_fill_n1<std::_List_unchecked_const_iterator<std::_List_val<std::_List_simple_types<HINSTANCE__ *> >,std::_Iterator_base0> *,unsigned int,std::_Wrap_alloc<std::allocator<std::_List_unchecked_const_iterator<std::_List_val<std::_List_simple_types<HINSTANCE__ *> >,std::_Iterator_base0> > > >
PUBLIC	??$destroy@PAUHINSTANCE__@@@?$allocator_traits@V?$allocator@U?$_List_node@PAUHINSTANCE__@@PAX@std@@@std@@@std@@SAXAAV?$allocator@U?$_List_node@PAUHINSTANCE__@@PAX@std@@@1@PAPAUHINSTANCE__@@@Z ; std::allocator_traits<std::allocator<std::_List_node<HINSTANCE__ *,void *> > >::destroy<HINSTANCE__ *>
PUBLIC	??$_Unchecked@PAV?$_List_unchecked_const_iterator@V?$_List_val@U?$_List_simple_types@PAUHINSTANCE__@@@std@@@std@@U_Iterator_base0@2@@std@@@std@@YAPAV?$_List_unchecked_const_iterator@V?$_List_val@U?$_List_simple_types@PAUHINSTANCE__@@@std@@@std@@U_Iterator_base0@2@@0@PAV10@@Z ; std::_Unchecked<std::_List_unchecked_const_iterator<std::_List_val<std::_List_simple_types<HINSTANCE__ *> >,std::_Iterator_base0> *>
PUBLIC	??$_Ptr_move_cat@V?$_List_unchecked_const_iterator@V?$_List_val@U?$_List_simple_types@PAUHINSTANCE__@@@std@@@std@@U_Iterator_base0@2@@std@@V12@@std@@YA?AU_Trivially_copyable_ptr_iterator_tag@0@ABQAV?$_List_unchecked_const_iterator@V?$_List_val@U?$_List_simple_types@PAUHINSTANCE__@@@std@@@std@@U_Iterator_base0@2@@0@0@Z ; std::_Ptr_move_cat<std::_List_unchecked_const_iterator<std::_List_val<std::_List_simple_types<HINSTANCE__ *> >,std::_Iterator_base0>,std::_List_unchecked_const_iterator<std::_List_val<std::_List_simple_types<HINSTANCE__ *> >,std::_Iterator_base0> >
PUBLIC	??$move@AAV?$_List_unchecked_const_iterator@V?$_List_val@U?$_List_simple_types@PAUHINSTANCE__@@@std@@@std@@U_Iterator_base0@2@@std@@@std@@YA$$QAV?$_List_unchecked_const_iterator@V?$_List_val@U?$_List_simple_types@PAUHINSTANCE__@@@std@@@std@@U_Iterator_base0@2@@0@AAV10@@Z ; std::move<std::_List_unchecked_const_iterator<std::_List_val<std::_List_simple_types<HINSTANCE__ *> >,std::_Iterator_base0> &>
PUBLIC	??$_Uninitialized_move_al_unchecked@PAV?$_List_unchecked_const_iterator@V?$_List_val@U?$_List_simple_types@PAUHINSTANCE__@@@std@@@std@@U_Iterator_base0@2@@std@@PAV12@U?$_Wrap_alloc@V?$allocator@V?$_List_unchecked_const_iterator@V?$_List_val@U?$_List_simple_types@PAUHINSTANCE__@@@std@@@std@@U_Iterator_base0@2@@std@@@std@@@2@@std@@YAPAV?$_List_unchecked_const_iterator@V?$_List_val@U?$_List_simple_types@PAUHINSTANCE__@@@std@@@std@@U_Iterator_base0@2@@0@PAV10@00AAU?$_Wrap_alloc@U?$_Wrap_alloc@V?$allocator@V?$_List_unchecked_const_iterator@V?$_List_val@U?$_List_simple_types@PAUHINSTANCE__@@@std@@@std@@U_Iterator_base0@2@@std@@@std@@@std@@@0@U_General_ptr_iterator_tag@0@U_Any_tag@0@@Z ; std::_Uninitialized_move_al_unchecked<std::_List_unchecked_const_iterator<std::_List_val<std::_List_simple_types<HINSTANCE__ *> >,std::_Iterator_base0> *,std::_List_unchecked_const_iterator<std::_List_val<std::_List_simple_types<HINSTANCE__ *> >,std::_Iterator_base0> *,std::_Wrap_alloc<std::allocator<std::_List_unchecked_const_iterator<std::_List_val<std::_List_simple_types<HINSTANCE__ *> >,std::_Iterator_base0> > > >
PUBLIC	??$?0U?$integral_constant@_N$0A@@std@@@_Any_tag@std@@QAE@$$QAU?$integral_constant@_N$0A@@1@@Z ; std::_Any_tag::_Any_tag<std::integral_constant<bool,0> >
PUBLIC	??$_Rechecked@PAV?$_List_unchecked_const_iterator@V?$_List_val@U?$_List_simple_types@PAUHINSTANCE__@@@std@@@std@@U_Iterator_base0@2@@std@@PAV12@@std@@YAAAPAV?$_List_unchecked_const_iterator@V?$_List_val@U?$_List_simple_types@PAUHINSTANCE__@@@std@@@std@@U_Iterator_base0@2@@0@AAPAV10@PAV10@@Z ; std::_Rechecked<std::_List_unchecked_const_iterator<std::_List_val<std::_List_simple_types<HINSTANCE__ *> >,std::_Iterator_base0> *,std::_List_unchecked_const_iterator<std::_List_val<std::_List_simple_types<HINSTANCE__ *> >,std::_Iterator_base0> *>
PUBLIC	??$addressof@V?$_Vector_val@U?$_Simple_types@PB_W@std@@@std@@@std@@YAPAV?$_Vector_val@U?$_Simple_types@PB_W@std@@@0@AAV10@@Z ; std::addressof<std::_Vector_val<std::_Simple_types<wchar_t const *> > >
PUBLIC	??$addressof@V?$_Vector_val@U?$_Simple_types@PBD@std@@@std@@@std@@YAPAV?$_Vector_val@U?$_Simple_types@PBD@std@@@0@AAV10@@Z ; std::addressof<std::_Vector_val<std::_Simple_types<char const *> > >
PUBLIC	??$_Traits_equal@U?$char_traits@_W@std@@@std@@YA_NQB_WI0I@Z ; std::_Traits_equal<std::char_traits<wchar_t> >
PUBLIC	??$?0$$V@?$_Compressed_pair@U?$_Wrap_alloc@V?$allocator@PB_W@std@@@std@@V?$_Vector_val@U?$_Simple_types@PB_W@std@@@2@$00@std@@QAE@U_Zero_then_variadic_args_t@1@@Z ; std::_Compressed_pair<std::_Wrap_alloc<std::allocator<wchar_t const *> >,std::_Vector_val<std::_Simple_types<wchar_t const *> >,1>::_Compressed_pair<std::_Wrap_alloc<std::allocator<wchar_t const *> >,std::_Vector_val<std::_Simple_types<wchar_t const *> >,1><>
PUBLIC	??$?0$$V@?$_Compressed_pair@U?$_Wrap_alloc@V?$allocator@PBD@std@@@std@@V?$_Vector_val@U?$_Simple_types@PBD@std@@@2@$00@std@@QAE@U_Zero_then_variadic_args_t@1@@Z ; std::_Compressed_pair<std::_Wrap_alloc<std::allocator<char const *> >,std::_Vector_val<std::_Simple_types<char const *> >,1>::_Compressed_pair<std::_Wrap_alloc<std::allocator<char const *> >,std::_Vector_val<std::_Simple_types<char const *> >,1><>
PUBLIC	??$_Destroy_range@V?$allocator@PB_W@std@@PAPB_W@std@@YAXPAPB_W0AAU?$_Wrap_alloc@V?$allocator@PB_W@std@@@0@@Z ; std::_Destroy_range<std::allocator<wchar_t const *>,wchar_t const * *>
PUBLIC	??$_Destroy_range@V?$allocator@PBD@std@@PAPBD@std@@YAXPAPBD0AAU?$_Wrap_alloc@V?$allocator@PBD@std@@@0@@Z ; std::_Destroy_range<std::allocator<char const *>,char const * *>
PUBLIC	??$forward@PBD@std@@YA$$QAPBDAAPBD@Z		; std::forward<char const *>
PUBLIC	??$_Emplace_back_with_unused_capacity@PBD@?$vector@PBDV?$allocator@PBD@std@@@std@@AAEX$$QAPBD@Z ; std::vector<char const *,std::allocator<char const *> >::_Emplace_back_with_unused_capacity<char const *>
PUBLIC	??$_Unfancy@PBD@std@@YAPAPBDPAPBD@Z		; std::_Unfancy<char const *>
PUBLIC	??$construct@PBDPBD@?$_Wrap_alloc@V?$allocator@PBD@std@@@std@@QAEXPAPBD$$QAPBD@Z ; std::_Wrap_alloc<std::allocator<char const *> >::construct<char const *,char const *>
PUBLIC	??$destroy@PBD@?$_Wrap_alloc@V?$allocator@PBD@std@@@std@@QAEXPAPBD@Z ; std::_Wrap_alloc<std::allocator<char const *> >::destroy<char const *>
PUBLIC	??0?$initializer_list@PBD@std@@QAE@PBQBD0@Z	; std::initializer_list<char const *>::initializer_list<char const *>
PUBLIC	?begin@?$initializer_list@PBD@std@@QBEPBQBDXZ	; std::initializer_list<char const *>::begin
PUBLIC	?end@?$initializer_list@PBD@std@@QBEPBQBDXZ	; std::initializer_list<char const *>::end
PUBLIC	??$forward@PB_W@std@@YA$$QAPB_WAAPB_W@Z		; std::forward<wchar_t const *>
PUBLIC	??$_Emplace_back_with_unused_capacity@PB_W@?$vector@PB_WV?$allocator@PB_W@std@@@std@@AAEX$$QAPB_W@Z ; std::vector<wchar_t const *,std::allocator<wchar_t const *> >::_Emplace_back_with_unused_capacity<wchar_t const *>
PUBLIC	??$_Unfancy@PB_W@std@@YAPAPB_WPAPB_W@Z		; std::_Unfancy<wchar_t const *>
PUBLIC	??$construct@PB_WPB_W@?$_Wrap_alloc@V?$allocator@PB_W@std@@@std@@QAEXPAPB_W$$QAPB_W@Z ; std::_Wrap_alloc<std::allocator<wchar_t const *> >::construct<wchar_t const *,wchar_t const *>
PUBLIC	??$destroy@PB_W@?$_Wrap_alloc@V?$allocator@PB_W@std@@@std@@QAEXPAPB_W@Z ; std::_Wrap_alloc<std::allocator<wchar_t const *> >::destroy<wchar_t const *>
PUBLIC	??0?$initializer_list@PB_W@std@@QAE@PBQB_W0@Z	; std::initializer_list<wchar_t const *>::initializer_list<wchar_t const *>
PUBLIC	?begin@?$initializer_list@PB_W@std@@QBEPBQB_WXZ	; std::initializer_list<wchar_t const *>::begin
PUBLIC	?end@?$initializer_list@PB_W@std@@QBEPBQB_WXZ	; std::initializer_list<wchar_t const *>::end
PUBLIC	??$?0V?$_List_const_iterator@V?$_List_val@U?$_List_simple_types@PAUHINSTANCE__@@@std@@@std@@@std@@_NX$0A@@?$pair@V?$_List_const_iterator@V?$_List_val@U?$_List_simple_types@PAUHINSTANCE__@@@std@@@std@@@std@@_N@std@@QAE@$$QAV?$_List_const_iterator@V?$_List_val@U?$_List_simple_types@PAUHINSTANCE__@@@std@@@std@@@1@$$QA_N@Z ; std::pair<std::_List_const_iterator<std::_List_val<std::_List_simple_types<HINSTANCE__ *> > >,bool>::pair<std::_List_const_iterator<std::_List_val<std::_List_simple_types<HINSTANCE__ *> > >,bool><std::_List_const_iterator<std::_List_val<std::_List_simple_types<HINSTANCE__ *> > >,bool,void,0>
PUBLIC	??$forward@ABQAUHINSTANCE__@@@std@@YAABQAUHINSTANCE__@@ABQAU1@@Z ; std::forward<HINSTANCE__ * const &>
PUBLIC	??$_Buynode_if_nil@ABQAUHINSTANCE__@@@?$_Hash@V?$_Uset_traits@PAUHINSTANCE__@@V?$_Uhash_compare@PAUHINSTANCE__@@U?$hash@PAUHINSTANCE__@@@std@@U?$equal_to@PAUHINSTANCE__@@@3@@std@@V?$allocator@PAUHINSTANCE__@@@3@$0A@@std@@@std@@IAE?AV?$_List_unchecked_const_iterator@V?$_List_val@U?$_List_simple_types@PAUHINSTANCE__@@@std@@@std@@U_Iterator_base0@2@@1@ABQAUHINSTANCE__@@U_Nil@1@@Z ; std::_Hash<std::_Uset_traits<HINSTANCE__ *,std::_Uhash_compare<HINSTANCE__ *,std::hash<HINSTANCE__ *>,std::equal_to<HINSTANCE__ *> >,std::allocator<HINSTANCE__ *>,0> >::_Buynode_if_nil<HINSTANCE__ * const &>
PUBLIC	??$_Buynode_if_nil@ABQAUHINSTANCE__@@@?$_Hash@V?$_Uset_traits@PAUHINSTANCE__@@V?$_Uhash_compare@PAUHINSTANCE__@@U?$hash@PAUHINSTANCE__@@@std@@U?$equal_to@PAUHINSTANCE__@@@3@@std@@V?$allocator@PAUHINSTANCE__@@@3@$0A@@std@@@std@@IAE?AV?$_List_unchecked_const_iterator@V?$_List_val@U?$_List_simple_types@PAUHINSTANCE__@@@std@@@std@@U_Iterator_base0@2@@1@ABQAUHINSTANCE__@@V21@@Z ; std::_Hash<std::_Uset_traits<HINSTANCE__ *,std::_Uhash_compare<HINSTANCE__ *,std::hash<HINSTANCE__ *>,std::equal_to<HINSTANCE__ *> >,std::allocator<HINSTANCE__ *>,0> >::_Buynode_if_nil<HINSTANCE__ * const &>
PUBLIC	??$forward@ABK@std@@YAABKABK@Z			; std::forward<unsigned long const &>
PUBLIC	??$construct@KABK@?$_Wrap_alloc@V?$allocator@K@std@@@std@@QAEXPAKABK@Z ; std::_Wrap_alloc<std::allocator<unsigned long> >::construct<unsigned long,unsigned long const &>
PUBLIC	??$destroy@PAK@?$allocator@K@std@@QAEXPAPAK@Z	; std::allocator<unsigned long>::destroy<unsigned long *>
PUBLIC	??$destroy@PA_W@?$allocator@_W@std@@QAEXPAPA_W@Z ; std::allocator<wchar_t>::destroy<wchar_t *>
PUBLIC	??$destroy@PAD@?$allocator@D@std@@QAEXPAPAD@Z	; std::allocator<char>::destroy<char *>
PUBLIC	??$destroy@U_Container_proxy@std@@@?$allocator@U_Container_proxy@std@@@std@@QAEXPAU_Container_proxy@1@@Z ; std::allocator<std::_Container_proxy>::destroy<std::_Container_proxy>
