; Listing generated by Microsoft (R) Optimizing Compiler Version 19.10.25019.0 

	TITLE	C:\Users\andon\Source\Repos\SpecialK\src\core.cpp
	.686P
	.XMM
	include listing.inc
	.model	flat

INCLUDELIB MSVCRT
INCLUDELIB OLDNAMES

PUBLIC	_IID_IInternalConnection
PUBLIC	?SK_bypass_dialog_tid@@3JC			; SK_bypass_dialog_tid
PUBLIC	?SK_bypass_dialog_active@@3JC			; SK_bypass_dialog_active
PUBLIC	?__SK_Init@@3JC					; __SK_Init
PUBLIC	?chDirSep@ATL@@3_WB				; ATL::chDirSep
PUBLIC	?chRightBracket@ATL@@3_WB			; ATL::chRightBracket
PUBLIC	?chLeftBracket@ATL@@3_WB			; ATL::chLeftBracket
PUBLIC	?chQuote@ATL@@3_WB				; ATL::chQuote
PUBLIC	?chEquals@ATL@@3_WB				; ATL::chEquals
PUBLIC	?szStringVal@ATL@@3QB_WB			; ATL::szStringVal
PUBLIC	?multiszStringVal@ATL@@3QB_WB			; ATL::multiszStringVal
PUBLIC	?szDwordVal@ATL@@3QB_WB				; ATL::szDwordVal
PUBLIC	?szBinaryVal@ATL@@3QB_WB			; ATL::szBinaryVal
PUBLIC	?szValToken@ATL@@3QB_WB				; ATL::szValToken
PUBLIC	?szForceRemove@ATL@@3QB_WB			; ATL::szForceRemove
PUBLIC	?szNoRemove@ATL@@3QB_WB				; ATL::szNoRemove
PUBLIC	?szDelete@ATL@@3QB_WB				; ATL::szDelete
PUBLIC	_CLSID_Registrar
PUBLIC	?dll_role@@3W4DLL_ROLE@@A			; dll_role
PUBLIC	_IID_IRegistrar
PUBLIC	_IID_IDocHostUIHandlerDispatch
PUBLIC	?_pAtlAutoThreadModule@ATL@@3PAUIAtlAutoThreadModule@1@A ; ATL::_pAtlAutoThreadModule
PUBLIC	?hInitThread@@3RAXA				; hInitThread
PUBLIC	?hPumpThread@@3PAXA				; hPumpThread
PUBLIC	?sli_state@@3UNV_GET_CURRENT_SLI_STATE_V2@@A	; sli_state
PUBLIC	?__SK_DLL_Backend@@3PB_WB			; __SK_DLL_Backend
PUBLIC	?SK_RootPath@@3PA_WA				; SK_RootPath
PUBLIC	?SK_ConfigPath@@3PA_WA				; SK_ConfigPath
PUBLIC	?SK_Backend@@3PA_WA				; SK_Backend
PUBLIC	?frames_drawn@@3JC				; frames_drawn
PUBLIC	_IID_IAxWinHostWindow
PUBLIC	_IID_IAxWinHostWindowLic
PUBLIC	?_pAtlModule@ATL@@3PAVCAtlModule@1@A		; ATL::_pAtlModule
PUBLIC	_IID_IAxWinAmbientDispatch
PUBLIC	_LIBID_ATLLib
PUBLIC	?poll_interval@@3_KA				; poll_interval
PUBLIC	?g_iRenderDevice@@3PAUIUnknown@@A		; g_iRenderDevice
PUBLIC	?g_iSwapChain@@3PAUIUnknown@@A			; g_iSwapChain
PUBLIC	?osd_shutdown@@3PAXA				; osd_shutdown
PUBLIC	___pobjMapEntryFirst
PUBLIC	___pobjMapEntryLast
PUBLIC	?_pPerfRegFunc@ATL@@3P6AJPAUHINSTANCE__@@@ZA	; ATL::_pPerfRegFunc
PUBLIC	?_pPerfUnRegFunc@ATL@@3P6AJXZA			; ATL::_pPerfUnRegFunc
PUBLIC	?_AtlRegisterPerUser@ATL@@3_NA			; ATL::_AtlRegisterPerUser
PUBLIC	?backend_dll@@3PAUHINSTANCE__@@A		; backend_dll
PUBLIC	?_pModule@ATL@@3PAVCComModule@1@A		; ATL::_pModule
PUBLIC	?nvapi_init@@3HA				; nvapi_init
PUBLIC	_IID_IAxWinAmbientDispatchEx
_BSS	SEGMENT
?SK_bypass_dialog_tid@@3JC DD 01H DUP (?)		; SK_bypass_dialog_tid
?SK_bypass_dialog_active@@3JC DD 01H DUP (?)		; SK_bypass_dialog_active
?__SK_Init@@3JC DD 01H DUP (?)				; __SK_Init
?dll_role@@3W4DLL_ROLE@@A DD 01H DUP (?)		; dll_role
_BSS	ENDS
;	COMDAT ?_pAtlAutoThreadModule@ATL@@3PAUIAtlAutoThreadModule@1@A
_BSS	SEGMENT
?_pAtlAutoThreadModule@ATL@@3PAUIAtlAutoThreadModule@1@A DD 01H DUP (?) ; ATL::_pAtlAutoThreadModule
_BSS	ENDS
_BSS	SEGMENT
?sli_state@@3UNV_GET_CURRENT_SLI_STATE_V2@@A DB 020H DUP (?) ; sli_state
?SK_RootPath@@3PA_WA DW 0106H DUP (?)			; SK_RootPath
?SK_ConfigPath@@3PA_WA DW 0106H DUP (?)			; SK_ConfigPath
?SK_Backend@@3PA_WA DW 080H DUP (?)			; SK_Backend
?frames_drawn@@3JC DD 01H DUP (?)			; frames_drawn
_BSS	ENDS
;	COMDAT ?_pAtlModule@ATL@@3PAVCAtlModule@1@A
_BSS	SEGMENT
?_pAtlModule@ATL@@3PAVCAtlModule@1@A DD 01H DUP (?)	; ATL::_pAtlModule
_BSS	ENDS
_BSS	SEGMENT
	ALIGN	8

?poll_interval@@3_KA DQ 01H DUP (?)			; poll_interval
?g_iRenderDevice@@3PAUIUnknown@@A DD 01H DUP (?)	; g_iRenderDevice
?g_iSwapChain@@3PAUIUnknown@@A DD 01H DUP (?)		; g_iSwapChain
_BSS	ENDS
;	COMDAT ?_pPerfRegFunc@ATL@@3P6AJPAUHINSTANCE__@@@ZA
_BSS	SEGMENT
?_pPerfRegFunc@ATL@@3P6AJPAUHINSTANCE__@@@ZA DD 01H DUP (?) ; ATL::_pPerfRegFunc
_BSS	ENDS
;	COMDAT ?_pPerfUnRegFunc@ATL@@3P6AJXZA
_BSS	SEGMENT
?_pPerfUnRegFunc@ATL@@3P6AJXZA DD 01H DUP (?)		; ATL::_pPerfUnRegFunc
_BSS	ENDS
;	COMDAT ?_AtlRegisterPerUser@ATL@@3_NA
_BSS	SEGMENT
?_AtlRegisterPerUser@ATL@@3_NA DB 01H DUP (?)		; ATL::_AtlRegisterPerUser
_BSS	ENDS
_BSS	SEGMENT
?backend_dll@@3PAUHINSTANCE__@@A DD 01H DUP (?)		; backend_dll
_BSS	ENDS
;	COMDAT ?_pModule@ATL@@3PAVCComModule@1@A
_BSS	SEGMENT
?_pModule@ATL@@3PAVCComModule@1@A DD 01H DUP (?)	; ATL::_pModule
_BSS	ENDS
_BSS	SEGMENT
?nvapi_init@@3HA DD 01H DUP (?)				; nvapi_init
_BSS	ENDS
;	COMDAT _IID_IAxWinAmbientDispatchEx
CONST	SEGMENT
_IID_IAxWinAmbientDispatchEx DD 0b2d0778bH
	DW	0ac99H
	DW	04c58H
	DB	0a5H
	DB	0c8H
	DB	0e7H
	DB	072H
	DB	04eH
	DB	053H
	DB	016H
	DB	0b5H
CONST	ENDS
;	COMDAT ___pobjMapEntryLast
ATL$__z	SEGMENT
___pobjMapEntryLast DD 00H
ATL$__z	ENDS
;	COMDAT ___pobjMapEntryFirst
ATL$__a	SEGMENT
___pobjMapEntryFirst DD 00H
ATL$__a	ENDS
;	COMDAT _LIBID_ATLLib
CONST	SEGMENT
_LIBID_ATLLib DD 044ec0535H
	DW	0400fH
	DW	011d0H
	DB	09dH
	DB	0cdH
	DB	00H
	DB	0a0H
	DB	0c9H
	DB	03H
	DB	091H
	DB	0d3H
CONST	ENDS
;	COMDAT _IID_IAxWinAmbientDispatch
CONST	SEGMENT
_IID_IAxWinAmbientDispatch DD 0b6ea2051H
	DW	048aH
	DW	011d1H
	DB	082H
	DB	0b9H
	DB	00H
	DB	0c0H
	DB	04fH
	DB	0b9H
	DB	094H
	DB	02eH
CONST	ENDS
;	COMDAT _IID_IAxWinHostWindowLic
CONST	SEGMENT
_IID_IAxWinHostWindowLic DD 03935bda8H
	DW	04ed9H
	DW	0495cH
	DB	086H
	DB	050H
	DB	0e0H
	DB	01fH
	DB	0c1H
	DB	0e3H
	DB	08aH
	DB	04bH
CONST	ENDS
;	COMDAT _IID_IAxWinHostWindow
CONST	SEGMENT
_IID_IAxWinHostWindow DD 0b6ea2050H
	DW	048aH
	DW	011d1H
	DB	082H
	DB	0b9H
	DB	00H
	DB	0c0H
	DB	04fH
	DB	0b9H
	DB	094H
	DB	02eH
CONST	ENDS
_DATA	SEGMENT
?hInitThread@@3RAXA DD 0ffffffffH			; hInitThread
?hPumpThread@@3PAXA DD 0ffffffffH			; hPumpThread
?__SK_DLL_Backend@@3PB_WB DD FLAT:$SG427485		; __SK_DLL_Backend
?osd_shutdown@@3PAXA DD 0ffffffffH			; osd_shutdown
_DATA	ENDS
;	COMDAT _IID_IDocHostUIHandlerDispatch
CONST	SEGMENT
_IID_IDocHostUIHandlerDispatch DD 0425b5af0H
	DW	065f1H
	DW	011d1H
	DB	096H
	DB	011H
	DB	00H
	DB	00H
	DB	0f8H
	DB	01eH
	DB	0dH
	DB	0dH
CONST	ENDS
;	COMDAT _IID_IRegistrar
CONST	SEGMENT
_IID_IRegistrar DD 044ec053bH
	DW	0400fH
	DW	011d0H
	DB	09dH
	DB	0cdH
	DB	00H
	DB	0a0H
	DB	0c9H
	DB	03H
	DB	091H
	DB	0d3H
CONST	ENDS
;	COMDAT _CLSID_Registrar
CONST	SEGMENT
_CLSID_Registrar DD 044ec053aH
	DW	0400fH
	DW	011d0H
	DB	09dH
	DB	0cdH
	DB	00H
	DB	0a0H
	DB	0c9H
	DB	03H
	DB	091H
	DB	0d3H
CONST	ENDS
;	COMDAT ?szDelete@ATL@@3QB_WB
CONST	SEGMENT
?szDelete@ATL@@3QB_WB DD FLAT:$SG189610			; ATL::szDelete
CONST	ENDS
;	COMDAT ?szNoRemove@ATL@@3QB_WB
CONST	SEGMENT
?szNoRemove@ATL@@3QB_WB DD FLAT:$SG189608		; ATL::szNoRemove
CONST	ENDS
;	COMDAT ?szForceRemove@ATL@@3QB_WB
CONST	SEGMENT
?szForceRemove@ATL@@3QB_WB DD FLAT:$SG189606		; ATL::szForceRemove
CONST	ENDS
;	COMDAT ?szValToken@ATL@@3QB_WB
CONST	SEGMENT
?szValToken@ATL@@3QB_WB DD FLAT:$SG189604		; ATL::szValToken
CONST	ENDS
;	COMDAT ?szBinaryVal@ATL@@3QB_WB
CONST	SEGMENT
?szBinaryVal@ATL@@3QB_WB DD FLAT:$SG189602		; ATL::szBinaryVal
CONST	ENDS
;	COMDAT ?szDwordVal@ATL@@3QB_WB
CONST	SEGMENT
?szDwordVal@ATL@@3QB_WB DD FLAT:$SG189600		; ATL::szDwordVal
CONST	ENDS
;	COMDAT ?multiszStringVal@ATL@@3QB_WB
CONST	SEGMENT
?multiszStringVal@ATL@@3QB_WB DD FLAT:$SG189598		; ATL::multiszStringVal
CONST	ENDS
;	COMDAT ?szStringVal@ATL@@3QB_WB
CONST	SEGMENT
?szStringVal@ATL@@3QB_WB DD FLAT:$SG189596		; ATL::szStringVal
CONST	ENDS
;	COMDAT ?chEquals@ATL@@3_WB
CONST	SEGMENT
?chEquals@ATL@@3_WB DW 03dH				; ATL::chEquals
CONST	ENDS
;	COMDAT ?chQuote@ATL@@3_WB
CONST	SEGMENT
?chQuote@ATL@@3_WB DW 027H				; ATL::chQuote
CONST	ENDS
;	COMDAT ?chLeftBracket@ATL@@3_WB
CONST	SEGMENT
?chLeftBracket@ATL@@3_WB DW 07bH			; ATL::chLeftBracket
CONST	ENDS
;	COMDAT ?chRightBracket@ATL@@3_WB
CONST	SEGMENT
?chRightBracket@ATL@@3_WB DW 07dH			; ATL::chRightBracket
CONST	ENDS
;	COMDAT ?chDirSep@ATL@@3_WB
CONST	SEGMENT
?chDirSep@ATL@@3_WB DW 05cH				; ATL::chDirSep
CONST	ENDS
;	COMDAT _IID_IInternalConnection
CONST	SEGMENT
_IID_IInternalConnection DD 072ad0770H
	DW	06a9fH
	DW	011d1H
	DB	0bcH
	DB	0ecH
	DB	00H
	DB	060H
	DB	08H
	DB	08fH
	DB	044H
	DB	04eH
CONST	ENDS
CONST	SEGMENT
$SG178176 DB	'a', 00H, 't', 00H, 'l', 00H, 'T', 00H, 'r', 00H, 'a', 00H
	DB	'c', 00H, 'e', 00H, 'C', 00H, 'o', 00H, 'n', 00H, 't', 00H, 'r'
	DB	00H, 'o', 00H, 'l', 00H, 's', 00H, 00H, 00H
$SG428047 DB	00H
$SG428085 DB	00H
$SG428048 DB	'mem', 00H
$SG428049 DB	'%c %lx %s', 00H
?piecewise_construct@std@@3Upiecewise_construct_t@1@B	ORG $+1 ; std::piecewise_construct
$SG427975 DB	00H
$SG428053 DB	'%cx', 00H
$SG428054 DB	'%u', 00H
	ORG $+1
$SG428055 DB	'mem', 00H
$SG428058 DB	'%hx', 00H
$SG428059 DB	'%u', 00H
	ORG $+1
$SG428060 DB	'mem', 00H
$SG428063 DB	'%x', 00H
	ORG $+1
$SG428064 DB	'%u', 00H
	ORG $+1
$SG428065 DB	'mem', 00H
$SG428068 DB	'%llx', 00H
	ORG $+3
$SG428069 DB	'%llu', 00H
	ORG $+3
$SG428070 DB	'mem', 00H
$SG428073 DB	'%lf', 00H
$SG428074 DB	'%f', 00H
	ORG $+1
$SG428075 DB	'mem', 00H
$SG428078 DB	'%f', 00H
	ORG $+1
$SG428079 DB	'%f', 00H
	ORG $+1
$SG178223 DB	'a', 00H, 't', 00H, 'l', 00H, 'T', 00H, 'r', 00H, 'a', 00H
	DB	'c', 00H, 'e', 00H, 'H', 00H, 'o', 00H, 's', 00H, 't', 00H, 'i'
	DB	00H, 'n', 00H, 'g', 00H, 00H, 00H
$SG428080 DB	'mem', 00H
$SG428083 DB	'%s', 00H
	ORG $+1
$SG428084 DB	'mem', 00H
$SG428086 DB	'mem', 00H
$SG428125 DB	'[', 00H, ' ', 00H, ' ', 00H, 'N', 00H, 'v', 00H, 'A', 00H
	DB	'P', 00H, 'I', 00H, ' ', 00H, ' ', 00H, ' ', 00H, ']', 00H, ' '
	DB	00H, 'I', 00H, 'n', 00H, 'i', 00H, 't', 00H, 'i', 00H, 'a', 00H
	DB	'l', 00H, 'i', 00H, 'z', 00H, 'i', 00H, 'n', 00H, 'g', 00H, ' '
	DB	00H, 'N', 00H, 'V', 00H, 'I', 00H, 'D', 00H, 'I', 00H, 'A', 00H
	DB	' ', 00H, 'A', 00H, 'P', 00H, 'I', 00H, ' ', 00H, ' ', 00H, ' '
	DB	00H, ' ', 00H, ' ', 00H, ' ', 00H, ' ', 00H, ' ', 00H, ' ', 00H
	DB	' ', 00H, '(', 00H, 'N', 00H, 'v', 00H, 'A', 00H, 'P', 00H, 'I'
	DB	00H, ')', 00H, '.', 00H, '.', 00H, '.', 00H, 00H, 00H
	ORG $+2
$SG428126 DB	'S', 00H, 'u', 00H, 'c', 00H, 'c', 00H, 'e', 00H, 's', 00H
	DB	's', 00H, 00H, 00H
$SG178270 DB	'a', 00H, 't', 00H, 'l', 00H, 'T', 00H, 'r', 00H, 'a', 00H
	DB	'c', 00H, 'e', 00H, 'D', 00H, 'B', 00H, 'C', 00H, 'l', 00H, 'i'
	DB	00H, 'e', 00H, 'n', 00H, 't', 00H, 00H, 00H
	ORG $+2
$SG428127 DB	'F', 00H, 'a', 00H, 'i', 00H, 'l', 00H, 'e', 00H, 'd', 00H
	DB	' ', 00H, 00H, 00H
$SG428128 DB	'[', 00H, ' ', 00H, ' ', 00H, 'N', 00H, 'v', 00H, 'A', 00H
	DB	'P', 00H, 'I', 00H, ' ', 00H, ' ', 00H, ' ', 00H, ']', 00H, ' '
	DB	00H, ' ', 00H, ' ', 00H, ' ', 00H, ' ', 00H, ' ', 00H, ' ', 00H
	DB	' ', 00H, ' ', 00H, ' ', 00H, ' ', 00H, ' ', 00H, ' ', 00H, ' '
	DB	00H, 'N', 00H, 'v', 00H, 'A', 00H, 'P', 00H, 'I', 00H, ' ', 00H
	DB	'I', 00H, 'n', 00H, 'i', 00H, 't', 00H, ' ', 00H, ' ', 00H, ' '
	DB	00H, ' ', 00H, ' ', 00H, ' ', 00H, ' ', 00H, ' ', 00H, ' ', 00H
	DB	'{', 00H, ' ', 00H, '%', 00H, 's', 00H, ' ', 00H, '}', 00H, 00H
	DB	00H
$SG428131 DB	'[', 00H, ' ', 00H, ' ', 00H, 'N', 00H, 'v', 00H, 'A', 00H
	DB	'P', 00H, 'I', 00H, ' ', 00H, ' ', 00H, ' ', 00H, ']', 00H, ' '
	DB	00H, '>', 00H, '>', 00H, ' ', 00H, 'N', 00H, 'V', 00H, 'I', 00H
	DB	'D', 00H, 'I', 00H, 'A', 00H, ' ', 00H, 'D', 00H, 'r', 00H, 'i'
	DB	00H, 'v', 00H, 'e', 00H, 'r', 00H, ' ', 00H, 'V', 00H, 'e', 00H
	DB	'r', 00H, 's', 00H, 'i', 00H, 'o', 00H, 'n', 00H, ':', 00H, ' '
	DB	00H, '%', 00H, 's', 00H, 00H, 00H
$SG428140 DB	'O', 00H, 'P', 00H, 'E', 00H, 'N', 00H, 00H, 00H
	ORG $+2
$SG428132 DB	'[', 00H, ' ', 00H, ' ', 00H, 'N', 00H, 'v', 00H, 'A', 00H
	DB	'P', 00H, 'I', 00H, ' ', 00H, ' ', 00H, ' ', 00H, ']', 00H, ' '
	DB	00H, ' ', 00H, '*', 00H, ' ', 00H, 'N', 00H, 'u', 00H, 'm', 00H
	DB	'b', 00H, 'e', 00H, 'r', 00H, ' ', 00H, 'o', 00H, 'f', 00H, ' '
	DB	00H, 'I', 00H, 'n', 00H, 's', 00H, 't', 00H, 'a', 00H, 'l', 00H
	DB	'l', 00H, 'e', 00H, 'd', 00H, ' ', 00H, 'N', 00H, 'V', 00H, 'I'
	DB	00H, 'D', 00H, 'I', 00H, 'A', 00H, ' ', 00H, 'G', 00H, 'P', 00H
	DB	'U', 00H, 's', 00H, ':', 00H, ' ', 00H, '%', 00H, 'i', 00H, ' '
	DB	00H, ' ', 00H, '{', 00H, ' ', 00H, 'S', 00H, 'L', 00H, 'I', 00H
	DB	':', 00H, ' ', 00H, '''', 00H, '%', 00H, 's', 00H, '''', 00H, ' '
	DB	00H, '}', 00H, 00H, 00H
	ORG $+2
$SG428133 DB	'[', 00H, ' ', 00H, ' ', 00H, 'N', 00H, 'v', 00H, 'A', 00H
	DB	'P', 00H, 'I', 00H, ' ', 00H, ' ', 00H, ' ', 00H, ']', 00H, ' '
	DB	00H, ' ', 00H, '*', 00H, ' ', 00H, 'N', 00H, 'u', 00H, 'm', 00H
	DB	'b', 00H, 'e', 00H, 'r', 00H, ' ', 00H, 'o', 00H, 'f', 00H, ' '
	DB	00H, 'I', 00H, 'n', 00H, 's', 00H, 't', 00H, 'a', 00H, 'l', 00H
	DB	'l', 00H, 'e', 00H, 'd', 00H, ' ', 00H, 'N', 00H, 'V', 00H, 'I'
	DB	00H, 'D', 00H, 'I', 00H, 'A', 00H, ' ', 00H, 'G', 00H, 'P', 00H
	DB	'U', 00H, 's', 00H, ':', 00H, ' ', 00H, '%', 00H, 'i', 00H, ' '
	DB	00H, ' ', 00H, '{', 00H, ' ', 00H, '''', 00H, '%', 00H, 's', 00H
	DB	'''', 00H, ' ', 00H, '}', 00H, 00H, 00H
$SG428148 DB	'NvOptimusEnablement', 00H
$SG428135 DB	'[', 00H, ' ', 00H, ' ', 00H, 'N', 00H, 'v', 00H, 'A', 00H
	DB	'P', 00H, 'I', 00H, ' ', 00H, ' ', 00H, ' ', 00H, ']', 00H, ' '
	DB	00H, ' ', 00H, ' ', 00H, '+', 00H, ' ', 00H, 'S', 00H, 'L', 00H
	DB	'I', 00H, ' ', 00H, 'G', 00H, 'P', 00H, 'U', 00H, ' ', 00H, '%'
	DB	00H, 'd', 00H, ':', 00H, ' ', 00H, '%', 00H, 's', 00H, 00H, 00H
$SG428139 DB	'[', 00H, ' ', 00H, ' ', 00H, 'N', 00H, 'v', 00H, 'A', 00H
	DB	'P', 00H, 'I', 00H, ' ', 00H, ' ', 00H, ' ', 00H, ']', 00H, ' '
	DB	00H, '>', 00H, '>', 00H, ' ', 00H, 'R', 00H, 'e', 00H, 's', 00H
	DB	't', 00H, 'a', 00H, 'r', 00H, 't', 00H, 'i', 00H, 'n', 00H, 'g'
	DB	00H, ' ', 00H, 't', 00H, 'o', 00H, ' ', 00H, 'a', 00H, 'p', 00H
	DB	'p', 00H, 'l', 00H, 'y', 00H, ' ', 00H, 'N', 00H, 'V', 00H, 'I'
	DB	00H, 'D', 00H, 'I', 00H, 'A', 00H, ' ', 00H, 'd', 00H, 'r', 00H
	DB	'i', 00H, 'v', 00H, 'e', 00H, 'r', 00H, ' ', 00H, 's', 00H, 'e'
	DB	00H, 't', 00H, 't', 00H, 'i', 00H, 'n', 00H, 'g', 00H, 's', 00H
	DB	' ', 00H, '<', 00H, '<', 00H, 00H, 00H
$SG428151 DB	'M', 00H, 'a', 00H, 'x', 00H, ' ', 00H, 'P', 00H, 'e', 00H
	DB	'r', 00H, 'f', 00H, '.', 00H, 00H, 00H
$SG428141 DB	'[', 00H, 'D', 00H, 'i', 00H, 's', 00H, 'p', 00H, 'l', 00H
	DB	'a', 00H, 'y', 00H, 'L', 00H, 'i', 00H, 'b', 00H, ']', 00H, ' '
	DB	00H, 'I', 00H, 'n', 00H, 'i', 00H, 't', 00H, 'i', 00H, 'a', 00H
	DB	'l', 00H, 'i', 00H, 'z', 00H, 'i', 00H, 'n', 00H, 'g', 00H, ' '
	DB	00H, 'A', 00H, 'M', 00H, 'D', 00H, ' ', 00H, 'D', 00H, 'i', 00H
	DB	's', 00H, 'p', 00H, 'l', 00H, 'a', 00H, 'y', 00H, ' ', 00H, 'L'
	DB	00H, 'i', 00H, 'b', 00H, 'r', 00H, 'a', 00H, 'r', 00H, 'y', 00H
	DB	' ', 00H, '(', 00H, 'A', 00H, 'D', 00H, 'L', 00H, ')', 00H, '.'
	DB	00H, '.', 00H, '.', 00H, 00H, 00H
	ORG $+2
$SG428142 DB	'S', 00H, 'u', 00H, 'c', 00H, 'c', 00H, 'e', 00H, 's', 00H
	DB	's', 00H, 00H, 00H
$SG428143 DB	'F', 00H, 'a', 00H, 'i', 00H, 'l', 00H, 'e', 00H, 'd', 00H
	DB	' ', 00H, 00H, 00H
$SG428144 DB	'[', 00H, 'D', 00H, 'i', 00H, 's', 00H, 'p', 00H, 'l', 00H
	DB	'a', 00H, 'y', 00H, 'L', 00H, 'i', 00H, 'b', 00H, ']', 00H, ' '
	DB	00H, ' ', 00H, ' ', 00H, ' ', 00H, ' ', 00H, ' ', 00H, ' ', 00H
	DB	' ', 00H, ' ', 00H, ' ', 00H, ' ', 00H, ' ', 00H, ' ', 00H, ' '
	DB	00H, 'A', 00H, 'D', 00H, 'L', 00H, ' ', 00H, ' ', 00H, ' ', 00H
	DB	'I', 00H, 'n', 00H, 'i', 00H, 't', 00H, ' ', 00H, ' ', 00H, ' '
	DB	00H, ' ', 00H, ' ', 00H, ' ', 00H, ' ', 00H, ' ', 00H, ' ', 00H
	DB	'{', 00H, ' ', 00H, '%', 00H, 's', 00H, ' ', 00H, '}', 00H, 00H
	DB	00H
$SG428146 DB	'[', 00H, 'D', 00H, 'i', 00H, 's', 00H, 'p', 00H, 'l', 00H
	DB	'a', 00H, 'y', 00H, 'L', 00H, 'i', 00H, 'b', 00H, ']', 00H, ' '
	DB	00H, ' ', 00H, '*', 00H, ' ', 00H, 'N', 00H, 'u', 00H, 'm', 00H
	DB	'b', 00H, 'e', 00H, 'r', 00H, ' ', 00H, 'o', 00H, 'f', 00H, ' '
	DB	00H, 'R', 00H, 'e', 00H, 'p', 00H, 'o', 00H, 'r', 00H, 't', 00H
	DB	'e', 00H, 'd', 00H, ' ', 00H, 'A', 00H, 'M', 00H, 'D', 00H, ' '
	DB	00H, 'A', 00H, 'd', 00H, 'a', 00H, 'p', 00H, 't', 00H, 'e', 00H
	DB	'r', 00H, 's', 00H, ':', 00H, ' ', 00H, '%', 00H, 'i', 00H, ' '
	DB	00H, '(', 00H, '%', 00H, 'i', 00H, ' ', 00H, 'a', 00H, 'c', 00H
	DB	't', 00H, 'i', 00H, 'v', 00H, 'e', 00H, ')', 00H, 00H, 00H
$SG428152 DB	'D', 00H, 'o', 00H, 'n', 00H, '''', 00H, 't', 00H, ' ', 00H
	DB	'C', 00H, 'a', 00H, 'r', 00H, 'e', 00H, 00H, 00H
	ORG $+2
$SG428153 DB	'[', 00H, 'H', 00H, 'y', 00H, 'b', 00H, 'r', 00H, 'i', 00H
	DB	'd', 00H, ' ', 00H, 'G', 00H, 'P', 00H, 'U', 00H, ']', 00H, ' '
	DB	00H, ' ', 00H, 'N', 00H, 'v', 00H, 'O', 00H, 'p', 00H, 't', 00H
	DB	'i', 00H, 'm', 00H, 'u', 00H, 's', 00H, 'E', 00H, 'n', 00H, 'a'
	DB	00H, 'b', 00H, 'l', 00H, 'e', 00H, 'm', 00H, 'e', 00H, 'n', 00H
	DB	't', 00H, '.', 00H, '.', 00H, '.', 00H, '.', 00H, '.', 00H, '.'
	DB	00H, '.', 00H, '.', 00H, '.', 00H, '.', 00H, '.', 00H, '.', 00H
	DB	'.', 00H, '.', 00H, '.', 00H, '.', 00H, '.', 00H, '.', 00H, ':'
	DB	00H, ' ', 00H, '0', 00H, 'x', 00H, '%', 00H, '0', 00H, '2', 00H
	DB	'X', 00H, ' ', 00H, '(', 00H, '%', 00H, 's', 00H, ')', 00H, 00H
	DB	00H
	ORG $+2
$SG189596 DB	'S', 00H, 00H, 00H
$SG428154 DB	'[', 00H, 'H', 00H, 'y', 00H, 'b', 00H, 'r', 00H, 'i', 00H
	DB	'd', 00H, ' ', 00H, 'G', 00H, 'P', 00H, 'U', 00H, ']', 00H, ' '
	DB	00H, ' ', 00H, 'N', 00H, 'v', 00H, 'O', 00H, 'p', 00H, 't', 00H
	DB	'i', 00H, 'm', 00H, 'u', 00H, 's', 00H, 'E', 00H, 'n', 00H, 'a'
	DB	00H, 'b', 00H, 'l', 00H, 'e', 00H, 'm', 00H, 'e', 00H, 'n', 00H
	DB	't', 00H, '.', 00H, '.', 00H, '.', 00H, '.', 00H, '.', 00H, '.'
	DB	00H, '.', 00H, '.', 00H, '.', 00H, '.', 00H, '.', 00H, '.', 00H
	DB	'.', 00H, '.', 00H, '.', 00H, '.', 00H, '.', 00H, '.', 00H, ':'
	DB	00H, ' ', 00H, 'U', 00H, 'N', 00H, 'D', 00H, 'E', 00H, 'F', 00H
	DB	'I', 00H, 'N', 00H, 'E', 00H, 'D', 00H, 00H, 00H
	ORG $+2
$SG428155 DB	'AmdPowerXpressRequestHighPerformance', 00H
	ORG $+3
$SG428158 DB	'H', 00H, 'i', 00H, 'g', 00H, 'h', 00H, ' ', 00H, 'P', 00H
	DB	'e', 00H, 'r', 00H, 'f', 00H, '.', 00H, 00H, 00H
	ORG $+2
$SG428159 DB	'D', 00H, 'o', 00H, 'n', 00H, '''', 00H, 't', 00H, ' ', 00H
	DB	'C', 00H, 'a', 00H, 'r', 00H, 'e', 00H, 00H, 00H
	ORG $+2
$SG428160 DB	'[', 00H, 'H', 00H, 'y', 00H, 'b', 00H, 'r', 00H, 'i', 00H
	DB	'd', 00H, ' ', 00H, 'G', 00H, 'P', 00H, 'U', 00H, ']', 00H, ' '
	DB	00H, ' ', 00H, 'A', 00H, 'm', 00H, 'd', 00H, 'P', 00H, 'o', 00H
	DB	'w', 00H, 'e', 00H, 'r', 00H, 'X', 00H, 'p', 00H, 'r', 00H, 'e'
	DB	00H, 's', 00H, 's', 00H, 'R', 00H, 'e', 00H, 'q', 00H, 'u', 00H
	DB	'e', 00H, 's', 00H, 't', 00H, 'H', 00H, 'i', 00H, 'g', 00H, 'h'
	DB	00H, 'P', 00H, 'e', 00H, 'r', 00H, 'f', 00H, 'o', 00H, 'r', 00H
	DB	'm', 00H, 'a', 00H, 'n', 00H, 'c', 00H, 'e', 00H, '.', 00H, ':'
	DB	00H, ' ', 00H, '0', 00H, 'x', 00H, '%', 00H, '0', 00H, '2', 00H
	DB	'X', 00H, ' ', 00H, '(', 00H, '%', 00H, 's', 00H, ')', 00H, 00H
	DB	00H
	ORG $+2
$SG189598 DB	'M', 00H, 00H, 00H
$SG428161 DB	'[', 00H, 'H', 00H, 'y', 00H, 'b', 00H, 'r', 00H, 'i', 00H
	DB	'd', 00H, ' ', 00H, 'G', 00H, 'P', 00H, 'U', 00H, ']', 00H, ' '
	DB	00H, ' ', 00H, 'A', 00H, 'm', 00H, 'd', 00H, 'P', 00H, 'o', 00H
	DB	'w', 00H, 'e', 00H, 'r', 00H, 'X', 00H, 'p', 00H, 'r', 00H, 'e'
	DB	00H, 's', 00H, 's', 00H, 'R', 00H, 'e', 00H, 'q', 00H, 'u', 00H
	DB	'e', 00H, 's', 00H, 't', 00H, 'H', 00H, 'i', 00H, 'g', 00H, 'h'
	DB	00H, 'P', 00H, 'e', 00H, 'r', 00H, 'f', 00H, 'o', 00H, 'r', 00H
	DB	'm', 00H, 'a', 00H, 'n', 00H, 'c', 00H, 'e', 00H, '.', 00H, ':'
	DB	00H, ' ', 00H, 'U', 00H, 'N', 00H, 'D', 00H, 'E', 00H, 'F', 00H
	DB	'I', 00H, 'N', 00H, 'E', 00H, 'D', 00H, 00H, 00H
	ORG $+2
$SG178317 DB	'a', 00H, 't', 00H, 'l', 00H, 'T', 00H, 'r', 00H, 'a', 00H
	DB	'c', 00H, 'e', 00H, 'D', 00H, 'B', 00H, 'P', 00H, 'r', 00H, 'o'
	DB	00H, 'v', 00H, 'i', 00H, 'd', 00H, 'e', 00H, 'r', 00H, 00H, 00H
	ORG $+2
$SG189600 DB	'D', 00H, 00H, 00H
$SG189602 DB	'B', 00H, 00H, 00H
$SG428194 DB	'[', 00H, ' ', 00H, 'M', 00H, 'u', 00H, 'l', 00H, 't', 00H
	DB	'i', 00H, 'T', 00H, 'h', 00H, 'r', 00H, ' ', 00H, ']', 00H, ' '
	DB	00H, 'I', 00H, 'n', 00H, 'j', 00H, 'e', 00H, 'c', 00H, 't', 00H
	DB	'i', 00H, 'o', 00H, 'n', 00H, ' ', 00H, 'B', 00H, 'y', 00H, 'p'
	DB	00H, 'a', 00H, 's', 00H, 's', 00H, ' ', 00H, 'D', 00H, 'i', 00H
	DB	'a', 00H, 'l', 00H, 'o', 00H, 'g', 00H, ' ', 00H, 'A', 00H, 'c'
	DB	00H, 't', 00H, 'i', 00H, 'v', 00H, 'e', 00H, ' ', 00H, '(', 00H
	DB	't', 00H, 'i', 00H, 'd', 00H, '=', 00H, '%', 00H, 'x', 00H, ')'
	DB	00H, 00H, 00H
	ORG $+2
$SG189604 DB	'V', 00H, 'a', 00H, 'l', 00H, 00H, 00H
$SG189606 DB	'F', 00H, 'o', 00H, 'r', 00H, 'c', 00H, 'e', 00H, 'R', 00H
	DB	'e', 00H, 'm', 00H, 'o', 00H, 'v', 00H, 'e', 00H, 00H, 00H
$SG189608 DB	'N', 00H, 'o', 00H, 'R', 00H, 'e', 00H, 'm', 00H, 'o', 00H
	DB	'v', 00H, 'e', 00H, 00H, 00H
	ORG $+2
$SG189610 DB	'D', 00H, 'e', 00H, 'l', 00H, 'e', 00H, 't', 00H, 'e', 00H
	DB	00H, 00H
	ORG $+2
$SG431288 DB	'D', 00H, '3', 00H, 'D', 00H, '9', 00H, 'E', 00H, 'x', 00H
	DB	00H, 00H
	ORG $+2
$SG431291 DB	'D', 00H, '3', 00H, 'D', 00H, '9', 00H, ' ', 00H, ' ', 00H
	DB	00H, 00H
	ORG $+2
$SG178364 DB	'a', 00H, 't', 00H, 'l', 00H, 'T', 00H, 'r', 00H, 'a', 00H
	DB	'c', 00H, 'e', 00H, 'S', 00H, 'n', 00H, 'a', 00H, 'p', 00H, 'i'
	DB	00H, 'n', 00H, 00H, 00H
	ORG $+2
$SG431299 DB	'D', 00H, '3', 00H, 'D', 00H, '1', 00H, '1', 00H, '.', 00H
	DB	'4', 00H, 00H, 00H
$SG431302 DB	'D', 00H, '3', 00H, 'D', 00H, '1', 00H, '1', 00H, '.', 00H
	DB	'4', 00H, 00H, 00H
$SG431305 DB	'D', 00H, '3', 00H, 'D', 00H, '1', 00H, '1', 00H, '.', 00H
	DB	'3', 00H, 00H, 00H
$SG431308 DB	'D', 00H, '3', 00H, 'D', 00H, '1', 00H, '1', 00H, '.', 00H
	DB	'2', 00H, 00H, 00H
$SG431311 DB	'D', 00H, '3', 00H, 'D', 00H, '1', 00H, '1', 00H, '.', 00H
	DB	'1', 00H, 00H, 00H
$SG431312 DB	'D', 00H, '3', 00H, 'D', 00H, '1', 00H, '1', 00H, ' ', 00H
	DB	00H, 00H
	ORG $+2
$SG431315 DB	'D', 00H, '3', 00H, 'D', 00H, '8', 00H, 00H, 00H
	ORG $+2
$SG431317 DB	'D', 00H, 'D', 00H, 'r', 00H, 'a', 00H, 'w', 00H, 00H, 00H
$SG431322 DB	'U', 00H, 'N', 00H, 'K', 00H, 'N', 00H, 'O', 00H, 'W', 00H
	DB	'N', 00H, 00H, 00H
$SG431324 DB	'O', 00H, 'p', 00H, 'e', 00H, 'n', 00H, 'G', 00H, 'L', 00H
	DB	00H, 00H
	ORG $+2
$SG431328 DB	't', 00H, 'z', 00H, 'f', 00H, 'i', 00H, 'x', 00H, '.', 00H
	DB	'd', 00H, 'l', 00H, 'l', 00H, 00H, 00H
$SG431329 DB	't', 00H, 'b', 00H, 'f', 00H, 'i', 00H, 'x', 00H, '.', 00H
	DB	'd', 00H, 'l', 00H, 'l', 00H, 00H, 00H
$SG178411 DB	'a', 00H, 't', 00H, 'l', 00H, 'T', 00H, 'r', 00H, 'a', 00H
	DB	'c', 00H, 'e', 00H, 'N', 00H, 'o', 00H, 't', 00H, 'I', 00H, 'm'
	DB	00H, 'p', 00H, 'l', 00H, 00H, 00H
$SG430324 DB	'S', 00H, 'p', 00H, 'e', 00H, 'c', 00H, 'i', 00H, 'a', 00H
	DB	'l', 00H, ' ', 00H, 'K', 00H, ' ', 00H, 'D', 00H, 'u', 00H, 'm'
	DB	00H, 'm', 00H, 'y', 00H, ' ', 00H, 'W', 00H, 'i', 00H, 'n', 00H
	DB	'd', 00H, 'o', 00H, 'w', 00H, ' ', 00H, 'C', 00H, 'l', 00H, 'a'
	DB	00H, 's', 00H, 's', 00H, 00H, 00H
	ORG $+2
$SG431352 DB	'runas', 00H
	ORG $+2
$SG430328 DB	'S', 00H, 'p', 00H, 'e', 00H, 'c', 00H, 'i', 00H, 'a', 00H
	DB	'l', 00H, ' ', 00H, 'K', 00H, ' ', 00H, 'D', 00H, 'u', 00H, 'm'
	DB	00H, 'm', 00H, 'y', 00H, ' ', 00H, 'W', 00H, 'i', 00H, 'n', 00H
	DB	'd', 00H, 'o', 00H, 'w', 00H, ' ', 00H, 'C', 00H, 'l', 00H, 'a'
	DB	00H, 's', 00H, 's', 00H, 00H, 00H
	ORG $+2
$SG430329 DB	'S', 00H, 'p', 00H, 'e', 00H, 'c', 00H, 'i', 00H, 'a', 00H
	DB	'l', 00H, ' ', 00H, 'K', 00H, ' ', 00H, 'D', 00H, 'u', 00H, 'm'
	DB	00H, 'm', 00H, 'y', 00H, ' ', 00H, 'W', 00H, 'i', 00H, 'n', 00H
	DB	'd', 00H, 'o', 00H, 'w', 00H, 00H, 00H
	ORG $+2
$SG430330 DB	'S', 00H, 'p', 00H, 'e', 00H, 'c', 00H, 'i', 00H, 'a', 00H
	DB	'l', 00H, ' ', 00H, 'K', 00H, ' ', 00H, 'D', 00H, 'u', 00H, 'm'
	DB	00H, 'm', 00H, 'y', 00H, ' ', 00H, 'W', 00H, 'i', 00H, 'n', 00H
	DB	'd', 00H, 'o', 00H, 'w', 00H, ' ', 00H, 'C', 00H, 'l', 00H, 'a'
	DB	00H, 's', 00H, 's', 00H, 00H, 00H
	ORG $+2
$SG428296 DB	'R', 00H, 'u', 00H, 'n', 00H, 'd', 00H, 'l', 00H, 'l', 00H
	DB	'3', 00H, '2', 00H, 00H, 00H
	ORG $+2
$SG430332 DB	'W', 00H, 'i', 00H, 'n', 00H, 'd', 00H, 'o', 00H, 'w', 00H
	DB	' ', 00H, 'C', 00H, 'l', 00H, 'a', 00H, 's', 00H, 's', 00H, ' '
	DB	00H, 'R', 00H, 'e', 00H, 'g', 00H, 'i', 00H, 's', 00H, 't', 00H
	DB	'r', 00H, 'a', 00H, 't', 00H, 'i', 00H, 'o', 00H, 'n', 00H, ' '
	DB	00H, 'F', 00H, 'a', 00H, 'i', 00H, 'l', 00H, 'e', 00H, 'd', 00H
	DB	'!', 00H, 00H, 00H
$SG431359 DB	'open', 00H
	ORG $+3
$SG428299 DB	'S', 00H, 'K', 00H, 'I', 00H, '*', 00H, '.', 00H, 't', 00H
	DB	'm', 00H, 'p', 00H, 00H, 00H
	ORG $+2
$SG428300 DB	'*', 00H, '.', 00H, 'o', 00H, 'l', 00H, 'd', 00H, 00H, 00H
$SG428301 DB	'V', 00H, 'e', 00H, 'r', 00H, 's', 00H, 'i', 00H, 'o', 00H
	DB	'n', 00H, 00H, 00H
$SG428304 DB	'VRAM.Purge', 00H
	ORG $+1
$SG428302 DB	'[', 00H, ' ', 00H, 'S', 00H, 'p', 00H, 'e', 00H, 'c', 00H
	DB	'i', 00H, 'a', 00H, 'l', 00H, 'K', 00H, ' ', 00H, ']', 00H, ' '
	DB	00H, '=', 00H, '=', 00H, '=', 00H, ' ', 00H, 'I', 00H, 'n', 00H
	DB	'i', 00H, 't', 00H, 'i', 00H, 'a', 00H, 'l', 00H, 'i', 00H, 'z'
	DB	00H, 'a', 00H, 't', 00H, 'i', 00H, 'o', 00H, 'n', 00H, ' ', 00H
	DB	'F', 00H, 'i', 00H, 'n', 00H, 'i', 00H, 's', 00H, 'h', 00H, 'e'
	DB	00H, 'd', 00H, '!', 00H, ' ', 00H, '=', 00H, '=', 00H, '=', 00H
	DB	00H, 00H
$SG428306 DB	'GPU.StatPollFreq', 00H
	ORG $+3
$SG428308 DB	'ImGui.FontScale', 00H
$SG428309 DB	'mem', 00H
$SG428310 DB	'GetUpdate', 00H
	ORG $+2
$SG428312 DB	'T', 00H, 'a', 00H, 'l', 00H, 'e', 00H, 's', 00H, ' ', 00H
	DB	'o', 00H, 'f', 00H, ' ', 00H, 'Z', 00H, 'e', 00H, 's', 00H, 't'
	DB	00H, 'i', 00H, 'r', 00H, 'i', 00H, 'a', 00H, '.', 00H, 'e', 00H
	DB	'x', 00H, 'e', 00H, 00H, 00H
$SG428313 DB	'TargetFPS %f', 00H
	ORG $+3
$SG178458 DB	'a', 00H, 't', 00H, 'l', 00H, 'T', 00H, 'r', 00H, 'a', 00H
	DB	'c', 00H, 'e', 00H, 'A', 00H, 'l', 00H, 'l', 00H, 'o', 00H, 'c'
	DB	00H, 'a', 00H, 't', 00H, 'i', 00H, 'o', 00H, 'n', 00H, 00H, 00H
	ORG $+2
$SG428316 DB	'S', 00H, 'p', 00H, 'e', 00H, 'c', 00H, 'i', 00H, 'a', 00H
	DB	'l', 00H, 'K', 00H, 00H, 00H
	ORG $+2
$SG428319 DB	'O', 00H, 'S', 00H, 'D', 00H, ' ', 00H, 'P', 00H, 'u', 00H
	DB	'm', 00H, 'p', 00H, ' ', 00H, 'S', 00H, 'h', 00H, 'u', 00H, 't'
	DB	00H, 'd', 00H, 'o', 00H, 'w', 00H, 'n', 00H, 00H, 00H
$SG428324 DB	'f', 00H, 'a', 00H, 'i', 00H, 'l', 00H, 'e', 00H, 'd', 00H
	DB	'!', 00H, 0aH, 00H, 00H, 00H
	ORG $+2
$SG428320 DB	'[', 00H, ' ', 00H, 'S', 00H, 't', 00H, 'a', 00H, 't', 00H
	DB	' ', 00H, 'O', 00H, 'S', 00H, 'D', 00H, ' ', 00H, ']', 00H, ' '
	DB	00H, 'S', 00H, 'p', 00H, 'a', 00H, 'w', 00H, 'n', 00H, 'i', 00H
	DB	'n', 00H, 'g', 00H, ' ', 00H, 'P', 00H, 'u', 00H, 'm', 00H, 'p'
	DB	00H, ' ', 00H, 'T', 00H, 'h', 00H, 'r', 00H, 'e', 00H, 'a', 00H
	DB	'd', 00H, '.', 00H, '.', 00H, '.', 00H, ' ', 00H, ' ', 00H, ' '
	DB	00H, ' ', 00H, ' ', 00H, ' ', 00H, 00H, 00H
	ORG $+2
$SG428323 DB	't', 00H, 'i', 00H, 'd', 00H, '=', 00H, '0', 00H, 'x', 00H
	DB	'%', 00H, '0', 00H, '4', 00H, 'x', 00H, ',', 00H, ' ', 00H, 'i'
	DB	00H, 'n', 00H, 't', 00H, 'e', 00H, 'r', 00H, 'v', 00H, 'a', 00H
	DB	'l', 00H, '=', 00H, '%', 00H, '0', 00H, '4', 00H, '.', 00H, '0'
	DB	00H, '1', 00H, 'f', 00H, ' ', 00H, 'm', 00H, 's', 00H, 0aH, 00H
	DB	00H, 00H
	ORG $+2
$SG430378 DB	'S', 00H, 'p', 00H, 'e', 00H, 'c', 00H, 'i', 00H, 'a', 00H
	DB	'l', 00H, ' ', 00H, 'K', 00H, ' ', 00H, 'D', 00H, 'u', 00H, 'm'
	DB	00H, 'm', 00H, 'y', 00H, ' ', 00H, 'W', 00H, 'i', 00H, 'n', 00H
	DB	'd', 00H, 'o', 00H, 'w', 00H, ' ', 00H, 'C', 00H, 'l', 00H, 'a'
	DB	00H, 's', 00H, 's', 00H, 00H, 00H
	ORG $+2
$SG428336 DB	'V', 00H, 'e', 00H, 'r', 00H, 's', 00H, 'i', 00H, 'o', 00H
	DB	'n', 00H, '\', 00H, 'i', 00H, 'n', 00H, 's', 00H, 't', 00H, 'a'
	DB	00H, 'l', 00H, 'l', 00H, 'e', 00H, 'd', 00H, '.', 00H, 'i', 00H
	DB	'n', 00H, 'i', 00H, 00H, 00H
$SG428338 DB	'S', 00H, 'p', 00H, 'e', 00H, 'c', 00H, 'i', 00H, 'a', 00H
	DB	'l', 00H, 'K', 00H, 00H, 00H
	ORG $+2
$SG428340 DB	'S', 00H, 'p', 00H, 'e', 00H, 'c', 00H, 'i', 00H, 'a', 00H
	DB	'l', 00H, 'K', 00H, 00H, 00H
	ORG $+2
$SG178505 DB	'a', 00H, 't', 00H, 'l', 00H, 'T', 00H, 'r', 00H, 'a', 00H
	DB	'c', 00H, 'e', 00H, 'E', 00H, 'x', 00H, 'c', 00H, 'e', 00H, 'p'
	DB	00H, 't', 00H, 'i', 00H, 'o', 00H, 'n', 00H, 00H, 00H
$SG428376 DB	'\', 00H, 'M', 00H, 'y', 00H, ' ', 00H, 'M', 00H, 'o', 00H
	DB	'd', 00H, 's', 00H, '\', 00H, 'S', 00H, 'p', 00H, 'e', 00H, 'c'
	DB	00H, 'i', 00H, 'a', 00H, 'l', 00H, 'K', 00H, '\', 00H, 00H, 00H
	ORG $+2
$SG428377 DB	'S', 00H, 'p', 00H, 'e', 00H, 'c', 00H, 'i', 00H, 'a', 00H
	DB	'l', 00H, 'K', 00H, '3', 00H, '2', 00H, '.', 00H, 'd', 00H, 'l'
	DB	00H, 'l', 00H, 00H, 00H
	ORG $+2
$SG178552 DB	'a', 00H, 't', 00H, 'l', 00H, 'T', 00H, 'r', 00H, 'a', 00H
	DB	'c', 00H, 'e', 00H, 'T', 00H, 'i', 00H, 'm', 00H, 'e', 00H, 00H
	DB	00H
	ORG $+2
$SG428417 DB	'\', 00H, 'M', 00H, 'y', 00H, ' ', 00H, 'M', 00H, 'o', 00H
	DB	'd', 00H, 's', 00H, '\', 00H, 'S', 00H, 'p', 00H, 'e', 00H, 'c'
	DB	00H, 'i', 00H, 'a', 00H, 'l', 00H, 'K', 00H, 00H, 00H
$SG428418 DB	'\', 00H, 'P', 00H, 'r', 00H, 'o', 00H, 'f', 00H, 'i', 00H
	DB	'l', 00H, 'e', 00H, 's', 00H, '\', 00H, 00H, 00H
	ORG $+2
$SG428421 DB	'\', 00H, 00H, 00H
$SG428422 DB	'\', 00H, 00H, 00H
$SG178599 DB	'a', 00H, 't', 00H, 'l', 00H, 'T', 00H, 'r', 00H, 'a', 00H
	DB	'c', 00H, 'e', 00H, 'C', 00H, 'a', 00H, 'c', 00H, 'h', 00H, 'e'
	DB	00H, 00H, 00H
?IID_ID3D11Device2@@3U_GUID@@B DD 09d06dffaH		; IID_ID3D11Device2
	DW	0d1e5H
	DW	04d07H
	DB	083H
	DB	0a8H
	DB	01bH
	DB	0b1H
	DB	023H
	DB	0f2H
	DB	0f8H
	DB	041H
?IID_ID3D11Device3@@3U_GUID@@B DD 0a05c8c37H		; IID_ID3D11Device3
	DW	0d2c6H
	DW	04732H
	DB	0b3H
	DB	0a0H
	DB	09cH
	DB	0e0H
	DB	0b0H
	DB	0dcH
	DB	09aH
	DB	0e6H
?IID_ID3D11Device4@@3U_GUID@@B DD 08992ab71H		; IID_ID3D11Device4
	DW	02e6H
	DW	04b8dH
	DB	0baH
	DB	048H
	DB	0b0H
	DB	056H
	DB	0dcH
	DB	0daH
	DB	042H
	DB	0c4H
?IID_ID3D11Device5@@3U_GUID@@B DD 08ffde202H		; IID_ID3D11Device5
	DW	0a0e7H
	DW	045dfH
	DB	09eH
	DB	01H
	DB	0e8H
	DB	037H
	DB	080H
	DB	01bH
	DB	05eH
	DB	0a0H
$SG178646 DB	'a', 00H, 't', 00H, 'l', 00H, 'T', 00H, 'r', 00H, 'a', 00H
	DB	'c', 00H, 'e', 00H, 'S', 00H, 't', 00H, 'e', 00H, 'n', 00H, 'c'
	DB	00H, 'i', 00H, 'l', 00H, 00H, 00H
$SG427485 DB	'I', 00H, 'N', 00H, 'V', 00H, 'A', 00H, 'L', 00H, 'I', 00H
	DB	'D', 00H, 00H, 00H
$SG178693 DB	'a', 00H, 't', 00H, 'l', 00H, 'T', 00H, 'r', 00H, 'a', 00H
	DB	'c', 00H, 'e', 00H, 'S', 00H, 't', 00H, 'r', 00H, 'i', 00H, 'n'
	DB	00H, 'g', 00H, 00H, 00H
	ORG $+2
$SG178740 DB	'a', 00H, 't', 00H, 'l', 00H, 'T', 00H, 'r', 00H, 'a', 00H
	DB	'c', 00H, 'e', 00H, 'M', 00H, 'a', 00H, 'p', 00H, 00H, 00H
$SG178745 DB	'a', 00H, 't', 00H, 'l', 00H, 'T', 00H, 'r', 00H, 'a', 00H
	DB	'c', 00H, 'e', 00H, 'U', 00H, 't', 00H, 'i', 00H, 'l', 00H, 00H
	DB	00H
	ORG $+2
$SG430685 DB	'[', 00H, ' ', 00H, 'S', 00H, 'p', 00H, 'e', 00H, 'c', 00H
	DB	'i', 00H, 'a', 00H, 'l', 00H, 'K', 00H, ' ', 00H, ']', 00H, ' '
	DB	00H, '*', 00H, '*', 00H, '*', 00H, ' ', 00H, 'I', 00H, 'n', 00H
	DB	'i', 00H, 't', 00H, 'i', 00H, 'a', 00H, 't', 00H, 'i', 00H, 'n'
	DB	00H, 'g', 00H, ' ', 00H, 'D', 00H, 'L', 00H, 'L', 00H, ' ', 00H
	DB	'S', 00H, 'h', 00H, 'u', 00H, 't', 00H, 'd', 00H, 'o', 00H, 'w'
	DB	00H, 'n', 00H, ' ', 00H, '*', 00H, '*', 00H, '*', 00H, 00H, 00H
	ORG $+2
$SG430689 DB	'D', 00H, 'a', 00H, 'r', 00H, 'k', 00H, 'S', 00H, 'o', 00H
	DB	'u', 00H, 'l', 00H, 's', 00H, 'I', 00H, 'I', 00H, 'I', 00H, '.'
	DB	00H, 'e', 00H, 'x', 00H, 'e', 00H, 00H, 00H
	ORG $+2
$SG430690 DB	'F', 00H, 'a', 00H, 'l', 00H, 'l', 00H, 'o', 00H, 'u', 00H
	DB	't', 00H, '4', 00H, '.', 00H, 'e', 00H, 'x', 00H, 'e', 00H, 00H
	DB	00H
	ORG $+2
$SG430691 DB	'F', 00H, 'F', 00H, 'X', 00H, '.', 00H, 'e', 00H, 'x', 00H
	DB	'e', 00H, 00H, 00H
$SG430692 DB	'F', 00H, 'F', 00H, 'X', 00H, '-', 00H, '2', 00H, '.', 00H
	DB	'e', 00H, 'x', 00H, 'e', 00H, 00H, 00H
$SG430693 DB	'd', 00H, 'i', 00H, 's', 00H, '1', 00H, '_', 00H, 's', 00H
	DB	't', 00H, '.', 00H, 'e', 00H, 'x', 00H, 'e', 00H, 00H, 00H
$SG430694 DB	'[', 00H, ' ', 00H, 'G', 00H, 'P', 00H, 'U', 00H, ' ', 00H
	DB	'S', 00H, 't', 00H, 'a', 00H, 't', 00H, ' ', 00H, ']', 00H, ' '
	DB	00H, 'S', 00H, 'h', 00H, 'u', 00H, 't', 00H, 't', 00H, 'i', 00H
	DB	'n', 00H, 'g', 00H, ' ', 00H, 'd', 00H, 'o', 00H, 'w', 00H, 'n'
	DB	00H, ' ', 00H, 'P', 00H, 'r', 00H, 'o', 00H, 'g', 00H, 'n', 00H
	DB	'o', 00H, 's', 00H, 't', 00H, 'i', 00H, 'c', 00H, 's', 00H, ' '
	DB	00H, 'T', 00H, 'h', 00H, 'r', 00H, 'e', 00H, 'a', 00H, 'd', 00H
	DB	'.', 00H, '.', 00H, '.', 00H, ' ', 00H, ' ', 00H, ' ', 00H, ' '
	DB	00H, ' ', 00H, ' ', 00H, ' ', 00H, ' ', 00H, ' ', 00H, ' ', 00H
	DB	00H, 00H
	ORG $+2
$SG428646 DB	's', 00H, 't', 00H, 'e', 00H, 'a', 00H, 'm', 00H, '_', 00H
	DB	'a', 00H, 'p', 00H, 'i', 00H, '.', 00H, 'd', 00H, 'l', 00H, 'l'
	DB	00H, 00H, 00H
$SG430695 DB	'd', 00H, 'o', 00H, 'n', 00H, 'e', 00H, '!', 00H, ' ', 00H
	DB	'(', 00H, '%', 00H, '4', 00H, 'u', 00H, ' ', 00H, 'm', 00H, 's'
	DB	00H, ')', 00H, 0aH, 00H, 00H, 00H
$SG178792 DB	'a', 00H, 't', 00H, 'l', 00H, 'T', 00H, 'r', 00H, 'a', 00H
	DB	'c', 00H, 'e', 00H, 'S', 00H, 'e', 00H, 'c', 00H, 'u', 00H, 'r'
	DB	00H, 'i', 00H, 't', 00H, 'y', 00H, 00H, 00H
	ORG $+2
$SG430697 DB	'[', 00H, ' ', 00H, 'S', 00H, 't', 00H, 'a', 00H, 't', 00H
	DB	' ', 00H, 'O', 00H, 'S', 00H, 'D', 00H, ' ', 00H, ']', 00H, ' '
	DB	00H, 'S', 00H, 'h', 00H, 'u', 00H, 't', 00H, 't', 00H, 'i', 00H
	DB	'n', 00H, 'g', 00H, ' ', 00H, 'd', 00H, 'o', 00H, 'w', 00H, 'n'
	DB	00H, ' ', 00H, 'P', 00H, 'u', 00H, 'm', 00H, 'p', 00H, ' ', 00H
	DB	'T', 00H, 'h', 00H, 'r', 00H, 'e', 00H, 'a', 00H, 'd', 00H, '.'
	DB	00H, '.', 00H, '.', 00H, ' ', 00H, 00H, 00H
	ORG $+2
$SG430698 DB	'd', 00H, 'o', 00H, 'n', 00H, 'e', 00H, '!', 00H, 0aH, 00H
	DB	00H, 00H
	ORG $+2
$SG430699 DB	'P', 00H, 'r', 00H, 'o', 00H, 'c', 00H, 'e', 00H, 's', 00H
	DB	's', 00H, ' ', 00H, 'M', 00H, 'o', 00H, 'n', 00H, 'i', 00H, 't'
	DB	00H, 'o', 00H, 'r', 00H, 00H, 00H
$SG430700 DB	'C', 00H, 'P', 00H, 'U', 00H, ' ', 00H, 'M', 00H, 'o', 00H
	DB	'n', 00H, 'i', 00H, 't', 00H, 'o', 00H, 'r', 00H, 00H, 00H
$SG430701 DB	'D', 00H, 'i', 00H, 's', 00H, 'k', 00H, ' ', 00H, 'M', 00H
	DB	'o', 00H, 'n', 00H, 'i', 00H, 't', 00H, 'o', 00H, 'r', 00H, 00H
	DB	00H
	ORG $+2
$SG430702 DB	'P', 00H, 'a', 00H, 'g', 00H, 'e', 00H, 'f', 00H, 'i', 00H
	DB	'l', 00H, 'e', 00H, ' ', 00H, 'M', 00H, 'o', 00H, 'n', 00H, 'i'
	DB	00H, 't', 00H, 'o', 00H, 'r', 00H, 00H, 00H
	ORG $+2
$SG430704 DB	'S', 00H, 'p', 00H, 'e', 00H, 'c', 00H, 'i', 00H, 'a', 00H
	DB	'l', 00H, 'K', 00H, 00H, 00H
	ORG $+2
$SG430706 DB	'd', 00H, 's', 00H, '3', 00H, 't', 00H, '.', 00H, 'e', 00H
	DB	'x', 00H, 'e', 00H, 00H, 00H
	ORG $+2
$SG430707 DB	'[', 00H, ' ', 00H, 'S', 00H, 'p', 00H, 'e', 00H, 'c', 00H
	DB	'i', 00H, 'a', 00H, 'l', 00H, 'K', 00H, ' ', 00H, ']', 00H, ' '
	DB	00H, 'S', 00H, 'a', 00H, 'v', 00H, 'i', 00H, 'n', 00H, 'g', 00H
	DB	' ', 00H, 'u', 00H, 's', 00H, 'e', 00H, 'r', 00H, ' ', 00H, 'p'
	DB	00H, 'r', 00H, 'e', 00H, 'f', 00H, 'e', 00H, 'r', 00H, 'e', 00H
	DB	'n', 00H, 'c', 00H, 'e', 00H, 's', 00H, ' ', 00H, 't', 00H, 'o'
	DB	00H, ' ', 00H, '%', 00H, '1', 00H, '0', 00H, 's', 00H, '.', 00H
	DB	'i', 00H, 'n', 00H, 'i', 00H, '.', 00H, '.', 00H, '.', 00H, ' '
	DB	00H, 00H, 00H
	ORG $+2
$SG430708 DB	'd', 00H, 'o', 00H, 'n', 00H, 'e', 00H, '!', 00H, ' ', 00H
	DB	'(', 00H, '%', 00H, '4', 00H, 'u', 00H, ' ', 00H, 'm', 00H, 's'
	DB	00H, ')', 00H, 0aH, 00H, 00H, 00H
$SG178839 DB	'a', 00H, 't', 00H, 'l', 00H, 'T', 00H, 'r', 00H, 'a', 00H
	DB	'c', 00H, 'e', 00H, 'S', 00H, 'y', 00H, 'n', 00H, 'c', 00H, 00H
	DB	00H
	ORG $+2
$SG430709 DB	'[', 00H, ' ', 00H, 'S', 00H, 'p', 00H, 'e', 00H, 'c', 00H
	DB	'i', 00H, 'a', 00H, 'l', 00H, 'K', 00H, ' ', 00H, ']', 00H, ' '
	DB	00H, 'S', 00H, 'h', 00H, 'u', 00H, 't', 00H, 't', 00H, 'i', 00H
	DB	'n', 00H, 'g', 00H, ' ', 00H, 'd', 00H, 'o', 00H, 'w', 00H, 'n'
	DB	00H, ' ', 00H, 'M', 00H, 'i', 00H, 'n', 00H, 'H', 00H, 'o', 00H
	DB	'o', 00H, 'k', 00H, '.', 00H, '.', 00H, '.', 00H, ' ', 00H, ' '
	DB	00H, ' ', 00H, ' ', 00H, ' ', 00H, ' ', 00H, ' ', 00H, ' ', 00H
	DB	' ', 00H, ' ', 00H, ' ', 00H, ' ', 00H, ' ', 00H, ' ', 00H, ' '
	DB	00H, ' ', 00H, ' ', 00H, ' ', 00H, ' ', 00H, ' ', 00H, ' ', 00H
	DB	00H, 00H
	ORG $+2
$SG430710 DB	'd', 00H, 'o', 00H, 'n', 00H, 'e', 00H, '!', 00H, ' ', 00H
	DB	'(', 00H, '%', 00H, '4', 00H, 'u', 00H, ' ', 00H, 'm', 00H, 's'
	DB	00H, ')', 00H, 0aH, 00H, 00H, 00H
$SG430711 DB	'[', 00H, ' ', 00H, 'W', 00H, 'M', 00H, 'I', 00H, ' ', 00H
	DB	'P', 00H, 'e', 00H, 'r', 00H, 'f', 00H, ' ', 00H, ']', 00H, ' '
	DB	00H, 'S', 00H, 'h', 00H, 'u', 00H, 't', 00H, 't', 00H, 'i', 00H
	DB	'n', 00H, 'g', 00H, ' ', 00H, 'd', 00H, 'o', 00H, 'w', 00H, 'n'
	DB	00H, ' ', 00H, 'W', 00H, 'M', 00H, 'I', 00H, ' ', 00H, 'W', 00H
	DB	'b', 00H, 'e', 00H, 'm', 00H, 'L', 00H, 'o', 00H, 'c', 00H, 'a'
	DB	00H, 't', 00H, 'o', 00H, 'r', 00H, '.', 00H, '.', 00H, '.', 00H
	DB	' ', 00H, ' ', 00H, ' ', 00H, ' ', 00H, ' ', 00H, ' ', 00H, ' '
	DB	00H, ' ', 00H, ' ', 00H, ' ', 00H, ' ', 00H, ' ', 00H, ' ', 00H
	DB	00H, 00H
	ORG $+2
$SG430712 DB	'd', 00H, 'o', 00H, 'n', 00H, 'e', 00H, '!', 00H, ' ', 00H
	DB	'(', 00H, '%', 00H, '4', 00H, 'u', 00H, ' ', 00H, 'm', 00H, 's'
	DB	00H, ')', 00H, 0aH, 00H, 00H, 00H
$SG430714 DB	'[', 00H, ' ', 00H, 'S', 00H, 'p', 00H, 'e', 00H, 'c', 00H
	DB	'i', 00H, 'a', 00H, 'l', 00H, 'K', 00H, ' ', 00H, ']', 00H, ' '
	DB	00H, 'C', 00H, 'u', 00H, 's', 00H, 't', 00H, 'o', 00H, 'm', 00H
	DB	' ', 00H, '%', 00H, 's', 00H, '.', 00H, 'd', 00H, 'l', 00H, 'l'
	DB	00H, ' ', 00H, 'D', 00H, 'e', 00H, 't', 00H, 'a', 00H, 'c', 00H
	DB	'h', 00H, 'e', 00H, 'd', 00H, ' ', 00H, '(', 00H, 'p', 00H, 'i'
	DB	00H, 'd', 00H, '=', 00H, '0', 00H, 'x', 00H, '%', 00H, '0', 00H
	DB	'4', 00H, 'x', 00H, ')', 00H, 00H, 00H
	ORG $+2
$SG427688 DB	'S', 00H, '_', 00H, 'O', 00H, 'K', 00H, 00H, 00H
	ORG $+2
$SG427690 DB	'S', 00H, '_', 00H, 'F', 00H, 'A', 00H, 'L', 00H, 'S', 00H
	DB	'E', 00H, 00H, 00H
$SG427692 DB	'D', 00H, 'X', 00H, 'G', 00H, 'I', 00H, '_', 00H, 'E', 00H
	DB	'R', 00H, 'R', 00H, 'O', 00H, 'R', 00H, '_', 00H, 'D', 00H, 'E'
	DB	00H, 'V', 00H, 'I', 00H, 'C', 00H, 'E', 00H, '_', 00H, 'H', 00H
	DB	'U', 00H, 'N', 00H, 'G', 00H, 00H, 00H
	ORG $+2
$SG427694 DB	'D', 00H, 'X', 00H, 'G', 00H, 'I', 00H, '_', 00H, 'E', 00H
	DB	'R', 00H, 'R', 00H, 'O', 00H, 'R', 00H, '_', 00H, 'D', 00H, 'E'
	DB	00H, 'V', 00H, 'I', 00H, 'C', 00H, 'E', 00H, '_', 00H, 'R', 00H
	DB	'E', 00H, 'M', 00H, 'O', 00H, 'V', 00H, 'E', 00H, 'D', 00H, 00H
	DB	00H
$SG427696 DB	'D', 00H, 'X', 00H, 'G', 00H, 'I', 00H, '_', 00H, 'E', 00H
	DB	'R', 00H, 'R', 00H, 'O', 00H, 'R', 00H, '_', 00H, 'D', 00H, 'E'
	DB	00H, 'V', 00H, 'I', 00H, 'C', 00H, 'E', 00H, '_', 00H, 'R', 00H
	DB	'E', 00H, 'S', 00H, 'E', 00H, 'T', 00H, 00H, 00H
$SG428721 DB	'\', 00H, 'S', 00H, 'p', 00H, 'e', 00H, 'c', 00H, 'i', 00H
	DB	'a', 00H, 'l', 00H, 'K', 00H, '.', 00H, 'c', 00H, 'e', 00H, 'n'
	DB	00H, 't', 00H, 'r', 00H, 'a', 00H, 'l', 00H, 00H, 00H
$SG427698 DB	'D', 00H, 'X', 00H, 'G', 00H, 'I', 00H, '_', 00H, 'E', 00H
	DB	'R', 00H, 'R', 00H, 'O', 00H, 'R', 00H, '_', 00H, 'D', 00H, 'R'
	DB	00H, 'I', 00H, 'V', 00H, 'E', 00H, 'R', 00H, '_', 00H, 'I', 00H
	DB	'N', 00H, 'T', 00H, 'E', 00H, 'R', 00H, 'N', 00H, 'A', 00H, 'L'
	DB	00H, '_', 00H, 'E', 00H, 'R', 00H, 'R', 00H, 'O', 00H, 'R', 00H
	DB	00H, 00H
	ORG $+2
$SG427704 DB	'D', 00H, 'X', 00H, 'G', 00H, 'I', 00H, '_', 00H, 'E', 00H
	DB	'R', 00H, 'R', 00H, 'O', 00H, 'R', 00H, '_', 00H, 'I', 00H, 'N'
	DB	00H, 'V', 00H, 'A', 00H, 'L', 00H, 'I', 00H, 'D', 00H, '_', 00H
	DB	'C', 00H, 'A', 00H, 'L', 00H, 'L', 00H, 00H, 00H
$SG428730 DB	'G', 00H, 'a', 00H, 'm', 00H, 'e', 00H, '\', 00H, 00H, 00H
$SG427700 DB	'D', 00H, 'X', 00H, 'G', 00H, 'I', 00H, '_', 00H, 'E', 00H
	DB	'R', 00H, 'R', 00H, 'O', 00H, 'R', 00H, '_', 00H, 'F', 00H, 'R'
	DB	00H, 'A', 00H, 'M', 00H, 'E', 00H, '_', 00H, 'S', 00H, 'T', 00H
	DB	'A', 00H, 'T', 00H, 'I', 00H, 'S', 00H, 'T', 00H, 'I', 00H, 'C'
	DB	00H, 'S', 00H, '_', 00H, 'D', 00H, 'I', 00H, 'S', 00H, 'J', 00H
	DB	'O', 00H, 'I', 00H, 'N', 00H, 'T', 00H, 00H, 00H
	ORG $+2
$SG428726 DB	'\', 00H, 'S', 00H, 'p', 00H, 'e', 00H, 'c', 00H, 'i', 00H
	DB	'a', 00H, 'l', 00H, 'K', 00H, '\', 00H, 00H, 00H
	ORG $+2
$SG427706 DB	'D', 00H, 'X', 00H, 'G', 00H, 'I', 00H, '_', 00H, 'E', 00H
	DB	'R', 00H, 'R', 00H, 'O', 00H, 'R', 00H, '_', 00H, 'M', 00H, 'O'
	DB	00H, 'R', 00H, 'E', 00H, '_', 00H, 'D', 00H, 'A', 00H, 'T', 00H
	DB	'A', 00H, 00H, 00H
	ORG $+2
$SG427702 DB	'D', 00H, 'X', 00H, 'G', 00H, 'I', 00H, '_', 00H, 'E', 00H
	DB	'R', 00H, 'R', 00H, 'O', 00H, 'R', 00H, '_', 00H, 'G', 00H, 'R'
	DB	00H, 'A', 00H, 'P', 00H, 'H', 00H, 'I', 00H, 'C', 00H, 'S', 00H
	DB	'_', 00H, 'V', 00H, 'I', 00H, 'D', 00H, 'P', 00H, 'N', 00H, '_'
	DB	00H, 'S', 00H, 'O', 00H, 'U', 00H, 'R', 00H, 'C', 00H, 'E', 00H
	DB	'_', 00H, 'I', 00H, 'N', 00H, '_', 00H, 'U', 00H, 'S', 00H, 'E'
	DB	00H, 00H, 00H
$SG428727 DB	'\', 00H, 'S', 00H, 'p', 00H, 'e', 00H, 'c', 00H, 'i', 00H
	DB	'a', 00H, 'l', 00H, 'K', 00H, '\', 00H, 00H, 00H
	ORG $+2
$SG428731 DB	'G', 00H, 'a', 00H, 'm', 00H, 'e', 00H, '\', 00H, 00H, 00H
$SG428732 DB	'R', 00H, 'u', 00H, 'n', 00H, 'd', 00H, 'l', 00H, 'l', 00H
	DB	'3', 00H, '2', 00H, 00H, 00H
	ORG $+2
$SG427708 DB	'D', 00H, 'X', 00H, 'G', 00H, 'I', 00H, '_', 00H, 'E', 00H
	DB	'R', 00H, 'R', 00H, 'O', 00H, 'R', 00H, '_', 00H, 'N', 00H, 'O'
	DB	00H, 'N', 00H, 'E', 00H, 'X', 00H, 'C', 00H, 'L', 00H, 'U', 00H
	DB	'S', 00H, 'I', 00H, 'V', 00H, 'E', 00H, 00H, 00H
$SG427710 DB	'D', 00H, 'X', 00H, 'G', 00H, 'I', 00H, '_', 00H, 'E', 00H
	DB	'R', 00H, 'R', 00H, 'O', 00H, 'R', 00H, '_', 00H, 'N', 00H, 'O'
	DB	00H, 'T', 00H, '_', 00H, 'C', 00H, 'U', 00H, 'R', 00H, 'R', 00H
	DB	'E', 00H, 'N', 00H, 'T', 00H, 'L', 00H, 'Y', 00H, '_', 00H, 'A'
	DB	00H, 'V', 00H, 'A', 00H, 'I', 00H, 'L', 00H, 'A', 00H, 'B', 00H
	DB	'L', 00H, 'E', 00H, 00H, 00H
	ORG $+2
$SG427712 DB	'D', 00H, 'X', 00H, 'G', 00H, 'I', 00H, '_', 00H, 'E', 00H
	DB	'R', 00H, 'R', 00H, 'O', 00H, 'R', 00H, '_', 00H, 'N', 00H, 'O'
	DB	00H, 'T', 00H, '_', 00H, 'F', 00H, 'O', 00H, 'U', 00H, 'N', 00H
	DB	'D', 00H, 00H, 00H
	ORG $+2
$SG428737 DB	'w', 00H, 00H, 00H
$SG428738 DB	'l', 00H, 'o', 00H, 'g', 00H, 's', 00H, '/', 00H, 'g', 00H
	DB	'a', 00H, 'm', 00H, 'e', 00H, '_', 00H, 'o', 00H, 'u', 00H, 't'
	DB	00H, 'p', 00H, 'u', 00H, 't', 00H, '.', 00H, 'l', 00H, 'o', 00H
	DB	'g', 00H, 00H, 00H
	ORG $+2
$SG428739 DB	'I', 00H, 'N', 00H, 'V', 00H, 'A', 00H, 'L', 00H, 'I', 00H
	DB	'D', 00H, 00H, 00H
$SG428740 DB	'S', 00H, 'p', 00H, 'e', 00H, 'c', 00H, 'i', 00H, 'a', 00H
	DB	'l', 00H, 'K', 00H, 00H, 00H
	ORG $+2
$SG427714 DB	'D', 00H, 'X', 00H, 'G', 00H, 'I', 00H, '_', 00H, 'E', 00H
	DB	'R', 00H, 'R', 00H, 'O', 00H, 'R', 00H, '_', 00H, 'R', 00H, 'E'
	DB	00H, 'M', 00H, 'O', 00H, 'T', 00H, 'E', 00H, '_', 00H, 'C', 00H
	DB	'L', 00H, 'I', 00H, 'E', 00H, 'N', 00H, 'T', 00H, '_', 00H, 'D'
	DB	00H, 'I', 00H, 'S', 00H, 'C', 00H, 'O', 00H, 'N', 00H, 'N', 00H
	DB	'E', 00H, 'C', 00H, 'T', 00H, 'E', 00H, 'D', 00H, 00H, 00H
$SG427716 DB	'D', 00H, 'X', 00H, 'G', 00H, 'I', 00H, '_', 00H, 'E', 00H
	DB	'R', 00H, 'R', 00H, 'O', 00H, 'R', 00H, '_', 00H, 'R', 00H, 'E'
	DB	00H, 'M', 00H, 'O', 00H, 'T', 00H, 'E', 00H, '_', 00H, 'O', 00H
	DB	'U', 00H, 'T', 00H, 'O', 00H, 'F', 00H, 'M', 00H, 'E', 00H, 'M'
	DB	00H, 'O', 00H, 'R', 00H, 'Y', 00H, 00H, 00H
$SG428741 DB	'l', 00H, 'o', 00H, 'g', 00H, 's', 00H, '/', 00H, '%', 00H
	DB	's', 00H, '.', 00H, 'l', 00H, 'o', 00H, 'g', 00H, 00H, 00H
$SG428742 DB	'w', 00H, 00H, 00H
$SG427718 DB	'D', 00H, 'X', 00H, 'G', 00H, 'I', 00H, '_', 00H, 'E', 00H
	DB	'R', 00H, 'R', 00H, 'O', 00H, 'R', 00H, '_', 00H, 'W', 00H, 'A'
	DB	00H, 'S', 00H, '_', 00H, 'S', 00H, 'T', 00H, 'I', 00H, 'L', 00H
	DB	'L', 00H, '_', 00H, 'D', 00H, 'R', 00H, 'A', 00H, 'W', 00H, 'I'
	DB	00H, 'N', 00H, 'G', 00H, 00H, 00H
	ORG $+2
$SG178886 DB	'a', 00H, 't', 00H, 'l', 00H, 'T', 00H, 'r', 00H, 'a', 00H
	DB	'c', 00H, 'e', 00H, 'I', 00H, 'S', 00H, 'A', 00H, 'P', 00H, 'I'
	DB	00H, 00H, 00H
$SG428743 DB	'S', 00H, 'p', 00H, 'e', 00H, 'c', 00H, 'i', 00H, 'a', 00H
	DB	'l', 00H, 'K', 00H, 00H, 00H
	ORG $+2
$SG428744 DB	'%', 00H, 's', 00H, '.', 00H, 'l', 00H, 'o', 00H, 'g', 00H
	DB	' ', 00H, 'c', 00H, 'r', 00H, 'e', 00H, 'a', 00H, 't', 00H, 'e'
	DB	00H, 'd', 00H, 00H, 00H
	ORG $+2
$SG427720 DB	'D', 00H, 'X', 00H, 'G', 00H, 'I', 00H, '_', 00H, 'E', 00H
	DB	'R', 00H, 'R', 00H, 'O', 00H, 'R', 00H, '_', 00H, 'U', 00H, 'N'
	DB	00H, 'S', 00H, 'U', 00H, 'P', 00H, 'P', 00H, 'O', 00H, 'R', 00H
	DB	'T', 00H, 'E', 00H, 'D', 00H, 00H, 00H
	ORG $+2
$SG428746 DB	'w', 00H, 00H, 00H
$SG427722 DB	'D', 00H, 'X', 00H, 'G', 00H, 'I', 00H, '_', 00H, 'E', 00H
	DB	'R', 00H, 'R', 00H, 'O', 00H, 'R', 00H, '_', 00H, 'A', 00H, 'C'
	DB	00H, 'C', 00H, 'E', 00H, 'S', 00H, 'S', 00H, '_', 00H, 'L', 00H
	DB	'O', 00H, 'S', 00H, 'T', 00H, 00H, 00H
	ORG $+2
$SG428747 DB	'l', 00H, 'o', 00H, 'g', 00H, 's', 00H, '\', 00H, 'd', 00H
	DB	'x', 00H, 'g', 00H, 'i', 00H, '_', 00H, 'b', 00H, 'u', 00H, 'd'
	DB	00H, 'g', 00H, 'e', 00H, 't', 00H, '.', 00H, 'l', 00H, 'o', 00H
	DB	'g', 00H, 00H, 00H
	ORG $+2
$SG428748 DB	'-', 00H, '-', 00H, '-', 00H, '-', 00H, '-', 00H, '-', 00H
	DB	'-', 00H, '-', 00H, '-', 00H, '-', 00H, '-', 00H, '-', 00H, '-'
	DB	00H, '-', 00H, '-', 00H, '-', 00H, '-', 00H, '-', 00H, '-', 00H
	DB	'-', 00H, '-', 00H, '-', 00H, '-', 00H, '-', 00H, '-', 00H, '-'
	DB	00H, '-', 00H, '-', 00H, '-', 00H, '-', 00H, '-', 00H, '-', 00H
	DB	'-', 00H, '-', 00H, '-', 00H, '-', 00H, '-', 00H, '-', 00H, '-'
	DB	00H, '-', 00H, '-', 00H, '-', 00H, '-', 00H, '-', 00H, '-', 00H
	DB	'-', 00H, '-', 00H, '-', 00H, '-', 00H, '-', 00H, '-', 00H, '-'
	DB	00H, '-', 00H, '-', 00H, '-', 00H, '-', 00H, '-', 00H, '-', 00H
	DB	'-', 00H, '-', 00H, '-', 00H, '-', 00H, '-', 00H, '-', 00H, '-'
	DB	00H, '-', 00H, '-', 00H, '-', 00H, '-', 00H, '-', 00H, '-', 00H
	DB	'-', 00H, '-', 00H, '-', 00H, '-', 00H, '-', 00H, '-', 00H, '-'
	DB	00H, '-', 00H, '-', 00H, '-', 00H, '-', 00H, '-', 00H, '-', 00H
	DB	'-', 00H, '-', 00H, '-', 00H, '-', 00H, '-', 00H, '-', 00H, '-'
	DB	00H, 0aH, 00H, 00H, 00H
	ORG $+2
$SG427724 DB	'D', 00H, 'X', 00H, 'G', 00H, 'I', 00H, '_', 00H, 'E', 00H
	DB	'R', 00H, 'R', 00H, 'O', 00H, 'R', 00H, '_', 00H, 'W', 00H, 'A'
	DB	00H, 'I', 00H, 'T', 00H, '_', 00H, 'T', 00H, 'I', 00H, 'M', 00H
	DB	'E', 00H, 'O', 00H, 'U', 00H, 'T', 00H, 00H, 00H
$SG428749 DB	'>', 00H, '>', 00H, ' ', 00H, '(', 00H, '%', 00H, 's', 00H
	DB	')', 00H, ' ', 00H, '[', 00H, '%', 00H, 's', 00H, ']', 00H, ' '
	DB	00H, '<', 00H, '<', 00H, 00H, 00H
$SG428751 DB	'S', 00H, 'p', 00H, 'e', 00H, 'c', 00H, 'i', 00H, 'a', 00H
	DB	'l', 00H, 'K', 00H, 00H, 00H
	ORG $+2
$SG427726 DB	'D', 00H, 'X', 00H, 'G', 00H, 'I', 00H, '_', 00H, 'E', 00H
	DB	'R', 00H, 'R', 00H, 'O', 00H, 'R', 00H, '_', 00H, 'S', 00H, 'E'
	DB	00H, 'S', 00H, 'S', 00H, 'I', 00H, 'O', 00H, 'N', 00H, '_', 00H
	DB	'D', 00H, 'I', 00H, 'S', 00H, 'C', 00H, 'O', 00H, 'N', 00H, 'N'
	DB	00H, 'E', 00H, 'C', 00H, 'T', 00H, 'E', 00H, 'D', 00H, 00H, 00H
$SG177870 DB	'a', 00H, 't', 00H, 'l', 00H, 'T', 00H, 'r', 00H, 'a', 00H
	DB	'c', 00H, 'e', 00H, 'G', 00H, 'e', 00H, 'n', 00H, 'e', 00H, 'r'
	DB	00H, 'a', 00H, 'l', 00H, 00H, 00H
$SG428752 DB	'L', 00H, 'o', 00H, 'a', 00H, 'd', 00H, 'i', 00H, 'n', 00H
	DB	'g', 00H, ' ', 00H, 'u', 00H, 's', 00H, 'e', 00H, 'r', 00H, ' '
	DB	00H, 'p', 00H, 'r', 00H, 'e', 00H, 'f', 00H, 'e', 00H, 'r', 00H
	DB	'e', 00H, 'n', 00H, 'c', 00H, 'e', 00H, 's', 00H, ' ', 00H, 'f'
	DB	00H, 'r', 00H, 'o', 00H, 'm', 00H, ' ', 00H, '%', 00H, 's', 00H
	DB	'.', 00H, 'i', 00H, 'n', 00H, 'i', 00H, '.', 00H, '.', 00H, '.'
	DB	00H, ' ', 00H, 00H, 00H
	ORG $+2
$SG428756 DB	'f', 00H, 'a', 00H, 'i', 00H, 'l', 00H, 'e', 00H, 'd', 00H
	DB	'!', 00H, 0aH, 00H, 00H, 00H
	ORG $+2
$SG427728 DB	'D', 00H, 'X', 00H, 'G', 00H, 'I', 00H, '_', 00H, 'E', 00H
	DB	'R', 00H, 'R', 00H, 'O', 00H, 'R', 00H, '_', 00H, 'R', 00H, 'E'
	DB	00H, 'S', 00H, 'T', 00H, 'R', 00H, 'I', 00H, 'C', 00H, 'T', 00H
	DB	'_', 00H, 'T', 00H, 'O', 00H, '_', 00H, 'O', 00H, 'U', 00H, 'T'
	DB	00H, 'P', 00H, 'U', 00H, 'T', 00H, '_', 00H, 'S', 00H, 'T', 00H
	DB	'A', 00H, 'L', 00H, 'E', 00H, 00H, 00H
$SG427730 DB	'D', 00H, 'X', 00H, 'G', 00H, 'I', 00H, '_', 00H, 'E', 00H
	DB	'R', 00H, 'R', 00H, 'O', 00H, 'R', 00H, '_', 00H, 'C', 00H, 'A'
	DB	00H, 'N', 00H, 'N', 00H, 'O', 00H, 'T', 00H, '_', 00H, 'P', 00H
	DB	'R', 00H, 'O', 00H, 'T', 00H, 'E', 00H, 'C', 00H, 'T', 00H, '_'
	DB	00H, 'C', 00H, 'O', 00H, 'N', 00H, 'T', 00H, 'E', 00H, 'N', 00H
	DB	'T', 00H, 00H, 00H
$SG428755 DB	'd', 00H, 'o', 00H, 'n', 00H, 'e', 00H, '!', 00H, 0aH, 00H
	DB	00H, 00H
	ORG $+2
$SG427732 DB	'D', 00H, 'X', 00H, 'G', 00H, 'I', 00H, '_', 00H, 'E', 00H
	DB	'R', 00H, 'R', 00H, 'O', 00H, 'R', 00H, '_', 00H, 'A', 00H, 'C'
	DB	00H, 'C', 00H, 'E', 00H, 'S', 00H, 'S', 00H, '_', 00H, 'D', 00H
	DB	'E', 00H, 'N', 00H, 'I', 00H, 'E', 00H, 'D', 00H, 00H, 00H
	ORG $+2
$SG428757 DB	'd', 00H, 'e', 00H, 'f', 00H, 'a', 00H, 'u', 00H, 'l', 00H
	DB	't', 00H, '_', 00H, 00H, 00H
	ORG $+2
$SG428758 DB	'.', 00H, 'i', 00H, 'n', 00H, 'i', 00H, 00H, 00H
	ORG $+2
$SG427734 DB	'D', 00H, 'X', 00H, 'G', 00H, 'I', 00H, '_', 00H, 'E', 00H
	DB	'R', 00H, 'R', 00H, 'O', 00H, 'R', 00H, '_', 00H, 'N', 00H, 'A'
	DB	00H, 'M', 00H, 'E', 00H, '_', 00H, 'A', 00H, 'L', 00H, 'R', 00H
	DB	'E', 00H, 'A', 00H, 'D', 00H, 'Y', 00H, '_', 00H, 'E', 00H, 'X'
	DB	00H, 'I', 00H, 'S', 00H, 'T', 00H, 'S', 00H, 00H, 00H
	ORG $+2
$SG428760 DB	'L', 00H, 'o', 00H, 'a', 00H, 'd', 00H, 'i', 00H, 'n', 00H
	DB	'g', 00H, ' ', 00H, 'd', 00H, 'e', 00H, 'f', 00H, 'a', 00H, 'u'
	DB	00H, 'l', 00H, 't', 00H, ' ', 00H, 'p', 00H, 'r', 00H, 'e', 00H
	DB	'f', 00H, 'e', 00H, 'r', 00H, 'e', 00H, 'n', 00H, 'c', 00H, 'e'
	DB	00H, 's', 00H, ' ', 00H, 'f', 00H, 'r', 00H, 'o', 00H, 'm', 00H
	DB	' ', 00H, '%', 00H, 's', 00H, '.', 00H, 'i', 00H, 'n', 00H, 'i'
	DB	00H, '.', 00H, '.', 00H, '.', 00H, ' ', 00H, 00H, 00H
$SG427736 DB	'D', 00H, 'X', 00H, 'G', 00H, 'I', 00H, '_', 00H, 'E', 00H
	DB	'R', 00H, 'R', 00H, 'O', 00H, 'R', 00H, '_', 00H, 'S', 00H, 'D'
	DB	00H, 'K', 00H, '_', 00H, 'C', 00H, 'O', 00H, 'M', 00H, 'P', 00H
	DB	'O', 00H, 'N', 00H, 'E', 00H, 'N', 00H, 'T', 00H, '_', 00H, 'M'
	DB	00H, 'I', 00H, 'S', 00H, 'S', 00H, 'I', 00H, 'N', 00H, 'G', 00H
	DB	00H, 00H
	ORG $+2
$SG427738 DB	'D', 00H, 'X', 00H, 'G', 00H, 'I', 00H, '_', 00H, 'D', 00H
	DB	'D', 00H, 'I', 00H, '_', 00H, 'E', 00H, 'R', 00H, 'R', 00H, '_'
	DB	00H, 'W', 00H, 'A', 00H, 'S', 00H, 'S', 00H, 'T', 00H, 'I', 00H
	DB	'L', 00H, 'L', 00H, 'D', 00H, 'R', 00H, 'A', 00H, 'W', 00H, 'I'
	DB	00H, 'N', 00H, 'G', 00H, 00H, 00H
	ORG $+2
$SG428763 DB	'f', 00H, 'a', 00H, 'i', 00H, 'l', 00H, 'e', 00H, 'd', 00H
	DB	'!', 00H, 0aH, 00H, 00H, 00H
	ORG $+2
$SG428764 DB	'd', 00H, 'o', 00H, 'n', 00H, 'e', 00H, '!', 00H, 0aH, 00H
	DB	00H, 00H
	ORG $+2
$SG427740 DB	'D', 00H, 'X', 00H, 'G', 00H, 'I', 00H, '_', 00H, 'D', 00H
	DB	'D', 00H, 'I', 00H, '_', 00H, 'E', 00H, 'R', 00H, 'R', 00H, '_'
	DB	00H, 'U', 00H, 'N', 00H, 'S', 00H, 'U', 00H, 'P', 00H, 'P', 00H
	DB	'O', 00H, 'R', 00H, 'T', 00H, 'E', 00H, 'D', 00H, 00H, 00H
	ORG $+2
$SG428765 DB	' ', 00H, ' ', 00H, '>', 00H, '>', 00H, ' ', 00H, 'W', 00H
	DB	'r', 00H, 'i', 00H, 't', 00H, 'i', 00H, 'n', 00H, 'g', 00H, ' '
	DB	00H, 'b', 00H, 'a', 00H, 's', 00H, 'e', 00H, ' ', 00H, 'I', 00H
	DB	'N', 00H, 'I', 00H, ' ', 00H, 'f', 00H, 'i', 00H, 'l', 00H, 'e'
	DB	00H, ',', 00H, ' ', 00H, 'b', 00H, 'e', 00H, 'c', 00H, 'a', 00H
	DB	'u', 00H, 's', 00H, 'e', 00H, ' ', 00H, 'n', 00H, 'o', 00H, 'n'
	DB	00H, 'e', 00H, ' ', 00H, 'e', 00H, 'x', 00H, 'i', 00H, 's', 00H
	DB	't', 00H, 'e', 00H, 'd', 00H, '.', 00H, '.', 00H, '.', 00H, ' '
	DB	00H, 00H, 00H
	ORG $+2
$SG428766 DB	'd', 00H, 'o', 00H, 'n', 00H, 'e', 00H, '!', 00H, 0aH, 00H
	DB	00H, 00H
	ORG $+2
$SG427742 DB	'D', 00H, 'X', 00H, 'G', 00H, 'I', 00H, '_', 00H, 'D', 00H
	DB	'D', 00H, 'I', 00H, '_', 00H, 'E', 00H, 'R', 00H, 'R', 00H, '_'
	DB	00H, 'N', 00H, 'O', 00H, 'N', 00H, 'E', 00H, 'X', 00H, 'C', 00H
	DB	'L', 00H, 'U', 00H, 'S', 00H, 'I', 00H, 'V', 00H, 'E', 00H, 00H
	DB	00H
$SG427744 DB	'D', 00H, 'X', 00H, 'G', 00H, 'I', 00H, '_', 00H, 'S', 00H
	DB	'T', 00H, 'A', 00H, 'T', 00H, 'U', 00H, 'S', 00H, '_', 00H, 'O'
	DB	00H, 'C', 00H, 'C', 00H, 'L', 00H, 'U', 00H, 'D', 00H, 'E', 00H
	DB	'D', 00H, 00H, 00H
	ORG $+2
$SG427746 DB	'D', 00H, 'X', 00H, 'G', 00H, 'I', 00H, '_', 00H, 'S', 00H
	DB	'T', 00H, 'A', 00H, 'T', 00H, 'U', 00H, 'S', 00H, '_', 00H, 'U'
	DB	00H, 'N', 00H, 'O', 00H, 'C', 00H, 'C', 00H, 'L', 00H, 'U', 00H
	DB	'D', 00H, 'E', 00H, 'D', 00H, 00H, 00H
	ORG $+2
$SG427748 DB	'D', 00H, 'X', 00H, 'G', 00H, 'I', 00H, '_', 00H, 'S', 00H
	DB	'T', 00H, 'A', 00H, 'T', 00H, 'U', 00H, 'S', 00H, '_', 00H, 'C'
	DB	00H, 'L', 00H, 'I', 00H, 'P', 00H, 'P', 00H, 'E', 00H, 'D', 00H
	DB	00H, 00H
$SG427750 DB	'D', 00H, 'X', 00H, 'G', 00H, 'I', 00H, '_', 00H, 'S', 00H
	DB	'T', 00H, 'A', 00H, 'T', 00H, 'U', 00H, 'S', 00H, '_', 00H, 'N'
	DB	00H, 'O', 00H, '_', 00H, 'R', 00H, 'E', 00H, 'D', 00H, 'I', 00H
	DB	'R', 00H, 'E', 00H, 'C', 00H, 'T', 00H, 'I', 00H, 'O', 00H, 'N'
	DB	00H, 00H, 00H
	ORG $+2
$SG427752 DB	'D', 00H, 'X', 00H, 'G', 00H, 'I', 00H, '_', 00H, 'S', 00H
	DB	'T', 00H, 'A', 00H, 'T', 00H, 'U', 00H, 'S', 00H, '_', 00H, 'N'
	DB	00H, 'O', 00H, '_', 00H, 'D', 00H, 'E', 00H, 'S', 00H, 'K', 00H
	DB	'T', 00H, 'O', 00H, 'P', 00H, '_', 00H, 'A', 00H, 'C', 00H, 'C'
	DB	00H, 'E', 00H, 'S', 00H, 'S', 00H, 00H, 00H
$SG428778 DB	'%', 00H, 's', 00H, '\', 00H, 'M', 00H, 'y', 00H, ' ', 00H
	DB	'M', 00H, 'o', 00H, 'd', 00H, 's', 00H, '\', 00H, 'S', 00H, 'p'
	DB	00H, 'e', 00H, 'c', 00H, 'i', 00H, 'a', 00H, 'l', 00H, 'K', 00H
	DB	'\', 00H, 'S', 00H, 'p', 00H, 'e', 00H, 'c', 00H, 'i', 00H, 'a'
	DB	00H, 'l', 00H, 'K', 00H, '.', 00H, 'd', 00H, 'l', 00H, 'l', 00H
	DB	00H, 00H
	ORG $+2
$SG427758 DB	'D', 00H, 'X', 00H, 'G', 00H, 'I', 00H, '_', 00H, 'S', 00H
	DB	'T', 00H, 'A', 00H, 'T', 00H, 'U', 00H, 'S', 00H, '_', 00H, 'M'
	DB	00H, 'O', 00H, 'D', 00H, 'E', 00H, '_', 00H, 'C', 00H, 'H', 00H
	DB	'A', 00H, 'N', 00H, 'G', 00H, 'E', 00H, 'D', 00H, 00H, 00H
	ORG $+2
$SG427754 DB	'D', 00H, 'X', 00H, 'G', 00H, 'I', 00H, '_', 00H, 'S', 00H
	DB	'T', 00H, 'A', 00H, 'T', 00H, 'U', 00H, 'S', 00H, '_', 00H, 'G'
	DB	00H, 'R', 00H, 'A', 00H, 'P', 00H, 'H', 00H, 'I', 00H, 'C', 00H
	DB	'S', 00H, '_', 00H, 'V', 00H, 'I', 00H, 'D', 00H, 'P', 00H, 'N'
	DB	00H, '_', 00H, 'S', 00H, 'O', 00H, 'U', 00H, 'R', 00H, 'C', 00H
	DB	'E', 00H, '_', 00H, 'I', 00H, 'N', 00H, '_', 00H, 'U', 00H, 'S'
	DB	00H, 'E', 00H, 00H, 00H
	ORG $+2
$SG430831 DB	'%', 00H, 's', 00H, 'C', 00H, 'E', 00H, 'G', 00H, 'U', 00H
	DB	'I', 00H, '\', 00H, 'b', 00H, 'i', 00H, 'n', 00H, '\', 00H, 'W'
	DB	00H, 'i', 00H, 'n', 00H, '3', 00H, '2', 00H, 00H, 00H
$SG427756 DB	'D', 00H, 'X', 00H, 'G', 00H, 'I', 00H, '_', 00H, 'S', 00H
	DB	'T', 00H, 'A', 00H, 'T', 00H, 'U', 00H, 'S', 00H, '_', 00H, 'D'
	DB	00H, 'D', 00H, 'A', 00H, '_', 00H, 'W', 00H, 'A', 00H, 'S', 00H
	DB	'_', 00H, 'S', 00H, 'T', 00H, 'I', 00H, 'L', 00H, 'L', 00H, '_'
	DB	00H, 'D', 00H, 'R', 00H, 'A', 00H, 'W', 00H, 'I', 00H, 'N', 00H
	DB	'G', 00H, 00H, 00H
$SG428787 DB	'\', 00H, 'M', 00H, 'y', 00H, ' ', 00H, 'M', 00H, 'o', 00H
	DB	'd', 00H, 's', 00H, '\', 00H, 'S', 00H, 'p', 00H, 'e', 00H, 'c'
	DB	00H, 'i', 00H, 'a', 00H, 'l', 00H, 'K', 00H, 00H, 00H
$SG428782 DB	'[', 00H, 'D', 00H, 'L', 00H, 'L', 00H, ' ', 00H, 'L', 00H
	DB	'o', 00H, 'a', 00H, 'd', 00H, 'e', 00H, 'r', 00H, ']', 00H, ' '
	DB	00H, ' ', 00H, ' ', 00H, 'M', 00H, 'a', 00H, 'n', 00H, 'u', 00H
	DB	'a', 00H, 'l', 00H, 'l', 00H, 'y', 00H, ' ', 00H, 'b', 00H, 'o'
	DB	00H, 'o', 00H, 't', 00H, 'e', 00H, 'd', 00H, ' ', 00H, 'S', 00H
	DB	't', 00H, 'e', 00H, 'a', 00H, 'm', 00H, 'A', 00H, 'P', 00H, 'I'
	DB	00H, ':', 00H, ' ', 00H, '''', 00H, '%', 00H, 's', 00H, '''', 00H
	DB	00H, 00H
$SG430837 DB	'\', 00H, 'C', 00H, 'E', 00H, 'G', 00H, 'U', 00H, 'I', 00H
	DB	'B', 00H, 'a', 00H, 's', 00H, 'e', 00H, '-', 00H, '0', 00H, '.'
	DB	00H, 'd', 00H, 'l', 00H, 'l', 00H, 00H, 00H
	ORG $+2
$SG428783 DB	'-', 00H, '-', 00H, '-', 00H, '-', 00H, '-', 00H, '-', 00H
	DB	'-', 00H, '-', 00H, '-', 00H, '-', 00H, '-', 00H, '-', 00H, '-'
	DB	00H, '-', 00H, '-', 00H, '-', 00H, '-', 00H, '-', 00H, '-', 00H
	DB	'-', 00H, '-', 00H, '-', 00H, '-', 00H, '-', 00H, '-', 00H, '-'
	DB	00H, '-', 00H, '-', 00H, '-', 00H, '-', 00H, '-', 00H, '-', 00H
	DB	'-', 00H, '-', 00H, '-', 00H, '-', 00H, '-', 00H, '-', 00H, '-'
	DB	00H, '-', 00H, '-', 00H, '-', 00H, '-', 00H, '-', 00H, '-', 00H
	DB	'-', 00H, '-', 00H, '-', 00H, '-', 00H, '-', 00H, '-', 00H, '-'
	DB	00H, '-', 00H, '-', 00H, '-', 00H, '-', 00H, '-', 00H, '-', 00H
	DB	'-', 00H, '-', 00H, '-', 00H, '-', 00H, '-', 00H, '-', 00H, '-'
	DB	00H, '-', 00H, '-', 00H, '-', 00H, '-', 00H, '-', 00H, '-', 00H
	DB	'-', 00H, '-', 00H, '-', 00H, '-', 00H, '-', 00H, '-', 00H, '-'
	DB	00H, '-', 00H, '-', 00H, '-', 00H, '-', 00H, '-', 00H, '-', 00H
	DB	'-', 00H, '-', 00H, '-', 00H, '-', 00H, '-', 00H, '-', 00H, '-'
	DB	00H, 0aH, 00H, 00H, 00H
	ORG $+2
$SG428784 DB	'%', 00H, 's', 00H, '.', 00H, 'd', 00H, 'l', 00H, 'l', 00H
	DB	00H, 00H
	ORG $+2
$SG430836 DB	'C', 00H, 'E', 00H, 'G', 00H, 'U', 00H, 'I', 00H, '_', 00H
	DB	'P', 00H, 'A', 00H, 'R', 00H, 'E', 00H, 'N', 00H, 'T', 00H, '_'
	DB	00H, 'D', 00H, 'I', 00H, 'R', 00H, '=', 00H, '%', 00H, 's', 00H
	DB	00H, 00H
$SG428790 DB	'\', 00H, 'M', 00H, 'y', 00H, ' ', 00H, 'M', 00H, 'o', 00H
	DB	'd', 00H, 's', 00H, '\', 00H, 'S', 00H, 'p', 00H, 'e', 00H, 'c'
	DB	00H, 'i', 00H, 'a', 00H, 'l', 00H, 'K', 00H, 00H, 00H
$SG427760 DB	'D', 00H, 'X', 00H, 'G', 00H, 'I', 00H, '_', 00H, 'S', 00H
	DB	'T', 00H, 'A', 00H, 'T', 00H, 'U', 00H, 'S', 00H, '_', 00H, 'M'
	DB	00H, 'O', 00H, 'D', 00H, 'E', 00H, '_', 00H, 'C', 00H, 'H', 00H
	DB	'A', 00H, 'N', 00H, 'G', 00H, 'E', 00H, '_', 00H, 'I', 00H, 'N'
	DB	00H, '_', 00H, 'P', 00H, 'R', 00H, 'O', 00H, 'G', 00H, 'R', 00H
	DB	'E', 00H, 'S', 00H, 'S', 00H, 00H, 00H
$SG430834 DB	'%', 00H, 's', 00H, '\', 00H, 'M', 00H, 'y', 00H, ' ', 00H
	DB	'M', 00H, 'o', 00H, 'd', 00H, 's', 00H, '\', 00H, 'S', 00H, 'p'
	DB	00H, 'e', 00H, 'c', 00H, 'i', 00H, 'a', 00H, 'l', 00H, 'K', 00H
	DB	'\', 00H, 'C', 00H, 'E', 00H, 'G', 00H, 'U', 00H, 'I', 00H, '\'
	DB	00H, 'b', 00H, 'i', 00H, 'n', 00H, '\', 00H, 'W', 00H, 'i', 00H
	DB	'n', 00H, '3', 00H, '2', 00H, 00H, 00H
$SG427762 DB	'D', 00H, '3', 00H, 'D', 00H, '1', 00H, '1', 00H, '_', 00H
	DB	'E', 00H, 'R', 00H, 'R', 00H, 'O', 00H, 'R', 00H, '_', 00H, 'F'
	DB	00H, 'I', 00H, 'L', 00H, 'E', 00H, '_', 00H, 'N', 00H, 'O', 00H
	DB	'T', 00H, '_', 00H, 'F', 00H, 'O', 00H, 'U', 00H, 'N', 00H, 'D'
	DB	00H, 00H, 00H
	ORG $+2
$SG430835 DB	'C', 00H, 'E', 00H, 'G', 00H, 'U', 00H, 'I', 00H, '_', 00H
	DB	'P', 00H, 'A', 00H, 'R', 00H, 'E', 00H, 'N', 00H, 'T', 00H, '_'
	DB	00H, 'D', 00H, 'I', 00H, 'R', 00H, '=', 00H, '%', 00H, 's', 00H
	DB	'\', 00H, 'M', 00H, 'y', 00H, ' ', 00H, 'M', 00H, 'o', 00H, 'd'
	DB	00H, 's', 00H, '\', 00H, 'S', 00H, 'p', 00H, 'e', 00H, 'c', 00H
	DB	'i', 00H, 'a', 00H, 'l', 00H, 'K', 00H, '\', 00H, 00H, 00H
$SG430840 DB	'k', 00H, 'e', 00H, 'r', 00H, 'n', 00H, 'e', 00H, 'l', 00H
	DB	'3', 00H, '2', 00H, '.', 00H, 'd', 00H, 'l', 00H, 'l', 00H, 00H
	DB	00H
	ORG $+2
$SG428788 DB	'%', 00H, 's', 00H, '\', 00H, 'P', 00H, 'l', 00H, 'u', 00H
	DB	'g', 00H, 'I', 00H, 'n', 00H, 's', 00H, '\', 00H, 'T', 00H, 'h'
	DB	00H, 'i', 00H, 'r', 00H, 'd', 00H, 'P', 00H, 'a', 00H, 'r', 00H
	DB	't', 00H, 'y', 00H, '\', 00H, 'd', 00H, 'g', 00H, 'V', 00H, 'o'
	DB	00H, 'o', 00H, 'd', 00H, 'o', 00H, 'o', 00H, '\', 00H, 'd', 00H
	DB	'3', 00H, 'd', 00H, '8', 00H, '.', 00H, 'd', 00H, 'l', 00H, 'l'
	DB	00H, 00H, 00H
$SG427764 DB	'D', 00H, '3', 00H, 'D', 00H, '1', 00H, '1', 00H, '_', 00H
	DB	'E', 00H, 'R', 00H, 'R', 00H, 'O', 00H, 'R', 00H, '_', 00H, 'T'
	DB	00H, 'O', 00H, 'O', 00H, '_', 00H, 'M', 00H, 'A', 00H, 'N', 00H
	DB	'Y', 00H, '_', 00H, 'U', 00H, 'N', 00H, 'I', 00H, 'Q', 00H, 'U'
	DB	00H, 'E', 00H, '_', 00H, 'S', 00H, 'T', 00H, 'A', 00H, 'T', 00H
	DB	'E', 00H, '_', 00H, 'O', 00H, 'B', 00H, 'J', 00H, 'E', 00H, 'C'
	DB	00H, 'T', 00H, 'S', 00H, 00H, 00H
$SG430841 DB	'RemoveDllDirectory', 00H
	ORG $+1
$SG427766 DB	'D', 00H, '3', 00H, 'D', 00H, '1', 00H, '1', 00H, '_', 00H
	DB	'E', 00H, 'R', 00H, 'R', 00H, 'O', 00H, 'R', 00H, '_', 00H, 'T'
	DB	00H, 'O', 00H, 'O', 00H, '_', 00H, 'M', 00H, 'A', 00H, 'N', 00H
	DB	'Y', 00H, '_', 00H, 'U', 00H, 'N', 00H, 'I', 00H, 'Q', 00H, 'U'
	DB	00H, 'E', 00H, '_', 00H, 'V', 00H, 'I', 00H, 'E', 00H, 'W', 00H
	DB	'_', 00H, 'O', 00H, 'B', 00H, 'J', 00H, 'E', 00H, 'C', 00H, 'T'
	DB	00H, 'S', 00H, 00H, 00H
	ORG $+2
$SG430839 DB	'AddDllDirectory', 00H
$SG430842 DB	'k', 00H, 'e', 00H, 'r', 00H, 'n', 00H, 'e', 00H, 'l', 00H
	DB	'3', 00H, '2', 00H, '.', 00H, 'd', 00H, 'l', 00H, 'l', 00H, 00H
	DB	00H
	ORG $+2
$SG428791 DB	'%', 00H, 's', 00H, '\', 00H, 'P', 00H, 'l', 00H, 'u', 00H
	DB	'g', 00H, 'I', 00H, 'n', 00H, 's', 00H, '\', 00H, 'T', 00H, 'h'
	DB	00H, 'i', 00H, 'r', 00H, 'd', 00H, 'P', 00H, 'a', 00H, 'r', 00H
	DB	't', 00H, 'y', 00H, '\', 00H, 'd', 00H, 'g', 00H, 'V', 00H, 'o'
	DB	00H, 'o', 00H, 'd', 00H, 'o', 00H, 'o', 00H, '\', 00H, 'd', 00H
	DB	'd', 00H, 'r', 00H, 'a', 00H, 'w', 00H, '.', 00H, 'd', 00H, 'l'
	DB	00H, 'l', 00H, 00H, 00H
	ORG $+2
$SG428794 DB	'\', 00H, 00H, 00H
$SG428792 DB	' ', 00H, 'W', 00H, 'o', 00H, 'r', 00H, 'k', 00H, 'i', 00H
	DB	'n', 00H, 'g', 00H, ' ', 00H, 'D', 00H, 'i', 00H, 'r', 00H, 'e'
	DB	00H, 'c', 00H, 't', 00H, 'o', 00H, 'r', 00H, 'y', 00H, ':', 00H
	DB	' ', 00H, ' ', 00H, ' ', 00H, ' ', 00H, ' ', 00H, ' ', 00H, ' '
	DB	00H, ' ', 00H, ' ', 00H, ' ', 00H, '%', 00H, 's', 00H, 00H, 00H
$SG427768 DB	'D', 00H, '3', 00H, 'D', 00H, '1', 00H, '1', 00H, '_', 00H
	DB	'E', 00H, 'R', 00H, 'R', 00H, 'O', 00H, 'R', 00H, '_', 00H, 'D'
	DB	00H, 'E', 00H, 'F', 00H, 'E', 00H, 'R', 00H, 'R', 00H, 'E', 00H
	DB	'D', 00H, '_', 00H, 'C', 00H, 'O', 00H, 'N', 00H, 'T', 00H, 'E'
	DB	00H, 'X', 00H, 'T', 00H, '_', 00H, 'M', 00H, 'A', 00H, 'P', 00H
	DB	'_', 00H, 'W', 00H, 'I', 00H, 'T', 00H, 'H', 00H, 'O', 00H, 'U'
	DB	00H, 'T', 00H, '_', 00H, 'I', 00H, 'N', 00H, 'I', 00H, 'T', 00H
	DB	'I', 00H, 'A', 00H, 'L', 00H, '_', 00H, 'D', 00H, 'I', 00H, 'S'
	DB	00H, 'C', 00H, 'A', 00H, 'R', 00H, 'D', 00H, 00H, 00H
	ORG $+2
$SG427770 DB	'D', 00H, '3', 00H, 'D', 00H, 'E', 00H, 'R', 00H, 'R', 00H
	DB	'_', 00H, 'W', 00H, 'R', 00H, 'O', 00H, 'N', 00H, 'G', 00H, 'T'
	DB	00H, 'E', 00H, 'X', 00H, 'T', 00H, 'U', 00H, 'R', 00H, 'E', 00H
	DB	'F', 00H, 'O', 00H, 'R', 00H, 'M', 00H, 'A', 00H, 'T', 00H, 00H
	DB	00H
$SG428793 DB	' ', 00H, 'S', 00H, 'y', 00H, 's', 00H, 't', 00H, 'e', 00H
	DB	'm', 00H, ' ', 00H, 'D', 00H, 'i', 00H, 'r', 00H, 'e', 00H, 'c'
	DB	00H, 't', 00H, 'o', 00H, 'r', 00H, 'y', 00H, ':', 00H, ' ', 00H
	DB	' ', 00H, ' ', 00H, ' ', 00H, ' ', 00H, ' ', 00H, ' ', 00H, ' '
	DB	00H, ' ', 00H, ' ', 00H, ' ', 00H, '%', 00H, 's', 00H, 00H, 00H
$SG430843 DB	'SetDefaultDllDirectories', 00H
	ORG $+3
$SG428795 DB	'.', 00H, 'd', 00H, 'l', 00H, 'l', 00H, 00H, 00H
	ORG $+2
$SG430844 DB	'k', 00H, 'e', 00H, 'r', 00H, 'n', 00H, 'e', 00H, 'l', 00H
	DB	'3', 00H, '2', 00H, '.', 00H, 'd', 00H, 'l', 00H, 'l', 00H, 00H
	DB	00H
	ORG $+2
$SG430847 DB	'C', 00H, 'E', 00H, 'G', 00H, 'U', 00H, 'I', 00H, '_', 00H
	DB	'M', 00H, 'O', 00H, 'D', 00H, 'U', 00H, 'L', 00H, 'E', 00H, '_'
	DB	00H, 'D', 00H, 'I', 00H, 'R', 00H, '=', 00H, '%', 00H, 's', 00H
	DB	00H, 00H
$SG428803 DB	' ', 00H, 'L', 00H, 'o', 00H, 'a', 00H, 'd', 00H, 'i', 00H
	DB	'n', 00H, 'g', 00H, ' ', 00H, 'd', 00H, 'e', 00H, 'f', 00H, 'a'
	DB	00H, 'u', 00H, 'l', 00H, 't', 00H, ' ', 00H, '%', 00H, 's', 00H
	DB	'.', 00H, 'd', 00H, 'l', 00H, 'l', 00H, ':', 00H, ' ', 00H, 00H
	DB	00H
$SG427772 DB	'D', 00H, '3', 00H, 'D', 00H, 'E', 00H, 'R', 00H, 'R', 00H
	DB	'_', 00H, 'U', 00H, 'N', 00H, 'S', 00H, 'U', 00H, 'P', 00H, 'P'
	DB	00H, 'O', 00H, 'R', 00H, 'T', 00H, 'E', 00H, 'D', 00H, 'C', 00H
	DB	'O', 00H, 'L', 00H, 'O', 00H, 'R', 00H, 'O', 00H, 'P', 00H, 'E'
	DB	00H, 'R', 00H, 'A', 00H, 'T', 00H, 'I', 00H, 'O', 00H, 'N', 00H
	DB	00H, 00H
	ORG $+2
$SG430849 DB	'CEGUIBase-0.dll', 00H
$SG427780 DB	'D', 00H, '3', 00H, 'D', 00H, 'E', 00H, 'R', 00H, 'R', 00H
	DB	'_', 00H, 'T', 00H, 'O', 00H, 'O', 00H, 'M', 00H, 'A', 00H, 'N'
	DB	00H, 'Y', 00H, 'O', 00H, 'P', 00H, 'E', 00H, 'R', 00H, 'A', 00H
	DB	'T', 00H, 'I', 00H, 'O', 00H, 'N', 00H, 'S', 00H, 00H, 00H
	ORG $+2
$SG430846 DB	'[', 00H, ' ', 00H, ' ', 00H, 'C', 00H, 'E', 00H, 'G', 00H
	DB	'U', 00H, 'I', 00H, ' ', 00H, ' ', 00H, ' ', 00H, ']', 00H, ' '
	DB	00H, 'E', 00H, 'n', 00H, 'a', 00H, 'b', 00H, 'l', 00H, 'i', 00H
	DB	'n', 00H, 'g', 00H, ' ', 00H, 'C', 00H, 'E', 00H, 'G', 00H, 'U'
	DB	00H, 'I', 00H, ':', 00H, ' ', 00H, '(', 00H, '%', 00H, 's', 00H
	DB	')', 00H, 00H, 00H
$SG427774 DB	'D', 00H, '3', 00H, 'D', 00H, 'E', 00H, 'R', 00H, 'R', 00H
	DB	'_', 00H, 'U', 00H, 'N', 00H, 'S', 00H, 'U', 00H, 'P', 00H, 'P'
	DB	00H, 'O', 00H, 'R', 00H, 'T', 00H, 'E', 00H, 'D', 00H, 'C', 00H
	DB	'O', 00H, 'L', 00H, 'O', 00H, 'R', 00H, 'A', 00H, 'R', 00H, 'G'
	DB	00H, 00H, 00H
	ORG $+2
$SG430853 DB	'CEGUIOpenGLRenderer-0.dll', 00H
	ORG $+2
$SG427776 DB	'D', 00H, '3', 00H, 'D', 00H, 'E', 00H, 'R', 00H, 'R', 00H
	DB	'_', 00H, 'U', 00H, 'N', 00H, 'S', 00H, 'U', 00H, 'P', 00H, 'P'
	DB	00H, 'O', 00H, 'R', 00H, 'T', 00H, 'E', 00H, 'D', 00H, 'A', 00H
	DB	'L', 00H, 'P', 00H, 'H', 00H, 'A', 00H, 'O', 00H, 'P', 00H, 'E'
	DB	00H, 'R', 00H, 'A', 00H, 'T', 00H, 'I', 00H, 'O', 00H, 'N', 00H
	DB	00H, 00H
	ORG $+2
$SG428801 DB	' ', 00H, 'L', 00H, 'o', 00H, 'a', 00H, 'd', 00H, 'i', 00H
	DB	'n', 00H, 'g', 00H, ' ', 00H, 'p', 00H, 'r', 00H, 'o', 00H, 'x'
	DB	00H, 'y', 00H, ' ', 00H, '%', 00H, 's', 00H, '.', 00H, 'd', 00H
	DB	'l', 00H, 'l', 00H, ':', 00H, ' ', 00H, ' ', 00H, ' ', 00H, ' '
	DB	00H, 00H, 00H
	ORG $+2
$SG427778 DB	'D', 00H, '3', 00H, 'D', 00H, 'E', 00H, 'R', 00H, 'R', 00H
	DB	'_', 00H, 'U', 00H, 'N', 00H, 'S', 00H, 'U', 00H, 'P', 00H, 'P'
	DB	00H, 'O', 00H, 'R', 00H, 'T', 00H, 'E', 00H, 'D', 00H, 'A', 00H
	DB	'L', 00H, 'P', 00H, 'H', 00H, 'A', 00H, 'A', 00H, 'R', 00H, 'G'
	DB	00H, 00H, 00H
	ORG $+2
$SG427784 DB	'D', 00H, '3', 00H, 'D', 00H, 'E', 00H, 'R', 00H, 'R', 00H
	DB	'_', 00H, 'U', 00H, 'N', 00H, 'S', 00H, 'U', 00H, 'P', 00H, 'P'
	DB	00H, 'O', 00H, 'R', 00H, 'T', 00H, 'E', 00H, 'D', 00H, 'F', 00H
	DB	'A', 00H, 'C', 00H, 'T', 00H, 'O', 00H, 'R', 00H, 'V', 00H, 'A'
	DB	00H, 'L', 00H, 'U', 00H, 'E', 00H, 00H, 00H
$SG427782 DB	'D', 00H, '3', 00H, 'D', 00H, 'E', 00H, 'R', 00H, 'R', 00H
	DB	'_', 00H, 'C', 00H, 'O', 00H, 'N', 00H, 'F', 00H, 'L', 00H, 'I'
	DB	00H, 'C', 00H, 'T', 00H, 'I', 00H, 'N', 00H, 'G', 00H, 'T', 00H
	DB	'E', 00H, 'X', 00H, 'T', 00H, 'U', 00H, 'R', 00H, 'E', 00H, 'F'
	DB	00H, 'I', 00H, 'L', 00H, 'T', 00H, 'E', 00H, 'R', 00H, 00H, 00H
$SG428808 DB	' ', 00H, '(', 00H, '%', 00H, 's', 00H, ')', 00H, 0aH, 00H
	DB	00H, 00H
	ORG $+2
$SG428809 DB	' ', 00H, 'F', 00H, 'A', 00H, 'I', 00H, 'L', 00H, 'E', 00H
	DB	'D', 00H, ' ', 00H, '(', 00H, '%', 00H, 's', 00H, ')', 00H, '!'
	DB	00H, 0aH, 00H, 00H, 00H
	ORG $+2
$SG427786 DB	'D', 00H, '3', 00H, 'D', 00H, 'E', 00H, 'R', 00H, 'R', 00H
	DB	'_', 00H, 'C', 00H, 'O', 00H, 'N', 00H, 'F', 00H, 'L', 00H, 'I'
	DB	00H, 'C', 00H, 'T', 00H, 'I', 00H, 'N', 00H, 'G', 00H, 'R', 00H
	DB	'E', 00H, 'N', 00H, 'D', 00H, 'E', 00H, 'R', 00H, 'S', 00H, 'T'
	DB	00H, 'A', 00H, 'T', 00H, 'E', 00H, 00H, 00H
$SG430859 DB	'CEGUIDirect3D9Renderer-0.dll', 00H
	ORG $+3
$SG430863 DB	'CEGUIDirect3D11Renderer-0.dll', 00H
	ORG $+2
$SG428816 DB	'S', 00H, 'p', 00H, 'e', 00H, 'c', 00H, 'i', 00H, 'a', 00H
	DB	'l', 00H, 'K', 00H, 00H, 00H
	ORG $+2
$SG428811 DB	'-', 00H, '-', 00H, '-', 00H, '-', 00H, '-', 00H, '-', 00H
	DB	'-', 00H, '-', 00H, '-', 00H, '-', 00H, '-', 00H, '-', 00H, '-'
	DB	00H, '-', 00H, '-', 00H, '-', 00H, '-', 00H, '-', 00H, '-', 00H
	DB	'-', 00H, '-', 00H, '-', 00H, '-', 00H, '-', 00H, '-', 00H, '-'
	DB	00H, '-', 00H, '-', 00H, '-', 00H, '-', 00H, '-', 00H, '-', 00H
	DB	'-', 00H, '-', 00H, '-', 00H, '-', 00H, '-', 00H, '-', 00H, '-'
	DB	00H, '-', 00H, '-', 00H, '-', 00H, '-', 00H, '-', 00H, '-', 00H
	DB	'-', 00H, '-', 00H, '-', 00H, '-', 00H, '-', 00H, '-', 00H, '-'
	DB	00H, '-', 00H, '-', 00H, '-', 00H, '-', 00H, '-', 00H, '-', 00H
	DB	'-', 00H, '-', 00H, '-', 00H, '-', 00H, '-', 00H, '-', 00H, '-'
	DB	00H, '-', 00H, '-', 00H, '-', 00H, '-', 00H, '-', 00H, '-', 00H
	DB	'-', 00H, '-', 00H, '-', 00H, '-', 00H, '-', 00H, '-', 00H, '-'
	DB	00H, '-', 00H, '-', 00H, '-', 00H, '-', 00H, '-', 00H, '-', 00H
	DB	'-', 00H, '-', 00H, '-', 00H, '-', 00H, '-', 00H, '-', 00H, '-'
	DB	00H, 0aH, 00H, 00H, 00H
	ORG $+2
$SG430865 DB	't', 00H, 'b', 00H, 'f', 00H, 'i', 00H, 'x', 00H, '.', 00H
	DB	'd', 00H, 'l', 00H, 'l', 00H, 00H, 00H
$SG427788 DB	'D', 00H, '3', 00H, 'D', 00H, 'E', 00H, 'R', 00H, 'R', 00H
	DB	'_', 00H, 'U', 00H, 'N', 00H, 'S', 00H, 'U', 00H, 'P', 00H, 'P'
	DB	00H, 'O', 00H, 'R', 00H, 'T', 00H, 'E', 00H, 'D', 00H, 'T', 00H
	DB	'E', 00H, 'X', 00H, 'T', 00H, 'U', 00H, 'R', 00H, 'E', 00H, 'F'
	DB	00H, 'I', 00H, 'L', 00H, 'T', 00H, 'E', 00H, 'R', 00H, 00H, 00H
$SG427790 DB	'D', 00H, '3', 00H, 'D', 00H, 'E', 00H, 'R', 00H, 'R', 00H
	DB	'_', 00H, 'C', 00H, 'O', 00H, 'N', 00H, 'F', 00H, 'L', 00H, 'I'
	DB	00H, 'C', 00H, 'T', 00H, 'I', 00H, 'N', 00H, 'G', 00H, 'T', 00H
	DB	'E', 00H, 'X', 00H, 'T', 00H, 'U', 00H, 'R', 00H, 'E', 00H, 'P'
	DB	00H, 'A', 00H, 'L', 00H, 'E', 00H, 'T', 00H, 'T', 00H, 'E', 00H
	DB	00H, 00H
	ORG $+2
$SG427792 DB	'D', 00H, '3', 00H, 'D', 00H, 'E', 00H, 'R', 00H, 'R', 00H
	DB	'_', 00H, 'D', 00H, 'R', 00H, 'I', 00H, 'V', 00H, 'E', 00H, 'R'
	DB	00H, 'I', 00H, 'N', 00H, 'T', 00H, 'E', 00H, 'R', 00H, 'N', 00H
	DB	'A', 00H, 'L', 00H, 'E', 00H, 'R', 00H, 'R', 00H, 'O', 00H, 'R'
	DB	00H, 00H, 00H
	ORG $+2
$SG428817 DB	'.', 00H, 'l', 00H, 'o', 00H, 'g', 00H, 00H, 00H
	ORG $+2
$SG427794 DB	'D', 00H, '3', 00H, 'D', 00H, 'E', 00H, 'R', 00H, 'R', 00H
	DB	'_', 00H, 'N', 00H, 'O', 00H, 'T', 00H, 'F', 00H, 'O', 00H, 'U'
	DB	00H, 'N', 00H, 'D', 00H, 00H, 00H
$SG430867 DB	'First-frame Done', 00H
	ORG $+3
$SG427796 DB	'D', 00H, '3', 00H, 'D', 00H, 'E', 00H, 'R', 00H, 'R', 00H
	DB	'_', 00H, 'M', 00H, 'O', 00H, 'R', 00H, 'E', 00H, 'D', 00H, 'A'
	DB	00H, 'T', 00H, 'A', 00H, 00H, 00H
$SG177941 DB	'a', 00H, 't', 00H, 'l', 00H, 'T', 00H, 'r', 00H, 'a', 00H
	DB	'c', 00H, 'e', 00H, 'C', 00H, 'O', 00H, 'M', 00H, 00H, 00H
$SG427798 DB	'D', 00H, '3', 00H, 'D', 00H, 'E', 00H, 'R', 00H, 'R', 00H
	DB	'_', 00H, 'D', 00H, 'E', 00H, 'V', 00H, 'I', 00H, 'C', 00H, 'E'
	DB	00H, 'L', 00H, 'O', 00H, 'S', 00H, 'T', 00H, 00H, 00H
$SG427800 DB	'D', 00H, '3', 00H, 'D', 00H, 'E', 00H, 'R', 00H, 'R', 00H
	DB	'_', 00H, 'D', 00H, 'E', 00H, 'V', 00H, 'I', 00H, 'C', 00H, 'E'
	DB	00H, 'N', 00H, 'O', 00H, 'T', 00H, 'R', 00H, 'E', 00H, 'S', 00H
	DB	'E', 00H, 'T', 00H, 00H, 00H
$SG427802 DB	'D', 00H, '3', 00H, 'D', 00H, 'E', 00H, 'R', 00H, 'R', 00H
	DB	'_', 00H, 'N', 00H, 'O', 00H, 'T', 00H, 'A', 00H, 'V', 00H, 'A'
	DB	00H, 'I', 00H, 'L', 00H, 'A', 00H, 'B', 00H, 'L', 00H, 'E', 00H
	DB	00H, 00H
$SG427804 DB	'D', 00H, '3', 00H, 'D', 00H, 'E', 00H, 'R', 00H, 'R', 00H
	DB	'_', 00H, 'O', 00H, 'U', 00H, 'T', 00H, 'O', 00H, 'F', 00H, 'V'
	DB	00H, 'I', 00H, 'D', 00H, 'E', 00H, 'O', 00H, 'M', 00H, 'E', 00H
	DB	'M', 00H, 'O', 00H, 'R', 00H, 'Y', 00H, 00H, 00H
$SG427806 DB	'D', 00H, '3', 00H, 'D', 00H, 'E', 00H, 'R', 00H, 'R', 00H
	DB	'_', 00H, 'I', 00H, 'N', 00H, 'V', 00H, 'A', 00H, 'L', 00H, 'I'
	DB	00H, 'D', 00H, 'D', 00H, 'E', 00H, 'V', 00H, 'I', 00H, 'C', 00H
	DB	'E', 00H, 00H, 00H
	ORG $+2
$SG427808 DB	'D', 00H, '3', 00H, 'D', 00H, 'E', 00H, 'R', 00H, 'R', 00H
	DB	'_', 00H, 'I', 00H, 'N', 00H, 'V', 00H, 'A', 00H, 'L', 00H, 'I'
	DB	00H, 'D', 00H, 'C', 00H, 'A', 00H, 'L', 00H, 'L', 00H, 00H, 00H
	ORG $+2
$SG427810 DB	'D', 00H, '3', 00H, 'D', 00H, 'E', 00H, 'R', 00H, 'R', 00H
	DB	'_', 00H, 'D', 00H, 'R', 00H, 'I', 00H, 'V', 00H, 'E', 00H, 'R'
	DB	00H, 'I', 00H, 'N', 00H, 'V', 00H, 'A', 00H, 'L', 00H, 'I', 00H
	DB	'D', 00H, 'C', 00H, 'A', 00H, 'L', 00H, 'L', 00H, 00H, 00H
	ORG $+2
$SG427812 DB	'D', 00H, '3', 00H, 'D', 00H, 'E', 00H, 'R', 00H, 'R', 00H
	DB	'_', 00H, 'W', 00H, 'A', 00H, 'S', 00H, 'S', 00H, 'T', 00H, 'I'
	DB	00H, 'L', 00H, 'L', 00H, 'D', 00H, 'R', 00H, 'A', 00H, 'W', 00H
	DB	'I', 00H, 'N', 00H, 'G', 00H, 00H, 00H
	ORG $+2
$SG427814 DB	'D', 00H, '3', 00H, 'D', 00H, 'O', 00H, 'K', 00H, '_', 00H
	DB	'N', 00H, 'O', 00H, 'A', 00H, 'U', 00H, 'T', 00H, 'O', 00H, 'G'
	DB	00H, 'E', 00H, 'N', 00H, 00H, 00H
$SG427816 DB	'E', 00H, '_', 00H, 'F', 00H, 'A', 00H, 'I', 00H, 'L', 00H
	DB	00H, 00H
	ORG $+2
$SG427818 DB	'E', 00H, '_', 00H, 'I', 00H, 'N', 00H, 'V', 00H, 'A', 00H
	DB	'L', 00H, 'I', 00H, 'D', 00H, 'A', 00H, 'R', 00H, 'G', 00H, 00H
	DB	00H
	ORG $+2
$SG427820 DB	'E', 00H, '_', 00H, 'O', 00H, 'U', 00H, 'T', 00H, 'O', 00H
	DB	'F', 00H, 'M', 00H, 'E', 00H, 'M', 00H, 'O', 00H, 'R', 00H, 'Y'
	DB	00H, 00H, 00H
$SG427822 DB	'E', 00H, '_', 00H, 'P', 00H, 'O', 00H, 'I', 00H, 'N', 00H
	DB	'T', 00H, 'E', 00H, 'R', 00H, 00H, 00H
$SG427824 DB	'E', 00H, '_', 00H, 'A', 00H, 'C', 00H, 'C', 00H, 'E', 00H
	DB	'S', 00H, 'S', 00H, 'D', 00H, 'E', 00H, 'N', 00H, 'I', 00H, 'E'
	DB	00H, 'D', 00H, 00H, 00H
	ORG $+2
$SG427826 DB	'E', 00H, '_', 00H, 'H', 00H, 'A', 00H, 'N', 00H, 'D', 00H
	DB	'L', 00H, 'E', 00H, 00H, 00H
	ORG $+2
$SG427828 DB	'E', 00H, '_', 00H, 'N', 00H, 'O', 00H, 'T', 00H, 'I', 00H
	DB	'M', 00H, 'P', 00H, 'L', 00H, 00H, 00H
$SG427830 DB	'E', 00H, '_', 00H, 'N', 00H, 'O', 00H, 'I', 00H, 'N', 00H
	DB	'T', 00H, 'E', 00H, 'R', 00H, 'F', 00H, 'A', 00H, 'C', 00H, 'E'
	DB	00H, 00H, 00H
$SG427832 DB	'E', 00H, '_', 00H, 'A', 00H, 'B', 00H, 'O', 00H, 'R', 00H
	DB	'T', 00H, 00H, 00H
$SG427834 DB	'E', 00H, '_', 00H, 'U', 00H, 'N', 00H, 'E', 00H, 'X', 00H
	DB	'P', 00H, 'E', 00H, 'C', 00H, 'T', 00H, 'E', 00H, 'D', 00H, 00H
	DB	00H
	ORG $+2
$SG427836 DB	' ', 00H, '*', 00H, '*', 00H, '*', 00H, ' ', 00H, 'E', 00H
	DB	'n', 00H, 'c', 00H, 'o', 00H, 'u', 00H, 'n', 00H, 't', 00H, 'e'
	DB	00H, 'r', 00H, 'e', 00H, 'd', 00H, ' ', 00H, 'u', 00H, 'n', 00H
	DB	'k', 00H, 'n', 00H, 'o', 00H, 'w', 00H, 'n', 00H, ' ', 00H, 'H'
	DB	00H, 'R', 00H, 'E', 00H, 'S', 00H, 'U', 00H, 'L', 00H, 'T', 00H
	DB	':', 00H, ' ', 00H, '(', 00H, '0', 00H, 'x', 00H, '%', 00H, '0'
	DB	00H, '8', 00H, 'X', 00H, ')', 00H, 00H, 00H
	ORG $+2
$SG427837 DB	'U', 00H, 'N', 00H, 'K', 00H, 'N', 00H, 'O', 00H, 'W', 00H
	DB	'N', 00H, 00H, 00H
$SG177988 DB	'a', 00H, 't', 00H, 'l', 00H, 'T', 00H, 'r', 00H, 'a', 00H
	DB	'c', 00H, 'e', 00H, 'Q', 00H, 'I', 00H, 00H, 00H
	ORG $+2
$SG190286 DB	'A', 00H, 'p', 00H, 'p', 00H, 'I', 00H, 'D', 00H, 00H, 00H
$SG190287 DB	'C', 00H, 'L', 00H, 'S', 00H, 'I', 00H, 'D', 00H, 00H, 00H
$SG190288 DB	'C', 00H, 'o', 00H, 'm', 00H, 'p', 00H, 'o', 00H, 'n', 00H
	DB	'e', 00H, 'n', 00H, 't', 00H, ' ', 00H, 'C', 00H, 'a', 00H, 't'
	DB	00H, 'e', 00H, 'g', 00H, 'o', 00H, 'r', 00H, 'i', 00H, 'e', 00H
	DB	's', 00H, 00H, 00H
	ORG $+2
$SG190289 DB	'F', 00H, 'i', 00H, 'l', 00H, 'e', 00H, 'T', 00H, 'y', 00H
	DB	'p', 00H, 'e', 00H, 00H, 00H
	ORG $+2
$SG190290 DB	'I', 00H, 'n', 00H, 't', 00H, 'e', 00H, 'r', 00H, 'f', 00H
	DB	'a', 00H, 'c', 00H, 'e', 00H, 00H, 00H
$SG190291 DB	'H', 00H, 'a', 00H, 'r', 00H, 'd', 00H, 'w', 00H, 'a', 00H
	DB	'r', 00H, 'e', 00H, 00H, 00H
	ORG $+2
$SG190292 DB	'M', 00H, 'i', 00H, 'm', 00H, 'e', 00H, 00H, 00H
	ORG $+2
$SG190293 DB	'S', 00H, 'A', 00H, 'M', 00H, 00H, 00H
$SG190294 DB	'S', 00H, 'E', 00H, 'C', 00H, 'U', 00H, 'R', 00H, 'I', 00H
	DB	'T', 00H, 'Y', 00H, 00H, 00H
	ORG $+2
$SG190295 DB	'S', 00H, 'Y', 00H, 'S', 00H, 'T', 00H, 'E', 00H, 'M', 00H
	DB	00H, 00H
	ORG $+2
$SG190296 DB	'S', 00H, 'o', 00H, 'f', 00H, 't', 00H, 'w', 00H, 'a', 00H
	DB	'r', 00H, 'e', 00H, 00H, 00H
	ORG $+2
$SG190297 DB	'T', 00H, 'y', 00H, 'p', 00H, 'e', 00H, 'L', 00H, 'i', 00H
	DB	'b', 00H, 00H, 00H
$SG427887 DB	'F', 00H, 'a', 00H, 'i', 00H, 'l', 00H, 'e', 00H, 'd', 00H
	DB	'!', 00H, 0aH, 00H, 00H, 00H
	ORG $+2
$SG427883 DB	'[', 00H, ' ', 00H, 'W', 00H, 'M', 00H, 'I', 00H, ' ', 00H
	DB	'P', 00H, 'e', 00H, 'r', 00H, 'f', 00H, ' ', 00H, ']', 00H, ' '
	DB	00H, 'S', 00H, 'p', 00H, 'a', 00H, 'w', 00H, 'n', 00H, 'i', 00H
	DB	'n', 00H, 'g', 00H, ' ', 00H, 'P', 00H, 'r', 00H, 'o', 00H, 'c'
	DB	00H, 'e', 00H, 's', 00H, 's', 00H, ' ', 00H, 'M', 00H, 'o', 00H
	DB	'n', 00H, 'i', 00H, 't', 00H, 'o', 00H, 'r', 00H, '.', 00H, '.'
	DB	00H, '.', 00H, ' ', 00H, ' ', 00H, 00H, 00H
	ORG $+2
$SG427886 DB	't', 00H, 'i', 00H, 'd', 00H, '=', 00H, '0', 00H, 'x', 00H
	DB	'%', 00H, '0', 00H, '4', 00H, 'x', 00H, 0aH, 00H, 00H, 00H
$SG427891 DB	'[', 00H, ' ', 00H, 'W', 00H, 'M', 00H, 'I', 00H, ' ', 00H
	DB	'P', 00H, 'e', 00H, 'r', 00H, 'f', 00H, ' ', 00H, ']', 00H, ' '
	DB	00H, 'S', 00H, 'p', 00H, 'a', 00H, 'w', 00H, 'n', 00H, 'i', 00H
	DB	'n', 00H, 'g', 00H, ' ', 00H, 'C', 00H, 'P', 00H, 'U', 00H, ' '
	DB	00H, 'M', 00H, 'o', 00H, 'n', 00H, 'i', 00H, 't', 00H, 'o', 00H
	DB	'r', 00H, '.', 00H, '.', 00H, '.', 00H, ' ', 00H, ' ', 00H, ' '
	DB	00H, ' ', 00H, ' ', 00H, ' ', 00H, 00H, 00H
	ORG $+2
$SG178035 DB	'a', 00H, 't', 00H, 'l', 00H, 'T', 00H, 'r', 00H, 'a', 00H
	DB	'c', 00H, 'e', 00H, 'R', 00H, 'e', 00H, 'g', 00H, 'i', 00H, 's'
	DB	00H, 't', 00H, 'r', 00H, 'a', 00H, 'r', 00H, 00H, 00H
$SG427894 DB	't', 00H, 'i', 00H, 'd', 00H, '=', 00H, '0', 00H, 'x', 00H
	DB	'%', 00H, '0', 00H, '4', 00H, 'x', 00H, 0aH, 00H, 00H, 00H
$SG427895 DB	'F', 00H, 'a', 00H, 'i', 00H, 'l', 00H, 'e', 00H, 'd', 00H
	DB	'!', 00H, 0aH, 00H, 00H, 00H
	ORG $+2
$SG427898 DB	'[', 00H, ' ', 00H, 'W', 00H, 'M', 00H, 'I', 00H, ' ', 00H
	DB	'P', 00H, 'e', 00H, 'r', 00H, 'f', 00H, ' ', 00H, ']', 00H, ' '
	DB	00H, 'S', 00H, 'p', 00H, 'a', 00H, 'w', 00H, 'n', 00H, 'i', 00H
	DB	'n', 00H, 'g', 00H, ' ', 00H, 'D', 00H, 'i', 00H, 's', 00H, 'k'
	DB	00H, ' ', 00H, 'M', 00H, 'o', 00H, 'n', 00H, 'i', 00H, 't', 00H
	DB	'o', 00H, 'r', 00H, '.', 00H, '.', 00H, '.', 00H, ' ', 00H, ' '
	DB	00H, ' ', 00H, ' ', 00H, ' ', 00H, 00H, 00H
	ORG $+2
$SG427901 DB	't', 00H, 'i', 00H, 'd', 00H, '=', 00H, '0', 00H, 'x', 00H
	DB	'%', 00H, '0', 00H, '4', 00H, 'x', 00H, 0aH, 00H, 00H, 00H
$SG427902 DB	'f', 00H, 'a', 00H, 'i', 00H, 'l', 00H, 'e', 00H, 'd', 00H
	DB	'!', 00H, 0aH, 00H, 00H, 00H
	ORG $+2
$SG427908 DB	't', 00H, 'i', 00H, 'd', 00H, '=', 00H, '0', 00H, 'x', 00H
	DB	'%', 00H, '0', 00H, '4', 00H, 'x', 00H, 0aH, 00H, 00H, 00H
$SG427909 DB	'f', 00H, 'a', 00H, 'i', 00H, 'l', 00H, 'e', 00H, 'd', 00H
	DB	'!', 00H, 0aH, 00H, 00H, 00H
	ORG $+2
$SG427905 DB	'[', 00H, ' ', 00H, 'W', 00H, 'M', 00H, 'I', 00H, ' ', 00H
	DB	'P', 00H, 'e', 00H, 'r', 00H, 'f', 00H, ' ', 00H, ']', 00H, ' '
	DB	00H, 'S', 00H, 'p', 00H, 'a', 00H, 'w', 00H, 'n', 00H, 'i', 00H
	DB	'n', 00H, 'g', 00H, ' ', 00H, 'P', 00H, 'a', 00H, 'g', 00H, 'e'
	DB	00H, 'f', 00H, 'i', 00H, 'l', 00H, 'e', 00H, ' ', 00H, 'M', 00H
	DB	'o', 00H, 'n', 00H, 'i', 00H, 't', 00H, 'o', 00H, 'r', 00H, '.'
	DB	00H, '.', 00H, '.', 00H, ' ', 00H, 00H, 00H
	ORG $+2
$SG178082 DB	'a', 00H, 't', 00H, 'l', 00H, 'T', 00H, 'r', 00H, 'a', 00H
	DB	'c', 00H, 'e', 00H, 'R', 00H, 'e', 00H, 'f', 00H, 'c', 00H, 'o'
	DB	00H, 'u', 00H, 'n', 00H, 't', 00H, 00H, 00H
	ORG $+2
$SG427973 DB	'S', 00H, 'p', 00H, 'e', 00H, 'c', 00H, 'i', 00H, 'a', 00H
	DB	'l', 00H, 'K', 00H, 00H, 00H
	ORG $+2
$SG427974 DB	'S', 00H, 'p', 00H, 'e', 00H, 'c', 00H, 'i', 00H, 'a', 00H
	DB	'l', 00H, 'K', 00H, 00H, 00H
	ORG $+2
$SG427976 DB	'Manual update initiated...', 00H
	ORG $+1
$SG178129 DB	'a', 00H, 't', 00H, 'l', 00H, 'T', 00H, 'r', 00H, 'a', 00H
	DB	'c', 00H, 'e', 00H, 'W', 00H, 'i', 00H, 'n', 00H, 'd', 00H, 'o'
	DB	00H, 'w', 00H, 'i', 00H, 'n', 00H, 'g', 00H, 00H, 00H
CONST	ENDS
PUBLIC	??_H@YGXPAXIIP6EPAX0@Z@Z			; `vector constructor iterator'
PUBLIC	?__empty_global_delete@@YAXPAX@Z		; __empty_global_delete
PUBLIC	?__empty_global_delete@@YAXPAXI@Z		; __empty_global_delete
PUBLIC	__InlineInterlockedCompareExchangePointer
PUBLIC	_ReadAcquire
PUBLIC	_ReadNoFence
PUBLIC	_ReadAcquire64
PUBLIC	_ReadPointerAcquire
PUBLIC	_HRESULT_FROM_WIN32
PUBLIC	?_InterlockedCompareExchange@@YAKPCKKK@Z	; _InterlockedCompareExchange
PUBLIC	?swprintf@@YAHQA_WQB_WZZ			; swprintf
PUBLIC	??$__vcrt_va_start_verify_argument_type@QB_W@@YAXXZ ; __vcrt_va_start_verify_argument_type<wchar_t const * const>
PUBLIC	_wmemcmp
PUBLIC	_wmemcpy
PUBLIC	_wmemmove
PUBLIC	??2@YAPAXIPAX@Z					; operator new
PUBLIC	?compare@?$char_traits@_W@std@@SAHQB_W0I@Z	; std::char_traits<wchar_t>::compare
PUBLIC	?length@?$char_traits@_W@std@@SAIQB_W@Z		; std::char_traits<wchar_t>::length
PUBLIC	?copy@?$char_traits@_W@std@@SAPA_WQA_WQB_WI@Z	; std::char_traits<wchar_t>::copy
PUBLIC	?move@?$char_traits@_W@std@@SAPA_WQA_WQB_WI@Z	; std::char_traits<wchar_t>::move
PUBLIC	?assign@?$char_traits@_W@std@@SAXAA_WAB_W@Z	; std::char_traits<wchar_t>::assign
PUBLIC	?length@?$char_traits@D@std@@SAIQBD@Z		; std::char_traits<char>::length
PUBLIC	?copy@?$char_traits@D@std@@SAPADQADQBDI@Z	; std::char_traits<char>::copy
PUBLIC	?move@?$char_traits@D@std@@SAPADQADQBDI@Z	; std::char_traits<char>::move
PUBLIC	?assign@?$char_traits@D@std@@SAXAADABD@Z	; std::char_traits<char>::assign
PUBLIC	?_Orphan_all@_Container_base0@std@@QAEXXZ	; std::_Container_base0::_Orphan_all
PUBLIC	?_Adopt@_Iterator_base0@std@@QAEXPBX@Z		; std::_Iterator_base0::_Adopt
PUBLIC	??0_Container_proxy@std@@QAE@XZ			; std::_Container_proxy::_Container_proxy
PUBLIC	??0_Container_base12@std@@QAE@XZ		; std::_Container_base12::_Container_base12
PUBLIC	??1_Container_base12@std@@QAE@XZ		; std::_Container_base12::~_Container_base12
PUBLIC	?_Orphan_all@_Container_base12@std@@QAEXXZ	; std::_Container_base12::_Orphan_all
PUBLIC	?_Swap_all@_Container_base12@std@@QAEXAAU12@@Z	; std::_Container_base12::_Swap_all
PUBLIC	??0_Iterator_base12@std@@QAE@XZ			; std::_Iterator_base12::_Iterator_base12
PUBLIC	??1_Iterator_base12@std@@QAE@XZ			; std::_Iterator_base12::~_Iterator_base12
PUBLIC	?_Adopt@_Iterator_base12@std@@QAEXPBU_Container_base12@2@@Z ; std::_Iterator_base12::_Adopt
PUBLIC	?_Getcont@_Iterator_base12@std@@QBEPBU_Container_base12@2@XZ ; std::_Iterator_base12::_Getcont
PUBLIC	?WaitForInit@@YAXXZ				; WaitForInit
PUBLIC	?SK_InitCore@@YGXPB_WPAX@Z			; SK_InitCore
PUBLIC	?SK_StartupCore@@YG_NPB_WPAX@Z			; SK_StartupCore
PUBLIC	?SK_ShutdownCore@@YG_NPB_W@Z			; SK_ShutdownCore
PUBLIC	?SK_BeginBufferSwap@@YGXXZ			; SK_BeginBufferSwap
PUBLIC	?SK_EndBufferSwap@@YGJJPAUIUnknown@@@Z		; SK_EndBufferSwap
PUBLIC	?SK_DescribeHRESULT@@YGPB_WJ@Z			; SK_DescribeHRESULT
PUBLIC	?SK_SetConfigPath@@YGXPB_W@Z			; SK_SetConfigPath
PUBLIC	?SK_GetDLLRole@@YG?AW4DLL_ROLE@@XZ		; SK_GetDLLRole
PUBLIC	?SK_SetDLLRole@@YAXW4DLL_ROLE@@@Z		; SK_SetDLLRole
PUBLIC	?SK_HasGlobalInjector@@YG_NXZ			; SK_HasGlobalInjector
PUBLIC	?SK_GetFramesDrawn@@YGKXZ			; SK_GetFramesDrawn
PUBLIC	?SK_Win32_CreateDummyWindow@@YAPAUHWND__@@XZ	; SK_Win32_CreateDummyWindow
PUBLIC	?SK_Win32_CleanupDummyWindow@@YAXXZ		; SK_Win32_CleanupDummyWindow
PUBLIC	?_Allocate@std@@YAPAXII_N@Z			; std::_Allocate
PUBLIC	?_Deallocate@std@@YAXPAXII@Z			; std::_Deallocate
PUBLIC	??0?$allocator@D@std@@QAE@XZ			; std::allocator<char>::allocator<char>
PUBLIC	?deallocate@?$allocator@D@std@@QAEXPADI@Z	; std::allocator<char>::deallocate
PUBLIC	?allocate@?$allocator@D@std@@QAEPADI@Z		; std::allocator<char>::allocate
PUBLIC	?max_size@?$allocator@D@std@@QBEIXZ		; std::allocator<char>::max_size
PUBLIC	?max_size@?$allocator_traits@V?$allocator@D@std@@@std@@SAIABV?$allocator@D@2@@Z ; std::allocator_traits<std::allocator<char> >::max_size
PUBLIC	??0?$_Wrap_alloc@V?$allocator@D@std@@@std@@QAE@XZ ; std::_Wrap_alloc<std::allocator<char> >::_Wrap_alloc<std::allocator<char> >
PUBLIC	?allocate@?$_Wrap_alloc@V?$allocator@D@std@@@std@@QAEPADI@Z ; std::_Wrap_alloc<std::allocator<char> >::allocate
PUBLIC	?deallocate@?$_Wrap_alloc@V?$allocator@D@std@@@std@@QAEXPADI@Z ; std::_Wrap_alloc<std::allocator<char> >::deallocate
PUBLIC	?max_size@?$_Wrap_alloc@V?$allocator@D@std@@@std@@QBEIU_Nil@2@@Z ; std::_Wrap_alloc<std::allocator<char> >::max_size
PUBLIC	??0?$_String_val@U?$_Simple_types@D@std@@@std@@QAE@XZ ; std::_String_val<std::_Simple_types<char> >::_String_val<std::_Simple_types<char> >
PUBLIC	?_Myptr@?$_String_val@U?$_Simple_types@D@std@@@std@@QAEPADXZ ; std::_String_val<std::_Simple_types<char> >::_Myptr
PUBLIC	?_Myptr@?$_String_val@U?$_Simple_types@D@std@@@std@@QBEPBDXZ ; std::_String_val<std::_Simple_types<char> >::_Myptr
PUBLIC	?_Large_string_engaged@?$_String_val@U?$_Simple_types@D@std@@@std@@QBE_NXZ ; std::_String_val<std::_Simple_types<char> >::_Large_string_engaged
PUBLIC	??0_Bxty@?$_String_val@U?$_Simple_types@D@std@@@std@@QAE@XZ ; std::_String_val<std::_Simple_types<char> >::_Bxty::_Bxty
PUBLIC	??1_Bxty@?$_String_val@U?$_Simple_types@D@std@@@std@@QAE@XZ ; std::_String_val<std::_Simple_types<char> >::_Bxty::~_Bxty
PUBLIC	??1?$_String_val@U?$_Simple_types@D@std@@@std@@QAE@XZ ; std::_String_val<std::_Simple_types<char> >::~_String_val<std::_Simple_types<char> >
PUBLIC	?_Myptr@?$_String_alloc@U?$_String_base_types@DV?$allocator@D@std@@@std@@@std@@QAEPADXZ ; std::_String_alloc<std::_String_base_types<char,std::allocator<char> > >::_Myptr
PUBLIC	?_Myptr@?$_String_alloc@U?$_String_base_types@DV?$allocator@D@std@@@std@@@std@@QBEPBDXZ ; std::_String_alloc<std::_String_base_types<char,std::allocator<char> > >::_Myptr
PUBLIC	??0?$_String_alloc@U?$_String_base_types@DV?$allocator@D@std@@@std@@@std@@QAE@XZ ; std::_String_alloc<std::_String_base_types<char,std::allocator<char> > >::_String_alloc<std::_String_base_types<char,std::allocator<char> > >
PUBLIC	?_Orphan_all@?$_String_alloc@U?$_String_base_types@DV?$allocator@D@std@@@std@@@std@@QAEXXZ ; std::_String_alloc<std::_String_base_types<char,std::allocator<char> > >::_Orphan_all
PUBLIC	?_Getal@?$_String_alloc@U?$_String_base_types@DV?$allocator@D@std@@@std@@@std@@QAEAAU?$_Wrap_alloc@V?$allocator@D@std@@@2@XZ ; std::_String_alloc<std::_String_base_types<char,std::allocator<char> > >::_Getal
PUBLIC	?_Getal@?$_String_alloc@U?$_String_base_types@DV?$allocator@D@std@@@std@@@std@@QBEABU?$_Wrap_alloc@V?$allocator@D@std@@@2@XZ ; std::_String_alloc<std::_String_base_types<char,std::allocator<char> > >::_Getal
PUBLIC	?_Get_data@?$_String_alloc@U?$_String_base_types@DV?$allocator@D@std@@@std@@@std@@QAEAAV?$_String_val@U?$_Simple_types@D@std@@@2@XZ ; std::_String_alloc<std::_String_base_types<char,std::allocator<char> > >::_Get_data
PUBLIC	?_Get_data@?$_String_alloc@U?$_String_base_types@DV?$allocator@D@std@@@std@@@std@@QBEABV?$_String_val@U?$_Simple_types@D@std@@@2@XZ ; std::_String_alloc<std::_String_base_types<char,std::allocator<char> > >::_Get_data
PUBLIC	?_Mysize@?$_String_alloc@U?$_String_base_types@DV?$allocator@D@std@@@std@@@std@@QAEAAIXZ ; std::_String_alloc<std::_String_base_types<char,std::allocator<char> > >::_Mysize
PUBLIC	?_Mysize@?$_String_alloc@U?$_String_base_types@DV?$allocator@D@std@@@std@@@std@@QBEABIXZ ; std::_String_alloc<std::_String_base_types<char,std::allocator<char> > >::_Mysize
PUBLIC	?_Myres@?$_String_alloc@U?$_String_base_types@DV?$allocator@D@std@@@std@@@std@@QAEAAIXZ ; std::_String_alloc<std::_String_base_types<char,std::allocator<char> > >::_Myres
PUBLIC	?_Get_first@?$_Compressed_pair@U?$_Wrap_alloc@V?$allocator@D@std@@@std@@V?$_String_val@U?$_Simple_types@D@std@@@2@$00@std@@QAEAAU?$_Wrap_alloc@V?$allocator@D@std@@@2@XZ ; std::_Compressed_pair<std::_Wrap_alloc<std::allocator<char> >,std::_String_val<std::_Simple_types<char> >,1>::_Get_first
PUBLIC	?_Get_first@?$_Compressed_pair@U?$_Wrap_alloc@V?$allocator@D@std@@@std@@V?$_String_val@U?$_Simple_types@D@std@@@2@$00@std@@QBEABU?$_Wrap_alloc@V?$allocator@D@std@@@2@XZ ; std::_Compressed_pair<std::_Wrap_alloc<std::allocator<char> >,std::_String_val<std::_Simple_types<char> >,1>::_Get_first
PUBLIC	?_Get_second@?$_Compressed_pair@U?$_Wrap_alloc@V?$allocator@D@std@@@std@@V?$_String_val@U?$_Simple_types@D@std@@@2@$00@std@@QAEAAV?$_String_val@U?$_Simple_types@D@std@@@2@XZ ; std::_Compressed_pair<std::_Wrap_alloc<std::allocator<char> >,std::_String_val<std::_Simple_types<char> >,1>::_Get_second
PUBLIC	?_Get_second@?$_Compressed_pair@U?$_Wrap_alloc@V?$allocator@D@std@@@std@@V?$_String_val@U?$_Simple_types@D@std@@@2@$00@std@@QBEABV?$_String_val@U?$_Simple_types@D@std@@@2@XZ ; std::_Compressed_pair<std::_Wrap_alloc<std::allocator<char> >,std::_String_val<std::_Simple_types<char> >,1>::_Get_second
PUBLIC	??1?$_Compressed_pair@U?$_Wrap_alloc@V?$allocator@D@std@@@std@@V?$_String_val@U?$_Simple_types@D@std@@@2@$00@std@@QAE@XZ ; std::_Compressed_pair<std::_Wrap_alloc<std::allocator<char> >,std::_String_val<std::_Simple_types<char> >,1>::~_Compressed_pair<std::_Wrap_alloc<std::allocator<char> >,std::_String_val<std::_Simple_types<char> >,1>
PUBLIC	??1?$_String_alloc@U?$_String_base_types@DV?$allocator@D@std@@@std@@@std@@QAE@XZ ; std::_String_alloc<std::_String_base_types<char,std::allocator<char> > >::~_String_alloc<std::_String_base_types<char,std::allocator<char> > >
PUBLIC	??0?$basic_string@DU?$char_traits@D@std@@V?$allocator@D@2@@std@@QAE@QBD@Z ; std::basic_string<char,std::char_traits<char>,std::allocator<char> >::basic_string<char,std::char_traits<char>,std::allocator<char> >
PUBLIC	??1?$basic_string@DU?$char_traits@D@std@@V?$allocator@D@2@@std@@QAE@XZ ; std::basic_string<char,std::char_traits<char>,std::allocator<char> >::~basic_string<char,std::char_traits<char>,std::allocator<char> >
PUBLIC	?assign@?$basic_string@DU?$char_traits@D@std@@V?$allocator@D@2@@std@@QAEAAV12@ABV12@II@Z ; std::basic_string<char,std::char_traits<char>,std::allocator<char> >::assign
PUBLIC	?assign@?$basic_string@DU?$char_traits@D@std@@V?$allocator@D@2@@std@@QAEAAV12@QBDI@Z ; std::basic_string<char,std::char_traits<char>,std::allocator<char> >::assign
PUBLIC	?assign@?$basic_string@DU?$char_traits@D@std@@V?$allocator@D@2@@std@@QAEAAV12@QBD@Z ; std::basic_string<char,std::char_traits<char>,std::allocator<char> >::assign
PUBLIC	?erase@?$basic_string@DU?$char_traits@D@std@@V?$allocator@D@2@@std@@QAEAAV12@I@Z ; std::basic_string<char,std::char_traits<char>,std::allocator<char> >::erase
PUBLIC	?erase@?$basic_string@DU?$char_traits@D@std@@V?$allocator@D@2@@std@@QAEAAV12@II@Z ; std::basic_string<char,std::char_traits<char>,std::allocator<char> >::erase
PUBLIC	?max_size@?$basic_string@DU?$char_traits@D@std@@V?$allocator@D@2@@std@@QBEIXZ ; std::basic_string<char,std::char_traits<char>,std::allocator<char> >::max_size
PUBLIC	?_Clamp_suffix_size@?$basic_string@DU?$char_traits@D@std@@V?$allocator@D@2@@std@@QBEIII@Z ; std::basic_string<char,std::char_traits<char>,std::allocator<char> >::_Clamp_suffix_size
PUBLIC	?_Copy@?$basic_string@DU?$char_traits@D@std@@V?$allocator@D@2@@std@@QAEXI@Z ; std::basic_string<char,std::char_traits<char>,std::allocator<char> >::_Copy
PUBLIC	?_Eos@?$basic_string@DU?$char_traits@D@std@@V?$allocator@D@2@@std@@QAEXI@Z ; std::basic_string<char,std::char_traits<char>,std::allocator<char> >::_Eos
PUBLIC	?_Grow@?$basic_string@DU?$char_traits@D@std@@V?$allocator@D@2@@std@@QAE_NI@Z ; std::basic_string<char,std::char_traits<char>,std::allocator<char> >::_Grow
PUBLIC	?_Inside@?$basic_string@DU?$char_traits@D@std@@V?$allocator@D@2@@std@@QBE_NQBD@Z ; std::basic_string<char,std::char_traits<char>,std::allocator<char> >::_Inside
PUBLIC	?_Tidy_init@?$basic_string@DU?$char_traits@D@std@@V?$allocator@D@2@@std@@QAEXXZ ; std::basic_string<char,std::char_traits<char>,std::allocator<char> >::_Tidy_init
PUBLIC	?_Tidy_deallocate@?$basic_string@DU?$char_traits@D@std@@V?$allocator@D@2@@std@@QAEXXZ ; std::basic_string<char,std::char_traits<char>,std::allocator<char> >::_Tidy_deallocate
PUBLIC	?_Xlen@?$basic_string@DU?$char_traits@D@std@@V?$allocator@D@2@@std@@SAXXZ ; std::basic_string<char,std::char_traits<char>,std::allocator<char> >::_Xlen
PUBLIC	?_Check_offset@?$basic_string@DU?$char_traits@D@std@@V?$allocator@D@2@@std@@QBEXI@Z ; std::basic_string<char,std::char_traits<char>,std::allocator<char> >::_Check_offset
PUBLIC	?_Xran@?$basic_string@DU?$char_traits@D@std@@V?$allocator@D@2@@std@@SAXXZ ; std::basic_string<char,std::char_traits<char>,std::allocator<char> >::_Xran
PUBLIC	??0?$allocator@_W@std@@QAE@XZ			; std::allocator<wchar_t>::allocator<wchar_t>
PUBLIC	??0?$allocator@_W@std@@QAE@ABV01@@Z		; std::allocator<wchar_t>::allocator<wchar_t>
PUBLIC	?deallocate@?$allocator@_W@std@@QAEXPA_WI@Z	; std::allocator<wchar_t>::deallocate
PUBLIC	?allocate@?$allocator@_W@std@@QAEPA_WI@Z	; std::allocator<wchar_t>::allocate
PUBLIC	?max_size@?$allocator@_W@std@@QBEIXZ		; std::allocator<wchar_t>::max_size
PUBLIC	?max_size@?$allocator_traits@V?$allocator@_W@std@@@std@@SAIABV?$allocator@_W@2@@Z ; std::allocator_traits<std::allocator<wchar_t> >::max_size
PUBLIC	?select_on_container_copy_construction@?$allocator_traits@V?$allocator@_W@std@@@std@@SA?AV?$allocator@_W@2@ABV32@@Z ; std::allocator_traits<std::allocator<wchar_t> >::select_on_container_copy_construction
PUBLIC	?select_on_container_copy_construction@?$_Wrap_alloc@V?$allocator@_W@std@@@std@@QBE?AU12@U_Nil@2@@Z ; std::_Wrap_alloc<std::allocator<wchar_t> >::select_on_container_copy_construction
PUBLIC	??0?$_Wrap_alloc@V?$allocator@_W@std@@@std@@QAE@XZ ; std::_Wrap_alloc<std::allocator<wchar_t> >::_Wrap_alloc<std::allocator<wchar_t> >
PUBLIC	??0?$_Wrap_alloc@V?$allocator@_W@std@@@std@@QAE@$$QAU01@@Z ; std::_Wrap_alloc<std::allocator<wchar_t> >::_Wrap_alloc<std::allocator<wchar_t> >
PUBLIC	?allocate@?$_Wrap_alloc@V?$allocator@_W@std@@@std@@QAEPA_WI@Z ; std::_Wrap_alloc<std::allocator<wchar_t> >::allocate
PUBLIC	?deallocate@?$_Wrap_alloc@V?$allocator@_W@std@@@std@@QAEXPA_WI@Z ; std::_Wrap_alloc<std::allocator<wchar_t> >::deallocate
PUBLIC	?max_size@?$_Wrap_alloc@V?$allocator@_W@std@@@std@@QBEIU_Nil@2@@Z ; std::_Wrap_alloc<std::allocator<wchar_t> >::max_size
PUBLIC	??0?$_String_val@U?$_Simple_types@_W@std@@@std@@QAE@XZ ; std::_String_val<std::_Simple_types<wchar_t> >::_String_val<std::_Simple_types<wchar_t> >
PUBLIC	?_Myptr@?$_String_val@U?$_Simple_types@_W@std@@@std@@QAEPA_WXZ ; std::_String_val<std::_Simple_types<wchar_t> >::_Myptr
PUBLIC	?_Myptr@?$_String_val@U?$_Simple_types@_W@std@@@std@@QBEPB_WXZ ; std::_String_val<std::_Simple_types<wchar_t> >::_Myptr
PUBLIC	?_Large_string_engaged@?$_String_val@U?$_Simple_types@_W@std@@@std@@QBE_NXZ ; std::_String_val<std::_Simple_types<wchar_t> >::_Large_string_engaged
PUBLIC	??0_Bxty@?$_String_val@U?$_Simple_types@_W@std@@@std@@QAE@XZ ; std::_String_val<std::_Simple_types<wchar_t> >::_Bxty::_Bxty
PUBLIC	??1_Bxty@?$_String_val@U?$_Simple_types@_W@std@@@std@@QAE@XZ ; std::_String_val<std::_Simple_types<wchar_t> >::_Bxty::~_Bxty
PUBLIC	??1?$_String_val@U?$_Simple_types@_W@std@@@std@@QAE@XZ ; std::_String_val<std::_Simple_types<wchar_t> >::~_String_val<std::_Simple_types<wchar_t> >
PUBLIC	?_Myptr@?$_String_alloc@U?$_String_base_types@_WV?$allocator@_W@std@@@std@@@std@@QAEPA_WXZ ; std::_String_alloc<std::_String_base_types<wchar_t,std::allocator<wchar_t> > >::_Myptr
PUBLIC	?_Myptr@?$_String_alloc@U?$_String_base_types@_WV?$allocator@_W@std@@@std@@@std@@QBEPB_WXZ ; std::_String_alloc<std::_String_base_types<wchar_t,std::allocator<wchar_t> > >::_Myptr
PUBLIC	??0?$_String_alloc@U?$_String_base_types@_WV?$allocator@_W@std@@@std@@@std@@QAE@XZ ; std::_String_alloc<std::_String_base_types<wchar_t,std::allocator<wchar_t> > >::_String_alloc<std::_String_base_types<wchar_t,std::allocator<wchar_t> > >
PUBLIC	?_Orphan_all@?$_String_alloc@U?$_String_base_types@_WV?$allocator@_W@std@@@std@@@std@@QAEXXZ ; std::_String_alloc<std::_String_base_types<wchar_t,std::allocator<wchar_t> > >::_Orphan_all
PUBLIC	?_Getal@?$_String_alloc@U?$_String_base_types@_WV?$allocator@_W@std@@@std@@@std@@QAEAAU?$_Wrap_alloc@V?$allocator@_W@std@@@2@XZ ; std::_String_alloc<std::_String_base_types<wchar_t,std::allocator<wchar_t> > >::_Getal
PUBLIC	?_Getal@?$_String_alloc@U?$_String_base_types@_WV?$allocator@_W@std@@@std@@@std@@QBEABU?$_Wrap_alloc@V?$allocator@_W@std@@@2@XZ ; std::_String_alloc<std::_String_base_types<wchar_t,std::allocator<wchar_t> > >::_Getal
PUBLIC	?_Get_data@?$_String_alloc@U?$_String_base_types@_WV?$allocator@_W@std@@@std@@@std@@QAEAAV?$_String_val@U?$_Simple_types@_W@std@@@2@XZ ; std::_String_alloc<std::_String_base_types<wchar_t,std::allocator<wchar_t> > >::_Get_data
PUBLIC	?_Get_data@?$_String_alloc@U?$_String_base_types@_WV?$allocator@_W@std@@@std@@@std@@QBEABV?$_String_val@U?$_Simple_types@_W@std@@@2@XZ ; std::_String_alloc<std::_String_base_types<wchar_t,std::allocator<wchar_t> > >::_Get_data
PUBLIC	?_Mysize@?$_String_alloc@U?$_String_base_types@_WV?$allocator@_W@std@@@std@@@std@@QAEAAIXZ ; std::_String_alloc<std::_String_base_types<wchar_t,std::allocator<wchar_t> > >::_Mysize
PUBLIC	?_Mysize@?$_String_alloc@U?$_String_base_types@_WV?$allocator@_W@std@@@std@@@std@@QBEABIXZ ; std::_String_alloc<std::_String_base_types<wchar_t,std::allocator<wchar_t> > >::_Mysize
PUBLIC	?_Myres@?$_String_alloc@U?$_String_base_types@_WV?$allocator@_W@std@@@std@@@std@@QAEAAIXZ ; std::_String_alloc<std::_String_base_types<wchar_t,std::allocator<wchar_t> > >::_Myres
PUBLIC	?_Myres@?$_String_alloc@U?$_String_base_types@_WV?$allocator@_W@std@@@std@@@std@@QBEABIXZ ; std::_String_alloc<std::_String_base_types<wchar_t,std::allocator<wchar_t> > >::_Myres
PUBLIC	?_Get_first@?$_Compressed_pair@U?$_Wrap_alloc@V?$allocator@_W@std@@@std@@V?$_String_val@U?$_Simple_types@_W@std@@@2@$00@std@@QAEAAU?$_Wrap_alloc@V?$allocator@_W@std@@@2@XZ ; std::_Compressed_pair<std::_Wrap_alloc<std::allocator<wchar_t> >,std::_String_val<std::_Simple_types<wchar_t> >,1>::_Get_first
PUBLIC	?_Get_first@?$_Compressed_pair@U?$_Wrap_alloc@V?$allocator@_W@std@@@std@@V?$_String_val@U?$_Simple_types@_W@std@@@2@$00@std@@QBEABU?$_Wrap_alloc@V?$allocator@_W@std@@@2@XZ ; std::_Compressed_pair<std::_Wrap_alloc<std::allocator<wchar_t> >,std::_String_val<std::_Simple_types<wchar_t> >,1>::_Get_first
PUBLIC	?_Get_second@?$_Compressed_pair@U?$_Wrap_alloc@V?$allocator@_W@std@@@std@@V?$_String_val@U?$_Simple_types@_W@std@@@2@$00@std@@QAEAAV?$_String_val@U?$_Simple_types@_W@std@@@2@XZ ; std::_Compressed_pair<std::_Wrap_alloc<std::allocator<wchar_t> >,std::_String_val<std::_Simple_types<wchar_t> >,1>::_Get_second
PUBLIC	?_Get_second@?$_Compressed_pair@U?$_Wrap_alloc@V?$allocator@_W@std@@@std@@V?$_String_val@U?$_Simple_types@_W@std@@@2@$00@std@@QBEABV?$_String_val@U?$_Simple_types@_W@std@@@2@XZ ; std::_Compressed_pair<std::_Wrap_alloc<std::allocator<wchar_t> >,std::_String_val<std::_Simple_types<wchar_t> >,1>::_Get_second
PUBLIC	??1?$_Compressed_pair@U?$_Wrap_alloc@V?$allocator@_W@std@@@std@@V?$_String_val@U?$_Simple_types@_W@std@@@2@$00@std@@QAE@XZ ; std::_Compressed_pair<std::_Wrap_alloc<std::allocator<wchar_t> >,std::_String_val<std::_Simple_types<wchar_t> >,1>::~_Compressed_pair<std::_Wrap_alloc<std::allocator<wchar_t> >,std::_String_val<std::_Simple_types<wchar_t> >,1>
PUBLIC	??1?$_String_alloc@U?$_String_base_types@_WV?$allocator@_W@std@@@std@@@std@@QAE@XZ ; std::_String_alloc<std::_String_base_types<wchar_t,std::allocator<wchar_t> > >::~_String_alloc<std::_String_base_types<wchar_t,std::allocator<wchar_t> > >
PUBLIC	??0?$basic_string@_WU?$char_traits@_W@std@@V?$allocator@_W@2@@std@@QAE@ABV01@@Z ; std::basic_string<wchar_t,std::char_traits<wchar_t>,std::allocator<wchar_t> >::basic_string<wchar_t,std::char_traits<wchar_t>,std::allocator<wchar_t> >
PUBLIC	??0?$basic_string@_WU?$char_traits@_W@std@@V?$allocator@_W@2@@std@@QAE@XZ ; std::basic_string<wchar_t,std::char_traits<wchar_t>,std::allocator<wchar_t> >::basic_string<wchar_t,std::char_traits<wchar_t>,std::allocator<wchar_t> >
PUBLIC	??0?$basic_string@_WU?$char_traits@_W@std@@V?$allocator@_W@2@@std@@QAE@QB_W@Z ; std::basic_string<wchar_t,std::char_traits<wchar_t>,std::allocator<wchar_t> >::basic_string<wchar_t,std::char_traits<wchar_t>,std::allocator<wchar_t> >
PUBLIC	??0?$basic_string@_WU?$char_traits@_W@std@@V?$allocator@_W@2@@std@@QAE@$$QAV01@@Z ; std::basic_string<wchar_t,std::char_traits<wchar_t>,std::allocator<wchar_t> >::basic_string<wchar_t,std::char_traits<wchar_t>,std::allocator<wchar_t> >
PUBLIC	?_Assign_rv_contents_with_alloc_always_equal@?$basic_string@_WU?$char_traits@_W@std@@V?$allocator@_W@2@@std@@QAEX$$QAV12@U?$integral_constant@_N$00@2@@Z ; std::basic_string<wchar_t,std::char_traits<wchar_t>,std::allocator<wchar_t> >::_Assign_rv_contents_with_alloc_always_equal
PUBLIC	?_Assign_lv_contents@?$basic_string@_WU?$char_traits@_W@std@@V?$allocator@_W@2@@std@@QAEXABV12@@Z ; std::basic_string<wchar_t,std::char_traits<wchar_t>,std::allocator<wchar_t> >::_Assign_lv_contents
PUBLIC	??1?$basic_string@_WU?$char_traits@_W@std@@V?$allocator@_W@2@@std@@QAE@XZ ; std::basic_string<wchar_t,std::char_traits<wchar_t>,std::allocator<wchar_t> >::~basic_string<wchar_t,std::char_traits<wchar_t>,std::allocator<wchar_t> >
PUBLIC	??4?$basic_string@_WU?$char_traits@_W@std@@V?$allocator@_W@2@@std@@QAEAAV01@QB_W@Z ; std::basic_string<wchar_t,std::char_traits<wchar_t>,std::allocator<wchar_t> >::operator=
PUBLIC	??Y?$basic_string@_WU?$char_traits@_W@std@@V?$allocator@_W@2@@std@@QAEAAV01@ABV01@@Z ; std::basic_string<wchar_t,std::char_traits<wchar_t>,std::allocator<wchar_t> >::operator+=
PUBLIC	??Y?$basic_string@_WU?$char_traits@_W@std@@V?$allocator@_W@2@@std@@QAEAAV01@QB_W@Z ; std::basic_string<wchar_t,std::char_traits<wchar_t>,std::allocator<wchar_t> >::operator+=
PUBLIC	?append@?$basic_string@_WU?$char_traits@_W@std@@V?$allocator@_W@2@@std@@QAEAAV12@ABV12@@Z ; std::basic_string<wchar_t,std::char_traits<wchar_t>,std::allocator<wchar_t> >::append
PUBLIC	?append@?$basic_string@_WU?$char_traits@_W@std@@V?$allocator@_W@2@@std@@QAEAAV12@ABV12@II@Z ; std::basic_string<wchar_t,std::char_traits<wchar_t>,std::allocator<wchar_t> >::append
PUBLIC	?append@?$basic_string@_WU?$char_traits@_W@std@@V?$allocator@_W@2@@std@@QAEAAV12@QB_WI@Z ; std::basic_string<wchar_t,std::char_traits<wchar_t>,std::allocator<wchar_t> >::append
PUBLIC	?append@?$basic_string@_WU?$char_traits@_W@std@@V?$allocator@_W@2@@std@@QAEAAV12@QB_W@Z ; std::basic_string<wchar_t,std::char_traits<wchar_t>,std::allocator<wchar_t> >::append
PUBLIC	?assign@?$basic_string@_WU?$char_traits@_W@std@@V?$allocator@_W@2@@std@@QAEAAV12@ABV12@II@Z ; std::basic_string<wchar_t,std::char_traits<wchar_t>,std::allocator<wchar_t> >::assign
PUBLIC	?assign@?$basic_string@_WU?$char_traits@_W@std@@V?$allocator@_W@2@@std@@QAEAAV12@QB_WI@Z ; std::basic_string<wchar_t,std::char_traits<wchar_t>,std::allocator<wchar_t> >::assign
PUBLIC	?assign@?$basic_string@_WU?$char_traits@_W@std@@V?$allocator@_W@2@@std@@QAEAAV12@QB_W@Z ; std::basic_string<wchar_t,std::char_traits<wchar_t>,std::allocator<wchar_t> >::assign
PUBLIC	?insert@?$basic_string@_WU?$char_traits@_W@std@@V?$allocator@_W@2@@std@@QAEAAV12@IABV12@@Z ; std::basic_string<wchar_t,std::char_traits<wchar_t>,std::allocator<wchar_t> >::insert
PUBLIC	?insert@?$basic_string@_WU?$char_traits@_W@std@@V?$allocator@_W@2@@std@@QAEAAV12@IABV12@II@Z ; std::basic_string<wchar_t,std::char_traits<wchar_t>,std::allocator<wchar_t> >::insert
PUBLIC	?erase@?$basic_string@_WU?$char_traits@_W@std@@V?$allocator@_W@2@@std@@QAEAAV12@I@Z ; std::basic_string<wchar_t,std::char_traits<wchar_t>,std::allocator<wchar_t> >::erase
PUBLIC	?erase@?$basic_string@_WU?$char_traits@_W@std@@V?$allocator@_W@2@@std@@QAEAAV12@II@Z ; std::basic_string<wchar_t,std::char_traits<wchar_t>,std::allocator<wchar_t> >::erase
PUBLIC	?c_str@?$basic_string@_WU?$char_traits@_W@std@@V?$allocator@_W@2@@std@@QBEPB_WXZ ; std::basic_string<wchar_t,std::char_traits<wchar_t>,std::allocator<wchar_t> >::c_str
PUBLIC	?size@?$basic_string@_WU?$char_traits@_W@std@@V?$allocator@_W@2@@std@@QBEIXZ ; std::basic_string<wchar_t,std::char_traits<wchar_t>,std::allocator<wchar_t> >::size
PUBLIC	?max_size@?$basic_string@_WU?$char_traits@_W@std@@V?$allocator@_W@2@@std@@QBEIXZ ; std::basic_string<wchar_t,std::char_traits<wchar_t>,std::allocator<wchar_t> >::max_size
PUBLIC	?capacity@?$basic_string@_WU?$char_traits@_W@std@@V?$allocator@_W@2@@std@@QBEIXZ ; std::basic_string<wchar_t,std::char_traits<wchar_t>,std::allocator<wchar_t> >::capacity
PUBLIC	?reserve@?$basic_string@_WU?$char_traits@_W@std@@V?$allocator@_W@2@@std@@QAEXI@Z ; std::basic_string<wchar_t,std::char_traits<wchar_t>,std::allocator<wchar_t> >::reserve
PUBLIC	?_Clamp_suffix_size@?$basic_string@_WU?$char_traits@_W@std@@V?$allocator@_W@2@@std@@QBEIII@Z ; std::basic_string<wchar_t,std::char_traits<wchar_t>,std::allocator<wchar_t> >::_Clamp_suffix_size
PUBLIC	?_Equal@?$basic_string@_WU?$char_traits@_W@std@@V?$allocator@_W@2@@std@@QBE_NQB_W@Z ; std::basic_string<wchar_t,std::char_traits<wchar_t>,std::allocator<wchar_t> >::_Equal
PUBLIC	?_Copy@?$basic_string@_WU?$char_traits@_W@std@@V?$allocator@_W@2@@std@@QAEXI@Z ; std::basic_string<wchar_t,std::char_traits<wchar_t>,std::allocator<wchar_t> >::_Copy
PUBLIC	?_Eos@?$basic_string@_WU?$char_traits@_W@std@@V?$allocator@_W@2@@std@@QAEXI@Z ; std::basic_string<wchar_t,std::char_traits<wchar_t>,std::allocator<wchar_t> >::_Eos
PUBLIC	?_Grow@?$basic_string@_WU?$char_traits@_W@std@@V?$allocator@_W@2@@std@@QAE_NI@Z ; std::basic_string<wchar_t,std::char_traits<wchar_t>,std::allocator<wchar_t> >::_Grow
PUBLIC	?_Inside@?$basic_string@_WU?$char_traits@_W@std@@V?$allocator@_W@2@@std@@QBE_NQB_W@Z ; std::basic_string<wchar_t,std::char_traits<wchar_t>,std::allocator<wchar_t> >::_Inside
PUBLIC	?_Tidy_init@?$basic_string@_WU?$char_traits@_W@std@@V?$allocator@_W@2@@std@@QAEXXZ ; std::basic_string<wchar_t,std::char_traits<wchar_t>,std::allocator<wchar_t> >::_Tidy_init
PUBLIC	?_Tidy_deallocate@?$basic_string@_WU?$char_traits@_W@std@@V?$allocator@_W@2@@std@@QAEXXZ ; std::basic_string<wchar_t,std::char_traits<wchar_t>,std::allocator<wchar_t> >::_Tidy_deallocate
PUBLIC	?_Xlen@?$basic_string@_WU?$char_traits@_W@std@@V?$allocator@_W@2@@std@@SAXXZ ; std::basic_string<wchar_t,std::char_traits<wchar_t>,std::allocator<wchar_t> >::_Xlen
PUBLIC	?_Check_offset@?$basic_string@_WU?$char_traits@_W@std@@V?$allocator@_W@2@@std@@QBEXI@Z ; std::basic_string<wchar_t,std::char_traits<wchar_t>,std::allocator<wchar_t> >::_Check_offset
PUBLIC	?_Xran@?$basic_string@_WU?$char_traits@_W@std@@V?$allocator@_W@2@@std@@SAXXZ ; std::basic_string<wchar_t,std::char_traits<wchar_t>,std::allocator<wchar_t> >::_Xran
PUBLIC	??1AutoClose@iSK_Logger@@QAE@XZ			; iSK_Logger::AutoClose::~AutoClose
PUBLIC	??0AutoClose@iSK_Logger@@IAE@PAU1@@Z		; iSK_Logger::AutoClose::AutoClose
PUBLIC	?auto_close@iSK_Logger@@QAE?AVAutoClose@1@XZ	; iSK_Logger::auto_close
PUBLIC	?SK_GetRootPath@@YGPB_WXZ			; SK_GetRootPath
PUBLIC	?lock@SK_Thread_CriticalSection@@QAEXXZ		; SK_Thread_CriticalSection::lock
PUBLIC	?unlock@SK_Thread_CriticalSection@@QAEXXZ	; SK_Thread_CriticalSection::unlock
PUBLIC	??0SK_ICommandResult@@QAE@PBD00HPBUSK_IVariable@@PBUSK_ICommand@@@Z ; SK_ICommandResult::SK_ICommandResult
PUBLIC	??1SK_ICommandResult@@QAE@XZ			; SK_ICommandResult::~SK_ICommandResult
PUBLIC	?getHelp@SK_ICommand@@UAEPBDXZ			; SK_ICommand::getHelp
PUBLIC	?getNumArgs@SK_ICommand@@UAEHXZ			; SK_ICommand::getNumArgs
PUBLIC	?getNumOptionalArgs@SK_ICommand@@UAEHXZ		; SK_ICommand::getNumOptionalArgs
PUBLIC	?getNumRequiredArgs@SK_ICommand@@UAEHXZ		; SK_ICommand::getNumRequiredArgs
PUBLIC	??0SK_ICommand@@QAE@XZ				; SK_ICommand::SK_ICommand
PUBLIC	?InterlockedExchangePointer@@YGPAXPAPAXPAX@Z	; InterlockedExchangePointer
PUBLIC	??0?$CTraceCategoryEx@$0IAAAA@$0A@@ATL@@QAE@PB_W@Z ; ATL::CTraceCategoryEx<524288,0>::CTraceCategoryEx<524288,0>
PUBLIC	??0?$CTraceCategoryEx@$00$0A@@ATL@@QAE@PB_W@Z	; ATL::CTraceCategoryEx<1,0>::CTraceCategoryEx<1,0>
PUBLIC	??0?$CTraceCategoryEx@$01$0A@@ATL@@QAE@PB_W@Z	; ATL::CTraceCategoryEx<2,0>::CTraceCategoryEx<2,0>
PUBLIC	??0?$CTraceCategoryEx@$03$0A@@ATL@@QAE@PB_W@Z	; ATL::CTraceCategoryEx<4,0>::CTraceCategoryEx<4,0>
PUBLIC	??0?$CTraceCategoryEx@$07$0A@@ATL@@QAE@PB_W@Z	; ATL::CTraceCategoryEx<8,0>::CTraceCategoryEx<8,0>
PUBLIC	??0?$CTraceCategoryEx@$0BA@$0A@@ATL@@QAE@PB_W@Z	; ATL::CTraceCategoryEx<16,0>::CTraceCategoryEx<16,0>
PUBLIC	??0?$CTraceCategoryEx@$0CA@$0A@@ATL@@QAE@PB_W@Z	; ATL::CTraceCategoryEx<32,0>::CTraceCategoryEx<32,0>
PUBLIC	??0?$CTraceCategoryEx@$0EA@$0A@@ATL@@QAE@PB_W@Z	; ATL::CTraceCategoryEx<64,0>::CTraceCategoryEx<64,0>
PUBLIC	??0?$CTraceCategoryEx@$0IA@$0A@@ATL@@QAE@PB_W@Z	; ATL::CTraceCategoryEx<128,0>::CTraceCategoryEx<128,0>
PUBLIC	??0?$CTraceCategoryEx@$0BAA@$0A@@ATL@@QAE@PB_W@Z ; ATL::CTraceCategoryEx<256,0>::CTraceCategoryEx<256,0>
PUBLIC	??0?$CTraceCategoryEx@$0CAA@$0A@@ATL@@QAE@PB_W@Z ; ATL::CTraceCategoryEx<512,0>::CTraceCategoryEx<512,0>
PUBLIC	??0?$CTraceCategoryEx@$0EAA@$0A@@ATL@@QAE@PB_W@Z ; ATL::CTraceCategoryEx<1024,0>::CTraceCategoryEx<1024,0>
PUBLIC	??0?$CTraceCategoryEx@$0IAA@$0A@@ATL@@QAE@PB_W@Z ; ATL::CTraceCategoryEx<2048,0>::CTraceCategoryEx<2048,0>
PUBLIC	??0?$CTraceCategoryEx@$0BAAA@$0A@@ATL@@QAE@PB_W@Z ; ATL::CTraceCategoryEx<4096,0>::CTraceCategoryEx<4096,0>
PUBLIC	??0?$CTraceCategoryEx@$0CAAA@$0A@@ATL@@QAE@PB_W@Z ; ATL::CTraceCategoryEx<8192,0>::CTraceCategoryEx<8192,0>
PUBLIC	??0?$CTraceCategoryEx@$0EAAA@$0A@@ATL@@QAE@PB_W@Z ; ATL::CTraceCategoryEx<16384,0>::CTraceCategoryEx<16384,0>
PUBLIC	??0?$CTraceCategoryEx@$0IAAA@$0A@@ATL@@QAE@PB_W@Z ; ATL::CTraceCategoryEx<32768,0>::CTraceCategoryEx<32768,0>
PUBLIC	??0?$CTraceCategoryEx@$0BAAAA@$0A@@ATL@@QAE@PB_W@Z ; ATL::CTraceCategoryEx<65536,0>::CTraceCategoryEx<65536,0>
PUBLIC	??0?$CTraceCategoryEx@$0CAAAA@$0A@@ATL@@QAE@PB_W@Z ; ATL::CTraceCategoryEx<131072,0>::CTraceCategoryEx<131072,0>
PUBLIC	??0?$CTraceCategoryEx@$0EAAAA@$0A@@ATL@@QAE@PB_W@Z ; ATL::CTraceCategoryEx<262144,0>::CTraceCategoryEx<262144,0>
PUBLIC	??0?$CTraceCategoryEx@$0BAAAAA@$0A@@ATL@@QAE@PB_W@Z ; ATL::CTraceCategoryEx<1048576,0>::CTraceCategoryEx<1048576,0>
PUBLIC	??0?$CTraceCategoryEx@$0CAAAAA@$0A@@ATL@@QAE@PB_W@Z ; ATL::CTraceCategoryEx<2097152,0>::CTraceCategoryEx<2097152,0>
PUBLIC	??0?$CTraceCategoryEx@$0EAAAAA@$0A@@ATL@@QAE@PB_W@Z ; ATL::CTraceCategoryEx<4194304,0>::CTraceCategoryEx<4194304,0>
PUBLIC	?_AtlRaiseException@ATL@@YAXKK@Z		; ATL::_AtlRaiseException
PUBLIC	?_AtlInitializeCriticalSectionEx@ATL@@YAHPAU_RTL_CRITICAL_SECTION@@KK@Z ; ATL::_AtlInitializeCriticalSectionEx
PUBLIC	??0CComCriticalSection@ATL@@QAE@XZ		; ATL::CComCriticalSection::CComCriticalSection
PUBLIC	??1CComCriticalSection@ATL@@QAE@XZ		; ATL::CComCriticalSection::~CComCriticalSection
PUBLIC	?Init@CComCriticalSection@ATL@@QAEJXZ		; ATL::CComCriticalSection::Init
PUBLIC	?Term@CComCriticalSection@ATL@@QAEJXZ		; ATL::CComCriticalSection::Term
PUBLIC	?GetModuleInstance@CAtlBaseModule@ATL@@QAEPAUHINSTANCE__@@XZ ; ATL::CAtlBaseModule::GetModuleInstance
PUBLIC	??0_ATL_COM_MODULE70@ATL@@QAE@XZ		; ATL::_ATL_COM_MODULE70::_ATL_COM_MODULE70
PUBLIC	??1_ATL_COM_MODULE70@ATL@@QAE@XZ		; ATL::_ATL_COM_MODULE70::~_ATL_COM_MODULE70
PUBLIC	??0?$CSimpleArray@GV?$CSimpleArrayEqualHelper@G@ATL@@@ATL@@QAE@XZ ; ATL::CSimpleArray<unsigned short,ATL::CSimpleArrayEqualHelper<unsigned short> >::CSimpleArray<unsigned short,ATL::CSimpleArrayEqualHelper<unsigned short> >
PUBLIC	??1?$CSimpleArray@GV?$CSimpleArrayEqualHelper@G@ATL@@@ATL@@QAE@XZ ; ATL::CSimpleArray<unsigned short,ATL::CSimpleArrayEqualHelper<unsigned short> >::~CSimpleArray<unsigned short,ATL::CSimpleArrayEqualHelper<unsigned short> >
PUBLIC	?GetSize@?$CSimpleArray@GV?$CSimpleArrayEqualHelper@G@ATL@@@ATL@@QBEHXZ ; ATL::CSimpleArray<unsigned short,ATL::CSimpleArrayEqualHelper<unsigned short> >::GetSize
PUBLIC	?RemoveAll@?$CSimpleArray@GV?$CSimpleArrayEqualHelper@G@ATL@@@ATL@@QAEXXZ ; ATL::CSimpleArray<unsigned short,ATL::CSimpleArrayEqualHelper<unsigned short> >::RemoveAll
PUBLIC	??A?$CSimpleArray@GV?$CSimpleArrayEqualHelper@G@ATL@@@ATL@@QAEAAGH@Z ; ATL::CSimpleArray<unsigned short,ATL::CSimpleArrayEqualHelper<unsigned short> >::operator[]
PUBLIC	??0_ATL_WIN_MODULE70@ATL@@QAE@XZ		; ATL::_ATL_WIN_MODULE70::_ATL_WIN_MODULE70
PUBLIC	??1_ATL_WIN_MODULE70@ATL@@QAE@XZ		; ATL::_ATL_WIN_MODULE70::~_ATL_WIN_MODULE70
PUBLIC	?AtlWinModuleInit@ATL@@YGJPAU_ATL_WIN_MODULE70@1@@Z ; ATL::AtlWinModuleInit
PUBLIC	?AtlWinModuleTerm@ATL@@YGJPAU_ATL_WIN_MODULE70@1@PAUHINSTANCE__@@@Z ; ATL::AtlWinModuleTerm
PUBLIC	??0CAtlComModule@ATL@@QAE@XZ			; ATL::CAtlComModule::CAtlComModule
PUBLIC	??1CAtlComModule@ATL@@QAE@XZ			; ATL::CAtlComModule::~CAtlComModule
PUBLIC	?Term@CAtlComModule@ATL@@QAEXXZ			; ATL::CAtlComModule::Term
PUBLIC	??0CAtlWinModule@ATL@@QAE@XZ			; ATL::CAtlWinModule::CAtlWinModule
PUBLIC	??1CAtlWinModule@ATL@@QAE@XZ			; ATL::CAtlWinModule::~CAtlWinModule
PUBLIC	?Term@CAtlWinModule@ATL@@QAEXXZ			; ATL::CAtlWinModule::Term
PUBLIC	?SK_GetNaiveConfigPath@@YGPB_WXZ		; SK_GetNaiveConfigPath
PUBLIC	??0SK_ImGui_WidgetRegistry@@QAE@XZ		; SK_ImGui_WidgetRegistry::SK_ImGui_WidgetRegistry
PUBLIC	?isActive@SK_Widget@@QBE_NXZ			; SK_Widget::isActive
PUBLIC	??0?$allocator@K@std@@QAE@XZ			; std::allocator<unsigned long>::allocator<unsigned long>
PUBLIC	??0?$allocator@K@std@@QAE@ABV01@@Z		; std::allocator<unsigned long>::allocator<unsigned long>
PUBLIC	?deallocate@?$allocator@K@std@@QAEXPAKI@Z	; std::allocator<unsigned long>::deallocate
PUBLIC	?allocate@?$allocator@K@std@@QAEPAKI@Z		; std::allocator<unsigned long>::allocate
PUBLIC	?max_size@?$allocator@K@std@@QBEIXZ		; std::allocator<unsigned long>::max_size
PUBLIC	?max_size@?$allocator_traits@V?$allocator@K@std@@@std@@SAIABV?$allocator@K@2@@Z ; std::allocator_traits<std::allocator<unsigned long> >::max_size
PUBLIC	?select_on_container_copy_construction@?$allocator_traits@V?$allocator@K@std@@@std@@SA?AV?$allocator@K@2@ABV32@@Z ; std::allocator_traits<std::allocator<unsigned long> >::select_on_container_copy_construction
PUBLIC	?select_on_container_copy_construction@?$_Wrap_alloc@V?$allocator@K@std@@@std@@QBE?AU12@U_Nil@2@@Z ; std::_Wrap_alloc<std::allocator<unsigned long> >::select_on_container_copy_construction
PUBLIC	??0?$_Wrap_alloc@V?$allocator@K@std@@@std@@QAE@XZ ; std::_Wrap_alloc<std::allocator<unsigned long> >::_Wrap_alloc<std::allocator<unsigned long> >
PUBLIC	??0?$_Wrap_alloc@V?$allocator@K@std@@@std@@QAE@$$QAU01@@Z ; std::_Wrap_alloc<std::allocator<unsigned long> >::_Wrap_alloc<std::allocator<unsigned long> >
PUBLIC	??4?$_Wrap_alloc@V?$allocator@K@std@@@std@@QAEAAU01@$$QAU01@@Z ; std::_Wrap_alloc<std::allocator<unsigned long> >::operator=
PUBLIC	?allocate@?$_Wrap_alloc@V?$allocator@K@std@@@std@@QAEPAKI@Z ; std::_Wrap_alloc<std::allocator<unsigned long> >::allocate
PUBLIC	?deallocate@?$_Wrap_alloc@V?$allocator@K@std@@@std@@QAEXPAKI@Z ; std::_Wrap_alloc<std::allocator<unsigned long> >::deallocate
PUBLIC	?max_size@?$_Wrap_alloc@V?$allocator@K@std@@@std@@QBEIU_Nil@2@@Z ; std::_Wrap_alloc<std::allocator<unsigned long> >::max_size
PUBLIC	?deallocate@?$allocator@PAK@std@@QAEXPAPAKI@Z	; std::allocator<unsigned long *>::deallocate
PUBLIC	?allocate@?$allocator@PAK@std@@QAEPAPAKI@Z	; std::allocator<unsigned long *>::allocate
PUBLIC	?allocate@?$_Wrap_alloc@V?$allocator@PAK@std@@@std@@QAEPAPAKI@Z ; std::_Wrap_alloc<std::allocator<unsigned long *> >::allocate
PUBLIC	?deallocate@?$_Wrap_alloc@V?$allocator@PAK@std@@@std@@QAEXPAPAKI@Z ; std::_Wrap_alloc<std::allocator<unsigned long *> >::deallocate
PUBLIC	?_Getblock@?$_Deque_alloc@U?$_Deque_base_types@KV?$allocator@K@std@@@std@@@std@@QBEII@Z ; std::_Deque_alloc<std::_Deque_base_types<unsigned long,std::allocator<unsigned long> > >::_Getblock
PUBLIC	??0?$_Deque_alloc@U?$_Deque_base_types@KV?$allocator@K@std@@@std@@@std@@QAE@XZ ; std::_Deque_alloc<std::_Deque_base_types<unsigned long,std::allocator<unsigned long> > >::_Deque_alloc<std::_Deque_base_types<unsigned long,std::allocator<unsigned long> > >
PUBLIC	??1?$_Deque_alloc@U?$_Deque_base_types@KV?$allocator@K@std@@@std@@@std@@QAE@XZ ; std::_Deque_alloc<std::_Deque_base_types<unsigned long,std::allocator<unsigned long> > >::~_Deque_alloc<std::_Deque_base_types<unsigned long,std::allocator<unsigned long> > >
PUBLIC	?_Move_alloc@?$_Deque_alloc@U?$_Deque_base_types@KV?$allocator@K@std@@@std@@@std@@QAEXAAU?$_Wrap_alloc@V?$allocator@K@std@@@2@@Z ; std::_Deque_alloc<std::_Deque_base_types<unsigned long,std::allocator<unsigned long> > >::_Move_alloc
PUBLIC	?_Alloc_proxy@?$_Deque_alloc@U?$_Deque_base_types@KV?$allocator@K@std@@@std@@@std@@QAEXXZ ; std::_Deque_alloc<std::_Deque_base_types<unsigned long,std::allocator<unsigned long> > >::_Alloc_proxy
PUBLIC	?_Free_proxy@?$_Deque_alloc@U?$_Deque_base_types@KV?$allocator@K@std@@@std@@@std@@QAEXXZ ; std::_Deque_alloc<std::_Deque_base_types<unsigned long,std::allocator<unsigned long> > >::_Free_proxy
PUBLIC	?_Myproxy@?$_Deque_alloc@U?$_Deque_base_types@KV?$allocator@K@std@@@std@@@std@@QAEAAPAU_Container_proxy@2@XZ ; std::_Deque_alloc<std::_Deque_base_types<unsigned long,std::allocator<unsigned long> > >::_Myproxy
PUBLIC	?_Orphan_all@?$_Deque_alloc@U?$_Deque_base_types@KV?$allocator@K@std@@@std@@@std@@QAEXXZ ; std::_Deque_alloc<std::_Deque_base_types<unsigned long,std::allocator<unsigned long> > >::_Orphan_all
PUBLIC	?_Swap_all@?$_Deque_alloc@U?$_Deque_base_types@KV?$allocator@K@std@@@std@@@std@@QAEXAAV12@@Z ; std::_Deque_alloc<std::_Deque_base_types<unsigned long,std::allocator<unsigned long> > >::_Swap_all
PUBLIC	?_Getal@?$_Deque_alloc@U?$_Deque_base_types@KV?$allocator@K@std@@@std@@@std@@QAEAAU?$_Wrap_alloc@V?$allocator@K@std@@@2@XZ ; std::_Deque_alloc<std::_Deque_base_types<unsigned long,std::allocator<unsigned long> > >::_Getal
PUBLIC	?_Getal@?$_Deque_alloc@U?$_Deque_base_types@KV?$allocator@K@std@@@std@@@std@@QBEABU?$_Wrap_alloc@V?$allocator@K@std@@@2@XZ ; std::_Deque_alloc<std::_Deque_base_types<unsigned long,std::allocator<unsigned long> > >::_Getal
PUBLIC	?_Get_data@?$_Deque_alloc@U?$_Deque_base_types@KV?$allocator@K@std@@@std@@@std@@QAEAAV?$_Deque_val@U?$_Deque_simple_types@K@std@@@2@XZ ; std::_Deque_alloc<std::_Deque_base_types<unsigned long,std::allocator<unsigned long> > >::_Get_data
PUBLIC	?_Get_data@?$_Deque_alloc@U?$_Deque_base_types@KV?$allocator@K@std@@@std@@@std@@QBEABV?$_Deque_val@U?$_Deque_simple_types@K@std@@@2@XZ ; std::_Deque_alloc<std::_Deque_base_types<unsigned long,std::allocator<unsigned long> > >::_Get_data
PUBLIC	?_Map@?$_Deque_alloc@U?$_Deque_base_types@KV?$allocator@K@std@@@std@@@std@@QAEAAPAPAKXZ ; std::_Deque_alloc<std::_Deque_base_types<unsigned long,std::allocator<unsigned long> > >::_Map
PUBLIC	?_Mapsize@?$_Deque_alloc@U?$_Deque_base_types@KV?$allocator@K@std@@@std@@@std@@QAEAAIXZ ; std::_Deque_alloc<std::_Deque_base_types<unsigned long,std::allocator<unsigned long> > >::_Mapsize
PUBLIC	?_Myoff@?$_Deque_alloc@U?$_Deque_base_types@KV?$allocator@K@std@@@std@@@std@@QAEAAIXZ ; std::_Deque_alloc<std::_Deque_base_types<unsigned long,std::allocator<unsigned long> > >::_Myoff
PUBLIC	?_Myoff@?$_Deque_alloc@U?$_Deque_base_types@KV?$allocator@K@std@@@std@@@std@@QBEABIXZ ; std::_Deque_alloc<std::_Deque_base_types<unsigned long,std::allocator<unsigned long> > >::_Myoff
PUBLIC	?_Mysize@?$_Deque_alloc@U?$_Deque_base_types@KV?$allocator@K@std@@@std@@@std@@QAEAAIXZ ; std::_Deque_alloc<std::_Deque_base_types<unsigned long,std::allocator<unsigned long> > >::_Mysize
PUBLIC	?_Mysize@?$_Deque_alloc@U?$_Deque_base_types@KV?$allocator@K@std@@@std@@@std@@QBEABIXZ ; std::_Deque_alloc<std::_Deque_base_types<unsigned long,std::allocator<unsigned long> > >::_Mysize
PUBLIC	??0?$_Deque_val@U?$_Deque_simple_types@K@std@@@std@@QAE@XZ ; std::_Deque_val<std::_Deque_simple_types<unsigned long> >::_Deque_val<std::_Deque_simple_types<unsigned long> >
PUBLIC	?_Getblock@?$_Deque_val@U?$_Deque_simple_types@K@std@@@std@@QBEII@Z ; std::_Deque_val<std::_Deque_simple_types<unsigned long> >::_Getblock
PUBLIC	??1?$_Deque_val@U?$_Deque_simple_types@K@std@@@std@@QAE@XZ ; std::_Deque_val<std::_Deque_simple_types<unsigned long> >::~_Deque_val<std::_Deque_simple_types<unsigned long> >
PUBLIC	?_Get_first@?$_Compressed_pair@U?$_Wrap_alloc@V?$allocator@K@std@@@std@@V?$_Deque_val@U?$_Deque_simple_types@K@std@@@2@$00@std@@QAEAAU?$_Wrap_alloc@V?$allocator@K@std@@@2@XZ ; std::_Compressed_pair<std::_Wrap_alloc<std::allocator<unsigned long> >,std::_Deque_val<std::_Deque_simple_types<unsigned long> >,1>::_Get_first
PUBLIC	?_Get_first@?$_Compressed_pair@U?$_Wrap_alloc@V?$allocator@K@std@@@std@@V?$_Deque_val@U?$_Deque_simple_types@K@std@@@2@$00@std@@QBEABU?$_Wrap_alloc@V?$allocator@K@std@@@2@XZ ; std::_Compressed_pair<std::_Wrap_alloc<std::allocator<unsigned long> >,std::_Deque_val<std::_Deque_simple_types<unsigned long> >,1>::_Get_first
PUBLIC	?_Get_second@?$_Compressed_pair@U?$_Wrap_alloc@V?$allocator@K@std@@@std@@V?$_Deque_val@U?$_Deque_simple_types@K@std@@@2@$00@std@@QAEAAV?$_Deque_val@U?$_Deque_simple_types@K@std@@@2@XZ ; std::_Compressed_pair<std::_Wrap_alloc<std::allocator<unsigned long> >,std::_Deque_val<std::_Deque_simple_types<unsigned long> >,1>::_Get_second
PUBLIC	?_Get_second@?$_Compressed_pair@U?$_Wrap_alloc@V?$allocator@K@std@@@std@@V?$_Deque_val@U?$_Deque_simple_types@K@std@@@2@$00@std@@QBEABV?$_Deque_val@U?$_Deque_simple_types@K@std@@@2@XZ ; std::_Compressed_pair<std::_Wrap_alloc<std::allocator<unsigned long> >,std::_Deque_val<std::_Deque_simple_types<unsigned long> >,1>::_Get_second
PUBLIC	??1?$_Compressed_pair@U?$_Wrap_alloc@V?$allocator@K@std@@@std@@V?$_Deque_val@U?$_Deque_simple_types@K@std@@@2@$00@std@@QAE@XZ ; std::_Compressed_pair<std::_Wrap_alloc<std::allocator<unsigned long> >,std::_Deque_val<std::_Deque_simple_types<unsigned long> >,1>::~_Compressed_pair<std::_Wrap_alloc<std::allocator<unsigned long> >,std::_Deque_val<std::_Deque_simple_types<unsigned long> >,1>
PUBLIC	??0?$deque@KV?$allocator@K@std@@@std@@QAE@XZ	; std::deque<unsigned long,std::allocator<unsigned long> >::deque<unsigned long,std::allocator<unsigned long> >
PUBLIC	??0?$deque@KV?$allocator@K@std@@@std@@QAE@ABV01@@Z ; std::deque<unsigned long,std::allocator<unsigned long> >::deque<unsigned long,std::allocator<unsigned long> >
PUBLIC	??4?$deque@KV?$allocator@K@std@@@std@@QAEAAV01@$$QAV01@@Z ; std::deque<unsigned long,std::allocator<unsigned long> >::operator=
PUBLIC	?_Assign_rv@?$deque@KV?$allocator@K@std@@@std@@QAEX$$QAV12@U?$integral_constant@_N$00@2@@Z ; std::deque<unsigned long,std::allocator<unsigned long> >::_Assign_rv
PUBLIC	??1?$deque@KV?$allocator@K@std@@@std@@QAE@XZ	; std::deque<unsigned long,std::allocator<unsigned long> >::~deque<unsigned long,std::allocator<unsigned long> >
PUBLIC	?begin@?$deque@KV?$allocator@K@std@@@std@@QBE?AV?$_Deque_const_iterator@V?$_Deque_val@U?$_Deque_simple_types@K@std@@@std@@@2@XZ ; std::deque<unsigned long,std::allocator<unsigned long> >::begin
PUBLIC	?end@?$deque@KV?$allocator@K@std@@@std@@QBE?AV?$_Deque_const_iterator@V?$_Deque_val@U?$_Deque_simple_types@K@std@@@std@@@2@XZ ; std::deque<unsigned long,std::allocator<unsigned long> >::end
PUBLIC	?max_size@?$deque@KV?$allocator@K@std@@@std@@QBEIXZ ; std::deque<unsigned long,std::allocator<unsigned long> >::max_size
PUBLIC	?empty@?$deque@KV?$allocator@K@std@@@std@@QBE_NXZ ; std::deque<unsigned long,std::allocator<unsigned long> >::empty
PUBLIC	?pop_back@?$deque@KV?$allocator@K@std@@@std@@QAEXXZ ; std::deque<unsigned long,std::allocator<unsigned long> >::pop_back
PUBLIC	?_Xlen@?$deque@KV?$allocator@K@std@@@std@@IBEXXZ ; std::deque<unsigned long,std::allocator<unsigned long> >::_Xlen
PUBLIC	?_Growmap@?$deque@KV?$allocator@K@std@@@std@@IAEXI@Z ; std::deque<unsigned long,std::allocator<unsigned long> >::_Growmap
PUBLIC	?_Tidy@?$deque@KV?$allocator@K@std@@@std@@IAEXXZ ; std::deque<unsigned long,std::allocator<unsigned long> >::_Tidy
PUBLIC	??0?$queue@KV?$deque@KV?$allocator@K@std@@@std@@@std@@QAE@XZ ; std::queue<unsigned long,std::deque<unsigned long,std::allocator<unsigned long> > >::queue<unsigned long,std::deque<unsigned long,std::allocator<unsigned long> > >
PUBLIC	??1?$queue@KV?$deque@KV?$allocator@K@std@@@std@@@std@@QAE@XZ ; std::queue<unsigned long,std::deque<unsigned long,std::allocator<unsigned long> > >::~queue<unsigned long,std::deque<unsigned long,std::allocator<unsigned long> > >
PUBLIC	??0?$queue@KV?$deque@KV?$allocator@K@std@@@std@@@std@@QAE@ABV01@@Z ; std::queue<unsigned long,std::deque<unsigned long,std::allocator<unsigned long> > >::queue<unsigned long,std::deque<unsigned long,std::allocator<unsigned long> > >
PUBLIC	??4?$queue@KV?$deque@KV?$allocator@K@std@@@std@@@std@@QAEAAV01@$$QAV01@@Z ; std::queue<unsigned long,std::deque<unsigned long,std::allocator<unsigned long> > >::operator=
PUBLIC	??0init_params_t@@QAE@XZ			; init_params_t::init_params_t
PUBLIC	?SK_GetBackend@@YGPB_WXZ			; SK_GetBackend
PUBLIC	?osd_pump@@YGKPAX@Z				; osd_pump
PUBLIC	?SK_StartPerfMonThreads@@YGXXZ			; SK_StartPerfMonThreads
PUBLIC	?execute@skMemCmd@@UAE?AUSK_ICommandResult@@PBD@Z ; skMemCmd::execute
PUBLIC	?getNumArgs@skMemCmd@@UAEHXZ			; skMemCmd::getNumArgs
PUBLIC	?getNumOptionalArgs@skMemCmd@@UAEHXZ		; skMemCmd::getNumOptionalArgs
PUBLIC	?getNumRequiredArgs@skMemCmd@@UAEHXZ		; skMemCmd::getNumRequiredArgs
PUBLIC	??0skMemCmd@@QAE@XZ				; skMemCmd::skMemCmd
PUBLIC	?execute@skUpdateCmd@@UAE?AUSK_ICommandResult@@PBD@Z ; skUpdateCmd::execute
PUBLIC	?getNumArgs@skUpdateCmd@@UAEHXZ			; skUpdateCmd::getNumArgs
PUBLIC	?getNumOptionalArgs@skUpdateCmd@@UAEHXZ		; skUpdateCmd::getNumOptionalArgs
PUBLIC	?getNumRequiredArgs@skUpdateCmd@@UAEHXZ		; skUpdateCmd::getNumRequiredArgs
PUBLIC	??0skUpdateCmd@@QAE@XZ				; skUpdateCmd::skUpdateCmd
PUBLIC	?CheckVersionThread@@YGKPAX@Z			; CheckVersionThread
PUBLIC	?SK_InitFinishCallback@@YGXXZ			; SK_InitFinishCallback
PUBLIC	?DllThread@@YGKPAX@Z				; DllThread
PUBLIC	??$?H_WU?$char_traits@_W@std@@V?$allocator@_W@1@@std@@YA?AV?$basic_string@_WU?$char_traits@_W@std@@V?$allocator@_W@2@@0@ABV10@QB_W@Z ; std::operator+<wchar_t,std::char_traits<wchar_t>,std::allocator<wchar_t> >
PUBLIC	??$?H_WU?$char_traits@_W@std@@V?$allocator@_W@1@@std@@YA?AV?$basic_string@_WU?$char_traits@_W@std@@V?$allocator@_W@2@@0@$$QAV10@QB_W@Z ; std::operator+<wchar_t,std::char_traits<wchar_t>,std::allocator<wchar_t> >
PUBLIC	??0sk_user_profile_s@@QAE@XZ			; sk_user_profile_s::sk_user_profile_s
PUBLIC	?SK_EstablishRootPath@@YGXXZ			; SK_EstablishRootPath
PUBLIC	?SK_ReenterCore@@YGXXZ				; SK_ReenterCore
PUBLIC	??$?H_WU?$char_traits@_W@std@@V?$allocator@_W@1@@std@@YA?AV?$basic_string@_WU?$char_traits@_W@std@@V?$allocator@_W@2@@0@$$QAV10@0@Z ; std::operator+<wchar_t,std::char_traits<wchar_t>,std::allocator<wchar_t> >
PUBLIC	??1?$pair@V?$queue@KV?$deque@KV?$allocator@K@std@@@std@@@std@@H@std@@QAE@XZ ; std::pair<std::queue<unsigned long,std::deque<unsigned long,std::allocator<unsigned long> > >,int>::~pair<std::queue<unsigned long,std::deque<unsigned long,std::allocator<unsigned long> > >,int>
PUBLIC	??$?8_WU?$char_traits@_W@std@@V?$allocator@_W@1@@std@@YA_NABV?$basic_string@_WU?$char_traits@_W@std@@V?$allocator@_W@2@@0@QB_W@Z ; std::operator==<wchar_t,std::char_traits<wchar_t>,std::allocator<wchar_t> >
PUBLIC	?_Kfn@?$_Tset_traits@PAUHWND__@@U?$less@PAUHWND__@@@std@@V?$allocator@PAUHWND__@@@3@$0A@@std@@SAABQAUHWND__@@ABQAU3@@Z ; std::_Tset_traits<HWND__ *,std::less<HWND__ *>,std::allocator<HWND__ *>,0>::_Kfn
PUBLIC	??0?$allocator@U?$_Tree_node@PAUHWND__@@PAX@std@@@std@@QAE@XZ ; std::allocator<std::_Tree_node<HWND__ *,void *> >::allocator<std::_Tree_node<HWND__ *,void *> >
PUBLIC	?deallocate@?$allocator@U?$_Tree_node@PAUHWND__@@PAX@std@@@std@@QAEXPAU?$_Tree_node@PAUHWND__@@PAX@2@I@Z ; std::allocator<std::_Tree_node<HWND__ *,void *> >::deallocate
PUBLIC	?allocate@?$allocator@U?$_Tree_node@PAUHWND__@@PAX@std@@@std@@QAEPAU?$_Tree_node@PAUHWND__@@PAX@2@I@Z ; std::allocator<std::_Tree_node<HWND__ *,void *> >::allocate
PUBLIC	?max_size@?$allocator@U?$_Tree_node@PAUHWND__@@PAX@std@@@std@@QBEIXZ ; std::allocator<std::_Tree_node<HWND__ *,void *> >::max_size
PUBLIC	?max_size@?$allocator_traits@V?$allocator@U?$_Tree_node@PAUHWND__@@PAX@std@@@std@@@std@@SAIABV?$allocator@U?$_Tree_node@PAUHWND__@@PAX@std@@@2@@Z ; std::allocator_traits<std::allocator<std::_Tree_node<HWND__ *,void *> > >::max_size
PUBLIC	??0?$_Wrap_alloc@V?$allocator@U?$_Tree_node@PAUHWND__@@PAX@std@@@std@@@std@@QAE@XZ ; std::_Wrap_alloc<std::allocator<std::_Tree_node<HWND__ *,void *> > >::_Wrap_alloc<std::allocator<std::_Tree_node<HWND__ *,void *> > >
PUBLIC	?allocate@?$_Wrap_alloc@V?$allocator@U?$_Tree_node@PAUHWND__@@PAX@std@@@std@@@std@@QAEPAU?$_Tree_node@PAUHWND__@@PAX@2@I@Z ; std::_Wrap_alloc<std::allocator<std::_Tree_node<HWND__ *,void *> > >::allocate
PUBLIC	?deallocate@?$_Wrap_alloc@V?$allocator@U?$_Tree_node@PAUHWND__@@PAX@std@@@std@@@std@@QAEXPAU?$_Tree_node@PAUHWND__@@PAX@2@I@Z ; std::_Wrap_alloc<std::allocator<std::_Tree_node<HWND__ *,void *> > >::deallocate
PUBLIC	?max_size@?$_Wrap_alloc@V?$allocator@U?$_Tree_node@PAUHWND__@@PAX@std@@@std@@@std@@QBEIU_Nil@2@@Z ; std::_Wrap_alloc<std::allocator<std::_Tree_node<HWND__ *,void *> > >::max_size
PUBLIC	?_Color@?$_Tree_comp_alloc@V?$_Tset_traits@PAUHWND__@@U?$less@PAUHWND__@@@std@@V?$allocator@PAUHWND__@@@3@$0A@@std@@@std@@SAAADPAU?$_Tree_node@PAUHWND__@@PAX@2@@Z ; std::_Tree_comp_alloc<std::_Tset_traits<HWND__ *,std::less<HWND__ *>,std::allocator<HWND__ *>,0> >::_Color
PUBLIC	?_Isnil@?$_Tree_comp_alloc@V?$_Tset_traits@PAUHWND__@@U?$less@PAUHWND__@@@std@@V?$allocator@PAUHWND__@@@3@$0A@@std@@@std@@SAAADPAU?$_Tree_node@PAUHWND__@@PAX@2@@Z ; std::_Tree_comp_alloc<std::_Tset_traits<HWND__ *,std::less<HWND__ *>,std::allocator<HWND__ *>,0> >::_Isnil
PUBLIC	?_Left@?$_Tree_comp_alloc@V?$_Tset_traits@PAUHWND__@@U?$less@PAUHWND__@@@std@@V?$allocator@PAUHWND__@@@3@$0A@@std@@@std@@SAAAPAU?$_Tree_node@PAUHWND__@@PAX@2@PAU32@@Z ; std::_Tree_comp_alloc<std::_Tset_traits<HWND__ *,std::less<HWND__ *>,std::allocator<HWND__ *>,0> >::_Left
PUBLIC	?_Parent@?$_Tree_comp_alloc@V?$_Tset_traits@PAUHWND__@@U?$less@PAUHWND__@@@std@@V?$allocator@PAUHWND__@@@3@$0A@@std@@@std@@SAAAPAU?$_Tree_node@PAUHWND__@@PAX@2@PAU32@@Z ; std::_Tree_comp_alloc<std::_Tset_traits<HWND__ *,std::less<HWND__ *>,std::allocator<HWND__ *>,0> >::_Parent
PUBLIC	?_Right@?$_Tree_comp_alloc@V?$_Tset_traits@PAUHWND__@@U?$less@PAUHWND__@@@std@@V?$allocator@PAUHWND__@@@3@$0A@@std@@@std@@SAAAPAU?$_Tree_node@PAUHWND__@@PAX@2@PAU32@@Z ; std::_Tree_comp_alloc<std::_Tset_traits<HWND__ *,std::less<HWND__ *>,std::allocator<HWND__ *>,0> >::_Right
PUBLIC	?_Myval@?$_Tree_comp_alloc@V?$_Tset_traits@PAUHWND__@@U?$less@PAUHWND__@@@std@@V?$allocator@PAUHWND__@@@3@$0A@@std@@@std@@SAAAPAUHWND__@@PAU?$_Tree_node@PAUHWND__@@PAX@2@@Z ; std::_Tree_comp_alloc<std::_Tset_traits<HWND__ *,std::less<HWND__ *>,std::allocator<HWND__ *>,0> >::_Myval
PUBLIC	?_Max@?$_Tree_comp_alloc@V?$_Tset_traits@PAUHWND__@@U?$less@PAUHWND__@@@std@@V?$allocator@PAUHWND__@@@3@$0A@@std@@@std@@SAPAU?$_Tree_node@PAUHWND__@@PAX@2@PAU32@@Z ; std::_Tree_comp_alloc<std::_Tset_traits<HWND__ *,std::less<HWND__ *>,std::allocator<HWND__ *>,0> >::_Max
PUBLIC	?_Min@?$_Tree_comp_alloc@V?$_Tset_traits@PAUHWND__@@U?$less@PAUHWND__@@@std@@V?$allocator@PAUHWND__@@@3@$0A@@std@@@std@@SAPAU?$_Tree_node@PAUHWND__@@PAX@2@PAU32@@Z ; std::_Tree_comp_alloc<std::_Tset_traits<HWND__ *,std::less<HWND__ *>,std::allocator<HWND__ *>,0> >::_Min
PUBLIC	??0?$_Tree_comp_alloc@V?$_Tset_traits@PAUHWND__@@U?$less@PAUHWND__@@@std@@V?$allocator@PAUHWND__@@@3@$0A@@std@@@std@@QAE@ABU?$less@PAUHWND__@@@1@@Z ; std::_Tree_comp_alloc<std::_Tset_traits<HWND__ *,std::less<HWND__ *>,std::allocator<HWND__ *>,0> >::_Tree_comp_alloc<std::_Tset_traits<HWND__ *,std::less<HWND__ *>,std::allocator<HWND__ *>,0> >
PUBLIC	?_Construct@?$_Tree_comp_alloc@V?$_Tset_traits@PAUHWND__@@U?$less@PAUHWND__@@@std@@V?$allocator@PAUHWND__@@@3@$0A@@std@@@std@@QAEXXZ ; std::_Tree_comp_alloc<std::_Tset_traits<HWND__ *,std::less<HWND__ *>,std::allocator<HWND__ *>,0> >::_Construct
PUBLIC	??1?$_Tree_comp_alloc@V?$_Tset_traits@PAUHWND__@@U?$less@PAUHWND__@@@std@@V?$allocator@PAUHWND__@@@3@$0A@@std@@@std@@QAE@XZ ; std::_Tree_comp_alloc<std::_Tset_traits<HWND__ *,std::less<HWND__ *>,std::allocator<HWND__ *>,0> >::~_Tree_comp_alloc<std::_Tset_traits<HWND__ *,std::less<HWND__ *>,std::allocator<HWND__ *>,0> >
PUBLIC	?_Buyheadnode@?$_Tree_comp_alloc@V?$_Tset_traits@PAUHWND__@@U?$less@PAUHWND__@@@std@@V?$allocator@PAUHWND__@@@3@$0A@@std@@@std@@QAEPAU?$_Tree_node@PAUHWND__@@PAX@2@XZ ; std::_Tree_comp_alloc<std::_Tset_traits<HWND__ *,std::less<HWND__ *>,std::allocator<HWND__ *>,0> >::_Buyheadnode
PUBLIC	?_Freeheadnode@?$_Tree_comp_alloc@V?$_Tset_traits@PAUHWND__@@U?$less@PAUHWND__@@@std@@V?$allocator@PAUHWND__@@@3@$0A@@std@@@std@@QAEXPAU?$_Tree_node@PAUHWND__@@PAX@2@@Z ; std::_Tree_comp_alloc<std::_Tset_traits<HWND__ *,std::less<HWND__ *>,std::allocator<HWND__ *>,0> >::_Freeheadnode
PUBLIC	?_Buynode0@?$_Tree_comp_alloc@V?$_Tset_traits@PAUHWND__@@U?$less@PAUHWND__@@@std@@V?$allocator@PAUHWND__@@@3@$0A@@std@@@std@@QAEPAU?$_Tree_node@PAUHWND__@@PAX@2@XZ ; std::_Tree_comp_alloc<std::_Tset_traits<HWND__ *,std::less<HWND__ *>,std::allocator<HWND__ *>,0> >::_Buynode0
PUBLIC	?_Freenode0@?$_Tree_comp_alloc@V?$_Tset_traits@PAUHWND__@@U?$less@PAUHWND__@@@std@@V?$allocator@PAUHWND__@@@3@$0A@@std@@@std@@QAEXPAU?$_Tree_node@PAUHWND__@@PAX@2@@Z ; std::_Tree_comp_alloc<std::_Tset_traits<HWND__ *,std::less<HWND__ *>,std::allocator<HWND__ *>,0> >::_Freenode0
PUBLIC	?_Getcomp@?$_Tree_comp_alloc@V?$_Tset_traits@PAUHWND__@@U?$less@PAUHWND__@@@std@@V?$allocator@PAUHWND__@@@3@$0A@@std@@@std@@QAEAAU?$less@PAUHWND__@@@2@XZ ; std::_Tree_comp_alloc<std::_Tset_traits<HWND__ *,std::less<HWND__ *>,std::allocator<HWND__ *>,0> >::_Getcomp
PUBLIC	?_Getcomp@?$_Tree_comp_alloc@V?$_Tset_traits@PAUHWND__@@U?$less@PAUHWND__@@@std@@V?$allocator@PAUHWND__@@@3@$0A@@std@@@std@@QBEABU?$less@PAUHWND__@@@2@XZ ; std::_Tree_comp_alloc<std::_Tset_traits<HWND__ *,std::less<HWND__ *>,std::allocator<HWND__ *>,0> >::_Getcomp
PUBLIC	?_Getal@?$_Tree_comp_alloc@V?$_Tset_traits@PAUHWND__@@U?$less@PAUHWND__@@@std@@V?$allocator@PAUHWND__@@@3@$0A@@std@@@std@@QAEAAU?$_Wrap_alloc@V?$allocator@U?$_Tree_node@PAUHWND__@@PAX@std@@@std@@@2@XZ ; std::_Tree_comp_alloc<std::_Tset_traits<HWND__ *,std::less<HWND__ *>,std::allocator<HWND__ *>,0> >::_Getal
PUBLIC	?_Getal@?$_Tree_comp_alloc@V?$_Tset_traits@PAUHWND__@@U?$less@PAUHWND__@@@std@@V?$allocator@PAUHWND__@@@3@$0A@@std@@@std@@QBEABU?$_Wrap_alloc@V?$allocator@U?$_Tree_node@PAUHWND__@@PAX@std@@@std@@@2@XZ ; std::_Tree_comp_alloc<std::_Tset_traits<HWND__ *,std::less<HWND__ *>,std::allocator<HWND__ *>,0> >::_Getal
PUBLIC	?_Get_data@?$_Tree_comp_alloc@V?$_Tset_traits@PAUHWND__@@U?$less@PAUHWND__@@@std@@V?$allocator@PAUHWND__@@@3@$0A@@std@@@std@@QAEAAV?$_Tree_val@U?$_Tree_simple_types@PAUHWND__@@@std@@@2@XZ ; std::_Tree_comp_alloc<std::_Tset_traits<HWND__ *,std::less<HWND__ *>,std::allocator<HWND__ *>,0> >::_Get_data
PUBLIC	?_Get_data@?$_Tree_comp_alloc@V?$_Tset_traits@PAUHWND__@@U?$less@PAUHWND__@@@std@@V?$allocator@PAUHWND__@@@3@$0A@@std@@@std@@QBEABV?$_Tree_val@U?$_Tree_simple_types@PAUHWND__@@@std@@@2@XZ ; std::_Tree_comp_alloc<std::_Tset_traits<HWND__ *,std::less<HWND__ *>,std::allocator<HWND__ *>,0> >::_Get_data
PUBLIC	?_Myhead@?$_Tree_comp_alloc@V?$_Tset_traits@PAUHWND__@@U?$less@PAUHWND__@@@std@@V?$allocator@PAUHWND__@@@3@$0A@@std@@@std@@QAEAAPAU?$_Tree_node@PAUHWND__@@PAX@2@XZ ; std::_Tree_comp_alloc<std::_Tset_traits<HWND__ *,std::less<HWND__ *>,std::allocator<HWND__ *>,0> >::_Myhead
PUBLIC	?_Myhead@?$_Tree_comp_alloc@V?$_Tset_traits@PAUHWND__@@U?$less@PAUHWND__@@@std@@V?$allocator@PAUHWND__@@@3@$0A@@std@@@std@@QBEABQAU?$_Tree_node@PAUHWND__@@PAX@2@XZ ; std::_Tree_comp_alloc<std::_Tset_traits<HWND__ *,std::less<HWND__ *>,std::allocator<HWND__ *>,0> >::_Myhead
PUBLIC	?_Mysize@?$_Tree_comp_alloc@V?$_Tset_traits@PAUHWND__@@U?$less@PAUHWND__@@@std@@V?$allocator@PAUHWND__@@@3@$0A@@std@@@std@@QAEAAIXZ ; std::_Tree_comp_alloc<std::_Tset_traits<HWND__ *,std::less<HWND__ *>,std::allocator<HWND__ *>,0> >::_Mysize
PUBLIC	??R?$less@PAUHWND__@@@std@@QBE_NABQAUHWND__@@0@Z ; std::less<HWND__ *>::operator()
PUBLIC	??0?$_Tree_val@U?$_Tree_simple_types@PAUHWND__@@@std@@@std@@QAE@XZ ; std::_Tree_val<std::_Tree_simple_types<HWND__ *> >::_Tree_val<std::_Tree_simple_types<HWND__ *> >
PUBLIC	?_Color@?$_Tree_val@U?$_Tree_simple_types@PAUHWND__@@@std@@@std@@SAAADPAU?$_Tree_node@PAUHWND__@@PAX@2@@Z ; std::_Tree_val<std::_Tree_simple_types<HWND__ *> >::_Color
PUBLIC	?_Isnil@?$_Tree_val@U?$_Tree_simple_types@PAUHWND__@@@std@@@std@@SAAADPAU?$_Tree_node@PAUHWND__@@PAX@2@@Z ; std::_Tree_val<std::_Tree_simple_types<HWND__ *> >::_Isnil
PUBLIC	?_Left@?$_Tree_val@U?$_Tree_simple_types@PAUHWND__@@@std@@@std@@SAAAPAU?$_Tree_node@PAUHWND__@@PAX@2@PAU32@@Z ; std::_Tree_val<std::_Tree_simple_types<HWND__ *> >::_Left
PUBLIC	?_Parent@?$_Tree_val@U?$_Tree_simple_types@PAUHWND__@@@std@@@std@@SAAAPAU?$_Tree_node@PAUHWND__@@PAX@2@PAU32@@Z ; std::_Tree_val<std::_Tree_simple_types<HWND__ *> >::_Parent
PUBLIC	?_Right@?$_Tree_val@U?$_Tree_simple_types@PAUHWND__@@@std@@@std@@SAAAPAU?$_Tree_node@PAUHWND__@@PAX@2@PAU32@@Z ; std::_Tree_val<std::_Tree_simple_types<HWND__ *> >::_Right
PUBLIC	?_Myval@?$_Tree_val@U?$_Tree_simple_types@PAUHWND__@@@std@@@std@@SAAAPAUHWND__@@PAU?$_Tree_node@PAUHWND__@@PAX@2@@Z ; std::_Tree_val<std::_Tree_simple_types<HWND__ *> >::_Myval
PUBLIC	?_Max@?$_Tree_val@U?$_Tree_simple_types@PAUHWND__@@@std@@@std@@SAPAU?$_Tree_node@PAUHWND__@@PAX@2@PAU32@@Z ; std::_Tree_val<std::_Tree_simple_types<HWND__ *> >::_Max
PUBLIC	?_Min@?$_Tree_val@U?$_Tree_simple_types@PAUHWND__@@@std@@@std@@SAPAU?$_Tree_node@PAUHWND__@@PAX@2@PAU32@@Z ; std::_Tree_val<std::_Tree_simple_types<HWND__ *> >::_Min
PUBLIC	?_Get_first@?$_Compressed_pair@U?$_Wrap_alloc@V?$allocator@U?$_Tree_node@PAUHWND__@@PAX@std@@@std@@@std@@V?$_Tree_val@U?$_Tree_simple_types@PAUHWND__@@@std@@@2@$00@std@@QAEAAU?$_Wrap_alloc@V?$allocator@U?$_Tree_node@PAUHWND__@@PAX@std@@@std@@@2@XZ ; std::_Compressed_pair<std::_Wrap_alloc<std::allocator<std::_Tree_node<HWND__ *,void *> > >,std::_Tree_val<std::_Tree_simple_types<HWND__ *> >,1>::_Get_first
PUBLIC	?_Get_first@?$_Compressed_pair@U?$_Wrap_alloc@V?$allocator@U?$_Tree_node@PAUHWND__@@PAX@std@@@std@@@std@@V?$_Tree_val@U?$_Tree_simple_types@PAUHWND__@@@std@@@2@$00@std@@QBEABU?$_Wrap_alloc@V?$allocator@U?$_Tree_node@PAUHWND__@@PAX@std@@@std@@@2@XZ ; std::_Compressed_pair<std::_Wrap_alloc<std::allocator<std::_Tree_node<HWND__ *,void *> > >,std::_Tree_val<std::_Tree_simple_types<HWND__ *> >,1>::_Get_first
PUBLIC	?_Get_second@?$_Compressed_pair@U?$_Wrap_alloc@V?$allocator@U?$_Tree_node@PAUHWND__@@PAX@std@@@std@@@std@@V?$_Tree_val@U?$_Tree_simple_types@PAUHWND__@@@std@@@2@$00@std@@QAEAAV?$_Tree_val@U?$_Tree_simple_types@PAUHWND__@@@std@@@2@XZ ; std::_Compressed_pair<std::_Wrap_alloc<std::allocator<std::_Tree_node<HWND__ *,void *> > >,std::_Tree_val<std::_Tree_simple_types<HWND__ *> >,1>::_Get_second
PUBLIC	?_Get_second@?$_Compressed_pair@U?$_Wrap_alloc@V?$allocator@U?$_Tree_node@PAUHWND__@@PAX@std@@@std@@@std@@V?$_Tree_val@U?$_Tree_simple_types@PAUHWND__@@@std@@@2@$00@std@@QBEABV?$_Tree_val@U?$_Tree_simple_types@PAUHWND__@@@std@@@2@XZ ; std::_Compressed_pair<std::_Wrap_alloc<std::allocator<std::_Tree_node<HWND__ *,void *> > >,std::_Tree_val<std::_Tree_simple_types<HWND__ *> >,1>::_Get_second
PUBLIC	?_Get_first@?$_Compressed_pair@U?$less@PAUHWND__@@@std@@V?$_Compressed_pair@U?$_Wrap_alloc@V?$allocator@U?$_Tree_node@PAUHWND__@@PAX@std@@@std@@@std@@V?$_Tree_val@U?$_Tree_simple_types@PAUHWND__@@@std@@@2@$00@2@$00@std@@QAEAAU?$less@PAUHWND__@@@2@XZ ; std::_Compressed_pair<std::less<HWND__ *>,std::_Compressed_pair<std::_Wrap_alloc<std::allocator<std::_Tree_node<HWND__ *,void *> > >,std::_Tree_val<std::_Tree_simple_types<HWND__ *> >,1>,1>::_Get_first
PUBLIC	?_Get_first@?$_Compressed_pair@U?$less@PAUHWND__@@@std@@V?$_Compressed_pair@U?$_Wrap_alloc@V?$allocator@U?$_Tree_node@PAUHWND__@@PAX@std@@@std@@@std@@V?$_Tree_val@U?$_Tree_simple_types@PAUHWND__@@@std@@@2@$00@2@$00@std@@QBEABU?$less@PAUHWND__@@@2@XZ ; std::_Compressed_pair<std::less<HWND__ *>,std::_Compressed_pair<std::_Wrap_alloc<std::allocator<std::_Tree_node<HWND__ *,void *> > >,std::_Tree_val<std::_Tree_simple_types<HWND__ *> >,1>,1>::_Get_first
PUBLIC	?_Get_second@?$_Compressed_pair@U?$less@PAUHWND__@@@std@@V?$_Compressed_pair@U?$_Wrap_alloc@V?$allocator@U?$_Tree_node@PAUHWND__@@PAX@std@@@std@@@std@@V?$_Tree_val@U?$_Tree_simple_types@PAUHWND__@@@std@@@2@$00@2@$00@std@@QAEAAV?$_Compressed_pair@U?$_Wrap_alloc@V?$allocator@U?$_Tree_node@PAUHWND__@@PAX@std@@@std@@@std@@V?$_Tree_val@U?$_Tree_simple_types@PAUHWND__@@@std@@@2@$00@2@XZ ; std::_Compressed_pair<std::less<HWND__ *>,std::_Compressed_pair<std::_Wrap_alloc<std::allocator<std::_Tree_node<HWND__ *,void *> > >,std::_Tree_val<std::_Tree_simple_types<HWND__ *> >,1>,1>::_Get_second
PUBLIC	?_Get_second@?$_Compressed_pair@U?$less@PAUHWND__@@@std@@V?$_Compressed_pair@U?$_Wrap_alloc@V?$allocator@U?$_Tree_node@PAUHWND__@@PAX@std@@@std@@@std@@V?$_Tree_val@U?$_Tree_simple_types@PAUHWND__@@@std@@@2@$00@2@$00@std@@QBEABV?$_Compressed_pair@U?$_Wrap_alloc@V?$allocator@U?$_Tree_node@PAUHWND__@@PAX@std@@@std@@@std@@V?$_Tree_val@U?$_Tree_simple_types@PAUHWND__@@@std@@@2@$00@2@XZ ; std::_Compressed_pair<std::less<HWND__ *>,std::_Compressed_pair<std::_Wrap_alloc<std::allocator<std::_Tree_node<HWND__ *,void *> > >,std::_Tree_val<std::_Tree_simple_types<HWND__ *> >,1>,1>::_Get_second
PUBLIC	??0?$_Tree@V?$_Tset_traits@PAUHWND__@@U?$less@PAUHWND__@@@std@@V?$allocator@PAUHWND__@@@3@$0A@@std@@@std@@QAE@ABU?$less@PAUHWND__@@@1@@Z ; std::_Tree<std::_Tset_traits<HWND__ *,std::less<HWND__ *>,std::allocator<HWND__ *>,0> >::_Tree<std::_Tset_traits<HWND__ *,std::less<HWND__ *>,std::allocator<HWND__ *>,0> >
PUBLIC	??1?$_Tree@V?$_Tset_traits@PAUHWND__@@U?$less@PAUHWND__@@@std@@V?$allocator@PAUHWND__@@@3@$0A@@std@@@std@@QAE@XZ ; std::_Tree<std::_Tset_traits<HWND__ *,std::less<HWND__ *>,std::allocator<HWND__ *>,0> >::~_Tree<std::_Tset_traits<HWND__ *,std::less<HWND__ *>,std::allocator<HWND__ *>,0> >
PUBLIC	?begin@?$_Tree@V?$_Tset_traits@PAUHWND__@@U?$less@PAUHWND__@@@std@@V?$allocator@PAUHWND__@@@3@$0A@@std@@@std@@QAE?AV?$_Tree_const_iterator@V?$_Tree_val@U?$_Tree_simple_types@PAUHWND__@@@std@@@std@@@2@XZ ; std::_Tree<std::_Tset_traits<HWND__ *,std::less<HWND__ *>,std::allocator<HWND__ *>,0> >::begin
PUBLIC	?end@?$_Tree@V?$_Tset_traits@PAUHWND__@@U?$less@PAUHWND__@@@std@@V?$allocator@PAUHWND__@@@3@$0A@@std@@@std@@QAE?AV?$_Tree_const_iterator@V?$_Tree_val@U?$_Tree_simple_types@PAUHWND__@@@std@@@std@@@2@XZ ; std::_Tree<std::_Tset_traits<HWND__ *,std::less<HWND__ *>,std::allocator<HWND__ *>,0> >::end
PUBLIC	?max_size@?$_Tree@V?$_Tset_traits@PAUHWND__@@U?$less@PAUHWND__@@@std@@V?$allocator@PAUHWND__@@@3@$0A@@std@@@std@@QBEIXZ ; std::_Tree<std::_Tset_traits<HWND__ *,std::less<HWND__ *>,std::allocator<HWND__ *>,0> >::max_size
PUBLIC	?erase@?$_Tree@V?$_Tset_traits@PAUHWND__@@U?$less@PAUHWND__@@@std@@V?$allocator@PAUHWND__@@@3@$0A@@std@@@std@@QAE?AV?$_Tree_const_iterator@V?$_Tree_val@U?$_Tree_simple_types@PAUHWND__@@@std@@@std@@@2@V32@@Z ; std::_Tree<std::_Tset_traits<HWND__ *,std::less<HWND__ *>,std::allocator<HWND__ *>,0> >::erase
PUBLIC	?erase@?$_Tree@V?$_Tset_traits@PAUHWND__@@U?$less@PAUHWND__@@@std@@V?$allocator@PAUHWND__@@@3@$0A@@std@@@std@@QAE?AV?$_Tree_const_iterator@V?$_Tree_val@U?$_Tree_simple_types@PAUHWND__@@@std@@@std@@@2@V32@0@Z ; std::_Tree<std::_Tset_traits<HWND__ *,std::less<HWND__ *>,std::allocator<HWND__ *>,0> >::erase
PUBLIC	?erase@?$_Tree@V?$_Tset_traits@PAUHWND__@@U?$less@PAUHWND__@@@std@@V?$allocator@PAUHWND__@@@3@$0A@@std@@@std@@QAEIABQAUHWND__@@@Z ; std::_Tree<std::_Tset_traits<HWND__ *,std::less<HWND__ *>,std::allocator<HWND__ *>,0> >::erase
PUBLIC	?clear@?$_Tree@V?$_Tset_traits@PAUHWND__@@U?$less@PAUHWND__@@@std@@V?$allocator@PAUHWND__@@@3@$0A@@std@@@std@@QAEXXZ ; std::_Tree<std::_Tset_traits<HWND__ *,std::less<HWND__ *>,std::allocator<HWND__ *>,0> >::clear
PUBLIC	?equal_range@?$_Tree@V?$_Tset_traits@PAUHWND__@@U?$less@PAUHWND__@@@std@@V?$allocator@PAUHWND__@@@3@$0A@@std@@@std@@QAE?AU?$pair@V?$_Tree_const_iterator@V?$_Tree_val@U?$_Tree_simple_types@PAUHWND__@@@std@@@std@@@std@@V12@@2@ABQAUHWND__@@@Z ; std::_Tree<std::_Tset_traits<HWND__ *,std::less<HWND__ *>,std::allocator<HWND__ *>,0> >::equal_range
PUBLIC	?_Destroy_if_not_nil@?$_Tree@V?$_Tset_traits@PAUHWND__@@U?$less@PAUHWND__@@@std@@V?$allocator@PAUHWND__@@@3@$0A@@std@@@std@@IAEXPAU?$_Tree_node@PAUHWND__@@PAX@2@@Z ; std::_Tree<std::_Tset_traits<HWND__ *,std::less<HWND__ *>,std::allocator<HWND__ *>,0> >::_Destroy_if_not_nil
PUBLIC	?_Erase@?$_Tree@V?$_Tset_traits@PAUHWND__@@U?$less@PAUHWND__@@@std@@V?$allocator@PAUHWND__@@@3@$0A@@std@@@std@@IAEXPAU?$_Tree_node@PAUHWND__@@PAX@2@@Z ; std::_Tree<std::_Tset_traits<HWND__ *,std::less<HWND__ *>,std::allocator<HWND__ *>,0> >::_Erase
PUBLIC	?_Lmost@?$_Tree@V?$_Tset_traits@PAUHWND__@@U?$less@PAUHWND__@@@std@@V?$allocator@PAUHWND__@@@3@$0A@@std@@@std@@IBEAAPAU?$_Tree_node@PAUHWND__@@PAX@2@XZ ; std::_Tree<std::_Tset_traits<HWND__ *,std::less<HWND__ *>,std::allocator<HWND__ *>,0> >::_Lmost
PUBLIC	?_Lrotate@?$_Tree@V?$_Tset_traits@PAUHWND__@@U?$less@PAUHWND__@@@std@@V?$allocator@PAUHWND__@@@3@$0A@@std@@@std@@IAEXPAU?$_Tree_node@PAUHWND__@@PAX@2@@Z ; std::_Tree<std::_Tset_traits<HWND__ *,std::less<HWND__ *>,std::allocator<HWND__ *>,0> >::_Lrotate
PUBLIC	?_Rmost@?$_Tree@V?$_Tset_traits@PAUHWND__@@U?$less@PAUHWND__@@@std@@V?$allocator@PAUHWND__@@@3@$0A@@std@@@std@@IBEAAPAU?$_Tree_node@PAUHWND__@@PAX@2@XZ ; std::_Tree<std::_Tset_traits<HWND__ *,std::less<HWND__ *>,std::allocator<HWND__ *>,0> >::_Rmost
PUBLIC	?_Root@?$_Tree@V?$_Tset_traits@PAUHWND__@@U?$less@PAUHWND__@@@std@@V?$allocator@PAUHWND__@@@3@$0A@@std@@@std@@IBEAAPAU?$_Tree_node@PAUHWND__@@PAX@2@XZ ; std::_Tree<std::_Tset_traits<HWND__ *,std::less<HWND__ *>,std::allocator<HWND__ *>,0> >::_Root
PUBLIC	?_Rrotate@?$_Tree@V?$_Tset_traits@PAUHWND__@@U?$less@PAUHWND__@@@std@@V?$allocator@PAUHWND__@@@3@$0A@@std@@@std@@IAEXPAU?$_Tree_node@PAUHWND__@@PAX@2@@Z ; std::_Tree<std::_Tset_traits<HWND__ *,std::less<HWND__ *>,std::allocator<HWND__ *>,0> >::_Rrotate
PUBLIC	?_Tidy@?$_Tree@V?$_Tset_traits@PAUHWND__@@U?$less@PAUHWND__@@@std@@V?$allocator@PAUHWND__@@@3@$0A@@std@@@std@@IAEXXZ ; std::_Tree<std::_Tset_traits<HWND__ *,std::less<HWND__ *>,std::allocator<HWND__ *>,0> >::_Tidy
PUBLIC	?_Kfn@?$_Tree@V?$_Tset_traits@PAUHWND__@@U?$less@PAUHWND__@@@std@@V?$allocator@PAUHWND__@@@3@$0A@@std@@@std@@IBEABQAUHWND__@@ABQAU3@@Z ; std::_Tree<std::_Tset_traits<HWND__ *,std::less<HWND__ *>,std::allocator<HWND__ *>,0> >::_Kfn
PUBLIC	?_Key@?$_Tree@V?$_Tset_traits@PAUHWND__@@U?$less@PAUHWND__@@@std@@V?$allocator@PAUHWND__@@@3@$0A@@std@@@std@@IBEABQAUHWND__@@PAU?$_Tree_node@PAUHWND__@@PAX@2@@Z ; std::_Tree<std::_Tset_traits<HWND__ *,std::less<HWND__ *>,std::allocator<HWND__ *>,0> >::_Key
PUBLIC	??0?$set@PAUHWND__@@U?$less@PAUHWND__@@@std@@V?$allocator@PAUHWND__@@@3@@std@@QAE@XZ ; std::set<HWND__ *,std::less<HWND__ *>,std::allocator<HWND__ *> >::set<HWND__ *,std::less<HWND__ *>,std::allocator<HWND__ *> >
PUBLIC	??1?$set@PAUHWND__@@U?$less@PAUHWND__@@@std@@V?$allocator@PAUHWND__@@@3@@std@@QAE@XZ ; std::set<HWND__ *,std::less<HWND__ *>,std::allocator<HWND__ *> >::~set<HWND__ *,std::less<HWND__ *>,std::allocator<HWND__ *> >
PUBLIC	??$emplace@AAPAUHWND__@@@?$_Tree@V?$_Tset_traits@PAUHWND__@@U?$less@PAUHWND__@@@std@@V?$allocator@PAUHWND__@@@3@$0A@@std@@@std@@QAE?AU?$pair@V?$_Tree_const_iterator@V?$_Tree_val@U?$_Tree_simple_types@PAUHWND__@@@std@@@std@@@std@@_N@1@AAPAUHWND__@@@Z ; std::_Tree<std::_Tset_traits<HWND__ *,std::less<HWND__ *>,std::allocator<HWND__ *>,0> >::emplace<HWND__ * &>
PUBLIC	??0?$_Tree_unchecked_const_iterator@V?$_Tree_val@U?$_Tree_simple_types@PAUHWND__@@@std@@@std@@U_Iterator_base0@2@@std@@QAE@PAU?$_Tree_node@PAUHWND__@@PAX@1@PBV?$_Tree_val@U?$_Tree_simple_types@PAUHWND__@@@std@@@1@@Z ; std::_Tree_unchecked_const_iterator<std::_Tree_val<std::_Tree_simple_types<HWND__ *> >,std::_Iterator_base0>::_Tree_unchecked_const_iterator<std::_Tree_val<std::_Tree_simple_types<HWND__ *> >,std::_Iterator_base0>
PUBLIC	??E?$_Tree_unchecked_const_iterator@V?$_Tree_val@U?$_Tree_simple_types@PAUHWND__@@@std@@@std@@U_Iterator_base0@2@@std@@QAEAAV01@XZ ; std::_Tree_unchecked_const_iterator<std::_Tree_val<std::_Tree_simple_types<HWND__ *> >,std::_Iterator_base0>::operator++
PUBLIC	??F?$_Tree_unchecked_const_iterator@V?$_Tree_val@U?$_Tree_simple_types@PAUHWND__@@@std@@@std@@U_Iterator_base0@2@@std@@QAEAAV01@XZ ; std::_Tree_unchecked_const_iterator<std::_Tree_val<std::_Tree_simple_types<HWND__ *> >,std::_Iterator_base0>::operator--
PUBLIC	?_Mynode@?$_Tree_unchecked_const_iterator@V?$_Tree_val@U?$_Tree_simple_types@PAUHWND__@@@std@@@std@@U_Iterator_base0@2@@std@@QBEPAU?$_Tree_node@PAUHWND__@@PAX@2@XZ ; std::_Tree_unchecked_const_iterator<std::_Tree_val<std::_Tree_simple_types<HWND__ *> >,std::_Iterator_base0>::_Mynode
PUBLIC	??0?$_Tree_const_iterator@V?$_Tree_val@U?$_Tree_simple_types@PAUHWND__@@@std@@@std@@@std@@QAE@PAU?$_Tree_node@PAUHWND__@@PAX@1@PBV?$_Tree_val@U?$_Tree_simple_types@PAUHWND__@@@std@@@1@@Z ; std::_Tree_const_iterator<std::_Tree_val<std::_Tree_simple_types<HWND__ *> > >::_Tree_const_iterator<std::_Tree_val<std::_Tree_simple_types<HWND__ *> > >
PUBLIC	??D?$_Tree_const_iterator@V?$_Tree_val@U?$_Tree_simple_types@PAUHWND__@@@std@@@std@@@std@@QBEABQAUHWND__@@XZ ; std::_Tree_const_iterator<std::_Tree_val<std::_Tree_simple_types<HWND__ *> > >::operator*
PUBLIC	??E?$_Tree_const_iterator@V?$_Tree_val@U?$_Tree_simple_types@PAUHWND__@@@std@@@std@@@std@@QAEAAV01@XZ ; std::_Tree_const_iterator<std::_Tree_val<std::_Tree_simple_types<HWND__ *> > >::operator++
PUBLIC	??E?$_Tree_const_iterator@V?$_Tree_val@U?$_Tree_simple_types@PAUHWND__@@@std@@@std@@@std@@QAE?AV01@H@Z ; std::_Tree_const_iterator<std::_Tree_val<std::_Tree_simple_types<HWND__ *> > >::operator++
PUBLIC	??F?$_Tree_const_iterator@V?$_Tree_val@U?$_Tree_simple_types@PAUHWND__@@@std@@@std@@@std@@QAEAAV01@XZ ; std::_Tree_const_iterator<std::_Tree_val<std::_Tree_simple_types<HWND__ *> > >::operator--
PUBLIC	??8?$_Tree_const_iterator@V?$_Tree_val@U?$_Tree_simple_types@PAUHWND__@@@std@@@std@@@std@@QBE_NABV01@@Z ; std::_Tree_const_iterator<std::_Tree_val<std::_Tree_simple_types<HWND__ *> > >::operator==
PUBLIC	??9?$_Tree_const_iterator@V?$_Tree_val@U?$_Tree_simple_types@PAUHWND__@@@std@@@std@@@std@@QBE_NABV01@@Z ; std::_Tree_const_iterator<std::_Tree_val<std::_Tree_simple_types<HWND__ *> > >::operator!=
PUBLIC	??$?9_WU?$char_traits@_W@std@@V?$allocator@_W@1@@std@@YA_NABV?$basic_string@_WU?$char_traits@_W@std@@V?$allocator@_W@2@@0@QB_W@Z ; std::operator!=<wchar_t,std::char_traits<wchar_t>,std::allocator<wchar_t> >
PUBLIC	?DoKeyboard@@YAXXZ				; DoKeyboard
PUBLIC	??0?$CComPtrBase@UIDirect3DDevice9@@@ATL@@IAE@PAUIDirect3DDevice9@@@Z ; ATL::CComPtrBase<IDirect3DDevice9>::CComPtrBase<IDirect3DDevice9>
PUBLIC	??1?$CComPtrBase@UIDirect3DDevice9@@@ATL@@QAE@XZ ; ATL::CComPtrBase<IDirect3DDevice9>::~CComPtrBase<IDirect3DDevice9>
PUBLIC	??I?$CComPtrBase@UIDirect3DDevice9@@@ATL@@QAEPAPAUIDirect3DDevice9@@XZ ; ATL::CComPtrBase<IDirect3DDevice9>::operator&
PUBLIC	??0?$CComPtr@UIDirect3DDevice9@@@ATL@@QAE@PAUIDirect3DDevice9@@@Z ; ATL::CComPtr<IDirect3DDevice9>::CComPtr<IDirect3DDevice9>
PUBLIC	??1?$CComPtr@UIDirect3DDevice9@@@ATL@@QAE@XZ	; ATL::CComPtr<IDirect3DDevice9>::~CComPtr<IDirect3DDevice9>
PUBLIC	??0?$CComPtrBase@UIDirect3DDevice9Ex@@@ATL@@IAE@PAUIDirect3DDevice9Ex@@@Z ; ATL::CComPtrBase<IDirect3DDevice9Ex>::CComPtrBase<IDirect3DDevice9Ex>
PUBLIC	??1?$CComPtrBase@UIDirect3DDevice9Ex@@@ATL@@QAE@XZ ; ATL::CComPtrBase<IDirect3DDevice9Ex>::~CComPtrBase<IDirect3DDevice9Ex>
PUBLIC	??I?$CComPtrBase@UIDirect3DDevice9Ex@@@ATL@@QAEPAPAUIDirect3DDevice9Ex@@XZ ; ATL::CComPtrBase<IDirect3DDevice9Ex>::operator&
PUBLIC	??0?$CComPtr@UIDirect3DDevice9Ex@@@ATL@@QAE@PAUIDirect3DDevice9Ex@@@Z ; ATL::CComPtr<IDirect3DDevice9Ex>::CComPtr<IDirect3DDevice9Ex>
PUBLIC	??1?$CComPtr@UIDirect3DDevice9Ex@@@ATL@@QAE@XZ	; ATL::CComPtr<IDirect3DDevice9Ex>::~CComPtr<IDirect3DDevice9Ex>
PUBLIC	??0?$CComPtrBase@UID3D11Device@@@ATL@@IAE@PAUID3D11Device@@@Z ; ATL::CComPtrBase<ID3D11Device>::CComPtrBase<ID3D11Device>
PUBLIC	??1?$CComPtrBase@UID3D11Device@@@ATL@@QAE@XZ	; ATL::CComPtrBase<ID3D11Device>::~CComPtrBase<ID3D11Device>
PUBLIC	??I?$CComPtrBase@UID3D11Device@@@ATL@@QAEPAPAUID3D11Device@@XZ ; ATL::CComPtrBase<ID3D11Device>::operator&
PUBLIC	??0?$CComPtr@UID3D11Device@@@ATL@@QAE@PAUID3D11Device@@@Z ; ATL::CComPtr<ID3D11Device>::CComPtr<ID3D11Device>
PUBLIC	??1?$CComPtr@UID3D11Device@@@ATL@@QAE@XZ	; ATL::CComPtr<ID3D11Device>::~CComPtr<ID3D11Device>
PUBLIC	??$QueryInterface@UIDirect3DDevice9Ex@@@IUnknown@@QAGJPAPAUIDirect3DDevice9Ex@@@Z ; IUnknown::QueryInterface<IDirect3DDevice9Ex>
PUBLIC	??$QueryInterface@UIDirect3DDevice9@@@IUnknown@@QAGJPAPAUIDirect3DDevice9@@@Z ; IUnknown::QueryInterface<IDirect3DDevice9>
PUBLIC	??$QueryInterface@UID3D11Device@@@IUnknown@@QAGJPAPAUID3D11Device@@@Z ; IUnknown::QueryInterface<ID3D11Device>
PUBLIC	??0?$CComPtrBase@UIDXGISwapChain@@@ATL@@IAE@PAUIDXGISwapChain@@@Z ; ATL::CComPtrBase<IDXGISwapChain>::CComPtrBase<IDXGISwapChain>
PUBLIC	??1?$CComPtrBase@UIDXGISwapChain@@@ATL@@QAE@XZ	; ATL::CComPtrBase<IDXGISwapChain>::~CComPtrBase<IDXGISwapChain>
PUBLIC	??B?$CComPtrBase@UIDXGISwapChain@@@ATL@@QBEPAUIDXGISwapChain@@XZ ; ATL::CComPtrBase<IDXGISwapChain>::operator IDXGISwapChain *
PUBLIC	??I?$CComPtrBase@UIDXGISwapChain@@@ATL@@QAEPAPAUIDXGISwapChain@@XZ ; ATL::CComPtrBase<IDXGISwapChain>::operator&
PUBLIC	??C?$CComPtrBase@UIDXGISwapChain@@@ATL@@QBEPAV?$_NoAddRefReleaseOnCComPtr@UIDXGISwapChain@@@1@XZ ; ATL::CComPtrBase<IDXGISwapChain>::operator->
PUBLIC	??0?$CComPtr@UIDXGISwapChain@@@ATL@@QAE@PAUIDXGISwapChain@@@Z ; ATL::CComPtr<IDXGISwapChain>::CComPtr<IDXGISwapChain>
PUBLIC	??1?$CComPtr@UIDXGISwapChain@@@ATL@@QAE@XZ	; ATL::CComPtr<IDXGISwapChain>::~CComPtr<IDXGISwapChain>
PUBLIC	??$QueryInterface@UIDXGISwapChain@@@IUnknown@@QAGJPAPAUIDXGISwapChain@@@Z ; IUnknown::QueryInterface<IDXGISwapChain>
PUBLIC	?RunDLL_ElevateMe@@YGXPAUHWND__@@PAUHINSTANCE__@@PADH@Z ; RunDLL_ElevateMe
PUBLIC	?RunDLL_RestartGame@@YGXPAUHWND__@@PAUHINSTANCE__@@PADH@Z ; RunDLL_RestartGame
PUBLIC	??$distance@V?$_Tree_const_iterator@V?$_Tree_val@U?$_Tree_simple_types@PAUHWND__@@@std@@@std@@@std@@@std@@YAHV?$_Tree_const_iterator@V?$_Tree_val@U?$_Tree_simple_types@PAUHWND__@@@std@@@std@@@0@0@Z ; std::distance<std::_Tree_const_iterator<std::_Tree_val<std::_Tree_simple_types<HWND__ *> > > >
PUBLIC	??$addressof@V?$_Tree_val@U?$_Tree_simple_types@PAUHWND__@@@std@@@std@@@std@@YAPAV?$_Tree_val@U?$_Tree_simple_types@PAUHWND__@@@std@@@0@AAV10@@Z ; std::addressof<std::_Tree_val<std::_Tree_simple_types<HWND__ *> > >
PUBLIC	??$addressof@V?$deque@KV?$allocator@K@std@@@std@@@std@@YAPAV?$deque@KV?$allocator@K@std@@@0@AAV10@@Z ; std::addressof<std::deque<unsigned long,std::allocator<unsigned long> > >
PUBLIC	??$move@AAV?$deque@KV?$allocator@K@std@@@std@@@std@@YA$$QAV?$deque@KV?$allocator@K@std@@@0@AAV10@@Z ; std::move<std::deque<unsigned long,std::allocator<unsigned long> > &>
PUBLIC	??$?0U?$_Wrap_alloc@V?$allocator@K@std@@@std@@X@?$_Deque_alloc@U?$_Deque_base_types@KV?$allocator@K@std@@@std@@@std@@QAE@$$QAU?$_Wrap_alloc@V?$allocator@K@std@@@1@@Z ; std::_Deque_alloc<std::_Deque_base_types<unsigned long,std::allocator<unsigned long> > >::_Deque_alloc<std::_Deque_base_types<unsigned long,std::allocator<unsigned long> > ><std::_Wrap_alloc<std::allocator<unsigned long> >,void>
PUBLIC	??0?$_Deque_const_iterator@V?$_Deque_val@U?$_Deque_simple_types@K@std@@@std@@@std@@QAE@IPBU_Container_base12@1@@Z ; std::_Deque_const_iterator<std::_Deque_val<std::_Deque_simple_types<unsigned long> > >::_Deque_const_iterator<std::_Deque_val<std::_Deque_simple_types<unsigned long> > >
PUBLIC	??D?$_Deque_const_iterator@V?$_Deque_val@U?$_Deque_simple_types@K@std@@@std@@@std@@QBEABKXZ ; std::_Deque_const_iterator<std::_Deque_val<std::_Deque_simple_types<unsigned long> > >::operator*
PUBLIC	??E?$_Deque_const_iterator@V?$_Deque_val@U?$_Deque_simple_types@K@std@@@std@@@std@@QAEAAV01@XZ ; std::_Deque_const_iterator<std::_Deque_val<std::_Deque_simple_types<unsigned long> > >::operator++
PUBLIC	??8?$_Deque_const_iterator@V?$_Deque_val@U?$_Deque_simple_types@K@std@@@std@@@std@@QBE_NABV01@@Z ; std::_Deque_const_iterator<std::_Deque_val<std::_Deque_simple_types<unsigned long> > >::operator==
PUBLIC	??9?$_Deque_const_iterator@V?$_Deque_val@U?$_Deque_simple_types@K@std@@@std@@@std@@QBE_NABV01@@Z ; std::_Deque_const_iterator<std::_Deque_val<std::_Deque_simple_types<unsigned long> > >::operator!=
PUBLIC	?_Compat@?$_Deque_const_iterator@V?$_Deque_val@U?$_Deque_simple_types@K@std@@@std@@@std@@QBEXABV12@@Z ; std::_Deque_const_iterator<std::_Deque_val<std::_Deque_simple_types<unsigned long> > >::_Compat
PUBLIC	?_Setcont@?$_Deque_const_iterator@V?$_Deque_val@U?$_Deque_simple_types@K@std@@@std@@@std@@QAEXPBV?$_Deque_val@U?$_Deque_simple_types@K@std@@@2@@Z ; std::_Deque_const_iterator<std::_Deque_val<std::_Deque_simple_types<unsigned long> > >::_Setcont
PUBLIC	??1?$_Deque_const_iterator@V?$_Deque_val@U?$_Deque_simple_types@K@std@@@std@@@std@@QAE@XZ ; std::_Deque_const_iterator<std::_Deque_val<std::_Deque_simple_types<unsigned long> > >::~_Deque_const_iterator<std::_Deque_val<std::_Deque_simple_types<unsigned long> > >
PUBLIC	??$_Construct@V?$_Deque_const_iterator@V?$_Deque_val@U?$_Deque_simple_types@K@std@@@std@@@std@@@?$deque@KV?$allocator@K@std@@@std@@QAEXV?$_Deque_const_iterator@V?$_Deque_val@U?$_Deque_simple_types@K@std@@@std@@@1@0@Z ; std::deque<unsigned long,std::allocator<unsigned long> >::_Construct<std::_Deque_const_iterator<std::_Deque_val<std::_Deque_simple_types<unsigned long> > > >
PUBLIC	??$addressof@$$CBV?$basic_string@_WU?$char_traits@_W@std@@V?$allocator@_W@2@@std@@@std@@YAPBV?$basic_string@_WU?$char_traits@_W@std@@V?$allocator@_W@2@@0@ABV10@@Z ; std::addressof<std::basic_string<wchar_t,std::char_traits<wchar_t>,std::allocator<wchar_t> > const >
PUBLIC	??$move@AAV?$basic_string@_WU?$char_traits@_W@std@@V?$allocator@_W@2@@std@@@std@@YA$$QAV?$basic_string@_WU?$char_traits@_W@std@@V?$allocator@_W@2@@0@AAV10@@Z ; std::move<std::basic_string<wchar_t,std::char_traits<wchar_t>,std::allocator<wchar_t> > &>
PUBLIC	??$?0U?$_Wrap_alloc@V?$allocator@_W@std@@@std@@X@?$_String_alloc@U?$_String_base_types@_WV?$allocator@_W@std@@@std@@@std@@QAE@$$QAU?$_Wrap_alloc@V?$allocator@_W@std@@@1@@Z ; std::_String_alloc<std::_String_base_types<wchar_t,std::allocator<wchar_t> > >::_String_alloc<std::_String_base_types<wchar_t,std::allocator<wchar_t> > ><std::_Wrap_alloc<std::allocator<wchar_t> >,void>
PUBLIC	??$_Unfancy@D@std@@YAPADPAD@Z			; std::_Unfancy<char>
PUBLIC	??$_Eqrange@PAUHWND__@@@?$_Tree@V?$_Tset_traits@PAUHWND__@@U?$less@PAUHWND__@@@std@@V?$allocator@PAUHWND__@@@3@$0A@@std@@@std@@IAE?AU?$pair@V?$_Tree_const_iterator@V?$_Tree_val@U?$_Tree_simple_types@PAUHWND__@@@std@@@std@@@std@@V12@@1@ABQAUHWND__@@@Z ; std::_Tree<std::_Tset_traits<HWND__ *,std::less<HWND__ *>,std::allocator<HWND__ *>,0> >::_Eqrange<HWND__ *>
PUBLIC	??$_Eqrange@PAUHWND__@@@?$_Tree@V?$_Tset_traits@PAUHWND__@@U?$less@PAUHWND__@@@std@@V?$allocator@PAUHWND__@@@3@$0A@@std@@@std@@IBE?AU?$pair@V?$_Tree_const_iterator@V?$_Tree_val@U?$_Tree_simple_types@PAUHWND__@@@std@@@std@@@std@@V12@@1@ABQAUHWND__@@@Z ; std::_Tree<std::_Tset_traits<HWND__ *,std::less<HWND__ *>,std::allocator<HWND__ *>,0> >::_Eqrange<HWND__ *>
PUBLIC	??$?0V?$allocator@K@std@@@?$_Wrap_alloc@V?$allocator@K@std@@@std@@QAE@$$QAV?$allocator@K@1@@Z ; std::_Wrap_alloc<std::allocator<unsigned long> >::_Wrap_alloc<std::allocator<unsigned long> ><std::allocator<unsigned long> >
PUBLIC	??$?9V?$allocator@K@std@@V01@@std@@YA_NABU?$_Wrap_alloc@V?$allocator@K@std@@@0@0@Z ; std::operator!=<std::allocator<unsigned long>,std::allocator<unsigned long> >
PUBLIC	??$_Pocma@U?$_Wrap_alloc@V?$allocator@K@std@@@std@@@std@@YAXAAU?$_Wrap_alloc@V?$allocator@K@std@@@0@0@Z ; std::_Pocma<std::_Wrap_alloc<std::allocator<unsigned long> > >
PUBLIC	??$?0AAU?$_Wrap_alloc@V?$allocator@K@std@@@std@@@?$_Wrap_alloc@V?$allocator@PAK@std@@@std@@QAE@AAU?$_Wrap_alloc@V?$allocator@K@std@@@1@@Z ; std::_Wrap_alloc<std::allocator<unsigned long *> >::_Wrap_alloc<std::allocator<unsigned long *> ><std::_Wrap_alloc<std::allocator<unsigned long> > &>
PUBLIC	??$addressof@PAK@std@@YAPAPAKAAPAK@Z		; std::addressof<unsigned long *>
PUBLIC	??$destroy@PAK@?$_Wrap_alloc@V?$allocator@K@std@@@std@@QAEXPAPAK@Z ; std::_Wrap_alloc<std::allocator<unsigned long> >::destroy<unsigned long *>
PUBLIC	??$addressof@$$CBV?$_Deque_val@U?$_Deque_simple_types@K@std@@@std@@@std@@YAPBV?$_Deque_val@U?$_Deque_simple_types@K@std@@@0@ABV10@@Z ; std::addressof<std::_Deque_val<std::_Deque_simple_types<unsigned long> > const >
PUBLIC	??$?0V?$allocator@_W@std@@@?$_Wrap_alloc@V?$allocator@_W@std@@@std@@QAE@$$QAV?$allocator@_W@1@@Z ; std::_Wrap_alloc<std::allocator<wchar_t> >::_Wrap_alloc<std::allocator<wchar_t> ><std::allocator<wchar_t> >
PUBLIC	??$?0$$V@?$_Compressed_pair@U?$_Wrap_alloc@V?$allocator@_W@std@@@std@@V?$_String_val@U?$_Simple_types@_W@std@@@2@$00@std@@QAE@U_Zero_then_variadic_args_t@1@@Z ; std::_Compressed_pair<std::_Wrap_alloc<std::allocator<wchar_t> >,std::_String_val<std::_Simple_types<wchar_t> >,1>::_Compressed_pair<std::_Wrap_alloc<std::allocator<wchar_t> >,std::_String_val<std::_Simple_types<wchar_t> >,1><>
PUBLIC	??$?0$$V@?$_Compressed_pair@U?$_Wrap_alloc@V?$allocator@D@std@@@std@@V?$_String_val@U?$_Simple_types@D@std@@@2@$00@std@@QAE@U_Zero_then_variadic_args_t@1@@Z ; std::_Compressed_pair<std::_Wrap_alloc<std::allocator<char> >,std::_String_val<std::_Simple_types<char> >,1>::_Compressed_pair<std::_Wrap_alloc<std::allocator<char> >,std::_String_val<std::_Simple_types<char> >,1><>
PUBLIC	??$addressof@PA_W@std@@YAPAPA_WAAPA_W@Z		; std::addressof<wchar_t *>
PUBLIC	??$destroy@PA_W@?$_Wrap_alloc@V?$allocator@_W@std@@@std@@QAEXPAPA_W@Z ; std::_Wrap_alloc<std::allocator<wchar_t> >::destroy<wchar_t *>
PUBLIC	??$addressof@V?$_String_val@U?$_Simple_types@_W@std@@@std@@@std@@YAPAV?$_String_val@U?$_Simple_types@_W@std@@@0@AAV10@@Z ; std::addressof<std::_String_val<std::_Simple_types<wchar_t> > >
PUBLIC	??$move@AAU?$_Wrap_alloc@V?$allocator@_W@std@@@std@@@std@@YA$$QAU?$_Wrap_alloc@V?$allocator@_W@std@@@0@AAU10@@Z ; std::move<std::_Wrap_alloc<std::allocator<wchar_t> > &>
PUBLIC	??$addressof@PAD@std@@YAPAPADAAPAD@Z		; std::addressof<char *>
PUBLIC	??$destroy@PAD@?$_Wrap_alloc@V?$allocator@D@std@@@std@@QAEXPAPAD@Z ; std::_Wrap_alloc<std::allocator<char> >::destroy<char *>
PUBLIC	??$addressof@PAU?$_Tree_node@PAUHWND__@@PAX@std@@@std@@YAPAPAU?$_Tree_node@PAUHWND__@@PAX@0@AAPAU10@@Z ; std::addressof<std::_Tree_node<HWND__ *,void *> *>
PUBLIC	??$destroy@PAU?$_Tree_node@PAUHWND__@@PAX@std@@@?$_Wrap_alloc@V?$allocator@U?$_Tree_node@PAUHWND__@@PAX@std@@@std@@@std@@QAEXPAPAU?$_Tree_node@PAUHWND__@@PAX@1@@Z ; std::_Wrap_alloc<std::allocator<std::_Tree_node<HWND__ *,void *> > >::destroy<std::_Tree_node<HWND__ *,void *> *>
PUBLIC	??$?0ABU?$less@PAUHWND__@@@std@@U_Zero_then_variadic_args_t@1@@?$_Compressed_pair@U?$less@PAUHWND__@@@std@@V?$_Compressed_pair@U?$_Wrap_alloc@V?$allocator@U?$_Tree_node@PAUHWND__@@PAX@std@@@std@@@std@@V?$_Tree_val@U?$_Tree_simple_types@PAUHWND__@@@std@@@2@$00@2@$00@std@@QAE@U_One_then_variadic_args_t@1@ABU?$less@PAUHWND__@@@1@$$QAU_Zero_then_variadic_args_t@1@@Z ; std::_Compressed_pair<std::less<HWND__ *>,std::_Compressed_pair<std::_Wrap_alloc<std::allocator<std::_Tree_node<HWND__ *,void *> > >,std::_Tree_val<std::_Tree_simple_types<HWND__ *> >,1>,1>::_Compressed_pair<std::less<HWND__ *>,std::_Compressed_pair<std::_Wrap_alloc<std::allocator<std::_Tree_node<HWND__ *,void *> > >,std::_Tree_val<std::_Tree_simple_types<HWND__ *> >,1>,1><std::less<HWND__ *> const &,std::_Zero_then_variadic_args_t>
PUBLIC	??$swap@DX@std@@YAXAAD0@Z			; std::swap<char,void>
PUBLIC	??$addressof@PAUHWND__@@@std@@YAPAPAUHWND__@@AAPAU1@@Z ; std::addressof<HWND__ *>
PUBLIC	??$destroy@PAUHWND__@@@?$_Wrap_alloc@V?$allocator@U?$_Tree_node@PAUHWND__@@PAX@std@@@std@@@std@@QAEXPAPAUHWND__@@@Z ; std::_Wrap_alloc<std::allocator<std::_Tree_node<HWND__ *,void *> > >::destroy<HWND__ *>
PUBLIC	?deallocate@?$allocator@U_Container_proxy@std@@@std@@QAEXPAU_Container_proxy@2@I@Z ; std::allocator<std::_Container_proxy>::deallocate
PUBLIC	?allocate@?$allocator@U_Container_proxy@std@@@std@@QAEPAU_Container_proxy@2@I@Z ; std::allocator<std::_Container_proxy>::allocate
PUBLIC	?address@?$_Wrap_alloc@V?$allocator@U_Container_proxy@std@@@std@@@std@@QBEPAU_Container_proxy@2@AAU32@@Z ; std::_Wrap_alloc<std::allocator<std::_Container_proxy> >::address
PUBLIC	?allocate@?$_Wrap_alloc@V?$allocator@U_Container_proxy@std@@@std@@@std@@QAEPAU_Container_proxy@2@I@Z ; std::_Wrap_alloc<std::allocator<std::_Container_proxy> >::allocate
PUBLIC	?deallocate@?$_Wrap_alloc@V?$allocator@U_Container_proxy@std@@@std@@@std@@QAEXPAU_Container_proxy@2@I@Z ; std::_Wrap_alloc<std::allocator<std::_Container_proxy> >::deallocate
PUBLIC	??$?0AAU?$_Wrap_alloc@V?$allocator@K@std@@@std@@@?$_Wrap_alloc@V?$allocator@U_Container_proxy@std@@@std@@@std@@QAE@AAU?$_Wrap_alloc@V?$allocator@K@std@@@1@@Z ; std::_Wrap_alloc<std::allocator<std::_Container_proxy> >::_Wrap_alloc<std::allocator<std::_Container_proxy> ><std::_Wrap_alloc<std::allocator<unsigned long> > &>
PUBLIC	??$destroy@U_Container_proxy@std@@@?$_Wrap_alloc@V?$allocator@U_Container_proxy@std@@@std@@@std@@QAEXPAU_Container_proxy@1@@Z ; std::_Wrap_alloc<std::allocator<std::_Container_proxy> >::destroy<std::_Container_proxy>
PUBLIC	??$_Unfancy@U_Container_proxy@std@@@std@@YAPAU_Container_proxy@0@PAU10@@Z ; std::_Unfancy<std::_Container_proxy>
PUBLIC	??$construct@U_Container_proxy@std@@U12@@?$_Wrap_alloc@V?$allocator@U_Container_proxy@std@@@std@@@std@@QAEXPAU_Container_proxy@1@$$QAU21@@Z ; std::_Wrap_alloc<std::allocator<std::_Container_proxy> >::construct<std::_Container_proxy,std::_Container_proxy>
PUBLIC	??$addressof@V?$_Deque_val@U?$_Deque_simple_types@K@std@@@std@@@std@@YAPAV?$_Deque_val@U?$_Deque_simple_types@K@std@@@0@AAV10@@Z ; std::addressof<std::_Deque_val<std::_Deque_simple_types<unsigned long> > >
PUBLIC	??$?0$$V@?$_Compressed_pair@U?$_Wrap_alloc@V?$allocator@K@std@@@std@@V?$_Deque_val@U?$_Deque_simple_types@K@std@@@2@$00@std@@QAE@U_Zero_then_variadic_args_t@1@@Z ; std::_Compressed_pair<std::_Wrap_alloc<std::allocator<unsigned long> >,std::_Deque_val<std::_Deque_simple_types<unsigned long> >,1>::_Compressed_pair<std::_Wrap_alloc<std::allocator<unsigned long> >,std::_Deque_val<std::_Deque_simple_types<unsigned long> >,1><>
PUBLIC	??$_Unfancy@K@std@@YAPAKPAK@Z			; std::_Unfancy<unsigned long>
PUBLIC	??$destroy@K@?$_Wrap_alloc@V?$allocator@K@std@@@std@@QAEXPAK@Z ; std::_Wrap_alloc<std::allocator<unsigned long> >::destroy<unsigned long>
PUBLIC	??$_Unfancy@_W@std@@YAPA_WPA_W@Z		; std::_Unfancy<wchar_t>
PUBLIC	??$_Min_value@I@std@@YAABIABI0@Z		; std::_Min_value<unsigned int>
PUBLIC	??$addressof@$$CBV?$basic_string@DU?$char_traits@D@std@@V?$allocator@D@2@@std@@@std@@YAPBV?$basic_string@DU?$char_traits@D@std@@V?$allocator@D@2@@0@ABV10@@Z ; std::addressof<std::basic_string<char,std::char_traits<char>,std::allocator<char> > const >
PUBLIC	?pointer_to@?$pointer_traits@PAU_Container_proxy@std@@@std@@SAPAU_Container_proxy@2@AAU32@@Z ; std::pointer_traits<std::_Container_proxy *>::pointer_to
PUBLIC	??$construct@PA_WAAPA_W@?$_Wrap_alloc@V?$allocator@_W@std@@@std@@QAEXPAPA_WAAPA_W@Z ; std::_Wrap_alloc<std::allocator<wchar_t> >::construct<wchar_t *,wchar_t * &>
PUBLIC	??$construct@PADAAPAD@?$_Wrap_alloc@V?$allocator@D@std@@@std@@QAEXPAPADAAPAD@Z ; std::_Wrap_alloc<std::allocator<char> >::construct<char *,char * &>
PUBLIC	??$addressof@U_Container_proxy@std@@@std@@YAPAU_Container_proxy@0@AAU10@@Z ; std::addressof<std::_Container_proxy>
PUBLIC	??$construct@PAU?$_Tree_node@PAUHWND__@@PAX@std@@AAPAU12@@?$_Wrap_alloc@V?$allocator@U?$_Tree_node@PAUHWND__@@PAX@std@@@std@@@std@@QAEXPAPAU?$_Tree_node@PAUHWND__@@PAX@1@AAPAU21@@Z ; std::_Wrap_alloc<std::allocator<std::_Tree_node<HWND__ *,void *> > >::construct<std::_Tree_node<HWND__ *,void *> *,std::_Tree_node<HWND__ *,void *> * &>
PUBLIC	??$forward@AAPAUHWND__@@@std@@YAAAPAUHWND__@@AAPAU1@@Z ; std::forward<HWND__ * &>
PUBLIC	??$_Buynode@AAPAUHWND__@@@?$_Tree_comp_alloc@V?$_Tset_traits@PAUHWND__@@U?$less@PAUHWND__@@@std@@V?$allocator@PAUHWND__@@@3@$0A@@std@@@std@@QAEPAU?$_Tree_node@PAUHWND__@@PAX@1@AAPAUHWND__@@@Z ; std::_Tree_comp_alloc<std::_Tset_traits<HWND__ *,std::less<HWND__ *>,std::allocator<HWND__ *>,0> >::_Buynode<HWND__ * &>
PUBLIC	??$_Insert_nohint@AAPAUHWND__@@PAU?$_Tree_node@PAUHWND__@@PAX@std@@@?$_Tree@V?$_Tset_traits@PAUHWND__@@U?$less@PAUHWND__@@@std@@V?$allocator@PAUHWND__@@@3@$0A@@std@@@std@@IAE?AU?$pair@V?$_Tree_const_iterator@V?$_Tree_val@U?$_Tree_simple_types@PAUHWND__@@@std@@@std@@@std@@_N@1@_NAAPAUHWND__@@PAU?$_Tree_node@PAUHWND__@@PAX@1@@Z ; std::_Tree<std::_Tset_traits<HWND__ *,std::less<HWND__ *>,std::allocator<HWND__ *>,0> >::_Insert_nohint<HWND__ * &,std::_Tree_node<HWND__ *,void *> *>
PUBLIC	??$_Distance1@V?$_Tree_const_iterator@V?$_Tree_val@U?$_Tree_simple_types@PAUHWND__@@@std@@@std@@@std@@@std@@YAHV?$_Tree_const_iterator@V?$_Tree_val@U?$_Tree_simple_types@PAUHWND__@@@std@@@std@@@0@0Uinput_iterator_tag@0@@Z ; std::_Distance1<std::_Tree_const_iterator<std::_Tree_val<std::_Tree_simple_types<HWND__ *> > > >
PUBLIC	??$forward@U?$_Wrap_alloc@V?$allocator@K@std@@@std@@@std@@YA$$QAU?$_Wrap_alloc@V?$allocator@K@std@@@0@AAU10@@Z ; std::forward<std::_Wrap_alloc<std::allocator<unsigned long> > >
PUBLIC	??$?0U?$_Wrap_alloc@V?$allocator@K@std@@@std@@$$V@?$_Compressed_pair@U?$_Wrap_alloc@V?$allocator@K@std@@@std@@V?$_Deque_val@U?$_Deque_simple_types@K@std@@@2@$00@std@@QAE@U_One_then_variadic_args_t@1@$$QAU?$_Wrap_alloc@V?$allocator@K@std@@@1@@Z ; std::_Compressed_pair<std::_Wrap_alloc<std::allocator<unsigned long> >,std::_Deque_val<std::_Deque_simple_types<unsigned long> >,1>::_Compressed_pair<std::_Wrap_alloc<std::allocator<unsigned long> >,std::_Deque_val<std::_Deque_simple_types<unsigned long> >,1><std::_Wrap_alloc<std::allocator<unsigned long> > >
PUBLIC	??$emplace_back@ABK@?$deque@KV?$allocator@K@std@@@std@@QAEXABK@Z ; std::deque<unsigned long,std::allocator<unsigned long> >::emplace_back<unsigned long const &>
PUBLIC	??$forward@U?$_Wrap_alloc@V?$allocator@_W@std@@@std@@@std@@YA$$QAU?$_Wrap_alloc@V?$allocator@_W@std@@@0@AAU10@@Z ; std::forward<std::_Wrap_alloc<std::allocator<wchar_t> > >
PUBLIC	??$?0U?$_Wrap_alloc@V?$allocator@_W@std@@@std@@$$V@?$_Compressed_pair@U?$_Wrap_alloc@V?$allocator@_W@std@@@std@@V?$_String_val@U?$_Simple_types@_W@std@@@2@$00@std@@QAE@U_One_then_variadic_args_t@1@$$QAU?$_Wrap_alloc@V?$allocator@_W@std@@@1@@Z ; std::_Compressed_pair<std::_Wrap_alloc<std::allocator<wchar_t> >,std::_String_val<std::_Simple_types<wchar_t> >,1>::_Compressed_pair<std::_Wrap_alloc<std::allocator<wchar_t> >,std::_String_val<std::_Simple_types<wchar_t> >,1><std::_Wrap_alloc<std::allocator<wchar_t> > >
PUBLIC	??$?0AAV?$_Tree_const_iterator@V?$_Tree_val@U?$_Tree_simple_types@PAUHWND__@@@std@@@std@@@std@@AAV01@X$0A@@?$pair@V?$_Tree_const_iterator@V?$_Tree_val@U?$_Tree_simple_types@PAUHWND__@@@std@@@std@@@std@@V12@@std@@QAE@AAV?$_Tree_const_iterator@V?$_Tree_val@U?$_Tree_simple_types@PAUHWND__@@@std@@@std@@@1@0@Z ; std::pair<std::_Tree_const_iterator<std::_Tree_val<std::_Tree_simple_types<HWND__ *> > >,std::_Tree_const_iterator<std::_Tree_val<std::_Tree_simple_types<HWND__ *> > > >::pair<std::_Tree_const_iterator<std::_Tree_val<std::_Tree_simple_types<HWND__ *> > >,std::_Tree_const_iterator<std::_Tree_val<std::_Tree_simple_types<HWND__ *> > > ><std::_Tree_const_iterator<std::_Tree_val<std::_Tree_simple_types<HWND__ *> > > &,std::_Tree_const_iterator<std::_Tree_val<std::_Tree_simple_types<HWND__ *> > > &,void,0>
PUBLIC	??$forward@V?$allocator@K@std@@@std@@YA$$QAV?$allocator@K@0@AAV10@@Z ; std::forward<std::allocator<unsigned long> >
PUBLIC	??$?8V?$allocator@K@std@@V01@@std@@YA_NABU?$_Wrap_alloc@V?$allocator@K@std@@@0@0@Z ; std::operator==<std::allocator<unsigned long>,std::allocator<unsigned long> >
PUBLIC	??$?8KK@std@@YA_NABV?$allocator@K@0@0@Z		; std::operator==<unsigned long,unsigned long>
PUBLIC	??$_Pocma@U?$_Wrap_alloc@V?$allocator@K@std@@@std@@@std@@YAXAAU?$_Wrap_alloc@V?$allocator@K@std@@@0@0U?$integral_constant@_N$00@0@@Z ; std::_Pocma<std::_Wrap_alloc<std::allocator<unsigned long> > >
PUBLIC	??$forward@AAU?$_Wrap_alloc@V?$allocator@K@std@@@std@@@std@@YAAAU?$_Wrap_alloc@V?$allocator@K@std@@@0@AAU10@@Z ; std::forward<std::_Wrap_alloc<std::allocator<unsigned long> > &>
PUBLIC	??$?0K@?$allocator@PAK@std@@QAE@ABV?$allocator@K@1@@Z ; std::allocator<unsigned long *>::allocator<unsigned long *><unsigned long>
PUBLIC	??$destroy@PAK@?$allocator_traits@V?$allocator@K@std@@@std@@SAXAAV?$allocator@K@1@PAPAK@Z ; std::allocator_traits<std::allocator<unsigned long> >::destroy<unsigned long *>
PUBLIC	??$forward@V?$allocator@_W@std@@@std@@YA$$QAV?$allocator@_W@0@AAV10@@Z ; std::forward<std::allocator<wchar_t> >
PUBLIC	??$destroy@PA_W@?$allocator_traits@V?$allocator@_W@std@@@std@@SAXAAV?$allocator@_W@1@PAPA_W@Z ; std::allocator_traits<std::allocator<wchar_t> >::destroy<wchar_t *>
PUBLIC	??$destroy@PAD@?$allocator_traits@V?$allocator@D@std@@@std@@SAXAAV?$allocator@D@1@PAPAD@Z ; std::allocator_traits<std::allocator<char> >::destroy<char *>
PUBLIC	??$destroy@PAU?$_Tree_node@PAUHWND__@@PAX@std@@@?$allocator_traits@V?$allocator@U?$_Tree_node@PAUHWND__@@PAX@std@@@std@@@std@@SAXAAV?$allocator@U?$_Tree_node@PAUHWND__@@PAX@std@@@1@PAPAU?$_Tree_node@PAUHWND__@@PAX@1@@Z ; std::allocator_traits<std::allocator<std::_Tree_node<HWND__ *,void *> > >::destroy<std::_Tree_node<HWND__ *,void *> *>
PUBLIC	??$forward@ABU?$less@PAUHWND__@@@std@@@std@@YAABU?$less@PAUHWND__@@@0@ABU10@@Z ; std::forward<std::less<HWND__ *> const &>
PUBLIC	??$forward@U_Zero_then_variadic_args_t@std@@@std@@YA$$QAU_Zero_then_variadic_args_t@0@AAU10@@Z ; std::forward<std::_Zero_then_variadic_args_t>
PUBLIC	??$?0$$V@?$_Compressed_pair@U?$_Wrap_alloc@V?$allocator@U?$_Tree_node@PAUHWND__@@PAX@std@@@std@@@std@@V?$_Tree_val@U?$_Tree_simple_types@PAUHWND__@@@std@@@2@$00@std@@QAE@U_Zero_then_variadic_args_t@1@@Z ; std::_Compressed_pair<std::_Wrap_alloc<std::allocator<std::_Tree_node<HWND__ *,void *> > >,std::_Tree_val<std::_Tree_simple_types<HWND__ *> >,1>::_Compressed_pair<std::_Wrap_alloc<std::allocator<std::_Tree_node<HWND__ *,void *> > >,std::_Tree_val<std::_Tree_simple_types<HWND__ *> >,1><>
PUBLIC	??$move@AAD@std@@YA$$QADAAD@Z			; std::move<char &>
PUBLIC	??$destroy@PAUHWND__@@@?$allocator_traits@V?$allocator@U?$_Tree_node@PAUHWND__@@PAX@std@@@std@@@std@@SAXAAV?$allocator@U?$_Tree_node@PAUHWND__@@PAX@std@@@1@PAPAUHWND__@@@Z ; std::allocator_traits<std::allocator<std::_Tree_node<HWND__ *,void *> > >::destroy<HWND__ *>
PUBLIC	??$?0K@?$allocator@U_Container_proxy@std@@@std@@QAE@ABV?$allocator@K@1@@Z ; std::allocator<std::_Container_proxy>::allocator<std::_Container_proxy><unsigned long>
PUBLIC	??$destroy@U_Container_proxy@std@@@?$allocator_traits@V?$allocator@U_Container_proxy@std@@@std@@@std@@SAXAAV?$allocator@U_Container_proxy@std@@@1@PAU_Container_proxy@1@@Z ; std::allocator_traits<std::allocator<std::_Container_proxy> >::destroy<std::_Container_proxy>
PUBLIC	??$forward@U_Container_proxy@std@@@std@@YA$$QAU_Container_proxy@0@AAU10@@Z ; std::forward<std::_Container_proxy>
PUBLIC	??$construct@U_Container_proxy@std@@U12@@?$allocator_traits@V?$allocator@U_Container_proxy@std@@@std@@@std@@SAXAAV?$allocator@U_Container_proxy@std@@@1@PAU_Container_proxy@1@$$QAU31@@Z ; std::allocator_traits<std::allocator<std::_Container_proxy> >::construct<std::_Container_proxy,std::_Container_proxy>
PUBLIC	??$destroy@K@?$allocator_traits@V?$allocator@K@std@@@std@@SAXAAV?$allocator@K@1@PAK@Z ; std::allocator_traits<std::allocator<unsigned long> >::destroy<unsigned long>
PUBLIC	??$forward@AAPA_W@std@@YAAAPA_WAAPA_W@Z		; std::forward<wchar_t * &>
PUBLIC	??$construct@PA_WAAPA_W@?$allocator_traits@V?$allocator@_W@std@@@std@@SAXAAV?$allocator@_W@1@PAPA_WAAPA_W@Z ; std::allocator_traits<std::allocator<wchar_t> >::construct<wchar_t *,wchar_t * &>
PUBLIC	??$forward@AAPAD@std@@YAAAPADAAPAD@Z		; std::forward<char * &>
PUBLIC	??$construct@PADAAPAD@?$allocator_traits@V?$allocator@D@std@@@std@@SAXAAV?$allocator@D@1@PAPADAAPAD@Z ; std::allocator_traits<std::allocator<char> >::construct<char *,char * &>
PUBLIC	??$forward@AAPAU?$_Tree_node@PAUHWND__@@PAX@std@@@std@@YAAAPAU?$_Tree_node@PAUHWND__@@PAX@0@AAPAU10@@Z ; std::forward<std::_Tree_node<HWND__ *,void *> * &>
PUBLIC	??$construct@PAU?$_Tree_node@PAUHWND__@@PAX@std@@AAPAU12@@?$allocator_traits@V?$allocator@U?$_Tree_node@PAUHWND__@@PAX@std@@@std@@@std@@SAXAAV?$allocator@U?$_Tree_node@PAUHWND__@@PAX@std@@@1@PAPAU?$_Tree_node@PAUHWND__@@PAX@1@AAPAU31@@Z ; std::allocator_traits<std::allocator<std::_Tree_node<HWND__ *,void *> > >::construct<std::_Tree_node<HWND__ *,void *> *,std::_Tree_node<HWND__ *,void *> * &>
PUBLIC	??$_Traits_equal@U?$char_traits@_W@std@@@std@@YA_NQB_WI0I@Z ; std::_Traits_equal<std::char_traits<wchar_t> >
PUBLIC	??$addressof@$$CBV?$_Tree_val@U?$_Tree_simple_types@PAUHWND__@@@std@@@std@@@std@@YAPBV?$_Tree_val@U?$_Tree_simple_types@PAUHWND__@@@std@@@0@ABV10@@Z ; std::addressof<std::_Tree_val<std::_Tree_simple_types<HWND__ *> > const >
PUBLIC	??$construct@PAUHWND__@@AAPAU1@@?$_Wrap_alloc@V?$allocator@U?$_Tree_node@PAUHWND__@@PAX@std@@@std@@@std@@QAEXPAPAUHWND__@@AAPAU2@@Z ; std::_Wrap_alloc<std::allocator<std::_Tree_node<HWND__ *,void *> > >::construct<HWND__ *,HWND__ * &>
PUBLIC	??$_Insert_at@AAPAUHWND__@@PAU?$_Tree_node@PAUHWND__@@PAX@std@@@?$_Tree@V?$_Tset_traits@PAUHWND__@@U?$less@PAUHWND__@@@std@@V?$allocator@PAUHWND__@@@3@$0A@@std@@@std@@IAE?AV?$_Tree_const_iterator@V?$_Tree_val@U?$_Tree_simple_types@PAUHWND__@@@std@@@std@@@1@_NPAU?$_Tree_node@PAUHWND__@@PAX@1@AAPAUHWND__@@1@Z ; std::_Tree<std::_Tset_traits<HWND__ *,std::less<HWND__ *>,std::allocator<HWND__ *>,0> >::_Insert_at<HWND__ * &,std::_Tree_node<HWND__ *,void *> *>
PUBLIC	??$?0V?$_Tree_const_iterator@V?$_Tree_val@U?$_Tree_simple_types@PAUHWND__@@@std@@@std@@@std@@_NX$0A@@?$pair@V?$_Tree_const_iterator@V?$_Tree_val@U?$_Tree_simple_types@PAUHWND__@@@std@@@std@@@std@@_N@std@@QAE@$$QAV?$_Tree_const_iterator@V?$_Tree_val@U?$_Tree_simple_types@PAUHWND__@@@std@@@std@@@1@$$QA_N@Z ; std::pair<std::_Tree_const_iterator<std::_Tree_val<std::_Tree_simple_types<HWND__ *> > >,bool>::pair<std::_Tree_const_iterator<std::_Tree_val<std::_Tree_simple_types<HWND__ *> > >,bool><std::_Tree_const_iterator<std::_Tree_val<std::_Tree_simple_types<HWND__ *> > >,bool,void,0>
PUBLIC	??$?0AAV?$_Tree_const_iterator@V?$_Tree_val@U?$_Tree_simple_types@PAUHWND__@@@std@@@std@@@std@@_NX$0A@@?$pair@V?$_Tree_const_iterator@V?$_Tree_val@U?$_Tree_simple_types@PAUHWND__@@@std@@@std@@@std@@_N@std@@QAE@AAV?$_Tree_const_iterator@V?$_Tree_val@U?$_Tree_simple_types@PAUHWND__@@@std@@@std@@@1@$$QA_N@Z ; std::pair<std::_Tree_const_iterator<std::_Tree_val<std::_Tree_simple_types<HWND__ *> > >,bool>::pair<std::_Tree_const_iterator<std::_Tree_val<std::_Tree_simple_types<HWND__ *> > >,bool><std::_Tree_const_iterator<std::_Tree_val<std::_Tree_simple_types<HWND__ *> > > &,bool,void,0>
PUBLIC	??$forward@ABK@std@@YAABKABK@Z			; std::forward<unsigned long const &>
PUBLIC	??$construct@KABK@?$_Wrap_alloc@V?$allocator@K@std@@@std@@QAEXPAKABK@Z ; std::_Wrap_alloc<std::allocator<unsigned long> >::construct<unsigned long,unsigned long const &>
PUBLIC	??$forward@AAV?$_Tree_const_iterator@V?$_Tree_val@U?$_Tree_simple_types@PAUHWND__@@@std@@@std@@@std@@@std@@YAAAV?$_Tree_const_iterator@V?$_Tree_val@U?$_Tree_simple_types@PAUHWND__@@@std@@@std@@@0@AAV10@@Z ; std::forward<std::_Tree_const_iterator<std::_Tree_val<std::_Tree_simple_types<HWND__ *> > > &>
PUBLIC	??$move@AAU?$_Wrap_alloc@V?$allocator@K@std@@@std@@@std@@YA$$QAU?$_Wrap_alloc@V?$allocator@K@std@@@0@AAU10@@Z ; std::move<std::_Wrap_alloc<std::allocator<unsigned long> > &>
PUBLIC	??$destroy@PAK@?$allocator@K@std@@QAEXPAPAK@Z	; std::allocator<unsigned long>::destroy<unsigned long *>
PUBLIC	??$destroy@PA_W@?$allocator@_W@std@@QAEXPAPA_W@Z ; std::allocator<wchar_t>::destroy<wchar_t *>
PUBLIC	??$destroy@PAD@?$allocator@D@std@@QAEXPAPAD@Z	; std::allocator<char>::destroy<char *>
PUBLIC	??$destroy@PAU?$_Tree_node@PAUHWND__@@PAX@std@@@?$allocator@U?$_Tree_node@PAUHWND__@@PAX@std@@@std@@QAEXPAPAU?$_Tree_node@PAUHWND__@@PAX@1@@Z ; std::allocator<std::_Tree_node<HWND__ *,void *> >::destroy<std::_Tree_node<HWND__ *,void *> *>
PUBLIC	??$destroy@PAUHWND__@@@?$allocator@U?$_Tree_node@PAUHWND__@@PAX@std@@@std@@QAEXPAPAUHWND__@@@Z ; std::allocator<std::_Tree_node<HWND__ *,void *> >::destroy<HWND__ *>
PUBLIC	??$destroy@U_Container_proxy@std@@@?$allocator@U_Container_proxy@std@@@std@@QAEXPAU_Container_proxy@1@@Z ; std::allocator<std::_Container_proxy>::destroy<std::_Container_proxy>
PUBLIC	??$construct@U_Container_proxy@std@@U12@@?$allocator@U_Container_proxy@std@@@std@@QAEXPAU_Container_proxy@1@$$QAU21@@Z ; std::allocator<std::_Container_proxy>::construct<std::_Container_proxy,std::_Container_proxy>
PUBLIC	??$forward@_N@std@@YA$$QA_NAA_N@Z		; std::forward<bool>
PUBLIC	??$destroy@K@?$allocator@K@std@@QAEXPAK@Z	; std::allocator<unsigned long>::destroy<unsigned long>
PUBLIC	??$construct@PA_WAAPA_W@?$allocator@_W@std@@QAEXPAPA_WAAPA_W@Z ; std::allocator<wchar_t>::construct<wchar_t *,wchar_t * &>
PUBLIC	??$construct@PADAAPAD@?$allocator@D@std@@QAEXPAPADAAPAD@Z ; std::allocator<char>::construct<char *,char * &>
PUBLIC	??$construct@PAU?$_Tree_node@PAUHWND__@@PAX@std@@AAPAU12@@?$allocator@U?$_Tree_node@PAUHWND__@@PAX@std@@@std@@QAEXPAPAU?$_Tree_node@PAUHWND__@@PAX@1@AAPAU21@@Z ; std::allocator<std::_Tree_node<HWND__ *,void *> >::construct<std::_Tree_node<HWND__ *,void *> *,std::_Tree_node<HWND__ *,void *> * &>
PUBLIC	??$_Uninitialized_copy@PAPAKPAPAKV?$allocator@PAK@std@@@std@@YAPAPAKPAPAK00AAU?$_Wrap_alloc@V?$allocator@PAK@std@@@0@@Z ; std::_Uninitialized_copy<unsigned long * *,unsigned long * *,std::allocator<unsigned long *> >
PUBLIC	??$_Uninitialized_default_fill_n@PAPAKIV?$allocator@PAK@std@@@std@@YAPAPAKPAPAKIAAU?$_Wrap_alloc@V?$allocator@PAK@std@@@0@@Z ; std::_Uninitialized_default_fill_n<unsigned long * *,unsigned int,std::allocator<unsigned long *> >
PUBLIC	??$_Destroy_range@V?$allocator@PAK@std@@PAPAK@std@@YAXPAPAK0AAU?$_Wrap_alloc@V?$allocator@PAK@std@@@0@@Z ; std::_Destroy_range<std::allocator<unsigned long *>,unsigned long * *>
PUBLIC	??$construct@PAUHWND__@@AAPAU1@@?$allocator_traits@V?$allocator@U?$_Tree_node@PAUHWND__@@PAX@std@@@std@@@std@@SAXAAV?$allocator@U?$_Tree_node@PAUHWND__@@PAX@std@@@1@PAPAUHWND__@@AAPAU3@@Z ; std::allocator_traits<std::allocator<std::_Tree_node<HWND__ *,void *> > >::construct<HWND__ *,HWND__ * &>
PUBLIC	??$_Buynode_if_nil@AAPAUHWND__@@@?$_Tree@V?$_Tset_traits@PAUHWND__@@U?$less@PAUHWND__@@@std@@V?$allocator@PAUHWND__@@@3@$0A@@std@@@std@@IAEPAU?$_Tree_node@PAUHWND__@@PAX@1@PAU21@AAPAUHWND__@@@Z ; std::_Tree<std::_Tset_traits<HWND__ *,std::less<HWND__ *>,std::allocator<HWND__ *>,0> >::_Buynode_if_nil<HWND__ * &>
PUBLIC	??$forward@V?$_Tree_const_iterator@V?$_Tree_val@U?$_Tree_simple_types@PAUHWND__@@@std@@@std@@@std@@@std@@YA$$QAV?$_Tree_const_iterator@V?$_Tree_val@U?$_Tree_simple_types@PAUHWND__@@@std@@@std@@@0@AAV10@@Z ; std::forward<std::_Tree_const_iterator<std::_Tree_val<std::_Tree_simple_types<HWND__ *> > > >
PUBLIC	??$construct@KABK@?$allocator_traits@V?$allocator@K@std@@@std@@SAXAAV?$allocator@K@1@PAKABK@Z ; std::allocator_traits<std::allocator<unsigned long> >::construct<unsigned long,unsigned long const &>
PUBLIC	??$_Unchecked@PAPAK@std@@YAPAPAKPAPAK@Z		; std::_Unchecked<unsigned long * *>
PUBLIC	??$_Ptr_copy_cat@PAKPAK@std@@YA?AU_Really_trivial_ptr_iterator_tag@0@ABQAPAK0@Z ; std::_Ptr_copy_cat<unsigned long *,unsigned long *>
PUBLIC	??$_Uninitialized_copy_al_unchecked@PAKPAKV?$allocator@PAK@std@@@std@@YAPAPAKPAPAK00AAU?$_Wrap_alloc@V?$allocator@PAK@std@@@0@U_Really_trivial_ptr_iterator_tag@0@U?$integral_constant@_N$00@0@@Z ; std::_Uninitialized_copy_al_unchecked<unsigned long *,unsigned long *,std::allocator<unsigned long *> >
PUBLIC	??$_Rechecked@PAPAKPAPAK@std@@YAAAPAPAKAAPAPAKPAPAK@Z ; std::_Rechecked<unsigned long * *,unsigned long * *>
PUBLIC	??$_Uninitialized_default_fill_n1@PAPAKIV?$allocator@PAK@std@@@std@@YAPAPAKPAPAKIAAU?$_Wrap_alloc@V?$allocator@PAK@std@@@0@U?$integral_constant@_N$00@0@@Z ; std::_Uninitialized_default_fill_n1<unsigned long * *,unsigned int,std::allocator<unsigned long *> >
PUBLIC	??$_Destroy_range1@V?$allocator@PAK@std@@PAPAK@std@@YAXPAPAK0AAU?$_Wrap_alloc@V?$allocator@PAK@std@@@0@U?$integral_constant@_N$00@0@@Z ; std::_Destroy_range1<std::allocator<unsigned long *>,unsigned long * *>
PUBLIC	??$construct@PAUHWND__@@AAPAU1@@?$allocator@U?$_Tree_node@PAUHWND__@@PAX@std@@@std@@QAEXPAPAUHWND__@@AAPAU2@@Z ; std::allocator<std::_Tree_node<HWND__ *,void *> >::construct<HWND__ *,HWND__ * &>
PUBLIC	??$construct@KABK@?$allocator@K@std@@QAEXPAKABK@Z ; std::allocator<unsigned long>::construct<unsigned long,unsigned long const &>
PUBLIC	??$_Copy_memmove@PAPAKPAPAK@std@@YAPAPAKPAPAK00@Z ; std::_Copy_memmove<unsigned long * *,unsigned long * *>
PUBLIC	??_7SK_ICommand@@6B@				; SK_ICommand::`vftable'
PUBLIC	??_C@_0BC@EBCNAKOF@No?5Help?5Available?$AA@	; `string'
PUBLIC	?atlTraceGeneral@ATL@@3V?$CTraceCategoryEx@$00$0A@@1@A ; ATL::atlTraceGeneral
PUBLIC	?atlTraceCOM@ATL@@3V?$CTraceCategoryEx@$01$0A@@1@A ; ATL::atlTraceCOM
PUBLIC	?atlTraceQI@ATL@@3V?$CTraceCategoryEx@$03$0A@@1@A ; ATL::atlTraceQI
PUBLIC	?atlTraceRegistrar@ATL@@3V?$CTraceCategoryEx@$07$0A@@1@A ; ATL::atlTraceRegistrar
PUBLIC	?atlTraceRefcount@ATL@@3V?$CTraceCategoryEx@$0BA@$0A@@1@A ; ATL::atlTraceRefcount
PUBLIC	?atlTraceWindowing@ATL@@3V?$CTraceCategoryEx@$0CA@$0A@@1@A ; ATL::atlTraceWindowing
PUBLIC	?atlTraceControls@ATL@@3V?$CTraceCategoryEx@$0EA@$0A@@1@A ; ATL::atlTraceControls
PUBLIC	?atlTraceHosting@ATL@@3V?$CTraceCategoryEx@$0IA@$0A@@1@A ; ATL::atlTraceHosting
PUBLIC	?atlTraceDBClient@ATL@@3V?$CTraceCategoryEx@$0BAA@$0A@@1@A ; ATL::atlTraceDBClient
PUBLIC	?atlTraceDBProvider@ATL@@3V?$CTraceCategoryEx@$0CAA@$0A@@1@A ; ATL::atlTraceDBProvider
PUBLIC	?atlTraceSnapin@ATL@@3V?$CTraceCategoryEx@$0EAA@$0A@@1@A ; ATL::atlTraceSnapin
PUBLIC	?atlTraceNotImpl@ATL@@3V?$CTraceCategoryEx@$0IAA@$0A@@1@A ; ATL::atlTraceNotImpl
PUBLIC	?atlTraceAllocation@ATL@@3V?$CTraceCategoryEx@$0BAAA@$0A@@1@A ; ATL::atlTraceAllocation
PUBLIC	?atlTraceException@ATL@@3V?$CTraceCategoryEx@$0CAAA@$0A@@1@A ; ATL::atlTraceException
PUBLIC	?atlTraceTime@ATL@@3V?$CTraceCategoryEx@$0EAAA@$0A@@1@A ; ATL::atlTraceTime
PUBLIC	?atlTraceCache@ATL@@3V?$CTraceCategoryEx@$0IAAA@$0A@@1@A ; ATL::atlTraceCache
PUBLIC	?atlTraceStencil@ATL@@3V?$CTraceCategoryEx@$0BAAAA@$0A@@1@A ; ATL::atlTraceStencil
PUBLIC	?atlTraceString@ATL@@3V?$CTraceCategoryEx@$0CAAAA@$0A@@1@A ; ATL::atlTraceString
PUBLIC	?atlTraceMap@ATL@@3V?$CTraceCategoryEx@$0EAAAA@$0A@@1@A ; ATL::atlTraceMap
PUBLIC	?atlTraceUtil@ATL@@3V?$CTraceCategoryEx@$0IAAAA@$0A@@1@A ; ATL::atlTraceUtil
PUBLIC	?atlTraceSecurity@ATL@@3V?$CTraceCategoryEx@$0BAAAAA@$0A@@1@A ; ATL::atlTraceSecurity
PUBLIC	?atlTraceSync@ATL@@3V?$CTraceCategoryEx@$0CAAAAA@$0A@@1@A ; ATL::atlTraceSync
PUBLIC	?atlTraceISAPI@ATL@@3V?$CTraceCategoryEx@$0EAAAAA@$0A@@1@A ; ATL::atlTraceISAPI
PUBLIC	?m_bInitFailed@CAtlBaseModule@ATL@@2_NA		; ATL::CAtlBaseModule::m_bInitFailed
PUBLIC	?_AtlComModule@ATL@@3VCAtlComModule@1@A		; ATL::_AtlComModule
PUBLIC	?_AtlWinModule@ATL@@3VCAtlWinModule@1@A		; ATL::_AtlWinModule
PUBLIC	?SK_ImGui_Widgets@@3USK_ImGui_WidgetRegistry@@A	; SK_ImGui_Widgets
PUBLIC	?init_tids@@3V?$queue@KV?$deque@KV?$allocator@K@std@@@std@@@std@@A ; init_tids
PUBLIC	?init_@@3Uinit_params_t@@A			; init_
PUBLIC	??_C@_1BA@IKEODOOB@?$AAI?$AAN?$AAV?$AAA?$AAL?$AAI?$AAD?$AA?$AA@ ; `string'
PUBLIC	?__SK_Init_Suspended_tids@@3V?$queue@KV?$deque@KV?$allocator@K@std@@@std@@@std@@A ; __SK_Init_Suspended_tids
PUBLIC	??_7skMemCmd@@6B@				; skMemCmd::`vftable'
PUBLIC	??_7skUpdateCmd@@6B@				; skUpdateCmd::`vftable'
PUBLIC	?reentrant_core@@3Uinit_params_t@@A		; reentrant_core
PUBLIC	?dummy_windows@@3V?$set@PAUHWND__@@U?$less@PAUHWND__@@@std@@V?$allocator@PAUHWND__@@@3@@std@@A ; dummy_windows
PUBLIC	??_C@_17LGKOMLJ@?$AA?4?$AA?4?$AA?4?$AA?$AA@	; `string'
PUBLIC	??_C@_1EE@MENKLOLO@?$AA?$FL?$AA?5?$AAW?$AAM?$AAI?$AA?5?$AAP?$AAe?$AAr?$AAf?$AA?5?$AA?$FN?$AA?5?$AAS?$AAh?$AAu?$AAt?$AAt?$AAi?$AAn?$AAg?$AA?5?$AAd?$AAo?$AAw?$AAn?$AA?5?$AA?$CF?$AA?9?$AA3?$AA0?$AAs@ ; `string'
PUBLIC	??_C@_1CA@KKELPOIK@?$AAd?$AAo?$AAn?$AAe?$AA?$CB?$AA?5?$AA?$CI?$AA?$CF?$AA4?$AAu?$AA?5?$AAm?$AAs?$AA?$CJ?$AA?6?$AA?$AA@ ; `string'
PUBLIC	??_C@_0BA@JFNIOLAK@string?5too?5long?$AA@	; `string'
PUBLIC	??_C@_0BI@CFPLBAOH@invalid?5string?5position?$AA@ ; `string'
PUBLIC	__GUID_b18b10ce_2649_405a_870f_95f777d4313a
PUBLIC	__GUID_d0223b96_bf7a_43fd_92bd_a43b0d82b9eb
PUBLIC	__GUID_db6f6ddb_ac77_4e88_8253_819df9bbf140
PUBLIC	__GUID_310d36a0_d2e7_4c0a_aa04_6a9d23b8886a
PUBLIC	??_C@_0BC@KBDMBKEH@deque?$DMT?$DO?5too?5long?$AA@ ; `string'
PUBLIC	??_C@_0BE@JONHPENG@map?1set?$DMT?$DO?5too?5long?$AA@ ; `string'
PUBLIC	??_R4SK_ICommand@@6B@				; SK_ICommand::`RTTI Complete Object Locator'
PUBLIC	??_R0?AUSK_ICommand@@@8				; SK_ICommand `RTTI Type Descriptor'
PUBLIC	??_R3SK_ICommand@@8				; SK_ICommand::`RTTI Class Hierarchy Descriptor'
PUBLIC	??_R2SK_ICommand@@8				; SK_ICommand::`RTTI Base Class Array'
PUBLIC	??_R1A@?0A@EA@SK_ICommand@@8			; SK_ICommand::`RTTI Base Class Descriptor at (0,-1,0,64)'
PUBLIC	??_R4skMemCmd@@6B@				; skMemCmd::`RTTI Complete Object Locator'
PUBLIC	??_R0?AVskMemCmd@@@8				; skMemCmd `RTTI Type Descriptor'
PUBLIC	??_R3skMemCmd@@8				; skMemCmd::`RTTI Class Hierarchy Descriptor'
PUBLIC	??_R2skMemCmd@@8				; skMemCmd::`RTTI Base Class Array'
PUBLIC	??_R1A@?0A@EA@skMemCmd@@8			; skMemCmd::`RTTI Base Class Descriptor at (0,-1,0,64)'
PUBLIC	??_R4skUpdateCmd@@6B@				; skUpdateCmd::`RTTI Complete Object Locator'
PUBLIC	??_R0?AVskUpdateCmd@@@8				; skUpdateCmd `RTTI Type Descriptor'
PUBLIC	??_R3skUpdateCmd@@8				; skUpdateCmd::`RTTI Class Hierarchy Descriptor'
PUBLIC	??_R2skUpdateCmd@@8				; skUpdateCmd::`RTTI Base Class Array'
PUBLIC	??_R1A@?0A@EA@skUpdateCmd@@8			; skUpdateCmd::`RTTI Base Class Descriptor at (0,-1,0,64)'
PUBLIC	__real@447a0000
EXTRN	__purecall:PROC
EXTRN	??2@YAPAXI@Z:PROC				; operator new
EXTRN	??3@YAXPAX@Z:PROC				; operator delete
EXTRN	??3@YAXPAXI@Z:PROC				; operator delete
EXTRN	_atexit:PROC
EXTRN	__Init_thread_header:PROC
EXTRN	__Init_thread_footer:PROC
EXTRN	___std_terminate:PROC
EXTRN	__imp___invalid_parameter_noinfo_noreturn:PROC
EXTRN	__imp__memmove:PROC
EXTRN	__imp___wcsdup:PROC
EXTRN	__imp__wcsncpy:PROC
EXTRN	__imp__SetCurrentDirectoryW@4:PROC
EXTRN	__imp__GetCurrentDirectoryW@8:PROC
EXTRN	__imp__DeleteFileW@4:PROC
EXTRN	__imp__GetFileAttributesW@4:PROC
EXTRN	__imp__DecodePointer@4:PROC
EXTRN	__imp__CloseHandle@4:PROC
EXTRN	__imp__RaiseException@16:PROC
EXTRN	__imp__GetLastError@0:PROC
EXTRN	__imp__EnterCriticalSection@4:PROC
EXTRN	__imp__LeaveCriticalSection@4:PROC
EXTRN	__imp__InitializeCriticalSectionEx@12:PROC
EXTRN	__imp__DeleteCriticalSection@4:PROC
EXTRN	__imp__SetEvent@4:PROC
EXTRN	__imp__WaitForSingleObject@8:PROC
EXTRN	__imp__SleepEx@8:PROC
EXTRN	__imp__CreateEventW@16:PROC
EXTRN	__imp__SignalObjectAndWait@16:PROC
EXTRN	__imp__GetCurrentProcessId@0:PROC
EXTRN	__imp__CreateThread@24:PROC
EXTRN	__imp__GetCurrentThread@0:PROC
EXTRN	__imp__GetCurrentThreadId@0:PROC
EXTRN	__imp__TerminateThread@8:PROC
EXTRN	__imp__GetThreadId@4:PROC
EXTRN	__imp__GetSystemTime@4:PROC
EXTRN	__imp__VirtualProtect@16:PROC
EXTRN	__imp__VirtualQuery@12:PROC
EXTRN	__imp__GetModuleHandleW@4:PROC
EXTRN	__imp__GetProcAddress@8:PROC
EXTRN	__imp__lstrcmpW@8:PROC
EXTRN	__imp__lstrcpynW@12:PROC
EXTRN	__imp__lstrcatW@8:PROC
EXTRN	__imp__SystemTimeToFileTime@8:PROC
EXTRN	__imp__CreateSymbolicLinkW@12:PROC
EXTRN	__imp__wsprintfW:PROC
EXTRN	__imp__DefWindowProcW@16:PROC
EXTRN	__imp__RegisterClassW@4:PROC
EXTRN	__imp__UnregisterClassW@8:PROC
EXTRN	__imp__GetClassInfoW@12:PROC
EXTRN	__imp__DestroyWindow@4:PROC
EXTRN	__imp__GetAsyncKeyState@4:PROC
EXTRN	__imp__MsgWaitForMultipleObjectsEx@20:PROC
EXTRN	__imp__GetForegroundWindow@0:PROC
EXTRN	__imp__ClipCursor@4:PROC
EXTRN	__imp__GetDesktopWindow@0:PROC
EXTRN	__imp__ChangeDisplaySettingsA@8:PROC
EXTRN	__imp__timeGetTime@0:PROC
EXTRN	__imp__ShellExecuteA@24:PROC
EXTRN	__imp__ShellExecuteW@24:PROC
EXTRN	__imp__free:PROC
EXTRN	__imp___wputenv:PROC
EXTRN	__imp__exit:PROC
EXTRN	__imp__mbtowc:PROC
EXTRN	_vswprintf:PROC
EXTRN	__swprintf:PROC
EXTRN	_sprintf:PROC
EXTRN	_sscanf:PROC
EXTRN	__imp_?_Xbad_alloc@std@@YAXXZ:PROC
EXTRN	__imp_?_Xlength_error@std@@YAXPBD@Z:PROC
EXTRN	__imp_?_Xout_of_range@std@@YAXPBD@Z:PROC
EXTRN	?SK_GetConfigPath@@YGPB_WXZ:PROC		; SK_GetConfigPath
EXTRN	?SK_GetDLL@@YGPAUHINSTANCE__@@XZ:PROC		; SK_GetDLL
EXTRN	?SK_IsInjected@@YG_N_N@Z:PROC			; SK_IsInjected
EXTRN	_MH_ApplyQueued@0:PROC
EXTRN	?SK_ApplyQueuedHooks@@YG?AW4MH_STATUS@@XZ:PROC	; SK_ApplyQueuedHooks
EXTRN	?SK_UnInit_MinHook@@YG?AW4MH_STATUS@@XZ:PROC	; SK_UnInit_MinHook
EXTRN	?SK_HookWinAPI@@YAXXZ:PROC			; SK_HookWinAPI
EXTRN	?SK_CenterWindowAtMouse@@YAXH@Z:PROC		; SK_CenterWindowAtMouse
EXTRN	?SK_GetGameWindow@@YGPAUHWND__@@XZ:PROC		; SK_GetGameWindow
EXTRN	?SK_Input_Init@@YAXXZ:PROC			; SK_Input_Init
EXTRN	?SK_EnumLoadedModules@@YGXW4SK_ModuleEnum@@@Z:PROC ; SK_EnumLoadedModules
EXTRN	?SK_LockDllLoader@@YGXXZ:PROC			; SK_LockDllLoader
EXTRN	?SK_UnlockDllLoader@@YGXXZ:PROC			; SK_UnlockDllLoader
EXTRN	?Init@CrashHandler@Diagnostics@SK@@YAXXZ:PROC	; SK::Diagnostics::CrashHandler::Init
EXTRN	?InitSyms@CrashHandler@Diagnostics@SK@@YAXXZ:PROC ; SK::Diagnostics::CrashHandler::InitSyms
EXTRN	?Reinstall@CrashHandler@Diagnostics@SK@@YAXXZ:PROC ; SK::Diagnostics::CrashHandler::Reinstall
EXTRN	?Allow@Debugger@Diagnostics@SK@@YA_N_N@Z:PROC	; SK::Diagnostics::Debugger::Allow
EXTRN	?SpawnConsole@Debugger@Diagnostics@SK@@YAXXZ:PROC ; SK::Diagnostics::Debugger::SpawnConsole
EXTRN	__imp___controlfp:PROC
EXTRN	?init@iSK_Logger@@UAG_NQB_W0@Z:PROC		; iSK_Logger::init
EXTRN	?close@iSK_Logger@@UAGXXZ:PROC			; iSK_Logger::close
EXTRN	?LogEx@iSK_Logger@@UAAX_NQB_WZZ:PROC		; iSK_Logger::LogEx
EXTRN	?Log@iSK_Logger@@UAAXQB_WZZ:PROC		; iSK_Logger::Log
EXTRN	?SK_GetHostApp@@YAPB_WXZ:PROC			; SK_GetHostApp
EXTRN	?SK_GetHostPath@@YAPB_WXZ:PROC			; SK_GetHostPath
EXTRN	?SK_GetBlacklistFilename@@YAPB_WXZ:PROC		; SK_GetBlacklistFilename
EXTRN	?SK_GetDocumentsDir@@YA?AV?$basic_string@_WU?$char_traits@_W@std@@V?$allocator@_W@2@@std@@XZ:PROC ; SK_GetDocumentsDir
EXTRN	?SK_CreateDirectories@@YG_NPB_W@Z:PROC		; SK_CreateDirectories
EXTRN	?SK_DeleteTemporaryFiles@@YAIPB_W0@Z:PROC	; SK_DeleteTemporaryFiles
EXTRN	?SK_GetSystemDirectory@@YAPB_WXZ:PROC		; SK_GetSystemDirectory
EXTRN	?SK_GetModuleName@@YA?AV?$basic_string@_WU?$char_traits@_W@std@@V?$allocator@_W@2@@std@@PAUHINSTANCE__@@@Z:PROC ; SK_GetModuleName
EXTRN	?SK_GetModuleFullName@@YA?AV?$basic_string@_WU?$char_traits@_W@std@@V?$allocator@_W@2@@std@@PAUHINSTANCE__@@@Z:PROC ; SK_GetModuleFullName
EXTRN	?SK_StripUserNameFromPathW@@YA_NPA_W@Z:PROC	; SK_StripUserNameFromPathW
EXTRN	?SK_SuspendAllOtherThreads@@YA?AV?$queue@KV?$deque@KV?$allocator@K@std@@@std@@@std@@XZ:PROC ; SK_SuspendAllOtherThreads
EXTRN	?SK_ResumeThreads@@YAXV?$queue@KV?$deque@KV?$allocator@K@std@@@std@@@std@@@Z:PROC ; SK_ResumeThreads
EXTRN	?SK_IsSuperSpecialK@@YA_NXZ:PROC		; SK_IsSuperSpecialK
EXTRN	?SK_GetFileSize@@YG_KPB_W@Z:PROC		; SK_GetFileSize
EXTRN	?SK_Path_wcsicmp@@YAHPB_W0@Z:PROC		; SK_Path_wcsicmp
EXTRN	?SK_SetGameMute@@YGX_N@Z:PROC			; SK_SetGameMute
EXTRN	?SK_TestSteamImports@@YAXPAUHINSTANCE__@@@Z:PROC ; SK_TestSteamImports
EXTRN	?SK_Steam_InitCommandConsoleVariables@@YAXXZ:PROC ; SK_Steam_InitCommandConsoleVariables
EXTRN	?SK_UnlockSteamAchievement@@YAXI@Z:PROC		; SK_UnlockSteamAchievement
EXTRN	?SK_Steam_LoadOverlayEarly@@YA_NXZ:PROC		; SK_Steam_LoadOverlayEarly
EXTRN	?SK_Steam_PiratesAhoy@@YGIXZ:PROC		; SK_Steam_PiratesAhoy
EXTRN	?SK_GetCommandProcessor@@YGPAUSK_ICommandProcessor@@XZ:PROC ; SK_GetCommandProcessor
EXTRN	__imp__StrStrIW@8:PROC
EXTRN	__imp__PathAppendW@8:PROC
EXTRN	__imp__PathRemoveFileSpecW@4:PROC
EXTRN	?SK_GetCurrentGLContext@@YGPAUHGLRC__@@XZ:PROC	; SK_GetCurrentGLContext
EXTRN	?releaseOwnedResources@SK_RenderBackend_V2@@QAEXXZ:PROC ; SK_RenderBackend_V2::releaseOwnedResources
EXTRN	?SK_GetCurrentRenderBackend@@YGAAVSK_RenderBackend_V2@@XZ:PROC ; SK_GetCurrentRenderBackend
EXTRN	?SK_InitRenderBackends@@YGXXZ:PROC		; SK_InitRenderBackends
EXTRN	?SK_BootDXGI@@YAXXZ:PROC			; SK_BootDXGI
EXTRN	?SK_LoadConfig@@YA_NV?$basic_string@_WU?$char_traits@_W@std@@V?$allocator@_W@2@@std@@@Z:PROC ; SK_LoadConfig
EXTRN	?SK_SaveConfig@@YAXV?$basic_string@_WU?$char_traits@_W@std@@V?$allocator@_W@2@@std@@_N@Z:PROC ; SK_SaveConfig
EXTRN	?SK_DrawOSD@@YGHXZ:PROC				; SK_DrawOSD
EXTRN	?SK_ResizeOSD@@YGXMPBD@Z:PROC			; SK_ResizeOSD
EXTRN	?SK_MonitorProcess@@YGKPAX@Z:PROC		; SK_MonitorProcess
EXTRN	?SK_ShutdownWMI@@YAXXZ:PROC			; SK_ShutdownWMI
EXTRN	?SK_MonitorCPU@@YGKPAX@Z:PROC			; SK_MonitorCPU
EXTRN	?SK_MonitorDisk@@YGKPAX@Z:PROC			; SK_MonitorDisk
EXTRN	?SK_MonitorPagefile@@YGKPAX@Z:PROC		; SK_MonitorPagefile
EXTRN	?SK_LoadLateImports32@@YAXXZ:PROC		; SK_LoadLateImports32
EXTRN	?SK_LoadLazyImports32@@YAXXZ:PROC		; SK_LoadLazyImports32
EXTRN	?SK_UnloadImports@@YAXXZ:PROC			; SK_UnloadImports
EXTRN	?getInstance@SK_Console@@SAPAV1@XZ:PROC		; SK_Console::getInstance
EXTRN	?Start@SK_Console@@QAEXXZ:PROC			; SK_Console::Start
EXTRN	?End@SK_Console@@QAEXXZ:PROC			; SK_Console::End
EXTRN	?SK_DrawConsole@@YAXXZ:PROC			; SK_DrawConsole
EXTRN	?Init@Framerate@SK@@YAXXZ:PROC			; SK::Framerate::Init
EXTRN	?Shutdown@Framerate@SK@@YAXXZ:PROC		; SK::Framerate::Shutdown
EXTRN	?wait@Limiter@Framerate@SK@@QAEXXZ:PROC		; SK::Framerate::Limiter::wait
EXTRN	?GetLimiter@Framerate@SK@@YAPAVLimiter@12@XZ:PROC ; SK::Framerate::GetLimiter
EXTRN	?StartBudgetThread_NoAdapter@DXGI@SK@@YAJXZ:PROC ; SK::DXGI::StartBudgetThread_NoAdapter
EXTRN	?ShutdownBudgetThread@DXGI@SK@@YAXXZ:PROC	; SK::DXGI::ShutdownBudgetThread
EXTRN	?SK_UsingVulkan@@YAHXZ:PROC			; SK_UsingVulkan
EXTRN	?InitializeLibrary@NVAPI@sk@@YAHPB_W@Z:PROC	; sk::NVAPI::InitializeLibrary
EXTRN	?UnloadLibrary@NVAPI@sk@@YAHXZ:PROC		; sk::NVAPI::UnloadLibrary
EXTRN	?CountSLIGPUs@NVAPI@sk@@YAHXZ:PROC		; sk::NVAPI::CountSLIGPUs
EXTRN	?CountPhysicalGPUs@NVAPI@sk@@YAHXZ:PROC		; sk::NVAPI::CountPhysicalGPUs
EXTRN	?EnumGPUs_DXGI@NVAPI@sk@@YAPAUDXGI_ADAPTER_DESC@@XZ:PROC ; sk::NVAPI::EnumGPUs_DXGI
EXTRN	?EnumSLIGPUs@NVAPI@sk@@YAPAUDXGI_ADAPTER_DESC@@XZ:PROC ; sk::NVAPI::EnumSLIGPUs
EXTRN	?GetSLIState@NVAPI@sk@@YA?AUNV_GET_CURRENT_SLI_STATE_V2@@PAUIUnknown@@@Z:PROC ; sk::NVAPI::GetSLIState
EXTRN	?SetFramerateLimit@NVAPI@sk@@YAHI@Z:PROC	; sk::NVAPI::SetFramerateLimit
EXTRN	?SetSLIOverride@NVAPI@sk@@YAHW4DLL_ROLE@@PB_W11@Z:PROC ; sk::NVAPI::SetSLIOverride
EXTRN	?GetDriverVersion@NVAPI@sk@@YA?AV?$basic_string@_WU?$char_traits@_W@std@@V?$allocator@_W@2@@std@@PAK@Z:PROC ; sk::NVAPI::GetDriverVersion
EXTRN	?SK_InitADL@@YAHXZ:PROC				; SK_InitADL
EXTRN	?SK_ADL_CountPhysicalGPUs@@YAHXZ:PROC		; SK_ADL_CountPhysicalGPUs
EXTRN	?SK_ADL_CountActiveGPUs@@YAHXZ:PROC		; SK_ADL_CountActiveGPUs
EXTRN	?GetIO@ImGui@@YAAAUImGuiIO@@XZ:PROC		; ImGui::GetIO
EXTRN	?SK_FetchVersionInfo1@@YG_NPB_W_N@Z:PROC	; SK_FetchVersionInfo1
EXTRN	?SK_FetchVersionInfo@@YG_NPB_W@Z:PROC		; SK_FetchVersionInfo
EXTRN	?SK_UpdateSoftware1@@YGJPB_W_N@Z:PROC		; SK_UpdateSoftware1
EXTRN	?SK_UpdateSoftware@@YGJPB_W@Z:PROC		; SK_UpdateSoftware
EXTRN	___HrLoadAllImportsForDll@4:PROC
EXTRN	?SK_Steam_PreHookCore@@YAHXZ:PROC		; SK_Steam_PreHookCore
EXTRN	?SK_InitFinishCallback@@YGXXZ:PROC		; SK_InitFinishCallback
EXTRN	??0?$SK_IVarStub@H@@QAE@PAHPAUSK_IVariableListener@@@Z:PROC ; SK_IVarStub<int>::SK_IVarStub<int>
EXTRN	??0?$SK_IVarStub@M@@QAE@PAMPAUSK_IVariableListener@@@Z:PROC ; SK_IVarStub<float>::SK_IVarStub<float>
EXTRN	?SK_BypassInject@@YG?AU?$pair@V?$queue@KV?$deque@KV?$allocator@K@std@@@std@@@std@@H@std@@XZ:PROC ; SK_BypassInject
EXTRN	?SK_Input_PreInit@@YAXXZ:PROC			; SK_Input_PreInit
EXTRN	?SK_InitWMI@@YA_NXZ:PROC			; SK_InitWMI
EXTRN	?SK_EndGPUPolling@@YAXXZ:PROC			; SK_EndGPUPolling
EXTRN	?SK_ImGui_LoadFonts@@YAXXZ:PROC			; SK_ImGui_LoadFonts
EXTRN	?SK_ResetWindow@@YAXXZ:PROC			; SK_ResetWindow
EXTRN	?SK_ImGui_Toggle@@YAXXZ:PROC			; SK_ImGui_Toggle
EXTRN	?SK_ImGui_PollGamepad_EndFrame@@YAXXZ:PROC	; SK_ImGui_PollGamepad_EndFrame
EXTRN	?SK_D3D11_EndFrame@@YAXXZ:PROC			; SK_D3D11_EndFrame
EXTRN	__CxxThrowException@8:PROC
EXTRN	___CxxFrameHandler3:PROC
EXTRN	__allmul:PROC
EXTRN	__except_handler3:PROC
EXTRN	__ftoui3:PROC
EXTRN	_memcpy:PROC
EXTRN	_memset:PROC
EXTRN	__Init_thread_epoch:DWORD
EXTRN	?init_mutex@@3PAVSK_Thread_HybridSpinlock@@A:DWORD ; init_mutex
EXTRN	?SK_SteamAPI_CallbackRunCount@@3_JC:QWORD	; SK_SteamAPI_CallbackRunCount
EXTRN	?LoadLibraryW_Original@@3P6GPAUHINSTANCE__@@PB_W@ZA:DWORD ; LoadLibraryW_Original
EXTRN	??_7type_info@@6B@:QWORD			; type_info::`vftable'
EXTRN	?dll_log@@3UiSK_Logger@@A:BYTE			; dll_log
EXTRN	?crash_log@@3UiSK_Logger@@A:BYTE		; crash_log
EXTRN	?budget_log@@3UiSK_Logger@@A:BYTE		; budget_log
EXTRN	?_AtlBaseModule@ATL@@3VCAtlBaseModule@1@A:BYTE	; ATL::_AtlBaseModule
EXTRN	___ImageBase:BYTE
EXTRN	?config@@3Usk_config_t@@A:BYTE			; config
EXTRN	?process_stats@@3Uprocess_stats_t@@A:BYTE	; process_stats
EXTRN	?cpu_stats@@3Ucpu_perf_t@@A:BYTE		; cpu_stats
EXTRN	?disk_stats@@3Udisk_perf_t@@A:BYTE		; disk_stats
EXTRN	?pagefile_stats@@3Upagefile_perf_t@@A:BYTE	; pagefile_stats
EXTRN	?imports@@3PAUimport_s@@A:BYTE			; imports
EXTRN	_IID_ID3D11Device1:BYTE
EXTRN	?app_name@NVAPI@sk@@3V?$basic_string@_WU?$char_traits@_W@std@@V?$allocator@_W@2@@std@@A:BYTE ; sk::NVAPI::app_name
EXTRN	?SK_ImGui_Visible@@3_NA:BYTE			; SK_ImGui_Visible
EXTRN	?SK_ReShade_Visible@@3_NA:BYTE			; SK_ReShade_Visible
EXTRN	?game_debug@@3UiSK_Logger@@A:BYTE		; game_debug
EXTRN	?SK_D3D11_amount_to_purge@@3HA:DWORD		; SK_D3D11_amount_to_purge
EXTRN	?__SK_RunDLL_Bypass@@3_NA:BYTE			; __SK_RunDLL_Bypass
EXTRN	?CreateWindowExW_Original@@3P6GPAUHWND__@@KPB_W0KHHHHPAU1@PAUHMENU__@@PAUHINSTANCE__@@PAX@ZA:DWORD ; CreateWindowExW_Original
EXTRN	?__SK_DLL_AttachTime@@3_JA:QWORD		; __SK_DLL_AttachTime
EXTRN	?target_fps@@3MA:DWORD				; target_fps
EXTRN	?__SK_RBkEnd@@3VSK_RenderBackend_V2@@A:BYTE	; __SK_RBkEnd
EXTRN	__fltused:DWORD
EXTRN	__tls_array:DWORD
EXTRN	__tls_index:DWORD
;	COMDAT ?atlTraceGeneral@ATL@@3V?$CTraceCategoryEx@$00$0A@@1@A
_BSS	SEGMENT
?atlTraceGeneral@ATL@@3V?$CTraceCategoryEx@$00$0A@@1@A DD 01H DUP (?) ; ATL::atlTraceGeneral
_BSS	ENDS
;	COMDAT ?atlTraceCOM@ATL@@3V?$CTraceCategoryEx@$01$0A@@1@A
_BSS	SEGMENT
?atlTraceCOM@ATL@@3V?$CTraceCategoryEx@$01$0A@@1@A DD 01H DUP (?) ; ATL::atlTraceCOM
_BSS	ENDS
;	COMDAT ?atlTraceQI@ATL@@3V?$CTraceCategoryEx@$03$0A@@1@A
_BSS	SEGMENT
?atlTraceQI@ATL@@3V?$CTraceCategoryEx@$03$0A@@1@A DD 01H DUP (?) ; ATL::atlTraceQI
_BSS	ENDS
;	COMDAT ?atlTraceRegistrar@ATL@@3V?$CTraceCategoryEx@$07$0A@@1@A
_BSS	SEGMENT
?atlTraceRegistrar@ATL@@3V?$CTraceCategoryEx@$07$0A@@1@A DD 01H DUP (?) ; ATL::atlTraceRegistrar
_BSS	ENDS
;	COMDAT ?atlTraceRefcount@ATL@@3V?$CTraceCategoryEx@$0BA@$0A@@1@A
_BSS	SEGMENT
?atlTraceRefcount@ATL@@3V?$CTraceCategoryEx@$0BA@$0A@@1@A DD 01H DUP (?) ; ATL::atlTraceRefcount
_BSS	ENDS
;	COMDAT ?atlTraceWindowing@ATL@@3V?$CTraceCategoryEx@$0CA@$0A@@1@A
_BSS	SEGMENT
?atlTraceWindowing@ATL@@3V?$CTraceCategoryEx@$0CA@$0A@@1@A DD 01H DUP (?) ; ATL::atlTraceWindowing
_BSS	ENDS
;	COMDAT ?atlTraceControls@ATL@@3V?$CTraceCategoryEx@$0EA@$0A@@1@A
_BSS	SEGMENT
?atlTraceControls@ATL@@3V?$CTraceCategoryEx@$0EA@$0A@@1@A DD 01H DUP (?) ; ATL::atlTraceControls
_BSS	ENDS
;	COMDAT ?atlTraceHosting@ATL@@3V?$CTraceCategoryEx@$0IA@$0A@@1@A
_BSS	SEGMENT
?atlTraceHosting@ATL@@3V?$CTraceCategoryEx@$0IA@$0A@@1@A DD 01H DUP (?) ; ATL::atlTraceHosting
_BSS	ENDS
;	COMDAT ?atlTraceDBClient@ATL@@3V?$CTraceCategoryEx@$0BAA@$0A@@1@A
_BSS	SEGMENT
?atlTraceDBClient@ATL@@3V?$CTraceCategoryEx@$0BAA@$0A@@1@A DD 01H DUP (?) ; ATL::atlTraceDBClient
_BSS	ENDS
;	COMDAT ?atlTraceDBProvider@ATL@@3V?$CTraceCategoryEx@$0CAA@$0A@@1@A
_BSS	SEGMENT
?atlTraceDBProvider@ATL@@3V?$CTraceCategoryEx@$0CAA@$0A@@1@A DD 01H DUP (?) ; ATL::atlTraceDBProvider
_BSS	ENDS
;	COMDAT ?atlTraceSnapin@ATL@@3V?$CTraceCategoryEx@$0EAA@$0A@@1@A
_BSS	SEGMENT
?atlTraceSnapin@ATL@@3V?$CTraceCategoryEx@$0EAA@$0A@@1@A DD 01H DUP (?) ; ATL::atlTraceSnapin
_BSS	ENDS
;	COMDAT ?atlTraceNotImpl@ATL@@3V?$CTraceCategoryEx@$0IAA@$0A@@1@A
_BSS	SEGMENT
?atlTraceNotImpl@ATL@@3V?$CTraceCategoryEx@$0IAA@$0A@@1@A DD 01H DUP (?) ; ATL::atlTraceNotImpl
_BSS	ENDS
;	COMDAT ?atlTraceAllocation@ATL@@3V?$CTraceCategoryEx@$0BAAA@$0A@@1@A
_BSS	SEGMENT
?atlTraceAllocation@ATL@@3V?$CTraceCategoryEx@$0BAAA@$0A@@1@A DD 01H DUP (?) ; ATL::atlTraceAllocation
_BSS	ENDS
;	COMDAT ?atlTraceException@ATL@@3V?$CTraceCategoryEx@$0CAAA@$0A@@1@A
_BSS	SEGMENT
?atlTraceException@ATL@@3V?$CTraceCategoryEx@$0CAAA@$0A@@1@A DD 01H DUP (?) ; ATL::atlTraceException
_BSS	ENDS
;	COMDAT ?atlTraceTime@ATL@@3V?$CTraceCategoryEx@$0EAAA@$0A@@1@A
_BSS	SEGMENT
?atlTraceTime@ATL@@3V?$CTraceCategoryEx@$0EAAA@$0A@@1@A DD 01H DUP (?) ; ATL::atlTraceTime
_BSS	ENDS
;	COMDAT ?atlTraceCache@ATL@@3V?$CTraceCategoryEx@$0IAAA@$0A@@1@A
_BSS	SEGMENT
?atlTraceCache@ATL@@3V?$CTraceCategoryEx@$0IAAA@$0A@@1@A DD 01H DUP (?) ; ATL::atlTraceCache
_BSS	ENDS
;	COMDAT ?atlTraceStencil@ATL@@3V?$CTraceCategoryEx@$0BAAAA@$0A@@1@A
_BSS	SEGMENT
?atlTraceStencil@ATL@@3V?$CTraceCategoryEx@$0BAAAA@$0A@@1@A DD 01H DUP (?) ; ATL::atlTraceStencil
_BSS	ENDS
;	COMDAT ?atlTraceString@ATL@@3V?$CTraceCategoryEx@$0CAAAA@$0A@@1@A
_BSS	SEGMENT
?atlTraceString@ATL@@3V?$CTraceCategoryEx@$0CAAAA@$0A@@1@A DD 01H DUP (?) ; ATL::atlTraceString
_BSS	ENDS
;	COMDAT ?atlTraceMap@ATL@@3V?$CTraceCategoryEx@$0EAAAA@$0A@@1@A
_BSS	SEGMENT
?atlTraceMap@ATL@@3V?$CTraceCategoryEx@$0EAAAA@$0A@@1@A DD 01H DUP (?) ; ATL::atlTraceMap
_BSS	ENDS
;	COMDAT ?atlTraceUtil@ATL@@3V?$CTraceCategoryEx@$0IAAAA@$0A@@1@A
_BSS	SEGMENT
?atlTraceUtil@ATL@@3V?$CTraceCategoryEx@$0IAAAA@$0A@@1@A DD 01H DUP (?) ; ATL::atlTraceUtil
_BSS	ENDS
;	COMDAT ?atlTraceSecurity@ATL@@3V?$CTraceCategoryEx@$0BAAAAA@$0A@@1@A
_BSS	SEGMENT
?atlTraceSecurity@ATL@@3V?$CTraceCategoryEx@$0BAAAAA@$0A@@1@A DD 01H DUP (?) ; ATL::atlTraceSecurity
_BSS	ENDS
;	COMDAT ?atlTraceSync@ATL@@3V?$CTraceCategoryEx@$0CAAAAA@$0A@@1@A
_BSS	SEGMENT
?atlTraceSync@ATL@@3V?$CTraceCategoryEx@$0CAAAAA@$0A@@1@A DD 01H DUP (?) ; ATL::atlTraceSync
_BSS	ENDS
;	COMDAT ?atlTraceISAPI@ATL@@3V?$CTraceCategoryEx@$0EAAAAA@$0A@@1@A
_BSS	SEGMENT
?atlTraceISAPI@ATL@@3V?$CTraceCategoryEx@$0EAAAAA@$0A@@1@A DD 01H DUP (?) ; ATL::atlTraceISAPI
_BSS	ENDS
;	COMDAT ?m_bInitFailed@CAtlBaseModule@ATL@@2_NA
_BSS	SEGMENT
?m_bInitFailed@CAtlBaseModule@ATL@@2_NA DB 01H DUP (?)	; ATL::CAtlBaseModule::m_bInitFailed
_BSS	ENDS
;	COMDAT ?_AtlWinModule@ATL@@3VCAtlWinModule@1@A
_BSS	SEGMENT
?_AtlWinModule@ATL@@3VCAtlWinModule@1@A DB 02cH DUP (?)	; ATL::_AtlWinModule
_BSS	ENDS
_BSS	SEGMENT
?init_tids@@3V?$queue@KV?$deque@KV?$allocator@K@std@@@std@@@std@@A DB 014H DUP (?) ; init_tids
?__SK_Init_Suspended_tids@@3V?$queue@KV?$deque@KV?$allocator@K@std@@@std@@@std@@A DB 014H DUP (?) ; __SK_Init_Suspended_tids
_BSS	ENDS
;	COMDAT ?base_addr@?1??execute@skMemCmd@@UAE?AUSK_ICommandResult@@PBD@Z@4PAEA
_BSS	SEGMENT
?base_addr@?1??execute@skMemCmd@@UAE?AUSK_ICommandResult@@PBD@Z@4PAEA DD 01H DUP (?) ; `skMemCmd::execute'::`2'::base_addr
_BSS	ENDS
;	COMDAT ?last_test@?1??SK_HasGlobalInjector@@YG_NXZ@4HA
_BSS	SEGMENT
?last_test@?1??SK_HasGlobalInjector@@YG_NXZ@4HA DD 01H DUP (?) ; `SK_HasGlobalInjector'::`2'::last_test
_BSS	ENDS
_BSS	SEGMENT
?user_profile@@3Usk_user_profile_s@@A DB 0820H DUP (?)	; user_profile
_BSS	ENDS
;	COMDAT ?bypass@?1??SK_StartupCore@@YG_NPB_WPAX@Z@4_NA
_BSS	SEGMENT
?bypass@?1??SK_StartupCore@@YG_NPB_WPAX@Z@4_NA DB 01H DUP (?) ; `SK_StartupCore'::`2'::bypass
_BSS	ENDS
;	COMDAT ?tried@?DH@??SK_StartupCore@@YG_NPB_WPAX@Z@4_NA
_BSS	SEGMENT
?tried@?DH@??SK_StartupCore@@YG_NPB_WPAX@Z@4_NA DB 01H DUP (?) ; `SK_StartupCore'::`55'::tried
_BSS	ENDS
_BSS	SEGMENT
?dummy_windows@@3V?$set@PAUHWND__@@U?$less@PAUHWND__@@@std@@V?$allocator@PAUHWND__@@@3@@std@@A DQ 01H DUP (?) ; dummy_windows
_BSS	ENDS
;	COMDAT ?import_tries@?1??SK_BeginBufferSwap@@YGXXZ@4HA
_BSS	SEGMENT
?import_tries@?1??SK_BeginBufferSwap@@YGXXZ@4HA DD 01H DUP (?) ; `SK_BeginBufferSwap'::`2'::import_tries
_BSS	ENDS
;	COMDAT ?cegui_init@?1??SK_BeginBufferSwap@@YGXXZ@4JC
_BSS	SEGMENT
?cegui_init@?1??SK_BeginBufferSwap@@YGXXZ@4JC DD 01H DUP (?) ; `SK_BeginBufferSwap'::`2'::cegui_init
_BSS	ENDS
;	COMDAT ?k32_AddDllDirectory@?BO@??SK_BeginBufferSwap@@YGXXZ@4P6GPAXPB_W@ZA
_BSS	SEGMENT
?k32_AddDllDirectory@?BO@??SK_BeginBufferSwap@@YGXXZ@4P6GPAXPB_W@ZA DD 01H DUP (?) ; `SK_BeginBufferSwap'::`30'::k32_AddDllDirectory
_BSS	ENDS
;	COMDAT ?$TSS0@?BO@??SK_BeginBufferSwap@@YGXXZ@4HA
_BSS	SEGMENT
?$TSS0@?BO@??SK_BeginBufferSwap@@YGXXZ@4HA DD 01H DUP (?) ; TSS0<`template-parameter-30',UNKNOWN volatile * const volatile,ginBufferSwap,int, ?? &>
_BSS	ENDS
;	COMDAT ?k32_RemoveDllDirectory@?BO@??SK_BeginBufferSwap@@YGXXZ@4P6GHPAX@ZA
_BSS	SEGMENT
?k32_RemoveDllDirectory@?BO@??SK_BeginBufferSwap@@YGXXZ@4P6GHPAX@ZA DD 01H DUP (?) ; `SK_BeginBufferSwap'::`30'::k32_RemoveDllDirectory
_BSS	ENDS
;	COMDAT ?k32_SetDefaultDllDirectories@?BO@??SK_BeginBufferSwap@@YGXXZ@4P6GHK@ZA
_BSS	SEGMENT
?k32_SetDefaultDllDirectories@?BO@??SK_BeginBufferSwap@@YGXXZ@4P6GHK@ZA DD 01H DUP (?) ; `SK_BeginBufferSwap'::`30'::k32_SetDefaultDllDirectories
_BSS	ENDS
;	COMDAT ?hModTBFix@?1??SK_BeginBufferSwap@@YGXXZ@4PAUHINSTANCE__@@A
_BSS	SEGMENT
?hModTBFix@?1??SK_BeginBufferSwap@@YGXXZ@4PAUHINSTANCE__@@A DD 01H DUP (?) ; `SK_BeginBufferSwap'::`2'::hModTBFix
_BSS	ENDS
;	COMDAT ?$TSS3@?1??SK_BeginBufferSwap@@YGXXZ@4HA
_BSS	SEGMENT
?$TSS3@?1??SK_BeginBufferSwap@@YGXXZ@4HA DD 01H DUP (?)	; TSS3<`template-parameter-2',UNKNOWN volatile * const volatile,ginBufferSwap,int, ?? &>
_BSS	ENDS
;	COMDAT ?last_osd_scale@?1??DoKeyboard@@YAXXZ@4_KA
_BSS	SEGMENT
?last_osd_scale@?1??DoKeyboard@@YAXXZ@4_KA DQ 01H DUP (?) ; `DoKeyboard'::`2'::last_osd_scale
_BSS	ENDS
;	COMDAT ?toggle_drag@?1??DoKeyboard@@YAXXZ@4_NA
_BSS	SEGMENT
?toggle_drag@?1??DoKeyboard@@YAXXZ@4_NA DB 01H DUP (?)	; `DoKeyboard'::`2'::toggle_drag
_BSS	ENDS
;	COMDAT ?toggle_time@?1??DoKeyboard@@YAXXZ@4_NA
_BSS	SEGMENT
?toggle_time@?1??DoKeyboard@@YAXXZ@4_NA DB 01H DUP (?)	; `DoKeyboard'::`2'::toggle_time
_BSS	ENDS
;	COMDAT ?budget_init@?1??SK_EndBufferSwap@@YGJJPAUIUnknown@@@Z@4KC
_BSS	SEGMENT
?budget_init@?1??SK_EndBufferSwap@@YGJJPAUIUnknown@@@Z@4KC DD 01H DUP (?) ; `SK_EndBufferSwap'::`2'::budget_init
_BSS	ENDS
;	COMDAT ?hModTZFix@?1??SK_EndBufferSwap@@YGJJPAUIUnknown@@@Z@4PAUHINSTANCE__@@A
_BSS	SEGMENT
?hModTZFix@?1??SK_EndBufferSwap@@YGJJPAUIUnknown@@@Z@4PAUHINSTANCE__@@A DD 01H DUP (?) ; `SK_EndBufferSwap'::`2'::hModTZFix
_BSS	ENDS
;	COMDAT ?$TSS0@?1??SK_EndBufferSwap@@YGJJPAUIUnknown@@@Z@4HA
_BSS	SEGMENT
?$TSS0@?1??SK_EndBufferSwap@@YGJJPAUIUnknown@@@Z@4HA DD 01H DUP (?) ; TSS0<`template-parameter-2',unsigned __int8 volatile * const volatile,dBufferSwap,GJJPAUIUnknown>
_BSS	ENDS
;	COMDAT ?hModTBFix@?1??SK_EndBufferSwap@@YGJJPAUIUnknown@@@Z@4PAUHINSTANCE__@@A
_BSS	SEGMENT
?hModTBFix@?1??SK_EndBufferSwap@@YGJJPAUIUnknown@@@Z@4PAUHINSTANCE__@@A DD 01H DUP (?) ; `SK_EndBufferSwap'::`2'::hModTBFix
_BSS	ENDS
;	COMDAT CRT$XCU
CRT$XCU	SEGMENT
?_AtlComModule$initializer$@ATL@@3P6AXXZA DD FLAT:??__E_AtlComModule@ATL@@YAXXZ ; ATL::_AtlComModule$initializer$
CRT$XCU	ENDS
;	COMDAT __real@447a0000
CONST	SEGMENT
__real@447a0000 DD 0447a0000r			; 1000
CONST	ENDS
;	COMDAT ??_R1A@?0A@EA@skUpdateCmd@@8
rdata$r	SEGMENT
??_R1A@?0A@EA@skUpdateCmd@@8 DD FLAT:??_R0?AVskUpdateCmd@@@8 ; skUpdateCmd::`RTTI Base Class Descriptor at (0,-1,0,64)'
	DD	01H
	DD	00H
	DD	0ffffffffH
	DD	00H
	DD	040H
	DD	FLAT:??_R3skUpdateCmd@@8
rdata$r	ENDS
;	COMDAT ??_R2skUpdateCmd@@8
rdata$r	SEGMENT
??_R2skUpdateCmd@@8 DD FLAT:??_R1A@?0A@EA@skUpdateCmd@@8 ; skUpdateCmd::`RTTI Base Class Array'
	DD	FLAT:??_R1A@?0A@EA@SK_ICommand@@8
rdata$r	ENDS
;	COMDAT ??_R3skUpdateCmd@@8
rdata$r	SEGMENT
??_R3skUpdateCmd@@8 DD 00H				; skUpdateCmd::`RTTI Class Hierarchy Descriptor'
	DD	00H
	DD	02H
	DD	FLAT:??_R2skUpdateCmd@@8
rdata$r	ENDS
;	COMDAT ??_R0?AVskUpdateCmd@@@8
data$r	SEGMENT
??_R0?AVskUpdateCmd@@@8 DD FLAT:??_7type_info@@6B@	; skUpdateCmd `RTTI Type Descriptor'
	DD	00H
	DB	'.?AVskUpdateCmd@@', 00H
data$r	ENDS
;	COMDAT ??_R4skUpdateCmd@@6B@
rdata$r	SEGMENT
??_R4skUpdateCmd@@6B@ DD 00H				; skUpdateCmd::`RTTI Complete Object Locator'
	DD	00H
	DD	00H
	DD	FLAT:??_R0?AVskUpdateCmd@@@8
	DD	FLAT:??_R3skUpdateCmd@@8
rdata$r	ENDS
;	COMDAT ??_R1A@?0A@EA@skMemCmd@@8
rdata$r	SEGMENT
??_R1A@?0A@EA@skMemCmd@@8 DD FLAT:??_R0?AVskMemCmd@@@8	; skMemCmd::`RTTI Base Class Descriptor at (0,-1,0,64)'
	DD	01H
	DD	00H
	DD	0ffffffffH
	DD	00H
	DD	040H
	DD	FLAT:??_R3skMemCmd@@8
rdata$r	ENDS
;	COMDAT ??_R2skMemCmd@@8
rdata$r	SEGMENT
??_R2skMemCmd@@8 DD FLAT:??_R1A@?0A@EA@skMemCmd@@8	; skMemCmd::`RTTI Base Class Array'
	DD	FLAT:??_R1A@?0A@EA@SK_ICommand@@8
rdata$r	ENDS
;	COMDAT ??_R3skMemCmd@@8
rdata$r	SEGMENT
??_R3skMemCmd@@8 DD 00H					; skMemCmd::`RTTI Class Hierarchy Descriptor'
	DD	00H
	DD	02H
	DD	FLAT:??_R2skMemCmd@@8
rdata$r	ENDS
;	COMDAT ??_R0?AVskMemCmd@@@8
data$r	SEGMENT
??_R0?AVskMemCmd@@@8 DD FLAT:??_7type_info@@6B@		; skMemCmd `RTTI Type Descriptor'
	DD	00H
	DB	'.?AVskMemCmd@@', 00H
data$r	ENDS
;	COMDAT ??_R4skMemCmd@@6B@
rdata$r	SEGMENT
??_R4skMemCmd@@6B@ DD 00H				; skMemCmd::`RTTI Complete Object Locator'
	DD	00H
	DD	00H
	DD	FLAT:??_R0?AVskMemCmd@@@8
	DD	FLAT:??_R3skMemCmd@@8
rdata$r	ENDS
;	COMDAT ??_R1A@?0A@EA@SK_ICommand@@8
rdata$r	SEGMENT
??_R1A@?0A@EA@SK_ICommand@@8 DD FLAT:??_R0?AUSK_ICommand@@@8 ; SK_ICommand::`RTTI Base Class Descriptor at (0,-1,0,64)'
	DD	00H
	DD	00H
	DD	0ffffffffH
	DD	00H
	DD	040H
	DD	FLAT:??_R3SK_ICommand@@8
rdata$r	ENDS
;	COMDAT ??_R2SK_ICommand@@8
rdata$r	SEGMENT
??_R2SK_ICommand@@8 DD FLAT:??_R1A@?0A@EA@SK_ICommand@@8 ; SK_ICommand::`RTTI Base Class Array'
rdata$r	ENDS
;	COMDAT ??_R3SK_ICommand@@8
rdata$r	SEGMENT
??_R3SK_ICommand@@8 DD 00H				; SK_ICommand::`RTTI Class Hierarchy Descriptor'
	DD	00H
	DD	01H
	DD	FLAT:??_R2SK_ICommand@@8
rdata$r	ENDS
;	COMDAT ??_R0?AUSK_ICommand@@@8
data$r	SEGMENT
??_R0?AUSK_ICommand@@@8 DD FLAT:??_7type_info@@6B@	; SK_ICommand `RTTI Type Descriptor'
	DD	00H
	DB	'.?AUSK_ICommand@@', 00H
data$r	ENDS
;	COMDAT ??_R4SK_ICommand@@6B@
rdata$r	SEGMENT
??_R4SK_ICommand@@6B@ DD 00H				; SK_ICommand::`RTTI Complete Object Locator'
	DD	00H
	DD	00H
	DD	FLAT:??_R0?AUSK_ICommand@@@8
	DD	FLAT:??_R3SK_ICommand@@8
rdata$r	ENDS
;	COMDAT ??_C@_0BE@JONHPENG@map?1set?$DMT?$DO?5too?5long?$AA@
CONST	SEGMENT
??_C@_0BE@JONHPENG@map?1set?$DMT?$DO?5too?5long?$AA@ DB 'map/set<T> too l'
	DB	'ong', 00H					; `string'
CONST	ENDS
;	COMDAT ??_C@_0BC@KBDMBKEH@deque?$DMT?$DO?5too?5long?$AA@
CONST	SEGMENT
??_C@_0BC@KBDMBKEH@deque?$DMT?$DO?5too?5long?$AA@ DB 'deque<T> too long', 00H ; `string'
CONST	ENDS
;	COMDAT __GUID_310d36a0_d2e7_4c0a_aa04_6a9d23b8886a
CONST	SEGMENT
__GUID_310d36a0_d2e7_4c0a_aa04_6a9d23b8886a DD 0310d36a0H
	DW	0d2e7H
	DW	04c0aH
	DB	0aaH
	DB	04H
	DB	06aH
	DB	09dH
	DB	023H
	DB	0b8H
	DB	088H
	DB	06aH
CONST	ENDS
;	COMDAT __GUID_db6f6ddb_ac77_4e88_8253_819df9bbf140
CONST	SEGMENT
__GUID_db6f6ddb_ac77_4e88_8253_819df9bbf140 DD 0db6f6ddbH
	DW	0ac77H
	DW	04e88H
	DB	082H
	DB	053H
	DB	081H
	DB	09dH
	DB	0f9H
	DB	0bbH
	DB	0f1H
	DB	040H
CONST	ENDS
;	COMDAT __GUID_d0223b96_bf7a_43fd_92bd_a43b0d82b9eb
CONST	SEGMENT
__GUID_d0223b96_bf7a_43fd_92bd_a43b0d82b9eb DD 0d0223b96H
	DW	0bf7aH
	DW	043fdH
	DB	092H
	DB	0bdH
	DB	0a4H
	DB	03bH
	DB	0dH
	DB	082H
	DB	0b9H
	DB	0ebH
CONST	ENDS
;	COMDAT __GUID_b18b10ce_2649_405a_870f_95f777d4313a
CONST	SEGMENT
__GUID_b18b10ce_2649_405a_870f_95f777d4313a DD 0b18b10ceH
	DW	02649H
	DW	0405aH
	DB	087H
	DB	0fH
	DB	095H
	DB	0f7H
	DB	077H
	DB	0d4H
	DB	031H
	DB	03aH
CONST	ENDS
;	COMDAT ??_C@_0BI@CFPLBAOH@invalid?5string?5position?$AA@
CONST	SEGMENT
??_C@_0BI@CFPLBAOH@invalid?5string?5position?$AA@ DB 'invalid string posi'
	DB	'tion', 00H					; `string'
CONST	ENDS
;	COMDAT ??_C@_0BA@JFNIOLAK@string?5too?5long?$AA@
CONST	SEGMENT
??_C@_0BA@JFNIOLAK@string?5too?5long?$AA@ DB 'string too long', 00H ; `string'
CONST	ENDS
;	COMDAT ?last_api@?1??SK_BeginBufferSwap@@YGXXZ@4W4SK_RenderAPI@@A
_DATA	SEGMENT
?last_api@?1??SK_BeginBufferSwap@@YGXXZ@4W4SK_RenderAPI@@A DD 01H ; `SK_BeginBufferSwap'::`2'::last_api
_DATA	ENDS
;	COMDAT ?first@?1??SK_BeginBufferSwap@@YGXXZ@4JC
_DATA	SEGMENT
?first@?1??SK_BeginBufferSwap@@YGXXZ@4JC DD 01H		; `SK_BeginBufferSwap'::`2'::first
_DATA	ENDS
;	COMDAT ??_C@_1CA@KKELPOIK@?$AAd?$AAo?$AAn?$AAe?$AA?$CB?$AA?5?$AA?$CI?$AA?$CF?$AA4?$AAu?$AA?5?$AAm?$AAs?$AA?$CJ?$AA?6?$AA?$AA@
CONST	SEGMENT
??_C@_1CA@KKELPOIK@?$AAd?$AAo?$AAn?$AAe?$AA?$CB?$AA?5?$AA?$CI?$AA?$CF?$AA4?$AAu?$AA?5?$AAm?$AAs?$AA?$CJ?$AA?6?$AA?$AA@ DB 'd'
	DB	00H, 'o', 00H, 'n', 00H, 'e', 00H, '!', 00H, ' ', 00H, '(', 00H
	DB	'%', 00H, '4', 00H, 'u', 00H, ' ', 00H, 'm', 00H, 's', 00H, ')'
	DB	00H, 0aH, 00H, 00H, 00H			; `string'
CONST	ENDS
;	COMDAT ??_C@_1EE@MENKLOLO@?$AA?$FL?$AA?5?$AAW?$AAM?$AAI?$AA?5?$AAP?$AAe?$AAr?$AAf?$AA?5?$AA?$FN?$AA?5?$AAS?$AAh?$AAu?$AAt?$AAt?$AAi?$AAn?$AAg?$AA?5?$AAd?$AAo?$AAw?$AAn?$AA?5?$AA?$CF?$AA?9?$AA3?$AA0?$AAs@
CONST	SEGMENT
??_C@_1EE@MENKLOLO@?$AA?$FL?$AA?5?$AAW?$AAM?$AAI?$AA?5?$AAP?$AAe?$AAr?$AAf?$AA?5?$AA?$FN?$AA?5?$AAS?$AAh?$AAu?$AAt?$AAt?$AAi?$AAn?$AAg?$AA?5?$AAd?$AAo?$AAw?$AAn?$AA?5?$AA?$CF?$AA?9?$AA3?$AA0?$AAs@ DB '['
	DB	00H, ' ', 00H, 'W', 00H, 'M', 00H, 'I', 00H, ' ', 00H, 'P', 00H
	DB	'e', 00H, 'r', 00H, 'f', 00H, ' ', 00H, ']', 00H, ' ', 00H, 'S'
	DB	00H, 'h', 00H, 'u', 00H, 't', 00H, 't', 00H, 'i', 00H, 'n', 00H
	DB	'g', 00H, ' ', 00H, 'd', 00H, 'o', 00H, 'w', 00H, 'n', 00H, ' '
	DB	00H, '%', 00H, '-', 00H, '3', 00H, '0', 00H, 's', 00H, ' ', 00H
	DB	00H, 00H					; `string'
CONST	ENDS
;	COMDAT ??_C@_17LGKOMLJ@?$AA?4?$AA?4?$AA?4?$AA?$AA@
CONST	SEGMENT
??_C@_17LGKOMLJ@?$AA?4?$AA?4?$AA?4?$AA?$AA@ DB '.', 00H, '.', 00H, '.', 00H
	DB	00H, 00H					; `string'
CONST	ENDS
;	COMDAT ?wszSteamDLL@?DK@??SK_StartupCore@@YG_NPB_WPAX@Z@4PB_WB
_DATA	SEGMENT
?wszSteamDLL@?DK@??SK_StartupCore@@YG_NPB_WPAX@Z@4PB_WB DD FLAT:$SG428646 ; `SK_StartupCore'::`58'::wszSteamDLL
_DATA	ENDS
;	COMDAT ??_7skUpdateCmd@@6B@
CONST	SEGMENT
??_7skUpdateCmd@@6B@ DD FLAT:??_R4skUpdateCmd@@6B@	; skUpdateCmd::`vftable'
	DD	FLAT:?execute@skUpdateCmd@@UAE?AUSK_ICommandResult@@PBD@Z
	DD	FLAT:?getHelp@SK_ICommand@@UAEPBDXZ
	DD	FLAT:?getNumArgs@skUpdateCmd@@UAEHXZ
	DD	FLAT:?getNumOptionalArgs@skUpdateCmd@@UAEHXZ
	DD	FLAT:?getNumRequiredArgs@skUpdateCmd@@UAEHXZ
CONST	ENDS
;	COMDAT ??_7skMemCmd@@6B@
CONST	SEGMENT
??_7skMemCmd@@6B@ DD FLAT:??_R4skMemCmd@@6B@		; skMemCmd::`vftable'
	DD	FLAT:?execute@skMemCmd@@UAE?AUSK_ICommandResult@@PBD@Z
	DD	FLAT:?getHelp@SK_ICommand@@UAEPBDXZ
	DD	FLAT:?getNumArgs@skMemCmd@@UAEHXZ
	DD	FLAT:?getNumOptionalArgs@skMemCmd@@UAEHXZ
	DD	FLAT:?getNumRequiredArgs@skMemCmd@@UAEHXZ
CONST	ENDS
;	COMDAT ??_C@_1BA@IKEODOOB@?$AAI?$AAN?$AAV?$AAA?$AAL?$AAI?$AAD?$AA?$AA@
CONST	SEGMENT
??_C@_1BA@IKEODOOB@?$AAI?$AAN?$AAV?$AAA?$AAL?$AAI?$AAD?$AA?$AA@ DB 'I', 00H
	DB	'N', 00H, 'V', 00H, 'A', 00H, 'L', 00H, 'I', 00H, 'D', 00H, 00H
	DB	00H						; `string'
CONST	ENDS
_DATA	SEGMENT
?SK_ImGui_Widgets@@3USK_ImGui_WidgetRegistry@@A DB 024H DUP (?)
	DD	03f800000r			; 1	; SK_ImGui_Widgets
?init_@@3Uinit_params_t@@A DD FLAT:??_C@_1BA@IKEODOOB@?$AAI?$AAN?$AAV?$AAA?$AAL?$AAI?$AAD?$AA?$AA@ ; init_
	DD	00H
?reentrant_core@@3Uinit_params_t@@A DD FLAT:??_C@_1BA@IKEODOOB@?$AAI?$AAN?$AAV?$AAA?$AAL?$AAI?$AAD?$AA?$AA@ ; reentrant_core
	DD	00H
_DATA	ENDS
;	COMDAT ?_AtlComModule@ATL@@3VCAtlComModule@1@A
_DATA	SEGMENT
?_AtlComModule@ATL@@3VCAtlComModule@1@A DB 04H DUP (?)
	DD	FLAT:___ImageBase			; ATL::_AtlComModule
	DD	FLAT:___pobjMapEntryFirst+4
	DD	FLAT:___pobjMapEntryLast
_DATA	ENDS
;	COMDAT ??_C@_0BC@EBCNAKOF@No?5Help?5Available?$AA@
CONST	SEGMENT
??_C@_0BC@EBCNAKOF@No?5Help?5Available?$AA@ DB 'No Help Available', 00H ; `string'
CONST	ENDS
;	COMDAT ??_7SK_ICommand@@6B@
CONST	SEGMENT
??_7SK_ICommand@@6B@ DD FLAT:??_R4SK_ICommand@@6B@	; SK_ICommand::`vftable'
	DD	FLAT:__purecall
	DD	FLAT:?getHelp@SK_ICommand@@UAEPBDXZ
	DD	FLAT:?getNumArgs@SK_ICommand@@UAEHXZ
	DD	FLAT:?getNumOptionalArgs@SK_ICommand@@UAEHXZ
	DD	FLAT:?getNumRequiredArgs@SK_ICommand@@UAEHXZ
CONST	ENDS
;	COMDAT xdata$x
xdata$x	SEGMENT
__catchsym$??$_Insert_nohint@AAPAUHWND__@@PAU?$_Tree_node@PAUHWND__@@PAX@std@@@?$_Tree@V?$_Tset_traits@PAUHWND__@@U?$less@PAUHWND__@@@std@@V?$allocator@PAUHWND__@@@3@$0A@@std@@@std@@IAE?AU?$pair@V?$_Tree_const_iterator@V?$_Tree_val@U?$_Tree_simple_types@PAUHWND__@@@std@@@std@@@std@@_N@1@_NAAPAUHWND__@@PAU?$_Tree_node@PAUHWND__@@PAX@1@@Z$51 DD 040H
	DD	00H
	DD	00H
	DD	FLAT:__catch$??$_Insert_nohint@AAPAUHWND__@@PAU?$_Tree_node@PAUHWND__@@PAX@std@@@?$_Tree@V?$_Tset_traits@PAUHWND__@@U?$less@PAUHWND__@@@std@@V?$allocator@PAUHWND__@@@3@$0A@@std@@@std@@IAE?AU?$pair@V?$_Tree_const_iterator@V?$_Tree_val@U?$_Tree_simple_types@PAUHWND__@@@std@@@std@@@std@@_N@1@_NAAPAUHWND__@@PAU?$_Tree_node@PAUHWND__@@PAX@1@@Z$0
__unwindtable$??$_Insert_nohint@AAPAUHWND__@@PAU?$_Tree_node@PAUHWND__@@PAX@std@@@?$_Tree@V?$_Tset_traits@PAUHWND__@@U?$less@PAUHWND__@@@std@@V?$allocator@PAUHWND__@@@3@$0A@@std@@@std@@IAE?AU?$pair@V?$_Tree_const_iterator@V?$_Tree_val@U?$_Tree_simple_types@PAUHWND__@@@std@@@std@@@std@@_N@1@_NAAPAUHWND__@@PAU?$_Tree_node@PAUHWND__@@PAX@1@@Z DD 0ffffffffH
	DD	00H
	DD	0ffffffffH
	DD	00H
__tryblocktable$??$_Insert_nohint@AAPAUHWND__@@PAU?$_Tree_node@PAUHWND__@@PAX@std@@@?$_Tree@V?$_Tset_traits@PAUHWND__@@U?$less@PAUHWND__@@@std@@V?$allocator@PAUHWND__@@@3@$0A@@std@@@std@@IAE?AU?$pair@V?$_Tree_const_iterator@V?$_Tree_val@U?$_Tree_simple_types@PAUHWND__@@@std@@@std@@@std@@_N@1@_NAAPAUHWND__@@PAU?$_Tree_node@PAUHWND__@@PAX@1@@Z DD 00H
	DD	00H
	DD	01H
	DD	01H
	DD	FLAT:__catchsym$??$_Insert_nohint@AAPAUHWND__@@PAU?$_Tree_node@PAUHWND__@@PAX@std@@@?$_Tree@V?$_Tset_traits@PAUHWND__@@U?$less@PAUHWND__@@@std@@V?$allocator@PAUHWND__@@@3@$0A@@std@@@std@@IAE?AU?$pair@V?$_Tree_const_iterator@V?$_Tree_val@U?$_Tree_simple_types@PAUHWND__@@@std@@@std@@@std@@_N@1@_NAAPAUHWND__@@PAU?$_Tree_node@PAUHWND__@@PAX@1@@Z$51
__ehfuncinfo$??$_Insert_nohint@AAPAUHWND__@@PAU?$_Tree_node@PAUHWND__@@PAX@std@@@?$_Tree@V?$_Tset_traits@PAUHWND__@@U?$less@PAUHWND__@@@std@@V?$allocator@PAUHWND__@@@3@$0A@@std@@@std@@IAE?AU?$pair@V?$_Tree_const_iterator@V?$_Tree_val@U?$_Tree_simple_types@PAUHWND__@@@std@@@std@@@std@@_N@1@_NAAPAUHWND__@@PAU?$_Tree_node@PAUHWND__@@PAX@1@@Z DD 019930522H
	DD	02H
	DD	FLAT:__unwindtable$??$_Insert_nohint@AAPAUHWND__@@PAU?$_Tree_node@PAUHWND__@@PAX@std@@@?$_Tree@V?$_Tset_traits@PAUHWND__@@U?$less@PAUHWND__@@@std@@V?$allocator@PAUHWND__@@@3@$0A@@std@@@std@@IAE?AU?$pair@V?$_Tree_const_iterator@V?$_Tree_val@U?$_Tree_simple_types@PAUHWND__@@@std@@@std@@@std@@_N@1@_NAAPAUHWND__@@PAU?$_Tree_node@PAUHWND__@@PAX@1@@Z
	DD	01H
	DD	FLAT:__tryblocktable$??$_Insert_nohint@AAPAUHWND__@@PAU?$_Tree_node@PAUHWND__@@PAX@std@@@?$_Tree@V?$_Tset_traits@PAUHWND__@@U?$less@PAUHWND__@@@std@@V?$allocator@PAUHWND__@@@3@$0A@@std@@@std@@IAE?AU?$pair@V?$_Tree_const_iterator@V?$_Tree_val@U?$_Tree_simple_types@PAUHWND__@@@std@@@std@@@std@@_N@1@_NAAPAUHWND__@@PAU?$_Tree_node@PAUHWND__@@PAX@1@@Z
	DD	2 DUP(00H)
	DD	00H
	DD	01H
xdata$x	ENDS
;	COMDAT xdata$x
xdata$x	SEGMENT
__catchsym$??$_Construct@V?$_Deque_const_iterator@V?$_Deque_val@U?$_Deque_simple_types@K@std@@@std@@@std@@@?$deque@KV?$allocator@K@std@@@std@@QAEXV?$_Deque_const_iterator@V?$_Deque_val@U?$_Deque_simple_types@K@std@@@std@@@1@0@Z$2 DD 040H
	DD	00H
	DD	00H
	DD	FLAT:__catch$??$_Construct@V?$_Deque_const_iterator@V?$_Deque_val@U?$_Deque_simple_types@K@std@@@std@@@std@@@?$deque@KV?$allocator@K@std@@@std@@QAEXV?$_Deque_const_iterator@V?$_Deque_val@U?$_Deque_simple_types@K@std@@@std@@@1@0@Z$0
__unwindtable$??$_Construct@V?$_Deque_const_iterator@V?$_Deque_val@U?$_Deque_simple_types@K@std@@@std@@@std@@@?$deque@KV?$allocator@K@std@@@std@@QAEXV?$_Deque_const_iterator@V?$_Deque_val@U?$_Deque_simple_types@K@std@@@std@@@1@0@Z DD 0ffffffffH
	DD	00H
	DD	0ffffffffH
	DD	00H
__tryblocktable$??$_Construct@V?$_Deque_const_iterator@V?$_Deque_val@U?$_Deque_simple_types@K@std@@@std@@@std@@@?$deque@KV?$allocator@K@std@@@std@@QAEXV?$_Deque_const_iterator@V?$_Deque_val@U?$_Deque_simple_types@K@std@@@std@@@1@0@Z DD 00H
	DD	00H
	DD	01H
	DD	01H
	DD	FLAT:__catchsym$??$_Construct@V?$_Deque_const_iterator@V?$_Deque_val@U?$_Deque_simple_types@K@std@@@std@@@std@@@?$deque@KV?$allocator@K@std@@@std@@QAEXV?$_Deque_const_iterator@V?$_Deque_val@U?$_Deque_simple_types@K@std@@@std@@@1@0@Z$2
__ehfuncinfo$??$_Construct@V?$_Deque_const_iterator@V?$_Deque_val@U?$_Deque_simple_types@K@std@@@std@@@std@@@?$deque@KV?$allocator@K@std@@@std@@QAEXV?$_Deque_const_iterator@V?$_Deque_val@U?$_Deque_simple_types@K@std@@@std@@@1@0@Z DD 019930522H
	DD	02H
	DD	FLAT:__unwindtable$??$_Construct@V?$_Deque_const_iterator@V?$_Deque_val@U?$_Deque_simple_types@K@std@@@std@@@std@@@?$deque@KV?$allocator@K@std@@@std@@QAEXV?$_Deque_const_iterator@V?$_Deque_val@U?$_Deque_simple_types@K@std@@@std@@@1@0@Z
	DD	01H
	DD	FLAT:__tryblocktable$??$_Construct@V?$_Deque_const_iterator@V?$_Deque_val@U?$_Deque_simple_types@K@std@@@std@@@std@@@?$deque@KV?$allocator@K@std@@@std@@QAEXV?$_Deque_const_iterator@V?$_Deque_val@U?$_Deque_simple_types@K@std@@@std@@@1@0@Z
	DD	2 DUP(00H)
	DD	00H
	DD	01H
xdata$x	ENDS
;	COMDAT xdata$x
xdata$x	SEGMENT
__ehfuncinfo$??1?$CComPtr@UIDXGISwapChain@@@ATL@@QAE@XZ DD 019930522H
	DD	00H
	DD	00H
	DD	2 DUP(00H)
	DD	2 DUP(00H)
	DD	00H
	DD	05H
xdata$x	ENDS
;	COMDAT xdata$x
xdata$x	SEGMENT
__ehfuncinfo$??1?$CComPtr@UID3D11Device@@@ATL@@QAE@XZ DD 019930522H
	DD	00H
	DD	00H
	DD	2 DUP(00H)
	DD	2 DUP(00H)
	DD	00H
	DD	05H
xdata$x	ENDS
;	COMDAT xdata$x
xdata$x	SEGMENT
__ehfuncinfo$??1?$CComPtr@UIDirect3DDevice9Ex@@@ATL@@QAE@XZ DD 019930522H
	DD	00H
	DD	00H
	DD	2 DUP(00H)
	DD	2 DUP(00H)
	DD	00H
	DD	05H
xdata$x	ENDS
;	COMDAT xdata$x
xdata$x	SEGMENT
__ehfuncinfo$??1?$CComPtr@UIDirect3DDevice9@@@ATL@@QAE@XZ DD 019930522H
	DD	00H
	DD	00H
	DD	2 DUP(00H)
	DD	2 DUP(00H)
	DD	00H
	DD	05H
xdata$x	ENDS
;	COMDAT xdata$x
xdata$x	SEGMENT
__sehtable$??R<lambda_e90c1de77d7500ca5331d50c90c1ba3f>@@QBE_NPBD@Z DD 0ffffffffH
	DD	FLAT:$LN11@operator
	DD	FLAT:$LN7@operator
xdata$x	ENDS
;	COMDAT xdata$x
xdata$x	SEGMENT
__ehfuncinfo$?clear@?$_Tree@V?$_Tset_traits@PAUHWND__@@U?$less@PAUHWND__@@@std@@V?$allocator@PAUHWND__@@@3@$0A@@std@@@std@@QAEXXZ DD 019930522H
	DD	00H
	DD	00H
	DD	2 DUP(00H)
	DD	2 DUP(00H)
	DD	00H
	DD	05H
xdata$x	ENDS
;	COMDAT xdata$x
xdata$x	SEGMENT
__unwindtable$??$?H_WU?$char_traits@_W@std@@V?$allocator@_W@1@@std@@YA?AV?$basic_string@_WU?$char_traits@_W@std@@V?$allocator@_W@2@@0@ABV10@QB_W@Z DD 0ffffffffH
	DD	FLAT:__unwindfunclet$??$?H_WU?$char_traits@_W@std@@V?$allocator@_W@1@@std@@YA?AV?$basic_string@_WU?$char_traits@_W@std@@V?$allocator@_W@2@@0@ABV10@QB_W@Z$0
__ehfuncinfo$??$?H_WU?$char_traits@_W@std@@V?$allocator@_W@1@@std@@YA?AV?$basic_string@_WU?$char_traits@_W@std@@V?$allocator@_W@2@@0@ABV10@QB_W@Z DD 019930522H
	DD	01H
	DD	FLAT:__unwindtable$??$?H_WU?$char_traits@_W@std@@V?$allocator@_W@1@@std@@YA?AV?$basic_string@_WU?$char_traits@_W@std@@V?$allocator@_W@2@@0@ABV10@QB_W@Z
	DD	2 DUP(00H)
	DD	2 DUP(00H)
	DD	00H
	DD	01H
xdata$x	ENDS
;	COMDAT xdata$x
xdata$x	SEGMENT
__unwindtable$??4?$queue@KV?$deque@KV?$allocator@K@std@@@std@@@std@@QAEAAV01@$$QAV01@@Z DD 0ffffffffH
	DD	FLAT:___std_terminate
__ehfuncinfo$??4?$queue@KV?$deque@KV?$allocator@K@std@@@std@@@std@@QAEAAV01@$$QAV01@@Z DD 019930522H
	DD	01H
	DD	FLAT:__unwindtable$??4?$queue@KV?$deque@KV?$allocator@K@std@@@std@@@std@@QAEAAV01@$$QAV01@@Z
	DD	2 DUP(00H)
	DD	2 DUP(00H)
	DD	00H
	DD	05H
xdata$x	ENDS
;	COMDAT xdata$x
xdata$x	SEGMENT
__ehfuncinfo$??4?$deque@KV?$allocator@K@std@@@std@@QAEAAV01@$$QAV01@@Z DD 019930522H
	DD	00H
	DD	00H
	DD	2 DUP(00H)
	DD	2 DUP(00H)
	DD	00H
	DD	05H
xdata$x	ENDS
;	COMDAT xdata$x
xdata$x	SEGMENT
__unwindtable$??0?$deque@KV?$allocator@K@std@@@std@@QAE@ABV01@@Z DD 0ffffffffH
	DD	FLAT:__unwindfunclet$??0?$deque@KV?$allocator@K@std@@@std@@QAE@ABV01@@Z$0
__ehfuncinfo$??0?$deque@KV?$allocator@K@std@@@std@@QAE@ABV01@@Z DD 019930522H
	DD	01H
	DD	FLAT:__unwindtable$??0?$deque@KV?$allocator@K@std@@@std@@QAE@ABV01@@Z
	DD	2 DUP(00H)
	DD	2 DUP(00H)
	DD	00H
	DD	01H
xdata$x	ENDS
;	COMDAT xdata$x
xdata$x	SEGMENT
__unwindtable$??__F_AtlComModule@ATL@@YAXXZ DD 0ffffffffH
	DD	FLAT:___std_terminate
__ehfuncinfo$??__F_AtlComModule@ATL@@YAXXZ DD 019930522H
	DD	01H
	DD	FLAT:__unwindtable$??__F_AtlComModule@ATL@@YAXXZ
	DD	2 DUP(00H)
	DD	2 DUP(00H)
	DD	00H
	DD	01H
xdata$x	ENDS
;	COMDAT xdata$x
xdata$x	SEGMENT
__ehfuncinfo$??1CAtlComModule@ATL@@QAE@XZ DD 019930522H
	DD	00H
	DD	00H
	DD	2 DUP(00H)
	DD	2 DUP(00H)
	DD	00H
	DD	05H
xdata$x	ENDS
;	COMDAT xdata$x
xdata$x	SEGMENT
__unwindtable$??0SK_ICommandResult@@QAE@PBD00HPBUSK_IVariable@@PBUSK_ICommand@@@Z DD 0ffffffffH
	DD	FLAT:__unwindfunclet$??0SK_ICommandResult@@QAE@PBD00HPBUSK_IVariable@@PBUSK_ICommand@@@Z$0
	DD	00H
	DD	FLAT:__unwindfunclet$??0SK_ICommandResult@@QAE@PBD00HPBUSK_IVariable@@PBUSK_ICommand@@@Z$1
__ehfuncinfo$??0SK_ICommandResult@@QAE@PBD00HPBUSK_IVariable@@PBUSK_ICommand@@@Z DD 019930522H
	DD	02H
	DD	FLAT:__unwindtable$??0SK_ICommandResult@@QAE@PBD00HPBUSK_IVariable@@PBUSK_ICommand@@@Z
	DD	2 DUP(00H)
	DD	2 DUP(00H)
	DD	00H
	DD	01H
xdata$x	ENDS
;	COMDAT xdata$x
xdata$x	SEGMENT
__ehfuncinfo$??1AutoClose@iSK_Logger@@QAE@XZ DD 019930522H
	DD	00H
	DD	00H
	DD	2 DUP(00H)
	DD	2 DUP(00H)
	DD	00H
	DD	05H
xdata$x	ENDS
;	COMDAT xdata$x
xdata$x	SEGMENT
__catchsym$?_Copy@?$basic_string@_WU?$char_traits@_W@std@@V?$allocator@_W@2@@std@@QAEXI@Z$18 DD 040H
	DD	00H
	DD	00H
	DD	FLAT:__catch$?_Copy@?$basic_string@_WU?$char_traits@_W@std@@V?$allocator@_W@2@@std@@QAEXI@Z$0
__unwindtable$?_Copy@?$basic_string@_WU?$char_traits@_W@std@@V?$allocator@_W@2@@std@@QAEXI@Z DD 0ffffffffH
	DD	00H
	DD	0ffffffffH
	DD	00H
__tryblocktable$?_Copy@?$basic_string@_WU?$char_traits@_W@std@@V?$allocator@_W@2@@std@@QAEXI@Z DD 00H
	DD	00H
	DD	01H
	DD	01H
	DD	FLAT:__catchsym$?_Copy@?$basic_string@_WU?$char_traits@_W@std@@V?$allocator@_W@2@@std@@QAEXI@Z$18
__ehfuncinfo$?_Copy@?$basic_string@_WU?$char_traits@_W@std@@V?$allocator@_W@2@@std@@QAEXI@Z DD 019930522H
	DD	02H
	DD	FLAT:__unwindtable$?_Copy@?$basic_string@_WU?$char_traits@_W@std@@V?$allocator@_W@2@@std@@QAEXI@Z
	DD	01H
	DD	FLAT:__tryblocktable$?_Copy@?$basic_string@_WU?$char_traits@_W@std@@V?$allocator@_W@2@@std@@QAEXI@Z
	DD	2 DUP(00H)
	DD	00H
	DD	01H
xdata$x	ENDS
;	COMDAT xdata$x
xdata$x	SEGMENT
__catchsym$?_Copy@?$basic_string@DU?$char_traits@D@std@@V?$allocator@D@2@@std@@QAEXI@Z$18 DD 040H
	DD	00H
	DD	00H
	DD	FLAT:__catch$?_Copy@?$basic_string@DU?$char_traits@D@std@@V?$allocator@D@2@@std@@QAEXI@Z$0
__unwindtable$?_Copy@?$basic_string@DU?$char_traits@D@std@@V?$allocator@D@2@@std@@QAEXI@Z DD 0ffffffffH
	DD	00H
	DD	0ffffffffH
	DD	00H
__tryblocktable$?_Copy@?$basic_string@DU?$char_traits@D@std@@V?$allocator@D@2@@std@@QAEXI@Z DD 00H
	DD	00H
	DD	01H
	DD	01H
	DD	FLAT:__catchsym$?_Copy@?$basic_string@DU?$char_traits@D@std@@V?$allocator@D@2@@std@@QAEXI@Z$18
__ehfuncinfo$?_Copy@?$basic_string@DU?$char_traits@D@std@@V?$allocator@D@2@@std@@QAEXI@Z DD 019930522H
	DD	02H
	DD	FLAT:__unwindtable$?_Copy@?$basic_string@DU?$char_traits@D@std@@V?$allocator@D@2@@std@@QAEXI@Z
	DD	01H
	DD	FLAT:__tryblocktable$?_Copy@?$basic_string@DU?$char_traits@D@std@@V?$allocator@D@2@@std@@QAEXI@Z
	DD	2 DUP(00H)
	DD	00H
	DD	01H
xdata$x	ENDS
xdata$x	SEGMENT
__unwindtable$?SK_EstablishRootPath@@YGXXZ DD 0ffffffffH
	DD	FLAT:__unwindfunclet$?SK_EstablishRootPath@@YGXXZ$0
__unwindtable$?SK_HasGlobalInjector@@YG_NXZ DD 0ffffffffH
	DD	FLAT:__unwindfunclet$?SK_HasGlobalInjector@@YG_NXZ$0
__unwindtable$?SK_InitFinishCallback@@YGXXZ DD 0ffffffffH
	DD	FLAT:__unwindfunclet$?SK_InitFinishCallback@@YGXXZ$0
	DD	0ffffffffH
	DD	FLAT:__unwindfunclet$?SK_InitFinishCallback@@YGXXZ$1
	DD	0ffffffffH
	DD	FLAT:__unwindfunclet$?SK_InitFinishCallback@@YGXXZ$2
__unwindtable$?SK_EndBufferSwap@@YGJJPAUIUnknown@@@Z DD 0ffffffffH
	DD	FLAT:__unwindfunclet$?SK_EndBufferSwap@@YGJJPAUIUnknown@@@Z$0
	DD	00H
	DD	FLAT:__unwindfunclet$?SK_EndBufferSwap@@YGJJPAUIUnknown@@@Z$1
	DD	01H
	DD	FLAT:__unwindfunclet$?SK_EndBufferSwap@@YGJJPAUIUnknown@@@Z$2
	DD	02H
	DD	FLAT:__unwindfunclet$?SK_EndBufferSwap@@YGJJPAUIUnknown@@@Z$3
__unwindtable$?SK_ShutdownCore@@YG_NPB_W@Z DD 0ffffffffH
	DD	FLAT:__unwindfunclet$?SK_ShutdownCore@@YG_NPB_W@Z$0
	DD	00H
	DD	FLAT:__unwindfunclet$?SK_ShutdownCore@@YG_NPB_W@Z$1
	DD	00H
	DD	FLAT:___std_terminate
	DD	0ffffffffH
	DD	FLAT:___std_terminate
__ehfuncinfo$?SK_EstablishRootPath@@YGXXZ DD 019930522H
	DD	01H
	DD	FLAT:__unwindtable$?SK_EstablishRootPath@@YGXXZ
	DD	2 DUP(00H)
	DD	2 DUP(00H)
	DD	00H
	DD	01H
__ehfuncinfo$?SK_InitFinishCallback@@YGXXZ DD 019930522H
	DD	03H
	DD	FLAT:__unwindtable$?SK_InitFinishCallback@@YGXXZ
	DD	2 DUP(00H)
	DD	2 DUP(00H)
	DD	00H
	DD	01H
__ehfuncinfo$?SK_HasGlobalInjector@@YG_NXZ DD 019930522H
	DD	01H
	DD	FLAT:__unwindtable$?SK_HasGlobalInjector@@YG_NXZ
	DD	2 DUP(00H)
	DD	2 DUP(00H)
	DD	00H
	DD	01H
__ehfuncinfo$?SK_EndBufferSwap@@YGJJPAUIUnknown@@@Z DD 019930522H
	DD	04H
	DD	FLAT:__unwindtable$?SK_EndBufferSwap@@YGJJPAUIUnknown@@@Z
	DD	2 DUP(00H)
	DD	2 DUP(00H)
	DD	00H
	DD	01H
__ehfuncinfo$?SK_ShutdownCore@@YG_NPB_W@Z DD 019930522H
	DD	04H
	DD	FLAT:__unwindtable$?SK_ShutdownCore@@YG_NPB_W@Z
	DD	2 DUP(00H)
	DD	2 DUP(00H)
	DD	00H
	DD	01H
__ehfuncinfo$?SK_StartupCore@@YG_NPB_WPAX@Z DD 019930522H
	DD	0fH
	DD	FLAT:__unwindtable$?SK_StartupCore@@YG_NPB_WPAX@Z
	DD	2 DUP(00H)
	DD	2 DUP(00H)
	DD	00H
	DD	01H
__unwindtable$?SK_StartupCore@@YG_NPB_WPAX@Z DD 0ffffffffH
	DD	FLAT:__unwindfunclet$?SK_StartupCore@@YG_NPB_WPAX@Z$1
	DD	00H
	DD	FLAT:__unwindfunclet$?SK_StartupCore@@YG_NPB_WPAX@Z$2
	DD	0ffffffffH
	DD	FLAT:__unwindfunclet$?SK_StartupCore@@YG_NPB_WPAX@Z$4
	DD	02H
	DD	FLAT:__unwindfunclet$?SK_StartupCore@@YG_NPB_WPAX@Z$5
	DD	0ffffffffH
	DD	FLAT:__unwindfunclet$?SK_StartupCore@@YG_NPB_WPAX@Z$7
	DD	0ffffffffH
	DD	FLAT:__unwindfunclet$?SK_StartupCore@@YG_NPB_WPAX@Z$8
	DD	05H
	DD	FLAT:__unwindfunclet$?SK_StartupCore@@YG_NPB_WPAX@Z$9
	DD	0ffffffffH
	DD	FLAT:__unwindfunclet$?SK_StartupCore@@YG_NPB_WPAX@Z$11
	DD	0ffffffffH
	DD	FLAT:__unwindfunclet$?SK_StartupCore@@YG_NPB_WPAX@Z$13
	DD	08H
	DD	FLAT:__unwindfunclet$?SK_StartupCore@@YG_NPB_WPAX@Z$15
	DD	09H
	DD	FLAT:__unwindfunclet$?SK_StartupCore@@YG_NPB_WPAX@Z$16
	DD	08H
	DD	FLAT:__unwindfunclet$?SK_StartupCore@@YG_NPB_WPAX@Z$21
	DD	08H
	DD	FLAT:__unwindfunclet$?SK_StartupCore@@YG_NPB_WPAX@Z$23
	DD	08H
	DD	FLAT:__unwindfunclet$?SK_StartupCore@@YG_NPB_WPAX@Z$27
	DD	08H
	DD	FLAT:___std_terminate
xdata$x	ENDS
;	COMDAT CRT$XCU
CRT$XCU	SEGMENT
?_AtlWinModule$initializer$@ATL@@3P6AXXZA DD FLAT:??__E_AtlWinModule@ATL@@YAXXZ ; ATL::_AtlWinModule$initializer$
CRT$XCU	ENDS
CRT$XCU	SEGMENT
?init_tids$initializer$@@3P6AXXZA DD FLAT:??__Einit_tids@@YAXXZ ; init_tids$initializer$
CRT$XCU	ENDS
CRT$XCU	SEGMENT
?__SK_Init_Suspended_tids$initializer$@@3P6AXXZA DD FLAT:??__E__SK_Init_Suspended_tids@@YAXXZ ; __SK_Init_Suspended_tids$initializer$
CRT$XCU	ENDS
CRT$XCU	SEGMENT
?dummy_windows$initializer$@@3P6AXXZA DD FLAT:??__Edummy_windows@@YAXXZ ; dummy_windows$initializer$
CRT$XCU	ENDS
; Function compile flags: /Ogtp
; File c:\program files (x86)\microsoft visual studio\2017\community\vc\tools\msvc\14.10.25017\include\xutility
;	COMDAT ??$_Copy_memmove@PAPAKPAPAK@std@@YAPAPAKPAPAK00@Z
_TEXT	SEGMENT
__First$ = 8						; size = 4
__Last$ = 12						; size = 4
__Dest$ = 16						; size = 4
??$_Copy_memmove@PAPAKPAPAK@std@@YAPAPAKPAPAK00@Z PROC	; std::_Copy_memmove<unsigned long * *,unsigned long * *>, COMDAT

; 2295 : 	{	// implement copy-like function as memmove

	npad	2
	push	ebp
	mov	ebp, esp

; 2296 : 	const char * const _First_ch = reinterpret_cast<const char *>(_First);
; 2297 : 	const char * const _Last_ch = reinterpret_cast<const char *>(_Last);
; 2298 : 	char * const _Dest_ch = reinterpret_cast<char *>(_Dest);
; 2299 : 	const size_t _Count = _Last_ch - _First_ch;

	mov	eax, DWORD PTR __First$[ebp]
	push	esi

; 2300 : 	_CSTD memmove(_Dest_ch, _First_ch, _Count);

	mov	esi, DWORD PTR __Dest$[ebp]
	push	edi
	mov	edi, DWORD PTR __Last$[ebp]
	sub	edi, eax
	push	edi
	push	eax
	push	esi
	call	DWORD PTR __imp__memmove
	add	esp, 12					; 0000000cH

; 2301 : 	return (reinterpret_cast<_OutIt>(_Dest_ch + _Count));

	lea	eax, DWORD PTR [edi+esi]
	pop	edi
	pop	esi

; 2302 : 	}

	pop	ebp
	ret	0
??$_Copy_memmove@PAPAKPAPAK@std@@YAPAPAKPAPAK00@Z ENDP	; std::_Copy_memmove<unsigned long * *,unsigned long * *>
_TEXT	ENDS
; Function compile flags: /Ogtp
; File c:\program files (x86)\microsoft visual studio\2017\community\vc\tools\msvc\14.10.25017\include\xmemory0
;	COMDAT ??$construct@KABK@?$allocator@K@std@@QAEXPAKABK@Z
_TEXT	SEGMENT
__Ptr$ = 8						; size = 4
_<_Args_0>$ = 12					; size = 4
??$construct@KABK@?$allocator@K@std@@QAEXPAKABK@Z PROC	; std::allocator<unsigned long>::construct<unsigned long,unsigned long const &>, COMDAT
; _this$ = ecx

; 839  : 		{	// construct _Objty(_Types...) at _Ptr

	npad	2
	push	ebp
	mov	ebp, esp

; 840  : 		::new ((void *)_Ptr) _Objty(_STD forward<_Types>(_Args)...);

	mov	ecx, DWORD PTR __Ptr$[ebp]
	test	ecx, ecx
	je	SHORT $LN3@construct
	mov	eax, DWORD PTR _<_Args_0>$[ebp]
	mov	eax, DWORD PTR [eax]
	mov	DWORD PTR [ecx], eax
$LN3@construct:

; 841  : 		}

	pop	ebp
	ret	8
??$construct@KABK@?$allocator@K@std@@QAEXPAKABK@Z ENDP	; std::allocator<unsigned long>::construct<unsigned long,unsigned long const &>
_TEXT	ENDS
; Function compile flags: /Ogtp
; File c:\program files (x86)\microsoft visual studio\2017\community\vc\tools\msvc\14.10.25017\include\xmemory0
;	COMDAT ??$construct@PAUHWND__@@AAPAU1@@?$allocator@U?$_Tree_node@PAUHWND__@@PAX@std@@@std@@QAEXPAPAUHWND__@@AAPAU2@@Z
_TEXT	SEGMENT
__Ptr$ = 8						; size = 4
_<_Args_0>$ = 12					; size = 4
??$construct@PAUHWND__@@AAPAU1@@?$allocator@U?$_Tree_node@PAUHWND__@@PAX@std@@@std@@QAEXPAPAUHWND__@@AAPAU2@@Z PROC ; std::allocator<std::_Tree_node<HWND__ *,void *> >::construct<HWND__ *,HWND__ * &>, COMDAT
; _this$ = ecx

; 839  : 		{	// construct _Objty(_Types...) at _Ptr

	npad	2
	push	ebp
	mov	ebp, esp

; 840  : 		::new ((void *)_Ptr) _Objty(_STD forward<_Types>(_Args)...);

	mov	ecx, DWORD PTR __Ptr$[ebp]
	test	ecx, ecx
	je	SHORT $LN3@construct
	mov	eax, DWORD PTR _<_Args_0>$[ebp]
	mov	eax, DWORD PTR [eax]
	mov	DWORD PTR [ecx], eax
$LN3@construct:

; 841  : 		}

	pop	ebp
	ret	8
??$construct@PAUHWND__@@AAPAU1@@?$allocator@U?$_Tree_node@PAUHWND__@@PAX@std@@@std@@QAEXPAPAUHWND__@@AAPAU2@@Z ENDP ; std::allocator<std::_Tree_node<HWND__ *,void *> >::construct<HWND__ *,HWND__ * &>
_TEXT	ENDS
; Function compile flags: /Ogtp
; File c:\program files (x86)\microsoft visual studio\2017\community\vc\tools\msvc\14.10.25017\include\xmemory0
;	COMDAT ??$_Destroy_range1@V?$allocator@PAK@std@@PAPAK@std@@YAXPAPAK0AAU?$_Wrap_alloc@V?$allocator@PAK@std@@@0@U?$integral_constant@_N$00@0@@Z
_TEXT	SEGMENT
___formal$ = 8						; size = 4
___formal$ = 12						; size = 4
___formal$ = 16						; size = 4
___formal$ = 20						; size = 1
??$_Destroy_range1@V?$allocator@PAK@std@@PAPAK@std@@YAXPAPAK0AAU?$_Wrap_alloc@V?$allocator@PAK@std@@@0@U?$integral_constant@_N$00@0@@Z PROC ; std::_Destroy_range1<std::allocator<unsigned long *>,unsigned long * *>, COMDAT

; 1208 : 		// nothing to do
; 1209 : 	}

	ret	0
??$_Destroy_range1@V?$allocator@PAK@std@@PAPAK@std@@YAXPAPAK0AAU?$_Wrap_alloc@V?$allocator@PAK@std@@@0@U?$integral_constant@_N$00@0@@Z ENDP ; std::_Destroy_range1<std::allocator<unsigned long *>,unsigned long * *>
_TEXT	ENDS
; Function compile flags: /Ogtp
; File c:\program files (x86)\microsoft visual studio\2017\community\vc\tools\msvc\14.10.25017\include\xmemory
;	COMDAT ??$_Uninitialized_default_fill_n1@PAPAKIV?$allocator@PAK@std@@@std@@YAPAPAKPAPAKIAAU?$_Wrap_alloc@V?$allocator@PAK@std@@@0@U?$integral_constant@_N$00@0@@Z
_TEXT	SEGMENT
__First$ = 8						; size = 4
__Count$ = 12						; size = 4
___formal$ = 16						; size = 4
___formal$ = 20						; size = 1
??$_Uninitialized_default_fill_n1@PAPAKIV?$allocator@PAK@std@@@std@@YAPAPAKPAPAKIAAU?$_Wrap_alloc@V?$allocator@PAK@std@@@0@U?$integral_constant@_N$00@0@@Z PROC ; std::_Uninitialized_default_fill_n1<unsigned long * *,unsigned int,std::allocator<unsigned long *> >, COMDAT

; 250  : 	{	// value-initialize _Count objects to raw _First, using default _Alloc construct, all-bits-zero type

	npad	2
	push	ebp
	mov	ebp, esp

; 251  : 	_CSTD memset(_First, 0, _Count * sizeof(_Iter_value_t<_FwdIt>));

	mov	eax, DWORD PTR __Count$[ebp]
	push	esi
	mov	esi, DWORD PTR __First$[ebp]
	push	edi
	lea	edi, DWORD PTR [eax*4]
	push	edi
	push	0
	push	esi
	call	_memset
	add	esp, 12					; 0000000cH

; 252  : 	return (_First + _Count);

	lea	eax, DWORD PTR [edi+esi]
	pop	edi
	pop	esi

; 253  : 	}

	pop	ebp
	ret	0
??$_Uninitialized_default_fill_n1@PAPAKIV?$allocator@PAK@std@@@std@@YAPAPAKPAPAKIAAU?$_Wrap_alloc@V?$allocator@PAK@std@@@0@U?$integral_constant@_N$00@0@@Z ENDP ; std::_Uninitialized_default_fill_n1<unsigned long * *,unsigned int,std::allocator<unsigned long *> >
_TEXT	ENDS
; Function compile flags: /Ogtp
; File c:\program files (x86)\microsoft visual studio\2017\community\vc\tools\msvc\14.10.25017\include\xutility
;	COMDAT ??$_Rechecked@PAPAKPAPAK@std@@YAAAPAPAKAAPAPAKPAPAK@Z
_TEXT	SEGMENT
__Dest$ = 8						; size = 4
__Src$ = 12						; size = 4
??$_Rechecked@PAPAKPAPAK@std@@YAAAPAPAKAAPAPAKPAPAK@Z PROC ; std::_Rechecked<unsigned long * *,unsigned long * *>, COMDAT

; 480  : 	{	// reset checked from unchecked, generic

	npad	2
	push	ebp
	mov	ebp, esp

; 481  : 	_Dest = _Src;

	mov	eax, DWORD PTR __Dest$[ebp]
	mov	ecx, DWORD PTR __Src$[ebp]
	mov	DWORD PTR [eax], ecx

; 482  : 	return (_Dest);
; 483  : 	}

	pop	ebp
	ret	0
??$_Rechecked@PAPAKPAPAK@std@@YAAAPAPAKAAPAPAKPAPAK@Z ENDP ; std::_Rechecked<unsigned long * *,unsigned long * *>
_TEXT	ENDS
; Function compile flags: /Ogtp
; File c:\program files (x86)\microsoft visual studio\2017\community\vc\tools\msvc\14.10.25017\include\xmemory
; File c:\program files (x86)\microsoft visual studio\2017\community\vc\tools\msvc\14.10.25017\include\xutility
; File c:\program files (x86)\microsoft visual studio\2017\community\vc\tools\msvc\14.10.25017\include\xmemory
;	COMDAT ??$_Uninitialized_copy_al_unchecked@PAKPAKV?$allocator@PAK@std@@@std@@YAPAPAKPAPAK00AAU?$_Wrap_alloc@V?$allocator@PAK@std@@@0@U_Really_trivial_ptr_iterator_tag@0@U?$integral_constant@_N$00@0@@Z
_TEXT	SEGMENT
__First$ = 8						; size = 4
__Last$ = 12						; size = 4
__Dest$ = 16						; size = 4
___formal$ = 20						; size = 4
___formal$ = 24						; size = 1
___formal$ = 28						; size = 1
??$_Uninitialized_copy_al_unchecked@PAKPAKV?$allocator@PAK@std@@@std@@YAPAPAKPAPAK00AAU?$_Wrap_alloc@V?$allocator@PAK@std@@@0@U_Really_trivial_ptr_iterator_tag@0@U?$integral_constant@_N$00@0@@Z PROC ; std::_Uninitialized_copy_al_unchecked<unsigned long *,unsigned long *,std::allocator<unsigned long *> >, COMDAT

; 108  : 	{	// copy [_First, _Last) to raw _Dest, using default _Alloc construct, memmove optimization

	npad	2
	push	ebp
	mov	ebp, esp
; File c:\program files (x86)\microsoft visual studio\2017\community\vc\tools\msvc\14.10.25017\include\xutility

; 2299 : 	const size_t _Count = _Last_ch - _First_ch;

	mov	eax, DWORD PTR __First$[ebp]
	push	esi

; 2300 : 	_CSTD memmove(_Dest_ch, _First_ch, _Count);

	mov	esi, DWORD PTR __Dest$[ebp]
	push	edi

; 2299 : 	const size_t _Count = _Last_ch - _First_ch;

	mov	edi, DWORD PTR __Last$[ebp]
	sub	edi, eax

; 2300 : 	_CSTD memmove(_Dest_ch, _First_ch, _Count);

	push	edi
	push	eax
	push	esi
	call	DWORD PTR __imp__memmove
	add	esp, 12					; 0000000cH

; 2301 : 	return (reinterpret_cast<_OutIt>(_Dest_ch + _Count));

	lea	eax, DWORD PTR [edi+esi]
	pop	edi
	pop	esi
; File c:\program files (x86)\microsoft visual studio\2017\community\vc\tools\msvc\14.10.25017\include\xmemory

; 110  : 	}

	pop	ebp
	ret	0
??$_Uninitialized_copy_al_unchecked@PAKPAKV?$allocator@PAK@std@@@std@@YAPAPAKPAPAK00AAU?$_Wrap_alloc@V?$allocator@PAK@std@@@0@U_Really_trivial_ptr_iterator_tag@0@U?$integral_constant@_N$00@0@@Z ENDP ; std::_Uninitialized_copy_al_unchecked<unsigned long *,unsigned long *,std::allocator<unsigned long *> >
_TEXT	ENDS
; Function compile flags: /Ogtp
; File c:\program files (x86)\microsoft visual studio\2017\community\vc\tools\msvc\14.10.25017\include\xutility
;	COMDAT ??$_Ptr_copy_cat@PAKPAK@std@@YA?AU_Really_trivial_ptr_iterator_tag@0@ABQAPAK0@Z
_TEXT	SEGMENT
___$ReturnUdt$ = 8					; size = 4
___formal$ = 12						; size = 4
___formal$ = 16						; size = 4
??$_Ptr_copy_cat@PAKPAK@std@@YA?AU_Really_trivial_ptr_iterator_tag@0@ABQAPAK0@Z PROC ; std::_Ptr_copy_cat<unsigned long *,unsigned long *>, COMDAT

; 875  : 	{	// return pointer copy optimization category for pointers

	npad	2
	push	ebp
	mov	ebp, esp

; 876  : 	return {};

	mov	eax, DWORD PTR ___$ReturnUdt$[ebp]

; 877  : 	}

	pop	ebp
	ret	0
??$_Ptr_copy_cat@PAKPAK@std@@YA?AU_Really_trivial_ptr_iterator_tag@0@ABQAPAK0@Z ENDP ; std::_Ptr_copy_cat<unsigned long *,unsigned long *>
_TEXT	ENDS
; Function compile flags: /Ogtp
; File c:\program files (x86)\microsoft visual studio\2017\community\vc\tools\msvc\14.10.25017\include\xutility
;	COMDAT ??$_Unchecked@PAPAK@std@@YAPAPAKPAPAK@Z
_TEXT	SEGMENT
__Src$ = 8						; size = 4
??$_Unchecked@PAPAK@std@@YAPAPAKPAPAK@Z PROC		; std::_Unchecked<unsigned long * *>, COMDAT

; 450  : 	{	// construct unchecked from checked, generic

	npad	2
	push	ebp
	mov	ebp, esp

; 451  : 	return (_Src);

	mov	eax, DWORD PTR __Src$[ebp]

; 452  : 	}

	pop	ebp
	ret	0
??$_Unchecked@PAPAK@std@@YAPAPAKPAPAK@Z ENDP		; std::_Unchecked<unsigned long * *>
_TEXT	ENDS
; Function compile flags: /Ogtp
; File c:\program files (x86)\microsoft visual studio\2017\community\vc\tools\msvc\14.10.25017\include\xmemory0
;	COMDAT ??$construct@KABK@?$allocator_traits@V?$allocator@K@std@@@std@@SAXAAV?$allocator@K@1@PAKABK@Z
_TEXT	SEGMENT
__Al$ = 8						; size = 4
__Ptr$ = 12						; size = 4
_<_Args_0>$ = 16					; size = 4
??$construct@KABK@?$allocator_traits@V?$allocator@K@std@@@std@@SAXAAV?$allocator@K@1@PAKABK@Z PROC ; std::allocator_traits<std::allocator<unsigned long> >::construct<unsigned long,unsigned long const &>, COMDAT

; 958  : 		{	// construct _Objty(_Types...) at _Ptr

	npad	2
	push	ebp
	mov	ebp, esp

; 840  : 		::new ((void *)_Ptr) _Objty(_STD forward<_Types>(_Args)...);

	mov	ecx, DWORD PTR __Ptr$[ebp]
	test	ecx, ecx
	je	SHORT $LN8@construct
	mov	eax, DWORD PTR _<_Args_0>$[ebp]
	mov	eax, DWORD PTR [eax]
	mov	DWORD PTR [ecx], eax
$LN8@construct:

; 959  : 		_Al.construct(_Ptr, _STD forward<_Types>(_Args)...);
; 960  : 		}

	pop	ebp
	ret	0
??$construct@KABK@?$allocator_traits@V?$allocator@K@std@@@std@@SAXAAV?$allocator@K@1@PAKABK@Z ENDP ; std::allocator_traits<std::allocator<unsigned long> >::construct<unsigned long,unsigned long const &>
_TEXT	ENDS
; Function compile flags: /Ogtp
; File c:\program files (x86)\microsoft visual studio\2017\community\vc\tools\msvc\14.10.25017\include\type_traits
;	COMDAT ??$forward@V?$_Tree_const_iterator@V?$_Tree_val@U?$_Tree_simple_types@PAUHWND__@@@std@@@std@@@std@@@std@@YA$$QAV?$_Tree_const_iterator@V?$_Tree_val@U?$_Tree_simple_types@PAUHWND__@@@std@@@std@@@0@AAV10@@Z
_TEXT	SEGMENT
__Arg$ = 8						; size = 4
??$forward@V?$_Tree_const_iterator@V?$_Tree_val@U?$_Tree_simple_types@PAUHWND__@@@std@@@std@@@std@@@std@@YA$$QAV?$_Tree_const_iterator@V?$_Tree_val@U?$_Tree_simple_types@PAUHWND__@@@std@@@std@@@0@AAV10@@Z PROC ; std::forward<std::_Tree_const_iterator<std::_Tree_val<std::_Tree_simple_types<HWND__ *> > > >, COMDAT

; 1334 : 	{	// forward an lvalue as either an lvalue or an rvalue

	npad	2
	push	ebp
	mov	ebp, esp

; 1335 : 	return (static_cast<_Ty&&>(_Arg));

	mov	eax, DWORD PTR __Arg$[ebp]

; 1336 : 	}

	pop	ebp
	ret	0
??$forward@V?$_Tree_const_iterator@V?$_Tree_val@U?$_Tree_simple_types@PAUHWND__@@@std@@@std@@@std@@@std@@YA$$QAV?$_Tree_const_iterator@V?$_Tree_val@U?$_Tree_simple_types@PAUHWND__@@@std@@@std@@@0@AAV10@@Z ENDP ; std::forward<std::_Tree_const_iterator<std::_Tree_val<std::_Tree_simple_types<HWND__ *> > > >
_TEXT	ENDS
; Function compile flags: /Ogtp
; File c:\program files (x86)\microsoft visual studio\2017\community\vc\tools\msvc\14.10.25017\include\xtree
;	COMDAT ??$_Buynode_if_nil@AAPAUHWND__@@@?$_Tree@V?$_Tset_traits@PAUHWND__@@U?$less@PAUHWND__@@@std@@V?$allocator@PAUHWND__@@@3@$0A@@std@@@std@@IAEPAU?$_Tree_node@PAUHWND__@@PAX@1@PAU21@AAPAUHWND__@@@Z
_TEXT	SEGMENT
__Node$ = 8						; size = 4
___formal$ = 12						; size = 4
??$_Buynode_if_nil@AAPAUHWND__@@@?$_Tree@V?$_Tset_traits@PAUHWND__@@U?$less@PAUHWND__@@@std@@V?$allocator@PAUHWND__@@@3@$0A@@std@@@std@@IAEPAU?$_Tree_node@PAUHWND__@@PAX@1@PAU21@AAPAUHWND__@@@Z PROC ; std::_Tree<std::_Tset_traits<HWND__ *,std::less<HWND__ *>,std::allocator<HWND__ *>,0> >::_Buynode_if_nil<HWND__ * &>, COMDAT
; _this$ = ecx

; 1637 : 		{	// node exists, just return it

	npad	2
	push	ebp
	mov	ebp, esp

; 1638 : 		return (_Node);

	mov	eax, DWORD PTR __Node$[ebp]

; 1639 : 		}

	pop	ebp
	ret	8
??$_Buynode_if_nil@AAPAUHWND__@@@?$_Tree@V?$_Tset_traits@PAUHWND__@@U?$less@PAUHWND__@@@std@@V?$allocator@PAUHWND__@@@3@$0A@@std@@@std@@IAEPAU?$_Tree_node@PAUHWND__@@PAX@1@PAU21@AAPAUHWND__@@@Z ENDP ; std::_Tree<std::_Tset_traits<HWND__ *,std::less<HWND__ *>,std::allocator<HWND__ *>,0> >::_Buynode_if_nil<HWND__ * &>
_TEXT	ENDS
; Function compile flags: /Ogtp
; File c:\program files (x86)\microsoft visual studio\2017\community\vc\tools\msvc\14.10.25017\include\xmemory0
;	COMDAT ??$construct@PAUHWND__@@AAPAU1@@?$allocator_traits@V?$allocator@U?$_Tree_node@PAUHWND__@@PAX@std@@@std@@@std@@SAXAAV?$allocator@U?$_Tree_node@PAUHWND__@@PAX@std@@@1@PAPAUHWND__@@AAPAU3@@Z
_TEXT	SEGMENT
__Al$ = 8						; size = 4
__Ptr$ = 12						; size = 4
_<_Args_0>$ = 16					; size = 4
??$construct@PAUHWND__@@AAPAU1@@?$allocator_traits@V?$allocator@U?$_Tree_node@PAUHWND__@@PAX@std@@@std@@@std@@SAXAAV?$allocator@U?$_Tree_node@PAUHWND__@@PAX@std@@@1@PAPAUHWND__@@AAPAU3@@Z PROC ; std::allocator_traits<std::allocator<std::_Tree_node<HWND__ *,void *> > >::construct<HWND__ *,HWND__ * &>, COMDAT

; 958  : 		{	// construct _Objty(_Types...) at _Ptr

	npad	2
	push	ebp
	mov	ebp, esp

; 840  : 		::new ((void *)_Ptr) _Objty(_STD forward<_Types>(_Args)...);

	mov	ecx, DWORD PTR __Ptr$[ebp]
	test	ecx, ecx
	je	SHORT $LN8@construct
	mov	eax, DWORD PTR _<_Args_0>$[ebp]
	mov	eax, DWORD PTR [eax]
	mov	DWORD PTR [ecx], eax
$LN8@construct:

; 959  : 		_Al.construct(_Ptr, _STD forward<_Types>(_Args)...);
; 960  : 		}

	pop	ebp
	ret	0
??$construct@PAUHWND__@@AAPAU1@@?$allocator_traits@V?$allocator@U?$_Tree_node@PAUHWND__@@PAX@std@@@std@@@std@@SAXAAV?$allocator@U?$_Tree_node@PAUHWND__@@PAX@std@@@1@PAPAUHWND__@@AAPAU3@@Z ENDP ; std::allocator_traits<std::allocator<std::_Tree_node<HWND__ *,void *> > >::construct<HWND__ *,HWND__ * &>
_TEXT	ENDS
; Function compile flags: /Ogtp
; File c:\program files (x86)\microsoft visual studio\2017\community\vc\tools\msvc\14.10.25017\include\xmemory0
;	COMDAT ??$_Destroy_range@V?$allocator@PAK@std@@PAPAK@std@@YAXPAPAK0AAU?$_Wrap_alloc@V?$allocator@PAK@std@@@0@@Z
_TEXT	SEGMENT
__First$ = 8						; size = 4
__Last$ = 12						; size = 4
__Al$ = 16						; size = 4
??$_Destroy_range@V?$allocator@PAK@std@@PAPAK@std@@YAXPAPAK0AAU?$_Wrap_alloc@V?$allocator@PAK@std@@@0@@Z PROC ; std::_Destroy_range<std::allocator<unsigned long *>,unsigned long * *>, COMDAT

; 1215 : 		// note that this is an optimization for debug mode codegen;
; 1216 : 		// in release mode the BE removes all of this
; 1217 : 	typedef typename _Alloc::value_type _Val;
; 1218 : 	_Destroy_range1(_First, _Last, _Al, _Conjunction_t<
; 1219 : 		is_trivially_destructible<_Val>,
; 1220 : 		_Uses_default_destroy<_Alloc, _Val *>>());
; 1221 : 	}

	ret	0
??$_Destroy_range@V?$allocator@PAK@std@@PAPAK@std@@YAXPAPAK0AAU?$_Wrap_alloc@V?$allocator@PAK@std@@@0@@Z ENDP ; std::_Destroy_range<std::allocator<unsigned long *>,unsigned long * *>
_TEXT	ENDS
; Function compile flags: /Ogtp
