; Listing generated by Microsoft (R) Optimizing Compiler Version 19.10.25019.0 

	TITLE	C:\Users\andon\Source\Repos\SpecialK\src\CSteamWorks.cpp
	.686P
	.XMM
	include listing.inc
	.model	flat

INCLUDELIB MSVCRT
INCLUDELIB OLDNAMES

PUBLIC	?__CSteamworks_hook@@3KC			; __CSteamworks_hook
PUBLIC	?InitSafe_Original@@3P6A_NXZA			; InitSafe_Original
_BSS	SEGMENT
?__CSteamworks_hook@@3KC DD 01H DUP (?)			; __CSteamworks_hook
?InitSafe_Original@@3P6A_NXZA DD 01H DUP (?)		; InitSafe_Original
_BSS	ENDS
CONST	SEGMENT
$SG270423 DB	'InitSafe', 00H
	ORG $+3
$SG270425 DB	'GetHSteamUser_', 00H
	ORG $+1
$SG270427 DB	'GetHSteamPipe_', 00H
	ORG $+1
$SG270428 DB	'IsSteamRunning', 00H
	ORG $+1
$SG270430 DB	'SteamClient_', 00H
	ORG $+7
$SG270432 DB	'C', 00H, 'o', 00H, 'u', 00H, 'l', 00H, 'd', 00H, ' ', 00H
	DB	'n', 00H, 'o', 00H, 't', 00H, ' ', 00H, 'l', 00H, 'o', 00H, 'a'
	DB	00H, 'd', 00H, ' ', 00H, 'G', 00H, 'e', 00H, 't', 00H, 'H', 00H
	DB	'S', 00H, 't', 00H, 'e', 00H, 'a', 00H, 'm', 00H, 'U', 00H, 's'
	DB	00H, 'e', 00H, 'r', 00H, ' ', 00H, '(', 00H, '.', 00H, '.', 00H
	DB	'.', 00H, ')', 00H, 00H, 00H
	ORG $+2
$SG270434 DB	'C', 00H, 'o', 00H, 'u', 00H, 'l', 00H, 'd', 00H, ' ', 00H
	DB	'n', 00H, 'o', 00H, 't', 00H, ' ', 00H, 'l', 00H, 'o', 00H, 'a'
	DB	00H, 'd', 00H, ' ', 00H, 'G', 00H, 'e', 00H, 't', 00H, 'H', 00H
	DB	'S', 00H, 't', 00H, 'e', 00H, 'a', 00H, 'm', 00H, 'P', 00H, 'i'
	DB	00H, 'p', 00H, 'e', 00H, ' ', 00H, '(', 00H, '.', 00H, '.', 00H
	DB	'.', 00H, ')', 00H, 00H, 00H
	ORG $+2
$SG270436 DB	'C', 00H, 'o', 00H, 'u', 00H, 'l', 00H, 'd', 00H, ' ', 00H
	DB	'n', 00H, 'o', 00H, 't', 00H, ' ', 00H, 'l', 00H, 'o', 00H, 'a'
	DB	00H, 'd', 00H, ' ', 00H, 'S', 00H, 't', 00H, 'e', 00H, 'a', 00H
	DB	'm', 00H, 'C', 00H, 'l', 00H, 'i', 00H, 'e', 00H, 'n', 00H, 't'
	DB	00H, ' ', 00H, '(', 00H, '.', 00H, '.', 00H, '.', 00H, ')', 00H
	DB	00H, 00H
	ORG $+6
$SG270438 DB	'C', 00H, 'o', 00H, 'u', 00H, 'l', 00H, 'd', 00H, ' ', 00H
	DB	'n', 00H, 'o', 00H, 't', 00H, ' ', 00H, 'l', 00H, 'o', 00H, 'a'
	DB	00H, 'd', 00H, ' ', 00H, 'R', 00H, 'e', 00H, 'g', 00H, 'i', 00H
	DB	's', 00H, 't', 00H, 'e', 00H, 'r', 00H, 'C', 00H, 'a', 00H, 'l'
	DB	00H, 'l', 00H, 'b', 00H, 'a', 00H, 'c', 00H, 'k', 00H, ' ', 00H
	DB	'(', 00H, '.', 00H, '.', 00H, '.', 00H, ')', 00H, 00H, 00H
	ORG $+4
$SG270440 DB	'C', 00H, 'o', 00H, 'u', 00H, 'l', 00H, 'd', 00H, ' ', 00H
	DB	'n', 00H, 'o', 00H, 't', 00H, ' ', 00H, 'l', 00H, 'o', 00H, 'a'
	DB	00H, 'd', 00H, ' ', 00H, 'U', 00H, 'n', 00H, 'r', 00H, 'e', 00H
	DB	'g', 00H, 'i', 00H, 's', 00H, 't', 00H, 'e', 00H, 'r', 00H, 'C'
	DB	00H, 'a', 00H, 'l', 00H, 'l', 00H, 'b', 00H, 'a', 00H, 'c', 00H
	DB	'k', 00H, ' ', 00H, '(', 00H, '.', 00H, '.', 00H, '.', 00H, ')'
	DB	00H, 00H, 00H
$SG270442 DB	'C', 00H, 'o', 00H, 'u', 00H, 'l', 00H, 'd', 00H, ' ', 00H
	DB	'n', 00H, 'o', 00H, 't', 00H, ' ', 00H, 'l', 00H, 'o', 00H, 'a'
	DB	00H, 'd', 00H, ' ', 00H, 'R', 00H, 'u', 00H, 'n', 00H, 'C', 00H
	DB	'a', 00H, 'l', 00H, 'l', 00H, 'b', 00H, 'a', 00H, 'c', 00H, 'k'
	DB	00H, 's', 00H, ' ', 00H, '(', 00H, '.', 00H, '.', 00H, '.', 00H
	DB	')', 00H, 00H, 00H
$SG270445 DB	'SteamUser018', 00H
	ORG $+3
$SG270447 DB	'SteamUser018', 00H
	ORG $+7
$SG270448 DB	' ', 00H, '>', 00H, '>', 00H, ' ', 00H, 'I', 00H, 'S', 00H
	DB	't', 00H, 'e', 00H, 'a', 00H, 'm', 00H, 'U', 00H, 's', 00H, 'e'
	DB	00H, 'r', 00H, ' ', 00H, 'N', 00H, 'O', 00H, 'T', 00H, ' ', 00H
	DB	'F', 00H, 'O', 00H, 'U', 00H, 'N', 00H, 'D', 00H, ' ', 00H, 'f'
	DB	00H, 'o', 00H, 'r', 00H, ' ', 00H, 'v', 00H, 'e', 00H, 'r', 00H
	DB	's', 00H, 'i', 00H, 'o', 00H, 'n', 00H, ' ', 00H, '%', 00H, 'h'
	DB	00H, 's', 00H, ' ', 00H, '<', 00H, '<', 00H, 00H, 00H
$SG270449 DB	'SteamFriends015', 00H
$SG270451 DB	'SteamFriends015', 00H
$SG270452 DB	' ', 00H, '>', 00H, '>', 00H, ' ', 00H, 'I', 00H, 'S', 00H
	DB	't', 00H, 'e', 00H, 'a', 00H, 'm', 00H, 'F', 00H, 'r', 00H, 'i'
	DB	00H, 'e', 00H, 'n', 00H, 'd', 00H, 's', 00H, ' ', 00H, 'N', 00H
	DB	'O', 00H, 'T', 00H, ' ', 00H, 'F', 00H, 'O', 00H, 'U', 00H, 'N'
	DB	00H, 'D', 00H, ' ', 00H, 'f', 00H, 'o', 00H, 'r', 00H, ' ', 00H
	DB	'v', 00H, 'e', 00H, 'r', 00H, 's', 00H, 'i', 00H, 'o', 00H, 'n'
	DB	00H, ' ', 00H, '%', 00H, 'h', 00H, 's', 00H, ' ', 00H, '<', 00H
	DB	'<', 00H, 00H, 00H
	ORG $+2
$SG270453 DB	'STEAMUSERSTATS_INTERFACE_VERSION011', 00H
$SG270455 DB	'STEAMUSERSTATS_INTERFACE_VERSION011', 00H
$SG270456 DB	' ', 00H, '>', 00H, '>', 00H, ' ', 00H, 'I', 00H, 'S', 00H
	DB	't', 00H, 'e', 00H, 'a', 00H, 'm', 00H, 'U', 00H, 's', 00H, 'e'
	DB	00H, 'r', 00H, 'S', 00H, 't', 00H, 'a', 00H, 't', 00H, 's', 00H
	DB	' ', 00H, 'N', 00H, 'O', 00H, 'T', 00H, ' ', 00H, 'F', 00H, 'O'
	DB	00H, 'U', 00H, 'N', 00H, 'D', 00H, ' ', 00H, 'f', 00H, 'o', 00H
	DB	'r', 00H, ' ', 00H, 'v', 00H, 'e', 00H, 'r', 00H, 's', 00H, 'i'
	DB	00H, 'o', 00H, 'n', 00H, ' ', 00H, '%', 00H, 'h', 00H, 's', 00H
	DB	' ', 00H, '<', 00H, '<', 00H, 00H, 00H
	ORG $+2
$SG270457 DB	'STEAMAPPS_INTERFACE_VERSION007', 00H
	ORG $+1
$SG270459 DB	'STEAMAPPS_INTERFACE_VERSION007', 00H
	ORG $+5
$SG270460 DB	' ', 00H, '>', 00H, '>', 00H, ' ', 00H, 'I', 00H, 'S', 00H
	DB	't', 00H, 'e', 00H, 'a', 00H, 'm', 00H, 'A', 00H, 'p', 00H, 'p'
	DB	00H, 's', 00H, ' ', 00H, 'N', 00H, 'O', 00H, 'T', 00H, ' ', 00H
	DB	'F', 00H, 'O', 00H, 'U', 00H, 'N', 00H, 'D', 00H, ' ', 00H, 'f'
	DB	00H, 'o', 00H, 'r', 00H, ' ', 00H, 'v', 00H, 'e', 00H, 'r', 00H
	DB	's', 00H, 'i', 00H, 'o', 00H, 'n', 00H, ' ', 00H, '%', 00H, 'h'
	DB	00H, 's', 00H, ' ', 00H, '<', 00H, '<', 00H, 00H, 00H
$SG270461 DB	'SteamUtils007', 00H
	ORG $+2
$SG270463 DB	'SteamUtils007', 00H
	ORG $+2
$SG270464 DB	' ', 00H, '>', 00H, '>', 00H, ' ', 00H, 'I', 00H, 'S', 00H
	DB	't', 00H, 'e', 00H, 'a', 00H, 'm', 00H, 'U', 00H, 't', 00H, 'i'
	DB	00H, 'l', 00H, 's', 00H, ' ', 00H, 'N', 00H, 'O', 00H, 'T', 00H
	DB	' ', 00H, 'F', 00H, 'O', 00H, 'U', 00H, 'N', 00H, 'D', 00H, ' '
	DB	00H, 'f', 00H, 'o', 00H, 'r', 00H, ' ', 00H, 'v', 00H, 'e', 00H
	DB	'r', 00H, 's', 00H, 'i', 00H, 'o', 00H, 'n', 00H, ' ', 00H, '%'
	DB	00H, 'h', 00H, 's', 00H, ' ', 00H, '<', 00H, '<', 00H, 00H, 00H
	ORG $+2
$SG270465 DB	'STEAMSCREENSHOTS_INTERFACE_VERSION002', 00H
	ORG $+2
$SG270467 DB	'STEAMSCREENSHOTS_INTERFACE_VERSION002', 00H
	ORG $+6
$SG270468 DB	' ', 00H, '>', 00H, '>', 00H, ' ', 00H, 'I', 00H, 'S', 00H
	DB	't', 00H, 'e', 00H, 'a', 00H, 'm', 00H, 'S', 00H, 'c', 00H, 'r'
	DB	00H, 'e', 00H, 'e', 00H, 'n', 00H, 's', 00H, 'h', 00H, 'o', 00H
	DB	't', 00H, 's', 00H, ' ', 00H, 'N', 00H, 'O', 00H, 'T', 00H, ' '
	DB	00H, 'F', 00H, 'O', 00H, 'U', 00H, 'N', 00H, 'D', 00H, ' ', 00H
	DB	'f', 00H, 'o', 00H, 'r', 00H, ' ', 00H, 'v', 00H, 'e', 00H, 'r'
	DB	00H, 's', 00H, 'i', 00H, 'o', 00H, 'n', 00H, ' ', 00H, '%', 00H
	DB	'h', 00H, 's', 00H, ' ', 00H, '<', 00H, '<', 00H, 00H, 00H
	ORG $+2
$SG270469 DB	'STEAMSCREENSHOTS_INTERFACE_VERSION001', 00H
	ORG $+2
$SG270470 DB	'STEAMSCREENSHOTS_INTERFACE_VERSION001', 00H
	ORG $+2
$SG270471 DB	' ', 00H, '>', 00H, '>', 00H, ' ', 00H, 'I', 00H, 'S', 00H
	DB	't', 00H, 'e', 00H, 'a', 00H, 'm', 00H, 'S', 00H, 'c', 00H, 'r'
	DB	00H, 'e', 00H, 'e', 00H, 'n', 00H, 's', 00H, 'h', 00H, 'o', 00H
	DB	't', 00H, 's', 00H, ' ', 00H, 'N', 00H, 'O', 00H, 'T', 00H, ' '
	DB	00H, 'F', 00H, 'O', 00H, 'U', 00H, 'N', 00H, 'D', 00H, ' ', 00H
	DB	'f', 00H, 'o', 00H, 'r', 00H, ' ', 00H, 'v', 00H, 'e', 00H, 'r'
	DB	00H, 's', 00H, 'i', 00H, 'o', 00H, 'n', 00H, ' ', 00H, '%', 00H
	DB	'h', 00H, 's', 00H, ' ', 00H, '<', 00H, '<', 00H, 00H, 00H
	ORG $+2
$SG270472 DB	'SteamController005', 00H
	ORG $+5
$SG270485 DB	'I', 00H, 'n', 00H, 'i', 00H, 't', 00H, 'i', 00H, 'a', 00H
	DB	'l', 00H, 'i', 00H, 'z', 00H, 'i', 00H, 'n', 00H, 'g', 00H, ' '
	DB	00H, 'C', 00H, 'S', 00H, 't', 00H, 'e', 00H, 'a', 00H, 'm', 00H
	DB	'W', 00H, 'o', 00H, 'r', 00H, 'k', 00H, 's', 00H, ' ', 00H, 'B'
	DB	00H, 'a', 00H, 'c', 00H, 'k', 00H, 'e', 00H, 'n', 00H, 'd', 00H
	DB	' ', 00H, ' ', 00H, '<', 00H, '<', 00H, ' ', 00H, '%', 00H, 's'
	DB	00H, ' ', 00H, '>', 00H, '>', 00H, 00H, 00H
	ORG $+2
$SG270486 DB	'-', 00H, '-', 00H, '-', 00H, '-', 00H, '-', 00H, '-', 00H
	DB	'-', 00H, '-', 00H, '-', 00H, '-', 00H, '-', 00H, '(', 00H, 'I'
	DB	00H, 'n', 00H, 'i', 00H, 't', 00H, 'S', 00H, 'a', 00H, 'f', 00H
	DB	'e', 00H, ')', 00H, '-', 00H, '-', 00H, '-', 00H, '-', 00H, '-'
	DB	00H, '-', 00H, '-', 00H, '-', 00H, '-', 00H, '-', 00H, '-', 00H
	DB	0aH, 00H, 00H, 00H
$SG270488 DB	'C', 00H, 'S', 00H, 't', 00H, 'e', 00H, 'a', 00H, 'm', 00H
	DB	'w', 00H, 'o', 00H, 'r', 00H, 'k', 00H, 's', 00H, '.', 00H, 'd'
	DB	00H, 'l', 00H, 'l', 00H, 00H, 00H
	ORG $+4
$SG270491 DB	'-', 00H, '-', 00H, '-', 00H, ' ', 00H, 'I', 00H, 'n', 00H
	DB	'i', 00H, 't', 00H, 'i', 00H, 'a', 00H, 'l', 00H, 'i', 00H, 'z'
	DB	00H, 'a', 00H, 't', 00H, 'i', 00H, 'o', 00H, 'n', 00H, ' ', 00H
	DB	'F', 00H, 'i', 00H, 'n', 00H, 'i', 00H, 's', 00H, 'h', 00H, 'e'
	DB	00H, 'd', 00H, ' ', 00H, '(', 00H, '%', 00H, 'd', 00H, ' ', 00H
	DB	't', 00H, 'r', 00H, 'i', 00H, 'e', 00H, 's', 00H, ' ', 00H, '['
	DB	00H, 'A', 00H, 'p', 00H, 'p', 00H, 'I', 00H, 'd', 00H, ':', 00H
	DB	' ', 00H, '%', 00H, 'l', 00H, 'u', 00H, ']', 00H, ')', 00H, ' '
	DB	00H, '-', 00H, '-', 00H, '-', 00H, 0aH, 00H, 0aH, 00H, 00H, 00H
	ORG $+4
$SG270529 DB	'C', 00H, 'S', 00H, 't', 00H, 'e', 00H, 'a', 00H, 'm', 00H
	DB	'w', 00H, 'o', 00H, 'r', 00H, 'k', 00H, 's', 00H, '.', 00H, 'd'
	DB	00H, 'l', 00H, 'l', 00H, ' ', 00H, 'w', 00H, 'a', 00H, 's', 00H
	DB	' ', 00H, 'l', 00H, 'o', 00H, 'a', 00H, 'd', 00H, 'e', 00H, 'd'
	DB	00H, ',', 00H, ' ', 00H, 'h', 00H, 'o', 00H, 'o', 00H, 'k', 00H
	DB	'i', 00H, 'n', 00H, 'g', 00H, '.', 00H, '.', 00H, '.', 00H, 00H
	DB	00H
	ORG $+2
$SG270530 DB	'C', 00H, 'S', 00H, 't', 00H, 'e', 00H, 'a', 00H, 'm', 00H
	DB	'w', 00H, 'o', 00H, 'r', 00H, 'k', 00H, 's', 00H, '.', 00H, 'd'
	DB	00H, 'l', 00H, 'l', 00H, 00H, 00H
$SG270532 DB	's', 00H, 't', 00H, 'e', 00H, 'a', 00H, 'm', 00H, 'w', 00H
	DB	'o', 00H, 'r', 00H, 'k', 00H, 's', 00H, '.', 00H, 'n', 00H, 'e'
	DB	00H, 't', 00H, '.', 00H, 'd', 00H, 'l', 00H, 'l', 00H, 00H, 00H
	ORG $+2
$SG270534 DB	'C', 00H, 'S', 00H, 't', 00H, 'e', 00H, 'a', 00H, 'm', 00H
	DB	'w', 00H, 'o', 00H, 'r', 00H, 'k', 00H, 's', 00H, '.', 00H, 'd'
	DB	00H, 'l', 00H, 'l', 00H, 00H, 00H
$SG270536 DB	's', 00H, 't', 00H, 'e', 00H, 'a', 00H, 'm', 00H, '_', 00H
	DB	'a', 00H, 'p', 00H, 'i', 00H, '.', 00H, 'd', 00H, 'l', 00H, 'l'
	DB	00H, 00H, 00H
	ORG $+4
$SG270539 DB	' ', 00H, '>', 00H, '>', 00H, '>', 00H, ' ', 00H, 'L', 00H
	DB	'o', 00H, 'c', 00H, 'a', 00H, 't', 00H, 'e', 00H, 'd', 00H, ' '
	DB	00H, 'a', 00H, ' ', 00H, 'r', 00H, 'e', 00H, 'a', 00H, 'l', 00H
	DB	' ', 00H, 's', 00H, 't', 00H, 'e', 00H, 'a', 00H, 'm', 00H, '_'
	DB	00H, 'a', 00H, 'p', 00H, 'i', 00H, ' ', 00H, 'D', 00H, 'L', 00H
	DB	'L', 00H, ':', 00H, ' ', 00H, '''', 00H, '%', 00H, 's', 00H, ''''
	DB	00H, '.', 00H, '.', 00H, '.', 00H, 00H, 00H
	ORG $+2
$SG270540 DB	'SteamAPI_InitSafe', 00H
	ORG $+2
$SG270541 DB	'SteamAPI_Init', 00H
	ORG $+2
$SG270542 DB	'SteamAPI_RegisterCallback', 00H
	ORG $+2
$SG270543 DB	'SteamAPI_UnregisterCallback', 00H
$SG270544 DB	'InitSafe', 00H
	ORG $+3
$SG270545 DB	'C', 00H, 'S', 00H, 't', 00H, 'e', 00H, 'a', 00H, 'm', 00H
	DB	'w', 00H, 'o', 00H, 'r', 00H, 'k', 00H, 's', 00H, '.', 00H, 'd'
	DB	00H, 'l', 00H, 'l', 00H, 00H, 00H
$SG270546 DB	'Init', 00H
	ORG $+3
$SG270547 DB	'C', 00H, 'S', 00H, 't', 00H, 'e', 00H, 'a', 00H, 'm', 00H
	DB	'w', 00H, 'o', 00H, 'r', 00H, 'k', 00H, 's', 00H, '.', 00H, 'd'
	DB	00H, 'l', 00H, 'l', 00H, 00H, 00H
$SG270548 DB	'Shutdown', 00H
	ORG $+3
$SG270549 DB	'C', 00H, 'S', 00H, 't', 00H, 'e', 00H, 'a', 00H, 'm', 00H
	DB	'w', 00H, 'o', 00H, 'r', 00H, 'k', 00H, 's', 00H, '.', 00H, 'd'
	DB	00H, 'l', 00H, 'l', 00H, 00H, 00H
$SG270550 DB	'RegisterCallback', 00H
	ORG $+3
$SG270551 DB	'C', 00H, 'S', 00H, 't', 00H, 'e', 00H, 'a', 00H, 'm', 00H
	DB	'w', 00H, 'o', 00H, 'r', 00H, 'k', 00H, 's', 00H, '.', 00H, 'd'
	DB	00H, 'l', 00H, 'l', 00H, 00H, 00H
$SG270552 DB	'UnregisterCallback', 00H
	ORG $+1
$SG270553 DB	'C', 00H, 'S', 00H, 't', 00H, 'e', 00H, 'a', 00H, 'm', 00H
	DB	'w', 00H, 'o', 00H, 'r', 00H, 'k', 00H, 's', 00H, '.', 00H, 'd'
	DB	00H, 'l', 00H, 'l', 00H, 00H, 00H
$SG270554 DB	'RunCallbacks', 00H
	ORG $+3
$SG270555 DB	'C', 00H, 'S', 00H, 't', 00H, 'e', 00H, 'a', 00H, 'm', 00H
	DB	'w', 00H, 'o', 00H, 'r', 00H, 'k', 00H, 's', 00H, '.', 00H, 'd'
	DB	00H, 'l', 00H, 'l', 00H, 00H, 00H
CONST	ENDS
PUBLIC	??_H@YGXPAXIIP6EPAX0@Z@Z			; `vector constructor iterator'
PUBLIC	_ReadAcquire
PUBLIC	?_InterlockedCompareExchange@@YAKPCKKK@Z	; _InterlockedCompareExchange
PUBLIC	?assign@?$char_traits@_W@std@@SAXAA_WAB_W@Z	; std::char_traits<wchar_t>::assign
PUBLIC	?_Orphan_all@_Container_base0@std@@QAEXXZ	; std::_Container_base0::_Orphan_all
PUBLIC	?_Deallocate@std@@YAXPAXII@Z			; std::_Deallocate
PUBLIC	?deallocate@?$allocator@_W@std@@QAEXPA_WI@Z	; std::allocator<wchar_t>::deallocate
PUBLIC	?deallocate@?$_Wrap_alloc@V?$allocator@_W@std@@@std@@QAEXPA_WI@Z ; std::_Wrap_alloc<std::allocator<wchar_t> >::deallocate
PUBLIC	?_Myptr@?$_String_val@U?$_Simple_types@_W@std@@@std@@QBEPB_WXZ ; std::_String_val<std::_Simple_types<wchar_t> >::_Myptr
PUBLIC	?_Large_string_engaged@?$_String_val@U?$_Simple_types@_W@std@@@std@@QBE_NXZ ; std::_String_val<std::_Simple_types<wchar_t> >::_Large_string_engaged
PUBLIC	??1_Bxty@?$_String_val@U?$_Simple_types@_W@std@@@std@@QAE@XZ ; std::_String_val<std::_Simple_types<wchar_t> >::_Bxty::~_Bxty
PUBLIC	??1?$_String_val@U?$_Simple_types@_W@std@@@std@@QAE@XZ ; std::_String_val<std::_Simple_types<wchar_t> >::~_String_val<std::_Simple_types<wchar_t> >
PUBLIC	?_Myptr@?$_String_alloc@U?$_String_base_types@_WV?$allocator@_W@std@@@std@@@std@@QBEPB_WXZ ; std::_String_alloc<std::_String_base_types<wchar_t,std::allocator<wchar_t> > >::_Myptr
PUBLIC	?_Orphan_all@?$_String_alloc@U?$_String_base_types@_WV?$allocator@_W@std@@@std@@@std@@QAEXXZ ; std::_String_alloc<std::_String_base_types<wchar_t,std::allocator<wchar_t> > >::_Orphan_all
PUBLIC	?_Getal@?$_String_alloc@U?$_String_base_types@_WV?$allocator@_W@std@@@std@@@std@@QAEAAU?$_Wrap_alloc@V?$allocator@_W@std@@@2@XZ ; std::_String_alloc<std::_String_base_types<wchar_t,std::allocator<wchar_t> > >::_Getal
PUBLIC	?_Get_data@?$_String_alloc@U?$_String_base_types@_WV?$allocator@_W@std@@@std@@@std@@QAEAAV?$_String_val@U?$_Simple_types@_W@std@@@2@XZ ; std::_String_alloc<std::_String_base_types<wchar_t,std::allocator<wchar_t> > >::_Get_data
PUBLIC	?_Get_data@?$_String_alloc@U?$_String_base_types@_WV?$allocator@_W@std@@@std@@@std@@QBEABV?$_String_val@U?$_Simple_types@_W@std@@@2@XZ ; std::_String_alloc<std::_String_base_types<wchar_t,std::allocator<wchar_t> > >::_Get_data
PUBLIC	?_Get_first@?$_Compressed_pair@U?$_Wrap_alloc@V?$allocator@_W@std@@@std@@V?$_String_val@U?$_Simple_types@_W@std@@@2@$00@std@@QAEAAU?$_Wrap_alloc@V?$allocator@_W@std@@@2@XZ ; std::_Compressed_pair<std::_Wrap_alloc<std::allocator<wchar_t> >,std::_String_val<std::_Simple_types<wchar_t> >,1>::_Get_first
PUBLIC	?_Get_second@?$_Compressed_pair@U?$_Wrap_alloc@V?$allocator@_W@std@@@std@@V?$_String_val@U?$_Simple_types@_W@std@@@2@$00@std@@QAEAAV?$_String_val@U?$_Simple_types@_W@std@@@2@XZ ; std::_Compressed_pair<std::_Wrap_alloc<std::allocator<wchar_t> >,std::_String_val<std::_Simple_types<wchar_t> >,1>::_Get_second
PUBLIC	?_Get_second@?$_Compressed_pair@U?$_Wrap_alloc@V?$allocator@_W@std@@@std@@V?$_String_val@U?$_Simple_types@_W@std@@@2@$00@std@@QBEABV?$_String_val@U?$_Simple_types@_W@std@@@2@XZ ; std::_Compressed_pair<std::_Wrap_alloc<std::allocator<wchar_t> >,std::_String_val<std::_Simple_types<wchar_t> >,1>::_Get_second
PUBLIC	??1?$_Compressed_pair@U?$_Wrap_alloc@V?$allocator@_W@std@@@std@@V?$_String_val@U?$_Simple_types@_W@std@@@2@$00@std@@QAE@XZ ; std::_Compressed_pair<std::_Wrap_alloc<std::allocator<wchar_t> >,std::_String_val<std::_Simple_types<wchar_t> >,1>::~_Compressed_pair<std::_Wrap_alloc<std::allocator<wchar_t> >,std::_String_val<std::_Simple_types<wchar_t> >,1>
PUBLIC	??1?$_String_alloc@U?$_String_base_types@_WV?$allocator@_W@std@@@std@@@std@@QAE@XZ ; std::_String_alloc<std::_String_base_types<wchar_t,std::allocator<wchar_t> > >::~_String_alloc<std::_String_base_types<wchar_t,std::allocator<wchar_t> > >
PUBLIC	??1?$basic_string@_WU?$char_traits@_W@std@@V?$allocator@_W@2@@std@@QAE@XZ ; std::basic_string<wchar_t,std::char_traits<wchar_t>,std::allocator<wchar_t> >::~basic_string<wchar_t,std::char_traits<wchar_t>,std::allocator<wchar_t> >
PUBLIC	?c_str@?$basic_string@_WU?$char_traits@_W@std@@V?$allocator@_W@2@@std@@QBEPB_WXZ ; std::basic_string<wchar_t,std::char_traits<wchar_t>,std::allocator<wchar_t> >::c_str
PUBLIC	?_Tidy_deallocate@?$basic_string@_WU?$char_traits@_W@std@@V?$allocator@_W@2@@std@@QAEXXZ ; std::basic_string<wchar_t,std::char_traits<wchar_t>,std::allocator<wchar_t> >::_Tidy_deallocate
PUBLIC	?SK_HookCSteamworks@@YAXXZ			; SK_HookCSteamworks
PUBLIC	?InitCSteamworks@SK_SteamAPIContext@@QAE_NPAUHINSTANCE__@@@Z ; SK_SteamAPIContext::InitCSteamworks
PUBLIC	?UserStats@SK_SteamAPIContext@@QAEPAVISteamUserStats@@XZ ; SK_SteamAPIContext::UserStats
PUBLIC	?InitSafe_Detour@@YA_NXZ			; InitSafe_Detour
PUBLIC	?CSteamworks_Delay_Init@@YGKPAX@Z		; CSteamworks_Delay_Init
PUBLIC	??$addressof@PA_W@std@@YAPAPA_WAAPA_W@Z		; std::addressof<wchar_t *>
PUBLIC	??$destroy@PA_W@?$_Wrap_alloc@V?$allocator@_W@std@@@std@@QAEXPAPA_W@Z ; std::_Wrap_alloc<std::allocator<wchar_t> >::destroy<wchar_t *>
PUBLIC	??$_Unfancy@_W@std@@YAPA_WPA_W@Z		; std::_Unfancy<wchar_t>
PUBLIC	??$destroy@PA_W@?$allocator_traits@V?$allocator@_W@std@@@std@@SAXAAV?$allocator@_W@1@PAPA_W@Z ; std::allocator_traits<std::allocator<wchar_t> >::destroy<wchar_t *>
PUBLIC	??$destroy@PA_W@?$allocator@_W@std@@QAEXPAPA_W@Z ; std::allocator<wchar_t>::destroy<wchar_t *>
EXTRN	??3@YAXPAX@Z:PROC				; operator delete
EXTRN	__imp___invalid_parameter_noinfo_noreturn:PROC
EXTRN	__imp__CloseHandle@4:PROC
EXTRN	__imp__EnterCriticalSection@4:PROC
EXTRN	__imp__LeaveCriticalSection@4:PROC
EXTRN	__imp__SleepEx@8:PROC
EXTRN	__imp__GetCurrentThread@0:PROC
EXTRN	__imp__GetModuleFileNameW@12:PROC
EXTRN	__imp__GetModuleHandleW@4:PROC
EXTRN	__imp__GetProcAddress@8:PROC
EXTRN	__imp__lstrcatW@8:PROC
EXTRN	__imp__StrStrIW@8:PROC
EXTRN	?AppID@SteamAPI@SK@@YAIXZ:PROC			; SK::SteamAPI::AppID
EXTRN	?Log@iSK_Logger@@UAAXQB_WZZ:PROC		; iSK_Logger::Log
EXTRN	?SK_HookSteamAPI@@YAXXZ:PROC			; SK_HookSteamAPI
EXTRN	?SK_CreateDLLHook3@@YG?AW4MH_STATUS@@PB_WPBDPAXPAPAX3@Z:PROC ; SK_CreateDLLHook3
EXTRN	?SK_ApplyQueuedHooks@@YG?AW4MH_STATUS@@XZ:PROC	; SK_ApplyQueuedHooks
EXTRN	_SteamAPI_InitSafe_Detour:PROC
EXTRN	_SteamAPI_Init_Detour:PROC
EXTRN	_SteamAPI_RunCallbacks_Detour:PROC
EXTRN	_SteamAPI_RegisterCallback_Detour:PROC
EXTRN	_SteamAPI_UnregisterCallback_Detour:PROC
EXTRN	_SteamAPI_Shutdown_Detour:PROC
EXTRN	?SK_Steam_StartPump@@YAX_N@Z:PROC		; SK_Steam_StartPump
EXTRN	?SK_IsInjected@@YG_N_N@Z:PROC			; SK_IsInjected
EXTRN	?SK_GetCallerName@@YA?AV?$basic_string@_WU?$char_traits@_W@std@@V?$allocator@_W@2@@std@@PAX@Z:PROC ; SK_GetCallerName
EXTRN	_memset:PROC
EXTRN	?__SK_Steam_init@@3JC:DWORD			; __SK_Steam_init
EXTRN	?__SteamAPI_hook@@3JC:DWORD			; __SteamAPI_hook
EXTRN	?steam_log@@3UiSK_Logger@@A:BYTE		; steam_log
EXTRN	_SteamAPI_InitSafe_Original:DWORD
EXTRN	_SteamAPI_Init_Original:DWORD
EXTRN	_SteamAPI_RunCallbacks:DWORD
EXTRN	_SteamAPI_RunCallbacks_Original:DWORD
EXTRN	_SteamAPI_RegisterCallback:DWORD
EXTRN	_SteamAPI_RegisterCallback_Original:DWORD
EXTRN	_SteamAPI_UnregisterCallback:DWORD
EXTRN	_SteamAPI_UnregisterCallback_Original:DWORD
EXTRN	_SteamAPI_Init:DWORD
EXTRN	_SteamAPI_InitSafe:DWORD
EXTRN	_SteamAPI_IsSteamRunning:DWORD
EXTRN	_SteamAPI_GetHSteamUser:DWORD
EXTRN	_SteamAPI_GetHSteamPipe:DWORD
EXTRN	_SteamClient:DWORD
EXTRN	_SteamAPI_Shutdown_Original:DWORD
EXTRN	?steam_ctx@@3VSK_SteamAPIContext@@A:BYTE	; steam_ctx
EXTRN	?init_cs@@3U_RTL_CRITICAL_SECTION@@A:BYTE	; init_cs
EXTRN	?config@@3Usk_config_t@@A:BYTE			; config
EXTRN	?LoadLibraryW_Original@@3P6GPAUHINSTANCE__@@PB_W@ZA:DWORD ; LoadLibraryW_Original
;	COMDAT ?init_tries@?1??InitSafe_Detour@@YA_NXZ@4HA
_DATA	SEGMENT
?init_tries@?1??InitSafe_Detour@@YA_NXZ@4HA DD 0ffffffffH ; `InitSafe_Detour'::`2'::init_tries
_DATA	ENDS
; Function compile flags: /Ogtp
; File c:\program files (x86)\microsoft visual studio\2017\community\vc\tools\msvc\14.10.25017\include\xmemory0
;	COMDAT ??$destroy@PA_W@?$allocator@_W@std@@QAEXPAPA_W@Z
_TEXT	SEGMENT
__Ptr$ = 8						; size = 4
??$destroy@PA_W@?$allocator@_W@std@@QAEXPAPA_W@Z PROC	; std::allocator<wchar_t>::destroy<wchar_t *>, COMDAT
; _this$ = ecx

; 846  : 		_Ptr->~_Uty();
; 847  : 		}

	ret	4
??$destroy@PA_W@?$allocator@_W@std@@QAEXPAPA_W@Z ENDP	; std::allocator<wchar_t>::destroy<wchar_t *>
_TEXT	ENDS
; Function compile flags: /Ogtp
; File c:\program files (x86)\microsoft visual studio\2017\community\vc\tools\msvc\14.10.25017\include\xmemory0
;	COMDAT ??$destroy@PA_W@?$allocator_traits@V?$allocator@_W@std@@@std@@SAXAAV?$allocator@_W@1@PAPA_W@Z
_TEXT	SEGMENT
__Al$ = 8						; size = 4
__Ptr$ = 12						; size = 4
??$destroy@PA_W@?$allocator_traits@V?$allocator@_W@std@@@std@@SAXAAV?$allocator@_W@1@PAPA_W@Z PROC ; std::allocator_traits<std::allocator<wchar_t> >::destroy<wchar_t *>, COMDAT

; 965  : 		_Al.destroy(_Ptr);
; 966  : 		}

	ret	0
??$destroy@PA_W@?$allocator_traits@V?$allocator@_W@std@@@std@@SAXAAV?$allocator@_W@1@PAPA_W@Z ENDP ; std::allocator_traits<std::allocator<wchar_t> >::destroy<wchar_t *>
_TEXT	ENDS
; Function compile flags: /Ogtp
; File c:\program files (x86)\microsoft visual studio\2017\community\vc\tools\msvc\14.10.25017\include\xstddef
;	COMDAT ??$_Unfancy@_W@std@@YAPA_WPA_W@Z
_TEXT	SEGMENT
__Ptr$ = 8						; size = 4
??$_Unfancy@_W@std@@YAPA_WPA_W@Z PROC			; std::_Unfancy<wchar_t>, COMDAT

; 642  : 	{	// do nothing for plain pointers

	npad	2
	push	ebp
	mov	ebp, esp

; 643  : 	return (_Ptr);

	mov	eax, DWORD PTR __Ptr$[ebp]

; 644  : 	}

	pop	ebp
	ret	0
??$_Unfancy@_W@std@@YAPA_WPA_W@Z ENDP			; std::_Unfancy<wchar_t>
_TEXT	ENDS
; Function compile flags: /Ogtp
; File c:\program files (x86)\microsoft visual studio\2017\community\vc\tools\msvc\14.10.25017\include\xmemory0
;	COMDAT ??$destroy@PA_W@?$_Wrap_alloc@V?$allocator@_W@std@@@std@@QAEXPAPA_W@Z
_TEXT	SEGMENT
__Ptr$ = 8						; size = 4
??$destroy@PA_W@?$_Wrap_alloc@V?$allocator@_W@std@@@std@@QAEXPAPA_W@Z PROC ; std::_Wrap_alloc<std::allocator<wchar_t> >::destroy<wchar_t *>, COMDAT
; _this$ = ecx

; 1103 : 		_Mytraits::destroy(*this, _Ptr);
; 1104 : 		}

	ret	4
??$destroy@PA_W@?$_Wrap_alloc@V?$allocator@_W@std@@@std@@QAEXPAPA_W@Z ENDP ; std::_Wrap_alloc<std::allocator<wchar_t> >::destroy<wchar_t *>
_TEXT	ENDS
; Function compile flags: /Ogtp
; File c:\program files (x86)\microsoft visual studio\2017\community\vc\tools\msvc\14.10.25017\include\xstddef
;	COMDAT ??$addressof@PA_W@std@@YAPAPA_WAAPA_W@Z
_TEXT	SEGMENT
__Val$ = 8						; size = 4
??$addressof@PA_W@std@@YAPAPA_WAAPA_W@Z PROC		; std::addressof<wchar_t *>, COMDAT

; 629  : 	{	// return address of _Val

	npad	2
	push	ebp
	mov	ebp, esp

; 630  : 	return (__builtin_addressof(_Val));

	mov	eax, DWORD PTR __Val$[ebp]

; 631  : 	}

	pop	ebp
	ret	0
??$addressof@PA_W@std@@YAPAPA_WAAPA_W@Z ENDP		; std::addressof<wchar_t *>
_TEXT	ENDS
; Function compile flags: /Ogtp
; File c:\users\andon\source\repos\specialk\src\csteamworks.cpp
; File c:\program files (x86)\windows kits\8.1\include\um\winnt.h
; File c:\users\andon\source\repos\specialk\src\csteamworks.cpp
; File c:\program files (x86)\windows kits\8.1\include\um\winnt.h
; File c:\users\andon\source\repos\specialk\src\csteamworks.cpp
; File c:\program files (x86)\windows kits\8.1\include\um\winnt.h
; File c:\users\andon\source\repos\specialk\src\csteamworks.cpp
_TEXT	SEGMENT
_user$ = 8						; size = 4
?CSteamworks_Delay_Init@@YGKPAX@Z PROC			; CSteamworks_Delay_Init

; 310  :   UNREFERENCED_PARAMETER (user);
; 311  : 
; 312  :   if (! SK_IsInjected ())

	push	0
	call	?SK_IsInjected@@YG_N_N@Z		; SK_IsInjected
	test	al, al
	jne	SHORT $LN4@CSteamwork

; 313  :   {
; 314  :     CloseHandle (GetCurrentThread ());

	call	DWORD PTR __imp__GetCurrentThread@0
	push	eax
	call	DWORD PTR __imp__CloseHandle@4

; 335  : 
; 336  :   return 0;

	xor	eax, eax

; 337  : }

	ret	4
$LN4@CSteamwork:
; File c:\program files (x86)\windows kits\8.1\include\um\winnt.h

; 8063 :     Value = *Source;

	mov	eax, DWORD PTR ?__SK_Steam_init@@3JC	; __SK_Steam_init
	push	esi
; File c:\users\andon\source\repos\specialk\src\csteamworks.cpp

; 318  :   int tries = 0;

	xor	esi, esi

; 319  : 
; 320  :   while ( (! ReadAcquire (&__SK_Steam_init)) &&

	test	eax, eax
	jne	SHORT $LN17@CSteamwork
	push	edi
	mov	edi, DWORD PTR __imp__SleepEx@8
$LL2@CSteamwork:
	cmp	esi, 120				; 00000078H
	jge	SHORT $LN18@CSteamwork

; 321  :             tries < 120 )
; 322  :   {
; 323  :     SleepEx (config.steam.init_delay, FALSE);

	push	0
	push	DWORD PTR ?config@@3Usk_config_t@@A+376
	call	edi
; File c:\program files (x86)\windows kits\8.1\include\um\winnt.h

; 8063 :     Value = *Source;

	mov	eax, DWORD PTR ?__SK_Steam_init@@3JC	; __SK_Steam_init
; File c:\users\andon\source\repos\specialk\src\csteamworks.cpp

; 325  :     if (ReadAcquire (&__SK_Steam_init))

	test	eax, eax
	jne	SHORT $LN18@CSteamwork

; 326  :       break;
; 327  : 
; 328  :     if (InitSafe_Detour != nullptr)
; 329  :       InitSafe_Detour ();

	call	?InitSafe_Detour@@YA_NXZ		; InitSafe_Detour
; File c:\program files (x86)\windows kits\8.1\include\um\winnt.h

; 8063 :     Value = *Source;

	mov	eax, DWORD PTR ?__SK_Steam_init@@3JC	; __SK_Steam_init
; File c:\users\andon\source\repos\specialk\src\csteamworks.cpp

; 331  :     ++tries;

	inc	esi
	test	eax, eax
	je	SHORT $LL2@CSteamwork
$LN18@CSteamwork:
	pop	edi
$LN17@CSteamwork:

; 332  :   }
; 333  : 
; 334  :   CloseHandle (GetCurrentThread ());

	call	DWORD PTR __imp__GetCurrentThread@0
	push	eax
	call	DWORD PTR __imp__CloseHandle@4
	pop	esi

; 335  : 
; 336  :   return 0;

	xor	eax, eax

; 337  : }

	ret	4
?CSteamworks_Delay_Init@@YGKPAX@Z ENDP			; CSteamworks_Delay_Init
_TEXT	ENDS
; Function compile flags: /Ogtp
; File c:\users\andon\source\repos\specialk\src\csteamworks.cpp
; File c:\program files (x86)\windows kits\8.1\include\um\winnt.h
; File c:\users\andon\source\repos\specialk\src\csteamworks.cpp
; File c:\program files (x86)\microsoft visual studio\2017\community\vc\tools\msvc\14.10.25017\include\xstring
; File c:\program files (x86)\microsoft visual studio\2017\community\vc\tools\msvc\14.10.25017\include\xstddef
; File c:\users\andon\source\repos\specialk\src\csteamworks.cpp
; File c:\program files (x86)\microsoft visual studio\2017\community\vc\tools\msvc\14.10.25017\include\xstring
; File c:\users\andon\source\repos\specialk\src\csteamworks.cpp
; File c:\program files (x86)\microsoft visual studio\2017\community\vc\tools\msvc\14.10.25017\include\xstring
; File c:\program files (x86)\microsoft visual studio\2017\community\vc\tools\msvc\14.10.25017\include\xmemory0
; File c:\program files (x86)\microsoft visual studio\2017\community\vc\tools\msvc\14.10.25017\include\xstring
; File c:\program files (x86)\microsoft visual studio\2017\community\vc\tools\msvc\14.10.25017\include\xmemory0
; File c:\users\andon\source\repos\specialk\src\csteamworks.cpp
_TEXT	SEGMENT
$T1 = -24						; size = 24
__$ReturnAddr$ = 4					; size = 4
?InitSafe_Detour@@YA_NXZ PROC				; InitSafe_Detour

; 260  : {

	npad	2
	push	ebp
	mov	ebp, esp
	sub	esp, 24					; 00000018H

; 261  :   EnterCriticalSection (&init_cs);

	push	OFFSET ?init_cs@@3U_RTL_CRITICAL_SECTION@@A ; init_cs
	call	DWORD PTR __imp__EnterCriticalSection@4
; File c:\program files (x86)\windows kits\8.1\include\um\winnt.h

; 8063 :     Value = *Source;

	mov	eax, DWORD PTR ?__SK_Steam_init@@3JC	; __SK_Steam_init
; File c:\users\andon\source\repos\specialk\src\csteamworks.cpp

; 264  :   if (ReadAcquire (&__SK_Steam_init))

	test	eax, eax
	jne	$LN62@InitSafe_D

; 265  :   {
; 266  :     LeaveCriticalSection (&init_cs);
; 267  :     return true;
; 268  :   }
; 269  : 
; 270  :   static int init_tries = -1;
; 271  : 
; 272  :   if (++init_tries == 0)

	add	DWORD PTR ?init_tries@?1??InitSafe_Detour@@YA_NXZ@4HA, 1
	jne	SHORT $LN3@InitSafe_D

; 274  :     steam_log.Log ( L"Initializing CSteamWorks Backend  << %s >>",

	mov	eax, DWORD PTR __$ReturnAddr$[ebp]
	push	eax
	lea	eax, DWORD PTR $T1[ebp]
	push	eax
	call	?SK_GetCallerName@@YA?AV?$basic_string@_WU?$char_traits@_W@std@@V?$allocator@_W@2@@std@@PAX@Z ; SK_GetCallerName
	add	esp, 8
; File c:\program files (x86)\microsoft visual studio\2017\community\vc\tools\msvc\14.10.25017\include\xstring

; 1628 : 		return (this->_BUF_SIZE <= _Myres);

	cmp	DWORD PTR [eax+20], 8

; 1621 : 		return (_Large_string_engaged()

	jb	SHORT $LN25@InitSafe_D
; File c:\program files (x86)\microsoft visual studio\2017\community\vc\tools\msvc\14.10.25017\include\xstddef

; 643  : 	return (_Ptr);

	mov	eax, DWORD PTR [eax]
$LN25@InitSafe_D:
; File c:\users\andon\source\repos\specialk\src\csteamworks.cpp

; 274  :     steam_log.Log ( L"Initializing CSteamWorks Backend  << %s >>",

	push	eax
	push	OFFSET $SG270485
	push	OFFSET ?steam_log@@3UiSK_Logger@@A	; steam_log
	call	?Log@iSK_Logger@@UAAXQB_WZZ		; iSK_Logger::Log
; File c:\program files (x86)\microsoft visual studio\2017\community\vc\tools\msvc\14.10.25017\include\xstring

; 1628 : 		return (this->_BUF_SIZE <= _Myres);

	mov	eax, DWORD PTR $T1[ebp+20]
; File c:\users\andon\source\repos\specialk\src\csteamworks.cpp

; 274  :     steam_log.Log ( L"Initializing CSteamWorks Backend  << %s >>",

	add	esp, 12					; 0000000cH
; File c:\program files (x86)\microsoft visual studio\2017\community\vc\tools\msvc\14.10.25017\include\xstring

; 1628 : 		return (this->_BUF_SIZE <= _Myres);

	cmp	eax, 8

; 3608 : 		if (_My_data._Large_string_engaged())

	jb	SHORT $LN34@InitSafe_D
; File c:\program files (x86)\microsoft visual studio\2017\community\vc\tools\msvc\14.10.25017\include\xmemory0

; 823  : 		_Deallocate(_Ptr, _Count, sizeof (_Ty));

	push	2
; File c:\program files (x86)\microsoft visual studio\2017\community\vc\tools\msvc\14.10.25017\include\xstring

; 3613 : 			_Al.deallocate(_Ptr, _My_data._Myres + 1);

	inc	eax
; File c:\program files (x86)\microsoft visual studio\2017\community\vc\tools\msvc\14.10.25017\include\xmemory0

; 823  : 		_Deallocate(_Ptr, _Count, sizeof (_Ty));

	push	eax
	push	DWORD PTR $T1[ebp]
	call	?_Deallocate@std@@YAXPAXII@Z		; std::_Deallocate
	add	esp, 12					; 0000000cH
$LN34@InitSafe_D:
; File c:\users\andon\source\repos\specialk\src\csteamworks.cpp

; 276  :     steam_log.Log (L"-----------(InitSafe)-----------\n");

	push	OFFSET $SG270486
	push	OFFSET ?steam_log@@3UiSK_Logger@@A	; steam_log
	call	?Log@iSK_Logger@@UAAXQB_WZZ		; iSK_Logger::Log
	add	esp, 8
$LN3@InitSafe_D:

; 277  :   }
; 278  : 
; 279  :   if (InitSafe_Original ())

	call	DWORD PTR ?InitSafe_Original@@3P6A_NXZA	; InitSafe_Original
	test	al, al
	je	SHORT $LN5@InitSafe_D

; 280  :   {
; 281  :     InterlockedExchange (&__SK_Steam_init, TRUE);

	mov	eax, 1
	mov	ecx, OFFSET ?__SK_Steam_init@@3JC	; __SK_Steam_init
	xchg	DWORD PTR [ecx], eax

; 282  : 
; 283  :     HMODULE hSteamAPI =
; 284  :       LoadLibraryW_Original (L"CSteamworks.dll");

	push	OFFSET $SG270488
	call	DWORD PTR ?LoadLibraryW_Original@@3P6GPAUHINSTANCE__@@PB_W@ZA ; LoadLibraryW_Original

; 285  : 
; 286  :     if (hSteamAPI)

	test	eax, eax
	je	SHORT $LN5@InitSafe_D

; 287  :     {
; 288  :       if (! steam_ctx.UserStats ())

	cmp	DWORD PTR ?steam_ctx@@3VSK_SteamAPIContext@@A+104, 0
	jne	SHORT $LN6@InitSafe_D

; 289  :         steam_ctx.InitCSteamworks (hSteamAPI);

	push	eax
	mov	ecx, OFFSET ?steam_ctx@@3VSK_SteamAPIContext@@A ; steam_ctx
	call	?InitCSteamworks@SK_SteamAPIContext@@QAE_NPAUHINSTANCE__@@@Z ; SK_SteamAPIContext::InitCSteamworks
$LN6@InitSafe_D:

; 290  : 
; 291  :       steam_log.Log ( L"--- Initialization Finished (%d tries [AppId: %lu]) ---\n\n",

	call	?AppID@SteamAPI@SK@@YAIXZ		; SK::SteamAPI::AppID
	push	eax
	mov	eax, DWORD PTR ?init_tries@?1??InitSafe_Detour@@YA_NXZ@4HA
	inc	eax
	push	eax
	push	OFFSET $SG270491
	push	OFFSET ?steam_log@@3UiSK_Logger@@A	; steam_log
	call	?Log@iSK_Logger@@UAAXQB_WZZ		; iSK_Logger::Log

; 292  :                         init_tries + 1,
; 293  :                           SK::SteamAPI::AppID () );
; 294  : 
; 295  :       SK_Steam_StartPump ();

	push	0
	call	?SK_Steam_StartPump@@YAX_N@Z		; SK_Steam_StartPump
	add	esp, 20					; 00000014H
$LN62@InitSafe_D:

; 296  : 
; 297  :       LeaveCriticalSection (&init_cs);

	push	OFFSET ?init_cs@@3U_RTL_CRITICAL_SECTION@@A ; init_cs
	call	DWORD PTR __imp__LeaveCriticalSection@4

; 298  :       return true;

	mov	al, 1

; 304  : }

	mov	esp, ebp
	pop	ebp
	ret	0
$LN5@InitSafe_D:

; 299  :     }
; 300  :   }
; 301  : 
; 302  :   LeaveCriticalSection (&init_cs);

	push	OFFSET ?init_cs@@3U_RTL_CRITICAL_SECTION@@A ; init_cs
	call	DWORD PTR __imp__LeaveCriticalSection@4

; 303  :   return false;

	xor	al, al

; 304  : }

	mov	esp, ebp
	pop	ebp
	ret	0
?InitSafe_Detour@@YA_NXZ ENDP				; InitSafe_Detour
_TEXT	ENDS
; Function compile flags: /Ogtp
; File c:\users\andon\source\repos\specialk\include\specialk\steam_api.h
;	COMDAT ?UserStats@SK_SteamAPIContext@@QAEPAVISteamUserStats@@XZ
_TEXT	SEGMENT
?UserStats@SK_SteamAPIContext@@QAEPAVISteamUserStats@@XZ PROC ; SK_SteamAPIContext::UserStats, COMDAT
; _this$ = ecx

; 593  :   ISteamUserStats*   UserStats   (void) { return user_stats_;  }

	mov	eax, DWORD PTR [ecx+104]
	ret	0
?UserStats@SK_SteamAPIContext@@QAEPAVISteamUserStats@@XZ ENDP ; SK_SteamAPIContext::UserStats
_TEXT	ENDS
; Function compile flags: /Ogtp
; File c:\users\andon\source\repos\specialk\src\csteamworks.cpp
_TEXT	SEGMENT
_hSteamDLL$ = 8						; size = 4
?InitCSteamworks@SK_SteamAPIContext@@QAE_NPAUHINSTANCE__@@@Z PROC ; SK_SteamAPIContext::InitCSteamworks
; _this$ = ecx

; 54   : {

	npad	2
	push	ebp
	mov	ebp, esp

; 55   :   if (config.steam.silent)

	cmp	BYTE PTR ?config@@3Usk_config_t@@A+372, 0
	push	esi
	mov	esi, ecx
	jne	$LN22@InitCSteam

; 56   :     return false;
; 57   : 
; 58   :   if (SteamAPI_InitSafe == nullptr)

	cmp	DWORD PTR _SteamAPI_InitSafe, 0
	push	ebx
	mov	ebx, DWORD PTR __imp__GetProcAddress@8
	push	edi
	mov	edi, DWORD PTR _hSteamDLL$[ebp]
	jne	SHORT $LN3@InitCSteam

; 59   :   {
; 60   :     SteamAPI_InitSafe =

	push	OFFSET $SG270423
	push	edi
	call	ebx
	mov	DWORD PTR _SteamAPI_InitSafe, eax
$LN3@InitCSteam:

; 61   :       (SteamAPI_InitSafe_pfn)GetProcAddress (
; 62   :         hSteamDLL,
; 63   :           "InitSafe"
; 64   :       );
; 65   :   }
; 66   : 
; 67   :   if (SteamAPI_GetHSteamUser == nullptr)

	cmp	DWORD PTR _SteamAPI_GetHSteamUser, 0
	jne	SHORT $LN4@InitCSteam

; 68   :   {
; 69   :     SteamAPI_GetHSteamUser =

	push	OFFSET $SG270425
	push	edi
	call	ebx
	mov	DWORD PTR _SteamAPI_GetHSteamUser, eax
$LN4@InitCSteam:

; 70   :       (SteamAPI_GetHSteamUser_pfn)GetProcAddress (
; 71   :          hSteamDLL,
; 72   :            "GetHSteamUser_"
; 73   :       );
; 74   :   }
; 75   : 
; 76   :   if (SteamAPI_GetHSteamPipe == nullptr)

	cmp	DWORD PTR _SteamAPI_GetHSteamPipe, 0
	jne	SHORT $LN5@InitCSteam

; 77   :   {
; 78   :     SteamAPI_GetHSteamPipe =

	push	OFFSET $SG270427
	push	edi
	call	ebx
	mov	DWORD PTR _SteamAPI_GetHSteamPipe, eax
$LN5@InitCSteam:

; 79   :       (SteamAPI_GetHSteamPipe_pfn)GetProcAddress (
; 80   :          hSteamDLL,
; 81   :            "GetHSteamPipe_"
; 82   :       );
; 83   :   }
; 84   : 
; 85   :   SteamAPI_IsSteamRunning =

	push	OFFSET $SG270428
	push	edi
	call	ebx

; 86   :     (SteamAPI_IsSteamRunning_pfn)GetProcAddress (
; 87   :        hSteamDLL,
; 88   :          "IsSteamRunning"
; 89   :     );
; 90   : 
; 91   :   if (SteamClient == nullptr)

	cmp	DWORD PTR _SteamClient, 0
	mov	DWORD PTR _SteamAPI_IsSteamRunning, eax
	jne	SHORT $LN6@InitCSteam

; 92   :   {
; 93   :     SteamClient =

	push	OFFSET $SG270430
	push	edi
	call	ebx
	mov	DWORD PTR _SteamClient, eax
$LN6@InitCSteam:

; 94   :       (SteamClient_pfn)GetProcAddress (
; 95   :          hSteamDLL,
; 96   :            "SteamClient_"
; 97   :       );
; 98   :   }
; 99   : 
; 100  :   bool success = true;
; 101  : 
; 102  :   if (SteamAPI_GetHSteamUser == nullptr)

	cmp	DWORD PTR _SteamAPI_GetHSteamUser, 0
	mov	al, 1
	pop	edi
	pop	ebx
	jne	SHORT $LN7@InitCSteam

; 103  :   {
; 104  :     steam_log.Log (L"Could not load GetHSteamUser (...)");

	push	OFFSET $SG270432
	push	OFFSET ?steam_log@@3UiSK_Logger@@A	; steam_log
	call	?Log@iSK_Logger@@UAAXQB_WZZ		; iSK_Logger::Log
	add	esp, 8

; 105  :     success = false;

	xor	al, al
$LN7@InitCSteam:

; 106  :   }
; 107  : 
; 108  :   if (SteamAPI_GetHSteamPipe == nullptr)

	cmp	DWORD PTR _SteamAPI_GetHSteamPipe, 0
	jne	SHORT $LN8@InitCSteam

; 109  :   {
; 110  :     steam_log.Log (L"Could not load GetHSteamPipe (...)");

	push	OFFSET $SG270434
	push	OFFSET ?steam_log@@3UiSK_Logger@@A	; steam_log
	call	?Log@iSK_Logger@@UAAXQB_WZZ		; iSK_Logger::Log
	add	esp, 8

; 111  :     success = false;

	xor	al, al
$LN8@InitCSteam:

; 112  :   }
; 113  : 
; 114  :   if (SteamClient == nullptr)

	cmp	DWORD PTR _SteamClient, 0
	jne	SHORT $LN9@InitCSteam

; 115  :   {
; 116  :     steam_log.Log (L"Could not load SteamClient (...)");

	push	OFFSET $SG270436
	push	OFFSET ?steam_log@@3UiSK_Logger@@A	; steam_log
	call	?Log@iSK_Logger@@UAAXQB_WZZ		; iSK_Logger::Log
	add	esp, 8

; 117  :     success = false;

	xor	al, al
$LN9@InitCSteam:

; 118  :   }
; 119  : 
; 120  :   if (SteamAPI_RegisterCallback == nullptr)

	cmp	DWORD PTR _SteamAPI_RegisterCallback, 0
	jne	SHORT $LN10@InitCSteam

; 121  :   {
; 122  :     steam_log.Log (L"Could not load RegisterCallback (...)");

	push	OFFSET $SG270438
	push	OFFSET ?steam_log@@3UiSK_Logger@@A	; steam_log
	call	?Log@iSK_Logger@@UAAXQB_WZZ		; iSK_Logger::Log
	add	esp, 8

; 123  :     success = false;

	xor	al, al
$LN10@InitCSteam:

; 124  :   }
; 125  : 
; 126  :   if (SteamAPI_UnregisterCallback == nullptr)

	cmp	DWORD PTR _SteamAPI_UnregisterCallback, 0
	jne	SHORT $LN11@InitCSteam

; 127  :   {
; 128  :     steam_log.Log (L"Could not load UnregisterCallback (...)");

	push	OFFSET $SG270440
	push	OFFSET ?steam_log@@3UiSK_Logger@@A	; steam_log
	call	?Log@iSK_Logger@@UAAXQB_WZZ		; iSK_Logger::Log
	add	esp, 8

; 129  :     success = false;

	xor	al, al
$LN11@InitCSteam:

; 130  :   }
; 131  : 
; 132  :   if (SteamAPI_RunCallbacks == nullptr)

	cmp	DWORD PTR _SteamAPI_RunCallbacks, 0
	jne	SHORT $LN12@InitCSteam

; 133  :   {
; 134  :     steam_log.Log (L"Could not load RunCallbacks (...)");

	push	OFFSET $SG270442
	push	OFFSET ?steam_log@@3UiSK_Logger@@A	; steam_log
	call	?Log@iSK_Logger@@UAAXQB_WZZ		; iSK_Logger::Log
	add	esp, 8

; 159  :                       STEAMUSER_INTERFACE_VERSION );
; 160  :     return false;

	xor	al, al
	pop	esi

; 251  : }

	pop	ebp
	ret	4
$LN12@InitCSteam:

; 135  :     success = false;
; 136  :   }
; 137  : 
; 138  :   if (! success)

	test	al, al
	je	SHORT $LN22@InitCSteam

; 139  :     return false;
; 140  : 
; 141  :   client_ = SteamClient ();

	call	DWORD PTR _SteamClient
	mov	DWORD PTR [esi+96], eax

; 142  : 
; 143  :   hSteamUser = SteamAPI_GetHSteamUser ();

	call	DWORD PTR _SteamAPI_GetHSteamUser
	mov	DWORD PTR [esi+92], eax

; 144  :   hSteamPipe = SteamAPI_GetHSteamPipe ();

	call	DWORD PTR _SteamAPI_GetHSteamPipe

; 145  : 
; 146  :   if (! client_)

	mov	ecx, DWORD PTR [esi+96]
	mov	edx, eax
	mov	DWORD PTR [esi+88], edx
	test	ecx, ecx
	je	SHORT $LN22@InitCSteam

; 147  :     return false;
; 148  : 
; 149  :   user_ =

	mov	eax, DWORD PTR [ecx]
	push	OFFSET $SG270445
	push	edx
	push	DWORD PTR [esi+92]
	call	DWORD PTR [eax+20]
	mov	DWORD PTR [esi+100], eax

; 150  :     client_->GetISteamUser (
; 151  :       hSteamUser,
; 152  :         hSteamPipe,
; 153  :           STEAMUSER_INTERFACE_VERSION
; 154  :     );
; 155  : 
; 156  :   if (user_ == nullptr)

	test	eax, eax
	jne	SHORT $LN15@InitCSteam

; 157  :   {
; 158  :     steam_log.Log ( L" >> ISteamUser NOT FOUND for version %hs <<",

	push	OFFSET $SG270447
	push	OFFSET $SG270448
	push	OFFSET ?steam_log@@3UiSK_Logger@@A	; steam_log
	call	?Log@iSK_Logger@@UAAXQB_WZZ		; iSK_Logger::Log
	add	esp, 12					; 0000000cH
$LN22@InitCSteam:

; 159  :                       STEAMUSER_INTERFACE_VERSION );
; 160  :     return false;

	xor	al, al
	pop	esi

; 251  : }

	pop	ebp
	ret	4
$LN15@InitCSteam:

; 161  :   }
; 162  : 
; 163  :   friends_ =

	mov	ecx, DWORD PTR [esi+96]
	push	OFFSET $SG270449
	push	DWORD PTR [esi+88]
	mov	eax, DWORD PTR [ecx]
	push	DWORD PTR [esi+92]
	call	DWORD PTR [eax+32]
	mov	DWORD PTR [esi+112], eax

; 164  :     client_->GetISteamFriends (
; 165  :       hSteamUser,
; 166  :         hSteamPipe,
; 167  :           STEAMFRIENDS_INTERFACE_VERSION
; 168  :     );
; 169  : 
; 170  :   if (friends_ == nullptr)

	test	eax, eax
	jne	SHORT $LN16@InitCSteam

; 171  :   {
; 172  :     steam_log.Log ( L" >> ISteamFriends NOT FOUND for version %hs <<",

	push	OFFSET $SG270451
	push	OFFSET $SG270452
	push	OFFSET ?steam_log@@3UiSK_Logger@@A	; steam_log
	call	?Log@iSK_Logger@@UAAXQB_WZZ		; iSK_Logger::Log
	add	esp, 12					; 0000000cH

; 173  :                       STEAMFRIENDS_INTERFACE_VERSION );
; 174  :     return false;

	xor	al, al
	pop	esi

; 251  : }

	pop	ebp
	ret	4
$LN16@InitCSteam:

; 175  :   }
; 176  : 
; 177  :   user_stats_ =

	mov	ecx, DWORD PTR [esi+96]
	push	OFFSET $SG270453
	push	DWORD PTR [esi+88]
	mov	eax, DWORD PTR [ecx]
	push	DWORD PTR [esi+92]
	call	DWORD PTR [eax+52]
	mov	DWORD PTR [esi+104], eax

; 178  :     client_->GetISteamUserStats (
; 179  :       hSteamUser,
; 180  :         hSteamPipe,
; 181  :           STEAMUSERSTATS_INTERFACE_VERSION
; 182  :     );
; 183  : 
; 184  :   if (user_stats_ == nullptr)

	test	eax, eax
	jne	SHORT $LN17@InitCSteam

; 185  :   {
; 186  :     steam_log.Log ( L" >> ISteamUserStats NOT FOUND for version %hs <<",

	push	OFFSET $SG270455
	push	OFFSET $SG270456
	push	OFFSET ?steam_log@@3UiSK_Logger@@A	; steam_log
	call	?Log@iSK_Logger@@UAAXQB_WZZ		; iSK_Logger::Log
	add	esp, 12					; 0000000cH

; 187  :                       STEAMUSERSTATS_INTERFACE_VERSION );
; 188  :     return false;

	xor	al, al
	pop	esi

; 251  : }

	pop	ebp
	ret	4
$LN17@InitCSteam:

; 189  :   }
; 190  : 
; 191  :   apps_ =

	mov	ecx, DWORD PTR [esi+96]
	push	OFFSET $SG270457
	push	DWORD PTR [esi+88]
	mov	eax, DWORD PTR [ecx]
	push	DWORD PTR [esi+92]
	call	DWORD PTR [eax+60]
	mov	DWORD PTR [esi+108], eax

; 192  :     client_->GetISteamApps (
; 193  :       hSteamUser,
; 194  :         hSteamPipe,
; 195  :           STEAMAPPS_INTERFACE_VERSION
; 196  :     );
; 197  : 
; 198  :   if (apps_ == nullptr)

	test	eax, eax
	jne	SHORT $LN18@InitCSteam

; 199  :   {
; 200  :     steam_log.Log ( L" >> ISteamApps NOT FOUND for version %hs <<",

	push	OFFSET $SG270459
	push	OFFSET $SG270460
	push	OFFSET ?steam_log@@3UiSK_Logger@@A	; steam_log
	call	?Log@iSK_Logger@@UAAXQB_WZZ		; iSK_Logger::Log
	add	esp, 12					; 0000000cH

; 201  :                       STEAMAPPS_INTERFACE_VERSION );
; 202  :     return false;

	xor	al, al
	pop	esi

; 251  : }

	pop	ebp
	ret	4
$LN18@InitCSteam:

; 203  :   }
; 204  : 
; 205  :   utils_ =

	mov	ecx, DWORD PTR [esi+96]
	push	OFFSET $SG270461
	push	DWORD PTR [esi+88]
	mov	eax, DWORD PTR [ecx]
	call	DWORD PTR [eax+36]
	mov	DWORD PTR [esi+116], eax

; 206  :     client_->GetISteamUtils ( hSteamPipe,
; 207  :                                 STEAMUTILS_INTERFACE_VERSION );
; 208  : 
; 209  :   if (utils_ == nullptr)

	test	eax, eax
	jne	SHORT $LN19@InitCSteam

; 210  :   {
; 211  :     steam_log.Log ( L" >> ISteamUtils NOT FOUND for version %hs <<",

	push	OFFSET $SG270463
	push	OFFSET $SG270464
	push	OFFSET ?steam_log@@3UiSK_Logger@@A	; steam_log
	call	?Log@iSK_Logger@@UAAXQB_WZZ		; iSK_Logger::Log
	add	esp, 12					; 0000000cH

; 212  :                       STEAMUTILS_INTERFACE_VERSION );
; 213  :     return false;

	xor	al, al
	pop	esi

; 251  : }

	pop	ebp
	ret	4
$LN19@InitCSteam:

; 214  :   }
; 215  : 
; 216  :   screenshots_ =

	mov	ecx, DWORD PTR [esi+96]
	push	OFFSET $SG270465
	push	DWORD PTR [esi+88]
	mov	eax, DWORD PTR [ecx]
	push	DWORD PTR [esi+92]
	call	DWORD PTR [eax+72]
	mov	DWORD PTR [esi+120], eax

; 217  :     client_->GetISteamScreenshots ( hSteamUser,
; 218  :                                       hSteamPipe,
; 219  :                                         STEAMSCREENSHOTS_INTERFACE_VERSION );
; 220  : 
; 221  :   if (screenshots_ == nullptr)

	test	eax, eax
	jne	SHORT $LN20@InitCSteam

; 222  :   {
; 223  :     steam_log.Log ( L" >> ISteamScreenshots NOT FOUND for version %hs <<",

	push	OFFSET $SG270467
	push	OFFSET $SG270468
	push	OFFSET ?steam_log@@3UiSK_Logger@@A	; steam_log
	call	?Log@iSK_Logger@@UAAXQB_WZZ		; iSK_Logger::Log

; 224  :                       STEAMSCREENSHOTS_INTERFACE_VERSION );
; 225  : 
; 226  :     screenshots_ =

	mov	ecx, DWORD PTR [esi+96]
	add	esp, 12					; 0000000cH
	mov	eax, DWORD PTR [ecx]
	push	OFFSET $SG270469
	push	DWORD PTR [esi+88]
	push	DWORD PTR [esi+92]
	call	DWORD PTR [eax+72]

; 227  :       client_->GetISteamScreenshots ( hSteamUser,
; 228  :                                         hSteamPipe,
; 229  :                                           "STEAMSCREENSHOTS_INTERFACE_VERSION001" );
; 230  : 
; 231  :     steam_log.Log ( L" >> ISteamScreenshots NOT FOUND for version %hs <<",

	push	OFFSET $SG270470
	push	OFFSET $SG270471
	push	OFFSET ?steam_log@@3UiSK_Logger@@A	; steam_log
	mov	DWORD PTR [esi+120], eax
	call	?Log@iSK_Logger@@UAAXQB_WZZ		; iSK_Logger::Log
	add	esp, 12					; 0000000cH
$LN20@InitCSteam:

; 232  :                       "STEAMSCREENSHOTS_INTERFACE_VERSION001" );
; 233  : 
; 234  : 
; 235  :     //return false;
; 236  :   }
; 237  : 
; 238  :   controller_ =

	mov	ecx, DWORD PTR [esi+96]
	push	OFFSET $SG270472
	push	DWORD PTR [esi+88]
	mov	eax, DWORD PTR [ecx]
	push	DWORD PTR [esi+92]
	call	DWORD PTR [eax+100]
	mov	DWORD PTR [esi+124], eax

; 239  :     client_->GetISteamController (
; 240  :       hSteamUser,
; 241  :         hSteamPipe,
; 242  :           STEAMCONTROLLER_INTERFACE_VERSION );
; 243  : 
; 244  :   //void** vftable = *(void***)*&controller_;
; 245  :   //SK_CreateVFTableHook ( L"ISteamController::GetControllerState",
; 246  :                            //vftable, 3,
; 247  :             //ISteamController_GetControllerState_Detour,
; 248  :                   //(LPVOID *)&GetControllerState_Original );
; 249  : 
; 250  :   return true;

	mov	al, 1
	pop	esi

; 251  : }

	pop	ebp
	ret	4
?InitCSteamworks@SK_SteamAPIContext@@QAE_NPAUHINSTANCE__@@@Z ENDP ; SK_SteamAPIContext::InitCSteamworks
_TEXT	ENDS
; Function compile flags: /Ogtp
; File c:\users\andon\source\repos\specialk\src\csteamworks.cpp
; File c:\program files (x86)\windows kits\8.1\include\um\winbase.h
; File c:\users\andon\source\repos\specialk\src\csteamworks.cpp
_TEXT	SEGMENT
_wszModName$ = -524					; size = 524
?SK_HookCSteamworks@@YAXXZ PROC				; SK_HookCSteamworks

; 342  : {

	npad	2
	push	ebp
	mov	ebp, esp
	sub	esp, 524				; 0000020cH

; 343  :   if (config.steam.silent)

	cmp	BYTE PTR ?config@@3Usk_config_t@@A+372, 0
	jne	$LN1@SK_HookCSt

; 344  :     return;
; 345  : 
; 346  :   bool has_steamapi = false;
; 347  : 
; 348  :   EnterCriticalSection (&init_cs);

	push	OFFSET ?init_cs@@3U_RTL_CRITICAL_SECTION@@A ; init_cs
	call	DWORD PTR __imp__EnterCriticalSection@4
; File c:\program files (x86)\windows kits\8.1\include\um\winbase.h

; 9003 :     return (unsigned long) _InterlockedCompareExchange((volatile long*) Destination, (long) Exchange, (long) Comperand);

	mov	ecx, 1
	mov	edx, OFFSET ?__CSteamworks_hook@@3KC	; __CSteamworks_hook
	xor	eax, eax
	lock	 cmpxchg DWORD PTR [edx], ecx
; File c:\users\andon\source\repos\specialk\src\csteamworks.cpp

; 349  :   if ( InterlockedCompareExchange (&__CSteamworks_hook, TRUE, FALSE) ||

	test	eax, eax
	jne	$LN4@SK_HookCSt
	xor	ecx, ecx
	mov	edx, OFFSET ?__SteamAPI_hook@@3JC	; __SteamAPI_hook
	lock	 cmpxchg DWORD PTR [edx], ecx
	test	eax, eax
	jne	$LN4@SK_HookCSt

; 353  :     return;
; 354  :   }
; 355  : 
; 356  :   steam_log.Log (L"CSteamworks.dll was loaded, hooking...");

	push	esi
	push	OFFSET $SG270529
	push	OFFSET ?steam_log@@3UiSK_Logger@@A	; steam_log
	call	?Log@iSK_Logger@@UAAXQB_WZZ		; iSK_Logger::Log
	add	esp, 8

; 357  : 
; 358  :   // Get the full path to the module's file.
; 359  :   HMODULE hMod = GetModuleHandle (L"CSteamworks.dll");

	push	OFFSET $SG270530
	call	DWORD PTR __imp__GetModuleHandleW@4
	mov	esi, eax

; 360  : 
; 361  :   if (! hMod) hMod  = GetModuleHandle (L"steamworks.net.dll"); // Mafia 3 nonsense

	test	esi, esi
	jne	SHORT $LN5@SK_HookCSt
	push	OFFSET $SG270532
	call	DWORD PTR __imp__GetModuleHandleW@4
	mov	esi, eax
$LN5@SK_HookCSt:

; 362  : 
; 363  :   wchar_t wszModName [MAX_PATH + 2] = { };

	push	524					; 0000020cH
	lea	eax, DWORD PTR _wszModName$[ebp]
	push	0
	push	eax
	call	_memset
	add	esp, 12					; 0000000cH

; 364  : 
; 365  :   if ( GetModuleFileNameW ( hMod,

	lea	eax, DWORD PTR _wszModName$[ebp]
	push	262					; 00000106H
	push	eax
	push	esi
	call	DWORD PTR __imp__GetModuleFileNameW@12
	pop	esi
	test	eax, eax
	je	$LN4@SK_HookCSt

; 366  :                               wszModName,
; 367  :                                 sizeof (wszModName) /
; 368  :                                   sizeof (wchar_t) ) )
; 369  :   {
; 370  :     wchar_t* dll_path =
; 371  :       StrStrIW (wszModName, L"CSteamworks.dll");

	push	OFFSET $SG270534
	lea	eax, DWORD PTR _wszModName$[ebp]
	push	eax
	call	DWORD PTR __imp__StrStrIW@8

; 372  : 
; 373  :     if (dll_path != nullptr)

	test	eax, eax
	je	SHORT $LN7@SK_HookCSt

; 374  :       *dll_path = L'\0';

	xor	ecx, ecx
	mov	WORD PTR [eax], cx
$LN7@SK_HookCSt:

; 375  : 
; 376  : #ifdef _WIN64
; 377  :     lstrcatW (wszModName, L"steam_api64.dll");
; 378  : #else
; 379  :     lstrcatW (wszModName, L"steam_api.dll");

	push	OFFSET $SG270536
	lea	eax, DWORD PTR _wszModName$[ebp]
	push	eax
	call	DWORD PTR __imp__lstrcatW@8

; 380  : #endif
; 381  : 
; 382  :     if (LoadLibraryW_Original (wszModName))

	lea	eax, DWORD PTR _wszModName$[ebp]
	push	eax
	call	DWORD PTR ?LoadLibraryW_Original@@3P6GPAUHINSTANCE__@@PB_W@ZA ; LoadLibraryW_Original
	test	eax, eax

; 383  :     {
; 384  :       steam_log.Log ( L" >>> Located a real steam_api DLL: '%s'...",

	lea	eax, DWORD PTR _wszModName$[ebp]
	je	SHORT $LN8@SK_HookCSt
	push	eax
	push	OFFSET $SG270539
	push	OFFSET ?steam_log@@3UiSK_Logger@@A	; steam_log
	call	?Log@iSK_Logger@@UAAXQB_WZZ		; iSK_Logger::Log
	add	esp, 12					; 0000000cH

; 385  :                       wszModName );
; 386  : 
; 387  :       has_steamapi = true;
; 388  : 
; 389  :       SK_HookSteamAPI ();

	call	?SK_HookSteamAPI@@YAXXZ			; SK_HookSteamAPI

; 390  : 
; 391  :       SteamAPI_InitSafe_Detour ();

	call	_SteamAPI_InitSafe_Detour
	push	OFFSET ?init_cs@@3U_RTL_CRITICAL_SECTION@@A ; init_cs
	call	DWORD PTR __imp__LeaveCriticalSection@4

; 456  :     }
; 457  :   }
; 458  : 
; 459  :   LeaveCriticalSection (&init_cs);
; 460  : }

	mov	esp, ebp
	pop	ebp
	ret	0
$LN8@SK_HookCSt:

; 392  :     }
; 393  : 
; 394  :     else
; 395  :     {
; 396  :       SK_CreateDLLHook3 ( wszModName,

	push	OFFSET _SteamAPI_InitSafe
	push	OFFSET _SteamAPI_InitSafe_Original
	push	OFFSET _SteamAPI_InitSafe_Detour
	push	OFFSET $SG270540
	push	eax
	call	?SK_CreateDLLHook3@@YG?AW4MH_STATUS@@PB_WPBDPAXPAPAX3@Z ; SK_CreateDLLHook3

; 397  :                           "SteamAPI_InitSafe",
; 398  :                          SteamAPI_InitSafe_Detour,
; 399  :               (LPVOID *)&SteamAPI_InitSafe_Original,
; 400  :               (LPVOID *)&SteamAPI_InitSafe );
; 401  :      
; 402  :       SK_CreateDLLHook3 ( wszModName,

	push	OFFSET _SteamAPI_Init
	push	OFFSET _SteamAPI_Init_Original
	push	OFFSET _SteamAPI_Init_Detour
	push	OFFSET $SG270541
	lea	eax, DWORD PTR _wszModName$[ebp]
	push	eax
	call	?SK_CreateDLLHook3@@YG?AW4MH_STATUS@@PB_WPBDPAXPAPAX3@Z ; SK_CreateDLLHook3

; 403  :                           "SteamAPI_Init",
; 404  :                          SteamAPI_Init_Detour,
; 405  :               (LPVOID *)&SteamAPI_Init_Original,
; 406  :               (LPVOID *)&SteamAPI_Init );
; 407  :      
; 408  :       SK_CreateDLLHook3 ( wszModName,

	push	OFFSET _SteamAPI_RegisterCallback
	push	OFFSET _SteamAPI_RegisterCallback_Original
	push	OFFSET _SteamAPI_RegisterCallback_Detour
	push	OFFSET $SG270542
	lea	eax, DWORD PTR _wszModName$[ebp]
	push	eax
	call	?SK_CreateDLLHook3@@YG?AW4MH_STATUS@@PB_WPBDPAXPAPAX3@Z ; SK_CreateDLLHook3

; 409  :                           "SteamAPI_RegisterCallback",
; 410  :                           SteamAPI_RegisterCallback_Detour,
; 411  :                (LPVOID *)&SteamAPI_RegisterCallback_Original,
; 412  :                (LPVOID *)&SteamAPI_RegisterCallback );
; 413  :      
; 414  :       SK_CreateDLLHook3 ( wszModName,

	push	OFFSET _SteamAPI_UnregisterCallback
	push	OFFSET _SteamAPI_UnregisterCallback_Original
	push	OFFSET _SteamAPI_UnregisterCallback_Detour
	push	OFFSET $SG270543
	lea	eax, DWORD PTR _wszModName$[ebp]
	push	eax
	call	?SK_CreateDLLHook3@@YG?AW4MH_STATUS@@PB_WPBDPAXPAPAX3@Z ; SK_CreateDLLHook3

; 415  :                           "SteamAPI_UnregisterCallback",
; 416  :                           SteamAPI_UnregisterCallback_Detour,
; 417  :                 (LPVOID *)&SteamAPI_UnregisterCallback_Original,
; 418  :                 (LPVOID *)&SteamAPI_UnregisterCallback );
; 419  : 
; 420  :       SK_CreateDLLHook3 ( L"CSteamworks.dll",

	push	0
	push	OFFSET ?InitSafe_Original@@3P6A_NXZA	; InitSafe_Original
	push	OFFSET ?InitSafe_Detour@@YA_NXZ		; InitSafe_Detour
	push	OFFSET $SG270544
	push	OFFSET $SG270545
	call	?SK_CreateDLLHook3@@YG?AW4MH_STATUS@@PB_WPBDPAXPAPAX3@Z ; SK_CreateDLLHook3

; 421  :                          "InitSafe",
; 422  :                          InitSafe_Detour,
; 423  :               (LPVOID *)&InitSafe_Original );
; 424  :       
; 425  :       SK_CreateDLLHook3 ( L"CSteamworks.dll",

	push	0
	push	OFFSET _SteamAPI_Init_Original
	push	OFFSET _SteamAPI_Init_Detour
	push	OFFSET $SG270546
	push	OFFSET $SG270547
	call	?SK_CreateDLLHook3@@YG?AW4MH_STATUS@@PB_WPBDPAXPAPAX3@Z ; SK_CreateDLLHook3

; 426  :                          "Init",
; 427  :                         SteamAPI_Init_Detour,
; 428  :               (LPVOID *)&SteamAPI_Init_Original );
; 429  :       
; 430  :       SK_CreateDLLHook3 ( L"CSteamworks.dll",

	push	0
	push	OFFSET _SteamAPI_Shutdown_Original
	push	OFFSET _SteamAPI_Shutdown_Detour
	push	OFFSET $SG270548
	push	OFFSET $SG270549
	call	?SK_CreateDLLHook3@@YG?AW4MH_STATUS@@PB_WPBDPAXPAPAX3@Z ; SK_CreateDLLHook3

; 431  :                           "Shutdown",
; 432  :                           SteamAPI_Shutdown_Detour,
; 433  :                (LPVOID *)&SteamAPI_Shutdown_Original );
; 434  :       
; 435  :       SK_CreateDLLHook3 ( L"CSteamworks.dll",

	push	OFFSET _SteamAPI_RegisterCallback
	push	OFFSET _SteamAPI_RegisterCallback_Original
	push	OFFSET _SteamAPI_RegisterCallback_Detour
	push	OFFSET $SG270550
	push	OFFSET $SG270551
	call	?SK_CreateDLLHook3@@YG?AW4MH_STATUS@@PB_WPBDPAXPAPAX3@Z ; SK_CreateDLLHook3

; 436  :                          "RegisterCallback",
; 437  :                          SteamAPI_RegisterCallback_Detour,
; 438  :               (LPVOID *)&SteamAPI_RegisterCallback_Original,
; 439  :               (LPVOID *)&SteamAPI_RegisterCallback );
; 440  :       
; 441  :       SK_CreateDLLHook3 ( L"CSteamworks.dll",

	push	OFFSET _SteamAPI_UnregisterCallback
	push	OFFSET _SteamAPI_UnregisterCallback_Original
	push	OFFSET _SteamAPI_UnregisterCallback_Detour
	push	OFFSET $SG270552
	push	OFFSET $SG270553
	call	?SK_CreateDLLHook3@@YG?AW4MH_STATUS@@PB_WPBDPAXPAPAX3@Z ; SK_CreateDLLHook3

; 442  :                          "UnregisterCallback",
; 443  :                          SteamAPI_UnregisterCallback_Detour,
; 444  :               (LPVOID *)&SteamAPI_UnregisterCallback_Original,
; 445  :               (LPVOID *)&SteamAPI_UnregisterCallback );
; 446  :       
; 447  :       SK_CreateDLLHook3 ( L"CSteamworks.dll",

	push	OFFSET _SteamAPI_RunCallbacks
	push	OFFSET _SteamAPI_RunCallbacks_Original
	push	OFFSET _SteamAPI_RunCallbacks_Detour
	push	OFFSET $SG270554
	push	OFFSET $SG270555
	call	?SK_CreateDLLHook3@@YG?AW4MH_STATUS@@PB_WPBDPAXPAPAX3@Z ; SK_CreateDLLHook3

; 448  :                          "RunCallbacks",
; 449  :                          SteamAPI_RunCallbacks_Detour,
; 450  :               (LPVOID *)&SteamAPI_RunCallbacks_Original,
; 451  :               (LPVOID *)&SteamAPI_RunCallbacks );
; 452  : 
; 453  :       SK_ApplyQueuedHooks ();

	call	?SK_ApplyQueuedHooks@@YG?AW4MH_STATUS@@XZ ; SK_ApplyQueuedHooks

; 454  : 
; 455  :       SteamAPI_InitSafe ();

	call	DWORD PTR _SteamAPI_InitSafe
$LN4@SK_HookCSt:

; 350  :        InterlockedCompareExchange (&__SteamAPI_hook,    FALSE, FALSE) )
; 351  :   {
; 352  :     LeaveCriticalSection (&init_cs);

	push	OFFSET ?init_cs@@3U_RTL_CRITICAL_SECTION@@A ; init_cs
	call	DWORD PTR __imp__LeaveCriticalSection@4
$LN1@SK_HookCSt:

; 456  :     }
; 457  :   }
; 458  : 
; 459  :   LeaveCriticalSection (&init_cs);
; 460  : }

	mov	esp, ebp
	pop	ebp
	ret	0
?SK_HookCSteamworks@@YAXXZ ENDP				; SK_HookCSteamworks
_TEXT	ENDS
; Function compile flags: /Ogtp
; File c:\program files (x86)\microsoft visual studio\2017\community\vc\tools\msvc\14.10.25017\include\xstring
; File c:\program files (x86)\microsoft visual studio\2017\community\vc\tools\msvc\14.10.25017\include\xmemory0
; File c:\program files (x86)\microsoft visual studio\2017\community\vc\tools\msvc\14.10.25017\include\xstring
; File c:\program files (x86)\microsoft visual studio\2017\community\vc\tools\msvc\14.10.25017\include\xmemory0
; File c:\program files (x86)\microsoft visual studio\2017\community\vc\tools\msvc\14.10.25017\include\xstring
; File c:\program files (x86)\microsoft visual studio\2017\community\vc\tools\msvc\14.10.25017\include\iosfwd
; File c:\program files (x86)\microsoft visual studio\2017\community\vc\tools\msvc\14.10.25017\include\xstring
; File c:\program files (x86)\microsoft visual studio\2017\community\vc\tools\msvc\14.10.25017\include\iosfwd
; File c:\program files (x86)\microsoft visual studio\2017\community\vc\tools\msvc\14.10.25017\include\xstring
;	COMDAT ?_Tidy_deallocate@?$basic_string@_WU?$char_traits@_W@std@@V?$allocator@_W@2@@std@@QAEXXZ
_TEXT	SEGMENT
?_Tidy_deallocate@?$basic_string@_WU?$char_traits@_W@std@@V?$allocator@_W@2@@std@@QAEXXZ PROC ; std::basic_string<wchar_t,std::char_traits<wchar_t>,std::allocator<wchar_t> >::_Tidy_deallocate, COMDAT
; _this$ = ecx

; 3605 : 		{	// initialize buffer, deallocating any storage

	npad	2
	push	esi
	mov	esi, ecx

; 1628 : 		return (this->_BUF_SIZE <= _Myres);

	mov	eax, DWORD PTR [esi+20]
	cmp	eax, 8

; 3606 : 		this->_Orphan_all();
; 3607 : 		auto& _My_data = this->_Get_data();
; 3608 : 		if (_My_data._Large_string_engaged())

	jb	SHORT $LN2@Tidy_deall
; File c:\program files (x86)\microsoft visual studio\2017\community\vc\tools\msvc\14.10.25017\include\xmemory0

; 823  : 		_Deallocate(_Ptr, _Count, sizeof (_Ty));

	push	2
; File c:\program files (x86)\microsoft visual studio\2017\community\vc\tools\msvc\14.10.25017\include\xstring

; 3613 : 			_Al.deallocate(_Ptr, _My_data._Myres + 1);

	inc	eax
; File c:\program files (x86)\microsoft visual studio\2017\community\vc\tools\msvc\14.10.25017\include\xmemory0

; 823  : 		_Deallocate(_Ptr, _Count, sizeof (_Ty));

	push	eax
	push	DWORD PTR [esi]
	call	?_Deallocate@std@@YAXPAXII@Z		; std::_Deallocate
	add	esp, 12					; 0000000cH
$LN2@Tidy_deall:
; File c:\program files (x86)\microsoft visual studio\2017\community\vc\tools\msvc\14.10.25017\include\xstring

; 3616 : 		_My_data._Mysize = 0;

	mov	DWORD PTR [esi+16], 0
; File c:\program files (x86)\microsoft visual studio\2017\community\vc\tools\msvc\14.10.25017\include\iosfwd

; 326  : 		_Left = _Right;

	xor	eax, eax
; File c:\program files (x86)\microsoft visual studio\2017\community\vc\tools\msvc\14.10.25017\include\xstring

; 3617 : 		_My_data._Myres = this->_BUF_SIZE - 1;

	mov	DWORD PTR [esi+20], 7
; File c:\program files (x86)\microsoft visual studio\2017\community\vc\tools\msvc\14.10.25017\include\iosfwd

; 326  : 		_Left = _Right;

	mov	WORD PTR [esi], ax
	pop	esi
; File c:\program files (x86)\microsoft visual studio\2017\community\vc\tools\msvc\14.10.25017\include\xstring

; 3621 : 		}

	ret	0
?_Tidy_deallocate@?$basic_string@_WU?$char_traits@_W@std@@V?$allocator@_W@2@@std@@QAEXXZ ENDP ; std::basic_string<wchar_t,std::char_traits<wchar_t>,std::allocator<wchar_t> >::_Tidy_deallocate
_TEXT	ENDS
; Function compile flags: /Ogtp
; File c:\program files (x86)\microsoft visual studio\2017\community\vc\tools\msvc\14.10.25017\include\xstring
;	COMDAT ?c_str@?$basic_string@_WU?$char_traits@_W@std@@V?$allocator@_W@2@@std@@QBEPB_WXZ
_TEXT	SEGMENT
?c_str@?$basic_string@_WU?$char_traits@_W@std@@V?$allocator@_W@2@@std@@QBEPB_WXZ PROC ; std::basic_string<wchar_t,std::char_traits<wchar_t>,std::allocator<wchar_t> >::c_str, COMDAT
; _this$ = ecx

; 1628 : 		return (this->_BUF_SIZE <= _Myres);

	cmp	DWORD PTR [ecx+20], 8

; 1621 : 		return (_Large_string_engaged()

	jb	SHORT $LN13@c_str

; 3003 : 		return (this->_Myptr());

	mov	eax, DWORD PTR [ecx]

; 3004 : 		}

	ret	0
$LN13@c_str:

; 3003 : 		return (this->_Myptr());

	mov	eax, ecx

; 3004 : 		}

	ret	0
?c_str@?$basic_string@_WU?$char_traits@_W@std@@V?$allocator@_W@2@@std@@QBEPB_WXZ ENDP ; std::basic_string<wchar_t,std::char_traits<wchar_t>,std::allocator<wchar_t> >::c_str
_TEXT	ENDS
; Function compile flags: /Ogtp
; File c:\program files (x86)\microsoft visual studio\2017\community\vc\tools\msvc\14.10.25017\include\xstring
; File c:\program files (x86)\microsoft visual studio\2017\community\vc\tools\msvc\14.10.25017\include\xmemory0
; File c:\program files (x86)\microsoft visual studio\2017\community\vc\tools\msvc\14.10.25017\include\xstring
; File c:\program files (x86)\microsoft visual studio\2017\community\vc\tools\msvc\14.10.25017\include\xmemory0
; File c:\program files (x86)\microsoft visual studio\2017\community\vc\tools\msvc\14.10.25017\include\xstring
; File c:\program files (x86)\microsoft visual studio\2017\community\vc\tools\msvc\14.10.25017\include\iosfwd
; File c:\program files (x86)\microsoft visual studio\2017\community\vc\tools\msvc\14.10.25017\include\xstring
; File c:\program files (x86)\microsoft visual studio\2017\community\vc\tools\msvc\14.10.25017\include\iosfwd
; File c:\program files (x86)\microsoft visual studio\2017\community\vc\tools\msvc\14.10.25017\include\xstring
;	COMDAT ??1?$basic_string@_WU?$char_traits@_W@std@@V?$allocator@_W@2@@std@@QAE@XZ
_TEXT	SEGMENT
??1?$basic_string@_WU?$char_traits@_W@std@@V?$allocator@_W@2@@std@@QAE@XZ PROC ; std::basic_string<wchar_t,std::char_traits<wchar_t>,std::allocator<wchar_t> >::~basic_string<wchar_t,std::char_traits<wchar_t>,std::allocator<wchar_t> >, COMDAT
; _this$ = ecx

; 2215 : 		{	// destroy the string

	npad	2
	push	esi
	mov	esi, ecx

; 1628 : 		return (this->_BUF_SIZE <= _Myres);

	mov	eax, DWORD PTR [esi+20]
	cmp	eax, 8

; 3608 : 		if (_My_data._Large_string_engaged())

	jb	SHORT $LN4@basic_stri
; File c:\program files (x86)\microsoft visual studio\2017\community\vc\tools\msvc\14.10.25017\include\xmemory0

; 823  : 		_Deallocate(_Ptr, _Count, sizeof (_Ty));

	push	2
; File c:\program files (x86)\microsoft visual studio\2017\community\vc\tools\msvc\14.10.25017\include\xstring

; 3613 : 			_Al.deallocate(_Ptr, _My_data._Myres + 1);

	inc	eax
; File c:\program files (x86)\microsoft visual studio\2017\community\vc\tools\msvc\14.10.25017\include\xmemory0

; 823  : 		_Deallocate(_Ptr, _Count, sizeof (_Ty));

	push	eax
	push	DWORD PTR [esi]
	call	?_Deallocate@std@@YAXPAXII@Z		; std::_Deallocate
	add	esp, 12					; 0000000cH
$LN4@basic_stri:
; File c:\program files (x86)\microsoft visual studio\2017\community\vc\tools\msvc\14.10.25017\include\xstring

; 3616 : 		_My_data._Mysize = 0;

	mov	DWORD PTR [esi+16], 0
; File c:\program files (x86)\microsoft visual studio\2017\community\vc\tools\msvc\14.10.25017\include\iosfwd

; 326  : 		_Left = _Right;

	xor	eax, eax
; File c:\program files (x86)\microsoft visual studio\2017\community\vc\tools\msvc\14.10.25017\include\xstring

; 3617 : 		_My_data._Myres = this->_BUF_SIZE - 1;

	mov	DWORD PTR [esi+20], 7
; File c:\program files (x86)\microsoft visual studio\2017\community\vc\tools\msvc\14.10.25017\include\iosfwd

; 326  : 		_Left = _Right;

	mov	WORD PTR [esi], ax
	pop	esi
; File c:\program files (x86)\microsoft visual studio\2017\community\vc\tools\msvc\14.10.25017\include\xstring

; 2217 : 		}

	ret	0
??1?$basic_string@_WU?$char_traits@_W@std@@V?$allocator@_W@2@@std@@QAE@XZ ENDP ; std::basic_string<wchar_t,std::char_traits<wchar_t>,std::allocator<wchar_t> >::~basic_string<wchar_t,std::char_traits<wchar_t>,std::allocator<wchar_t> >
_TEXT	ENDS
; Function compile flags: /Ogtp
;	COMDAT ??1?$_String_alloc@U?$_String_base_types@_WV?$allocator@_W@std@@@std@@@std@@QAE@XZ
_TEXT	SEGMENT
??1?$_String_alloc@U?$_String_base_types@_WV?$allocator@_W@std@@@std@@@std@@QAE@XZ PROC ; std::_String_alloc<std::_String_base_types<wchar_t,std::allocator<wchar_t> > >::~_String_alloc<std::_String_base_types<wchar_t,std::allocator<wchar_t> > >, COMDAT
; _this$ = ecx
	ret	0
??1?$_String_alloc@U?$_String_base_types@_WV?$allocator@_W@std@@@std@@@std@@QAE@XZ ENDP ; std::_String_alloc<std::_String_base_types<wchar_t,std::allocator<wchar_t> > >::~_String_alloc<std::_String_base_types<wchar_t,std::allocator<wchar_t> > >
_TEXT	ENDS
; Function compile flags: /Ogtp
;	COMDAT ??1?$_Compressed_pair@U?$_Wrap_alloc@V?$allocator@_W@std@@@std@@V?$_String_val@U?$_Simple_types@_W@std@@@2@$00@std@@QAE@XZ
_TEXT	SEGMENT
??1?$_Compressed_pair@U?$_Wrap_alloc@V?$allocator@_W@std@@@std@@V?$_String_val@U?$_Simple_types@_W@std@@@2@$00@std@@QAE@XZ PROC ; std::_Compressed_pair<std::_Wrap_alloc<std::allocator<wchar_t> >,std::_String_val<std::_Simple_types<wchar_t> >,1>::~_Compressed_pair<std::_Wrap_alloc<std::allocator<wchar_t> >,std::_String_val<std::_Simple_types<wchar_t> >,1>, COMDAT
; _this$ = ecx
	ret	0
??1?$_Compressed_pair@U?$_Wrap_alloc@V?$allocator@_W@std@@@std@@V?$_String_val@U?$_Simple_types@_W@std@@@2@$00@std@@QAE@XZ ENDP ; std::_Compressed_pair<std::_Wrap_alloc<std::allocator<wchar_t> >,std::_String_val<std::_Simple_types<wchar_t> >,1>::~_Compressed_pair<std::_Wrap_alloc<std::allocator<wchar_t> >,std::_String_val<std::_Simple_types<wchar_t> >,1>
_TEXT	ENDS
; Function compile flags: /Ogtp
; File c:\program files (x86)\microsoft visual studio\2017\community\vc\tools\msvc\14.10.25017\include\xutility
;	COMDAT ?_Get_second@?$_Compressed_pair@U?$_Wrap_alloc@V?$allocator@_W@std@@@std@@V?$_String_val@U?$_Simple_types@_W@std@@@2@$00@std@@QBEABV?$_String_val@U?$_Simple_types@_W@std@@@2@XZ
_TEXT	SEGMENT
?_Get_second@?$_Compressed_pair@U?$_Wrap_alloc@V?$allocator@_W@std@@@std@@V?$_String_val@U?$_Simple_types@_W@std@@@2@$00@std@@QBEABV?$_String_val@U?$_Simple_types@_W@std@@@2@XZ PROC ; std::_Compressed_pair<std::_Wrap_alloc<std::allocator<wchar_t> >,std::_String_val<std::_Simple_types<wchar_t> >,1>::_Get_second, COMDAT
; _this$ = ecx

; 343  : 		return (_Myval2);

	mov	eax, ecx

; 344  : 		}

	ret	0
?_Get_second@?$_Compressed_pair@U?$_Wrap_alloc@V?$allocator@_W@std@@@std@@V?$_String_val@U?$_Simple_types@_W@std@@@2@$00@std@@QBEABV?$_String_val@U?$_Simple_types@_W@std@@@2@XZ ENDP ; std::_Compressed_pair<std::_Wrap_alloc<std::allocator<wchar_t> >,std::_String_val<std::_Simple_types<wchar_t> >,1>::_Get_second
_TEXT	ENDS
; Function compile flags: /Ogtp
; File c:\program files (x86)\microsoft visual studio\2017\community\vc\tools\msvc\14.10.25017\include\xutility
;	COMDAT ?_Get_second@?$_Compressed_pair@U?$_Wrap_alloc@V?$allocator@_W@std@@@std@@V?$_String_val@U?$_Simple_types@_W@std@@@2@$00@std@@QAEAAV?$_String_val@U?$_Simple_types@_W@std@@@2@XZ
_TEXT	SEGMENT
?_Get_second@?$_Compressed_pair@U?$_Wrap_alloc@V?$allocator@_W@std@@@std@@V?$_String_val@U?$_Simple_types@_W@std@@@2@$00@std@@QAEAAV?$_String_val@U?$_Simple_types@_W@std@@@2@XZ PROC ; std::_Compressed_pair<std::_Wrap_alloc<std::allocator<wchar_t> >,std::_String_val<std::_Simple_types<wchar_t> >,1>::_Get_second, COMDAT
; _this$ = ecx

; 338  : 		return (_Myval2);

	mov	eax, ecx

; 339  : 		}

	ret	0
?_Get_second@?$_Compressed_pair@U?$_Wrap_alloc@V?$allocator@_W@std@@@std@@V?$_String_val@U?$_Simple_types@_W@std@@@2@$00@std@@QAEAAV?$_String_val@U?$_Simple_types@_W@std@@@2@XZ ENDP ; std::_Compressed_pair<std::_Wrap_alloc<std::allocator<wchar_t> >,std::_String_val<std::_Simple_types<wchar_t> >,1>::_Get_second
_TEXT	ENDS
; Function compile flags: /Ogtp
; File c:\program files (x86)\microsoft visual studio\2017\community\vc\tools\msvc\14.10.25017\include\xutility
;	COMDAT ?_Get_first@?$_Compressed_pair@U?$_Wrap_alloc@V?$allocator@_W@std@@@std@@V?$_String_val@U?$_Simple_types@_W@std@@@2@$00@std@@QAEAAU?$_Wrap_alloc@V?$allocator@_W@std@@@2@XZ
_TEXT	SEGMENT
?_Get_first@?$_Compressed_pair@U?$_Wrap_alloc@V?$allocator@_W@std@@@std@@V?$_String_val@U?$_Simple_types@_W@std@@@2@$00@std@@QAEAAU?$_Wrap_alloc@V?$allocator@_W@std@@@2@XZ PROC ; std::_Compressed_pair<std::_Wrap_alloc<std::allocator<wchar_t> >,std::_String_val<std::_Simple_types<wchar_t> >,1>::_Get_first, COMDAT
; _this$ = ecx

; 318  : 		return (*this);

	mov	eax, ecx

; 319  : 		}

	ret	0
?_Get_first@?$_Compressed_pair@U?$_Wrap_alloc@V?$allocator@_W@std@@@std@@V?$_String_val@U?$_Simple_types@_W@std@@@2@$00@std@@QAEAAU?$_Wrap_alloc@V?$allocator@_W@std@@@2@XZ ENDP ; std::_Compressed_pair<std::_Wrap_alloc<std::allocator<wchar_t> >,std::_String_val<std::_Simple_types<wchar_t> >,1>::_Get_first
_TEXT	ENDS
; Function compile flags: /Ogtp
; File c:\program files (x86)\microsoft visual studio\2017\community\vc\tools\msvc\14.10.25017\include\xstring
;	COMDAT ?_Get_data@?$_String_alloc@U?$_String_base_types@_WV?$allocator@_W@std@@@std@@@std@@QBEABV?$_String_val@U?$_Simple_types@_W@std@@@2@XZ
_TEXT	SEGMENT
?_Get_data@?$_String_alloc@U?$_String_base_types@_WV?$allocator@_W@std@@@std@@@std@@QBEABV?$_String_val@U?$_Simple_types@_W@std@@@2@XZ PROC ; std::_String_alloc<std::_String_base_types<wchar_t,std::allocator<wchar_t> > >::_Get_data, COMDAT
; _this$ = ecx

; 1834 : 		return (_Mypair._Get_second());

	mov	eax, ecx

; 1835 : 		}

	ret	0
?_Get_data@?$_String_alloc@U?$_String_base_types@_WV?$allocator@_W@std@@@std@@@std@@QBEABV?$_String_val@U?$_Simple_types@_W@std@@@2@XZ ENDP ; std::_String_alloc<std::_String_base_types<wchar_t,std::allocator<wchar_t> > >::_Get_data
_TEXT	ENDS
; Function compile flags: /Ogtp
; File c:\program files (x86)\microsoft visual studio\2017\community\vc\tools\msvc\14.10.25017\include\xstring
;	COMDAT ?_Get_data@?$_String_alloc@U?$_String_base_types@_WV?$allocator@_W@std@@@std@@@std@@QAEAAV?$_String_val@U?$_Simple_types@_W@std@@@2@XZ
_TEXT	SEGMENT
?_Get_data@?$_String_alloc@U?$_String_base_types@_WV?$allocator@_W@std@@@std@@@std@@QAEAAV?$_String_val@U?$_Simple_types@_W@std@@@2@XZ PROC ; std::_String_alloc<std::_String_base_types<wchar_t,std::allocator<wchar_t> > >::_Get_data, COMDAT
; _this$ = ecx

; 1829 : 		return (_Mypair._Get_second());

	mov	eax, ecx

; 1830 : 		}

	ret	0
?_Get_data@?$_String_alloc@U?$_String_base_types@_WV?$allocator@_W@std@@@std@@@std@@QAEAAV?$_String_val@U?$_Simple_types@_W@std@@@2@XZ ENDP ; std::_String_alloc<std::_String_base_types<wchar_t,std::allocator<wchar_t> > >::_Get_data
_TEXT	ENDS
; Function compile flags: /Ogtp
; File c:\program files (x86)\microsoft visual studio\2017\community\vc\tools\msvc\14.10.25017\include\xstring
;	COMDAT ?_Getal@?$_String_alloc@U?$_String_base_types@_WV?$allocator@_W@std@@@std@@@std@@QAEAAU?$_Wrap_alloc@V?$allocator@_W@std@@@2@XZ
_TEXT	SEGMENT
?_Getal@?$_String_alloc@U?$_String_base_types@_WV?$allocator@_W@std@@@std@@@std@@QAEAAU?$_Wrap_alloc@V?$allocator@_W@std@@@2@XZ PROC ; std::_String_alloc<std::_String_base_types<wchar_t,std::allocator<wchar_t> > >::_Getal, COMDAT
; _this$ = ecx

; 1819 : 		return (_Mypair._Get_first());

	mov	eax, ecx

; 1820 : 		}

	ret	0
?_Getal@?$_String_alloc@U?$_String_base_types@_WV?$allocator@_W@std@@@std@@@std@@QAEAAU?$_Wrap_alloc@V?$allocator@_W@std@@@2@XZ ENDP ; std::_String_alloc<std::_String_base_types<wchar_t,std::allocator<wchar_t> > >::_Getal
_TEXT	ENDS
; Function compile flags: /Ogtp
; File c:\program files (x86)\microsoft visual studio\2017\community\vc\tools\msvc\14.10.25017\include\xstring
;	COMDAT ?_Orphan_all@?$_String_alloc@U?$_String_base_types@_WV?$allocator@_W@std@@@std@@@std@@QAEXXZ
_TEXT	SEGMENT
?_Orphan_all@?$_String_alloc@U?$_String_base_types@_WV?$allocator@_W@std@@@std@@@std@@QAEXXZ PROC ; std::_String_alloc<std::_String_base_types<wchar_t,std::allocator<wchar_t> > >::_Orphan_all, COMDAT
; _this$ = ecx

; 1809 : 		_Get_data()._Orphan_all();
; 1810 : 		}

	ret	0
?_Orphan_all@?$_String_alloc@U?$_String_base_types@_WV?$allocator@_W@std@@@std@@@std@@QAEXXZ ENDP ; std::_String_alloc<std::_String_base_types<wchar_t,std::allocator<wchar_t> > >::_Orphan_all
_TEXT	ENDS
; Function compile flags: /Ogtp
; File c:\program files (x86)\microsoft visual studio\2017\community\vc\tools\msvc\14.10.25017\include\xstring
;	COMDAT ?_Myptr@?$_String_alloc@U?$_String_base_types@_WV?$allocator@_W@std@@@std@@@std@@QBEPB_WXZ
_TEXT	SEGMENT
?_Myptr@?$_String_alloc@U?$_String_base_types@_WV?$allocator@_W@std@@@std@@@std@@QBEPB_WXZ PROC ; std::_String_alloc<std::_String_base_types<wchar_t,std::allocator<wchar_t> > >::_Myptr, COMDAT
; _this$ = ecx

; 1628 : 		return (this->_BUF_SIZE <= _Myres);

	cmp	DWORD PTR [ecx+20], 8

; 1621 : 		return (_Large_string_engaged()

	jb	SHORT $LN11@Myptr

; 1690 : 		return (_Get_data()._Myptr());

	mov	eax, DWORD PTR [ecx]

; 1691 : 		}

	ret	0
$LN11@Myptr:

; 1690 : 		return (_Get_data()._Myptr());

	mov	eax, ecx

; 1691 : 		}

	ret	0
?_Myptr@?$_String_alloc@U?$_String_base_types@_WV?$allocator@_W@std@@@std@@@std@@QBEPB_WXZ ENDP ; std::_String_alloc<std::_String_base_types<wchar_t,std::allocator<wchar_t> > >::_Myptr
_TEXT	ENDS
; Function compile flags: /Ogtp
;	COMDAT ??1?$_String_val@U?$_Simple_types@_W@std@@@std@@QAE@XZ
_TEXT	SEGMENT
??1?$_String_val@U?$_Simple_types@_W@std@@@std@@QAE@XZ PROC ; std::_String_val<std::_Simple_types<wchar_t> >::~_String_val<std::_Simple_types<wchar_t> >, COMDAT
; _this$ = ecx
	ret	0
??1?$_String_val@U?$_Simple_types@_W@std@@@std@@QAE@XZ ENDP ; std::_String_val<std::_Simple_types<wchar_t> >::~_String_val<std::_Simple_types<wchar_t> >
_TEXT	ENDS
; Function compile flags: /Ogtp
; File c:\program files (x86)\microsoft visual studio\2017\community\vc\tools\msvc\14.10.25017\include\xstring
;	COMDAT ??1_Bxty@?$_String_val@U?$_Simple_types@_W@std@@@std@@QAE@XZ
_TEXT	SEGMENT
??1_Bxty@?$_String_val@U?$_Simple_types@_W@std@@@std@@QAE@XZ PROC ; std::_String_val<std::_Simple_types<wchar_t> >::_Bxty::~_Bxty, COMDAT
; _this$ = ecx

; 1639 : 			}

	ret	0
??1_Bxty@?$_String_val@U?$_Simple_types@_W@std@@@std@@QAE@XZ ENDP ; std::_String_val<std::_Simple_types<wchar_t> >::_Bxty::~_Bxty
_TEXT	ENDS
; Function compile flags: /Ogtp
; File c:\program files (x86)\microsoft visual studio\2017\community\vc\tools\msvc\14.10.25017\include\xstring
;	COMDAT ?_Large_string_engaged@?$_String_val@U?$_Simple_types@_W@std@@@std@@QBE_NXZ
_TEXT	SEGMENT
?_Large_string_engaged@?$_String_val@U?$_Simple_types@_W@std@@@std@@QBE_NXZ PROC ; std::_String_val<std::_Simple_types<wchar_t> >::_Large_string_engaged, COMDAT
; _this$ = ecx

; 1627 : 		{	// returns whether the large string mode (allocated memory) is engaged

	cmp	DWORD PTR [ecx+20], 8
	setae	al

; 1628 : 		return (this->_BUF_SIZE <= _Myres);
; 1629 : 		}

	ret	0
?_Large_string_engaged@?$_String_val@U?$_Simple_types@_W@std@@@std@@QBE_NXZ ENDP ; std::_String_val<std::_Simple_types<wchar_t> >::_Large_string_engaged
_TEXT	ENDS
; Function compile flags: /Ogtp
; File c:\program files (x86)\microsoft visual studio\2017\community\vc\tools\msvc\14.10.25017\include\xstring
;	COMDAT ?_Myptr@?$_String_val@U?$_Simple_types@_W@std@@@std@@QBEPB_WXZ
_TEXT	SEGMENT
?_Myptr@?$_String_val@U?$_Simple_types@_W@std@@@std@@QBEPB_WXZ PROC ; std::_String_val<std::_Simple_types<wchar_t> >::_Myptr, COMDAT
; _this$ = ecx

; 1628 : 		return (this->_BUF_SIZE <= _Myres);

	cmp	DWORD PTR [ecx+20], 8

; 1621 : 		return (_Large_string_engaged()

	jb	SHORT $LN3@Myptr
	mov	eax, DWORD PTR [ecx]

; 1622 : 			? _Unfancy(_Bx._Ptr)
; 1623 : 			: _Bx._Buf);
; 1624 : 		}

	ret	0
$LN3@Myptr:

; 1621 : 		return (_Large_string_engaged()

	mov	eax, ecx

; 1622 : 			? _Unfancy(_Bx._Ptr)
; 1623 : 			: _Bx._Buf);
; 1624 : 		}

	ret	0
?_Myptr@?$_String_val@U?$_Simple_types@_W@std@@@std@@QBEPB_WXZ ENDP ; std::_String_val<std::_Simple_types<wchar_t> >::_Myptr
_TEXT	ENDS
; Function compile flags: /Ogtp
; File c:\program files (x86)\microsoft visual studio\2017\community\vc\tools\msvc\14.10.25017\include\xmemory0
;	COMDAT ?deallocate@?$_Wrap_alloc@V?$allocator@_W@std@@@std@@QAEXPA_WI@Z
_TEXT	SEGMENT
__Ptr$ = 8						; size = 4
__Count$ = 12						; size = 4
?deallocate@?$_Wrap_alloc@V?$allocator@_W@std@@@std@@QAEXPA_WI@Z PROC ; std::_Wrap_alloc<std::allocator<wchar_t> >::deallocate, COMDAT
; _this$ = ecx

; 1087 : 		{	// deallocate object at _Ptr, ignore size

	npad	2
	push	ebp
	mov	ebp, esp

; 823  : 		_Deallocate(_Ptr, _Count, sizeof (_Ty));

	push	2
	push	DWORD PTR __Count$[ebp]
	push	DWORD PTR __Ptr$[ebp]
	call	?_Deallocate@std@@YAXPAXII@Z		; std::_Deallocate
	add	esp, 12					; 0000000cH

; 1088 : 		_Mybase::deallocate(_Ptr, _Count);
; 1089 : 		}

	pop	ebp
	ret	8
?deallocate@?$_Wrap_alloc@V?$allocator@_W@std@@@std@@QAEXPA_WI@Z ENDP ; std::_Wrap_alloc<std::allocator<wchar_t> >::deallocate
_TEXT	ENDS
; Function compile flags: /Ogtp
; File c:\program files (x86)\microsoft visual studio\2017\community\vc\tools\msvc\14.10.25017\include\xmemory0
;	COMDAT ?deallocate@?$allocator@_W@std@@QAEXPA_WI@Z
_TEXT	SEGMENT
__Ptr$ = 8						; size = 4
__Count$ = 12						; size = 4
?deallocate@?$allocator@_W@std@@QAEXPA_WI@Z PROC	; std::allocator<wchar_t>::deallocate, COMDAT
; _this$ = ecx

; 822  : 		{	// deallocate object at _Ptr

	npad	2
	push	ebp
	mov	ebp, esp

; 823  : 		_Deallocate(_Ptr, _Count, sizeof (_Ty));

	push	2
	push	DWORD PTR __Count$[ebp]
	push	DWORD PTR __Ptr$[ebp]
	call	?_Deallocate@std@@YAXPAXII@Z		; std::_Deallocate
	add	esp, 12					; 0000000cH

; 824  : 		}

	pop	ebp
	ret	8
?deallocate@?$allocator@_W@std@@QAEXPA_WI@Z ENDP	; std::allocator<wchar_t>::deallocate
_TEXT	ENDS
; Function compile flags: /Ogtp
; File c:\program files (x86)\microsoft visual studio\2017\community\vc\tools\msvc\14.10.25017\include\xmemory0
;	COMDAT ?_Deallocate@std@@YAXPAXII@Z
_TEXT	SEGMENT
__Ptr$ = 8						; size = 4
__Count$ = 12						; size = 4
__Sz$ = 16						; size = 4
?_Deallocate@std@@YAXPAXII@Z PROC			; std::_Deallocate, COMDAT

; 96   : 	{	// deallocate storage for _Count elements of size _Sz

	npad	2
	push	ebp
	mov	ebp, esp

; 97   :  #if defined(_M_IX86) || defined(_M_X64)
; 98   : 	_SCL_SECURE_ALWAYS_VALIDATE(_Count <= (size_t)(-1) / _Sz);

	or	eax, -1
	mov	ecx, DWORD PTR __Count$[ebp]
	xor	edx, edx
	div	DWORD PTR __Sz$[ebp]
	cmp	ecx, eax
	jbe	SHORT $LN2@Deallocate
	jmp	DWORD PTR __imp___invalid_parameter_noinfo_noreturn
$LN2@Deallocate:

; 99   : 	const size_t _User_size = _Count * _Sz;

	imul	ecx, DWORD PTR __Sz$[ebp]

; 100  : 	if (_BIG_ALLOCATION_THRESHOLD <= _User_size)

	cmp	ecx, 4096				; 00001000H
	jb	SHORT $LN9@Deallocate

; 101  : 		{	// deallocate large block
; 102  : 		const uintptr_t _Ptr_user = reinterpret_cast<uintptr_t>(_Ptr);
; 103  : 		_SCL_SECURE_ALWAYS_VALIDATE(

	mov	eax, DWORD PTR __Ptr$[ebp]
	test	al, 31					; 0000001fH
	je	SHORT $LN4@Deallocate
	jmp	DWORD PTR __imp___invalid_parameter_noinfo_noreturn
$LN4@Deallocate:

; 104  : 			(_Ptr_user & (_BIG_ALLOCATION_ALIGNMENT - 1)) == 0);
; 105  : 		const uintptr_t _Ptr_ptr = _Ptr_user - sizeof(void *);
; 106  : 		const uintptr_t _Ptr_container =
; 107  : 			*reinterpret_cast<uintptr_t *>(_Ptr_ptr);

	mov	ecx, DWORD PTR [eax-4]

; 108  : 
; 109  :  #ifdef _DEBUG
; 110  : 		// If the following asserts, it likely means that we are performing
; 111  : 		// an aligned delete on memory coming from an unaligned allocation.
; 112  : 		_SCL_SECURE_ALWAYS_VALIDATE(
; 113  : 			reinterpret_cast<uintptr_t *>(_Ptr_ptr)[-1] ==
; 114  : 				_BIG_ALLOCATION_SENTINEL);
; 115  :  #endif /* _DEBUG */
; 116  : 
; 117  : 		// Extra paranoia on aligned allocation/deallocation
; 118  : 		_SCL_SECURE_ALWAYS_VALIDATE(_Ptr_container < _Ptr_user);

	cmp	ecx, eax
	jb	SHORT $LN5@Deallocate
	jmp	DWORD PTR __imp___invalid_parameter_noinfo_noreturn
$LN5@Deallocate:

; 119  : 
; 120  :  #ifdef _DEBUG
; 121  : 		_SCL_SECURE_ALWAYS_VALIDATE(2 * sizeof(void *)
; 122  : 			<= _Ptr_user - _Ptr_container);
; 123  : 
; 124  :  #else /* _DEBUG */
; 125  : 		_SCL_SECURE_ALWAYS_VALIDATE(sizeof(void *)

	sub	eax, ecx
	cmp	eax, 4
	jae	SHORT $LN6@Deallocate
	jmp	DWORD PTR __imp___invalid_parameter_noinfo_noreturn
$LN6@Deallocate:

; 126  : 			<= _Ptr_user - _Ptr_container);
; 127  :  #endif /* _DEBUG */
; 128  : 
; 129  : 		_SCL_SECURE_ALWAYS_VALIDATE(_Ptr_user - _Ptr_container

	cmp	eax, 35					; 00000023H
	jbe	SHORT $LN3@Deallocate
	jmp	DWORD PTR __imp___invalid_parameter_noinfo_noreturn
$LN9@Deallocate:

; 130  : 			<= _NON_USER_SIZE);
; 131  : 
; 132  : 		_Ptr = reinterpret_cast<void *>(_Ptr_container);

	mov	ecx, DWORD PTR __Ptr$[ebp]
$LN3@Deallocate:

; 133  : 		}
; 134  : 
; 135  :  #else /* defined(_M_IX86) || defined(_M_X64) */
; 136  : 	static_cast<void>(_Count);
; 137  : 	static_cast<void>(_Sz);
; 138  :  #endif /* defined(_M_IX86) || defined(_M_X64) */
; 139  : 
; 140  : 	::operator delete(_Ptr);

	push	ecx
	call	??3@YAXPAX@Z				; operator delete
	add	esp, 4

; 141  : 	}

	pop	ebp
	ret	0
?_Deallocate@std@@YAXPAXII@Z ENDP			; std::_Deallocate
_TEXT	ENDS
; Function compile flags: /Ogtp
; File c:\program files (x86)\microsoft visual studio\2017\community\vc\tools\msvc\14.10.25017\include\xutility
;	COMDAT ?_Orphan_all@_Container_base0@std@@QAEXXZ
_TEXT	SEGMENT
?_Orphan_all@_Container_base0@std@@QAEXXZ PROC		; std::_Container_base0::_Orphan_all, COMDAT
; _this$ = ecx

; 64   : 		}

	ret	0
?_Orphan_all@_Container_base0@std@@QAEXXZ ENDP		; std::_Container_base0::_Orphan_all
_TEXT	ENDS
; Function compile flags: /Ogtp
; File c:\program files (x86)\microsoft visual studio\2017\community\vc\tools\msvc\14.10.25017\include\iosfwd
;	COMDAT ?assign@?$char_traits@_W@std@@SAXAA_WAB_W@Z
_TEXT	SEGMENT
__Left$ = 8						; size = 4
__Right$ = 12						; size = 4
?assign@?$char_traits@_W@std@@SAXAA_WAB_W@Z PROC	; std::char_traits<wchar_t>::assign, COMDAT

; 325  : 		{	// assign an element

	npad	2
	push	ebp
	mov	ebp, esp

; 326  : 		_Left = _Right;

	mov	eax, DWORD PTR __Right$[ebp]
	mov	cx, WORD PTR [eax]
	mov	eax, DWORD PTR __Left$[ebp]
	mov	WORD PTR [eax], cx

; 327  : 		}

	pop	ebp
	ret	0
?assign@?$char_traits@_W@std@@SAXAA_WAB_W@Z ENDP	; std::char_traits<wchar_t>::assign
_TEXT	ENDS
; Function compile flags: /Ogtp
; File c:\program files (x86)\windows kits\8.1\include\um\winbase.h
;	COMDAT ?_InterlockedCompareExchange@@YAKPCKKK@Z
_TEXT	SEGMENT
_Destination$ = 8					; size = 4
_Exchange$ = 12						; size = 4
_Comperand$ = 16					; size = 4
?_InterlockedCompareExchange@@YAKPCKKK@Z PROC		; _InterlockedCompareExchange, COMDAT

; 9002 : {

	npad	2
	push	ebp
	mov	ebp, esp

; 9003 :     return (unsigned long) _InterlockedCompareExchange((volatile long*) Destination, (long) Exchange, (long) Comperand);

	mov	edx, DWORD PTR _Exchange$[ebp]
	mov	ecx, DWORD PTR _Destination$[ebp]
	mov	eax, DWORD PTR _Comperand$[ebp]
	lock	 cmpxchg DWORD PTR [ecx], edx

; 9004 : }

	pop	ebp
	ret	0
?_InterlockedCompareExchange@@YAKPCKKK@Z ENDP		; _InterlockedCompareExchange
_TEXT	ENDS
; Function compile flags: /Ogtp
; File c:\program files (x86)\windows kits\8.1\include\um\winnt.h
;	COMDAT _ReadAcquire
_TEXT	SEGMENT
_Source$ = 8						; size = 4
_ReadAcquire PROC					; COMDAT

; 8059 : {

	npad	2
	push	ebp
	mov	ebp, esp

; 8060 : 
; 8061 :     LONG Value;
; 8062 : 
; 8063 :     Value = *Source;

	mov	eax, DWORD PTR _Source$[ebp]
	mov	eax, DWORD PTR [eax]

; 8064 :     return Value;
; 8065 : }

	pop	ebp
	ret	0
_ReadAcquire ENDP
_TEXT	ENDS
; Function compile flags: /Ogtp
;	COMDAT ??_H@YGXPAXIIP6EPAX0@Z@Z
_TEXT	SEGMENT
___t$ = 8						; size = 4
___s$ = 12						; size = 4
___n$ = 16						; size = 4
___f$ = 20						; size = 4
??_H@YGXPAXIIP6EPAX0@Z@Z PROC				; `vector constructor iterator', COMDAT
	npad	2
	push	ebp
	mov	ebp, esp
	push	esi
	mov	esi, DWORD PTR ___n$[ebp]
	test	esi, esi
	je	SHORT $LN6@vector
	push	ebx
	mov	ebx, DWORD PTR ___f$[ebp]
	push	edi
	mov	edi, DWORD PTR ___t$[ebp]
$LL2@vector:
	mov	ecx, edi
	call	ebx
	add	edi, DWORD PTR ___s$[ebp]
	sub	esi, 1
	jne	SHORT $LL2@vector
	pop	edi
	pop	ebx
$LN6@vector:
	pop	esi
	pop	ebp
	ret	16					; 00000010H
??_H@YGXPAXIIP6EPAX0@Z@Z ENDP				; `vector constructor iterator'
_TEXT	ENDS
END
