; Listing generated by Microsoft (R) Optimizing Compiler Version 19.10.25019.0 

	TITLE	C:\Users\andon\Source\Repos\SpecialK\src\ImGui\EULA.cpp
	.686P
	.XMM
	include listing.inc
	.model	flat

INCLUDELIB MSVCRT
INCLUDELIB OLDNAMES

CONST	SEGMENT
$SG129276 DB	'W', 00H, 'A', 00H, 'V', 00H, 'E', 00H, 00H, 00H
$SG129279 DB	00H
$SG129282 DB	00H
$SG129361 DB	'%ws Software License Agreement', 00H
$SG129418 DB	00H
$SG129365 DB	'EULA_Body', 00H
$SG129419 DB	00H
$SG129435 DB	00H
$SG129364 DB	'Use of this software is granted on the condition that an'
	DB	'y products being modified have been licensed to you under the'
	DB	' terms and conditions set forth by their respective copyright'
	DB	' holders.', 0aH, 00H
	ORG $+3
$SG129366 DB	'EULA_Inset', 00H
	ORG $+1
$SG129368 DB	'Overview of Products Unlicensed', 00H
$SG129369 DB	'Overview of Products Licensed', 00H
	ORG $+2
$SG129370 DB	'%s', 00H
	ORG $+1
$SG129372 DB	'7-Zip', 00H
	ORG $+2
$SG129373 DB	'%s', 00H
	ORG $+1
$SG129375 DB	'ADL', 00H
$SG129376 DB	'%s', 00H
	ORG $+1
$SG129378 DB	'CEGUI (D3D9/11/GL)', 00H
	ORG $+1
$SG129379 DB	'%s', 00H
	ORG $+1
$SG129382 DB	'DirectXTex (D3D11/12)', 00H
	ORG $+2
$SG129383 DB	'%s', 00H
	ORG $+1
$SG129385 DB	'FreeType 2', 00H
	ORG $+1
$SG129386 DB	'%s', 00H
	ORG $+1
$SG129388 DB	'GLEW (OpenGL)', 00H
	ORG $+2
$SG129389 DB	'%s', 00H
	ORG $+1
$SG129391 DB	'GLM v 0.9.4.5', 00H
	ORG $+2
$SG129392 DB	'%s', 00H
	ORG $+1
$SG129394 DB	'ImGui', 00H
	ORG $+2
$SG129395 DB	'%s', 00H
	ORG $+1
$SG129397 DB	'MinHook', 00H
$SG129398 DB	'%s', 00H
	ORG $+1
$SG129400 DB	'NvAPI', 00H
	ORG $+2
$SG129401 DB	'%s', 00H
	ORG $+1
$SG129403 DB	'PCRE', 00H
	ORG $+3
$SG129404 DB	'%s', 00H
	ORG $+1
$SG129405 DB	'%s', 00H
	ORG $+1
$SG129407 DB	'Special K', 00H
	ORG $+2
$SG129408 DB	'%s', 00H
	ORG $+1
$SG129410 DB	'STB', 00H
$SG129411 DB	'%s', 00H
	ORG $+1
$SG129413 DB	'Vulkan', 00H
	ORG $+1
$SG129414 DB	'%s', 00H
	ORG $+1
$SG129416 DB	'ZLIB', 00H
	ORG $+3
$SG129417 DB	'%s', 00H
	ORG $+1
$SG129421 DB	' Decline ', 00H
	ORG $+2
$SG129423 DB	'WARNING:  ', 00H
	ORG $+1
$SG129424 DB	'Game will exit!', 00H
$SG129426 DB	'I agree ... never show me this again!', 00H
	ORG $+2
$SG129428 DB	' Accept ', 00H
	ORG $+3
$SG129430 DB	'S', 00H, 'p', 00H, 'e', 00H, 'c', 00H, 'i', 00H, 'a', 00H
	DB	'l', 00H, 'K', 00H, 00H, 00H
	ORG $+2
$SG129432 DB	'Read the Yellow Text', 00H
	ORG $+3
$SG129433 DB	'Please use the other button, you already broke the terms'
	DB	'.', 00H
	ORG $+2
$SG129434 DB	'You may be able to find a modified version with these te'
	DB	'rms removed', 00H
	ORG $+4
$SG129436 DB	'The authors listed above are not responsible for said mo'
	DB	'dified version and will not provide you support no matter how'
	DB	' much you make life difficult for them.', 00H
CONST	ENDS
PUBLIC	_wmemcpy
PUBLIC	_wmemmove
PUBLIC	??2@YAPAXIPAX@Z					; operator new
PUBLIC	?length@?$char_traits@_W@std@@SAIQB_W@Z		; std::char_traits<wchar_t>::length
PUBLIC	?copy@?$char_traits@_W@std@@SAPA_WQA_WQB_WI@Z	; std::char_traits<wchar_t>::copy
PUBLIC	?move@?$char_traits@_W@std@@SAPA_WQA_WQB_WI@Z	; std::char_traits<wchar_t>::move
PUBLIC	?assign@?$char_traits@_W@std@@SAXAA_WAB_W@Z	; std::char_traits<wchar_t>::assign
PUBLIC	?length@?$char_traits@D@std@@SAIQBD@Z		; std::char_traits<char>::length
PUBLIC	?copy@?$char_traits@D@std@@SAPADQADQBDI@Z	; std::char_traits<char>::copy
PUBLIC	?move@?$char_traits@D@std@@SAPADQADQBDI@Z	; std::char_traits<char>::move
PUBLIC	?assign@?$char_traits@D@std@@SAXAADABD@Z	; std::char_traits<char>::assign
PUBLIC	?_Orphan_all@_Container_base0@std@@QAEXXZ	; std::_Container_base0::_Orphan_all
PUBLIC	?_Allocate@std@@YAPAXII_N@Z			; std::_Allocate
PUBLIC	?_Deallocate@std@@YAXPAXII@Z			; std::_Deallocate
PUBLIC	??0?$allocator@D@std@@QAE@XZ			; std::allocator<char>::allocator<char>
PUBLIC	??0?$allocator@D@std@@QAE@ABV01@@Z		; std::allocator<char>::allocator<char>
PUBLIC	?deallocate@?$allocator@D@std@@QAEXPADI@Z	; std::allocator<char>::deallocate
PUBLIC	?allocate@?$allocator@D@std@@QAEPADI@Z		; std::allocator<char>::allocate
PUBLIC	?max_size@?$allocator@D@std@@QBEIXZ		; std::allocator<char>::max_size
PUBLIC	?max_size@?$allocator_traits@V?$allocator@D@std@@@std@@SAIABV?$allocator@D@2@@Z ; std::allocator_traits<std::allocator<char> >::max_size
PUBLIC	??0?$_Wrap_alloc@V?$allocator@D@std@@@std@@QAE@XZ ; std::_Wrap_alloc<std::allocator<char> >::_Wrap_alloc<std::allocator<char> >
PUBLIC	??0?$_Wrap_alloc@V?$allocator@D@std@@@std@@QAE@$$QAU01@@Z ; std::_Wrap_alloc<std::allocator<char> >::_Wrap_alloc<std::allocator<char> >
PUBLIC	?allocate@?$_Wrap_alloc@V?$allocator@D@std@@@std@@QAEPADI@Z ; std::_Wrap_alloc<std::allocator<char> >::allocate
PUBLIC	?deallocate@?$_Wrap_alloc@V?$allocator@D@std@@@std@@QAEXPADI@Z ; std::_Wrap_alloc<std::allocator<char> >::deallocate
PUBLIC	?max_size@?$_Wrap_alloc@V?$allocator@D@std@@@std@@QBEIU_Nil@2@@Z ; std::_Wrap_alloc<std::allocator<char> >::max_size
PUBLIC	??0?$_String_val@U?$_Simple_types@D@std@@@std@@QAE@XZ ; std::_String_val<std::_Simple_types<char> >::_String_val<std::_Simple_types<char> >
PUBLIC	?_Myptr@?$_String_val@U?$_Simple_types@D@std@@@std@@QAEPADXZ ; std::_String_val<std::_Simple_types<char> >::_Myptr
PUBLIC	?_Myptr@?$_String_val@U?$_Simple_types@D@std@@@std@@QBEPBDXZ ; std::_String_val<std::_Simple_types<char> >::_Myptr
PUBLIC	?_Large_string_engaged@?$_String_val@U?$_Simple_types@D@std@@@std@@QBE_NXZ ; std::_String_val<std::_Simple_types<char> >::_Large_string_engaged
PUBLIC	??0_Bxty@?$_String_val@U?$_Simple_types@D@std@@@std@@QAE@XZ ; std::_String_val<std::_Simple_types<char> >::_Bxty::_Bxty
PUBLIC	??1_Bxty@?$_String_val@U?$_Simple_types@D@std@@@std@@QAE@XZ ; std::_String_val<std::_Simple_types<char> >::_Bxty::~_Bxty
PUBLIC	??1?$_String_val@U?$_Simple_types@D@std@@@std@@QAE@XZ ; std::_String_val<std::_Simple_types<char> >::~_String_val<std::_Simple_types<char> >
PUBLIC	?_Myptr@?$_String_alloc@U?$_String_base_types@DV?$allocator@D@std@@@std@@@std@@QAEPADXZ ; std::_String_alloc<std::_String_base_types<char,std::allocator<char> > >::_Myptr
PUBLIC	?_Myptr@?$_String_alloc@U?$_String_base_types@DV?$allocator@D@std@@@std@@@std@@QBEPBDXZ ; std::_String_alloc<std::_String_base_types<char,std::allocator<char> > >::_Myptr
PUBLIC	??0?$_String_alloc@U?$_String_base_types@DV?$allocator@D@std@@@std@@@std@@QAE@XZ ; std::_String_alloc<std::_String_base_types<char,std::allocator<char> > >::_String_alloc<std::_String_base_types<char,std::allocator<char> > >
PUBLIC	?_Orphan_all@?$_String_alloc@U?$_String_base_types@DV?$allocator@D@std@@@std@@@std@@QAEXXZ ; std::_String_alloc<std::_String_base_types<char,std::allocator<char> > >::_Orphan_all
PUBLIC	?_Getal@?$_String_alloc@U?$_String_base_types@DV?$allocator@D@std@@@std@@@std@@QAEAAU?$_Wrap_alloc@V?$allocator@D@std@@@2@XZ ; std::_String_alloc<std::_String_base_types<char,std::allocator<char> > >::_Getal
PUBLIC	?_Getal@?$_String_alloc@U?$_String_base_types@DV?$allocator@D@std@@@std@@@std@@QBEABU?$_Wrap_alloc@V?$allocator@D@std@@@2@XZ ; std::_String_alloc<std::_String_base_types<char,std::allocator<char> > >::_Getal
PUBLIC	?_Get_data@?$_String_alloc@U?$_String_base_types@DV?$allocator@D@std@@@std@@@std@@QAEAAV?$_String_val@U?$_Simple_types@D@std@@@2@XZ ; std::_String_alloc<std::_String_base_types<char,std::allocator<char> > >::_Get_data
PUBLIC	?_Get_data@?$_String_alloc@U?$_String_base_types@DV?$allocator@D@std@@@std@@@std@@QBEABV?$_String_val@U?$_Simple_types@D@std@@@2@XZ ; std::_String_alloc<std::_String_base_types<char,std::allocator<char> > >::_Get_data
PUBLIC	?_Mysize@?$_String_alloc@U?$_String_base_types@DV?$allocator@D@std@@@std@@@std@@QAEAAIXZ ; std::_String_alloc<std::_String_base_types<char,std::allocator<char> > >::_Mysize
PUBLIC	?_Mysize@?$_String_alloc@U?$_String_base_types@DV?$allocator@D@std@@@std@@@std@@QBEABIXZ ; std::_String_alloc<std::_String_base_types<char,std::allocator<char> > >::_Mysize
PUBLIC	?_Myres@?$_String_alloc@U?$_String_base_types@DV?$allocator@D@std@@@std@@@std@@QAEAAIXZ ; std::_String_alloc<std::_String_base_types<char,std::allocator<char> > >::_Myres
PUBLIC	?_Get_first@?$_Compressed_pair@U?$_Wrap_alloc@V?$allocator@D@std@@@std@@V?$_String_val@U?$_Simple_types@D@std@@@2@$00@std@@QAEAAU?$_Wrap_alloc@V?$allocator@D@std@@@2@XZ ; std::_Compressed_pair<std::_Wrap_alloc<std::allocator<char> >,std::_String_val<std::_Simple_types<char> >,1>::_Get_first
PUBLIC	?_Get_first@?$_Compressed_pair@U?$_Wrap_alloc@V?$allocator@D@std@@@std@@V?$_String_val@U?$_Simple_types@D@std@@@2@$00@std@@QBEABU?$_Wrap_alloc@V?$allocator@D@std@@@2@XZ ; std::_Compressed_pair<std::_Wrap_alloc<std::allocator<char> >,std::_String_val<std::_Simple_types<char> >,1>::_Get_first
PUBLIC	?_Get_second@?$_Compressed_pair@U?$_Wrap_alloc@V?$allocator@D@std@@@std@@V?$_String_val@U?$_Simple_types@D@std@@@2@$00@std@@QAEAAV?$_String_val@U?$_Simple_types@D@std@@@2@XZ ; std::_Compressed_pair<std::_Wrap_alloc<std::allocator<char> >,std::_String_val<std::_Simple_types<char> >,1>::_Get_second
PUBLIC	?_Get_second@?$_Compressed_pair@U?$_Wrap_alloc@V?$allocator@D@std@@@std@@V?$_String_val@U?$_Simple_types@D@std@@@2@$00@std@@QBEABV?$_String_val@U?$_Simple_types@D@std@@@2@XZ ; std::_Compressed_pair<std::_Wrap_alloc<std::allocator<char> >,std::_String_val<std::_Simple_types<char> >,1>::_Get_second
PUBLIC	??1?$_Compressed_pair@U?$_Wrap_alloc@V?$allocator@D@std@@@std@@V?$_String_val@U?$_Simple_types@D@std@@@2@$00@std@@QAE@XZ ; std::_Compressed_pair<std::_Wrap_alloc<std::allocator<char> >,std::_String_val<std::_Simple_types<char> >,1>::~_Compressed_pair<std::_Wrap_alloc<std::allocator<char> >,std::_String_val<std::_Simple_types<char> >,1>
PUBLIC	??1?$_String_alloc@U?$_String_base_types@DV?$allocator@D@std@@@std@@@std@@QAE@XZ ; std::_String_alloc<std::_String_base_types<char,std::allocator<char> > >::~_String_alloc<std::_String_base_types<char,std::allocator<char> > >
PUBLIC	??0?$basic_string@DU?$char_traits@D@std@@V?$allocator@D@2@@std@@QAE@QBD@Z ; std::basic_string<char,std::char_traits<char>,std::allocator<char> >::basic_string<char,std::char_traits<char>,std::allocator<char> >
PUBLIC	??0?$basic_string@DU?$char_traits@D@std@@V?$allocator@D@2@@std@@QAE@$$QAV01@@Z ; std::basic_string<char,std::char_traits<char>,std::allocator<char> >::basic_string<char,std::char_traits<char>,std::allocator<char> >
PUBLIC	?_Assign_rv_contents_with_alloc_always_equal@?$basic_string@DU?$char_traits@D@std@@V?$allocator@D@2@@std@@QAEX$$QAV12@U?$integral_constant@_N$00@2@@Z ; std::basic_string<char,std::char_traits<char>,std::allocator<char> >::_Assign_rv_contents_with_alloc_always_equal
PUBLIC	??1?$basic_string@DU?$char_traits@D@std@@V?$allocator@D@2@@std@@QAE@XZ ; std::basic_string<char,std::char_traits<char>,std::allocator<char> >::~basic_string<char,std::char_traits<char>,std::allocator<char> >
PUBLIC	?assign@?$basic_string@DU?$char_traits@D@std@@V?$allocator@D@2@@std@@QAEAAV12@ABV12@II@Z ; std::basic_string<char,std::char_traits<char>,std::allocator<char> >::assign
PUBLIC	?assign@?$basic_string@DU?$char_traits@D@std@@V?$allocator@D@2@@std@@QAEAAV12@QBDI@Z ; std::basic_string<char,std::char_traits<char>,std::allocator<char> >::assign
PUBLIC	?assign@?$basic_string@DU?$char_traits@D@std@@V?$allocator@D@2@@std@@QAEAAV12@QBD@Z ; std::basic_string<char,std::char_traits<char>,std::allocator<char> >::assign
PUBLIC	?erase@?$basic_string@DU?$char_traits@D@std@@V?$allocator@D@2@@std@@QAEAAV12@I@Z ; std::basic_string<char,std::char_traits<char>,std::allocator<char> >::erase
PUBLIC	?erase@?$basic_string@DU?$char_traits@D@std@@V?$allocator@D@2@@std@@QAEAAV12@II@Z ; std::basic_string<char,std::char_traits<char>,std::allocator<char> >::erase
PUBLIC	?c_str@?$basic_string@DU?$char_traits@D@std@@V?$allocator@D@2@@std@@QBEPBDXZ ; std::basic_string<char,std::char_traits<char>,std::allocator<char> >::c_str
PUBLIC	?max_size@?$basic_string@DU?$char_traits@D@std@@V?$allocator@D@2@@std@@QBEIXZ ; std::basic_string<char,std::char_traits<char>,std::allocator<char> >::max_size
PUBLIC	?_Clamp_suffix_size@?$basic_string@DU?$char_traits@D@std@@V?$allocator@D@2@@std@@QBEIII@Z ; std::basic_string<char,std::char_traits<char>,std::allocator<char> >::_Clamp_suffix_size
PUBLIC	?_Copy@?$basic_string@DU?$char_traits@D@std@@V?$allocator@D@2@@std@@QAEXI@Z ; std::basic_string<char,std::char_traits<char>,std::allocator<char> >::_Copy
PUBLIC	?_Eos@?$basic_string@DU?$char_traits@D@std@@V?$allocator@D@2@@std@@QAEXI@Z ; std::basic_string<char,std::char_traits<char>,std::allocator<char> >::_Eos
PUBLIC	?_Grow@?$basic_string@DU?$char_traits@D@std@@V?$allocator@D@2@@std@@QAE_NI@Z ; std::basic_string<char,std::char_traits<char>,std::allocator<char> >::_Grow
PUBLIC	?_Inside@?$basic_string@DU?$char_traits@D@std@@V?$allocator@D@2@@std@@QBE_NQBD@Z ; std::basic_string<char,std::char_traits<char>,std::allocator<char> >::_Inside
PUBLIC	?_Tidy_init@?$basic_string@DU?$char_traits@D@std@@V?$allocator@D@2@@std@@QAEXXZ ; std::basic_string<char,std::char_traits<char>,std::allocator<char> >::_Tidy_init
PUBLIC	?_Tidy_deallocate@?$basic_string@DU?$char_traits@D@std@@V?$allocator@D@2@@std@@QAEXXZ ; std::basic_string<char,std::char_traits<char>,std::allocator<char> >::_Tidy_deallocate
PUBLIC	?_Xlen@?$basic_string@DU?$char_traits@D@std@@V?$allocator@D@2@@std@@SAXXZ ; std::basic_string<char,std::char_traits<char>,std::allocator<char> >::_Xlen
PUBLIC	?_Check_offset@?$basic_string@DU?$char_traits@D@std@@V?$allocator@D@2@@std@@QBEXI@Z ; std::basic_string<char,std::char_traits<char>,std::allocator<char> >::_Check_offset
PUBLIC	?_Xran@?$basic_string@DU?$char_traits@D@std@@V?$allocator@D@2@@std@@SAXXZ ; std::basic_string<char,std::char_traits<char>,std::allocator<char> >::_Xran
PUBLIC	??0?$allocator@_W@std@@QAE@XZ			; std::allocator<wchar_t>::allocator<wchar_t>
PUBLIC	?deallocate@?$allocator@_W@std@@QAEXPA_WI@Z	; std::allocator<wchar_t>::deallocate
PUBLIC	?allocate@?$allocator@_W@std@@QAEPA_WI@Z	; std::allocator<wchar_t>::allocate
PUBLIC	?max_size@?$allocator@_W@std@@QBEIXZ		; std::allocator<wchar_t>::max_size
PUBLIC	?max_size@?$allocator_traits@V?$allocator@_W@std@@@std@@SAIABV?$allocator@_W@2@@Z ; std::allocator_traits<std::allocator<wchar_t> >::max_size
PUBLIC	??0?$_Wrap_alloc@V?$allocator@_W@std@@@std@@QAE@XZ ; std::_Wrap_alloc<std::allocator<wchar_t> >::_Wrap_alloc<std::allocator<wchar_t> >
PUBLIC	?allocate@?$_Wrap_alloc@V?$allocator@_W@std@@@std@@QAEPA_WI@Z ; std::_Wrap_alloc<std::allocator<wchar_t> >::allocate
PUBLIC	?deallocate@?$_Wrap_alloc@V?$allocator@_W@std@@@std@@QAEXPA_WI@Z ; std::_Wrap_alloc<std::allocator<wchar_t> >::deallocate
PUBLIC	?max_size@?$_Wrap_alloc@V?$allocator@_W@std@@@std@@QBEIU_Nil@2@@Z ; std::_Wrap_alloc<std::allocator<wchar_t> >::max_size
PUBLIC	??0?$_String_val@U?$_Simple_types@_W@std@@@std@@QAE@XZ ; std::_String_val<std::_Simple_types<wchar_t> >::_String_val<std::_Simple_types<wchar_t> >
PUBLIC	?_Myptr@?$_String_val@U?$_Simple_types@_W@std@@@std@@QAEPA_WXZ ; std::_String_val<std::_Simple_types<wchar_t> >::_Myptr
PUBLIC	?_Myptr@?$_String_val@U?$_Simple_types@_W@std@@@std@@QBEPB_WXZ ; std::_String_val<std::_Simple_types<wchar_t> >::_Myptr
PUBLIC	?_Large_string_engaged@?$_String_val@U?$_Simple_types@_W@std@@@std@@QBE_NXZ ; std::_String_val<std::_Simple_types<wchar_t> >::_Large_string_engaged
PUBLIC	??0_Bxty@?$_String_val@U?$_Simple_types@_W@std@@@std@@QAE@XZ ; std::_String_val<std::_Simple_types<wchar_t> >::_Bxty::_Bxty
PUBLIC	??1_Bxty@?$_String_val@U?$_Simple_types@_W@std@@@std@@QAE@XZ ; std::_String_val<std::_Simple_types<wchar_t> >::_Bxty::~_Bxty
PUBLIC	??1?$_String_val@U?$_Simple_types@_W@std@@@std@@QAE@XZ ; std::_String_val<std::_Simple_types<wchar_t> >::~_String_val<std::_Simple_types<wchar_t> >
PUBLIC	?_Myptr@?$_String_alloc@U?$_String_base_types@_WV?$allocator@_W@std@@@std@@@std@@QAEPA_WXZ ; std::_String_alloc<std::_String_base_types<wchar_t,std::allocator<wchar_t> > >::_Myptr
PUBLIC	?_Myptr@?$_String_alloc@U?$_String_base_types@_WV?$allocator@_W@std@@@std@@@std@@QBEPB_WXZ ; std::_String_alloc<std::_String_base_types<wchar_t,std::allocator<wchar_t> > >::_Myptr
PUBLIC	??0?$_String_alloc@U?$_String_base_types@_WV?$allocator@_W@std@@@std@@@std@@QAE@XZ ; std::_String_alloc<std::_String_base_types<wchar_t,std::allocator<wchar_t> > >::_String_alloc<std::_String_base_types<wchar_t,std::allocator<wchar_t> > >
PUBLIC	?_Orphan_all@?$_String_alloc@U?$_String_base_types@_WV?$allocator@_W@std@@@std@@@std@@QAEXXZ ; std::_String_alloc<std::_String_base_types<wchar_t,std::allocator<wchar_t> > >::_Orphan_all
PUBLIC	?_Getal@?$_String_alloc@U?$_String_base_types@_WV?$allocator@_W@std@@@std@@@std@@QAEAAU?$_Wrap_alloc@V?$allocator@_W@std@@@2@XZ ; std::_String_alloc<std::_String_base_types<wchar_t,std::allocator<wchar_t> > >::_Getal
PUBLIC	?_Getal@?$_String_alloc@U?$_String_base_types@_WV?$allocator@_W@std@@@std@@@std@@QBEABU?$_Wrap_alloc@V?$allocator@_W@std@@@2@XZ ; std::_String_alloc<std::_String_base_types<wchar_t,std::allocator<wchar_t> > >::_Getal
PUBLIC	?_Get_data@?$_String_alloc@U?$_String_base_types@_WV?$allocator@_W@std@@@std@@@std@@QAEAAV?$_String_val@U?$_Simple_types@_W@std@@@2@XZ ; std::_String_alloc<std::_String_base_types<wchar_t,std::allocator<wchar_t> > >::_Get_data
PUBLIC	?_Get_data@?$_String_alloc@U?$_String_base_types@_WV?$allocator@_W@std@@@std@@@std@@QBEABV?$_String_val@U?$_Simple_types@_W@std@@@2@XZ ; std::_String_alloc<std::_String_base_types<wchar_t,std::allocator<wchar_t> > >::_Get_data
PUBLIC	?_Mysize@?$_String_alloc@U?$_String_base_types@_WV?$allocator@_W@std@@@std@@@std@@QAEAAIXZ ; std::_String_alloc<std::_String_base_types<wchar_t,std::allocator<wchar_t> > >::_Mysize
PUBLIC	?_Mysize@?$_String_alloc@U?$_String_base_types@_WV?$allocator@_W@std@@@std@@@std@@QBEABIXZ ; std::_String_alloc<std::_String_base_types<wchar_t,std::allocator<wchar_t> > >::_Mysize
PUBLIC	?_Myres@?$_String_alloc@U?$_String_base_types@_WV?$allocator@_W@std@@@std@@@std@@QAEAAIXZ ; std::_String_alloc<std::_String_base_types<wchar_t,std::allocator<wchar_t> > >::_Myres
PUBLIC	?_Get_first@?$_Compressed_pair@U?$_Wrap_alloc@V?$allocator@_W@std@@@std@@V?$_String_val@U?$_Simple_types@_W@std@@@2@$00@std@@QAEAAU?$_Wrap_alloc@V?$allocator@_W@std@@@2@XZ ; std::_Compressed_pair<std::_Wrap_alloc<std::allocator<wchar_t> >,std::_String_val<std::_Simple_types<wchar_t> >,1>::_Get_first
PUBLIC	?_Get_first@?$_Compressed_pair@U?$_Wrap_alloc@V?$allocator@_W@std@@@std@@V?$_String_val@U?$_Simple_types@_W@std@@@2@$00@std@@QBEABU?$_Wrap_alloc@V?$allocator@_W@std@@@2@XZ ; std::_Compressed_pair<std::_Wrap_alloc<std::allocator<wchar_t> >,std::_String_val<std::_Simple_types<wchar_t> >,1>::_Get_first
PUBLIC	?_Get_second@?$_Compressed_pair@U?$_Wrap_alloc@V?$allocator@_W@std@@@std@@V?$_String_val@U?$_Simple_types@_W@std@@@2@$00@std@@QAEAAV?$_String_val@U?$_Simple_types@_W@std@@@2@XZ ; std::_Compressed_pair<std::_Wrap_alloc<std::allocator<wchar_t> >,std::_String_val<std::_Simple_types<wchar_t> >,1>::_Get_second
PUBLIC	?_Get_second@?$_Compressed_pair@U?$_Wrap_alloc@V?$allocator@_W@std@@@std@@V?$_String_val@U?$_Simple_types@_W@std@@@2@$00@std@@QBEABV?$_String_val@U?$_Simple_types@_W@std@@@2@XZ ; std::_Compressed_pair<std::_Wrap_alloc<std::allocator<wchar_t> >,std::_String_val<std::_Simple_types<wchar_t> >,1>::_Get_second
PUBLIC	??1?$_Compressed_pair@U?$_Wrap_alloc@V?$allocator@_W@std@@@std@@V?$_String_val@U?$_Simple_types@_W@std@@@2@$00@std@@QAE@XZ ; std::_Compressed_pair<std::_Wrap_alloc<std::allocator<wchar_t> >,std::_String_val<std::_Simple_types<wchar_t> >,1>::~_Compressed_pair<std::_Wrap_alloc<std::allocator<wchar_t> >,std::_String_val<std::_Simple_types<wchar_t> >,1>
PUBLIC	??1?$_String_alloc@U?$_String_base_types@_WV?$allocator@_W@std@@@std@@@std@@QAE@XZ ; std::_String_alloc<std::_String_base_types<wchar_t,std::allocator<wchar_t> > >::~_String_alloc<std::_String_base_types<wchar_t,std::allocator<wchar_t> > >
PUBLIC	??0?$basic_string@_WU?$char_traits@_W@std@@V?$allocator@_W@2@@std@@QAE@QB_W@Z ; std::basic_string<wchar_t,std::char_traits<wchar_t>,std::allocator<wchar_t> >::basic_string<wchar_t,std::char_traits<wchar_t>,std::allocator<wchar_t> >
PUBLIC	??1?$basic_string@_WU?$char_traits@_W@std@@V?$allocator@_W@2@@std@@QAE@XZ ; std::basic_string<wchar_t,std::char_traits<wchar_t>,std::allocator<wchar_t> >::~basic_string<wchar_t,std::char_traits<wchar_t>,std::allocator<wchar_t> >
PUBLIC	?assign@?$basic_string@_WU?$char_traits@_W@std@@V?$allocator@_W@2@@std@@QAEAAV12@ABV12@II@Z ; std::basic_string<wchar_t,std::char_traits<wchar_t>,std::allocator<wchar_t> >::assign
PUBLIC	?assign@?$basic_string@_WU?$char_traits@_W@std@@V?$allocator@_W@2@@std@@QAEAAV12@QB_WI@Z ; std::basic_string<wchar_t,std::char_traits<wchar_t>,std::allocator<wchar_t> >::assign
PUBLIC	?assign@?$basic_string@_WU?$char_traits@_W@std@@V?$allocator@_W@2@@std@@QAEAAV12@QB_W@Z ; std::basic_string<wchar_t,std::char_traits<wchar_t>,std::allocator<wchar_t> >::assign
PUBLIC	?erase@?$basic_string@_WU?$char_traits@_W@std@@V?$allocator@_W@2@@std@@QAEAAV12@I@Z ; std::basic_string<wchar_t,std::char_traits<wchar_t>,std::allocator<wchar_t> >::erase
PUBLIC	?erase@?$basic_string@_WU?$char_traits@_W@std@@V?$allocator@_W@2@@std@@QAEAAV12@II@Z ; std::basic_string<wchar_t,std::char_traits<wchar_t>,std::allocator<wchar_t> >::erase
PUBLIC	?c_str@?$basic_string@_WU?$char_traits@_W@std@@V?$allocator@_W@2@@std@@QBEPB_WXZ ; std::basic_string<wchar_t,std::char_traits<wchar_t>,std::allocator<wchar_t> >::c_str
PUBLIC	?max_size@?$basic_string@_WU?$char_traits@_W@std@@V?$allocator@_W@2@@std@@QBEIXZ ; std::basic_string<wchar_t,std::char_traits<wchar_t>,std::allocator<wchar_t> >::max_size
PUBLIC	?_Clamp_suffix_size@?$basic_string@_WU?$char_traits@_W@std@@V?$allocator@_W@2@@std@@QBEIII@Z ; std::basic_string<wchar_t,std::char_traits<wchar_t>,std::allocator<wchar_t> >::_Clamp_suffix_size
PUBLIC	?_Copy@?$basic_string@_WU?$char_traits@_W@std@@V?$allocator@_W@2@@std@@QAEXI@Z ; std::basic_string<wchar_t,std::char_traits<wchar_t>,std::allocator<wchar_t> >::_Copy
PUBLIC	?_Eos@?$basic_string@_WU?$char_traits@_W@std@@V?$allocator@_W@2@@std@@QAEXI@Z ; std::basic_string<wchar_t,std::char_traits<wchar_t>,std::allocator<wchar_t> >::_Eos
PUBLIC	?_Grow@?$basic_string@_WU?$char_traits@_W@std@@V?$allocator@_W@2@@std@@QAE_NI@Z ; std::basic_string<wchar_t,std::char_traits<wchar_t>,std::allocator<wchar_t> >::_Grow
PUBLIC	?_Inside@?$basic_string@_WU?$char_traits@_W@std@@V?$allocator@_W@2@@std@@QBE_NQB_W@Z ; std::basic_string<wchar_t,std::char_traits<wchar_t>,std::allocator<wchar_t> >::_Inside
PUBLIC	?_Tidy_init@?$basic_string@_WU?$char_traits@_W@std@@V?$allocator@_W@2@@std@@QAEXXZ ; std::basic_string<wchar_t,std::char_traits<wchar_t>,std::allocator<wchar_t> >::_Tidy_init
PUBLIC	?_Tidy_deallocate@?$basic_string@_WU?$char_traits@_W@std@@V?$allocator@_W@2@@std@@QAEXXZ ; std::basic_string<wchar_t,std::char_traits<wchar_t>,std::allocator<wchar_t> >::_Tidy_deallocate
PUBLIC	?_Xlen@?$basic_string@_WU?$char_traits@_W@std@@V?$allocator@_W@2@@std@@SAXXZ ; std::basic_string<wchar_t,std::char_traits<wchar_t>,std::allocator<wchar_t> >::_Xlen
PUBLIC	?_Check_offset@?$basic_string@_WU?$char_traits@_W@std@@V?$allocator@_W@2@@std@@QBEXI@Z ; std::basic_string<wchar_t,std::char_traits<wchar_t>,std::allocator<wchar_t> >::_Check_offset
PUBLIC	?_Xran@?$basic_string@_WU?$char_traits@_W@std@@V?$allocator@_W@2@@std@@SAXXZ ; std::basic_string<wchar_t,std::char_traits<wchar_t>,std::allocator<wchar_t> >::_Xran
PUBLIC	??0ImVec2@@QAE@MM@Z				; ImVec2::ImVec2
PUBLIC	??0ImVec4@@QAE@XZ				; ImVec4::ImVec4
PUBLIC	??0ImVec4@@QAE@MMMM@Z				; ImVec4::ImVec4
PUBLIC	??0ImColor@@QAE@HHHH@Z				; ImColor::ImColor
PUBLIC	??BImColor@@QBE?AUImVec4@@XZ			; ImColor::operator ImVec4
PUBLIC	??A?$ImVector@PAUImFont@@@@QAEAAPAUImFont@@H@Z	; ImVector<ImFont *>::operator[]
PUBLIC	?SK_GetLicenseText@@YA?AV?$basic_string@DU?$char_traits@D@std@@V?$allocator@D@2@@std@@F@Z ; SK_GetLicenseText
PUBLIC	?SK_ImGui_DrawEULA_PlugIn@@YGXPAX@Z		; SK_ImGui_DrawEULA_PlugIn
PUBLIC	?SK_ImGui_DrawEULA@@YGXPAX@Z			; SK_ImGui_DrawEULA
PUBLIC	??$move@AAU?$_Wrap_alloc@V?$allocator@D@std@@@std@@@std@@YA$$QAU?$_Wrap_alloc@V?$allocator@D@std@@@0@AAU10@@Z ; std::move<std::_Wrap_alloc<std::allocator<char> > &>
PUBLIC	??$?0U?$_Wrap_alloc@V?$allocator@D@std@@@std@@X@?$_String_alloc@U?$_String_base_types@DV?$allocator@D@std@@@std@@@std@@QAE@$$QAU?$_Wrap_alloc@V?$allocator@D@std@@@1@@Z ; std::_String_alloc<std::_String_base_types<char,std::allocator<char> > >::_String_alloc<std::_String_base_types<char,std::allocator<char> > ><std::_Wrap_alloc<std::allocator<char> >,void>
PUBLIC	??$move@AAV?$basic_string@DU?$char_traits@D@std@@V?$allocator@D@2@@std@@@std@@YA$$QAV?$basic_string@DU?$char_traits@D@std@@V?$allocator@D@2@@0@AAV10@@Z ; std::move<std::basic_string<char,std::char_traits<char>,std::allocator<char> > &>
PUBLIC	??$?0$$V@?$_Compressed_pair@U?$_Wrap_alloc@V?$allocator@_W@std@@@std@@V?$_String_val@U?$_Simple_types@_W@std@@@2@$00@std@@QAE@U_Zero_then_variadic_args_t@1@@Z ; std::_Compressed_pair<std::_Wrap_alloc<std::allocator<wchar_t> >,std::_String_val<std::_Simple_types<wchar_t> >,1>::_Compressed_pair<std::_Wrap_alloc<std::allocator<wchar_t> >,std::_String_val<std::_Simple_types<wchar_t> >,1><>
PUBLIC	??$?0$$V@?$_Compressed_pair@U?$_Wrap_alloc@V?$allocator@D@std@@@std@@V?$_String_val@U?$_Simple_types@D@std@@@2@$00@std@@QAE@U_Zero_then_variadic_args_t@1@@Z ; std::_Compressed_pair<std::_Wrap_alloc<std::allocator<char> >,std::_String_val<std::_Simple_types<char> >,1>::_Compressed_pair<std::_Wrap_alloc<std::allocator<char> >,std::_String_val<std::_Simple_types<char> >,1><>
PUBLIC	??$addressof@PA_W@std@@YAPAPA_WAAPA_W@Z		; std::addressof<wchar_t *>
PUBLIC	??$destroy@PA_W@?$_Wrap_alloc@V?$allocator@_W@std@@@std@@QAEXPAPA_W@Z ; std::_Wrap_alloc<std::allocator<wchar_t> >::destroy<wchar_t *>
PUBLIC	??$addressof@PAD@std@@YAPAPADAAPAD@Z		; std::addressof<char *>
PUBLIC	??$destroy@PAD@?$_Wrap_alloc@V?$allocator@D@std@@@std@@QAEXPAPAD@Z ; std::_Wrap_alloc<std::allocator<char> >::destroy<char *>
PUBLIC	??$addressof@V?$_String_val@U?$_Simple_types@D@std@@@std@@@std@@YAPAV?$_String_val@U?$_Simple_types@D@std@@@0@AAV10@@Z ; std::addressof<std::_String_val<std::_Simple_types<char> > >
PUBLIC	??$_Unfancy@_W@std@@YAPA_WPA_W@Z		; std::_Unfancy<wchar_t>
PUBLIC	??$_Unfancy@D@std@@YAPADPAD@Z			; std::_Unfancy<char>
PUBLIC	??$addressof@$$CBV?$basic_string@_WU?$char_traits@_W@std@@V?$allocator@_W@2@@std@@@std@@YAPBV?$basic_string@_WU?$char_traits@_W@std@@V?$allocator@_W@2@@0@ABV10@@Z ; std::addressof<std::basic_string<wchar_t,std::char_traits<wchar_t>,std::allocator<wchar_t> > const >
PUBLIC	??$_Min_value@I@std@@YAABIABI0@Z		; std::_Min_value<unsigned int>
PUBLIC	??$addressof@$$CBV?$basic_string@DU?$char_traits@D@std@@V?$allocator@D@2@@std@@@std@@YAPBV?$basic_string@DU?$char_traits@D@std@@V?$allocator@D@2@@0@ABV10@@Z ; std::addressof<std::basic_string<char,std::char_traits<char>,std::allocator<char> > const >
PUBLIC	??$construct@PA_WAAPA_W@?$_Wrap_alloc@V?$allocator@_W@std@@@std@@QAEXPAPA_WAAPA_W@Z ; std::_Wrap_alloc<std::allocator<wchar_t> >::construct<wchar_t *,wchar_t * &>
PUBLIC	??$construct@PADAAPAD@?$_Wrap_alloc@V?$allocator@D@std@@@std@@QAEXPAPADAAPAD@Z ; std::_Wrap_alloc<std::allocator<char> >::construct<char *,char * &>
PUBLIC	??$forward@U?$_Wrap_alloc@V?$allocator@D@std@@@std@@@std@@YA$$QAU?$_Wrap_alloc@V?$allocator@D@std@@@0@AAU10@@Z ; std::forward<std::_Wrap_alloc<std::allocator<char> > >
PUBLIC	??$?0U?$_Wrap_alloc@V?$allocator@D@std@@@std@@$$V@?$_Compressed_pair@U?$_Wrap_alloc@V?$allocator@D@std@@@std@@V?$_String_val@U?$_Simple_types@D@std@@@2@$00@std@@QAE@U_One_then_variadic_args_t@1@$$QAU?$_Wrap_alloc@V?$allocator@D@std@@@1@@Z ; std::_Compressed_pair<std::_Wrap_alloc<std::allocator<char> >,std::_String_val<std::_Simple_types<char> >,1>::_Compressed_pair<std::_Wrap_alloc<std::allocator<char> >,std::_String_val<std::_Simple_types<char> >,1><std::_Wrap_alloc<std::allocator<char> > >
PUBLIC	??$destroy@PA_W@?$allocator_traits@V?$allocator@_W@std@@@std@@SAXAAV?$allocator@_W@1@PAPA_W@Z ; std::allocator_traits<std::allocator<wchar_t> >::destroy<wchar_t *>
PUBLIC	??$destroy@PAD@?$allocator_traits@V?$allocator@D@std@@@std@@SAXAAV?$allocator@D@1@PAPAD@Z ; std::allocator_traits<std::allocator<char> >::destroy<char *>
PUBLIC	??$forward@AAPA_W@std@@YAAAPA_WAAPA_W@Z		; std::forward<wchar_t * &>
PUBLIC	??$construct@PA_WAAPA_W@?$allocator_traits@V?$allocator@_W@std@@@std@@SAXAAV?$allocator@_W@1@PAPA_WAAPA_W@Z ; std::allocator_traits<std::allocator<wchar_t> >::construct<wchar_t *,wchar_t * &>
PUBLIC	??$forward@AAPAD@std@@YAAAPADAAPAD@Z		; std::forward<char * &>
PUBLIC	??$construct@PADAAPAD@?$allocator_traits@V?$allocator@D@std@@@std@@SAXAAV?$allocator@D@1@PAPADAAPAD@Z ; std::allocator_traits<std::allocator<char> >::construct<char *,char * &>
PUBLIC	??$destroy@PA_W@?$allocator@_W@std@@QAEXPAPA_W@Z ; std::allocator<wchar_t>::destroy<wchar_t *>
PUBLIC	??$destroy@PAD@?$allocator@D@std@@QAEXPAPAD@Z	; std::allocator<char>::destroy<char *>
PUBLIC	??$construct@PA_WAAPA_W@?$allocator@_W@std@@QAEXPAPA_WAAPA_W@Z ; std::allocator<wchar_t>::construct<wchar_t *,wchar_t * &>
PUBLIC	??$construct@PADAAPAD@?$allocator@D@std@@QAEXPAPADAAPAD@Z ; std::allocator<char>::construct<char *,char * &>
PUBLIC	??_C@_0BA@JFNIOLAK@string?5too?5long?$AA@	; `string'
PUBLIC	??_C@_0BI@CFPLBAOH@invalid?5string?5position?$AA@ ; `string'
PUBLIC	__real@3b808081
PUBLIC	__real@3f6ccccd
PUBLIC	__real@41600000
PUBLIC	__xmm@3f800000000000003f8000003f800000
PUBLIC	__xmm@3f8000003dcccccd3f6666663f666666
PUBLIC	__xmm@3f8000003f6666663f6666663f666666
PUBLIC	__xmm@3f8000003f8000003f8000003f800000
EXTRN	??2@YAPAXI@Z:PROC				; operator new
EXTRN	??3@YAXPAX@Z:PROC				; operator delete
EXTRN	__imp___invalid_parameter_noinfo_noreturn:PROC
EXTRN	__imp__memmove:PROC
EXTRN	__imp__strncat:PROC
EXTRN	__imp__ExitProcess@4:PROC
EXTRN	__imp__LoadResource@8:PROC
EXTRN	__imp__LockResource@4:PROC
EXTRN	__imp__SizeofResource@8:PROC
EXTRN	__imp__FindResourceW@12:PROC
EXTRN	__imp__free:PROC
EXTRN	__imp__malloc:PROC
EXTRN	_sprintf:PROC
EXTRN	__imp_?_Xbad_alloc@std@@YAXXZ:PROC
EXTRN	__imp_?_Xlength_error@std@@YAXPBD@Z:PROC
EXTRN	__imp_?_Xout_of_range@std@@YAXPBD@Z:PROC
EXTRN	?SK_GetDLL@@YGPAUHINSTANCE__@@XZ:PROC		; SK_GetDLL
EXTRN	?SK_IsInjected@@YG_N_N@Z:PROC			; SK_IsInjected
EXTRN	?SK_GetCurrentRenderBackend@@YGAAVSK_RenderBackend_V2@@XZ:PROC ; SK_GetCurrentRenderBackend
EXTRN	?SK_SaveConfig@@YAXV?$basic_string@_WU?$char_traits@_W@std@@V?$allocator@_W@2@@std@@_N@Z:PROC ; SK_SaveConfig
EXTRN	?GetIO@ImGui@@YAAAUImGuiIO@@XZ:PROC		; ImGui::GetIO
EXTRN	?GetStyle@ImGui@@YAAAUImGuiStyle@@XZ:PROC	; ImGui::GetStyle
EXTRN	?BeginChild@ImGui@@YA_NPBDABUImVec2@@_NH@Z:PROC	; ImGui::BeginChild
EXTRN	?EndChild@ImGui@@YAXXZ:PROC			; ImGui::EndChild
EXTRN	?SetNextWindowPosCenter@ImGui@@YAXH@Z:PROC	; ImGui::SetNextWindowPosCenter
EXTRN	?SetNextWindowSizeConstraints@ImGui@@YAXABUImVec2@@0P6AXPAUImGuiSizeConstraintCallbackData@@@ZPAX@Z:PROC ; ImGui::SetNextWindowSizeConstraints
EXTRN	?SetNextWindowFocus@ImGui@@YAXXZ:PROC		; ImGui::SetNextWindowFocus
EXTRN	?PushFont@ImGui@@YAXPAUImFont@@@Z:PROC		; ImGui::PushFont
EXTRN	?PopFont@ImGui@@YAXXZ:PROC			; ImGui::PopFont
EXTRN	?PushStyleColor@ImGui@@YAXHABUImVec4@@@Z:PROC	; ImGui::PushStyleColor
EXTRN	?PopStyleColor@ImGui@@YAXH@Z:PROC		; ImGui::PopStyleColor
EXTRN	?GetFont@ImGui@@YAPAUImFont@@XZ:PROC		; ImGui::GetFont
EXTRN	?Separator@ImGui@@YAXXZ:PROC			; ImGui::Separator
EXTRN	?SameLine@ImGui@@YAXMM@Z:PROC			; ImGui::SameLine
EXTRN	?BeginGroup@ImGui@@YAXXZ:PROC			; ImGui::BeginGroup
EXTRN	?EndGroup@ImGui@@YAXXZ:PROC			; ImGui::EndGroup
EXTRN	?Columns@ImGui@@YAXHPBD_N@Z:PROC		; ImGui::Columns
EXTRN	?NextColumn@ImGui@@YAXXZ:PROC			; ImGui::NextColumn
EXTRN	?TextColored@ImGui@@YAXABUImVec4@@PBDZZ:PROC	; ImGui::TextColored
EXTRN	?TextWrapped@ImGui@@YAXPBDZZ:PROC		; ImGui::TextWrapped
EXTRN	?Bullet@ImGui@@YAXXZ:PROC			; ImGui::Bullet
EXTRN	?BulletText@ImGui@@YAXPBDZZ:PROC		; ImGui::BulletText
EXTRN	?Button@ImGui@@YA_NPBDABUImVec2@@@Z:PROC	; ImGui::Button
EXTRN	?Checkbox@ImGui@@YA_NPBDPA_N@Z:PROC		; ImGui::Checkbox
EXTRN	?TreePush@ImGui@@YAXPBD@Z:PROC			; ImGui::TreePush
EXTRN	?TreePop@ImGui@@YAXXZ:PROC			; ImGui::TreePop
EXTRN	?CollapsingHeader@ImGui@@YA_NPBDH@Z:PROC	; ImGui::CollapsingHeader
EXTRN	?BeginTooltip@ImGui@@YAXXZ:PROC			; ImGui::BeginTooltip
EXTRN	?EndTooltip@ImGui@@YAXXZ:PROC			; ImGui::EndTooltip
EXTRN	?OpenPopup@ImGui@@YAXPBD@Z:PROC			; ImGui::OpenPopup
EXTRN	?BeginPopupModal@ImGui@@YA_NPBDPA_NH@Z:PROC	; ImGui::BeginPopupModal
EXTRN	?EndPopup@ImGui@@YAXXZ:PROC			; ImGui::EndPopup
EXTRN	?CloseCurrentPopup@ImGui@@YAXXZ:PROC		; ImGui::CloseCurrentPopup
EXTRN	?IsItemHovered@ImGui@@YA_NXZ:PROC		; ImGui::IsItemHovered
EXTRN	?SK_GetBackend@@YGPB_WXZ:PROC			; SK_GetBackend
EXTRN	?SK_GetPluginName@@YG?AV?$basic_string@_WU?$char_traits@_W@std@@V?$allocator@_W@2@@std@@XZ:PROC ; SK_GetPluginName
EXTRN	?SK_Steam_PiratesAhoy@@YGIXZ:PROC		; SK_Steam_PiratesAhoy
EXTRN	?SK_SteamAPI_AppID@@YGIXZ:PROC			; SK_SteamAPI_AppID
EXTRN	___CxxFrameHandler3:PROC
EXTRN	_memcpy:PROC
EXTRN	_memset:PROC
EXTRN	?config@@3Usk_config_t@@A:BYTE			; config
EXTRN	__fltused:DWORD
;	COMDAT __xmm@3f8000003f8000003f8000003f800000
CONST	SEGMENT
__xmm@3f8000003f8000003f8000003f800000 DB 00H, 00H, 080H, '?', 00H, 00H, 080H
	DB	'?', 00H, 00H, 080H, '?', 00H, 00H, 080H, '?'
CONST	ENDS
;	COMDAT __xmm@3f8000003f6666663f6666663f666666
CONST	SEGMENT
__xmm@3f8000003f6666663f6666663f666666 DB 'fff?fff?fff?', 00H, 00H, 080H, '?'
CONST	ENDS
;	COMDAT __xmm@3f8000003dcccccd3f6666663f666666
CONST	SEGMENT
__xmm@3f8000003dcccccd3f6666663f666666 DB 'fff?fff?', 0cdH, 0ccH, 0ccH, '='
	DB	00H, 00H, 080H, '?'
CONST	ENDS
;	COMDAT __xmm@3f800000000000003f8000003f800000
CONST	SEGMENT
__xmm@3f800000000000003f8000003f800000 DB 00H, 00H, 080H, '?', 00H, 00H, 080H
	DB	'?', 00H, 00H, 00H, 00H, 00H, 00H, 080H, '?'
CONST	ENDS
;	COMDAT __real@41600000
CONST	SEGMENT
__real@41600000 DD 041600000r			; 14
CONST	ENDS
;	COMDAT __real@3f6ccccd
CONST	SEGMENT
__real@3f6ccccd DD 03f6ccccdr			; 0.925
CONST	ENDS
;	COMDAT __real@3b808081
CONST	SEGMENT
__real@3b808081 DD 03b808081r			; 0.00392157
CONST	ENDS
;	COMDAT ??_C@_0BI@CFPLBAOH@invalid?5string?5position?$AA@
CONST	SEGMENT
??_C@_0BI@CFPLBAOH@invalid?5string?5position?$AA@ DB 'invalid string posi'
	DB	'tion', 00H					; `string'
CONST	ENDS
;	COMDAT ??_C@_0BA@JFNIOLAK@string?5too?5long?$AA@
CONST	SEGMENT
??_C@_0BA@JFNIOLAK@string?5too?5long?$AA@ DB 'string too long', 00H ; `string'
CONST	ENDS
;	COMDAT ?open@?1??SK_ImGui_DrawEULA@@YGXPAX@Z@4_NA
_DATA	SEGMENT
?open@?1??SK_ImGui_DrawEULA@@YGXPAX@Z@4_NA DB 01H	; `SK_ImGui_DrawEULA'::`2'::open
_DATA	ENDS
;	COMDAT ?last_height@?1??SK_ImGui_DrawEULA@@YGXPAX@Z@4MA
_DATA	SEGMENT
?last_height@?1??SK_ImGui_DrawEULA@@YGXPAX@Z@4MA DD 0bf800000r ; -1 ; `SK_ImGui_DrawEULA'::`2'::last_height
_DATA	ENDS
;	COMDAT ?last_width@?1??SK_ImGui_DrawEULA@@YGXPAX@Z@4MA
_DATA	SEGMENT
?last_width@?1??SK_ImGui_DrawEULA@@YGXPAX@Z@4MA DD 0bf800000r ; -1 ; `SK_ImGui_DrawEULA'::`2'::last_width
_DATA	ENDS
xdata$x	SEGMENT
__ehfuncinfo$?SK_ImGui_DrawEULA@@YGXPAX@Z DD 019930522H
	DD	012H
	DD	FLAT:__unwindtable$?SK_ImGui_DrawEULA@@YGXPAX@Z
	DD	2 DUP(00H)
	DD	2 DUP(00H)
	DD	00H
	DD	01H
__unwindtable$?SK_ImGui_DrawEULA@@YGXPAX@Z DD 0ffffffffH
	DD	FLAT:__unwindfunclet$?SK_ImGui_DrawEULA@@YGXPAX@Z$0
	DD	00H
	DD	FLAT:__unwindfunclet$?SK_ImGui_DrawEULA@@YGXPAX@Z$1
	DD	00H
	DD	FLAT:__unwindfunclet$?SK_ImGui_DrawEULA@@YGXPAX@Z$2
	DD	00H
	DD	FLAT:__unwindfunclet$?SK_ImGui_DrawEULA@@YGXPAX@Z$3
	DD	00H
	DD	FLAT:__unwindfunclet$?SK_ImGui_DrawEULA@@YGXPAX@Z$4
	DD	00H
	DD	FLAT:__unwindfunclet$?SK_ImGui_DrawEULA@@YGXPAX@Z$5
	DD	00H
	DD	FLAT:__unwindfunclet$?SK_ImGui_DrawEULA@@YGXPAX@Z$6
	DD	00H
	DD	FLAT:__unwindfunclet$?SK_ImGui_DrawEULA@@YGXPAX@Z$7
	DD	00H
	DD	FLAT:__unwindfunclet$?SK_ImGui_DrawEULA@@YGXPAX@Z$8
	DD	00H
	DD	FLAT:__unwindfunclet$?SK_ImGui_DrawEULA@@YGXPAX@Z$9
	DD	00H
	DD	FLAT:__unwindfunclet$?SK_ImGui_DrawEULA@@YGXPAX@Z$10
	DD	00H
	DD	FLAT:__unwindfunclet$?SK_ImGui_DrawEULA@@YGXPAX@Z$11
	DD	00H
	DD	FLAT:__unwindfunclet$?SK_ImGui_DrawEULA@@YGXPAX@Z$12
	DD	00H
	DD	FLAT:__unwindfunclet$?SK_ImGui_DrawEULA@@YGXPAX@Z$13
	DD	00H
	DD	FLAT:__unwindfunclet$?SK_ImGui_DrawEULA@@YGXPAX@Z$14
	DD	00H
	DD	FLAT:__unwindfunclet$?SK_ImGui_DrawEULA@@YGXPAX@Z$15
	DD	00H
	DD	FLAT:__unwindfunclet$?SK_ImGui_DrawEULA@@YGXPAX@Z$16
	DD	00H
	DD	FLAT:__unwindfunclet$?SK_ImGui_DrawEULA@@YGXPAX@Z$17
xdata$x	ENDS
;	COMDAT xdata$x
xdata$x	SEGMENT
__catchsym$?_Copy@?$basic_string@_WU?$char_traits@_W@std@@V?$allocator@_W@2@@std@@QAEXI@Z$18 DD 040H
	DD	00H
	DD	00H
	DD	FLAT:__catch$?_Copy@?$basic_string@_WU?$char_traits@_W@std@@V?$allocator@_W@2@@std@@QAEXI@Z$0
__unwindtable$?_Copy@?$basic_string@_WU?$char_traits@_W@std@@V?$allocator@_W@2@@std@@QAEXI@Z DD 0ffffffffH
	DD	00H
	DD	0ffffffffH
	DD	00H
__tryblocktable$?_Copy@?$basic_string@_WU?$char_traits@_W@std@@V?$allocator@_W@2@@std@@QAEXI@Z DD 00H
	DD	00H
	DD	01H
	DD	01H
	DD	FLAT:__catchsym$?_Copy@?$basic_string@_WU?$char_traits@_W@std@@V?$allocator@_W@2@@std@@QAEXI@Z$18
__ehfuncinfo$?_Copy@?$basic_string@_WU?$char_traits@_W@std@@V?$allocator@_W@2@@std@@QAEXI@Z DD 019930522H
	DD	02H
	DD	FLAT:__unwindtable$?_Copy@?$basic_string@_WU?$char_traits@_W@std@@V?$allocator@_W@2@@std@@QAEXI@Z
	DD	01H
	DD	FLAT:__tryblocktable$?_Copy@?$basic_string@_WU?$char_traits@_W@std@@V?$allocator@_W@2@@std@@QAEXI@Z
	DD	2 DUP(00H)
	DD	00H
	DD	01H
xdata$x	ENDS
;	COMDAT xdata$x
xdata$x	SEGMENT
__catchsym$?_Copy@?$basic_string@DU?$char_traits@D@std@@V?$allocator@D@2@@std@@QAEXI@Z$18 DD 040H
	DD	00H
	DD	00H
	DD	FLAT:__catch$?_Copy@?$basic_string@DU?$char_traits@D@std@@V?$allocator@D@2@@std@@QAEXI@Z$0
__unwindtable$?_Copy@?$basic_string@DU?$char_traits@D@std@@V?$allocator@D@2@@std@@QAEXI@Z DD 0ffffffffH
	DD	00H
	DD	0ffffffffH
	DD	00H
__tryblocktable$?_Copy@?$basic_string@DU?$char_traits@D@std@@V?$allocator@D@2@@std@@QAEXI@Z DD 00H
	DD	00H
	DD	01H
	DD	01H
	DD	FLAT:__catchsym$?_Copy@?$basic_string@DU?$char_traits@D@std@@V?$allocator@D@2@@std@@QAEXI@Z$18
__ehfuncinfo$?_Copy@?$basic_string@DU?$char_traits@D@std@@V?$allocator@D@2@@std@@QAEXI@Z DD 019930522H
	DD	02H
	DD	FLAT:__unwindtable$?_Copy@?$basic_string@DU?$char_traits@D@std@@V?$allocator@D@2@@std@@QAEXI@Z
	DD	01H
	DD	FLAT:__tryblocktable$?_Copy@?$basic_string@DU?$char_traits@D@std@@V?$allocator@D@2@@std@@QAEXI@Z
	DD	2 DUP(00H)
	DD	00H
	DD	01H
xdata$x	ENDS
; Function compile flags: /Ogtp
; File c:\program files (x86)\microsoft visual studio\2017\community\vc\tools\msvc\14.10.25017\include\xmemory0
;	COMDAT ??$construct@PADAAPAD@?$allocator@D@std@@QAEXPAPADAAPAD@Z
_TEXT	SEGMENT
__Ptr$ = 8						; size = 4
_<_Args_0>$ = 12					; size = 4
??$construct@PADAAPAD@?$allocator@D@std@@QAEXPAPADAAPAD@Z PROC ; std::allocator<char>::construct<char *,char * &>, COMDAT
; _this$ = ecx

; 839  : 		{	// construct _Objty(_Types...) at _Ptr

	npad	2
	push	ebp
	mov	ebp, esp

; 840  : 		::new ((void *)_Ptr) _Objty(_STD forward<_Types>(_Args)...);

	mov	ecx, DWORD PTR __Ptr$[ebp]
	test	ecx, ecx
	je	SHORT $LN3@construct
	mov	eax, DWORD PTR _<_Args_0>$[ebp]
	mov	eax, DWORD PTR [eax]
	mov	DWORD PTR [ecx], eax
$LN3@construct:

; 841  : 		}

	pop	ebp
	ret	8
??$construct@PADAAPAD@?$allocator@D@std@@QAEXPAPADAAPAD@Z ENDP ; std::allocator<char>::construct<char *,char * &>
_TEXT	ENDS
; Function compile flags: /Ogtp
; File c:\program files (x86)\microsoft visual studio\2017\community\vc\tools\msvc\14.10.25017\include\xmemory0
;	COMDAT ??$construct@PA_WAAPA_W@?$allocator@_W@std@@QAEXPAPA_WAAPA_W@Z
_TEXT	SEGMENT
__Ptr$ = 8						; size = 4
_<_Args_0>$ = 12					; size = 4
??$construct@PA_WAAPA_W@?$allocator@_W@std@@QAEXPAPA_WAAPA_W@Z PROC ; std::allocator<wchar_t>::construct<wchar_t *,wchar_t * &>, COMDAT
; _this$ = ecx

; 839  : 		{	// construct _Objty(_Types...) at _Ptr

	npad	2
	push	ebp
	mov	ebp, esp

; 840  : 		::new ((void *)_Ptr) _Objty(_STD forward<_Types>(_Args)...);

	mov	ecx, DWORD PTR __Ptr$[ebp]
	test	ecx, ecx
	je	SHORT $LN3@construct
	mov	eax, DWORD PTR _<_Args_0>$[ebp]
	mov	eax, DWORD PTR [eax]
	mov	DWORD PTR [ecx], eax
$LN3@construct:

; 841  : 		}

	pop	ebp
	ret	8
??$construct@PA_WAAPA_W@?$allocator@_W@std@@QAEXPAPA_WAAPA_W@Z ENDP ; std::allocator<wchar_t>::construct<wchar_t *,wchar_t * &>
_TEXT	ENDS
; Function compile flags: /Ogtp
; File c:\program files (x86)\microsoft visual studio\2017\community\vc\tools\msvc\14.10.25017\include\xmemory0
;	COMDAT ??$destroy@PAD@?$allocator@D@std@@QAEXPAPAD@Z
_TEXT	SEGMENT
__Ptr$ = 8						; size = 4
??$destroy@PAD@?$allocator@D@std@@QAEXPAPAD@Z PROC	; std::allocator<char>::destroy<char *>, COMDAT
; _this$ = ecx

; 846  : 		_Ptr->~_Uty();
; 847  : 		}

	ret	4
??$destroy@PAD@?$allocator@D@std@@QAEXPAPAD@Z ENDP	; std::allocator<char>::destroy<char *>
_TEXT	ENDS
; Function compile flags: /Ogtp
; File c:\program files (x86)\microsoft visual studio\2017\community\vc\tools\msvc\14.10.25017\include\xmemory0
;	COMDAT ??$destroy@PA_W@?$allocator@_W@std@@QAEXPAPA_W@Z
_TEXT	SEGMENT
__Ptr$ = 8						; size = 4
??$destroy@PA_W@?$allocator@_W@std@@QAEXPAPA_W@Z PROC	; std::allocator<wchar_t>::destroy<wchar_t *>, COMDAT
; _this$ = ecx

; 846  : 		_Ptr->~_Uty();
; 847  : 		}

	ret	4
??$destroy@PA_W@?$allocator@_W@std@@QAEXPAPA_W@Z ENDP	; std::allocator<wchar_t>::destroy<wchar_t *>
_TEXT	ENDS
; Function compile flags: /Ogtp
; File c:\program files (x86)\microsoft visual studio\2017\community\vc\tools\msvc\14.10.25017\include\xmemory0
;	COMDAT ??$construct@PADAAPAD@?$allocator_traits@V?$allocator@D@std@@@std@@SAXAAV?$allocator@D@1@PAPADAAPAD@Z
_TEXT	SEGMENT
__Al$ = 8						; size = 4
__Ptr$ = 12						; size = 4
_<_Args_0>$ = 16					; size = 4
??$construct@PADAAPAD@?$allocator_traits@V?$allocator@D@std@@@std@@SAXAAV?$allocator@D@1@PAPADAAPAD@Z PROC ; std::allocator_traits<std::allocator<char> >::construct<char *,char * &>, COMDAT

; 958  : 		{	// construct _Objty(_Types...) at _Ptr

	npad	2
	push	ebp
	mov	ebp, esp

; 840  : 		::new ((void *)_Ptr) _Objty(_STD forward<_Types>(_Args)...);

	mov	ecx, DWORD PTR __Ptr$[ebp]
	test	ecx, ecx
	je	SHORT $LN8@construct
	mov	eax, DWORD PTR _<_Args_0>$[ebp]
	mov	eax, DWORD PTR [eax]
	mov	DWORD PTR [ecx], eax
$LN8@construct:

; 959  : 		_Al.construct(_Ptr, _STD forward<_Types>(_Args)...);
; 960  : 		}

	pop	ebp
	ret	0
??$construct@PADAAPAD@?$allocator_traits@V?$allocator@D@std@@@std@@SAXAAV?$allocator@D@1@PAPADAAPAD@Z ENDP ; std::allocator_traits<std::allocator<char> >::construct<char *,char * &>
_TEXT	ENDS
; Function compile flags: /Ogtp
; File c:\program files (x86)\microsoft visual studio\2017\community\vc\tools\msvc\14.10.25017\include\type_traits
;	COMDAT ??$forward@AAPAD@std@@YAAAPADAAPAD@Z
_TEXT	SEGMENT
__Arg$ = 8						; size = 4
??$forward@AAPAD@std@@YAAAPADAAPAD@Z PROC		; std::forward<char * &>, COMDAT

; 1334 : 	{	// forward an lvalue as either an lvalue or an rvalue

	npad	2
	push	ebp
	mov	ebp, esp

; 1335 : 	return (static_cast<_Ty&&>(_Arg));

	mov	eax, DWORD PTR __Arg$[ebp]

; 1336 : 	}

	pop	ebp
	ret	0
??$forward@AAPAD@std@@YAAAPADAAPAD@Z ENDP		; std::forward<char * &>
_TEXT	ENDS
; Function compile flags: /Ogtp
; File c:\program files (x86)\microsoft visual studio\2017\community\vc\tools\msvc\14.10.25017\include\xmemory0
;	COMDAT ??$construct@PA_WAAPA_W@?$allocator_traits@V?$allocator@_W@std@@@std@@SAXAAV?$allocator@_W@1@PAPA_WAAPA_W@Z
_TEXT	SEGMENT
__Al$ = 8						; size = 4
__Ptr$ = 12						; size = 4
_<_Args_0>$ = 16					; size = 4
??$construct@PA_WAAPA_W@?$allocator_traits@V?$allocator@_W@std@@@std@@SAXAAV?$allocator@_W@1@PAPA_WAAPA_W@Z PROC ; std::allocator_traits<std::allocator<wchar_t> >::construct<wchar_t *,wchar_t * &>, COMDAT

; 958  : 		{	// construct _Objty(_Types...) at _Ptr

	npad	2
	push	ebp
	mov	ebp, esp

; 840  : 		::new ((void *)_Ptr) _Objty(_STD forward<_Types>(_Args)...);

	mov	ecx, DWORD PTR __Ptr$[ebp]
	test	ecx, ecx
	je	SHORT $LN8@construct
	mov	eax, DWORD PTR _<_Args_0>$[ebp]
	mov	eax, DWORD PTR [eax]
	mov	DWORD PTR [ecx], eax
$LN8@construct:

; 959  : 		_Al.construct(_Ptr, _STD forward<_Types>(_Args)...);
; 960  : 		}

	pop	ebp
	ret	0
??$construct@PA_WAAPA_W@?$allocator_traits@V?$allocator@_W@std@@@std@@SAXAAV?$allocator@_W@1@PAPA_WAAPA_W@Z ENDP ; std::allocator_traits<std::allocator<wchar_t> >::construct<wchar_t *,wchar_t * &>
_TEXT	ENDS
; Function compile flags: /Ogtp
; File c:\program files (x86)\microsoft visual studio\2017\community\vc\tools\msvc\14.10.25017\include\type_traits
;	COMDAT ??$forward@AAPA_W@std@@YAAAPA_WAAPA_W@Z
_TEXT	SEGMENT
__Arg$ = 8						; size = 4
??$forward@AAPA_W@std@@YAAAPA_WAAPA_W@Z PROC		; std::forward<wchar_t * &>, COMDAT

; 1334 : 	{	// forward an lvalue as either an lvalue or an rvalue

	npad	2
	push	ebp
	mov	ebp, esp

; 1335 : 	return (static_cast<_Ty&&>(_Arg));

	mov	eax, DWORD PTR __Arg$[ebp]

; 1336 : 	}

	pop	ebp
	ret	0
??$forward@AAPA_W@std@@YAAAPA_WAAPA_W@Z ENDP		; std::forward<wchar_t * &>
_TEXT	ENDS
; Function compile flags: /Ogtp
; File c:\program files (x86)\microsoft visual studio\2017\community\vc\tools\msvc\14.10.25017\include\xmemory0
;	COMDAT ??$destroy@PAD@?$allocator_traits@V?$allocator@D@std@@@std@@SAXAAV?$allocator@D@1@PAPAD@Z
_TEXT	SEGMENT
__Al$ = 8						; size = 4
__Ptr$ = 12						; size = 4
??$destroy@PAD@?$allocator_traits@V?$allocator@D@std@@@std@@SAXAAV?$allocator@D@1@PAPAD@Z PROC ; std::allocator_traits<std::allocator<char> >::destroy<char *>, COMDAT

; 965  : 		_Al.destroy(_Ptr);
; 966  : 		}

	ret	0
??$destroy@PAD@?$allocator_traits@V?$allocator@D@std@@@std@@SAXAAV?$allocator@D@1@PAPAD@Z ENDP ; std::allocator_traits<std::allocator<char> >::destroy<char *>
_TEXT	ENDS
; Function compile flags: /Ogtp
; File c:\program files (x86)\microsoft visual studio\2017\community\vc\tools\msvc\14.10.25017\include\xmemory0
;	COMDAT ??$destroy@PA_W@?$allocator_traits@V?$allocator@_W@std@@@std@@SAXAAV?$allocator@_W@1@PAPA_W@Z
_TEXT	SEGMENT
__Al$ = 8						; size = 4
__Ptr$ = 12						; size = 4
??$destroy@PA_W@?$allocator_traits@V?$allocator@_W@std@@@std@@SAXAAV?$allocator@_W@1@PAPA_W@Z PROC ; std::allocator_traits<std::allocator<wchar_t> >::destroy<wchar_t *>, COMDAT

; 965  : 		_Al.destroy(_Ptr);
; 966  : 		}

	ret	0
??$destroy@PA_W@?$allocator_traits@V?$allocator@_W@std@@@std@@SAXAAV?$allocator@_W@1@PAPA_W@Z ENDP ; std::allocator_traits<std::allocator<wchar_t> >::destroy<wchar_t *>
_TEXT	ENDS
; Function compile flags: /Ogtp
; File c:\program files (x86)\microsoft visual studio\2017\community\vc\tools\msvc\14.10.25017\include\xutility
; File c:\program files (x86)\microsoft visual studio\2017\community\vc\tools\msvc\14.10.25017\include\xstring
; File c:\program files (x86)\microsoft visual studio\2017\community\vc\tools\msvc\14.10.25017\include\xutility
; File c:\program files (x86)\microsoft visual studio\2017\community\vc\tools\msvc\14.10.25017\include\xstring
; File c:\program files (x86)\microsoft visual studio\2017\community\vc\tools\msvc\14.10.25017\include\xutility
;	COMDAT ??$?0U?$_Wrap_alloc@V?$allocator@D@std@@@std@@$$V@?$_Compressed_pair@U?$_Wrap_alloc@V?$allocator@D@std@@@std@@V?$_String_val@U?$_Simple_types@D@std@@@2@$00@std@@QAE@U_One_then_variadic_args_t@1@$$QAU?$_Wrap_alloc@V?$allocator@D@std@@@1@@Z
_TEXT	SEGMENT
___formal$ = 8						; size = 1
__Val1$ = 12						; size = 4
??$?0U?$_Wrap_alloc@V?$allocator@D@std@@@std@@$$V@?$_Compressed_pair@U?$_Wrap_alloc@V?$allocator@D@std@@@std@@V?$_String_val@U?$_Simple_types@D@std@@@2@$00@std@@QAE@U_One_then_variadic_args_t@1@$$QAU?$_Wrap_alloc@V?$allocator@D@std@@@1@@Z PROC ; std::_Compressed_pair<std::_Wrap_alloc<std::allocator<char> >,std::_String_val<std::_Simple_types<char> >,1>::_Compressed_pair<std::_Wrap_alloc<std::allocator<char> >,std::_String_val<std::_Simple_types<char> >,1><std::_Wrap_alloc<std::allocator<char> > >, COMDAT
; _this$ = ecx
; File c:\program files (x86)\microsoft visual studio\2017\community\vc\tools\msvc\14.10.25017\include\xstring

; 1595 : 		_Mysize(0),

	mov	DWORD PTR [ecx+16], 0
; File c:\program files (x86)\microsoft visual studio\2017\community\vc\tools\msvc\14.10.25017\include\xutility

; 313  : 		}

	mov	eax, ecx
; File c:\program files (x86)\microsoft visual studio\2017\community\vc\tools\msvc\14.10.25017\include\xstring

; 1596 : 		_Myres(0)

	mov	DWORD PTR [ecx+20], 0
; File c:\program files (x86)\microsoft visual studio\2017\community\vc\tools\msvc\14.10.25017\include\xutility

; 313  : 		}

	ret	8
??$?0U?$_Wrap_alloc@V?$allocator@D@std@@@std@@$$V@?$_Compressed_pair@U?$_Wrap_alloc@V?$allocator@D@std@@@std@@V?$_String_val@U?$_Simple_types@D@std@@@2@$00@std@@QAE@U_One_then_variadic_args_t@1@$$QAU?$_Wrap_alloc@V?$allocator@D@std@@@1@@Z ENDP ; std::_Compressed_pair<std::_Wrap_alloc<std::allocator<char> >,std::_String_val<std::_Simple_types<char> >,1>::_Compressed_pair<std::_Wrap_alloc<std::allocator<char> >,std::_String_val<std::_Simple_types<char> >,1><std::_Wrap_alloc<std::allocator<char> > >
_TEXT	ENDS
; Function compile flags: /Ogtp
; File c:\program files (x86)\microsoft visual studio\2017\community\vc\tools\msvc\14.10.25017\include\type_traits
;	COMDAT ??$forward@U?$_Wrap_alloc@V?$allocator@D@std@@@std@@@std@@YA$$QAU?$_Wrap_alloc@V?$allocator@D@std@@@0@AAU10@@Z
_TEXT	SEGMENT
__Arg$ = 8						; size = 4
??$forward@U?$_Wrap_alloc@V?$allocator@D@std@@@std@@@std@@YA$$QAU?$_Wrap_alloc@V?$allocator@D@std@@@0@AAU10@@Z PROC ; std::forward<std::_Wrap_alloc<std::allocator<char> > >, COMDAT

; 1334 : 	{	// forward an lvalue as either an lvalue or an rvalue

	npad	2
	push	ebp
	mov	ebp, esp

; 1335 : 	return (static_cast<_Ty&&>(_Arg));

	mov	eax, DWORD PTR __Arg$[ebp]

; 1336 : 	}

	pop	ebp
	ret	0
??$forward@U?$_Wrap_alloc@V?$allocator@D@std@@@std@@@std@@YA$$QAU?$_Wrap_alloc@V?$allocator@D@std@@@0@AAU10@@Z ENDP ; std::forward<std::_Wrap_alloc<std::allocator<char> > >
_TEXT	ENDS
; Function compile flags: /Ogtp
; File c:\program files (x86)\microsoft visual studio\2017\community\vc\tools\msvc\14.10.25017\include\xmemory0
;	COMDAT ??$construct@PADAAPAD@?$_Wrap_alloc@V?$allocator@D@std@@@std@@QAEXPAPADAAPAD@Z
_TEXT	SEGMENT
__Ptr$ = 8						; size = 4
_<_Args_0>$ = 12					; size = 4
??$construct@PADAAPAD@?$_Wrap_alloc@V?$allocator@D@std@@@std@@QAEXPAPADAAPAD@Z PROC ; std::_Wrap_alloc<std::allocator<char> >::construct<char *,char * &>, COMDAT
; _this$ = ecx

; 1095 : 		{	// construct _Ty(_Types...) at _Ptr

	npad	2
	push	ebp
	mov	ebp, esp

; 840  : 		::new ((void *)_Ptr) _Objty(_STD forward<_Types>(_Args)...);

	mov	ecx, DWORD PTR __Ptr$[ebp]
	test	ecx, ecx
	je	SHORT $LN13@construct
	mov	eax, DWORD PTR _<_Args_0>$[ebp]
	mov	eax, DWORD PTR [eax]
	mov	DWORD PTR [ecx], eax
$LN13@construct:

; 1096 : 		_Mytraits::construct(*this, _Ptr,
; 1097 : 			_STD forward<_Types>(_Args)...);
; 1098 : 		}

	pop	ebp
	ret	8
??$construct@PADAAPAD@?$_Wrap_alloc@V?$allocator@D@std@@@std@@QAEXPAPADAAPAD@Z ENDP ; std::_Wrap_alloc<std::allocator<char> >::construct<char *,char * &>
_TEXT	ENDS
; Function compile flags: /Ogtp
; File c:\program files (x86)\microsoft visual studio\2017\community\vc\tools\msvc\14.10.25017\include\xmemory0
;	COMDAT ??$construct@PA_WAAPA_W@?$_Wrap_alloc@V?$allocator@_W@std@@@std@@QAEXPAPA_WAAPA_W@Z
_TEXT	SEGMENT
__Ptr$ = 8						; size = 4
_<_Args_0>$ = 12					; size = 4
??$construct@PA_WAAPA_W@?$_Wrap_alloc@V?$allocator@_W@std@@@std@@QAEXPAPA_WAAPA_W@Z PROC ; std::_Wrap_alloc<std::allocator<wchar_t> >::construct<wchar_t *,wchar_t * &>, COMDAT
; _this$ = ecx

; 1095 : 		{	// construct _Ty(_Types...) at _Ptr

	npad	2
	push	ebp
	mov	ebp, esp

; 840  : 		::new ((void *)_Ptr) _Objty(_STD forward<_Types>(_Args)...);

	mov	ecx, DWORD PTR __Ptr$[ebp]
	test	ecx, ecx
	je	SHORT $LN13@construct
	mov	eax, DWORD PTR _<_Args_0>$[ebp]
	mov	eax, DWORD PTR [eax]
	mov	DWORD PTR [ecx], eax
$LN13@construct:

; 1096 : 		_Mytraits::construct(*this, _Ptr,
; 1097 : 			_STD forward<_Types>(_Args)...);
; 1098 : 		}

	pop	ebp
	ret	8
??$construct@PA_WAAPA_W@?$_Wrap_alloc@V?$allocator@_W@std@@@std@@QAEXPAPA_WAAPA_W@Z ENDP ; std::_Wrap_alloc<std::allocator<wchar_t> >::construct<wchar_t *,wchar_t * &>
_TEXT	ENDS
; Function compile flags: /Ogtp
; File c:\program files (x86)\microsoft visual studio\2017\community\vc\tools\msvc\14.10.25017\include\xstddef
;	COMDAT ??$addressof@$$CBV?$basic_string@DU?$char_traits@D@std@@V?$allocator@D@2@@std@@@std@@YAPBV?$basic_string@DU?$char_traits@D@std@@V?$allocator@D@2@@0@ABV10@@Z
_TEXT	SEGMENT
__Val$ = 8						; size = 4
??$addressof@$$CBV?$basic_string@DU?$char_traits@D@std@@V?$allocator@D@2@@std@@@std@@YAPBV?$basic_string@DU?$char_traits@D@std@@V?$allocator@D@2@@0@ABV10@@Z PROC ; std::addressof<std::basic_string<char,std::char_traits<char>,std::allocator<char> > const >, COMDAT

; 629  : 	{	// return address of _Val

	npad	2
	push	ebp
	mov	ebp, esp

; 630  : 	return (__builtin_addressof(_Val));

	mov	eax, DWORD PTR __Val$[ebp]

; 631  : 	}

	pop	ebp
	ret	0
??$addressof@$$CBV?$basic_string@DU?$char_traits@D@std@@V?$allocator@D@2@@std@@@std@@YAPBV?$basic_string@DU?$char_traits@D@std@@V?$allocator@D@2@@0@ABV10@@Z ENDP ; std::addressof<std::basic_string<char,std::char_traits<char>,std::allocator<char> > const >
_TEXT	ENDS
; Function compile flags: /Ogtp
; File c:\program files (x86)\microsoft visual studio\2017\community\vc\tools\msvc\14.10.25017\include\utility
;	COMDAT ??$_Min_value@I@std@@YAABIABI0@Z
_TEXT	SEGMENT
__Left$ = 8						; size = 4
__Right$ = 12						; size = 4
??$_Min_value@I@std@@YAABIABI0@Z PROC			; std::_Min_value<unsigned int>, COMDAT

; 22   : 	{	// return smaller of _Left and _Right

	npad	2
	push	ebp
	mov	ebp, esp

; 23   : 	return (_Right < _Left ? _Right : _Left);

	mov	edx, DWORD PTR __Right$[ebp]
	mov	eax, DWORD PTR __Left$[ebp]
	mov	ecx, DWORD PTR [edx]
	cmp	ecx, DWORD PTR [eax]
	cmovb	eax, edx

; 24   : 	}

	pop	ebp
	ret	0
??$_Min_value@I@std@@YAABIABI0@Z ENDP			; std::_Min_value<unsigned int>
_TEXT	ENDS
; Function compile flags: /Ogtp
; File c:\program files (x86)\microsoft visual studio\2017\community\vc\tools\msvc\14.10.25017\include\xstddef
;	COMDAT ??$addressof@$$CBV?$basic_string@_WU?$char_traits@_W@std@@V?$allocator@_W@2@@std@@@std@@YAPBV?$basic_string@_WU?$char_traits@_W@std@@V?$allocator@_W@2@@0@ABV10@@Z
_TEXT	SEGMENT
__Val$ = 8						; size = 4
??$addressof@$$CBV?$basic_string@_WU?$char_traits@_W@std@@V?$allocator@_W@2@@std@@@std@@YAPBV?$basic_string@_WU?$char_traits@_W@std@@V?$allocator@_W@2@@0@ABV10@@Z PROC ; std::addressof<std::basic_string<wchar_t,std::char_traits<wchar_t>,std::allocator<wchar_t> > const >, COMDAT

; 629  : 	{	// return address of _Val

	npad	2
	push	ebp
	mov	ebp, esp

; 630  : 	return (__builtin_addressof(_Val));

	mov	eax, DWORD PTR __Val$[ebp]

; 631  : 	}

	pop	ebp
	ret	0
??$addressof@$$CBV?$basic_string@_WU?$char_traits@_W@std@@V?$allocator@_W@2@@std@@@std@@YAPBV?$basic_string@_WU?$char_traits@_W@std@@V?$allocator@_W@2@@0@ABV10@@Z ENDP ; std::addressof<std::basic_string<wchar_t,std::char_traits<wchar_t>,std::allocator<wchar_t> > const >
_TEXT	ENDS
; Function compile flags: /Ogtp
; File c:\program files (x86)\microsoft visual studio\2017\community\vc\tools\msvc\14.10.25017\include\xstddef
;	COMDAT ??$_Unfancy@D@std@@YAPADPAD@Z
_TEXT	SEGMENT
__Ptr$ = 8						; size = 4
??$_Unfancy@D@std@@YAPADPAD@Z PROC			; std::_Unfancy<char>, COMDAT

; 642  : 	{	// do nothing for plain pointers

	npad	2
	push	ebp
	mov	ebp, esp

; 643  : 	return (_Ptr);

	mov	eax, DWORD PTR __Ptr$[ebp]

; 644  : 	}

	pop	ebp
	ret	0
??$_Unfancy@D@std@@YAPADPAD@Z ENDP			; std::_Unfancy<char>
_TEXT	ENDS
; Function compile flags: /Ogtp
; File c:\program files (x86)\microsoft visual studio\2017\community\vc\tools\msvc\14.10.25017\include\xstddef
;	COMDAT ??$_Unfancy@_W@std@@YAPA_WPA_W@Z
_TEXT	SEGMENT
__Ptr$ = 8						; size = 4
??$_Unfancy@_W@std@@YAPA_WPA_W@Z PROC			; std::_Unfancy<wchar_t>, COMDAT

; 642  : 	{	// do nothing for plain pointers

	npad	2
	push	ebp
	mov	ebp, esp

; 643  : 	return (_Ptr);

	mov	eax, DWORD PTR __Ptr$[ebp]

; 644  : 	}

	pop	ebp
	ret	0
??$_Unfancy@_W@std@@YAPA_WPA_W@Z ENDP			; std::_Unfancy<wchar_t>
_TEXT	ENDS
; Function compile flags: /Ogtp
; File c:\program files (x86)\microsoft visual studio\2017\community\vc\tools\msvc\14.10.25017\include\xstddef
;	COMDAT ??$addressof@V?$_String_val@U?$_Simple_types@D@std@@@std@@@std@@YAPAV?$_String_val@U?$_Simple_types@D@std@@@0@AAV10@@Z
_TEXT	SEGMENT
__Val$ = 8						; size = 4
??$addressof@V?$_String_val@U?$_Simple_types@D@std@@@std@@@std@@YAPAV?$_String_val@U?$_Simple_types@D@std@@@0@AAV10@@Z PROC ; std::addressof<std::_String_val<std::_Simple_types<char> > >, COMDAT

; 629  : 	{	// return address of _Val

	npad	2
	push	ebp
	mov	ebp, esp

; 630  : 	return (__builtin_addressof(_Val));

	mov	eax, DWORD PTR __Val$[ebp]

; 631  : 	}

	pop	ebp
	ret	0
??$addressof@V?$_String_val@U?$_Simple_types@D@std@@@std@@@std@@YAPAV?$_String_val@U?$_Simple_types@D@std@@@0@AAV10@@Z ENDP ; std::addressof<std::_String_val<std::_Simple_types<char> > >
_TEXT	ENDS
; Function compile flags: /Ogtp
; File c:\program files (x86)\microsoft visual studio\2017\community\vc\tools\msvc\14.10.25017\include\xmemory0
;	COMDAT ??$destroy@PAD@?$_Wrap_alloc@V?$allocator@D@std@@@std@@QAEXPAPAD@Z
_TEXT	SEGMENT
__Ptr$ = 8						; size = 4
??$destroy@PAD@?$_Wrap_alloc@V?$allocator@D@std@@@std@@QAEXPAPAD@Z PROC ; std::_Wrap_alloc<std::allocator<char> >::destroy<char *>, COMDAT
; _this$ = ecx

; 1103 : 		_Mytraits::destroy(*this, _Ptr);
; 1104 : 		}

	ret	4
??$destroy@PAD@?$_Wrap_alloc@V?$allocator@D@std@@@std@@QAEXPAPAD@Z ENDP ; std::_Wrap_alloc<std::allocator<char> >::destroy<char *>
_TEXT	ENDS
; Function compile flags: /Ogtp
; File c:\program files (x86)\microsoft visual studio\2017\community\vc\tools\msvc\14.10.25017\include\xstddef
;	COMDAT ??$addressof@PAD@std@@YAPAPADAAPAD@Z
_TEXT	SEGMENT
__Val$ = 8						; size = 4
??$addressof@PAD@std@@YAPAPADAAPAD@Z PROC		; std::addressof<char *>, COMDAT

; 629  : 	{	// return address of _Val

	npad	2
	push	ebp
	mov	ebp, esp

; 630  : 	return (__builtin_addressof(_Val));

	mov	eax, DWORD PTR __Val$[ebp]

; 631  : 	}

	pop	ebp
	ret	0
??$addressof@PAD@std@@YAPAPADAAPAD@Z ENDP		; std::addressof<char *>
_TEXT	ENDS
; Function compile flags: /Ogtp
; File c:\program files (x86)\microsoft visual studio\2017\community\vc\tools\msvc\14.10.25017\include\xmemory0
;	COMDAT ??$destroy@PA_W@?$_Wrap_alloc@V?$allocator@_W@std@@@std@@QAEXPAPA_W@Z
_TEXT	SEGMENT
__Ptr$ = 8						; size = 4
??$destroy@PA_W@?$_Wrap_alloc@V?$allocator@_W@std@@@std@@QAEXPAPA_W@Z PROC ; std::_Wrap_alloc<std::allocator<wchar_t> >::destroy<wchar_t *>, COMDAT
; _this$ = ecx

; 1103 : 		_Mytraits::destroy(*this, _Ptr);
; 1104 : 		}

	ret	4
??$destroy@PA_W@?$_Wrap_alloc@V?$allocator@_W@std@@@std@@QAEXPAPA_W@Z ENDP ; std::_Wrap_alloc<std::allocator<wchar_t> >::destroy<wchar_t *>
_TEXT	ENDS
; Function compile flags: /Ogtp
; File c:\program files (x86)\microsoft visual studio\2017\community\vc\tools\msvc\14.10.25017\include\xstddef
;	COMDAT ??$addressof@PA_W@std@@YAPAPA_WAAPA_W@Z
_TEXT	SEGMENT
__Val$ = 8						; size = 4
??$addressof@PA_W@std@@YAPAPA_WAAPA_W@Z PROC		; std::addressof<wchar_t *>, COMDAT

; 629  : 	{	// return address of _Val

	npad	2
	push	ebp
	mov	ebp, esp

; 630  : 	return (__builtin_addressof(_Val));

	mov	eax, DWORD PTR __Val$[ebp]

; 631  : 	}

	pop	ebp
	ret	0
??$addressof@PA_W@std@@YAPAPA_WAAPA_W@Z ENDP		; std::addressof<wchar_t *>
_TEXT	ENDS
; Function compile flags: /Ogtp
; File c:\program files (x86)\microsoft visual studio\2017\community\vc\tools\msvc\14.10.25017\include\xutility
; File c:\program files (x86)\microsoft visual studio\2017\community\vc\tools\msvc\14.10.25017\include\xstring
; File c:\program files (x86)\microsoft visual studio\2017\community\vc\tools\msvc\14.10.25017\include\xutility
; File c:\program files (x86)\microsoft visual studio\2017\community\vc\tools\msvc\14.10.25017\include\xstring
; File c:\program files (x86)\microsoft visual studio\2017\community\vc\tools\msvc\14.10.25017\include\xutility
;	COMDAT ??$?0$$V@?$_Compressed_pair@U?$_Wrap_alloc@V?$allocator@D@std@@@std@@V?$_String_val@U?$_Simple_types@D@std@@@2@$00@std@@QAE@U_Zero_then_variadic_args_t@1@@Z
_TEXT	SEGMENT
___formal$ = 8						; size = 1
??$?0$$V@?$_Compressed_pair@U?$_Wrap_alloc@V?$allocator@D@std@@@std@@V?$_String_val@U?$_Simple_types@D@std@@@2@$00@std@@QAE@U_Zero_then_variadic_args_t@1@@Z PROC ; std::_Compressed_pair<std::_Wrap_alloc<std::allocator<char> >,std::_String_val<std::_Simple_types<char> >,1>::_Compressed_pair<std::_Wrap_alloc<std::allocator<char> >,std::_String_val<std::_Simple_types<char> >,1><>, COMDAT
; _this$ = ecx
; File c:\program files (x86)\microsoft visual studio\2017\community\vc\tools\msvc\14.10.25017\include\xstring

; 1595 : 		_Mysize(0),

	mov	DWORD PTR [ecx+16], 0
; File c:\program files (x86)\microsoft visual studio\2017\community\vc\tools\msvc\14.10.25017\include\xutility

; 304  : 		}

	mov	eax, ecx
; File c:\program files (x86)\microsoft visual studio\2017\community\vc\tools\msvc\14.10.25017\include\xstring

; 1596 : 		_Myres(0)

	mov	DWORD PTR [ecx+20], 0
; File c:\program files (x86)\microsoft visual studio\2017\community\vc\tools\msvc\14.10.25017\include\xutility

; 304  : 		}

	ret	4
??$?0$$V@?$_Compressed_pair@U?$_Wrap_alloc@V?$allocator@D@std@@@std@@V?$_String_val@U?$_Simple_types@D@std@@@2@$00@std@@QAE@U_Zero_then_variadic_args_t@1@@Z ENDP ; std::_Compressed_pair<std::_Wrap_alloc<std::allocator<char> >,std::_String_val<std::_Simple_types<char> >,1>::_Compressed_pair<std::_Wrap_alloc<std::allocator<char> >,std::_String_val<std::_Simple_types<char> >,1><>
_TEXT	ENDS
; Function compile flags: /Ogtp
; File c:\program files (x86)\microsoft visual studio\2017\community\vc\tools\msvc\14.10.25017\include\xutility
; File c:\program files (x86)\microsoft visual studio\2017\community\vc\tools\msvc\14.10.25017\include\xstring
; File c:\program files (x86)\microsoft visual studio\2017\community\vc\tools\msvc\14.10.25017\include\xutility
; File c:\program files (x86)\microsoft visual studio\2017\community\vc\tools\msvc\14.10.25017\include\xstring
; File c:\program files (x86)\microsoft visual studio\2017\community\vc\tools\msvc\14.10.25017\include\xutility
;	COMDAT ??$?0$$V@?$_Compressed_pair@U?$_Wrap_alloc@V?$allocator@_W@std@@@std@@V?$_String_val@U?$_Simple_types@_W@std@@@2@$00@std@@QAE@U_Zero_then_variadic_args_t@1@@Z
_TEXT	SEGMENT
___formal$ = 8						; size = 1
??$?0$$V@?$_Compressed_pair@U?$_Wrap_alloc@V?$allocator@_W@std@@@std@@V?$_String_val@U?$_Simple_types@_W@std@@@2@$00@std@@QAE@U_Zero_then_variadic_args_t@1@@Z PROC ; std::_Compressed_pair<std::_Wrap_alloc<std::allocator<wchar_t> >,std::_String_val<std::_Simple_types<wchar_t> >,1>::_Compressed_pair<std::_Wrap_alloc<std::allocator<wchar_t> >,std::_String_val<std::_Simple_types<wchar_t> >,1><>, COMDAT
; _this$ = ecx
; File c:\program files (x86)\microsoft visual studio\2017\community\vc\tools\msvc\14.10.25017\include\xstring

; 1595 : 		_Mysize(0),

	mov	DWORD PTR [ecx+16], 0
; File c:\program files (x86)\microsoft visual studio\2017\community\vc\tools\msvc\14.10.25017\include\xutility

; 304  : 		}

	mov	eax, ecx
; File c:\program files (x86)\microsoft visual studio\2017\community\vc\tools\msvc\14.10.25017\include\xstring

; 1596 : 		_Myres(0)

	mov	DWORD PTR [ecx+20], 0
; File c:\program files (x86)\microsoft visual studio\2017\community\vc\tools\msvc\14.10.25017\include\xutility

; 304  : 		}

	ret	4
??$?0$$V@?$_Compressed_pair@U?$_Wrap_alloc@V?$allocator@_W@std@@@std@@V?$_String_val@U?$_Simple_types@_W@std@@@2@$00@std@@QAE@U_Zero_then_variadic_args_t@1@@Z ENDP ; std::_Compressed_pair<std::_Wrap_alloc<std::allocator<wchar_t> >,std::_String_val<std::_Simple_types<wchar_t> >,1>::_Compressed_pair<std::_Wrap_alloc<std::allocator<wchar_t> >,std::_String_val<std::_Simple_types<wchar_t> >,1><>
_TEXT	ENDS
; Function compile flags: /Ogtp
; File c:\program files (x86)\microsoft visual studio\2017\community\vc\tools\msvc\14.10.25017\include\type_traits
;	COMDAT ??$move@AAV?$basic_string@DU?$char_traits@D@std@@V?$allocator@D@2@@std@@@std@@YA$$QAV?$basic_string@DU?$char_traits@D@std@@V?$allocator@D@2@@0@AAV10@@Z
_TEXT	SEGMENT
__Arg$ = 8						; size = 4
??$move@AAV?$basic_string@DU?$char_traits@D@std@@V?$allocator@D@2@@std@@@std@@YA$$QAV?$basic_string@DU?$char_traits@D@std@@V?$allocator@D@2@@0@AAV10@@Z PROC ; std::move<std::basic_string<char,std::char_traits<char>,std::allocator<char> > &>, COMDAT

; 1350 : 	{	// forward _Arg as movable

	npad	2
	push	ebp
	mov	ebp, esp

; 1351 : 	return (static_cast<typename remove_reference<_Ty>::type&&>(_Arg));

	mov	eax, DWORD PTR __Arg$[ebp]

; 1352 : 	}

	pop	ebp
	ret	0
??$move@AAV?$basic_string@DU?$char_traits@D@std@@V?$allocator@D@2@@std@@@std@@YA$$QAV?$basic_string@DU?$char_traits@D@std@@V?$allocator@D@2@@0@AAV10@@Z ENDP ; std::move<std::basic_string<char,std::char_traits<char>,std::allocator<char> > &>
_TEXT	ENDS
; Function compile flags: /Ogtp
; File c:\program files (x86)\microsoft visual studio\2017\community\vc\tools\msvc\14.10.25017\include\xstring
;	COMDAT ??$?0U?$_Wrap_alloc@V?$allocator@D@std@@@std@@X@?$_String_alloc@U?$_String_base_types@DV?$allocator@D@std@@@std@@@std@@QAE@$$QAU?$_Wrap_alloc@V?$allocator@D@std@@@1@@Z
_TEXT	SEGMENT
__Al$ = 8						; size = 4
??$?0U?$_Wrap_alloc@V?$allocator@D@std@@@std@@X@?$_String_alloc@U?$_String_base_types@DV?$allocator@D@std@@@std@@@std@@QAE@$$QAU?$_Wrap_alloc@V?$allocator@D@std@@@1@@Z PROC ; std::_String_alloc<std::_String_base_types<char,std::allocator<char> > >::_String_alloc<std::_String_base_types<char,std::allocator<char> > ><std::_Wrap_alloc<std::allocator<char> >,void>, COMDAT
; _this$ = ecx

; 1595 : 		_Mysize(0),

	mov	DWORD PTR [ecx+16], 0

; 1705 : 		}

	mov	eax, ecx

; 1596 : 		_Myres(0)

	mov	DWORD PTR [ecx+20], 0

; 1705 : 		}

	ret	4
??$?0U?$_Wrap_alloc@V?$allocator@D@std@@@std@@X@?$_String_alloc@U?$_String_base_types@DV?$allocator@D@std@@@std@@@std@@QAE@$$QAU?$_Wrap_alloc@V?$allocator@D@std@@@1@@Z ENDP ; std::_String_alloc<std::_String_base_types<char,std::allocator<char> > >::_String_alloc<std::_String_base_types<char,std::allocator<char> > ><std::_Wrap_alloc<std::allocator<char> >,void>
_TEXT	ENDS
; Function compile flags: /Ogtp
; File c:\program files (x86)\microsoft visual studio\2017\community\vc\tools\msvc\14.10.25017\include\type_traits
;	COMDAT ??$move@AAU?$_Wrap_alloc@V?$allocator@D@std@@@std@@@std@@YA$$QAU?$_Wrap_alloc@V?$allocator@D@std@@@0@AAU10@@Z
_TEXT	SEGMENT
__Arg$ = 8						; size = 4
??$move@AAU?$_Wrap_alloc@V?$allocator@D@std@@@std@@@std@@YA$$QAU?$_Wrap_alloc@V?$allocator@D@std@@@0@AAU10@@Z PROC ; std::move<std::_Wrap_alloc<std::allocator<char> > &>, COMDAT

; 1350 : 	{	// forward _Arg as movable

	npad	2
	push	ebp
	mov	ebp, esp

; 1351 : 	return (static_cast<typename remove_reference<_Ty>::type&&>(_Arg));

	mov	eax, DWORD PTR __Arg$[ebp]

; 1352 : 	}

	pop	ebp
	ret	0
??$move@AAU?$_Wrap_alloc@V?$allocator@D@std@@@std@@@std@@YA$$QAU?$_Wrap_alloc@V?$allocator@D@std@@@0@AAU10@@Z ENDP ; std::move<std::_Wrap_alloc<std::allocator<char> > &>
_TEXT	ENDS
; Function compile flags: /Ogtp
; File c:\users\andon\source\repos\specialk\src\imgui\eula.cpp
; File c:\users\andon\source\repos\specialk\include\imgui\imgui.h
; File c:\users\andon\source\repos\specialk\src\imgui\eula.cpp
; File c:\users\andon\source\repos\specialk\include\imgui\imgui.h
; File c:\users\andon\source\repos\specialk\src\imgui\eula.cpp
; File c:\program files (x86)\microsoft visual studio\2017\community\vc\tools\msvc\14.10.25017\include\xstring
; File c:\users\andon\source\repos\specialk\src\imgui\eula.cpp
; File c:\users\andon\source\repos\specialk\include\imgui\imgui.h
; File c:\users\andon\source\repos\specialk\src\imgui\eula.cpp
; File c:\users\andon\source\repos\specialk\include\imgui\imgui.h
; File c:\users\andon\source\repos\specialk\src\imgui\eula.cpp
; File c:\users\andon\source\repos\specialk\include\imgui\imgui.h
; File c:\users\andon\source\repos\specialk\src\imgui\eula.cpp
; File c:\program files (x86)\microsoft visual studio\2017\community\vc\tools\msvc\14.10.25017\include\xstring
; File c:\users\andon\source\repos\specialk\src\imgui\eula.cpp
; File c:\program files (x86)\microsoft visual studio\2017\community\vc\tools\msvc\14.10.25017\include\xstring
; File c:\program files (x86)\microsoft visual studio\2017\community\vc\tools\msvc\14.10.25017\include\xstddef
; File c:\users\andon\source\repos\specialk\src\imgui\eula.cpp
; File c:\program files (x86)\microsoft visual studio\2017\community\vc\tools\msvc\14.10.25017\include\xstring
; File c:\users\andon\source\repos\specialk\src\imgui\eula.cpp
; File c:\program files (x86)\microsoft visual studio\2017\community\vc\tools\msvc\14.10.25017\include\xstring
; File c:\program files (x86)\microsoft visual studio\2017\community\vc\tools\msvc\14.10.25017\include\xmemory0
; File c:\users\andon\source\repos\specialk\src\imgui\eula.cpp
; File c:\program files (x86)\microsoft visual studio\2017\community\vc\tools\msvc\14.10.25017\include\xstring
; File c:\users\andon\source\repos\specialk\src\imgui\eula.cpp
; File c:\program files (x86)\microsoft visual studio\2017\community\vc\tools\msvc\14.10.25017\include\xstring
; File c:\program files (x86)\microsoft visual studio\2017\community\vc\tools\msvc\14.10.25017\include\xstddef
; File c:\users\andon\source\repos\specialk\src\imgui\eula.cpp
; File c:\program files (x86)\microsoft visual studio\2017\community\vc\tools\msvc\14.10.25017\include\xstring
; File c:\users\andon\source\repos\specialk\src\imgui\eula.cpp
; File c:\program files (x86)\microsoft visual studio\2017\community\vc\tools\msvc\14.10.25017\include\xstring
; File c:\program files (x86)\microsoft visual studio\2017\community\vc\tools\msvc\14.10.25017\include\xmemory0
; File c:\users\andon\source\repos\specialk\src\imgui\eula.cpp
; File c:\program files (x86)\microsoft visual studio\2017\community\vc\tools\msvc\14.10.25017\include\xstring
; File c:\users\andon\source\repos\specialk\src\imgui\eula.cpp
; File c:\program files (x86)\microsoft visual studio\2017\community\vc\tools\msvc\14.10.25017\include\xstring
; File c:\program files (x86)\microsoft visual studio\2017\community\vc\tools\msvc\14.10.25017\include\xstddef
; File c:\users\andon\source\repos\specialk\src\imgui\eula.cpp
; File c:\program files (x86)\microsoft visual studio\2017\community\vc\tools\msvc\14.10.25017\include\xstring
; File c:\users\andon\source\repos\specialk\src\imgui\eula.cpp
; File c:\program files (x86)\microsoft visual studio\2017\community\vc\tools\msvc\14.10.25017\include\xstring
; File c:\program files (x86)\microsoft visual studio\2017\community\vc\tools\msvc\14.10.25017\include\xmemory0
; File c:\users\andon\source\repos\specialk\src\imgui\eula.cpp
; File c:\program files (x86)\microsoft visual studio\2017\community\vc\tools\msvc\14.10.25017\include\xstring
; File c:\users\andon\source\repos\specialk\src\imgui\eula.cpp
; File c:\program files (x86)\microsoft visual studio\2017\community\vc\tools\msvc\14.10.25017\include\xstring
; File c:\program files (x86)\microsoft visual studio\2017\community\vc\tools\msvc\14.10.25017\include\xstddef
; File c:\users\andon\source\repos\specialk\src\imgui\eula.cpp
; File c:\program files (x86)\microsoft visual studio\2017\community\vc\tools\msvc\14.10.25017\include\xstring
; File c:\users\andon\source\repos\specialk\src\imgui\eula.cpp
; File c:\program files (x86)\microsoft visual studio\2017\community\vc\tools\msvc\14.10.25017\include\xstring
; File c:\program files (x86)\microsoft visual studio\2017\community\vc\tools\msvc\14.10.25017\include\xmemory0
; File c:\users\andon\source\repos\specialk\src\imgui\eula.cpp
; File c:\program files (x86)\microsoft visual studio\2017\community\vc\tools\msvc\14.10.25017\include\xstring
; File c:\users\andon\source\repos\specialk\src\imgui\eula.cpp
; File c:\program files (x86)\microsoft visual studio\2017\community\vc\tools\msvc\14.10.25017\include\xstring
; File c:\program files (x86)\microsoft visual studio\2017\community\vc\tools\msvc\14.10.25017\include\xstddef
; File c:\users\andon\source\repos\specialk\src\imgui\eula.cpp
; File c:\program files (x86)\microsoft visual studio\2017\community\vc\tools\msvc\14.10.25017\include\xstring
; File c:\users\andon\source\repos\specialk\src\imgui\eula.cpp
; File c:\program files (x86)\microsoft visual studio\2017\community\vc\tools\msvc\14.10.25017\include\xstring
; File c:\program files (x86)\microsoft visual studio\2017\community\vc\tools\msvc\14.10.25017\include\xmemory0
; File c:\users\andon\source\repos\specialk\src\imgui\eula.cpp
; File c:\program files (x86)\microsoft visual studio\2017\community\vc\tools\msvc\14.10.25017\include\xstring
; File c:\users\andon\source\repos\specialk\src\imgui\eula.cpp
; File c:\program files (x86)\microsoft visual studio\2017\community\vc\tools\msvc\14.10.25017\include\xstring
; File c:\program files (x86)\microsoft visual studio\2017\community\vc\tools\msvc\14.10.25017\include\xstddef
; File c:\users\andon\source\repos\specialk\src\imgui\eula.cpp
; File c:\program files (x86)\microsoft visual studio\2017\community\vc\tools\msvc\14.10.25017\include\xstring
; File c:\users\andon\source\repos\specialk\src\imgui\eula.cpp
; File c:\program files (x86)\microsoft visual studio\2017\community\vc\tools\msvc\14.10.25017\include\xstring
; File c:\program files (x86)\microsoft visual studio\2017\community\vc\tools\msvc\14.10.25017\include\xmemory0
; File c:\users\andon\source\repos\specialk\src\imgui\eula.cpp
; File c:\program files (x86)\microsoft visual studio\2017\community\vc\tools\msvc\14.10.25017\include\xstring
; File c:\users\andon\source\repos\specialk\src\imgui\eula.cpp
; File c:\program files (x86)\microsoft visual studio\2017\community\vc\tools\msvc\14.10.25017\include\xstring
; File c:\program files (x86)\microsoft visual studio\2017\community\vc\tools\msvc\14.10.25017\include\xstddef
; File c:\users\andon\source\repos\specialk\src\imgui\eula.cpp
; File c:\program files (x86)\microsoft visual studio\2017\community\vc\tools\msvc\14.10.25017\include\xstring
; File c:\users\andon\source\repos\specialk\src\imgui\eula.cpp
; File c:\program files (x86)\microsoft visual studio\2017\community\vc\tools\msvc\14.10.25017\include\xstring
; File c:\program files (x86)\microsoft visual studio\2017\community\vc\tools\msvc\14.10.25017\include\xstddef
; File c:\users\andon\source\repos\specialk\src\imgui\eula.cpp
; File c:\program files (x86)\microsoft visual studio\2017\community\vc\tools\msvc\14.10.25017\include\xstring
; File c:\users\andon\source\repos\specialk\src\imgui\eula.cpp
; File c:\program files (x86)\microsoft visual studio\2017\community\vc\tools\msvc\14.10.25017\include\xstring
; File c:\program files (x86)\microsoft visual studio\2017\community\vc\tools\msvc\14.10.25017\include\xmemory0
; File c:\users\andon\source\repos\specialk\src\imgui\eula.cpp
; File c:\program files (x86)\microsoft visual studio\2017\community\vc\tools\msvc\14.10.25017\include\xstring
; File c:\users\andon\source\repos\specialk\src\imgui\eula.cpp
; File c:\program files (x86)\microsoft visual studio\2017\community\vc\tools\msvc\14.10.25017\include\xstring
; File c:\program files (x86)\microsoft visual studio\2017\community\vc\tools\msvc\14.10.25017\include\xstddef
; File c:\users\andon\source\repos\specialk\src\imgui\eula.cpp
; File c:\program files (x86)\microsoft visual studio\2017\community\vc\tools\msvc\14.10.25017\include\xstring
; File c:\users\andon\source\repos\specialk\src\imgui\eula.cpp
; File c:\program files (x86)\microsoft visual studio\2017\community\vc\tools\msvc\14.10.25017\include\xstring
; File c:\program files (x86)\microsoft visual studio\2017\community\vc\tools\msvc\14.10.25017\include\xmemory0
; File c:\users\andon\source\repos\specialk\src\imgui\eula.cpp
; File c:\program files (x86)\microsoft visual studio\2017\community\vc\tools\msvc\14.10.25017\include\xstring
; File c:\users\andon\source\repos\specialk\src\imgui\eula.cpp
; File c:\program files (x86)\microsoft visual studio\2017\community\vc\tools\msvc\14.10.25017\include\xstring
; File c:\program files (x86)\microsoft visual studio\2017\community\vc\tools\msvc\14.10.25017\include\xstddef
; File c:\users\andon\source\repos\specialk\src\imgui\eula.cpp
; File c:\program files (x86)\microsoft visual studio\2017\community\vc\tools\msvc\14.10.25017\include\xstring
; File c:\users\andon\source\repos\specialk\src\imgui\eula.cpp
; File c:\program files (x86)\microsoft visual studio\2017\community\vc\tools\msvc\14.10.25017\include\xstring
; File c:\program files (x86)\microsoft visual studio\2017\community\vc\tools\msvc\14.10.25017\include\xmemory0
; File c:\users\andon\source\repos\specialk\src\imgui\eula.cpp
; File c:\program files (x86)\microsoft visual studio\2017\community\vc\tools\msvc\14.10.25017\include\xstring
; File c:\users\andon\source\repos\specialk\src\imgui\eula.cpp
; File c:\program files (x86)\microsoft visual studio\2017\community\vc\tools\msvc\14.10.25017\include\xstring
; File c:\program files (x86)\microsoft visual studio\2017\community\vc\tools\msvc\14.10.25017\include\xstddef
; File c:\users\andon\source\repos\specialk\src\imgui\eula.cpp
; File c:\program files (x86)\microsoft visual studio\2017\community\vc\tools\msvc\14.10.25017\include\xstring
; File c:\users\andon\source\repos\specialk\src\imgui\eula.cpp
; File c:\program files (x86)\microsoft visual studio\2017\community\vc\tools\msvc\14.10.25017\include\xstring
; File c:\program files (x86)\microsoft visual studio\2017\community\vc\tools\msvc\14.10.25017\include\xmemory0
; File c:\users\andon\source\repos\specialk\src\imgui\eula.cpp
; File c:\program files (x86)\microsoft visual studio\2017\community\vc\tools\msvc\14.10.25017\include\xstring
; File c:\users\andon\source\repos\specialk\src\imgui\eula.cpp
; File c:\program files (x86)\microsoft visual studio\2017\community\vc\tools\msvc\14.10.25017\include\xstring
; File c:\program files (x86)\microsoft visual studio\2017\community\vc\tools\msvc\14.10.25017\include\xstddef
; File c:\users\andon\source\repos\specialk\src\imgui\eula.cpp
; File c:\program files (x86)\microsoft visual studio\2017\community\vc\tools\msvc\14.10.25017\include\xstring
; File c:\users\andon\source\repos\specialk\src\imgui\eula.cpp
; File c:\program files (x86)\microsoft visual studio\2017\community\vc\tools\msvc\14.10.25017\include\xstring
; File c:\program files (x86)\microsoft visual studio\2017\community\vc\tools\msvc\14.10.25017\include\xmemory0
; File c:\users\andon\source\repos\specialk\src\imgui\eula.cpp
; File c:\program files (x86)\microsoft visual studio\2017\community\vc\tools\msvc\14.10.25017\include\xstring
; File c:\users\andon\source\repos\specialk\src\imgui\eula.cpp
; File c:\program files (x86)\microsoft visual studio\2017\community\vc\tools\msvc\14.10.25017\include\xstring
; File c:\program files (x86)\microsoft visual studio\2017\community\vc\tools\msvc\14.10.25017\include\xstddef
; File c:\users\andon\source\repos\specialk\src\imgui\eula.cpp
; File c:\program files (x86)\microsoft visual studio\2017\community\vc\tools\msvc\14.10.25017\include\xstring
; File c:\users\andon\source\repos\specialk\src\imgui\eula.cpp
; File c:\program files (x86)\microsoft visual studio\2017\community\vc\tools\msvc\14.10.25017\include\xstring
; File c:\program files (x86)\microsoft visual studio\2017\community\vc\tools\msvc\14.10.25017\include\xmemory0
; File c:\users\andon\source\repos\specialk\src\imgui\eula.cpp
; File c:\program files (x86)\microsoft visual studio\2017\community\vc\tools\msvc\14.10.25017\include\xstring
; File c:\users\andon\source\repos\specialk\src\imgui\eula.cpp
; File c:\program files (x86)\microsoft visual studio\2017\community\vc\tools\msvc\14.10.25017\include\xstring
; File c:\program files (x86)\microsoft visual studio\2017\community\vc\tools\msvc\14.10.25017\include\xstddef
; File c:\users\andon\source\repos\specialk\src\imgui\eula.cpp
; File c:\program files (x86)\microsoft visual studio\2017\community\vc\tools\msvc\14.10.25017\include\xstring
; File c:\users\andon\source\repos\specialk\src\imgui\eula.cpp
; File c:\program files (x86)\microsoft visual studio\2017\community\vc\tools\msvc\14.10.25017\include\xstring
; File c:\program files (x86)\microsoft visual studio\2017\community\vc\tools\msvc\14.10.25017\include\xmemory0
; File c:\users\andon\source\repos\specialk\src\imgui\eula.cpp
; File c:\program files (x86)\microsoft visual studio\2017\community\vc\tools\msvc\14.10.25017\include\xstring
; File c:\users\andon\source\repos\specialk\src\imgui\eula.cpp
; File c:\program files (x86)\microsoft visual studio\2017\community\vc\tools\msvc\14.10.25017\include\xstring
; File c:\program files (x86)\microsoft visual studio\2017\community\vc\tools\msvc\14.10.25017\include\xstddef
; File c:\users\andon\source\repos\specialk\src\imgui\eula.cpp
; File c:\program files (x86)\microsoft visual studio\2017\community\vc\tools\msvc\14.10.25017\include\xstring
; File c:\users\andon\source\repos\specialk\src\imgui\eula.cpp
; File c:\program files (x86)\microsoft visual studio\2017\community\vc\tools\msvc\14.10.25017\include\xstring
; File c:\program files (x86)\microsoft visual studio\2017\community\vc\tools\msvc\14.10.25017\include\xmemory0
; File c:\users\andon\source\repos\specialk\src\imgui\eula.cpp
; File c:\program files (x86)\microsoft visual studio\2017\community\vc\tools\msvc\14.10.25017\include\xstring
; File c:\users\andon\source\repos\specialk\src\imgui\eula.cpp
; File c:\program files (x86)\microsoft visual studio\2017\community\vc\tools\msvc\14.10.25017\include\xstring
; File c:\program files (x86)\microsoft visual studio\2017\community\vc\tools\msvc\14.10.25017\include\xstddef
; File c:\users\andon\source\repos\specialk\src\imgui\eula.cpp
; File c:\program files (x86)\microsoft visual studio\2017\community\vc\tools\msvc\14.10.25017\include\xstring
; File c:\users\andon\source\repos\specialk\src\imgui\eula.cpp
; File c:\program files (x86)\microsoft visual studio\2017\community\vc\tools\msvc\14.10.25017\include\xstring
; File c:\program files (x86)\microsoft visual studio\2017\community\vc\tools\msvc\14.10.25017\include\xmemory0
; File c:\users\andon\source\repos\specialk\src\imgui\eula.cpp
; File c:\program files (x86)\microsoft visual studio\2017\community\vc\tools\msvc\14.10.25017\include\xstring
; File c:\users\andon\source\repos\specialk\src\imgui\eula.cpp
; File c:\program files (x86)\microsoft visual studio\2017\community\vc\tools\msvc\14.10.25017\include\xstring
; File c:\program files (x86)\microsoft visual studio\2017\community\vc\tools\msvc\14.10.25017\include\xstddef
; File c:\users\andon\source\repos\specialk\src\imgui\eula.cpp
; File c:\program files (x86)\microsoft visual studio\2017\community\vc\tools\msvc\14.10.25017\include\xstring
; File c:\users\andon\source\repos\specialk\src\imgui\eula.cpp
; File c:\program files (x86)\microsoft visual studio\2017\community\vc\tools\msvc\14.10.25017\include\xstring
; File c:\program files (x86)\microsoft visual studio\2017\community\vc\tools\msvc\14.10.25017\include\xmemory0
; File c:\users\andon\source\repos\specialk\src\imgui\eula.cpp
; File c:\users\andon\source\repos\specialk\include\imgui\imgui.h
; File c:\users\andon\source\repos\specialk\src\imgui\eula.cpp
; File c:\users\andon\source\repos\specialk\include\imgui\imgui.h
; File c:\users\andon\source\repos\specialk\src\imgui\eula.cpp
; File c:\users\andon\source\repos\specialk\include\imgui\imgui.h
; File c:\users\andon\source\repos\specialk\src\imgui\eula.cpp
; File c:\users\andon\source\repos\specialk\include\imgui\imgui.h
; File c:\users\andon\source\repos\specialk\src\imgui\eula.cpp
; File c:\program files (x86)\microsoft visual studio\2017\community\vc\tools\msvc\14.10.25017\include\xstring
; File c:\program files (x86)\microsoft visual studio\2017\community\vc\tools\msvc\14.10.25017\include\xmemory0
; File c:\program files (x86)\microsoft visual studio\2017\community\vc\tools\msvc\14.10.25017\include\xstring
; File c:\program files (x86)\microsoft visual studio\2017\community\vc\tools\msvc\14.10.25017\include\xmemory0
; File c:\users\andon\source\repos\specialk\src\imgui\eula.cpp
_TEXT	SEGMENT
_szTitle$ = -340					; size = 256
_plugin$ = -84						; size = 24
$T2 = -60						; size = 8
$T3 = -52						; size = 16
$T4 = -52						; size = 16
$T5 = -52						; size = 16
$T6 = -44						; size = 8
$T7 = -44						; size = 8
$T8 = -44						; size = 8
$T9 = -44						; size = 8
$T10 = -44						; size = 8
$T11 = -36						; size = 24
$T12 = -36						; size = 24
$T13 = -36						; size = 24
$T14 = -36						; size = 24
$T15 = -36						; size = 24
$T16 = -36						; size = 24
$T17 = -36						; size = 24
$T18 = -36						; size = 24
$T19 = -36						; size = 24
$T20 = -36						; size = 24
$T21 = -36						; size = 24
$T22 = -36						; size = 24
$T23 = -36						; size = 24
$T24 = -36						; size = 24
$T25 = -36						; size = 24
$T26 = -36						; size = 24
$T27 = -36						; size = 24
$T28 = -28						; size = 16
__$EHRec$ = -12						; size = 12
_font_size_multiline$1$ = 8				; size = 4
_font_size$1$ = 8					; size = 4
tv3550 = 8						; size = 4
_reserved$ = 8						; size = 4
?SK_ImGui_DrawEULA@@YGXPAX@Z PROC			; SK_ImGui_DrawEULA

; 97   : {

	npad	2
	push	ebp
	mov	ebp, esp
	mov	eax, DWORD PTR fs:0
	push	-1
	push	__ehhandler$?SK_ImGui_DrawEULA@@YGXPAX@Z
	push	eax
	mov	DWORD PTR fs:0, esp
	sub	esp, 328				; 00000148H
	push	ebx
	push	esi
	push	edi

; 98   :   extern uint32_t __stdcall SK_Steam_PiratesAhoy (void);
; 99   :   extern uint32_t __stdcall SK_SteamAPI_AppID    (void);
; 100  : 
; 101  :   ImGuiIO& io =

	call	?GetIO@ImGui@@YAAAUImGuiIO@@XZ		; ImGui::GetIO

; 102  :     ImGui::GetIO ();
; 103  : 
; 104  :   struct show_eula_s {
; 105  :     bool show;
; 106  :     bool never_show_again;
; 107  :   };
; 108  : 
; 109  :   static float last_width  = -1;
; 110  :   static float last_height = -1;
; 111  : 
; 112  :   if (last_width != io.DisplaySize.x || last_height != io.DisplaySize.y)

	movss	xmm0, DWORD PTR ?last_width@?1??SK_ImGui_DrawEULA@@YGXPAX@Z@4MA
	mov	esi, eax
	movss	xmm2, DWORD PTR [esi]
	ucomiss	xmm0, xmm2
	lahf
	test	ah, 68					; 00000044H
	jp	SHORT $LN3@SK_ImGui_D
	movss	xmm1, DWORD PTR [esi+4]
	movss	xmm0, DWORD PTR ?last_height@?1??SK_ImGui_DrawEULA@@YGXPAX@Z@4MA
	ucomiss	xmm0, xmm1
	lahf
	test	ah, 68					; 00000044H
	jnp	SHORT $LN2@SK_ImGui_D
$LN3@SK_ImGui_D:

; 113  :   {
; 114  :     ImGui::SetNextWindowPosCenter       (ImGuiSetCond_Always);

	push	1
	call	?SetNextWindowPosCenter@ImGui@@YAXH@Z	; ImGui::SetNextWindowPosCenter

; 115  :     last_width = io.DisplaySize.x; last_height = io.DisplaySize.y;

	movss	xmm2, DWORD PTR [esi]
	add	esp, 4
	movss	xmm1, DWORD PTR [esi+4]
	movss	DWORD PTR ?last_width@?1??SK_ImGui_DrawEULA@@YGXPAX@Z@4MA, xmm2
	movss	DWORD PTR ?last_height@?1??SK_ImGui_DrawEULA@@YGXPAX@Z@4MA, xmm1
$LN2@SK_ImGui_D:

; 118  :   ImGui::SetNextWindowSizeConstraints (ImVec2 (780.0f, 325.0f), ImVec2 ( 0.925f * io.DisplaySize.x,

	mulss	xmm1, DWORD PTR __real@3f6ccccd
	lea	eax, DWORD PTR $T2[ebp]
	push	0
	mulss	xmm2, DWORD PTR __real@3f6ccccd
	push	0
	push	eax
	lea	eax, DWORD PTR $T10[ebp]
; File c:\users\andon\source\repos\specialk\include\imgui\imgui.h

; 98   :     ImVec2(float _x, float _y) { x = _x; y = _y; }

	movss	DWORD PTR $T2[ebp+4], xmm1
; File c:\users\andon\source\repos\specialk\src\imgui\eula.cpp

; 118  :   ImGui::SetNextWindowSizeConstraints (ImVec2 (780.0f, 325.0f), ImVec2 ( 0.925f * io.DisplaySize.x,

	push	eax
; File c:\users\andon\source\repos\specialk\include\imgui\imgui.h

; 98   :     ImVec2(float _x, float _y) { x = _x; y = _y; }

	movss	DWORD PTR $T2[ebp], xmm2
	mov	DWORD PTR $T10[ebp], 1145241600		; 44430000H
	mov	DWORD PTR $T10[ebp+4], 1134723072	; 43a28000H
; File c:\users\andon\source\repos\specialk\src\imgui\eula.cpp

; 118  :   ImGui::SetNextWindowSizeConstraints (ImVec2 (780.0f, 325.0f), ImVec2 ( 0.925f * io.DisplaySize.x,

	call	?SetNextWindowSizeConstraints@ImGui@@YAXABUImVec2@@0P6AXPAUImGuiSizeConstraintCallbackData@@@ZPAX@Z ; ImGui::SetNextWindowSizeConstraints
	add	esp, 16					; 00000010H

; 119  :                                                                          0.925f * io.DisplaySize.y ) );
; 120  : 
; 121  :   std::wstring plugin = SK_GetPluginName ();

	lea	eax, DWORD PTR _plugin$[ebp]
	push	eax
	call	?SK_GetPluginName@@YG?AV?$basic_string@_WU?$char_traits@_W@std@@V?$allocator@_W@2@@std@@XZ ; SK_GetPluginName

; 122  : 
; 123  :          char szTitle [256] = { };

	push	256					; 00000100H
	lea	eax, DWORD PTR _szTitle$[ebp]
	mov	DWORD PTR __$EHRec$[ebp+8], 0
	push	0
	push	eax
	call	_memset
; File c:\program files (x86)\microsoft visual studio\2017\community\vc\tools\msvc\14.10.25017\include\xstring

; 1628 : 		return (this->_BUF_SIZE <= _Myres);

	cmp	DWORD PTR _plugin$[ebp+20], 8

; 1621 : 		return (_Large_string_engaged()

	lea	eax, DWORD PTR _plugin$[ebp]
	cmovae	eax, DWORD PTR _plugin$[ebp]
; File c:\users\andon\source\repos\specialk\src\imgui\eula.cpp

; 126  :   sprintf (szTitle, "%ws Software License Agreement", plugin.c_str ());

	push	eax
	lea	eax, DWORD PTR _szTitle$[ebp]
	push	OFFSET $SG129361
	push	eax
	call	_sprintf

; 127  : 
; 128  :   if (((show_eula_s *)reserved)->show)

	mov	edi, DWORD PTR _reserved$[ebp]
	add	esp, 24					; 00000018H
	cmp	BYTE PTR [edi], 0
	je	SHORT $LN4@SK_ImGui_D

; 129  :     ImGui::OpenPopup (szTitle);

	lea	eax, DWORD PTR _szTitle$[ebp]
	push	eax
	call	?OpenPopup@ImGui@@YAXPBD@Z		; ImGui::OpenPopup
	add	esp, 4
$LN4@SK_ImGui_D:

; 130  : 
; 131  :   const  float font_size           =             ImGui::GetFont  ()->FontSize                        * io.FontGlobalScale;

	call	?GetFont@ImGui@@YAPAUImFont@@XZ		; ImGui::GetFont
	movss	xmm0, DWORD PTR [esi+132]
	mulss	xmm0, DWORD PTR [eax]
	movss	DWORD PTR _font_size$1$[ebp], xmm0

; 132  :   const  float font_size_multiline = font_size + ImGui::GetStyle ().ItemSpacing.y + ImGui::GetStyle ().ItemInnerSpacing.y;

	call	?GetStyle@ImGui@@YAAAUImGuiStyle@@XZ	; ImGui::GetStyle
	movss	xmm0, DWORD PTR [eax+52]
	addss	xmm0, DWORD PTR _font_size$1$[ebp]
	movss	DWORD PTR tv3550[ebp], xmm0
	call	?GetStyle@ImGui@@YAAAUImGuiStyle@@XZ	; ImGui::GetStyle

; 133  : 
; 134  : 
; 135  :   ImGui::SetNextWindowPosCenter (ImGuiSetCond_Appearing);

	push	8
	movss	xmm0, DWORD PTR [eax+60]
	addss	xmm0, DWORD PTR tv3550[ebp]
	movss	DWORD PTR _font_size_multiline$1$[ebp], xmm0
	call	?SetNextWindowPosCenter@ImGui@@YAXH@Z	; ImGui::SetNextWindowPosCenter

; 136  :   ImGui::SetNextWindowFocus     ();

	call	?SetNextWindowFocus@ImGui@@YAXXZ	; ImGui::SetNextWindowFocus

; 137  : 
; 138  :   if (ImGui::BeginPopupModal (szTitle, nullptr, ImGuiWindowFlags_AlwaysAutoResize | ImGuiWindowFlags_ShowBorders))

	push	192					; 000000c0H
	lea	eax, DWORD PTR _szTitle$[ebp]
	push	0
	push	eax
	call	?BeginPopupModal@ImGui@@YA_NPBDPA_NH@Z	; ImGui::BeginPopupModal
	add	esp, 16					; 00000010H
	test	al, al
	je	$LN5@SK_ImGui_D

; 139  :   {
; 140  :     //if (io.DisplaySize.x < 1024.0f || io.DisplaySize.y < 720.0f)
; 141  :     //{
; 142  :     //  ImGui::PushStyleColor (ImGuiCol_Text, ImVec4 (1.0f, 0.6f, 0.2f, 1.0f));
; 143  :     //  ImGui::Bullet   ();
; 144  :     //  ImGui::SameLine ();
; 145  :     //  ImGui::TextWrapped (
; 146  :     //       "This software only runs at resolutions >= 1024x768 or 1280x720, please uninstall the software or use a higher resolution than (%lux%lu).",
; 147  :     //         (int)io.DisplaySize.x, (int)io.DisplaySize.y
; 148  :     //  );
; 149  :     //  ImGui::PopStyleColor ();
; 150  :     //  goto END_POPUP;
; 151  :     //}
; 152  : 
; 153  :     bool pirate = ( SK_SteamAPI_AppID    () != 0 && 

	call	?SK_SteamAPI_AppID@@YGIXZ		; SK_SteamAPI_AppID
	test	eax, eax
	je	SHORT $LN30@SK_ImGui_D
	call	?SK_Steam_PiratesAhoy@@YGIXZ		; SK_Steam_PiratesAhoy
	test	eax, eax
	je	SHORT $LN30@SK_ImGui_D
	mov	bl, 1
	jmp	SHORT $LN31@SK_ImGui_D
$LN30@SK_ImGui_D:
	xor	bl, bl
$LN31@SK_ImGui_D:

; 154  :                     SK_Steam_PiratesAhoy () != 0x0 );
; 155  : 
; 156  : 
; 157  :     ImGui::BeginGroup ();

	call	?BeginGroup@ImGui@@YAXXZ		; ImGui::BeginGroup
	movaps	xmm0, XMMWORD PTR __xmm@3f8000003dcccccd3f6666663f666666

; 158  : 
; 159  :     ImGui::PushStyleColor (ImGuiCol_Text, ImVec4 (0.9f, 0.9f, 0.1f, 1.0f));

	lea	eax, DWORD PTR $T5[ebp]
	push	eax
	push	0
	movups	XMMWORD PTR $T5[ebp], xmm0
	call	?PushStyleColor@ImGui@@YAXHABUImVec4@@@Z ; ImGui::PushStyleColor

; 160  :     ImGui::Bullet   ();

	call	?Bullet@ImGui@@YAXXZ			; ImGui::Bullet

; 161  :     ImGui::SameLine ();

	mov	DWORD PTR [esp+4], -1082130432		; bf800000H
	mov	DWORD PTR [esp], 0
	call	?SameLine@ImGui@@YAXMM@Z		; ImGui::SameLine

; 162  :     ImGui::TextWrapped (

	push	OFFSET $SG129364
	call	?TextWrapped@ImGui@@YAXPBDZZ		; ImGui::TextWrapped

; 163  :          "Use of this software is granted on the condition that any products being modified have been licensed to you under the "
; 164  :          "terms and conditions set forth by their respective copyright holders.\n"
; 165  :     );
; 166  :     ImGui::PopStyleColor ();

	push	1
	call	?PopStyleColor@ImGui@@YAXH@Z		; ImGui::PopStyleColor

; 167  : 
; 168  :     ImGui::Separator ();

	call	?Separator@ImGui@@YAXXZ			; ImGui::Separator

; 169  :     ImGui::EndGroup  ();

	call	?EndGroup@ImGui@@YAXXZ			; ImGui::EndGroup

; 172  :     ImGui::BeginChild ("EULA_Body",  ImVec2 (0.0f, font_size_multiline * 14), false);

	movss	xmm0, DWORD PTR _font_size_multiline$1$[ebp]
	lea	eax, DWORD PTR $T9[ebp]
	mulss	xmm0, DWORD PTR __real@41600000
	push	0
	push	0
	push	eax
	push	OFFSET $SG129365
; File c:\users\andon\source\repos\specialk\include\imgui\imgui.h

; 98   :     ImVec2(float _x, float _y) { x = _x; y = _y; }

	mov	DWORD PTR $T9[ebp], 0
	movss	DWORD PTR $T9[ebp+4], xmm0
; File c:\users\andon\source\repos\specialk\src\imgui\eula.cpp

; 172  :     ImGui::BeginChild ("EULA_Body",  ImVec2 (0.0f, font_size_multiline * 14), false);

	call	?BeginChild@ImGui@@YA_NPBDABUImVec2@@_NH@Z ; ImGui::BeginChild

; 173  :     ImGui::BeginChild ("EULA_Inset", ImVec2 (0.0f, 0.0f),                     false, ImGuiWindowFlags_NavFlattened);

	push	524288					; 00080000H
	push	0
	lea	eax, DWORD PTR $T8[ebp]
; File c:\users\andon\source\repos\specialk\include\imgui\imgui.h

; 98   :     ImVec2(float _x, float _y) { x = _x; y = _y; }

	mov	DWORD PTR $T8[ebp], 0
; File c:\users\andon\source\repos\specialk\src\imgui\eula.cpp

; 173  :     ImGui::BeginChild ("EULA_Inset", ImVec2 (0.0f, 0.0f),                     false, ImGuiWindowFlags_NavFlattened);

	push	eax
	push	OFFSET $SG129366
; File c:\users\andon\source\repos\specialk\include\imgui\imgui.h

; 98   :     ImVec2(float _x, float _y) { x = _x; y = _y; }

	mov	DWORD PTR $T8[ebp+4], 0
; File c:\users\andon\source\repos\specialk\src\imgui\eula.cpp

; 173  :     ImGui::BeginChild ("EULA_Inset", ImVec2 (0.0f, 0.0f),                     false, ImGuiWindowFlags_NavFlattened);

	call	?BeginChild@ImGui@@YA_NPBDABUImVec2@@_NH@Z ; ImGui::BeginChild

; 174  :     ImGui::BeginGroup ();

	call	?BeginGroup@ImGui@@YAXXZ		; ImGui::BeginGroup

; 175  : 
; 176  :     if (ImGui::CollapsingHeader (pirate ? "Overview of Products Unlicensed" : 

	mov	ecx, OFFSET $SG129369
	test	bl, bl
	mov	eax, OFFSET $SG129368
	cmove	eax, ecx
	push	0
	push	eax
	call	?CollapsingHeader@ImGui@@YA_NPBDH@Z	; ImGui::CollapsingHeader
	add	esp, 56					; 00000038H
	test	al, al
	je	SHORT $LN6@SK_ImGui_D

; 177  :                                           "Overview of Products Licensed"))
; 178  :     {
; 179  :       ImGui::PushFont (ImGui::GetIO ().Fonts->Fonts [1]); // Fixed-width font

	call	?GetIO@ImGui@@YAAAUImGuiIO@@XZ		; ImGui::GetIO
	mov	eax, DWORD PTR [eax+128]
	mov	eax, DWORD PTR [eax+40]
	push	DWORD PTR [eax+4]
	call	?PushFont@ImGui@@YAXPAUImFont@@@Z	; ImGui::PushFont

; 180  :       ImGui::TextWrapped ("%s", SK_GetLicenseText (IDR_LICENSE_OVERVIEW).c_str ());

	lea	eax, DWORD PTR $T27[ebp]
	push	10126					; 0000278eH
	push	eax
	call	?SK_GetLicenseText@@YA?AV?$basic_string@DU?$char_traits@D@std@@V?$allocator@D@2@@std@@F@Z ; SK_GetLicenseText
	add	esp, 12					; 0000000cH
; File c:\program files (x86)\microsoft visual studio\2017\community\vc\tools\msvc\14.10.25017\include\xstring

; 1628 : 		return (this->_BUF_SIZE <= _Myres);

	cmp	DWORD PTR [eax+20], 16			; 00000010H
; File c:\users\andon\source\repos\specialk\src\imgui\eula.cpp

; 180  :       ImGui::TextWrapped ("%s", SK_GetLicenseText (IDR_LICENSE_OVERVIEW).c_str ());

	mov	BYTE PTR __$EHRec$[ebp+8], 1
; File c:\program files (x86)\microsoft visual studio\2017\community\vc\tools\msvc\14.10.25017\include\xstring

; 1621 : 		return (_Large_string_engaged()

	jb	SHORT $LN95@SK_ImGui_D
; File c:\program files (x86)\microsoft visual studio\2017\community\vc\tools\msvc\14.10.25017\include\xstddef

; 643  : 	return (_Ptr);

	mov	eax, DWORD PTR [eax]
$LN95@SK_ImGui_D:
; File c:\users\andon\source\repos\specialk\src\imgui\eula.cpp

; 180  :       ImGui::TextWrapped ("%s", SK_GetLicenseText (IDR_LICENSE_OVERVIEW).c_str ());

	push	eax
	push	OFFSET $SG129370
	call	?TextWrapped@ImGui@@YAXPBDZZ		; ImGui::TextWrapped
; File c:\program files (x86)\microsoft visual studio\2017\community\vc\tools\msvc\14.10.25017\include\xstring

; 1628 : 		return (this->_BUF_SIZE <= _Myres);

	mov	eax, DWORD PTR $T27[ebp+20]
; File c:\users\andon\source\repos\specialk\src\imgui\eula.cpp

; 180  :       ImGui::TextWrapped ("%s", SK_GetLicenseText (IDR_LICENSE_OVERVIEW).c_str ());

	add	esp, 8
	mov	BYTE PTR __$EHRec$[ebp+8], 0
; File c:\program files (x86)\microsoft visual studio\2017\community\vc\tools\msvc\14.10.25017\include\xstring

; 1628 : 		return (this->_BUF_SIZE <= _Myres);

	cmp	eax, 16					; 00000010H

; 3608 : 		if (_My_data._Large_string_engaged())

	jb	SHORT $LN105@SK_ImGui_D

; 3613 : 			_Al.deallocate(_Ptr, _My_data._Myres + 1);

	inc	eax
; File c:\program files (x86)\microsoft visual studio\2017\community\vc\tools\msvc\14.10.25017\include\xmemory0

; 823  : 		_Deallocate(_Ptr, _Count, sizeof (_Ty));

	push	1
	push	eax
	push	DWORD PTR $T27[ebp]
	call	?_Deallocate@std@@YAXPAXII@Z		; std::_Deallocate
	add	esp, 12					; 0000000cH
$LN105@SK_ImGui_D:
; File c:\users\andon\source\repos\specialk\src\imgui\eula.cpp

; 181  :       ImGui::PopFont  ();

	call	?PopFont@ImGui@@YAXXZ			; ImGui::PopFont
$LN6@SK_ImGui_D:

; 182  :     }
; 183  : 
; 184  :     ImGui::Separator  ();

	call	?Separator@ImGui@@YAXXZ			; ImGui::Separator

; 185  : 
; 186  :     SK_ImGui_DrawEULA_PlugIn (reserved);

	push	edi
	call	?SK_ImGui_DrawEULA_PlugIn@@YGXPAX@Z	; SK_ImGui_DrawEULA_PlugIn

; 187  : 
; 188  :     if (ImGui::CollapsingHeader ("7-Zip"))

	push	0
	push	OFFSET $SG129372
	call	?CollapsingHeader@ImGui@@YA_NPBDH@Z	; ImGui::CollapsingHeader
	add	esp, 8
	test	al, al
	je	SHORT $LN154@SK_ImGui_D

; 190  :       ImGui::TextWrapped ("%s", SK_GetLicenseText (IDR_LICENSE_7ZIP).c_str ());

	lea	eax, DWORD PTR $T26[ebp]
	push	10114					; 00002782H
	push	eax
	call	?SK_GetLicenseText@@YA?AV?$basic_string@DU?$char_traits@D@std@@V?$allocator@D@2@@std@@F@Z ; SK_GetLicenseText
	add	esp, 8
; File c:\program files (x86)\microsoft visual studio\2017\community\vc\tools\msvc\14.10.25017\include\xstring

; 1628 : 		return (this->_BUF_SIZE <= _Myres);

	cmp	DWORD PTR [eax+20], 16			; 00000010H
; File c:\users\andon\source\repos\specialk\src\imgui\eula.cpp

; 190  :       ImGui::TextWrapped ("%s", SK_GetLicenseText (IDR_LICENSE_7ZIP).c_str ());

	mov	BYTE PTR __$EHRec$[ebp+8], 2
; File c:\program files (x86)\microsoft visual studio\2017\community\vc\tools\msvc\14.10.25017\include\xstring

; 1621 : 		return (_Large_string_engaged()

	jb	SHORT $LN144@SK_ImGui_D
; File c:\program files (x86)\microsoft visual studio\2017\community\vc\tools\msvc\14.10.25017\include\xstddef

; 643  : 	return (_Ptr);

	mov	eax, DWORD PTR [eax]
$LN144@SK_ImGui_D:
; File c:\users\andon\source\repos\specialk\src\imgui\eula.cpp

; 190  :       ImGui::TextWrapped ("%s", SK_GetLicenseText (IDR_LICENSE_7ZIP).c_str ());

	push	eax
	push	OFFSET $SG129373
	call	?TextWrapped@ImGui@@YAXPBDZZ		; ImGui::TextWrapped
; File c:\program files (x86)\microsoft visual studio\2017\community\vc\tools\msvc\14.10.25017\include\xstring

; 1628 : 		return (this->_BUF_SIZE <= _Myres);

	mov	eax, DWORD PTR $T26[ebp+20]
; File c:\users\andon\source\repos\specialk\src\imgui\eula.cpp

; 190  :       ImGui::TextWrapped ("%s", SK_GetLicenseText (IDR_LICENSE_7ZIP).c_str ());

	add	esp, 8
	mov	BYTE PTR __$EHRec$[ebp+8], 0
; File c:\program files (x86)\microsoft visual studio\2017\community\vc\tools\msvc\14.10.25017\include\xstring

; 1628 : 		return (this->_BUF_SIZE <= _Myres);

	cmp	eax, 16					; 00000010H

; 3608 : 		if (_My_data._Large_string_engaged())

	jb	SHORT $LN154@SK_ImGui_D

; 3613 : 			_Al.deallocate(_Ptr, _My_data._Myres + 1);

	inc	eax
; File c:\program files (x86)\microsoft visual studio\2017\community\vc\tools\msvc\14.10.25017\include\xmemory0

; 823  : 		_Deallocate(_Ptr, _Count, sizeof (_Ty));

	push	1
	push	eax
	push	DWORD PTR $T26[ebp]
	call	?_Deallocate@std@@YAXPAXII@Z		; std::_Deallocate
	add	esp, 12					; 0000000cH
$LN154@SK_ImGui_D:
; File c:\users\andon\source\repos\specialk\src\imgui\eula.cpp

; 193  :     if (config.apis.ADL.enable && ImGui::CollapsingHeader ("ADL"))

	cmp	BYTE PTR ?config@@3Usk_config_t@@A+789, 0
	je	SHORT $LN203@SK_ImGui_D
	push	0
	push	OFFSET $SG129375
	call	?CollapsingHeader@ImGui@@YA_NPBDH@Z	; ImGui::CollapsingHeader
	add	esp, 8
	test	al, al
	je	SHORT $LN203@SK_ImGui_D

; 195  :       ImGui::TextWrapped ("%s", SK_GetLicenseText (IDR_LICENSE_ADL).c_str ());

	lea	eax, DWORD PTR $T25[ebp]
	push	10115					; 00002783H
	push	eax
	call	?SK_GetLicenseText@@YA?AV?$basic_string@DU?$char_traits@D@std@@V?$allocator@D@2@@std@@F@Z ; SK_GetLicenseText
	add	esp, 8
; File c:\program files (x86)\microsoft visual studio\2017\community\vc\tools\msvc\14.10.25017\include\xstring

; 1628 : 		return (this->_BUF_SIZE <= _Myres);

	cmp	DWORD PTR [eax+20], 16			; 00000010H
; File c:\users\andon\source\repos\specialk\src\imgui\eula.cpp

; 195  :       ImGui::TextWrapped ("%s", SK_GetLicenseText (IDR_LICENSE_ADL).c_str ());

	mov	BYTE PTR __$EHRec$[ebp+8], 3
; File c:\program files (x86)\microsoft visual studio\2017\community\vc\tools\msvc\14.10.25017\include\xstring

; 1621 : 		return (_Large_string_engaged()

	jb	SHORT $LN193@SK_ImGui_D
; File c:\program files (x86)\microsoft visual studio\2017\community\vc\tools\msvc\14.10.25017\include\xstddef

; 643  : 	return (_Ptr);

	mov	eax, DWORD PTR [eax]
$LN193@SK_ImGui_D:
; File c:\users\andon\source\repos\specialk\src\imgui\eula.cpp

; 195  :       ImGui::TextWrapped ("%s", SK_GetLicenseText (IDR_LICENSE_ADL).c_str ());

	push	eax
	push	OFFSET $SG129376
	call	?TextWrapped@ImGui@@YAXPBDZZ		; ImGui::TextWrapped
; File c:\program files (x86)\microsoft visual studio\2017\community\vc\tools\msvc\14.10.25017\include\xstring

; 1628 : 		return (this->_BUF_SIZE <= _Myres);

	mov	eax, DWORD PTR $T25[ebp+20]
; File c:\users\andon\source\repos\specialk\src\imgui\eula.cpp

; 195  :       ImGui::TextWrapped ("%s", SK_GetLicenseText (IDR_LICENSE_ADL).c_str ());

	add	esp, 8
	mov	BYTE PTR __$EHRec$[ebp+8], 0
; File c:\program files (x86)\microsoft visual studio\2017\community\vc\tools\msvc\14.10.25017\include\xstring

; 1628 : 		return (this->_BUF_SIZE <= _Myres);

	cmp	eax, 16					; 00000010H

; 3608 : 		if (_My_data._Large_string_engaged())

	jb	SHORT $LN203@SK_ImGui_D

; 3613 : 			_Al.deallocate(_Ptr, _My_data._Myres + 1);

	inc	eax
; File c:\program files (x86)\microsoft visual studio\2017\community\vc\tools\msvc\14.10.25017\include\xmemory0

; 823  : 		_Deallocate(_Ptr, _Count, sizeof (_Ty));

	push	1
	push	eax
	push	DWORD PTR $T25[ebp]
	call	?_Deallocate@std@@YAXPAXII@Z		; std::_Deallocate
	add	esp, 12					; 0000000cH
$LN203@SK_ImGui_D:
; File c:\users\andon\source\repos\specialk\src\imgui\eula.cpp

; 198  :     if (config.cegui.enable && ImGui::CollapsingHeader ("CEGUI (D3D9/11/GL)"))

	cmp	BYTE PTR ?config@@3Usk_config_t@@A+160, 0
	je	SHORT $LN252@SK_ImGui_D
	push	0
	push	OFFSET $SG129378
	call	?CollapsingHeader@ImGui@@YA_NPBDH@Z	; ImGui::CollapsingHeader
	add	esp, 8
	test	al, al
	je	SHORT $LN252@SK_ImGui_D

; 200  :       ImGui::TextWrapped ("%s", SK_GetLicenseText (IDR_LICENSE_CEGUI).c_str ());

	lea	eax, DWORD PTR $T24[ebp]
	push	10116					; 00002784H
	push	eax
	call	?SK_GetLicenseText@@YA?AV?$basic_string@DU?$char_traits@D@std@@V?$allocator@D@2@@std@@F@Z ; SK_GetLicenseText
	add	esp, 8
; File c:\program files (x86)\microsoft visual studio\2017\community\vc\tools\msvc\14.10.25017\include\xstring

; 1628 : 		return (this->_BUF_SIZE <= _Myres);

	cmp	DWORD PTR [eax+20], 16			; 00000010H
; File c:\users\andon\source\repos\specialk\src\imgui\eula.cpp

; 200  :       ImGui::TextWrapped ("%s", SK_GetLicenseText (IDR_LICENSE_CEGUI).c_str ());

	mov	BYTE PTR __$EHRec$[ebp+8], 4
; File c:\program files (x86)\microsoft visual studio\2017\community\vc\tools\msvc\14.10.25017\include\xstring

; 1621 : 		return (_Large_string_engaged()

	jb	SHORT $LN242@SK_ImGui_D
; File c:\program files (x86)\microsoft visual studio\2017\community\vc\tools\msvc\14.10.25017\include\xstddef

; 643  : 	return (_Ptr);

	mov	eax, DWORD PTR [eax]
$LN242@SK_ImGui_D:
; File c:\users\andon\source\repos\specialk\src\imgui\eula.cpp

; 200  :       ImGui::TextWrapped ("%s", SK_GetLicenseText (IDR_LICENSE_CEGUI).c_str ());

	push	eax
	push	OFFSET $SG129379
	call	?TextWrapped@ImGui@@YAXPBDZZ		; ImGui::TextWrapped
; File c:\program files (x86)\microsoft visual studio\2017\community\vc\tools\msvc\14.10.25017\include\xstring

; 1628 : 		return (this->_BUF_SIZE <= _Myres);

	mov	eax, DWORD PTR $T24[ebp+20]
; File c:\users\andon\source\repos\specialk\src\imgui\eula.cpp

; 200  :       ImGui::TextWrapped ("%s", SK_GetLicenseText (IDR_LICENSE_CEGUI).c_str ());

	add	esp, 8
	mov	BYTE PTR __$EHRec$[ebp+8], 0
; File c:\program files (x86)\microsoft visual studio\2017\community\vc\tools\msvc\14.10.25017\include\xstring

; 1628 : 		return (this->_BUF_SIZE <= _Myres);

	cmp	eax, 16					; 00000010H

; 3608 : 		if (_My_data._Large_string_engaged())

	jb	SHORT $LN252@SK_ImGui_D

; 3613 : 			_Al.deallocate(_Ptr, _My_data._Myres + 1);

	inc	eax
; File c:\program files (x86)\microsoft visual studio\2017\community\vc\tools\msvc\14.10.25017\include\xmemory0

; 823  : 		_Deallocate(_Ptr, _Count, sizeof (_Ty));

	push	1
	push	eax
	push	DWORD PTR $T24[ebp]
	call	?_Deallocate@std@@YAXPAXII@Z		; std::_Deallocate
	add	esp, 12					; 0000000cH
$LN252@SK_ImGui_D:
; File c:\users\andon\source\repos\specialk\src\imgui\eula.cpp

; 204  :                SK_GetCurrentRenderBackend ().api ==      SK_RenderAPI::D3D12 ) &&

	call	?SK_GetCurrentRenderBackend@@YGAAVSK_RenderBackend_V2@@XZ ; SK_GetCurrentRenderBackend
	test	BYTE PTR [eax], 64			; 00000040H
	jne	SHORT $LN11@SK_ImGui_D
	call	?SK_GetCurrentRenderBackend@@YGAAVSK_RenderBackend_V2@@XZ ; SK_GetCurrentRenderBackend
	cmp	DWORD PTR [eax], 128			; 00000080H
	jne	SHORT $LN301@SK_ImGui_D
$LN11@SK_ImGui_D:
	push	0
	push	OFFSET $SG129382
	call	?CollapsingHeader@ImGui@@YA_NPBDH@Z	; ImGui::CollapsingHeader
	add	esp, 8
	test	al, al
	je	SHORT $LN301@SK_ImGui_D

; 208  :       ImGui::TextWrapped ("%s", SK_GetLicenseText (IDR_LICENSE_DXTEX).c_str ());

	lea	eax, DWORD PTR $T23[ebp]
	push	10117					; 00002785H
	push	eax
	call	?SK_GetLicenseText@@YA?AV?$basic_string@DU?$char_traits@D@std@@V?$allocator@D@2@@std@@F@Z ; SK_GetLicenseText
	add	esp, 8
; File c:\program files (x86)\microsoft visual studio\2017\community\vc\tools\msvc\14.10.25017\include\xstring

; 1628 : 		return (this->_BUF_SIZE <= _Myres);

	cmp	DWORD PTR [eax+20], 16			; 00000010H
; File c:\users\andon\source\repos\specialk\src\imgui\eula.cpp

; 208  :       ImGui::TextWrapped ("%s", SK_GetLicenseText (IDR_LICENSE_DXTEX).c_str ());

	mov	BYTE PTR __$EHRec$[ebp+8], 5
; File c:\program files (x86)\microsoft visual studio\2017\community\vc\tools\msvc\14.10.25017\include\xstring

; 1621 : 		return (_Large_string_engaged()

	jb	SHORT $LN291@SK_ImGui_D
; File c:\program files (x86)\microsoft visual studio\2017\community\vc\tools\msvc\14.10.25017\include\xstddef

; 643  : 	return (_Ptr);

	mov	eax, DWORD PTR [eax]
$LN291@SK_ImGui_D:
; File c:\users\andon\source\repos\specialk\src\imgui\eula.cpp

; 208  :       ImGui::TextWrapped ("%s", SK_GetLicenseText (IDR_LICENSE_DXTEX).c_str ());

	push	eax
	push	OFFSET $SG129383
	call	?TextWrapped@ImGui@@YAXPBDZZ		; ImGui::TextWrapped
; File c:\program files (x86)\microsoft visual studio\2017\community\vc\tools\msvc\14.10.25017\include\xstring

; 1628 : 		return (this->_BUF_SIZE <= _Myres);

	mov	eax, DWORD PTR $T23[ebp+20]
; File c:\users\andon\source\repos\specialk\src\imgui\eula.cpp

; 208  :       ImGui::TextWrapped ("%s", SK_GetLicenseText (IDR_LICENSE_DXTEX).c_str ());

	add	esp, 8
	mov	BYTE PTR __$EHRec$[ebp+8], 0
; File c:\program files (x86)\microsoft visual studio\2017\community\vc\tools\msvc\14.10.25017\include\xstring

; 1628 : 		return (this->_BUF_SIZE <= _Myres);

	cmp	eax, 16					; 00000010H

; 3608 : 		if (_My_data._Large_string_engaged())

	jb	SHORT $LN301@SK_ImGui_D

; 3613 : 			_Al.deallocate(_Ptr, _My_data._Myres + 1);

	inc	eax
; File c:\program files (x86)\microsoft visual studio\2017\community\vc\tools\msvc\14.10.25017\include\xmemory0

; 823  : 		_Deallocate(_Ptr, _Count, sizeof (_Ty));

	push	1
	push	eax
	push	DWORD PTR $T23[ebp]
	call	?_Deallocate@std@@YAXPAXII@Z		; std::_Deallocate
	add	esp, 12					; 0000000cH
$LN301@SK_ImGui_D:
; File c:\users\andon\source\repos\specialk\src\imgui\eula.cpp

; 211  :     if (config.cegui.enable && ImGui::CollapsingHeader ("FreeType 2"))

	cmp	BYTE PTR ?config@@3Usk_config_t@@A+160, 0
	je	$LN418@SK_ImGui_D
	push	0
	push	OFFSET $SG129385
	call	?CollapsingHeader@ImGui@@YA_NPBDH@Z	; ImGui::CollapsingHeader
	add	esp, 8
	test	al, al
	je	SHORT $LN350@SK_ImGui_D

; 213  :       ImGui::TextWrapped ("%s", SK_GetLicenseText (IDR_LICENSE_FREETYPE2).c_str ());

	lea	eax, DWORD PTR $T22[ebp]
	push	10118					; 00002786H
	push	eax
	call	?SK_GetLicenseText@@YA?AV?$basic_string@DU?$char_traits@D@std@@V?$allocator@D@2@@std@@F@Z ; SK_GetLicenseText
	add	esp, 8
; File c:\program files (x86)\microsoft visual studio\2017\community\vc\tools\msvc\14.10.25017\include\xstring

; 1628 : 		return (this->_BUF_SIZE <= _Myres);

	cmp	DWORD PTR [eax+20], 16			; 00000010H
; File c:\users\andon\source\repos\specialk\src\imgui\eula.cpp

; 213  :       ImGui::TextWrapped ("%s", SK_GetLicenseText (IDR_LICENSE_FREETYPE2).c_str ());

	mov	BYTE PTR __$EHRec$[ebp+8], 6
; File c:\program files (x86)\microsoft visual studio\2017\community\vc\tools\msvc\14.10.25017\include\xstring

; 1621 : 		return (_Large_string_engaged()

	jb	SHORT $LN340@SK_ImGui_D
; File c:\program files (x86)\microsoft visual studio\2017\community\vc\tools\msvc\14.10.25017\include\xstddef

; 643  : 	return (_Ptr);

	mov	eax, DWORD PTR [eax]
$LN340@SK_ImGui_D:
; File c:\users\andon\source\repos\specialk\src\imgui\eula.cpp

; 213  :       ImGui::TextWrapped ("%s", SK_GetLicenseText (IDR_LICENSE_FREETYPE2).c_str ());

	push	eax
	push	OFFSET $SG129386
	call	?TextWrapped@ImGui@@YAXPBDZZ		; ImGui::TextWrapped
; File c:\program files (x86)\microsoft visual studio\2017\community\vc\tools\msvc\14.10.25017\include\xstring

; 1628 : 		return (this->_BUF_SIZE <= _Myres);

	mov	eax, DWORD PTR $T22[ebp+20]
; File c:\users\andon\source\repos\specialk\src\imgui\eula.cpp

; 213  :       ImGui::TextWrapped ("%s", SK_GetLicenseText (IDR_LICENSE_FREETYPE2).c_str ());

	add	esp, 8
	mov	BYTE PTR __$EHRec$[ebp+8], 0
; File c:\program files (x86)\microsoft visual studio\2017\community\vc\tools\msvc\14.10.25017\include\xstring

; 1628 : 		return (this->_BUF_SIZE <= _Myres);

	cmp	eax, 16					; 00000010H

; 3608 : 		if (_My_data._Large_string_engaged())

	jb	SHORT $LN350@SK_ImGui_D

; 3613 : 			_Al.deallocate(_Ptr, _My_data._Myres + 1);

	inc	eax
; File c:\program files (x86)\microsoft visual studio\2017\community\vc\tools\msvc\14.10.25017\include\xmemory0

; 823  : 		_Deallocate(_Ptr, _Count, sizeof (_Ty));

	push	1
	push	eax
	push	DWORD PTR $T22[ebp]
	call	?_Deallocate@std@@YAXPAXII@Z		; std::_Deallocate
	add	esp, 12					; 0000000cH
$LN350@SK_ImGui_D:
; File c:\users\andon\source\repos\specialk\src\imgui\eula.cpp

; 217  :     if ( config.cegui.enable &&  SK_GetCurrentRenderBackend ().api == SK_RenderAPI::OpenGL &&

	cmp	BYTE PTR ?config@@3Usk_config_t@@A+160, 0
	je	$LN418@SK_ImGui_D
	call	?SK_GetCurrentRenderBackend@@YGAAVSK_RenderBackend_V2@@XZ ; SK_GetCurrentRenderBackend
	cmp	DWORD PTR [eax], 2
	jne	SHORT $LN13@SK_ImGui_D
	push	0
	push	OFFSET $SG129388
	call	?CollapsingHeader@ImGui@@YA_NPBDH@Z	; ImGui::CollapsingHeader
	add	esp, 8
	test	al, al
	je	SHORT $LN13@SK_ImGui_D

; 221  :       ImGui::TextWrapped ("%s", SK_GetLicenseText (IDR_LICENSE_GLEW).c_str ());

	lea	eax, DWORD PTR $T21[ebp]
	push	10119					; 00002787H
	push	eax
	call	?SK_GetLicenseText@@YA?AV?$basic_string@DU?$char_traits@D@std@@V?$allocator@D@2@@std@@F@Z ; SK_GetLicenseText
	add	esp, 8
; File c:\program files (x86)\microsoft visual studio\2017\community\vc\tools\msvc\14.10.25017\include\xstring

; 1628 : 		return (this->_BUF_SIZE <= _Myres);

	cmp	DWORD PTR [eax+20], 16			; 00000010H
; File c:\users\andon\source\repos\specialk\src\imgui\eula.cpp

; 221  :       ImGui::TextWrapped ("%s", SK_GetLicenseText (IDR_LICENSE_GLEW).c_str ());

	mov	BYTE PTR __$EHRec$[ebp+8], 7
; File c:\program files (x86)\microsoft visual studio\2017\community\vc\tools\msvc\14.10.25017\include\xstring

; 1621 : 		return (_Large_string_engaged()

	jb	SHORT $LN389@SK_ImGui_D
; File c:\program files (x86)\microsoft visual studio\2017\community\vc\tools\msvc\14.10.25017\include\xstddef

; 643  : 	return (_Ptr);

	mov	eax, DWORD PTR [eax]
$LN389@SK_ImGui_D:
; File c:\users\andon\source\repos\specialk\src\imgui\eula.cpp

; 221  :       ImGui::TextWrapped ("%s", SK_GetLicenseText (IDR_LICENSE_GLEW).c_str ());

	push	eax
	push	OFFSET $SG129389
	call	?TextWrapped@ImGui@@YAXPBDZZ		; ImGui::TextWrapped
	add	esp, 8
	mov	BYTE PTR __$EHRec$[ebp+8], 0
	lea	ecx, DWORD PTR $T21[ebp]
	call	??1?$basic_string@DU?$char_traits@D@std@@V?$allocator@D@2@@std@@QAE@XZ ; std::basic_string<char,std::char_traits<char>,std::allocator<char> >::~basic_string<char,std::char_traits<char>,std::allocator<char> >
$LN13@SK_ImGui_D:

; 222  :     }
; 223  : 
; 224  :     //IDR_LICENSE_GLFW_2_2    TEXTFILE  "licenses/GLFW_2_2.txt"
; 225  : 
; 226  :     if (config.cegui.enable && ImGui::CollapsingHeader ("GLM v 0.9.4.5"))

	cmp	BYTE PTR ?config@@3Usk_config_t@@A+160, 0
	je	SHORT $LN418@SK_ImGui_D
	push	0
	push	OFFSET $SG129391
	call	?CollapsingHeader@ImGui@@YA_NPBDH@Z	; ImGui::CollapsingHeader
	add	esp, 8
	test	al, al
	je	SHORT $LN418@SK_ImGui_D

; 228  :       ImGui::TextWrapped ("%s", SK_GetLicenseText (IDR_LICENSE_GLM_0_9_4_5).c_str ());

	lea	eax, DWORD PTR $T20[ebp]
	push	10121					; 00002789H
	push	eax
	call	?SK_GetLicenseText@@YA?AV?$basic_string@DU?$char_traits@D@std@@V?$allocator@D@2@@std@@F@Z ; SK_GetLicenseText
	add	esp, 8
; File c:\program files (x86)\microsoft visual studio\2017\community\vc\tools\msvc\14.10.25017\include\xstring

; 1628 : 		return (this->_BUF_SIZE <= _Myres);

	cmp	DWORD PTR [eax+20], 16			; 00000010H
; File c:\users\andon\source\repos\specialk\src\imgui\eula.cpp

; 228  :       ImGui::TextWrapped ("%s", SK_GetLicenseText (IDR_LICENSE_GLM_0_9_4_5).c_str ());

	mov	BYTE PTR __$EHRec$[ebp+8], 8
; File c:\program files (x86)\microsoft visual studio\2017\community\vc\tools\msvc\14.10.25017\include\xstring

; 1621 : 		return (_Large_string_engaged()

	jb	SHORT $LN408@SK_ImGui_D
; File c:\program files (x86)\microsoft visual studio\2017\community\vc\tools\msvc\14.10.25017\include\xstddef

; 643  : 	return (_Ptr);

	mov	eax, DWORD PTR [eax]
$LN408@SK_ImGui_D:
; File c:\users\andon\source\repos\specialk\src\imgui\eula.cpp

; 228  :       ImGui::TextWrapped ("%s", SK_GetLicenseText (IDR_LICENSE_GLM_0_9_4_5).c_str ());

	push	eax
	push	OFFSET $SG129392
	call	?TextWrapped@ImGui@@YAXPBDZZ		; ImGui::TextWrapped
; File c:\program files (x86)\microsoft visual studio\2017\community\vc\tools\msvc\14.10.25017\include\xstring

; 1628 : 		return (this->_BUF_SIZE <= _Myres);

	mov	eax, DWORD PTR $T20[ebp+20]
; File c:\users\andon\source\repos\specialk\src\imgui\eula.cpp

; 228  :       ImGui::TextWrapped ("%s", SK_GetLicenseText (IDR_LICENSE_GLM_0_9_4_5).c_str ());

	add	esp, 8
	mov	BYTE PTR __$EHRec$[ebp+8], 0
; File c:\program files (x86)\microsoft visual studio\2017\community\vc\tools\msvc\14.10.25017\include\xstring

; 1628 : 		return (this->_BUF_SIZE <= _Myres);

	cmp	eax, 16					; 00000010H

; 3608 : 		if (_My_data._Large_string_engaged())

	jb	SHORT $LN418@SK_ImGui_D

; 3613 : 			_Al.deallocate(_Ptr, _My_data._Myres + 1);

	inc	eax
; File c:\program files (x86)\microsoft visual studio\2017\community\vc\tools\msvc\14.10.25017\include\xmemory0

; 823  : 		_Deallocate(_Ptr, _Count, sizeof (_Ty));

	push	1
	push	eax
	push	DWORD PTR $T20[ebp]
	call	?_Deallocate@std@@YAXPAXII@Z		; std::_Deallocate
	add	esp, 12					; 0000000cH
$LN418@SK_ImGui_D:
; File c:\users\andon\source\repos\specialk\src\imgui\eula.cpp

; 231  :     if (ImGui::CollapsingHeader ("ImGui"))

	push	0
	push	OFFSET $SG129394
	call	?CollapsingHeader@ImGui@@YA_NPBDH@Z	; ImGui::CollapsingHeader
	add	esp, 8
	test	al, al
	je	SHORT $LN467@SK_ImGui_D

; 233  :       ImGui::TextWrapped ("%s", SK_GetLicenseText (IDR_LICENSE_IMGUI).c_str ());

	lea	eax, DWORD PTR $T19[ebp]
	push	10122					; 0000278aH
	push	eax
	call	?SK_GetLicenseText@@YA?AV?$basic_string@DU?$char_traits@D@std@@V?$allocator@D@2@@std@@F@Z ; SK_GetLicenseText
	add	esp, 8
; File c:\program files (x86)\microsoft visual studio\2017\community\vc\tools\msvc\14.10.25017\include\xstring

; 1628 : 		return (this->_BUF_SIZE <= _Myres);

	cmp	DWORD PTR [eax+20], 16			; 00000010H
; File c:\users\andon\source\repos\specialk\src\imgui\eula.cpp

; 233  :       ImGui::TextWrapped ("%s", SK_GetLicenseText (IDR_LICENSE_IMGUI).c_str ());

	mov	BYTE PTR __$EHRec$[ebp+8], 9
; File c:\program files (x86)\microsoft visual studio\2017\community\vc\tools\msvc\14.10.25017\include\xstring

; 1621 : 		return (_Large_string_engaged()

	jb	SHORT $LN457@SK_ImGui_D
; File c:\program files (x86)\microsoft visual studio\2017\community\vc\tools\msvc\14.10.25017\include\xstddef

; 643  : 	return (_Ptr);

	mov	eax, DWORD PTR [eax]
$LN457@SK_ImGui_D:
; File c:\users\andon\source\repos\specialk\src\imgui\eula.cpp

; 233  :       ImGui::TextWrapped ("%s", SK_GetLicenseText (IDR_LICENSE_IMGUI).c_str ());

	push	eax
	push	OFFSET $SG129395
	call	?TextWrapped@ImGui@@YAXPBDZZ		; ImGui::TextWrapped
; File c:\program files (x86)\microsoft visual studio\2017\community\vc\tools\msvc\14.10.25017\include\xstring

; 1628 : 		return (this->_BUF_SIZE <= _Myres);

	mov	eax, DWORD PTR $T19[ebp+20]
; File c:\users\andon\source\repos\specialk\src\imgui\eula.cpp

; 233  :       ImGui::TextWrapped ("%s", SK_GetLicenseText (IDR_LICENSE_IMGUI).c_str ());

	add	esp, 8
	mov	BYTE PTR __$EHRec$[ebp+8], 0
; File c:\program files (x86)\microsoft visual studio\2017\community\vc\tools\msvc\14.10.25017\include\xstring

; 1628 : 		return (this->_BUF_SIZE <= _Myres);

	cmp	eax, 16					; 00000010H

; 3608 : 		if (_My_data._Large_string_engaged())

	jb	SHORT $LN467@SK_ImGui_D

; 3613 : 			_Al.deallocate(_Ptr, _My_data._Myres + 1);

	inc	eax
; File c:\program files (x86)\microsoft visual studio\2017\community\vc\tools\msvc\14.10.25017\include\xmemory0

; 823  : 		_Deallocate(_Ptr, _Count, sizeof (_Ty));

	push	1
	push	eax
	push	DWORD PTR $T19[ebp]
	call	?_Deallocate@std@@YAXPAXII@Z		; std::_Deallocate
	add	esp, 12					; 0000000cH
$LN467@SK_ImGui_D:
; File c:\users\andon\source\repos\specialk\src\imgui\eula.cpp

; 238  :     if (ImGui::CollapsingHeader ("MinHook"))

	push	0
	push	OFFSET $SG129397
	call	?CollapsingHeader@ImGui@@YA_NPBDH@Z	; ImGui::CollapsingHeader
	add	esp, 8
	test	al, al
	je	SHORT $LN516@SK_ImGui_D

; 240  :       ImGui::TextWrapped ("%s", SK_GetLicenseText (IDR_LICENSE_MINHOOK).c_str ());

	lea	eax, DWORD PTR $T18[ebp]
	push	10124					; 0000278cH
	push	eax
	call	?SK_GetLicenseText@@YA?AV?$basic_string@DU?$char_traits@D@std@@V?$allocator@D@2@@std@@F@Z ; SK_GetLicenseText
	add	esp, 8
; File c:\program files (x86)\microsoft visual studio\2017\community\vc\tools\msvc\14.10.25017\include\xstring

; 1628 : 		return (this->_BUF_SIZE <= _Myres);

	cmp	DWORD PTR [eax+20], 16			; 00000010H
; File c:\users\andon\source\repos\specialk\src\imgui\eula.cpp

; 240  :       ImGui::TextWrapped ("%s", SK_GetLicenseText (IDR_LICENSE_MINHOOK).c_str ());

	mov	BYTE PTR __$EHRec$[ebp+8], 10		; 0000000aH
; File c:\program files (x86)\microsoft visual studio\2017\community\vc\tools\msvc\14.10.25017\include\xstring

; 1621 : 		return (_Large_string_engaged()

	jb	SHORT $LN506@SK_ImGui_D
; File c:\program files (x86)\microsoft visual studio\2017\community\vc\tools\msvc\14.10.25017\include\xstddef

; 643  : 	return (_Ptr);

	mov	eax, DWORD PTR [eax]
$LN506@SK_ImGui_D:
; File c:\users\andon\source\repos\specialk\src\imgui\eula.cpp

; 240  :       ImGui::TextWrapped ("%s", SK_GetLicenseText (IDR_LICENSE_MINHOOK).c_str ());

	push	eax
	push	OFFSET $SG129398
	call	?TextWrapped@ImGui@@YAXPBDZZ		; ImGui::TextWrapped
; File c:\program files (x86)\microsoft visual studio\2017\community\vc\tools\msvc\14.10.25017\include\xstring

; 1628 : 		return (this->_BUF_SIZE <= _Myres);

	mov	eax, DWORD PTR $T18[ebp+20]
; File c:\users\andon\source\repos\specialk\src\imgui\eula.cpp

; 240  :       ImGui::TextWrapped ("%s", SK_GetLicenseText (IDR_LICENSE_MINHOOK).c_str ());

	add	esp, 8
	mov	BYTE PTR __$EHRec$[ebp+8], 0
; File c:\program files (x86)\microsoft visual studio\2017\community\vc\tools\msvc\14.10.25017\include\xstring

; 1628 : 		return (this->_BUF_SIZE <= _Myres);

	cmp	eax, 16					; 00000010H

; 3608 : 		if (_My_data._Large_string_engaged())

	jb	SHORT $LN516@SK_ImGui_D

; 3613 : 			_Al.deallocate(_Ptr, _My_data._Myres + 1);

	inc	eax
; File c:\program files (x86)\microsoft visual studio\2017\community\vc\tools\msvc\14.10.25017\include\xmemory0

; 823  : 		_Deallocate(_Ptr, _Count, sizeof (_Ty));

	push	1
	push	eax
	push	DWORD PTR $T18[ebp]
	call	?_Deallocate@std@@YAXPAXII@Z		; std::_Deallocate
	add	esp, 12					; 0000000cH
$LN516@SK_ImGui_D:
; File c:\users\andon\source\repos\specialk\src\imgui\eula.cpp

; 243  :     if (config.apis.NvAPI.enable && ImGui::CollapsingHeader ("NvAPI"))

	cmp	BYTE PTR ?config@@3Usk_config_t@@A+787, 0
	je	SHORT $LN17@SK_ImGui_D
	push	0
	push	OFFSET $SG129400
	call	?CollapsingHeader@ImGui@@YA_NPBDH@Z	; ImGui::CollapsingHeader
	add	esp, 8
	test	al, al
	je	SHORT $LN17@SK_ImGui_D

; 244  :     {
; 245  :       ImGui::PushFont    (ImGui::GetIO ().Fonts->Fonts [1]); // Fixed-width font

	call	?GetIO@ImGui@@YAAAUImGuiIO@@XZ		; ImGui::GetIO
	mov	eax, DWORD PTR [eax+128]
	mov	eax, DWORD PTR [eax+40]
	push	DWORD PTR [eax+4]
	call	?PushFont@ImGui@@YAXPAUImFont@@@Z	; ImGui::PushFont

; 246  :       ImGui::TextWrapped ("%s", SK_GetLicenseText (IDR_LICENSE_NVAPI).c_str ());

	lea	eax, DWORD PTR $T17[ebp]
	push	10125					; 0000278dH
	push	eax
	call	?SK_GetLicenseText@@YA?AV?$basic_string@DU?$char_traits@D@std@@V?$allocator@D@2@@std@@F@Z ; SK_GetLicenseText
	add	esp, 12					; 0000000cH
; File c:\program files (x86)\microsoft visual studio\2017\community\vc\tools\msvc\14.10.25017\include\xstring

; 1628 : 		return (this->_BUF_SIZE <= _Myres);

	cmp	DWORD PTR [eax+20], 16			; 00000010H
; File c:\users\andon\source\repos\specialk\src\imgui\eula.cpp

; 246  :       ImGui::TextWrapped ("%s", SK_GetLicenseText (IDR_LICENSE_NVAPI).c_str ());

	mov	BYTE PTR __$EHRec$[ebp+8], 11		; 0000000bH
; File c:\program files (x86)\microsoft visual studio\2017\community\vc\tools\msvc\14.10.25017\include\xstring

; 1621 : 		return (_Large_string_engaged()

	jb	SHORT $LN557@SK_ImGui_D
; File c:\program files (x86)\microsoft visual studio\2017\community\vc\tools\msvc\14.10.25017\include\xstddef

; 643  : 	return (_Ptr);

	mov	eax, DWORD PTR [eax]
$LN557@SK_ImGui_D:
; File c:\users\andon\source\repos\specialk\src\imgui\eula.cpp

; 246  :       ImGui::TextWrapped ("%s", SK_GetLicenseText (IDR_LICENSE_NVAPI).c_str ());

	push	eax
	push	OFFSET $SG129401
	call	?TextWrapped@ImGui@@YAXPBDZZ		; ImGui::TextWrapped
; File c:\program files (x86)\microsoft visual studio\2017\community\vc\tools\msvc\14.10.25017\include\xstring

; 1628 : 		return (this->_BUF_SIZE <= _Myres);

	mov	eax, DWORD PTR $T17[ebp+20]
; File c:\users\andon\source\repos\specialk\src\imgui\eula.cpp

; 246  :       ImGui::TextWrapped ("%s", SK_GetLicenseText (IDR_LICENSE_NVAPI).c_str ());

	add	esp, 8
	mov	BYTE PTR __$EHRec$[ebp+8], 0
; File c:\program files (x86)\microsoft visual studio\2017\community\vc\tools\msvc\14.10.25017\include\xstring

; 1628 : 		return (this->_BUF_SIZE <= _Myres);

	cmp	eax, 16					; 00000010H

; 3608 : 		if (_My_data._Large_string_engaged())

	jb	SHORT $LN567@SK_ImGui_D

; 3613 : 			_Al.deallocate(_Ptr, _My_data._Myres + 1);

	inc	eax
; File c:\program files (x86)\microsoft visual studio\2017\community\vc\tools\msvc\14.10.25017\include\xmemory0

; 823  : 		_Deallocate(_Ptr, _Count, sizeof (_Ty));

	push	1
	push	eax
	push	DWORD PTR $T17[ebp]
	call	?_Deallocate@std@@YAXPAXII@Z		; std::_Deallocate
	add	esp, 12					; 0000000cH
$LN567@SK_ImGui_D:
; File c:\users\andon\source\repos\specialk\src\imgui\eula.cpp

; 247  :       ImGui::PopFont     ();

	call	?PopFont@ImGui@@YAXXZ			; ImGui::PopFont
$LN17@SK_ImGui_D:

; 248  :     }
; 249  : 
; 250  :     if (config.cegui.enable && ImGui::CollapsingHeader ("PCRE"))

	cmp	BYTE PTR ?config@@3Usk_config_t@@A+160, 0
	je	$LN665@SK_ImGui_D
	push	0
	push	OFFSET $SG129403
	call	?CollapsingHeader@ImGui@@YA_NPBDH@Z	; ImGui::CollapsingHeader
	add	esp, 8
	test	al, al
	je	$LN665@SK_ImGui_D

; 252  :       ImGui::TextWrapped ("%s", SK_GetLicenseText (IDR_LICENSE_PCRE).c_str ());

	lea	eax, DWORD PTR $T16[ebp]
	push	10127					; 0000278fH
	push	eax
	call	?SK_GetLicenseText@@YA?AV?$basic_string@DU?$char_traits@D@std@@V?$allocator@D@2@@std@@F@Z ; SK_GetLicenseText
	add	esp, 8
; File c:\program files (x86)\microsoft visual studio\2017\community\vc\tools\msvc\14.10.25017\include\xstring

; 1628 : 		return (this->_BUF_SIZE <= _Myres);

	cmp	DWORD PTR [eax+20], 16			; 00000010H
; File c:\users\andon\source\repos\specialk\src\imgui\eula.cpp

; 252  :       ImGui::TextWrapped ("%s", SK_GetLicenseText (IDR_LICENSE_PCRE).c_str ());

	mov	BYTE PTR __$EHRec$[ebp+8], 12		; 0000000cH
; File c:\program files (x86)\microsoft visual studio\2017\community\vc\tools\msvc\14.10.25017\include\xstring

; 1621 : 		return (_Large_string_engaged()

	jb	SHORT $LN606@SK_ImGui_D
; File c:\program files (x86)\microsoft visual studio\2017\community\vc\tools\msvc\14.10.25017\include\xstddef

; 643  : 	return (_Ptr);

	mov	eax, DWORD PTR [eax]
$LN606@SK_ImGui_D:
; File c:\users\andon\source\repos\specialk\src\imgui\eula.cpp

; 252  :       ImGui::TextWrapped ("%s", SK_GetLicenseText (IDR_LICENSE_PCRE).c_str ());

	push	eax
	push	OFFSET $SG129404
	call	?TextWrapped@ImGui@@YAXPBDZZ		; ImGui::TextWrapped
; File c:\program files (x86)\microsoft visual studio\2017\community\vc\tools\msvc\14.10.25017\include\xstring

; 1628 : 		return (this->_BUF_SIZE <= _Myres);

	mov	eax, DWORD PTR $T16[ebp+20]
; File c:\users\andon\source\repos\specialk\src\imgui\eula.cpp

; 252  :       ImGui::TextWrapped ("%s", SK_GetLicenseText (IDR_LICENSE_PCRE).c_str ());

	add	esp, 8
	mov	BYTE PTR __$EHRec$[ebp+8], 0
; File c:\program files (x86)\microsoft visual studio\2017\community\vc\tools\msvc\14.10.25017\include\xstring

; 1628 : 		return (this->_BUF_SIZE <= _Myres);

	cmp	eax, 16					; 00000010H

; 3608 : 		if (_My_data._Large_string_engaged())

	jb	SHORT $LN616@SK_ImGui_D

; 3613 : 			_Al.deallocate(_Ptr, _My_data._Myres + 1);

	inc	eax
; File c:\program files (x86)\microsoft visual studio\2017\community\vc\tools\msvc\14.10.25017\include\xmemory0

; 823  : 		_Deallocate(_Ptr, _Count, sizeof (_Ty));

	push	1
	push	eax
	push	DWORD PTR $T16[ebp]
	call	?_Deallocate@std@@YAXPAXII@Z		; std::_Deallocate
	add	esp, 12					; 0000000cH
$LN616@SK_ImGui_D:
; File c:\users\andon\source\repos\specialk\src\imgui\eula.cpp

; 253  :       ImGui::TextWrapped ("%s", SK_GetLicenseText (IDR_LICENSE_PCRE_CPP).c_str ());

	lea	eax, DWORD PTR $T15[ebp]
	push	10128					; 00002790H
	push	eax
	call	?SK_GetLicenseText@@YA?AV?$basic_string@DU?$char_traits@D@std@@V?$allocator@D@2@@std@@F@Z ; SK_GetLicenseText
	add	esp, 8
; File c:\program files (x86)\microsoft visual studio\2017\community\vc\tools\msvc\14.10.25017\include\xstring

; 1628 : 		return (this->_BUF_SIZE <= _Myres);

	cmp	DWORD PTR [eax+20], 16			; 00000010H
; File c:\users\andon\source\repos\specialk\src\imgui\eula.cpp

; 253  :       ImGui::TextWrapped ("%s", SK_GetLicenseText (IDR_LICENSE_PCRE_CPP).c_str ());

	mov	BYTE PTR __$EHRec$[ebp+8], 13		; 0000000dH
; File c:\program files (x86)\microsoft visual studio\2017\community\vc\tools\msvc\14.10.25017\include\xstring

; 1621 : 		return (_Large_string_engaged()

	jb	SHORT $LN655@SK_ImGui_D
; File c:\program files (x86)\microsoft visual studio\2017\community\vc\tools\msvc\14.10.25017\include\xstddef

; 643  : 	return (_Ptr);

	mov	eax, DWORD PTR [eax]
$LN655@SK_ImGui_D:
; File c:\users\andon\source\repos\specialk\src\imgui\eula.cpp

; 253  :       ImGui::TextWrapped ("%s", SK_GetLicenseText (IDR_LICENSE_PCRE_CPP).c_str ());

	push	eax
	push	OFFSET $SG129405
	call	?TextWrapped@ImGui@@YAXPBDZZ		; ImGui::TextWrapped
; File c:\program files (x86)\microsoft visual studio\2017\community\vc\tools\msvc\14.10.25017\include\xstring

; 1628 : 		return (this->_BUF_SIZE <= _Myres);

	mov	eax, DWORD PTR $T15[ebp+20]
; File c:\users\andon\source\repos\specialk\src\imgui\eula.cpp

; 253  :       ImGui::TextWrapped ("%s", SK_GetLicenseText (IDR_LICENSE_PCRE_CPP).c_str ());

	add	esp, 8
	mov	BYTE PTR __$EHRec$[ebp+8], 0
; File c:\program files (x86)\microsoft visual studio\2017\community\vc\tools\msvc\14.10.25017\include\xstring

; 1628 : 		return (this->_BUF_SIZE <= _Myres);

	cmp	eax, 16					; 00000010H

; 3608 : 		if (_My_data._Large_string_engaged())

	jb	SHORT $LN665@SK_ImGui_D

; 3613 : 			_Al.deallocate(_Ptr, _My_data._Myres + 1);

	inc	eax
; File c:\program files (x86)\microsoft visual studio\2017\community\vc\tools\msvc\14.10.25017\include\xmemory0

; 823  : 		_Deallocate(_Ptr, _Count, sizeof (_Ty));

	push	1
	push	eax
	push	DWORD PTR $T15[ebp]
	call	?_Deallocate@std@@YAXPAXII@Z		; std::_Deallocate
	add	esp, 12					; 0000000cH
$LN665@SK_ImGui_D:
; File c:\users\andon\source\repos\specialk\src\imgui\eula.cpp

; 256  :     if (ImGui::CollapsingHeader ("Special K"))

	push	0
	push	OFFSET $SG129407
	call	?CollapsingHeader@ImGui@@YA_NPBDH@Z	; ImGui::CollapsingHeader
	add	esp, 8
	test	al, al
	je	SHORT $LN714@SK_ImGui_D

; 258  :       ImGui::TextWrapped ("%s", SK_GetLicenseText (IDR_LICENSE_SPECIALK).c_str ());

	lea	eax, DWORD PTR $T14[ebp]
	push	10129					; 00002791H
	push	eax
	call	?SK_GetLicenseText@@YA?AV?$basic_string@DU?$char_traits@D@std@@V?$allocator@D@2@@std@@F@Z ; SK_GetLicenseText
	add	esp, 8
; File c:\program files (x86)\microsoft visual studio\2017\community\vc\tools\msvc\14.10.25017\include\xstring

; 1628 : 		return (this->_BUF_SIZE <= _Myres);

	cmp	DWORD PTR [eax+20], 16			; 00000010H
; File c:\users\andon\source\repos\specialk\src\imgui\eula.cpp

; 258  :       ImGui::TextWrapped ("%s", SK_GetLicenseText (IDR_LICENSE_SPECIALK).c_str ());

	mov	BYTE PTR __$EHRec$[ebp+8], 14		; 0000000eH
; File c:\program files (x86)\microsoft visual studio\2017\community\vc\tools\msvc\14.10.25017\include\xstring

; 1621 : 		return (_Large_string_engaged()

	jb	SHORT $LN704@SK_ImGui_D
; File c:\program files (x86)\microsoft visual studio\2017\community\vc\tools\msvc\14.10.25017\include\xstddef

; 643  : 	return (_Ptr);

	mov	eax, DWORD PTR [eax]
$LN704@SK_ImGui_D:
; File c:\users\andon\source\repos\specialk\src\imgui\eula.cpp

; 258  :       ImGui::TextWrapped ("%s", SK_GetLicenseText (IDR_LICENSE_SPECIALK).c_str ());

	push	eax
	push	OFFSET $SG129408
	call	?TextWrapped@ImGui@@YAXPBDZZ		; ImGui::TextWrapped
; File c:\program files (x86)\microsoft visual studio\2017\community\vc\tools\msvc\14.10.25017\include\xstring

; 1628 : 		return (this->_BUF_SIZE <= _Myres);

	mov	eax, DWORD PTR $T14[ebp+20]
; File c:\users\andon\source\repos\specialk\src\imgui\eula.cpp

; 258  :       ImGui::TextWrapped ("%s", SK_GetLicenseText (IDR_LICENSE_SPECIALK).c_str ());

	add	esp, 8
	mov	BYTE PTR __$EHRec$[ebp+8], 0
; File c:\program files (x86)\microsoft visual studio\2017\community\vc\tools\msvc\14.10.25017\include\xstring

; 1628 : 		return (this->_BUF_SIZE <= _Myres);

	cmp	eax, 16					; 00000010H

; 3608 : 		if (_My_data._Large_string_engaged())

	jb	SHORT $LN714@SK_ImGui_D

; 3613 : 			_Al.deallocate(_Ptr, _My_data._Myres + 1);

	inc	eax
; File c:\program files (x86)\microsoft visual studio\2017\community\vc\tools\msvc\14.10.25017\include\xmemory0

; 823  : 		_Deallocate(_Ptr, _Count, sizeof (_Ty));

	push	1
	push	eax
	push	DWORD PTR $T14[ebp]
	call	?_Deallocate@std@@YAXPAXII@Z		; std::_Deallocate
	add	esp, 12					; 0000000cH
$LN714@SK_ImGui_D:
; File c:\users\andon\source\repos\specialk\src\imgui\eula.cpp

; 261  :     if (config.cegui.enable && ImGui::CollapsingHeader ("STB"))

	cmp	BYTE PTR ?config@@3Usk_config_t@@A+160, 0
	je	SHORT $LN763@SK_ImGui_D
	push	0
	push	OFFSET $SG129410
	call	?CollapsingHeader@ImGui@@YA_NPBDH@Z	; ImGui::CollapsingHeader
	add	esp, 8
	test	al, al
	je	SHORT $LN763@SK_ImGui_D

; 263  :       ImGui::TextWrapped ("%s", SK_GetLicenseText (IDR_LICENSE_STB).c_str ());

	lea	eax, DWORD PTR $T13[ebp]
	push	10130					; 00002792H
	push	eax
	call	?SK_GetLicenseText@@YA?AV?$basic_string@DU?$char_traits@D@std@@V?$allocator@D@2@@std@@F@Z ; SK_GetLicenseText
	add	esp, 8
; File c:\program files (x86)\microsoft visual studio\2017\community\vc\tools\msvc\14.10.25017\include\xstring

; 1628 : 		return (this->_BUF_SIZE <= _Myres);

	cmp	DWORD PTR [eax+20], 16			; 00000010H
; File c:\users\andon\source\repos\specialk\src\imgui\eula.cpp

; 263  :       ImGui::TextWrapped ("%s", SK_GetLicenseText (IDR_LICENSE_STB).c_str ());

	mov	BYTE PTR __$EHRec$[ebp+8], 15		; 0000000fH
; File c:\program files (x86)\microsoft visual studio\2017\community\vc\tools\msvc\14.10.25017\include\xstring

; 1621 : 		return (_Large_string_engaged()

	jb	SHORT $LN753@SK_ImGui_D
; File c:\program files (x86)\microsoft visual studio\2017\community\vc\tools\msvc\14.10.25017\include\xstddef

; 643  : 	return (_Ptr);

	mov	eax, DWORD PTR [eax]
$LN753@SK_ImGui_D:
; File c:\users\andon\source\repos\specialk\src\imgui\eula.cpp

; 263  :       ImGui::TextWrapped ("%s", SK_GetLicenseText (IDR_LICENSE_STB).c_str ());

	push	eax
	push	OFFSET $SG129411
	call	?TextWrapped@ImGui@@YAXPBDZZ		; ImGui::TextWrapped
; File c:\program files (x86)\microsoft visual studio\2017\community\vc\tools\msvc\14.10.25017\include\xstring

; 1628 : 		return (this->_BUF_SIZE <= _Myres);

	mov	eax, DWORD PTR $T13[ebp+20]
; File c:\users\andon\source\repos\specialk\src\imgui\eula.cpp

; 263  :       ImGui::TextWrapped ("%s", SK_GetLicenseText (IDR_LICENSE_STB).c_str ());

	add	esp, 8
	mov	BYTE PTR __$EHRec$[ebp+8], 0
; File c:\program files (x86)\microsoft visual studio\2017\community\vc\tools\msvc\14.10.25017\include\xstring

; 1628 : 		return (this->_BUF_SIZE <= _Myres);

	cmp	eax, 16					; 00000010H

; 3608 : 		if (_My_data._Large_string_engaged())

	jb	SHORT $LN763@SK_ImGui_D

; 3613 : 			_Al.deallocate(_Ptr, _My_data._Myres + 1);

	inc	eax
; File c:\program files (x86)\microsoft visual studio\2017\community\vc\tools\msvc\14.10.25017\include\xmemory0

; 823  : 		_Deallocate(_Ptr, _Count, sizeof (_Ty));

	push	1
	push	eax
	push	DWORD PTR $T13[ebp]
	call	?_Deallocate@std@@YAXPAXII@Z		; std::_Deallocate
	add	esp, 12					; 0000000cH
$LN763@SK_ImGui_D:
; File c:\users\andon\source\repos\specialk\src\imgui\eula.cpp

; 267  :     if ( SK_GetCurrentRenderBackend ().api == SK_RenderAPI::Vulkan &&

	call	?SK_GetCurrentRenderBackend@@YGAAVSK_RenderBackend_V2@@XZ ; SK_GetCurrentRenderBackend
	cmp	DWORD PTR [eax], 4
	jne	SHORT $LN812@SK_ImGui_D
	push	0
	push	OFFSET $SG129413
	call	?CollapsingHeader@ImGui@@YA_NPBDH@Z	; ImGui::CollapsingHeader
	add	esp, 8
	test	al, al
	je	SHORT $LN812@SK_ImGui_D

; 271  :       ImGui::TextWrapped ("%s", SK_GetLicenseText (IDR_LICENSE_VULKAN).c_str ());

	lea	eax, DWORD PTR $T12[ebp]
	push	10131					; 00002793H
	push	eax
	call	?SK_GetLicenseText@@YA?AV?$basic_string@DU?$char_traits@D@std@@V?$allocator@D@2@@std@@F@Z ; SK_GetLicenseText
	add	esp, 8
; File c:\program files (x86)\microsoft visual studio\2017\community\vc\tools\msvc\14.10.25017\include\xstring

; 1628 : 		return (this->_BUF_SIZE <= _Myres);

	cmp	DWORD PTR [eax+20], 16			; 00000010H
; File c:\users\andon\source\repos\specialk\src\imgui\eula.cpp

; 271  :       ImGui::TextWrapped ("%s", SK_GetLicenseText (IDR_LICENSE_VULKAN).c_str ());

	mov	BYTE PTR __$EHRec$[ebp+8], 16		; 00000010H
; File c:\program files (x86)\microsoft visual studio\2017\community\vc\tools\msvc\14.10.25017\include\xstring

; 1621 : 		return (_Large_string_engaged()

	jb	SHORT $LN802@SK_ImGui_D
; File c:\program files (x86)\microsoft visual studio\2017\community\vc\tools\msvc\14.10.25017\include\xstddef

; 643  : 	return (_Ptr);

	mov	eax, DWORD PTR [eax]
$LN802@SK_ImGui_D:
; File c:\users\andon\source\repos\specialk\src\imgui\eula.cpp

; 271  :       ImGui::TextWrapped ("%s", SK_GetLicenseText (IDR_LICENSE_VULKAN).c_str ());

	push	eax
	push	OFFSET $SG129414
	call	?TextWrapped@ImGui@@YAXPBDZZ		; ImGui::TextWrapped
; File c:\program files (x86)\microsoft visual studio\2017\community\vc\tools\msvc\14.10.25017\include\xstring

; 1628 : 		return (this->_BUF_SIZE <= _Myres);

	mov	eax, DWORD PTR $T12[ebp+20]
; File c:\users\andon\source\repos\specialk\src\imgui\eula.cpp

; 271  :       ImGui::TextWrapped ("%s", SK_GetLicenseText (IDR_LICENSE_VULKAN).c_str ());

	add	esp, 8
	mov	BYTE PTR __$EHRec$[ebp+8], 0
; File c:\program files (x86)\microsoft visual studio\2017\community\vc\tools\msvc\14.10.25017\include\xstring

; 1628 : 		return (this->_BUF_SIZE <= _Myres);

	cmp	eax, 16					; 00000010H

; 3608 : 		if (_My_data._Large_string_engaged())

	jb	SHORT $LN812@SK_ImGui_D

; 3613 : 			_Al.deallocate(_Ptr, _My_data._Myres + 1);

	inc	eax
; File c:\program files (x86)\microsoft visual studio\2017\community\vc\tools\msvc\14.10.25017\include\xmemory0

; 823  : 		_Deallocate(_Ptr, _Count, sizeof (_Ty));

	push	1
	push	eax
	push	DWORD PTR $T12[ebp]
	call	?_Deallocate@std@@YAXPAXII@Z		; std::_Deallocate
	add	esp, 12					; 0000000cH
$LN812@SK_ImGui_D:
; File c:\users\andon\source\repos\specialk\src\imgui\eula.cpp

; 274  :     if (config.cegui.enable && ImGui::CollapsingHeader ("ZLIB"))

	cmp	BYTE PTR ?config@@3Usk_config_t@@A+160, 0
	je	SHORT $LN861@SK_ImGui_D
	push	0
	push	OFFSET $SG129416
	call	?CollapsingHeader@ImGui@@YA_NPBDH@Z	; ImGui::CollapsingHeader
	add	esp, 8
	test	al, al
	je	SHORT $LN861@SK_ImGui_D

; 276  :       ImGui::TextWrapped ("%s", SK_GetLicenseText (IDR_LICENSE_ZLIB).c_str ());

	lea	eax, DWORD PTR $T11[ebp]
	push	10132					; 00002794H
	push	eax
	call	?SK_GetLicenseText@@YA?AV?$basic_string@DU?$char_traits@D@std@@V?$allocator@D@2@@std@@F@Z ; SK_GetLicenseText
	add	esp, 8
; File c:\program files (x86)\microsoft visual studio\2017\community\vc\tools\msvc\14.10.25017\include\xstring

; 1628 : 		return (this->_BUF_SIZE <= _Myres);

	cmp	DWORD PTR [eax+20], 16			; 00000010H
; File c:\users\andon\source\repos\specialk\src\imgui\eula.cpp

; 276  :       ImGui::TextWrapped ("%s", SK_GetLicenseText (IDR_LICENSE_ZLIB).c_str ());

	mov	BYTE PTR __$EHRec$[ebp+8], 17		; 00000011H
; File c:\program files (x86)\microsoft visual studio\2017\community\vc\tools\msvc\14.10.25017\include\xstring

; 1621 : 		return (_Large_string_engaged()

	jb	SHORT $LN851@SK_ImGui_D
; File c:\program files (x86)\microsoft visual studio\2017\community\vc\tools\msvc\14.10.25017\include\xstddef

; 643  : 	return (_Ptr);

	mov	eax, DWORD PTR [eax]
$LN851@SK_ImGui_D:
; File c:\users\andon\source\repos\specialk\src\imgui\eula.cpp

; 276  :       ImGui::TextWrapped ("%s", SK_GetLicenseText (IDR_LICENSE_ZLIB).c_str ());

	push	eax
	push	OFFSET $SG129417
	call	?TextWrapped@ImGui@@YAXPBDZZ		; ImGui::TextWrapped
; File c:\program files (x86)\microsoft visual studio\2017\community\vc\tools\msvc\14.10.25017\include\xstring

; 1628 : 		return (this->_BUF_SIZE <= _Myres);

	mov	eax, DWORD PTR $T11[ebp+20]
; File c:\users\andon\source\repos\specialk\src\imgui\eula.cpp

; 276  :       ImGui::TextWrapped ("%s", SK_GetLicenseText (IDR_LICENSE_ZLIB).c_str ());

	add	esp, 8
	mov	BYTE PTR __$EHRec$[ebp+8], 0
; File c:\program files (x86)\microsoft visual studio\2017\community\vc\tools\msvc\14.10.25017\include\xstring

; 1628 : 		return (this->_BUF_SIZE <= _Myres);

	cmp	eax, 16					; 00000010H

; 3608 : 		if (_My_data._Large_string_engaged())

	jb	SHORT $LN861@SK_ImGui_D

; 3613 : 			_Al.deallocate(_Ptr, _My_data._Myres + 1);

	inc	eax
; File c:\program files (x86)\microsoft visual studio\2017\community\vc\tools\msvc\14.10.25017\include\xmemory0

; 823  : 		_Deallocate(_Ptr, _Count, sizeof (_Ty));

	push	1
	push	eax
	push	DWORD PTR $T11[ebp]
	call	?_Deallocate@std@@YAXPAXII@Z		; std::_Deallocate
	add	esp, 12					; 0000000cH
$LN861@SK_ImGui_D:
; File c:\users\andon\source\repos\specialk\src\imgui\eula.cpp

; 279  :     ImGui::EndGroup ();

	call	?EndGroup@ImGui@@YAXXZ			; ImGui::EndGroup

; 280  :     ImGui::EndChild (); // EULA_Body

	call	?EndChild@ImGui@@YAXXZ			; ImGui::EndChild

; 281  :     ImGui::EndChild (); // EULA_Body

	call	?EndChild@ImGui@@YAXXZ			; ImGui::EndChild

; 282  : 
; 283  :     ImGui::Separator  ();

	call	?Separator@ImGui@@YAXXZ			; ImGui::Separator

; 284  :     ImGui::BeginGroup ();

	call	?BeginGroup@ImGui@@YAXXZ		; ImGui::BeginGroup

; 285  : 
; 286  :     ImGui::Columns  (2, "", false);

	push	0
	push	OFFSET $SG129418
	push	2
	call	?Columns@ImGui@@YAXHPBD_N@Z		; ImGui::Columns

; 287  :     ImGui::TreePush (   "");

	push	OFFSET $SG129419
	call	?TreePush@ImGui@@YAXPBD@Z		; ImGui::TreePush

; 289  :     if (ImGui::Button (" Decline "))

	lea	eax, DWORD PTR $T7[ebp]
; File c:\users\andon\source\repos\specialk\include\imgui\imgui.h

; 98   :     ImVec2(float _x, float _y) { x = _x; y = _y; }

	mov	DWORD PTR $T7[ebp], 0
; File c:\users\andon\source\repos\specialk\src\imgui\eula.cpp

; 289  :     if (ImGui::Button (" Decline "))

	push	eax
	push	OFFSET $SG129421
; File c:\users\andon\source\repos\specialk\include\imgui\imgui.h

; 98   :     ImVec2(float _x, float _y) { x = _x; y = _y; }

	mov	DWORD PTR $T7[ebp+4], 0
; File c:\users\andon\source\repos\specialk\src\imgui\eula.cpp

; 289  :     if (ImGui::Button (" Decline "))

	call	?Button@ImGui@@YA_NPBDABUImVec2@@@Z	; ImGui::Button
	add	esp, 24					; 00000018H
	test	al, al
	je	SHORT $LN23@SK_ImGui_D

; 290  :     {
; 291  :       ExitProcess (0x00);

	push	0
	call	DWORD PTR __imp__ExitProcess@4
$LN945@SK_ImGui_D:
$LN23@SK_ImGui_D:

; 292  :     }
; 293  : 
; 294  :     if (ImGui::IsItemHovered ())

	call	?IsItemHovered@ImGui@@YA_NXZ		; ImGui::IsItemHovered
	test	al, al
	je	SHORT $LN24@SK_ImGui_D

; 295  :     {
; 296  :       ImGui::BeginTooltip ();

	call	?BeginTooltip@ImGui@@YAXXZ		; ImGui::BeginTooltip

; 297  :       ImGui::Bullet       ();                                              ImGui::SameLine ();

	call	?Bullet@ImGui@@YAXXZ			; ImGui::Bullet
	sub	esp, 8
	mov	DWORD PTR [esp+4], -1082130432		; bf800000H
	mov	DWORD PTR [esp], 0
	call	?SameLine@ImGui@@YAXMM@Z		; ImGui::SameLine
	movaps	xmm0, XMMWORD PTR __xmm@3f800000000000003f8000003f800000

; 298  :       ImGui::TextColored  (ImVec4 (1.0f, 1.0f, 0.0f, 1.0f), "WARNING:  "); ImGui::SameLine ();

	lea	eax, DWORD PTR $T4[ebp]
	push	OFFSET $SG129423
	push	eax
	movups	XMMWORD PTR $T4[ebp], xmm0
	call	?TextColored@ImGui@@YAXABUImVec4@@PBDZZ	; ImGui::TextColored
	add	esp, 8
	mov	DWORD PTR [esp+4], -1082130432		; bf800000H
	mov	DWORD PTR [esp], 0
	call	?SameLine@ImGui@@YAXMM@Z		; ImGui::SameLine
	movaps	xmm0, XMMWORD PTR __xmm@3f8000003f6666663f6666663f666666

; 299  :       ImGui::TextColored  (ImVec4 (0.9f, 0.9f, 0.9f, 1.0f), "Game will exit!");

	lea	eax, DWORD PTR $T3[ebp]
	push	OFFSET $SG129424
	push	eax
	movups	XMMWORD PTR $T3[ebp], xmm0
	call	?TextColored@ImGui@@YAXABUImVec4@@PBDZZ	; ImGui::TextColored
	add	esp, 16					; 00000010H

; 300  :       ImGui::EndTooltip   ();

	call	?EndTooltip@ImGui@@YAXXZ		; ImGui::EndTooltip
$LN24@SK_ImGui_D:

; 301  :     }
; 302  : 
; 303  :     ImGui::TreePop    ();

	call	?TreePop@ImGui@@YAXXZ			; ImGui::TreePop

; 304  :     ImGui::NextColumn ();

	call	?NextColumn@ImGui@@YAXXZ		; ImGui::NextColumn

; 305  : 
; 306  :     if (! pirate)

	test	bl, bl
	jne	SHORT $LN25@SK_ImGui_D

; 307  :     {
; 308  :       ImGui::Checkbox ("I agree ... never show me this again!", &((show_eula_s *)reserved)->never_show_again);

	lea	eax, DWORD PTR [edi+1]
	push	eax
	push	OFFSET $SG129426
	call	?Checkbox@ImGui@@YA_NPBDPA_N@Z		; ImGui::Checkbox
	add	esp, 8
$LN25@SK_ImGui_D:

; 309  :     }
; 310  : 
; 311  :     ImGui::SameLine ();

	sub	esp, 8
	mov	DWORD PTR [esp+4], -1082130432		; bf800000H
	mov	DWORD PTR [esp], 0
	call	?SameLine@ImGui@@YAXMM@Z		; ImGui::SameLine

; 313  :     if (ImGui::Button (" Accept ") && (! pirate))

	lea	eax, DWORD PTR $T6[ebp]
; File c:\users\andon\source\repos\specialk\include\imgui\imgui.h

; 98   :     ImVec2(float _x, float _y) { x = _x; y = _y; }

	mov	DWORD PTR $T6[ebp], 0
; File c:\users\andon\source\repos\specialk\src\imgui\eula.cpp

; 313  :     if (ImGui::Button (" Accept ") && (! pirate))

	push	eax
	push	OFFSET $SG129428
; File c:\users\andon\source\repos\specialk\include\imgui\imgui.h

; 98   :     ImVec2(float _x, float _y) { x = _x; y = _y; }

	mov	DWORD PTR $T6[ebp+4], 0
; File c:\users\andon\source\repos\specialk\src\imgui\eula.cpp

; 313  :     if (ImGui::Button (" Accept ") && (! pirate))

	call	?Button@ImGui@@YA_NPBDABUImVec2@@@Z	; ImGui::Button
	add	esp, 16					; 00000010H
	test	al, al
	je	SHORT $LN26@SK_ImGui_D
	test	bl, bl
	jne	SHORT $LN942@SK_ImGui_D

; 314  :     {
; 315  :       ImGui::CloseCurrentPopup ();

	call	?CloseCurrentPopup@ImGui@@YAXXZ		; ImGui::CloseCurrentPopup

; 316  : 
; 317  :       open = false;
; 318  :       ((show_eula_s *)reserved)->show = open;
; 319  : 
; 320  :       config.imgui.show_eula = ! ((show_eula_s *)reserved)->never_show_again;

	cmp	BYTE PTR [edi+1], bl
	mov	BYTE PTR [edi], bl
	mov	BYTE PTR ?open@?1??SK_ImGui_DrawEULA@@YGXPAX@Z@4_NA, bl
	sete	BYTE PTR ?config@@3Usk_config_t@@A+168

; 321  : 
; 322  :       const wchar_t* config_name = SK_GetBackend ();

	call	?SK_GetBackend@@YGPB_WXZ		; SK_GetBackend

; 323  : 
; 324  :       if (SK_IsInjected ())

	push	0
	mov	esi, eax
	call	?SK_IsInjected@@YG_N_N@Z		; SK_IsInjected
	test	al, al
	mov	edx, OFFSET $SG129430

; 325  :         config_name = L"SpecialK";
; 326  : 
; 327  :       SK_SaveConfig (config_name);

	push	0
	cmove	edx, esi
	sub	esp, 24					; 00000018H
	mov	ecx, esp
	push	edx
	call	??0?$basic_string@_WU?$char_traits@_W@std@@V?$allocator@_W@2@@std@@QAE@QB_W@Z ; std::basic_string<wchar_t,std::char_traits<wchar_t>,std::allocator<wchar_t> >::basic_string<wchar_t,std::char_traits<wchar_t>,std::allocator<wchar_t> >
	call	?SK_SaveConfig@@YAXV?$basic_string@_WU?$char_traits@_W@std@@V?$allocator@_W@2@@std@@_N@Z ; SK_SaveConfig
	add	esp, 28					; 0000001cH

; 328  :     }
; 329  : 
; 330  :     if (pirate && ImGui::IsItemHovered ())

	jmp	SHORT $LN28@SK_ImGui_D
$LN26@SK_ImGui_D:
	test	bl, bl
	je	SHORT $LN28@SK_ImGui_D
$LN942@SK_ImGui_D:
	call	?IsItemHovered@ImGui@@YA_NXZ		; ImGui::IsItemHovered
	test	al, al
	je	SHORT $LN28@SK_ImGui_D

; 331  :     {
; 332  :       ImGui::BeginTooltip ();

	call	?BeginTooltip@ImGui@@YAXXZ		; ImGui::BeginTooltip
	movaps	xmm0, XMMWORD PTR __xmm@3f8000003f8000003f8000003f800000

; 333  : 
; 334  :       ImGui::TextColored (ImColor (255,255,255), "Read the Yellow Text");

	lea	eax, DWORD PTR $T28[ebp]
	push	OFFSET $SG129432
	push	eax
	movups	XMMWORD PTR $T28[ebp], xmm0
	call	?TextColored@ImGui@@YAXABUImVec4@@PBDZZ	; ImGui::TextColored

; 335  :       ImGui::Separator   ();

	call	?Separator@ImGui@@YAXXZ			; ImGui::Separator

; 336  :       ImGui::BulletText  ("Please use the other button, you already broke the terms.");

	push	OFFSET $SG129433
	call	?BulletText@ImGui@@YAXPBDZZ		; ImGui::BulletText

; 337  :       ImGui::BulletText  ("You may be able to find a modified version with these terms removed");

	push	OFFSET $SG129434
	call	?BulletText@ImGui@@YAXPBDZZ		; ImGui::BulletText

; 338  :       ImGui::TreePush    ("");

	push	OFFSET $SG129435
	call	?TreePush@ImGui@@YAXPBD@Z		; ImGui::TreePush

; 339  :       ImGui::TextWrapped ("The authors listed above are not responsible for said modified version and will not "

	push	OFFSET $SG129436
	call	?TextWrapped@ImGui@@YAXPBDZZ		; ImGui::TextWrapped
	add	esp, 24					; 00000018H

; 340  :                           "provide you support no matter how much you make life difficult for them.");
; 341  :       ImGui::TreePop     ();

	call	?TreePop@ImGui@@YAXXZ			; ImGui::TreePop

; 342  : 
; 343  :       ImGui::EndTooltip  ();

	call	?EndTooltip@ImGui@@YAXXZ		; ImGui::EndTooltip
$LN28@SK_ImGui_D:

; 344  :     }
; 345  : 
; 346  :     ImGui::EndGroup ();

	call	?EndGroup@ImGui@@YAXXZ			; ImGui::EndGroup

; 347  :     ImGui::EndPopup ();

	call	?EndPopup@ImGui@@YAXXZ			; ImGui::EndPopup
$LN5@SK_ImGui_D:
; File c:\program files (x86)\microsoft visual studio\2017\community\vc\tools\msvc\14.10.25017\include\xstring

; 1628 : 		return (this->_BUF_SIZE <= _Myres);

	mov	eax, DWORD PTR _plugin$[ebp+20]
	cmp	eax, 8

; 3608 : 		if (_My_data._Large_string_engaged())

	jb	SHORT $LN905@SK_ImGui_D
; File c:\program files (x86)\microsoft visual studio\2017\community\vc\tools\msvc\14.10.25017\include\xmemory0

; 823  : 		_Deallocate(_Ptr, _Count, sizeof (_Ty));

	push	2
; File c:\program files (x86)\microsoft visual studio\2017\community\vc\tools\msvc\14.10.25017\include\xstring

; 3613 : 			_Al.deallocate(_Ptr, _My_data._Myres + 1);

	inc	eax
; File c:\program files (x86)\microsoft visual studio\2017\community\vc\tools\msvc\14.10.25017\include\xmemory0

; 823  : 		_Deallocate(_Ptr, _Count, sizeof (_Ty));

	push	eax
	push	DWORD PTR _plugin$[ebp]
	call	?_Deallocate@std@@YAXPAXII@Z		; std::_Deallocate
	add	esp, 12					; 0000000cH
$LN905@SK_ImGui_D:
; File c:\users\andon\source\repos\specialk\src\imgui\eula.cpp

; 349  : }

	mov	ecx, DWORD PTR __$EHRec$[ebp]
	pop	edi
	pop	esi
	mov	DWORD PTR fs:0, ecx
	pop	ebx
	mov	esp, ebp
	pop	ebp
	ret	4
$LN944@SK_ImGui_D:
_TEXT	ENDS
text$x	SEGMENT
__unwindfunclet$?SK_ImGui_DrawEULA@@YGXPAX@Z$0:
	lea	ecx, DWORD PTR _plugin$[ebp]
	jmp	??1?$basic_string@_WU?$char_traits@_W@std@@V?$allocator@_W@2@@std@@QAE@XZ ; std::basic_string<wchar_t,std::char_traits<wchar_t>,std::allocator<wchar_t> >::~basic_string<wchar_t,std::char_traits<wchar_t>,std::allocator<wchar_t> >
__unwindfunclet$?SK_ImGui_DrawEULA@@YGXPAX@Z$1:
	lea	ecx, DWORD PTR $T27[ebp]
	jmp	??1?$basic_string@DU?$char_traits@D@std@@V?$allocator@D@2@@std@@QAE@XZ ; std::basic_string<char,std::char_traits<char>,std::allocator<char> >::~basic_string<char,std::char_traits<char>,std::allocator<char> >
__unwindfunclet$?SK_ImGui_DrawEULA@@YGXPAX@Z$2:
	lea	ecx, DWORD PTR $T26[ebp]
	jmp	??1?$basic_string@DU?$char_traits@D@std@@V?$allocator@D@2@@std@@QAE@XZ ; std::basic_string<char,std::char_traits<char>,std::allocator<char> >::~basic_string<char,std::char_traits<char>,std::allocator<char> >
__unwindfunclet$?SK_ImGui_DrawEULA@@YGXPAX@Z$3:
	lea	ecx, DWORD PTR $T25[ebp]
	jmp	??1?$basic_string@DU?$char_traits@D@std@@V?$allocator@D@2@@std@@QAE@XZ ; std::basic_string<char,std::char_traits<char>,std::allocator<char> >::~basic_string<char,std::char_traits<char>,std::allocator<char> >
__unwindfunclet$?SK_ImGui_DrawEULA@@YGXPAX@Z$4:
	lea	ecx, DWORD PTR $T24[ebp]
	jmp	??1?$basic_string@DU?$char_traits@D@std@@V?$allocator@D@2@@std@@QAE@XZ ; std::basic_string<char,std::char_traits<char>,std::allocator<char> >::~basic_string<char,std::char_traits<char>,std::allocator<char> >
__unwindfunclet$?SK_ImGui_DrawEULA@@YGXPAX@Z$5:
	lea	ecx, DWORD PTR $T23[ebp]
	jmp	??1?$basic_string@DU?$char_traits@D@std@@V?$allocator@D@2@@std@@QAE@XZ ; std::basic_string<char,std::char_traits<char>,std::allocator<char> >::~basic_string<char,std::char_traits<char>,std::allocator<char> >
__unwindfunclet$?SK_ImGui_DrawEULA@@YGXPAX@Z$6:
	lea	ecx, DWORD PTR $T22[ebp]
	jmp	??1?$basic_string@DU?$char_traits@D@std@@V?$allocator@D@2@@std@@QAE@XZ ; std::basic_string<char,std::char_traits<char>,std::allocator<char> >::~basic_string<char,std::char_traits<char>,std::allocator<char> >
__unwindfunclet$?SK_ImGui_DrawEULA@@YGXPAX@Z$7:
	lea	ecx, DWORD PTR $T21[ebp]
	jmp	??1?$basic_string@DU?$char_traits@D@std@@V?$allocator@D@2@@std@@QAE@XZ ; std::basic_string<char,std::char_traits<char>,std::allocator<char> >::~basic_string<char,std::char_traits<char>,std::allocator<char> >
__unwindfunclet$?SK_ImGui_DrawEULA@@YGXPAX@Z$8:
	lea	ecx, DWORD PTR $T20[ebp]
	jmp	??1?$basic_string@DU?$char_traits@D@std@@V?$allocator@D@2@@std@@QAE@XZ ; std::basic_string<char,std::char_traits<char>,std::allocator<char> >::~basic_string<char,std::char_traits<char>,std::allocator<char> >
__unwindfunclet$?SK_ImGui_DrawEULA@@YGXPAX@Z$9:
	lea	ecx, DWORD PTR $T19[ebp]
	jmp	??1?$basic_string@DU?$char_traits@D@std@@V?$allocator@D@2@@std@@QAE@XZ ; std::basic_string<char,std::char_traits<char>,std::allocator<char> >::~basic_string<char,std::char_traits<char>,std::allocator<char> >
__unwindfunclet$?SK_ImGui_DrawEULA@@YGXPAX@Z$10:
	lea	ecx, DWORD PTR $T18[ebp]
	jmp	??1?$basic_string@DU?$char_traits@D@std@@V?$allocator@D@2@@std@@QAE@XZ ; std::basic_string<char,std::char_traits<char>,std::allocator<char> >::~basic_string<char,std::char_traits<char>,std::allocator<char> >
__unwindfunclet$?SK_ImGui_DrawEULA@@YGXPAX@Z$11:
	lea	ecx, DWORD PTR $T17[ebp]
	jmp	??1?$basic_string@DU?$char_traits@D@std@@V?$allocator@D@2@@std@@QAE@XZ ; std::basic_string<char,std::char_traits<char>,std::allocator<char> >::~basic_string<char,std::char_traits<char>,std::allocator<char> >
__unwindfunclet$?SK_ImGui_DrawEULA@@YGXPAX@Z$12:
	lea	ecx, DWORD PTR $T16[ebp]
	jmp	??1?$basic_string@DU?$char_traits@D@std@@V?$allocator@D@2@@std@@QAE@XZ ; std::basic_string<char,std::char_traits<char>,std::allocator<char> >::~basic_string<char,std::char_traits<char>,std::allocator<char> >
__unwindfunclet$?SK_ImGui_DrawEULA@@YGXPAX@Z$13:
	lea	ecx, DWORD PTR $T15[ebp]
	jmp	??1?$basic_string@DU?$char_traits@D@std@@V?$allocator@D@2@@std@@QAE@XZ ; std::basic_string<char,std::char_traits<char>,std::allocator<char> >::~basic_string<char,std::char_traits<char>,std::allocator<char> >
__unwindfunclet$?SK_ImGui_DrawEULA@@YGXPAX@Z$14:
	lea	ecx, DWORD PTR $T14[ebp]
	jmp	??1?$basic_string@DU?$char_traits@D@std@@V?$allocator@D@2@@std@@QAE@XZ ; std::basic_string<char,std::char_traits<char>,std::allocator<char> >::~basic_string<char,std::char_traits<char>,std::allocator<char> >
__unwindfunclet$?SK_ImGui_DrawEULA@@YGXPAX@Z$15:
	lea	ecx, DWORD PTR $T13[ebp]
	jmp	??1?$basic_string@DU?$char_traits@D@std@@V?$allocator@D@2@@std@@QAE@XZ ; std::basic_string<char,std::char_traits<char>,std::allocator<char> >::~basic_string<char,std::char_traits<char>,std::allocator<char> >
__unwindfunclet$?SK_ImGui_DrawEULA@@YGXPAX@Z$16:
	lea	ecx, DWORD PTR $T12[ebp]
	jmp	??1?$basic_string@DU?$char_traits@D@std@@V?$allocator@D@2@@std@@QAE@XZ ; std::basic_string<char,std::char_traits<char>,std::allocator<char> >::~basic_string<char,std::char_traits<char>,std::allocator<char> >
__unwindfunclet$?SK_ImGui_DrawEULA@@YGXPAX@Z$17:
	lea	ecx, DWORD PTR $T11[ebp]
	jmp	??1?$basic_string@DU?$char_traits@D@std@@V?$allocator@D@2@@std@@QAE@XZ ; std::basic_string<char,std::char_traits<char>,std::allocator<char> >::~basic_string<char,std::char_traits<char>,std::allocator<char> >
__ehhandler$?SK_ImGui_DrawEULA@@YGXPAX@Z:
	mov	eax, OFFSET __ehfuncinfo$?SK_ImGui_DrawEULA@@YGXPAX@Z
	jmp	___CxxFrameHandler3
text$x	ENDS
?SK_ImGui_DrawEULA@@YGXPAX@Z ENDP			; SK_ImGui_DrawEULA
; Function compile flags: /Ogtp
; File c:\users\andon\source\repos\specialk\src\imgui\eula.cpp
_TEXT	SEGMENT
_reserved$ = 8						; size = 4
?SK_ImGui_DrawEULA_PlugIn@@YGXPAX@Z PROC		; SK_ImGui_DrawEULA_PlugIn

; 81   :   UNREFERENCED_PARAMETER (reserved);
; 82   : 
; 83   :   // Need a minimal function body to avoid compiler optimization
; 84   :   ImGuiIO& io =

	call	?GetIO@ImGui@@YAAAUImGuiIO@@XZ		; ImGui::GetIO

; 85   :     ImGui::GetIO ();
; 86   : 
; 87   :   DBG_UNREFERENCED_LOCAL_VARIABLE (io);
; 88   : }

	ret	4
?SK_ImGui_DrawEULA_PlugIn@@YGXPAX@Z ENDP		; SK_ImGui_DrawEULA_PlugIn
_TEXT	ENDS
; Function compile flags: /Ogtp
; File c:\users\andon\source\repos\specialk\src\imgui\eula.cpp
; File c:\program files (x86)\microsoft visual studio\2017\community\vc\tools\msvc\14.10.25017\include\xstring
; File c:\users\andon\source\repos\specialk\src\imgui\eula.cpp
; File c:\program files (x86)\microsoft visual studio\2017\community\vc\tools\msvc\14.10.25017\include\iosfwd
; File c:\program files (x86)\microsoft visual studio\2017\community\vc\tools\msvc\14.10.25017\include\xstring
; File c:\program files (x86)\microsoft visual studio\2017\community\vc\tools\msvc\14.10.25017\include\iosfwd
; File c:\program files (x86)\microsoft visual studio\2017\community\vc\tools\msvc\14.10.25017\include\xstring
; File c:\users\andon\source\repos\specialk\src\imgui\eula.cpp
; File c:\program files (x86)\microsoft visual studio\2017\community\vc\tools\msvc\14.10.25017\include\xstring
; File c:\users\andon\source\repos\specialk\src\imgui\eula.cpp
; File c:\program files (x86)\microsoft visual studio\2017\community\vc\tools\msvc\14.10.25017\include\xstring
; File c:\users\andon\source\repos\specialk\src\imgui\eula.cpp
; File c:\program files (x86)\microsoft visual studio\2017\community\vc\tools\msvc\14.10.25017\include\xstring
; File c:\program files (x86)\microsoft visual studio\2017\community\vc\tools\msvc\14.10.25017\include\iosfwd
; File c:\program files (x86)\microsoft visual studio\2017\community\vc\tools\msvc\14.10.25017\include\xstring
; File c:\users\andon\source\repos\specialk\src\imgui\eula.cpp
_TEXT	SEGMENT
_str$1 = -28						; size = 24
$T2 = -4						; size = 4
___$ReturnUdt$ = 8					; size = 4
_license_ref$1$ = 12					; size = 4
_id$ = 12						; size = 2
?SK_GetLicenseText@@YA?AV?$basic_string@DU?$char_traits@D@std@@V?$allocator@D@2@@std@@F@Z PROC ; SK_GetLicenseText

; 36   : {

	npad	2
	push	ebp
	mov	ebp, esp
	sub	esp, 28					; 0000001cH

; 37   :   HRSRC res;
; 38   : 
; 39   :   // NOTE: providing g_hInstance is important, NULL might not work
; 40   :   res = FindResource ( SK_GetDLL (), MAKEINTRESOURCE (id), L"WAVE" );

	movzx	eax, WORD PTR _id$[ebp]
	push	ebx
	push	esi
	push	edi
	push	OFFSET $SG129276
	push	eax
	mov	DWORD PTR $T2[ebp], 0
	call	?SK_GetDLL@@YGPAUHINSTANCE__@@XZ	; SK_GetDLL
	push	eax
	call	DWORD PTR __imp__FindResourceW@12
	mov	esi, eax

; 41   : 
; 42   :   if (res)

	test	esi, esi
	je	$LN4@SK_GetLice

; 43   :   {
; 44   :     DWORD res_size = SizeofResource ( SK_GetDLL (), res );

	push	esi
	call	?SK_GetDLL@@YGPAUHINSTANCE__@@XZ	; SK_GetDLL
	push	eax
	call	DWORD PTR __imp__SizeofResource@8

; 45   : 
; 46   :     HGLOBAL license_ref =
; 47   :       LoadResource ( SK_GetDLL (), res );

	push	esi
	mov	edi, eax
	call	?SK_GetDLL@@YGPAUHINSTANCE__@@XZ	; SK_GetDLL
	push	eax
	call	DWORD PTR __imp__LoadResource@8
	mov	DWORD PTR _license_ref$1$[ebp], eax

; 50   :     if (! license_ref) return std::string ("");

	test	eax, eax
	jne	SHORT $LN3@SK_GetLice
; File c:\program files (x86)\microsoft visual studio\2017\community\vc\tools\msvc\14.10.25017\include\xstring

; 2429 : 		return (assign(_Ptr, _Traits::length(_Ptr)));

	push	eax
	push	OFFSET $SG129279
; File c:\users\andon\source\repos\specialk\src\imgui\eula.cpp

; 50   :     if (! license_ref) return std::string ("");

	jmp	$LN171@SK_GetLice
$LN3@SK_GetLice:

; 51   : 
; 52   :     auto* res_data =
; 53   :       static_cast <char *> (malloc (res_size + 1));

	lea	ebx, DWORD PTR [edi+1]
	push	ebx
	call	DWORD PTR __imp__malloc
	mov	esi, eax
	add	esp, 4

; 54   : 
; 55   :     if (res_data != nullptr)

	test	esi, esi
	je	$LN4@SK_GetLice

; 56   :     {
; 57   :       ZeroMemory (res_data, res_size + 1);

	push	ebx
	push	0
	push	esi
	call	_memset
	add	esp, 12					; 0000000cH

; 58   : 
; 59   :       const char* const locked = (char *)LockResource (license_ref);

	push	DWORD PTR _license_ref$1$[ebp]
	call	DWORD PTR __imp__LockResource@4

; 60   : 
; 61   :       if (locked != nullptr)

	test	eax, eax
	je	SHORT $LN5@SK_GetLice

; 62   :         strncat (res_data, locked, res_size);

	push	edi
	push	eax
	push	esi
	call	DWORD PTR __imp__strncat
	add	esp, 12					; 0000000cH
$LN5@SK_GetLice:
; File c:\program files (x86)\microsoft visual studio\2017\community\vc\tools\msvc\14.10.25017\include\iosfwd

; 480  : 		return (_CSTD strlen(_First));

	mov	ecx, esi
; File c:\program files (x86)\microsoft visual studio\2017\community\vc\tools\msvc\14.10.25017\include\xstring

; 3597 : 		_My_data._Mysize = 0;

	mov	DWORD PTR _str$1[ebp+16], 0

; 3598 : 		_My_data._Myres = this->_BUF_SIZE - 1;

	mov	DWORD PTR _str$1[ebp+20], 15		; 0000000fH
; File c:\program files (x86)\microsoft visual studio\2017\community\vc\tools\msvc\14.10.25017\include\iosfwd

; 517  : 		_Left = _Right;

	mov	BYTE PTR _str$1[ebp], 0

; 480  : 		return (_CSTD strlen(_First));

	lea	edx, DWORD PTR [ecx+1]
$LL170@SK_GetLice:
	mov	al, BYTE PTR [ecx]
	inc	ecx
	test	al, al
	jne	SHORT $LL170@SK_GetLice
	sub	ecx, edx
; File c:\program files (x86)\microsoft visual studio\2017\community\vc\tools\msvc\14.10.25017\include\xstring

; 2429 : 		return (assign(_Ptr, _Traits::length(_Ptr)));

	push	ecx
	push	esi
	lea	ecx, DWORD PTR _str$1[ebp]
	call	?assign@?$basic_string@DU?$char_traits@D@std@@V?$allocator@D@2@@std@@QAEAAV12@QBDI@Z ; std::basic_string<char,std::char_traits<char>,std::allocator<char> >::assign
; File c:\users\andon\source\repos\specialk\src\imgui\eula.cpp

; 66   :       free (res_data);

	push	esi
	call	DWORD PTR __imp__free
; File c:\program files (x86)\microsoft visual studio\2017\community\vc\tools\msvc\14.10.25017\include\xstring

; 1595 : 		_Mysize(0),

	mov	eax, DWORD PTR ___$ReturnUdt$[ebp]
; File c:\users\andon\source\repos\specialk\src\imgui\eula.cpp

; 66   :       free (res_data);

	add	esp, 4
; File c:\program files (x86)\microsoft visual studio\2017\community\vc\tools\msvc\14.10.25017\include\xstring

; 2143 : 		_CSTD memcpy(_My_data_mem, _Right_data_mem, _Memcpy_move_size);

	movups	xmm0, XMMWORD PTR _str$1[ebp]

; 1595 : 		_Mysize(0),

	mov	DWORD PTR [eax+16], 0

; 1596 : 		_Myres(0)

	mov	DWORD PTR [eax+20], 0
	pop	edi

; 2143 : 		_CSTD memcpy(_My_data_mem, _Right_data_mem, _Memcpy_move_size);

	movups	XMMWORD PTR [eax], xmm0
	pop	esi
	movq	xmm0, QWORD PTR _str$1[ebp+16]
	movq	QWORD PTR [eax+16], xmm0
	pop	ebx
; File c:\users\andon\source\repos\specialk\src\imgui\eula.cpp

; 73   : }

	mov	esp, ebp
	pop	ebp
	ret	0
$LN4@SK_GetLice:
; File c:\program files (x86)\microsoft visual studio\2017\community\vc\tools\msvc\14.10.25017\include\xstring

; 2429 : 		return (assign(_Ptr, _Traits::length(_Ptr)));

	push	0
	push	OFFSET $SG129282
$LN171@SK_GetLice:

; 3597 : 		_My_data._Mysize = 0;

	mov	esi, DWORD PTR ___$ReturnUdt$[ebp]

; 2429 : 		return (assign(_Ptr, _Traits::length(_Ptr)));

	mov	ecx, esi

; 3597 : 		_My_data._Mysize = 0;

	mov	DWORD PTR [esi+16], 0

; 3598 : 		_My_data._Myres = this->_BUF_SIZE - 1;

	mov	DWORD PTR [esi+20], 15			; 0000000fH
; File c:\program files (x86)\microsoft visual studio\2017\community\vc\tools\msvc\14.10.25017\include\iosfwd

; 517  : 		_Left = _Right;

	mov	BYTE PTR [esi], 0
; File c:\program files (x86)\microsoft visual studio\2017\community\vc\tools\msvc\14.10.25017\include\xstring

; 2429 : 		return (assign(_Ptr, _Traits::length(_Ptr)));

	call	?assign@?$basic_string@DU?$char_traits@D@std@@V?$allocator@D@2@@std@@QAEAAV12@QBDI@Z ; std::basic_string<char,std::char_traits<char>,std::allocator<char> >::assign
	pop	edi
; File c:\users\andon\source\repos\specialk\src\imgui\eula.cpp

; 72   :   return std::string ("");

	mov	eax, esi
	pop	esi
	pop	ebx

; 73   : }

	mov	esp, ebp
	pop	ebp
	ret	0
?SK_GetLicenseText@@YA?AV?$basic_string@DU?$char_traits@D@std@@V?$allocator@D@2@@std@@F@Z ENDP ; SK_GetLicenseText
_TEXT	ENDS
; Function compile flags: /Ogtp
; File c:\users\andon\source\repos\specialk\include\imgui\imgui.h
;	COMDAT ??A?$ImVector@PAUImFont@@@@QAEAAPAUImFont@@H@Z
_TEXT	SEGMENT
_i$ = 8							; size = 4
??A?$ImVector@PAUImFont@@@@QAEAAPAUImFont@@H@Z PROC	; ImVector<ImFont *>::operator[], COMDAT
; _this$ = ecx

; 912  :     inline value_type&          operator[](int i)               { IM_ASSERT(i < Size); return Data[i]; }

	npad	2
	push	ebp
	mov	ebp, esp
	mov	ecx, DWORD PTR [ecx+8]
	mov	eax, DWORD PTR _i$[ebp]
	lea	eax, DWORD PTR [ecx+eax*4]
	pop	ebp
	ret	4
??A?$ImVector@PAUImFont@@@@QAEAAPAUImFont@@H@Z ENDP	; ImVector<ImFont *>::operator[]
_TEXT	ENDS
; Function compile flags: /Ogtp
; File c:\users\andon\source\repos\specialk\include\imgui\imgui.h
;	COMDAT ??BImColor@@QBE?AUImVec4@@XZ
_TEXT	SEGMENT
___$ReturnUdt$ = 8					; size = 4
??BImColor@@QBE?AUImVec4@@XZ PROC			; ImColor::operator ImVec4, COMDAT
; _this$ = ecx

; 1129 :     inline operator ImVec4() const                                  { return Value; }

	npad	2
	push	ebp
	mov	ebp, esp
	mov	eax, DWORD PTR ___$ReturnUdt$[ebp]
	movups	xmm0, XMMWORD PTR [ecx]
	movups	XMMWORD PTR [eax], xmm0
	pop	ebp
	ret	4
??BImColor@@QBE?AUImVec4@@XZ ENDP			; ImColor::operator ImVec4
_TEXT	ENDS
; Function compile flags: /Ogtp
; File c:\users\andon\source\repos\specialk\include\imgui\imgui.h
;	COMDAT ??0ImColor@@QAE@HHHH@Z
_TEXT	SEGMENT
_r$ = 8							; size = 4
_g$ = 12						; size = 4
_b$ = 16						; size = 4
_a$ = 20						; size = 4
??0ImColor@@QAE@HHHH@Z PROC				; ImColor::ImColor, COMDAT
; _this$ = ecx

; 1124 :     ImColor(int r, int g, int b, int a = 255)                       { float sc = 1.0f/255.0f; Value.x = (float)r * sc; Value.y = (float)g * sc; Value.z = (float)b * sc; Value.w = (float)a * sc; }

	npad	2
	push	ebp
	mov	ebp, esp
	movd	xmm0, DWORD PTR _r$[ebp]
	mov	eax, ecx
	movss	xmm1, DWORD PTR __real@3b808081
	cvtdq2ps xmm0, xmm0
	mulss	xmm0, xmm1
	movss	DWORD PTR [ecx], xmm0
	movd	xmm0, DWORD PTR _g$[ebp]
	cvtdq2ps xmm0, xmm0
	mulss	xmm0, xmm1
	movss	DWORD PTR [ecx+4], xmm0
	movd	xmm0, DWORD PTR _b$[ebp]
	cvtdq2ps xmm0, xmm0
	mulss	xmm0, xmm1
	movss	DWORD PTR [ecx+8], xmm0
	movd	xmm0, DWORD PTR _a$[ebp]
	cvtdq2ps xmm0, xmm0
	mulss	xmm0, xmm1
	movss	DWORD PTR [ecx+12], xmm0
	pop	ebp
	ret	16					; 00000010H
??0ImColor@@QAE@HHHH@Z ENDP				; ImColor::ImColor
_TEXT	ENDS
; Function compile flags: /Ogtp
; File c:\users\andon\source\repos\specialk\include\imgui\imgui.h
;	COMDAT ??0ImVec4@@QAE@MMMM@Z
_TEXT	SEGMENT
__x$ = 8						; size = 4
__y$ = 12						; size = 4
__z$ = 16						; size = 4
__w$ = 20						; size = 4
??0ImVec4@@QAE@MMMM@Z PROC				; ImVec4::ImVec4, COMDAT
; _this$ = ecx

; 109  :     ImVec4(float _x, float _y, float _z, float _w) { x = _x; y = _y; z = _z; w = _w; }

	npad	2
	push	ebp
	mov	ebp, esp
	movss	xmm0, DWORD PTR __x$[ebp]
	mov	eax, ecx
	movss	DWORD PTR [ecx], xmm0
	movss	xmm0, DWORD PTR __y$[ebp]
	movss	DWORD PTR [ecx+4], xmm0
	movss	xmm0, DWORD PTR __z$[ebp]
	movss	DWORD PTR [ecx+8], xmm0
	movss	xmm0, DWORD PTR __w$[ebp]
	movss	DWORD PTR [ecx+12], xmm0
	pop	ebp
	ret	16					; 00000010H
??0ImVec4@@QAE@MMMM@Z ENDP				; ImVec4::ImVec4
_TEXT	ENDS
; Function compile flags: /Ogtp
; File c:\users\andon\source\repos\specialk\include\imgui\imgui.h
;	COMDAT ??0ImVec4@@QAE@XZ
_TEXT	SEGMENT
??0ImVec4@@QAE@XZ PROC					; ImVec4::ImVec4, COMDAT
; _this$ = ecx

; 108  :     ImVec4() { x = y = z = w = 0.0f; }

	mov	DWORD PTR [ecx+12], 0
	mov	eax, ecx
	mov	DWORD PTR [ecx+8], 0
	mov	DWORD PTR [ecx+4], 0
	mov	DWORD PTR [ecx], 0
	ret	0
??0ImVec4@@QAE@XZ ENDP					; ImVec4::ImVec4
_TEXT	ENDS
; Function compile flags: /Ogtp
; File c:\users\andon\source\repos\specialk\include\imgui\imgui.h
;	COMDAT ??0ImVec2@@QAE@MM@Z
_TEXT	SEGMENT
__x$ = 8						; size = 4
__y$ = 12						; size = 4
??0ImVec2@@QAE@MM@Z PROC				; ImVec2::ImVec2, COMDAT
; _this$ = ecx

; 98   :     ImVec2(float _x, float _y) { x = _x; y = _y; }

	npad	2
	push	ebp
	mov	ebp, esp
	movss	xmm0, DWORD PTR __x$[ebp]
	mov	eax, ecx
	movss	DWORD PTR [ecx], xmm0
	movss	xmm0, DWORD PTR __y$[ebp]
	movss	DWORD PTR [ecx+4], xmm0
	pop	ebp
	ret	8
??0ImVec2@@QAE@MM@Z ENDP				; ImVec2::ImVec2
_TEXT	ENDS
; Function compile flags: /Ogtp
; File c:\program files (x86)\microsoft visual studio\2017\community\vc\tools\msvc\14.10.25017\include\xstring
;	COMDAT ?_Xran@?$basic_string@_WU?$char_traits@_W@std@@V?$allocator@_W@2@@std@@SAXXZ
_TEXT	SEGMENT
?_Xran@?$basic_string@_WU?$char_traits@_W@std@@V?$allocator@_W@2@@std@@SAXXZ PROC ; std::basic_string<wchar_t,std::char_traits<wchar_t>,std::allocator<wchar_t> >::_Xran, COMDAT

; 3646 : 		_Xout_of_range("invalid string position");

	push	OFFSET ??_C@_0BI@CFPLBAOH@invalid?5string?5position?$AA@
	call	DWORD PTR __imp_?_Xout_of_range@std@@YAXPBD@Z
$LN4@Xran:
$LN3@Xran:
	int	3
?_Xran@?$basic_string@_WU?$char_traits@_W@std@@V?$allocator@_W@2@@std@@SAXXZ ENDP ; std::basic_string<wchar_t,std::char_traits<wchar_t>,std::allocator<wchar_t> >::_Xran
_TEXT	ENDS
; Function compile flags: /Ogtp
; File c:\program files (x86)\microsoft visual studio\2017\community\vc\tools\msvc\14.10.25017\include\xstring
;	COMDAT ?_Check_offset@?$basic_string@_WU?$char_traits@_W@std@@V?$allocator@_W@2@@std@@QBEXI@Z
_TEXT	SEGMENT
__Off$ = 8						; size = 4
?_Check_offset@?$basic_string@_WU?$char_traits@_W@std@@V?$allocator@_W@2@@std@@QBEXI@Z PROC ; std::basic_string<wchar_t,std::char_traits<wchar_t>,std::allocator<wchar_t> >::_Check_offset, COMDAT
; _this$ = ecx

; 3629 : 		{	// checks whether _Off is in the bounds of [0, this->size()]

	npad	2
	push	ebp
	mov	ebp, esp

; 3630 : 		if (this->_Mysize() < _Off)

	mov	eax, DWORD PTR [ecx+16]
	cmp	eax, DWORD PTR __Off$[ebp]
	jb	SHORT $LN14@Check_offs

; 3633 : 			}
; 3634 : 		}

	pop	ebp
	ret	4
$LN14@Check_offs:

; 3631 : 			{
; 3632 : 			_Xran();

	call	?_Xran@?$basic_string@_WU?$char_traits@_W@std@@V?$allocator@_W@2@@std@@SAXXZ ; std::basic_string<wchar_t,std::char_traits<wchar_t>,std::allocator<wchar_t> >::_Xran
$LN16@Check_offs:
$LN13@Check_offs:
	int	3
?_Check_offset@?$basic_string@_WU?$char_traits@_W@std@@V?$allocator@_W@2@@std@@QBEXI@Z ENDP ; std::basic_string<wchar_t,std::char_traits<wchar_t>,std::allocator<wchar_t> >::_Check_offset
_TEXT	ENDS
; Function compile flags: /Ogtp
; File c:\program files (x86)\microsoft visual studio\2017\community\vc\tools\msvc\14.10.25017\include\xstring
;	COMDAT ?_Xlen@?$basic_string@_WU?$char_traits@_W@std@@V?$allocator@_W@2@@std@@SAXXZ
_TEXT	SEGMENT
?_Xlen@?$basic_string@_WU?$char_traits@_W@std@@V?$allocator@_W@2@@std@@SAXXZ PROC ; std::basic_string<wchar_t,std::char_traits<wchar_t>,std::allocator<wchar_t> >::_Xlen, COMDAT

; 3625 : 		_Xlength_error("string too long");

	push	OFFSET ??_C@_0BA@JFNIOLAK@string?5too?5long?$AA@
	call	DWORD PTR __imp_?_Xlength_error@std@@YAXPBD@Z
$LN4@Xlen:
$LN3@Xlen:
	int	3
?_Xlen@?$basic_string@_WU?$char_traits@_W@std@@V?$allocator@_W@2@@std@@SAXXZ ENDP ; std::basic_string<wchar_t,std::char_traits<wchar_t>,std::allocator<wchar_t> >::_Xlen
_TEXT	ENDS
; Function compile flags: /Ogtp
; File c:\program files (x86)\microsoft visual studio\2017\community\vc\tools\msvc\14.10.25017\include\xstring
; File c:\program files (x86)\microsoft visual studio\2017\community\vc\tools\msvc\14.10.25017\include\xmemory0
; File c:\program files (x86)\microsoft visual studio\2017\community\vc\tools\msvc\14.10.25017\include\xstring
; File c:\program files (x86)\microsoft visual studio\2017\community\vc\tools\msvc\14.10.25017\include\xmemory0
; File c:\program files (x86)\microsoft visual studio\2017\community\vc\tools\msvc\14.10.25017\include\xstring
; File c:\program files (x86)\microsoft visual studio\2017\community\vc\tools\msvc\14.10.25017\include\iosfwd
; File c:\program files (x86)\microsoft visual studio\2017\community\vc\tools\msvc\14.10.25017\include\xstring
; File c:\program files (x86)\microsoft visual studio\2017\community\vc\tools\msvc\14.10.25017\include\iosfwd
; File c:\program files (x86)\microsoft visual studio\2017\community\vc\tools\msvc\14.10.25017\include\xstring
;	COMDAT ?_Tidy_deallocate@?$basic_string@_WU?$char_traits@_W@std@@V?$allocator@_W@2@@std@@QAEXXZ
_TEXT	SEGMENT
?_Tidy_deallocate@?$basic_string@_WU?$char_traits@_W@std@@V?$allocator@_W@2@@std@@QAEXXZ PROC ; std::basic_string<wchar_t,std::char_traits<wchar_t>,std::allocator<wchar_t> >::_Tidy_deallocate, COMDAT
; _this$ = ecx

; 3605 : 		{	// initialize buffer, deallocating any storage

	npad	2
	push	esi
	mov	esi, ecx

; 1628 : 		return (this->_BUF_SIZE <= _Myres);

	mov	eax, DWORD PTR [esi+20]
	cmp	eax, 8

; 3606 : 		this->_Orphan_all();
; 3607 : 		auto& _My_data = this->_Get_data();
; 3608 : 		if (_My_data._Large_string_engaged())

	jb	SHORT $LN2@Tidy_deall
; File c:\program files (x86)\microsoft visual studio\2017\community\vc\tools\msvc\14.10.25017\include\xmemory0

; 823  : 		_Deallocate(_Ptr, _Count, sizeof (_Ty));

	push	2
; File c:\program files (x86)\microsoft visual studio\2017\community\vc\tools\msvc\14.10.25017\include\xstring

; 3613 : 			_Al.deallocate(_Ptr, _My_data._Myres + 1);

	inc	eax
; File c:\program files (x86)\microsoft visual studio\2017\community\vc\tools\msvc\14.10.25017\include\xmemory0

; 823  : 		_Deallocate(_Ptr, _Count, sizeof (_Ty));

	push	eax
	push	DWORD PTR [esi]
	call	?_Deallocate@std@@YAXPAXII@Z		; std::_Deallocate
	add	esp, 12					; 0000000cH
$LN2@Tidy_deall:
; File c:\program files (x86)\microsoft visual studio\2017\community\vc\tools\msvc\14.10.25017\include\xstring

; 3616 : 		_My_data._Mysize = 0;

	mov	DWORD PTR [esi+16], 0
; File c:\program files (x86)\microsoft visual studio\2017\community\vc\tools\msvc\14.10.25017\include\iosfwd

; 326  : 		_Left = _Right;

	xor	eax, eax
; File c:\program files (x86)\microsoft visual studio\2017\community\vc\tools\msvc\14.10.25017\include\xstring

; 3617 : 		_My_data._Myres = this->_BUF_SIZE - 1;

	mov	DWORD PTR [esi+20], 7
; File c:\program files (x86)\microsoft visual studio\2017\community\vc\tools\msvc\14.10.25017\include\iosfwd

; 326  : 		_Left = _Right;

	mov	WORD PTR [esi], ax
	pop	esi
; File c:\program files (x86)\microsoft visual studio\2017\community\vc\tools\msvc\14.10.25017\include\xstring

; 3621 : 		}

	ret	0
?_Tidy_deallocate@?$basic_string@_WU?$char_traits@_W@std@@V?$allocator@_W@2@@std@@QAEXXZ ENDP ; std::basic_string<wchar_t,std::char_traits<wchar_t>,std::allocator<wchar_t> >::_Tidy_deallocate
_TEXT	ENDS
; Function compile flags: /Ogtp
; File c:\program files (x86)\microsoft visual studio\2017\community\vc\tools\msvc\14.10.25017\include\xstring
; File c:\program files (x86)\microsoft visual studio\2017\community\vc\tools\msvc\14.10.25017\include\iosfwd
; File c:\program files (x86)\microsoft visual studio\2017\community\vc\tools\msvc\14.10.25017\include\xstring
; File c:\program files (x86)\microsoft visual studio\2017\community\vc\tools\msvc\14.10.25017\include\iosfwd
; File c:\program files (x86)\microsoft visual studio\2017\community\vc\tools\msvc\14.10.25017\include\xstring
;	COMDAT ?_Tidy_init@?$basic_string@_WU?$char_traits@_W@std@@V?$allocator@_W@2@@std@@QAEXXZ
_TEXT	SEGMENT
?_Tidy_init@?$basic_string@_WU?$char_traits@_W@std@@V?$allocator@_W@2@@std@@QAEXXZ PROC ; std::basic_string<wchar_t,std::char_traits<wchar_t>,std::allocator<wchar_t> >::_Tidy_init, COMDAT
; _this$ = ecx
; File c:\program files (x86)\microsoft visual studio\2017\community\vc\tools\msvc\14.10.25017\include\iosfwd

; 326  : 		_Left = _Right;

	xor	eax, eax
; File c:\program files (x86)\microsoft visual studio\2017\community\vc\tools\msvc\14.10.25017\include\xstring

; 3597 : 		_My_data._Mysize = 0;

	mov	DWORD PTR [ecx+16], 0

; 3598 : 		_My_data._Myres = this->_BUF_SIZE - 1;

	mov	DWORD PTR [ecx+20], 7
; File c:\program files (x86)\microsoft visual studio\2017\community\vc\tools\msvc\14.10.25017\include\iosfwd

; 326  : 		_Left = _Right;

	mov	WORD PTR [ecx], ax
; File c:\program files (x86)\microsoft visual studio\2017\community\vc\tools\msvc\14.10.25017\include\xstring

; 3602 : 		}

	ret	0
?_Tidy_init@?$basic_string@_WU?$char_traits@_W@std@@V?$allocator@_W@2@@std@@QAEXXZ ENDP ; std::basic_string<wchar_t,std::char_traits<wchar_t>,std::allocator<wchar_t> >::_Tidy_init
_TEXT	ENDS
; Function compile flags: /Ogtp
; File c:\program files (x86)\microsoft visual studio\2017\community\vc\tools\msvc\14.10.25017\include\xstring
; File c:\program files (x86)\microsoft visual studio\2017\community\vc\tools\msvc\14.10.25017\include\xstddef
; File c:\program files (x86)\microsoft visual studio\2017\community\vc\tools\msvc\14.10.25017\include\xstring
;	COMDAT ?_Inside@?$basic_string@_WU?$char_traits@_W@std@@V?$allocator@_W@2@@std@@QBE_NQB_W@Z
_TEXT	SEGMENT
__Ptr$ = 8						; size = 4
?_Inside@?$basic_string@_WU?$char_traits@_W@std@@V?$allocator@_W@2@@std@@QBE_NQB_W@Z PROC ; std::basic_string<wchar_t,std::char_traits<wchar_t>,std::allocator<wchar_t> >::_Inside, COMDAT
; _this$ = ecx

; 3588 : 		{	// test if _Ptr points inside string

	npad	2
	push	ebp
	mov	ebp, esp

; 1628 : 		return (this->_BUF_SIZE <= _Myres);

	cmp	DWORD PTR [ecx+20], 8

; 1621 : 		return (_Large_string_engaged()

	jb	SHORT $LN13@Inside
; File c:\program files (x86)\microsoft visual studio\2017\community\vc\tools\msvc\14.10.25017\include\xstddef

; 643  : 	return (_Ptr);

	mov	edx, DWORD PTR [ecx]
; File c:\program files (x86)\microsoft visual studio\2017\community\vc\tools\msvc\14.10.25017\include\xstring

; 1621 : 		return (_Large_string_engaged()

	jmp	SHORT $LN14@Inside
$LN13@Inside:
	mov	edx, ecx
$LN14@Inside:

; 3589 : 		const auto& _My_data = this->_Get_data();
; 3590 : 		const _Elem * const _My_chars = _My_data._Myptr();
; 3591 : 		return (_My_chars <= _Ptr && _Ptr < _My_chars + _My_data._Mysize);

	cmp	edx, DWORD PTR __Ptr$[ebp]
	ja	SHORT $LN3@Inside
	mov	eax, DWORD PTR [ecx+16]
	lea	eax, DWORD PTR [edx+eax*2]
	cmp	DWORD PTR __Ptr$[ebp], eax
	jae	SHORT $LN3@Inside
	mov	al, 1

; 3592 : 		}

	pop	ebp
	ret	4
$LN3@Inside:

; 3589 : 		const auto& _My_data = this->_Get_data();
; 3590 : 		const _Elem * const _My_chars = _My_data._Myptr();
; 3591 : 		return (_My_chars <= _Ptr && _Ptr < _My_chars + _My_data._Mysize);

	xor	al, al

; 3592 : 		}

	pop	ebp
	ret	4
?_Inside@?$basic_string@_WU?$char_traits@_W@std@@V?$allocator@_W@2@@std@@QBE_NQB_W@Z ENDP ; std::basic_string<wchar_t,std::char_traits<wchar_t>,std::allocator<wchar_t> >::_Inside
_TEXT	ENDS
; Function compile flags: /Ogtp
; File c:\program files (x86)\microsoft visual studio\2017\community\vc\tools\msvc\14.10.25017\include\xstring
; File c:\program files (x86)\microsoft visual studio\2017\community\vc\tools\msvc\14.10.25017\include\xstddef
; File c:\program files (x86)\microsoft visual studio\2017\community\vc\tools\msvc\14.10.25017\include\iosfwd
; File c:\program files (x86)\microsoft visual studio\2017\community\vc\tools\msvc\14.10.25017\include\xstring
;	COMDAT ?_Grow@?$basic_string@_WU?$char_traits@_W@std@@V?$allocator@_W@2@@std@@QAE_NI@Z
_TEXT	SEGMENT
__Newsize$ = 8						; size = 4
?_Grow@?$basic_string@_WU?$char_traits@_W@std@@V?$allocator@_W@2@@std@@QAE_NI@Z PROC ; std::basic_string<wchar_t,std::char_traits<wchar_t>,std::allocator<wchar_t> >::_Grow, COMDAT
; _this$ = ecx

; 3572 : 		{	// ensure buffer is big enough

	npad	2
	push	ebp
	mov	ebp, esp

; 3573 : 		if (_Newsize == 0)

	mov	eax, DWORD PTR __Newsize$[ebp]
	test	eax, eax
	jne	SHORT $LN2@Grow

; 1628 : 		return (this->_BUF_SIZE <= _Myres);

	cmp	DWORD PTR [ecx+20], 8

; 3568 : 		_Traits::assign(_My_data._Myptr()[_My_data._Mysize = _Newsize], _Elem());

	mov	DWORD PTR [ecx+16], eax

; 1614 : 		return (_Large_string_engaged()

	jb	SHORT $LN16@Grow
; File c:\program files (x86)\microsoft visual studio\2017\community\vc\tools\msvc\14.10.25017\include\xstddef

; 643  : 	return (_Ptr);

	mov	ecx, DWORD PTR [ecx]
$LN16@Grow:
; File c:\program files (x86)\microsoft visual studio\2017\community\vc\tools\msvc\14.10.25017\include\iosfwd

; 326  : 		_Left = _Right;

	xor	eax, eax
	mov	WORD PTR [ecx], ax
; File c:\program files (x86)\microsoft visual studio\2017\community\vc\tools\msvc\14.10.25017\include\xstring

; 3576 : 			return (false);

	xor	al, al

; 3585 : 		}

	pop	ebp
	ret	4
$LN2@Grow:

; 3577 : 			}
; 3578 : 
; 3579 : 		if (this->_Myres() < _Newsize)

	cmp	DWORD PTR [ecx+20], eax
	jae	SHORT $LN3@Grow

; 3580 : 			{	// reallocate to grow
; 3581 : 			_Copy(_Newsize);

	push	eax
	call	?_Copy@?$basic_string@_WU?$char_traits@_W@std@@V?$allocator@_W@2@@std@@QAEXI@Z ; std::basic_string<wchar_t,std::char_traits<wchar_t>,std::allocator<wchar_t> >::_Copy
$LN3@Grow:

; 3582 : 			}
; 3583 : 
; 3584 : 		return (true);	// return true only if more work to do

	mov	al, 1

; 3585 : 		}

	pop	ebp
	ret	4
?_Grow@?$basic_string@_WU?$char_traits@_W@std@@V?$allocator@_W@2@@std@@QAE_NI@Z ENDP ; std::basic_string<wchar_t,std::char_traits<wchar_t>,std::allocator<wchar_t> >::_Grow
_TEXT	ENDS
; Function compile flags: /Ogtp
; File c:\program files (x86)\microsoft visual studio\2017\community\vc\tools\msvc\14.10.25017\include\xstring
; File c:\program files (x86)\microsoft visual studio\2017\community\vc\tools\msvc\14.10.25017\include\xstddef
; File c:\program files (x86)\microsoft visual studio\2017\community\vc\tools\msvc\14.10.25017\include\iosfwd
; File c:\program files (x86)\microsoft visual studio\2017\community\vc\tools\msvc\14.10.25017\include\xstring
; File c:\program files (x86)\microsoft visual studio\2017\community\vc\tools\msvc\14.10.25017\include\iosfwd
; File c:\program files (x86)\microsoft visual studio\2017\community\vc\tools\msvc\14.10.25017\include\xstring
;	COMDAT ?_Eos@?$basic_string@_WU?$char_traits@_W@std@@V?$allocator@_W@2@@std@@QAEXI@Z
_TEXT	SEGMENT
__Newsize$ = 8						; size = 4
?_Eos@?$basic_string@_WU?$char_traits@_W@std@@V?$allocator@_W@2@@std@@QAEXI@Z PROC ; std::basic_string<wchar_t,std::char_traits<wchar_t>,std::allocator<wchar_t> >::_Eos, COMDAT
; _this$ = ecx

; 3566 : 		{	// set new length and null terminator

	npad	2
	push	ebp
	mov	ebp, esp

; 1628 : 		return (this->_BUF_SIZE <= _Myres);

	cmp	DWORD PTR [ecx+20], 8

; 3567 : 		auto& _My_data = this->_Get_data();
; 3568 : 		_Traits::assign(_My_data._Myptr()[_My_data._Mysize = _Newsize], _Elem());

	mov	edx, DWORD PTR __Newsize$[ebp]
	mov	DWORD PTR [ecx+16], edx

; 1614 : 		return (_Large_string_engaged()

	jb	SHORT $LN11@Eos
; File c:\program files (x86)\microsoft visual studio\2017\community\vc\tools\msvc\14.10.25017\include\xstddef

; 643  : 	return (_Ptr);

	mov	eax, DWORD PTR [ecx]
; File c:\program files (x86)\microsoft visual studio\2017\community\vc\tools\msvc\14.10.25017\include\iosfwd

; 326  : 		_Left = _Right;

	xor	ecx, ecx
	mov	WORD PTR [eax+edx*2], cx
; File c:\program files (x86)\microsoft visual studio\2017\community\vc\tools\msvc\14.10.25017\include\xstring

; 3569 : 		}

	pop	ebp
	ret	4
$LN11@Eos:
; File c:\program files (x86)\microsoft visual studio\2017\community\vc\tools\msvc\14.10.25017\include\iosfwd

; 326  : 		_Left = _Right;

	xor	eax, eax
	mov	WORD PTR [ecx+edx*2], ax
; File c:\program files (x86)\microsoft visual studio\2017\community\vc\tools\msvc\14.10.25017\include\xstring

; 3569 : 		}

	pop	ebp
	ret	4
?_Eos@?$basic_string@_WU?$char_traits@_W@std@@V?$allocator@_W@2@@std@@QAEXI@Z ENDP ; std::basic_string<wchar_t,std::char_traits<wchar_t>,std::allocator<wchar_t> >::_Eos
_TEXT	ENDS
; Function compile flags: /Ogtp
; File c:\program files (x86)\microsoft visual studio\2017\community\vc\tools\msvc\14.10.25017\include\xstring
; File c:\program files (x86)\microsoft visual studio\2017\community\vc\tools\msvc\14.10.25017\include\xmemory0
; File c:\program files (x86)\microsoft visual studio\2017\community\vc\tools\msvc\14.10.25017\include\xstring
; File c:\program files (x86)\microsoft visual studio\2017\community\vc\tools\msvc\14.10.25017\include\xmemory0
; File c:\program files (x86)\microsoft visual studio\2017\community\vc\tools\msvc\14.10.25017\include\xstring
; File c:\program files (x86)\microsoft visual studio\2017\community\vc\tools\msvc\14.10.25017\include\xmemory0
; File c:\program files (x86)\microsoft visual studio\2017\community\vc\tools\msvc\14.10.25017\include\xstring
; File c:\program files (x86)\windows kits\10\include\10.0.10240.0\ucrt\wchar.h
; File c:\program files (x86)\microsoft visual studio\2017\community\vc\tools\msvc\14.10.25017\include\xstring
; File c:\program files (x86)\windows kits\10\include\10.0.10240.0\ucrt\wchar.h
; File c:\program files (x86)\microsoft visual studio\2017\community\vc\tools\msvc\14.10.25017\include\xstring
; File c:\program files (x86)\windows kits\10\include\10.0.10240.0\ucrt\wchar.h
; File c:\program files (x86)\microsoft visual studio\2017\community\vc\tools\msvc\14.10.25017\include\xmemory0
; File c:\program files (x86)\microsoft visual studio\2017\community\vc\tools\msvc\14.10.25017\include\xstring
; File c:\program files (x86)\microsoft visual studio\2017\community\vc\tools\msvc\14.10.25017\include\xmemory0
; File c:\program files (x86)\microsoft visual studio\2017\community\vc\tools\msvc\14.10.25017\include\xstring
; File c:\program files (x86)\windows kits\10\include\10.0.10240.0\ucrt\wchar.h
; File c:\program files (x86)\microsoft visual studio\2017\community\vc\tools\msvc\14.10.25017\include\xmemory0
; File c:\program files (x86)\microsoft visual studio\2017\community\vc\tools\msvc\14.10.25017\include\xstring
; File c:\program files (x86)\microsoft visual studio\2017\community\vc\tools\msvc\14.10.25017\include\xmemory0
; File c:\program files (x86)\microsoft visual studio\2017\community\vc\tools\msvc\14.10.25017\include\xstring
;	COMDAT ?_Copy@?$basic_string@_WU?$char_traits@_W@std@@V?$allocator@_W@2@@std@@QAEXI@Z
_TEXT	SEGMENT
__Oldres$ = -28						; size = 4
_this$ = -24						; size = 4
__Ptr$1$ = -20						; size = 4
__Ptr$ = -20						; size = 4
__$EHRec$ = -16						; size = 16
__Newres$ = 8						; size = 4
__Newsize$ = 8						; size = 4
?_Copy@?$basic_string@_WU?$char_traits@_W@std@@V?$allocator@_W@2@@std@@QAEXI@Z PROC ; std::basic_string<wchar_t,std::char_traits<wchar_t>,std::allocator<wchar_t> >::_Copy, COMDAT
; _this$ = ecx

; 3514 : 		{	// reallocate to new buffer of at least _Newsize, copying existing elements there

	npad	2
	push	ebp
	mov	ebp, esp
	push	-1
	push	__ehhandler$?_Copy@?$basic_string@_WU?$char_traits@_W@std@@V?$allocator@_W@2@@std@@QAEXI@Z
	mov	eax, DWORD PTR fs:0
	push	eax
	mov	DWORD PTR fs:0, esp
	sub	esp, 16					; 00000010H

; 3515 : 		const auto _Max = max_size();
; 3516 : 		if (_Newsize > _Max)

	mov	eax, DWORD PTR __Newsize$[ebp]
	push	ebx
	push	esi
	mov	esi, ecx
	mov	DWORD PTR _this$[ebp], esi
	push	edi
	mov	DWORD PTR __$EHRec$[ebp], esp
	cmp	eax, 2147483646				; 7ffffffeH
	jbe	SHORT $LN2@Copy

; 3517 : 			{	// too long
; 3518 : 			_Xlen();

	call	?_Xlen@?$basic_string@_WU?$char_traits@_W@std@@V?$allocator@_W@2@@std@@SAXXZ ; std::basic_string<wchar_t,std::char_traits<wchar_t>,std::allocator<wchar_t> >::_Xlen
$LN102@Copy:
$LN2@Copy:

; 3519 : 			}
; 3520 : 
; 3521 : 		auto& _My_data = this->_Get_data();
; 3522 : 		const size_type _Oldres = _My_data._Myres;

	mov	ebx, DWORD PTR [esi+20]

; 3523 : 		size_type _Newres = _Newsize | this->_ALLOC_MASK;

	mov	edi, eax
	or	edi, 7
	mov	DWORD PTR __Oldres$[ebp], ebx

; 3524 : 		if (_Max < _Newres)

	cmp	edi, 2147483646				; 7ffffffeH
	jbe	SHORT $LN3@Copy

; 3525 : 			{
; 3526 : 			_Newres = _Newsize;	// undo roundup if too big

	mov	edi, eax
	jmp	SHORT $LN8@Copy
$LN3@Copy:

; 3527 : 			}
; 3528 : 		else if (_Oldres / 2 <= _Newres / 3)

	mov	eax, -1431655765			; aaaaaaabH
	mov	ecx, ebx
	mul	edi
	shr	ecx, 1
	shr	edx, 1
	cmp	ecx, edx
	jbe	SHORT $LN8@Copy

; 3529 : 			;
; 3530 : 		else if (_Oldres <= _Max - _Oldres / 2)

	mov	eax, 2147483646				; 7ffffffeH

; 3531 : 			{
; 3532 : 			_Newres = _Oldres + _Oldres / 2;	// grow exponentially if possible

	lea	edi, DWORD PTR [ecx+ebx]
	sub	eax, ecx
	cmp	ebx, eax
	jbe	SHORT $LN8@Copy

; 3533 : 			}
; 3534 : 		else
; 3535 : 			{
; 3536 : 			_Newres = _Max;	// settle for max_size()

	mov	edi, 2147483646				; 7ffffffeH
$LN8@Copy:

; 3537 : 			}
; 3538 : 
; 3539 : 		auto& _Al = this->_Getal();
; 3540 : 		pointer _Ptr;
; 3541 : 		_TRY_BEGIN
; 3542 : 			_Ptr = _Al.allocate(_Newres + 1);

	lea	eax, DWORD PTR [edi+1]
	mov	DWORD PTR __$EHRec$[ebp+12], 0
; File c:\program files (x86)\microsoft visual studio\2017\community\vc\tools\msvc\14.10.25017\include\xmemory0

; 1077 : 		return (_Mybase::allocate(_Count));

	push	eax
	mov	ecx, esi
	call	?allocate@?$allocator@_W@std@@QAEPA_WI@Z ; std::allocator<wchar_t>::allocate
	mov	ecx, eax
; File c:\program files (x86)\microsoft visual studio\2017\community\vc\tools\msvc\14.10.25017\include\xstring
	jmp	SHORT $LN100@Copy
__catch$?_Copy@?$basic_string@_WU?$char_traits@_W@std@@V?$allocator@_W@2@@std@@QAEXI@Z$0:

; 3544 : 			_Newres = _Newsize;	// allocation failed, undo roundup and retry

	mov	eax, DWORD PTR __Newsize$[ebp]
; File c:\program files (x86)\microsoft visual studio\2017\community\vc\tools\msvc\14.10.25017\include\xmemory0

; 1077 : 		return (_Mybase::allocate(_Count));

	mov	ecx, DWORD PTR _this$[ebp]
; File c:\program files (x86)\microsoft visual studio\2017\community\vc\tools\msvc\14.10.25017\include\xstring

; 3544 : 			_Newres = _Newsize;	// allocation failed, undo roundup and retry

	mov	DWORD PTR __Newres$[ebp], eax

; 3545 : 			_Ptr = _Al.allocate(_Newres + 1);	// if throws, *this unmodified

	inc	eax
; File c:\program files (x86)\microsoft visual studio\2017\community\vc\tools\msvc\14.10.25017\include\xmemory0

; 1077 : 		return (_Mybase::allocate(_Count));

	push	eax
	call	?allocate@?$allocator@_W@std@@QAEPA_WI@Z ; std::allocator<wchar_t>::allocate
; File c:\program files (x86)\microsoft visual studio\2017\community\vc\tools\msvc\14.10.25017\include\xstring

; 3545 : 			_Ptr = _Al.allocate(_Newres + 1);	// if throws, *this unmodified

	mov	DWORD PTR __Ptr$[ebp], eax

; 3546 : 		_CATCH_END

	mov	eax, $LN97@Copy
	ret	0
$LN97@Copy:
	mov	esi, DWORD PTR _this$[ebp]
	mov	ebx, DWORD PTR __Oldres$[ebp]
	mov	edi, DWORD PTR __Newres$[ebp]
	mov	ecx, DWORD PTR __Ptr$[ebp]
$LN100@Copy:

; 1628 : 		return (this->_BUF_SIZE <= _Myres);

	cmp	DWORD PTR [esi+20], 8
; File c:\program files (x86)\windows kits\10\include\10.0.10240.0\ucrt\wchar.h

; 234  :         return (wchar_t*)memcpy(_S1, _S2, _N*sizeof(wchar_t));

	mov	eax, DWORD PTR [esi+16]
; File c:\program files (x86)\microsoft visual studio\2017\community\vc\tools\msvc\14.10.25017\include\xstring

; 3546 : 		_CATCH_END

	mov	DWORD PTR __Ptr$1$[ebp], ecx
; File c:\program files (x86)\windows kits\10\include\10.0.10240.0\ucrt\wchar.h

; 234  :         return (wchar_t*)memcpy(_S1, _S2, _N*sizeof(wchar_t));

	lea	eax, DWORD PTR [eax*2+2]
	push	eax
; File c:\program files (x86)\microsoft visual studio\2017\community\vc\tools\msvc\14.10.25017\include\xstring

; 3550 : 		if (_My_data._Large_string_engaged())

	jb	SHORT $LN10@Copy
; File c:\program files (x86)\windows kits\10\include\10.0.10240.0\ucrt\wchar.h

; 234  :         return (wchar_t*)memcpy(_S1, _S2, _N*sizeof(wchar_t));

	push	DWORD PTR [esi]
	push	ecx
	call	_memcpy
; File c:\program files (x86)\microsoft visual studio\2017\community\vc\tools\msvc\14.10.25017\include\xmemory0

; 823  : 		_Deallocate(_Ptr, _Count, sizeof (_Ty));

	push	2
; File c:\program files (x86)\microsoft visual studio\2017\community\vc\tools\msvc\14.10.25017\include\xstring

; 3553 : 			_Al.deallocate(_My_data._Bx._Ptr, _Oldres + 1);

	lea	eax, DWORD PTR [ebx+1]
; File c:\program files (x86)\microsoft visual studio\2017\community\vc\tools\msvc\14.10.25017\include\xmemory0

; 823  : 		_Deallocate(_Ptr, _Count, sizeof (_Ty));

	push	eax
	push	DWORD PTR [esi]
	call	?_Deallocate@std@@YAXPAXII@Z		; std::_Deallocate
	add	esp, 24					; 00000018H
; File c:\program files (x86)\microsoft visual studio\2017\community\vc\tools\msvc\14.10.25017\include\xstring

; 3556 : 		else

	jmp	SHORT $LN101@Copy
$LN10@Copy:
; File c:\program files (x86)\windows kits\10\include\10.0.10240.0\ucrt\wchar.h

; 234  :         return (wchar_t*)memcpy(_S1, _S2, _N*sizeof(wchar_t));

	push	esi
	push	ecx
	call	_memcpy
	add	esp, 12					; 0000000cH
$LN101@Copy:
; File c:\program files (x86)\microsoft visual studio\2017\community\vc\tools\msvc\14.10.25017\include\xmemory0

; 840  : 		::new ((void *)_Ptr) _Objty(_STD forward<_Types>(_Args)...);

	mov	eax, DWORD PTR __Ptr$1$[ebp]
; File c:\program files (x86)\microsoft visual studio\2017\community\vc\tools\msvc\14.10.25017\include\xstring

; 3563 : 		}

	mov	ecx, DWORD PTR __$EHRec$[ebp+4]
; File c:\program files (x86)\microsoft visual studio\2017\community\vc\tools\msvc\14.10.25017\include\xmemory0

; 840  : 		::new ((void *)_Ptr) _Objty(_STD forward<_Types>(_Args)...);

	mov	DWORD PTR [esi], eax
; File c:\program files (x86)\microsoft visual studio\2017\community\vc\tools\msvc\14.10.25017\include\xstring

; 3562 : 		_My_data._Myres = _Newres;

	mov	DWORD PTR [esi+20], edi

; 3563 : 		}

	pop	edi
	pop	esi
	mov	DWORD PTR fs:0, ecx
	pop	ebx
	mov	esp, ebp
	pop	ebp
	ret	4
$LN99@Copy:
_TEXT	ENDS
;	COMDAT text$x
text$x	SEGMENT
__ehhandler$?_Copy@?$basic_string@_WU?$char_traits@_W@std@@V?$allocator@_W@2@@std@@QAEXI@Z:
	mov	eax, OFFSET __ehfuncinfo$?_Copy@?$basic_string@_WU?$char_traits@_W@std@@V?$allocator@_W@2@@std@@QAEXI@Z
	jmp	___CxxFrameHandler3
text$x	ENDS
?_Copy@?$basic_string@_WU?$char_traits@_W@std@@V?$allocator@_W@2@@std@@QAEXI@Z ENDP ; std::basic_string<wchar_t,std::char_traits<wchar_t>,std::allocator<wchar_t> >::_Copy
; Function compile flags: /Ogtp
; File c:\program files (x86)\microsoft visual studio\2017\community\vc\tools\msvc\14.10.25017\include\xstring
; File c:\program files (x86)\microsoft visual studio\2017\community\vc\tools\msvc\14.10.25017\include\utility
; File c:\program files (x86)\microsoft visual studio\2017\community\vc\tools\msvc\14.10.25017\include\xstring
;	COMDAT ?_Clamp_suffix_size@?$basic_string@_WU?$char_traits@_W@std@@V?$allocator@_W@2@@std@@QBEIII@Z
_TEXT	SEGMENT
__Off$ = 8						; size = 4
__Size$ = 12						; size = 4
?_Clamp_suffix_size@?$basic_string@_WU?$char_traits@_W@std@@V?$allocator@_W@2@@std@@QBEIII@Z PROC ; std::basic_string<wchar_t,std::char_traits<wchar_t>,std::allocator<wchar_t> >::_Clamp_suffix_size, COMDAT
; _this$ = ecx

; 3410 : 		{	// trims _Size to the longest it can be assuming a string at/after _Off

	npad	2
	push	ebp
	mov	ebp, esp

; 3411 : 		return (_Min_value(_Size, this->_Mysize() - _Off));

	mov	ecx, DWORD PTR [ecx+16]
	sub	ecx, DWORD PTR __Off$[ebp]
; File c:\program files (x86)\microsoft visual studio\2017\community\vc\tools\msvc\14.10.25017\include\utility

; 23   : 	return (_Right < _Left ? _Right : _Left);

	mov	eax, DWORD PTR __Size$[ebp]
	cmp	ecx, eax
	cmovb	eax, ecx
; File c:\program files (x86)\microsoft visual studio\2017\community\vc\tools\msvc\14.10.25017\include\xstring

; 3412 : 		}

	pop	ebp
	ret	8
?_Clamp_suffix_size@?$basic_string@_WU?$char_traits@_W@std@@V?$allocator@_W@2@@std@@QBEIII@Z ENDP ; std::basic_string<wchar_t,std::char_traits<wchar_t>,std::allocator<wchar_t> >::_Clamp_suffix_size
_TEXT	ENDS
; Function compile flags: /Ogtp
; File c:\program files (x86)\microsoft visual studio\2017\community\vc\tools\msvc\14.10.25017\include\xstring
;	COMDAT ?max_size@?$basic_string@_WU?$char_traits@_W@std@@V?$allocator@_W@2@@std@@QBEIXZ
_TEXT	SEGMENT
?max_size@?$basic_string@_WU?$char_traits@_W@std@@V?$allocator@_W@2@@std@@QBEIXZ PROC ; std::basic_string<wchar_t,std::char_traits<wchar_t>,std::allocator<wchar_t> >::max_size, COMDAT
; _this$ = ecx

; 3030 : 		const size_type _Num = this->_Getal().max_size();
; 3031 : 		return (_Num <= 1 ? 1 : _Num - 1);

	mov	eax, 2147483646				; 7ffffffeH

; 3032 : 		}

	ret	0
?max_size@?$basic_string@_WU?$char_traits@_W@std@@V?$allocator@_W@2@@std@@QBEIXZ ENDP ; std::basic_string<wchar_t,std::char_traits<wchar_t>,std::allocator<wchar_t> >::max_size
_TEXT	ENDS
; Function compile flags: /Ogtp
; File c:\program files (x86)\microsoft visual studio\2017\community\vc\tools\msvc\14.10.25017\include\xstring
;	COMDAT ?c_str@?$basic_string@_WU?$char_traits@_W@std@@V?$allocator@_W@2@@std@@QBEPB_WXZ
_TEXT	SEGMENT
?c_str@?$basic_string@_WU?$char_traits@_W@std@@V?$allocator@_W@2@@std@@QBEPB_WXZ PROC ; std::basic_string<wchar_t,std::char_traits<wchar_t>,std::allocator<wchar_t> >::c_str, COMDAT
; _this$ = ecx

; 1628 : 		return (this->_BUF_SIZE <= _Myres);

	cmp	DWORD PTR [ecx+20], 8

; 1621 : 		return (_Large_string_engaged()

	jb	SHORT $LN13@c_str

; 3003 : 		return (this->_Myptr());

	mov	eax, DWORD PTR [ecx]

; 3004 : 		}

	ret	0
$LN13@c_str:

; 3003 : 		return (this->_Myptr());

	mov	eax, ecx

; 3004 : 		}

	ret	0
?c_str@?$basic_string@_WU?$char_traits@_W@std@@V?$allocator@_W@2@@std@@QBEPB_WXZ ENDP ; std::basic_string<wchar_t,std::char_traits<wchar_t>,std::allocator<wchar_t> >::c_str
_TEXT	ENDS
; Function compile flags: /Ogtp
; File c:\program files (x86)\microsoft visual studio\2017\community\vc\tools\msvc\14.10.25017\include\xstring
; File c:\program files (x86)\microsoft visual studio\2017\community\vc\tools\msvc\14.10.25017\include\xstddef
; File c:\program files (x86)\microsoft visual studio\2017\community\vc\tools\msvc\14.10.25017\include\iosfwd
; File c:\program files (x86)\microsoft visual studio\2017\community\vc\tools\msvc\14.10.25017\include\xstring
; File c:\program files (x86)\microsoft visual studio\2017\community\vc\tools\msvc\14.10.25017\include\iosfwd
; File c:\program files (x86)\microsoft visual studio\2017\community\vc\tools\msvc\14.10.25017\include\xstring
; File c:\program files (x86)\microsoft visual studio\2017\community\vc\tools\msvc\14.10.25017\include\xstddef
; File c:\program files (x86)\microsoft visual studio\2017\community\vc\tools\msvc\14.10.25017\include\xstring
; File c:\program files (x86)\windows kits\10\include\10.0.10240.0\ucrt\wchar.h
; File c:\program files (x86)\microsoft visual studio\2017\community\vc\tools\msvc\14.10.25017\include\xstring
; File c:\program files (x86)\windows kits\10\include\10.0.10240.0\ucrt\wchar.h
; File c:\program files (x86)\microsoft visual studio\2017\community\vc\tools\msvc\14.10.25017\include\xstring
; File c:\program files (x86)\microsoft visual studio\2017\community\vc\tools\msvc\14.10.25017\include\xstddef
; File c:\program files (x86)\microsoft visual studio\2017\community\vc\tools\msvc\14.10.25017\include\iosfwd
; File c:\program files (x86)\microsoft visual studio\2017\community\vc\tools\msvc\14.10.25017\include\xstring
; File c:\program files (x86)\microsoft visual studio\2017\community\vc\tools\msvc\14.10.25017\include\iosfwd
; File c:\program files (x86)\microsoft visual studio\2017\community\vc\tools\msvc\14.10.25017\include\xstring
;	COMDAT ?erase@?$basic_string@_WU?$char_traits@_W@std@@V?$allocator@_W@2@@std@@QAEAAV12@II@Z
_TEXT	SEGMENT
__Off$ = 8						; size = 4
__Count$ = 12						; size = 4
?erase@?$basic_string@_WU?$char_traits@_W@std@@V?$allocator@_W@2@@std@@QAEAAV12@II@Z PROC ; std::basic_string<wchar_t,std::char_traits<wchar_t>,std::allocator<wchar_t> >::erase, COMDAT
; _this$ = ecx

; 2592 : 		{	// erase elements [_Off, _Off + _Count)

	npad	2
	push	ebp
	mov	ebp, esp

; 3630 : 		if (this->_Mysize() < _Off)

	mov	edx, DWORD PTR __Off$[ebp]
	push	ebx
	push	esi

; 2592 : 		{	// erase elements [_Off, _Off + _Count)

	mov	esi, ecx
	push	edi

; 3630 : 		if (this->_Mysize() < _Off)

	mov	edi, DWORD PTR [esi+16]
	cmp	edi, edx
	jb	$LN97@erase

; 2593 : 		_Check_offset(_Off);
; 2594 : 		if (this->_Mysize() - _Off <= _Count)

	mov	ebx, DWORD PTR __Count$[ebp]
	mov	eax, edi
	sub	eax, edx
	cmp	eax, ebx
	ja	SHORT $LN2@erase

; 3568 : 		_Traits::assign(_My_data._Myptr()[_My_data._Mysize = _Newsize], _Elem());

	mov	DWORD PTR [esi+16], edx

; 1628 : 		return (this->_BUF_SIZE <= _Myres);

	cmp	DWORD PTR [esi+20], 8

; 1614 : 		return (_Large_string_engaged()

	jb	SHORT $LN38@erase
; File c:\program files (x86)\microsoft visual studio\2017\community\vc\tools\msvc\14.10.25017\include\xstddef

; 643  : 	return (_Ptr);

	mov	eax, DWORD PTR [esi]
; File c:\program files (x86)\microsoft visual studio\2017\community\vc\tools\msvc\14.10.25017\include\iosfwd

; 326  : 		_Left = _Right;

	xor	ecx, ecx
	pop	edi
	mov	WORD PTR [eax+edx*2], cx
; File c:\program files (x86)\microsoft visual studio\2017\community\vc\tools\msvc\14.10.25017\include\xstring

; 2606 : 		return (*this);

	mov	eax, esi
	pop	esi
	pop	ebx

; 2607 : 		}

	pop	ebp
	ret	8
$LN38@erase:

; 1614 : 		return (_Large_string_engaged()

	mov	eax, esi
; File c:\program files (x86)\microsoft visual studio\2017\community\vc\tools\msvc\14.10.25017\include\iosfwd

; 326  : 		_Left = _Right;

	xor	ecx, ecx
	pop	edi
	pop	esi
	pop	ebx
	mov	WORD PTR [eax+edx*2], cx
; File c:\program files (x86)\microsoft visual studio\2017\community\vc\tools\msvc\14.10.25017\include\xstring

; 2607 : 		}

	pop	ebp
	ret	8
$LN2@erase:

; 2595 : 			{
; 2596 : 			_Eos(_Off);	// erase elements [_Off, ...)
; 2597 : 			}
; 2598 : 		else if (_Count != 0)

	test	ebx, ebx
	je	SHORT $LN94@erase

; 1628 : 		return (this->_BUF_SIZE <= _Myres);

	cmp	DWORD PTR [esi+20], 8

; 1614 : 		return (_Large_string_engaged()

	jb	SHORT $LN57@erase
; File c:\program files (x86)\microsoft visual studio\2017\community\vc\tools\msvc\14.10.25017\include\xstddef

; 643  : 	return (_Ptr);

	mov	eax, DWORD PTR [esi]
; File c:\program files (x86)\microsoft visual studio\2017\community\vc\tools\msvc\14.10.25017\include\xstring

; 1614 : 		return (_Large_string_engaged()

	jmp	SHORT $LN58@erase
$LN57@erase:
	mov	eax, esi
$LN58@erase:

; 2599 : 			{	// move elements down
; 2600 : 			value_type *_Ptr = this->_Myptr() + _Off;

	lea	ecx, DWORD PTR [eax+edx*2]

; 2601 : 			size_type _Newsize = this->_Mysize() - _Count;

	sub	edi, ebx
; File c:\program files (x86)\windows kits\10\include\10.0.10240.0\ucrt\wchar.h

; 247  :         return (wchar_t*)memmove(_S1, _S2, _N*sizeof(wchar_t));

	mov	eax, edi
	sub	eax, edx
	add	eax, eax
	push	eax
; File c:\program files (x86)\microsoft visual studio\2017\community\vc\tools\msvc\14.10.25017\include\xstring

; 2602 : 			_Traits::move(_Ptr, _Ptr + _Count, _Newsize - _Off);

	lea	eax, DWORD PTR [ecx+ebx*2]
; File c:\program files (x86)\windows kits\10\include\10.0.10240.0\ucrt\wchar.h

; 247  :         return (wchar_t*)memmove(_S1, _S2, _N*sizeof(wchar_t));

	push	eax
	push	ecx
	call	DWORD PTR __imp__memmove
	add	esp, 12					; 0000000cH
; File c:\program files (x86)\microsoft visual studio\2017\community\vc\tools\msvc\14.10.25017\include\xstring

; 3568 : 		_Traits::assign(_My_data._Myptr()[_My_data._Mysize = _Newsize], _Elem());

	mov	DWORD PTR [esi+16], edi

; 1628 : 		return (this->_BUF_SIZE <= _Myres);

	cmp	DWORD PTR [esi+20], 8

; 1614 : 		return (_Large_string_engaged()

	jb	SHORT $LN87@erase
; File c:\program files (x86)\microsoft visual studio\2017\community\vc\tools\msvc\14.10.25017\include\xstddef

; 643  : 	return (_Ptr);

	mov	eax, DWORD PTR [esi]
; File c:\program files (x86)\microsoft visual studio\2017\community\vc\tools\msvc\14.10.25017\include\iosfwd

; 326  : 		_Left = _Right;

	xor	ecx, ecx
	mov	WORD PTR [eax+edi*2], cx
; File c:\program files (x86)\microsoft visual studio\2017\community\vc\tools\msvc\14.10.25017\include\xstring

; 2606 : 		return (*this);

	mov	eax, esi
	pop	edi
	pop	esi
	pop	ebx

; 2607 : 		}

	pop	ebp
	ret	8
$LN87@erase:

; 1614 : 		return (_Large_string_engaged()

	mov	eax, esi
; File c:\program files (x86)\microsoft visual studio\2017\community\vc\tools\msvc\14.10.25017\include\iosfwd

; 326  : 		_Left = _Right;

	xor	ecx, ecx
	mov	WORD PTR [eax+edi*2], cx
$LN94@erase:
	pop	edi
; File c:\program files (x86)\microsoft visual studio\2017\community\vc\tools\msvc\14.10.25017\include\xstring

; 2606 : 		return (*this);

	mov	eax, esi
	pop	esi
	pop	ebx

; 2607 : 		}

	pop	ebp
	ret	8
$LN97@erase:

; 3632 : 			_Xran();

	call	?_Xran@?$basic_string@_WU?$char_traits@_W@std@@V?$allocator@_W@2@@std@@SAXXZ ; std::basic_string<wchar_t,std::char_traits<wchar_t>,std::allocator<wchar_t> >::_Xran
$LN99@erase:
$LN96@erase:
	int	3
?erase@?$basic_string@_WU?$char_traits@_W@std@@V?$allocator@_W@2@@std@@QAEAAV12@II@Z ENDP ; std::basic_string<wchar_t,std::char_traits<wchar_t>,std::allocator<wchar_t> >::erase
_TEXT	ENDS
; Function compile flags: /Ogtp
; File c:\program files (x86)\microsoft visual studio\2017\community\vc\tools\msvc\14.10.25017\include\xstring
; File c:\program files (x86)\microsoft visual studio\2017\community\vc\tools\msvc\14.10.25017\include\xstddef
; File c:\program files (x86)\microsoft visual studio\2017\community\vc\tools\msvc\14.10.25017\include\iosfwd
; File c:\program files (x86)\microsoft visual studio\2017\community\vc\tools\msvc\14.10.25017\include\xstring
; File c:\program files (x86)\microsoft visual studio\2017\community\vc\tools\msvc\14.10.25017\include\iosfwd
; File c:\program files (x86)\microsoft visual studio\2017\community\vc\tools\msvc\14.10.25017\include\xstring
;	COMDAT ?erase@?$basic_string@_WU?$char_traits@_W@std@@V?$allocator@_W@2@@std@@QAEAAV12@I@Z
_TEXT	SEGMENT
__Off$ = 8						; size = 4
?erase@?$basic_string@_WU?$char_traits@_W@std@@V?$allocator@_W@2@@std@@QAEAAV12@I@Z PROC ; std::basic_string<wchar_t,std::char_traits<wchar_t>,std::allocator<wchar_t> >::erase, COMDAT
; _this$ = ecx

; 2585 : 		{	// erase elements [_Off, ...)

	npad	2
	push	ebp
	mov	ebp, esp

; 3630 : 		if (this->_Mysize() < _Off)

	mov	eax, DWORD PTR __Off$[ebp]
	cmp	DWORD PTR [ecx+16], eax
	jb	SHORT $LN36@erase

; 3568 : 		_Traits::assign(_My_data._Myptr()[_My_data._Mysize = _Newsize], _Elem());

	mov	DWORD PTR [ecx+16], eax

; 1628 : 		return (this->_BUF_SIZE <= _Myres);

	cmp	DWORD PTR [ecx+20], 8

; 1614 : 		return (_Large_string_engaged()

	jb	SHORT $LN26@erase
; File c:\program files (x86)\microsoft visual studio\2017\community\vc\tools\msvc\14.10.25017\include\xstddef

; 643  : 	return (_Ptr);

	mov	edx, DWORD PTR [ecx]
	push	esi
; File c:\program files (x86)\microsoft visual studio\2017\community\vc\tools\msvc\14.10.25017\include\iosfwd

; 326  : 		_Left = _Right;

	xor	esi, esi
	mov	WORD PTR [edx+eax*2], si
; File c:\program files (x86)\microsoft visual studio\2017\community\vc\tools\msvc\14.10.25017\include\xstring

; 2588 : 		return (*this);

	mov	eax, ecx
	pop	esi

; 2589 : 		}

	pop	ebp
	ret	4
$LN26@erase:

; 1614 : 		return (_Large_string_engaged()

	mov	edx, ecx
	push	esi
; File c:\program files (x86)\microsoft visual studio\2017\community\vc\tools\msvc\14.10.25017\include\iosfwd

; 326  : 		_Left = _Right;

	xor	esi, esi
	mov	WORD PTR [edx+eax*2], si
; File c:\program files (x86)\microsoft visual studio\2017\community\vc\tools\msvc\14.10.25017\include\xstring

; 2588 : 		return (*this);

	mov	eax, ecx
	pop	esi

; 2589 : 		}

	pop	ebp
	ret	4
$LN36@erase:

; 3632 : 			_Xran();

	call	?_Xran@?$basic_string@_WU?$char_traits@_W@std@@V?$allocator@_W@2@@std@@SAXXZ ; std::basic_string<wchar_t,std::char_traits<wchar_t>,std::allocator<wchar_t> >::_Xran
$LN38@erase:
$LN35@erase:
	int	3
?erase@?$basic_string@_WU?$char_traits@_W@std@@V?$allocator@_W@2@@std@@QAEAAV12@I@Z ENDP ; std::basic_string<wchar_t,std::char_traits<wchar_t>,std::allocator<wchar_t> >::erase
_TEXT	ENDS
; Function compile flags: /Ogtp
; File c:\program files (x86)\microsoft visual studio\2017\community\vc\tools\msvc\14.10.25017\include\xstring
; File c:\program files (x86)\microsoft visual studio\2017\community\vc\tools\msvc\14.10.25017\include\iosfwd
; File c:\program files (x86)\microsoft visual studio\2017\community\vc\tools\msvc\14.10.25017\include\xstring
; File c:\program files (x86)\microsoft visual studio\2017\community\vc\tools\msvc\14.10.25017\include\iosfwd
; File c:\program files (x86)\microsoft visual studio\2017\community\vc\tools\msvc\14.10.25017\include\xstring
; File c:\program files (x86)\microsoft visual studio\2017\community\vc\tools\msvc\14.10.25017\include\iosfwd
; File c:\program files (x86)\microsoft visual studio\2017\community\vc\tools\msvc\14.10.25017\include\xstring
;	COMDAT ?assign@?$basic_string@_WU?$char_traits@_W@std@@V?$allocator@_W@2@@std@@QAEAAV12@QB_W@Z
_TEXT	SEGMENT
__Ptr$ = 8						; size = 4
?assign@?$basic_string@_WU?$char_traits@_W@std@@V?$allocator@_W@2@@std@@QAEAAV12@QB_W@Z PROC ; std::basic_string<wchar_t,std::char_traits<wchar_t>,std::allocator<wchar_t> >::assign, COMDAT
; _this$ = ecx

; 2428 : 		{	// assign [_Ptr, <null>)

	npad	2
	push	ebp
	mov	ebp, esp
; File c:\program files (x86)\microsoft visual studio\2017\community\vc\tools\msvc\14.10.25017\include\iosfwd

; 289  : 		return (_CSTD wcslen(_First));

	mov	edx, DWORD PTR __Ptr$[ebp]
	mov	eax, edx
	push	esi
	push	edi
; File c:\program files (x86)\microsoft visual studio\2017\community\vc\tools\msvc\14.10.25017\include\xstring

; 2428 : 		{	// assign [_Ptr, <null>)

	mov	esi, ecx
; File c:\program files (x86)\microsoft visual studio\2017\community\vc\tools\msvc\14.10.25017\include\iosfwd

; 289  : 		return (_CSTD wcslen(_First));

	lea	edi, DWORD PTR [eax+2]
$LL6@assign:
	mov	cx, WORD PTR [eax]
	add	eax, 2
	test	cx, cx
	jne	SHORT $LL6@assign
	sub	eax, edi
; File c:\program files (x86)\microsoft visual studio\2017\community\vc\tools\msvc\14.10.25017\include\xstring

; 2429 : 		return (assign(_Ptr, _Traits::length(_Ptr)));

	mov	ecx, esi
; File c:\program files (x86)\microsoft visual studio\2017\community\vc\tools\msvc\14.10.25017\include\iosfwd

; 289  : 		return (_CSTD wcslen(_First));

	sar	eax, 1
; File c:\program files (x86)\microsoft visual studio\2017\community\vc\tools\msvc\14.10.25017\include\xstring

; 2429 : 		return (assign(_Ptr, _Traits::length(_Ptr)));

	push	eax
	push	edx
	call	?assign@?$basic_string@_WU?$char_traits@_W@std@@V?$allocator@_W@2@@std@@QAEAAV12@QB_WI@Z ; std::basic_string<wchar_t,std::char_traits<wchar_t>,std::allocator<wchar_t> >::assign
	pop	edi
	pop	esi

; 2430 : 		}

	pop	ebp
	ret	4
?assign@?$basic_string@_WU?$char_traits@_W@std@@V?$allocator@_W@2@@std@@QAEAAV12@QB_W@Z ENDP ; std::basic_string<wchar_t,std::char_traits<wchar_t>,std::allocator<wchar_t> >::assign
_TEXT	ENDS
; Function compile flags: /Ogtp
; File c:\program files (x86)\microsoft visual studio\2017\community\vc\tools\msvc\14.10.25017\include\xstring
; File c:\program files (x86)\microsoft visual studio\2017\community\vc\tools\msvc\14.10.25017\include\xstddef
; File c:\program files (x86)\microsoft visual studio\2017\community\vc\tools\msvc\14.10.25017\include\xstring
; File c:\program files (x86)\microsoft visual studio\2017\community\vc\tools\msvc\14.10.25017\include\xstddef
; File c:\program files (x86)\microsoft visual studio\2017\community\vc\tools\msvc\14.10.25017\include\xstring
; File c:\program files (x86)\microsoft visual studio\2017\community\vc\tools\msvc\14.10.25017\include\xstddef
; File c:\program files (x86)\microsoft visual studio\2017\community\vc\tools\msvc\14.10.25017\include\iosfwd
; File c:\program files (x86)\microsoft visual studio\2017\community\vc\tools\msvc\14.10.25017\include\xstring
; File c:\program files (x86)\microsoft visual studio\2017\community\vc\tools\msvc\14.10.25017\include\iosfwd
; File c:\program files (x86)\microsoft visual studio\2017\community\vc\tools\msvc\14.10.25017\include\xstring
; File c:\program files (x86)\microsoft visual studio\2017\community\vc\tools\msvc\14.10.25017\include\xstddef
; File c:\program files (x86)\microsoft visual studio\2017\community\vc\tools\msvc\14.10.25017\include\xstring
; File c:\program files (x86)\windows kits\10\include\10.0.10240.0\ucrt\wchar.h
; File c:\program files (x86)\microsoft visual studio\2017\community\vc\tools\msvc\14.10.25017\include\xstring
; File c:\program files (x86)\microsoft visual studio\2017\community\vc\tools\msvc\14.10.25017\include\xstddef
; File c:\program files (x86)\microsoft visual studio\2017\community\vc\tools\msvc\14.10.25017\include\iosfwd
; File c:\program files (x86)\microsoft visual studio\2017\community\vc\tools\msvc\14.10.25017\include\xstring
; File c:\program files (x86)\microsoft visual studio\2017\community\vc\tools\msvc\14.10.25017\include\iosfwd
; File c:\program files (x86)\microsoft visual studio\2017\community\vc\tools\msvc\14.10.25017\include\xstring
;	COMDAT ?assign@?$basic_string@_WU?$char_traits@_W@std@@V?$allocator@_W@2@@std@@QAEAAV12@QB_WI@Z
_TEXT	SEGMENT
__Ptr$ = 8						; size = 4
__Count$ = 12						; size = 4
?assign@?$basic_string@_WU?$char_traits@_W@std@@V?$allocator@_W@2@@std@@QAEAAV12@QB_WI@Z PROC ; std::basic_string<wchar_t,std::char_traits<wchar_t>,std::allocator<wchar_t> >::assign, COMDAT
; _this$ = ecx

; 2412 : 		{	// assign [_Ptr, _Ptr + _Count)

	npad	2
	push	ebp
	mov	ebp, esp
	push	esi
	mov	esi, ecx
	push	edi

; 1628 : 		return (this->_BUF_SIZE <= _Myres);

	mov	ecx, DWORD PTR [esi+20]
	cmp	ecx, 8

; 1621 : 		return (_Large_string_engaged()

	jb	SHORT $LN17@assign
; File c:\program files (x86)\microsoft visual studio\2017\community\vc\tools\msvc\14.10.25017\include\xstddef

; 643  : 	return (_Ptr);

	mov	edx, DWORD PTR [esi]
; File c:\program files (x86)\microsoft visual studio\2017\community\vc\tools\msvc\14.10.25017\include\xstring

; 1621 : 		return (_Large_string_engaged()

	jmp	SHORT $LN18@assign
$LN17@assign:
	mov	edx, esi
$LN18@assign:

; 3591 : 		return (_My_chars <= _Ptr && _Ptr < _My_chars + _My_data._Mysize);

	mov	edi, DWORD PTR __Ptr$[ebp]
	cmp	edx, edi
	ja	SHORT $LN2@assign
	mov	eax, DWORD PTR [esi+16]
	lea	eax, DWORD PTR [edx+eax*2]
	cmp	edi, eax
	jae	SHORT $LN2@assign

; 1628 : 		return (this->_BUF_SIZE <= _Myres);

	cmp	ecx, 8

; 1614 : 		return (_Large_string_engaged()

	jb	SHORT $LN33@assign
; File c:\program files (x86)\microsoft visual studio\2017\community\vc\tools\msvc\14.10.25017\include\xstddef

; 643  : 	return (_Ptr);

	mov	eax, DWORD PTR [esi]
; File c:\program files (x86)\microsoft visual studio\2017\community\vc\tools\msvc\14.10.25017\include\xstring

; 1614 : 		return (_Large_string_engaged()

	jmp	SHORT $LN34@assign
$LN33@assign:
	mov	eax, esi
$LN34@assign:

; 2413 : 		if (_Inside(_Ptr))
; 2414 : 			{
; 2415 : 			return (assign(*this, _Ptr - this->_Myptr(), _Count));	// substring

	push	DWORD PTR __Count$[ebp]
	sub	edi, eax
	mov	ecx, esi
	sar	edi, 1
	push	edi
	push	esi
	call	?assign@?$basic_string@_WU?$char_traits@_W@std@@V?$allocator@_W@2@@std@@QAEAAV12@ABV12@II@Z ; std::basic_string<wchar_t,std::char_traits<wchar_t>,std::allocator<wchar_t> >::assign
	pop	edi
	pop	esi

; 2425 : 		}

	pop	ebp
	ret	8
$LN2@assign:
	push	ebx

; 3573 : 		if (_Newsize == 0)

	mov	ebx, DWORD PTR __Count$[ebp]
	test	ebx, ebx
	jne	SHORT $LN40@assign

; 3568 : 		_Traits::assign(_My_data._Myptr()[_My_data._Mysize = _Newsize], _Elem());

	mov	DWORD PTR [esi+16], ebx

; 1628 : 		return (this->_BUF_SIZE <= _Myres);

	cmp	ecx, 8

; 1614 : 		return (_Large_string_engaged()

	jb	SHORT $LN53@assign
; File c:\program files (x86)\microsoft visual studio\2017\community\vc\tools\msvc\14.10.25017\include\xstddef

; 643  : 	return (_Ptr);

	mov	eax, DWORD PTR [esi]
; File c:\program files (x86)\microsoft visual studio\2017\community\vc\tools\msvc\14.10.25017\include\iosfwd

; 326  : 		_Left = _Right;

	xor	ecx, ecx
	pop	ebx
	pop	edi
	mov	WORD PTR [eax], cx
; File c:\program files (x86)\microsoft visual studio\2017\community\vc\tools\msvc\14.10.25017\include\xstring

; 2424 : 		return (*this);

	mov	eax, esi
	pop	esi

; 2425 : 		}

	pop	ebp
	ret	8
$LN53@assign:

; 1614 : 		return (_Large_string_engaged()

	mov	eax, esi
; File c:\program files (x86)\microsoft visual studio\2017\community\vc\tools\msvc\14.10.25017\include\iosfwd

; 326  : 		_Left = _Right;

	xor	ecx, ecx
	pop	ebx
	pop	edi
	pop	esi
	mov	WORD PTR [eax], cx
; File c:\program files (x86)\microsoft visual studio\2017\community\vc\tools\msvc\14.10.25017\include\xstring

; 2425 : 		}

	pop	ebp
	ret	8
$LN40@assign:

; 3579 : 		if (this->_Myres() < _Newsize)

	cmp	ecx, ebx
	jae	SHORT $LN41@assign

; 3580 : 			{	// reallocate to grow
; 3581 : 			_Copy(_Newsize);

	push	ebx
	mov	ecx, esi
	call	?_Copy@?$basic_string@_WU?$char_traits@_W@std@@V?$allocator@_W@2@@std@@QAEXI@Z ; std::basic_string<wchar_t,std::char_traits<wchar_t>,std::allocator<wchar_t> >::_Copy
$LN41@assign:

; 1628 : 		return (this->_BUF_SIZE <= _Myres);

	cmp	DWORD PTR [esi+20], 8

; 1614 : 		return (_Large_string_engaged()

	jb	SHORT $LN81@assign
; File c:\program files (x86)\microsoft visual studio\2017\community\vc\tools\msvc\14.10.25017\include\xstddef

; 643  : 	return (_Ptr);

	mov	eax, DWORD PTR [esi]
; File c:\program files (x86)\microsoft visual studio\2017\community\vc\tools\msvc\14.10.25017\include\xstring

; 1614 : 		return (_Large_string_engaged()

	jmp	SHORT $LN82@assign
$LN81@assign:
	mov	eax, esi
$LN82@assign:
; File c:\program files (x86)\windows kits\10\include\10.0.10240.0\ucrt\wchar.h

; 234  :         return (wchar_t*)memcpy(_S1, _S2, _N*sizeof(wchar_t));

	lea	ecx, DWORD PTR [ebx+ebx]
	push	ecx
	push	edi
	push	eax
	call	_memcpy
	add	esp, 12					; 0000000cH
; File c:\program files (x86)\microsoft visual studio\2017\community\vc\tools\msvc\14.10.25017\include\xstring

; 3568 : 		_Traits::assign(_My_data._Myptr()[_My_data._Mysize = _Newsize], _Elem());

	mov	DWORD PTR [esi+16], ebx

; 1628 : 		return (this->_BUF_SIZE <= _Myres);

	cmp	DWORD PTR [esi+20], 8

; 1614 : 		return (_Large_string_engaged()

	jb	SHORT $LN102@assign
; File c:\program files (x86)\microsoft visual studio\2017\community\vc\tools\msvc\14.10.25017\include\xstddef

; 643  : 	return (_Ptr);

	mov	eax, DWORD PTR [esi]
; File c:\program files (x86)\microsoft visual studio\2017\community\vc\tools\msvc\14.10.25017\include\iosfwd

; 326  : 		_Left = _Right;

	xor	ecx, ecx
	mov	WORD PTR [eax+ebx*2], cx
; File c:\program files (x86)\microsoft visual studio\2017\community\vc\tools\msvc\14.10.25017\include\xstring

; 2424 : 		return (*this);

	mov	eax, esi
	pop	ebx
	pop	edi
	pop	esi

; 2425 : 		}

	pop	ebp
	ret	8
$LN102@assign:

; 1614 : 		return (_Large_string_engaged()

	mov	eax, esi
; File c:\program files (x86)\microsoft visual studio\2017\community\vc\tools\msvc\14.10.25017\include\iosfwd

; 326  : 		_Left = _Right;

	xor	ecx, ecx
	mov	WORD PTR [eax+ebx*2], cx
	pop	ebx
	pop	edi
	pop	esi
; File c:\program files (x86)\microsoft visual studio\2017\community\vc\tools\msvc\14.10.25017\include\xstring

; 2425 : 		}

	pop	ebp
	ret	8
?assign@?$basic_string@_WU?$char_traits@_W@std@@V?$allocator@_W@2@@std@@QAEAAV12@QB_WI@Z ENDP ; std::basic_string<wchar_t,std::char_traits<wchar_t>,std::allocator<wchar_t> >::assign
_TEXT	ENDS
; Function compile flags: /Ogtp
; File c:\program files (x86)\microsoft visual studio\2017\community\vc\tools\msvc\14.10.25017\include\xstring
; File c:\program files (x86)\microsoft visual studio\2017\community\vc\tools\msvc\14.10.25017\include\utility
; File c:\program files (x86)\microsoft visual studio\2017\community\vc\tools\msvc\14.10.25017\include\xstring
; File c:\program files (x86)\microsoft visual studio\2017\community\vc\tools\msvc\14.10.25017\include\utility
; File c:\program files (x86)\microsoft visual studio\2017\community\vc\tools\msvc\14.10.25017\include\xstring
; File c:\program files (x86)\microsoft visual studio\2017\community\vc\tools\msvc\14.10.25017\include\xstddef
; File c:\program files (x86)\microsoft visual studio\2017\community\vc\tools\msvc\14.10.25017\include\xstring
; File c:\program files (x86)\microsoft visual studio\2017\community\vc\tools\msvc\14.10.25017\include\iosfwd
; File c:\program files (x86)\microsoft visual studio\2017\community\vc\tools\msvc\14.10.25017\include\xstring
; File c:\program files (x86)\microsoft visual studio\2017\community\vc\tools\msvc\14.10.25017\include\iosfwd
; File c:\program files (x86)\microsoft visual studio\2017\community\vc\tools\msvc\14.10.25017\include\xstring
; File c:\program files (x86)\microsoft visual studio\2017\community\vc\tools\msvc\14.10.25017\include\xstddef
; File c:\program files (x86)\microsoft visual studio\2017\community\vc\tools\msvc\14.10.25017\include\iosfwd
; File c:\program files (x86)\microsoft visual studio\2017\community\vc\tools\msvc\14.10.25017\include\xstring
; File c:\program files (x86)\microsoft visual studio\2017\community\vc\tools\msvc\14.10.25017\include\iosfwd
; File c:\program files (x86)\microsoft visual studio\2017\community\vc\tools\msvc\14.10.25017\include\xstring
; File c:\program files (x86)\microsoft visual studio\2017\community\vc\tools\msvc\14.10.25017\include\xstddef
; File c:\program files (x86)\microsoft visual studio\2017\community\vc\tools\msvc\14.10.25017\include\xstring
; File c:\program files (x86)\microsoft visual studio\2017\community\vc\tools\msvc\14.10.25017\include\xstddef
; File c:\program files (x86)\microsoft visual studio\2017\community\vc\tools\msvc\14.10.25017\include\xstring
; File c:\program files (x86)\windows kits\10\include\10.0.10240.0\ucrt\wchar.h
; File c:\program files (x86)\microsoft visual studio\2017\community\vc\tools\msvc\14.10.25017\include\xstring
; File c:\program files (x86)\windows kits\10\include\10.0.10240.0\ucrt\wchar.h
; File c:\program files (x86)\microsoft visual studio\2017\community\vc\tools\msvc\14.10.25017\include\xstring
; File c:\program files (x86)\microsoft visual studio\2017\community\vc\tools\msvc\14.10.25017\include\xstddef
; File c:\program files (x86)\microsoft visual studio\2017\community\vc\tools\msvc\14.10.25017\include\iosfwd
; File c:\program files (x86)\microsoft visual studio\2017\community\vc\tools\msvc\14.10.25017\include\xstring
; File c:\program files (x86)\microsoft visual studio\2017\community\vc\tools\msvc\14.10.25017\include\iosfwd
; File c:\program files (x86)\microsoft visual studio\2017\community\vc\tools\msvc\14.10.25017\include\xstring
;	COMDAT ?assign@?$basic_string@_WU?$char_traits@_W@std@@V?$allocator@_W@2@@std@@QAEAAV12@ABV12@II@Z
_TEXT	SEGMENT
__Right$ = 8						; size = 4
__Roff$ = 12						; size = 4
__Count$ = 16						; size = 4
?assign@?$basic_string@_WU?$char_traits@_W@std@@V?$allocator@_W@2@@std@@QAEAAV12@ABV12@II@Z PROC ; std::basic_string<wchar_t,std::char_traits<wchar_t>,std::allocator<wchar_t> >::assign, COMDAT
; _this$ = ecx

; 2378 : 		{	// assign _Right [_Roff, _Roff + _Count)

	npad	2
	push	ebp
	mov	ebp, esp
	push	ebx

; 3630 : 		if (this->_Mysize() < _Off)

	mov	ebx, DWORD PTR __Right$[ebp]
	push	esi

; 2378 : 		{	// assign _Right [_Roff, _Roff + _Count)

	mov	esi, ecx

; 3630 : 		if (this->_Mysize() < _Off)

	mov	ecx, DWORD PTR __Roff$[ebp]
	push	edi
	mov	eax, DWORD PTR [ebx+16]
	cmp	eax, ecx
	jb	$LN161@assign
; File c:\program files (x86)\microsoft visual studio\2017\community\vc\tools\msvc\14.10.25017\include\utility

; 23   : 	return (_Right < _Left ? _Right : _Left);

	mov	edi, DWORD PTR __Count$[ebp]
; File c:\program files (x86)\microsoft visual studio\2017\community\vc\tools\msvc\14.10.25017\include\xstring

; 3411 : 		return (_Min_value(_Size, this->_Mysize() - _Off));

	sub	eax, ecx
; File c:\program files (x86)\microsoft visual studio\2017\community\vc\tools\msvc\14.10.25017\include\utility

; 23   : 	return (_Right < _Left ? _Right : _Left);

	cmp	eax, edi
	cmovb	edi, eax
; File c:\program files (x86)\microsoft visual studio\2017\community\vc\tools\msvc\14.10.25017\include\xstring

; 2382 : 		if (this == _STD addressof(_Right))

	cmp	esi, ebx
	jne	SHORT $LN2@assign

; 2383 : 			{	// substring
; 2384 : 			erase(_Roff + _Count);

	lea	eax, DWORD PTR [ecx+edi]

; 3630 : 		if (this->_Mysize() < _Off)

	cmp	DWORD PTR [esi+16], eax
	jb	$LN163@assign

; 3568 : 		_Traits::assign(_My_data._Myptr()[_My_data._Mysize = _Newsize], _Elem());

	mov	DWORD PTR [esi+16], eax

; 1628 : 		return (this->_BUF_SIZE <= _Myres);

	cmp	DWORD PTR [esi+20], 8

; 1614 : 		return (_Large_string_engaged()

	jb	SHORT $LN62@assign
; File c:\program files (x86)\microsoft visual studio\2017\community\vc\tools\msvc\14.10.25017\include\xstddef

; 643  : 	return (_Ptr);

	mov	edx, DWORD PTR [esi]
; File c:\program files (x86)\microsoft visual studio\2017\community\vc\tools\msvc\14.10.25017\include\xstring

; 1614 : 		return (_Large_string_engaged()

	jmp	SHORT $LN63@assign
$LN62@assign:
	mov	edx, esi
$LN63@assign:
; File c:\program files (x86)\microsoft visual studio\2017\community\vc\tools\msvc\14.10.25017\include\iosfwd

; 326  : 		_Left = _Right;

	xor	edi, edi
; File c:\program files (x86)\microsoft visual studio\2017\community\vc\tools\msvc\14.10.25017\include\xstring

; 2385 : 			erase(0, _Roff);

	push	ecx
	push	edi
	mov	ecx, esi
; File c:\program files (x86)\microsoft visual studio\2017\community\vc\tools\msvc\14.10.25017\include\iosfwd

; 326  : 		_Left = _Right;

	mov	WORD PTR [edx+eax*2], di
; File c:\program files (x86)\microsoft visual studio\2017\community\vc\tools\msvc\14.10.25017\include\xstring

; 2385 : 			erase(0, _Roff);

	call	?erase@?$basic_string@_WU?$char_traits@_W@std@@V?$allocator@_W@2@@std@@QAEAAV12@II@Z ; std::basic_string<wchar_t,std::char_traits<wchar_t>,std::allocator<wchar_t> >::erase
	pop	edi

; 2393 : 		return (*this);

	mov	eax, esi
	pop	esi
	pop	ebx

; 2394 : 		}

	pop	ebp
	ret	12					; 0000000cH
$LN2@assign:

; 3573 : 		if (_Newsize == 0)

	test	edi, edi
	jne	SHORT $LN72@assign

; 1628 : 		return (this->_BUF_SIZE <= _Myres);

	cmp	DWORD PTR [esi+20], 8

; 3568 : 		_Traits::assign(_My_data._Myptr()[_My_data._Mysize = _Newsize], _Elem());

	mov	DWORD PTR [esi+16], edi

; 1614 : 		return (_Large_string_engaged()

	jb	SHORT $LN85@assign
; File c:\program files (x86)\microsoft visual studio\2017\community\vc\tools\msvc\14.10.25017\include\xstddef

; 643  : 	return (_Ptr);

	mov	eax, DWORD PTR [esi]
; File c:\program files (x86)\microsoft visual studio\2017\community\vc\tools\msvc\14.10.25017\include\iosfwd

; 326  : 		_Left = _Right;

	xor	ecx, ecx
	pop	edi
	mov	WORD PTR [eax], cx
; File c:\program files (x86)\microsoft visual studio\2017\community\vc\tools\msvc\14.10.25017\include\xstring

; 2393 : 		return (*this);

	mov	eax, esi
	pop	esi
	pop	ebx

; 2394 : 		}

	pop	ebp
	ret	12					; 0000000cH
$LN85@assign:

; 1614 : 		return (_Large_string_engaged()

	mov	eax, esi
; File c:\program files (x86)\microsoft visual studio\2017\community\vc\tools\msvc\14.10.25017\include\iosfwd

; 326  : 		_Left = _Right;

	xor	ecx, ecx
	pop	edi
	pop	esi
	pop	ebx
	mov	WORD PTR [eax], cx
; File c:\program files (x86)\microsoft visual studio\2017\community\vc\tools\msvc\14.10.25017\include\xstring

; 2394 : 		}

	pop	ebp
	ret	12					; 0000000cH
$LN72@assign:

; 3579 : 		if (this->_Myres() < _Newsize)

	cmp	DWORD PTR [esi+20], edi
	jae	SHORT $LN73@assign

; 3580 : 			{	// reallocate to grow
; 3581 : 			_Copy(_Newsize);

	push	edi
	mov	ecx, esi
	call	?_Copy@?$basic_string@_WU?$char_traits@_W@std@@V?$allocator@_W@2@@std@@QAEXI@Z ; std::basic_string<wchar_t,std::char_traits<wchar_t>,std::allocator<wchar_t> >::_Copy
	mov	ecx, DWORD PTR __Roff$[ebp]
$LN73@assign:

; 1628 : 		return (this->_BUF_SIZE <= _Myres);

	cmp	DWORD PTR [ebx+20], 8

; 1621 : 		return (_Large_string_engaged()

	jb	SHORT $LN113@assign
; File c:\program files (x86)\microsoft visual studio\2017\community\vc\tools\msvc\14.10.25017\include\xstddef

; 643  : 	return (_Ptr);

	mov	ebx, DWORD PTR [ebx]
$LN113@assign:
; File c:\program files (x86)\microsoft visual studio\2017\community\vc\tools\msvc\14.10.25017\include\xstring

; 1628 : 		return (this->_BUF_SIZE <= _Myres);

	cmp	DWORD PTR [esi+20], 8

; 1614 : 		return (_Large_string_engaged()

	jb	SHORT $LN129@assign
; File c:\program files (x86)\microsoft visual studio\2017\community\vc\tools\msvc\14.10.25017\include\xstddef

; 643  : 	return (_Ptr);

	mov	edx, DWORD PTR [esi]
; File c:\program files (x86)\microsoft visual studio\2017\community\vc\tools\msvc\14.10.25017\include\xstring

; 1614 : 		return (_Large_string_engaged()

	jmp	SHORT $LN130@assign
$LN129@assign:
	mov	edx, esi
$LN130@assign:
; File c:\program files (x86)\windows kits\10\include\10.0.10240.0\ucrt\wchar.h

; 234  :         return (wchar_t*)memcpy(_S1, _S2, _N*sizeof(wchar_t));

	lea	eax, DWORD PTR [edi+edi]
	push	eax
; File c:\program files (x86)\microsoft visual studio\2017\community\vc\tools\msvc\14.10.25017\include\xstring

; 2389 : 			_Traits::copy(this->_Myptr(), _Right._Myptr() + _Roff, _Count);

	lea	eax, DWORD PTR [ebx+ecx*2]
; File c:\program files (x86)\windows kits\10\include\10.0.10240.0\ucrt\wchar.h

; 234  :         return (wchar_t*)memcpy(_S1, _S2, _N*sizeof(wchar_t));

	push	eax
	push	edx
	call	_memcpy
	add	esp, 12					; 0000000cH
; File c:\program files (x86)\microsoft visual studio\2017\community\vc\tools\msvc\14.10.25017\include\xstring

; 3568 : 		_Traits::assign(_My_data._Myptr()[_My_data._Mysize = _Newsize], _Elem());

	mov	DWORD PTR [esi+16], edi

; 1628 : 		return (this->_BUF_SIZE <= _Myres);

	cmp	DWORD PTR [esi+20], 8

; 1614 : 		return (_Large_string_engaged()

	jb	SHORT $LN150@assign
; File c:\program files (x86)\microsoft visual studio\2017\community\vc\tools\msvc\14.10.25017\include\xstddef

; 643  : 	return (_Ptr);

	mov	eax, DWORD PTR [esi]
; File c:\program files (x86)\microsoft visual studio\2017\community\vc\tools\msvc\14.10.25017\include\iosfwd

; 326  : 		_Left = _Right;

	xor	ecx, ecx
	mov	WORD PTR [eax+edi*2], cx
; File c:\program files (x86)\microsoft visual studio\2017\community\vc\tools\msvc\14.10.25017\include\xstring

; 2393 : 		return (*this);

	mov	eax, esi
	pop	edi
	pop	esi
	pop	ebx

; 2394 : 		}

	pop	ebp
	ret	12					; 0000000cH
$LN150@assign:

; 1614 : 		return (_Large_string_engaged()

	mov	eax, esi
; File c:\program files (x86)\microsoft visual studio\2017\community\vc\tools\msvc\14.10.25017\include\iosfwd

; 326  : 		_Left = _Right;

	xor	ecx, ecx
	mov	WORD PTR [eax+edi*2], cx
	pop	edi
	pop	esi
	pop	ebx
; File c:\program files (x86)\microsoft visual studio\2017\community\vc\tools\msvc\14.10.25017\include\xstring

; 2394 : 		}

	pop	ebp
	ret	12					; 0000000cH
$LN161@assign:

; 3632 : 			_Xran();

	call	?_Xran@?$basic_string@_WU?$char_traits@_W@std@@V?$allocator@_W@2@@std@@SAXXZ ; std::basic_string<wchar_t,std::char_traits<wchar_t>,std::allocator<wchar_t> >::_Xran
$LN164@assign:
$LN163@assign:
	call	?_Xran@?$basic_string@_WU?$char_traits@_W@std@@V?$allocator@_W@2@@std@@SAXXZ ; std::basic_string<wchar_t,std::char_traits<wchar_t>,std::allocator<wchar_t> >::_Xran
$LN165@assign:
$LN160@assign:
	int	3
?assign@?$basic_string@_WU?$char_traits@_W@std@@V?$allocator@_W@2@@std@@QAEAAV12@ABV12@II@Z ENDP ; std::basic_string<wchar_t,std::char_traits<wchar_t>,std::allocator<wchar_t> >::assign
_TEXT	ENDS
; Function compile flags: /Ogtp
; File c:\program files (x86)\microsoft visual studio\2017\community\vc\tools\msvc\14.10.25017\include\xstring
; File c:\program files (x86)\microsoft visual studio\2017\community\vc\tools\msvc\14.10.25017\include\xmemory0
; File c:\program files (x86)\microsoft visual studio\2017\community\vc\tools\msvc\14.10.25017\include\xstring
; File c:\program files (x86)\microsoft visual studio\2017\community\vc\tools\msvc\14.10.25017\include\xmemory0
; File c:\program files (x86)\microsoft visual studio\2017\community\vc\tools\msvc\14.10.25017\include\xstring
; File c:\program files (x86)\microsoft visual studio\2017\community\vc\tools\msvc\14.10.25017\include\iosfwd
; File c:\program files (x86)\microsoft visual studio\2017\community\vc\tools\msvc\14.10.25017\include\xstring
; File c:\program files (x86)\microsoft visual studio\2017\community\vc\tools\msvc\14.10.25017\include\iosfwd
; File c:\program files (x86)\microsoft visual studio\2017\community\vc\tools\msvc\14.10.25017\include\xstring
;	COMDAT ??1?$basic_string@_WU?$char_traits@_W@std@@V?$allocator@_W@2@@std@@QAE@XZ
_TEXT	SEGMENT
??1?$basic_string@_WU?$char_traits@_W@std@@V?$allocator@_W@2@@std@@QAE@XZ PROC ; std::basic_string<wchar_t,std::char_traits<wchar_t>,std::allocator<wchar_t> >::~basic_string<wchar_t,std::char_traits<wchar_t>,std::allocator<wchar_t> >, COMDAT
; _this$ = ecx

; 2215 : 		{	// destroy the string

	npad	2
	push	esi
	mov	esi, ecx

; 1628 : 		return (this->_BUF_SIZE <= _Myres);

	mov	eax, DWORD PTR [esi+20]
	cmp	eax, 8

; 3608 : 		if (_My_data._Large_string_engaged())

	jb	SHORT $LN4@basic_stri
; File c:\program files (x86)\microsoft visual studio\2017\community\vc\tools\msvc\14.10.25017\include\xmemory0

; 823  : 		_Deallocate(_Ptr, _Count, sizeof (_Ty));

	push	2
; File c:\program files (x86)\microsoft visual studio\2017\community\vc\tools\msvc\14.10.25017\include\xstring

; 3613 : 			_Al.deallocate(_Ptr, _My_data._Myres + 1);

	inc	eax
; File c:\program files (x86)\microsoft visual studio\2017\community\vc\tools\msvc\14.10.25017\include\xmemory0

; 823  : 		_Deallocate(_Ptr, _Count, sizeof (_Ty));

	push	eax
	push	DWORD PTR [esi]
	call	?_Deallocate@std@@YAXPAXII@Z		; std::_Deallocate
	add	esp, 12					; 0000000cH
$LN4@basic_stri:
; File c:\program files (x86)\microsoft visual studio\2017\community\vc\tools\msvc\14.10.25017\include\xstring

; 3616 : 		_My_data._Mysize = 0;

	mov	DWORD PTR [esi+16], 0
; File c:\program files (x86)\microsoft visual studio\2017\community\vc\tools\msvc\14.10.25017\include\iosfwd

; 326  : 		_Left = _Right;

	xor	eax, eax
; File c:\program files (x86)\microsoft visual studio\2017\community\vc\tools\msvc\14.10.25017\include\xstring

; 3617 : 		_My_data._Myres = this->_BUF_SIZE - 1;

	mov	DWORD PTR [esi+20], 7
; File c:\program files (x86)\microsoft visual studio\2017\community\vc\tools\msvc\14.10.25017\include\iosfwd

; 326  : 		_Left = _Right;

	mov	WORD PTR [esi], ax
	pop	esi
; File c:\program files (x86)\microsoft visual studio\2017\community\vc\tools\msvc\14.10.25017\include\xstring

; 2217 : 		}

	ret	0
??1?$basic_string@_WU?$char_traits@_W@std@@V?$allocator@_W@2@@std@@QAE@XZ ENDP ; std::basic_string<wchar_t,std::char_traits<wchar_t>,std::allocator<wchar_t> >::~basic_string<wchar_t,std::char_traits<wchar_t>,std::allocator<wchar_t> >
_TEXT	ENDS
; Function compile flags: /Ogtp
; File c:\program files (x86)\microsoft visual studio\2017\community\vc\tools\msvc\14.10.25017\include\xstring
; File c:\program files (x86)\microsoft visual studio\2017\community\vc\tools\msvc\14.10.25017\include\iosfwd
; File c:\program files (x86)\microsoft visual studio\2017\community\vc\tools\msvc\14.10.25017\include\xstring
; File c:\program files (x86)\microsoft visual studio\2017\community\vc\tools\msvc\14.10.25017\include\iosfwd
; File c:\program files (x86)\microsoft visual studio\2017\community\vc\tools\msvc\14.10.25017\include\xstring
; File c:\program files (x86)\microsoft visual studio\2017\community\vc\tools\msvc\14.10.25017\include\iosfwd
; File c:\program files (x86)\microsoft visual studio\2017\community\vc\tools\msvc\14.10.25017\include\xstring
;	COMDAT ??0?$basic_string@_WU?$char_traits@_W@std@@V?$allocator@_W@2@@std@@QAE@QB_W@Z
_TEXT	SEGMENT
__Ptr$ = 8						; size = 4
??0?$basic_string@_WU?$char_traits@_W@std@@V?$allocator@_W@2@@std@@QAE@QB_W@Z PROC ; std::basic_string<wchar_t,std::char_traits<wchar_t>,std::allocator<wchar_t> >::basic_string<wchar_t,std::char_traits<wchar_t>,std::allocator<wchar_t> >, COMDAT
; _this$ = ecx

; 1980 : 		{	// construct from [_Ptr, <null>)

	npad	2
	push	ebp
	mov	ebp, esp
; File c:\program files (x86)\microsoft visual studio\2017\community\vc\tools\msvc\14.10.25017\include\iosfwd

; 289  : 		return (_CSTD wcslen(_First));

	mov	edx, DWORD PTR __Ptr$[ebp]

; 326  : 		_Left = _Right;

	xor	eax, eax
	push	esi
; File c:\program files (x86)\microsoft visual studio\2017\community\vc\tools\msvc\14.10.25017\include\xstring

; 1980 : 		{	// construct from [_Ptr, <null>)

	mov	esi, ecx
	push	edi

; 3597 : 		_My_data._Mysize = 0;

	mov	DWORD PTR [esi+16], 0

; 3598 : 		_My_data._Myres = this->_BUF_SIZE - 1;

	mov	DWORD PTR [esi+20], 7
; File c:\program files (x86)\microsoft visual studio\2017\community\vc\tools\msvc\14.10.25017\include\iosfwd

; 326  : 		_Left = _Right;

	mov	WORD PTR [esi], ax

; 289  : 		return (_CSTD wcslen(_First));

	mov	eax, edx
	lea	edi, DWORD PTR [eax+2]
$LL25@basic_stri:
	mov	cx, WORD PTR [eax]
	add	eax, 2
	test	cx, cx
	jne	SHORT $LL25@basic_stri
	sub	eax, edi
; File c:\program files (x86)\microsoft visual studio\2017\community\vc\tools\msvc\14.10.25017\include\xstring

; 2429 : 		return (assign(_Ptr, _Traits::length(_Ptr)));

	mov	ecx, esi
; File c:\program files (x86)\microsoft visual studio\2017\community\vc\tools\msvc\14.10.25017\include\iosfwd

; 289  : 		return (_CSTD wcslen(_First));

	sar	eax, 1
; File c:\program files (x86)\microsoft visual studio\2017\community\vc\tools\msvc\14.10.25017\include\xstring

; 2429 : 		return (assign(_Ptr, _Traits::length(_Ptr)));

	push	eax
	push	edx
	call	?assign@?$basic_string@_WU?$char_traits@_W@std@@V?$allocator@_W@2@@std@@QAEAAV12@QB_WI@Z ; std::basic_string<wchar_t,std::char_traits<wchar_t>,std::allocator<wchar_t> >::assign
	pop	edi

; 1981 : 		_Tidy_init();
; 1982 : 		assign(_Ptr);
; 1983 : 		}

	mov	eax, esi
	pop	esi
	pop	ebp
	ret	4
??0?$basic_string@_WU?$char_traits@_W@std@@V?$allocator@_W@2@@std@@QAE@QB_W@Z ENDP ; std::basic_string<wchar_t,std::char_traits<wchar_t>,std::allocator<wchar_t> >::basic_string<wchar_t,std::char_traits<wchar_t>,std::allocator<wchar_t> >
_TEXT	ENDS
; Function compile flags: /Ogtp
;	COMDAT ??1?$_String_alloc@U?$_String_base_types@_WV?$allocator@_W@std@@@std@@@std@@QAE@XZ
_TEXT	SEGMENT
??1?$_String_alloc@U?$_String_base_types@_WV?$allocator@_W@std@@@std@@@std@@QAE@XZ PROC ; std::_String_alloc<std::_String_base_types<wchar_t,std::allocator<wchar_t> > >::~_String_alloc<std::_String_base_types<wchar_t,std::allocator<wchar_t> > >, COMDAT
; _this$ = ecx
	ret	0
??1?$_String_alloc@U?$_String_base_types@_WV?$allocator@_W@std@@@std@@@std@@QAE@XZ ENDP ; std::_String_alloc<std::_String_base_types<wchar_t,std::allocator<wchar_t> > >::~_String_alloc<std::_String_base_types<wchar_t,std::allocator<wchar_t> > >
_TEXT	ENDS
; Function compile flags: /Ogtp
;	COMDAT ??1?$_Compressed_pair@U?$_Wrap_alloc@V?$allocator@_W@std@@@std@@V?$_String_val@U?$_Simple_types@_W@std@@@2@$00@std@@QAE@XZ
_TEXT	SEGMENT
??1?$_Compressed_pair@U?$_Wrap_alloc@V?$allocator@_W@std@@@std@@V?$_String_val@U?$_Simple_types@_W@std@@@2@$00@std@@QAE@XZ PROC ; std::_Compressed_pair<std::_Wrap_alloc<std::allocator<wchar_t> >,std::_String_val<std::_Simple_types<wchar_t> >,1>::~_Compressed_pair<std::_Wrap_alloc<std::allocator<wchar_t> >,std::_String_val<std::_Simple_types<wchar_t> >,1>, COMDAT
; _this$ = ecx
	ret	0
??1?$_Compressed_pair@U?$_Wrap_alloc@V?$allocator@_W@std@@@std@@V?$_String_val@U?$_Simple_types@_W@std@@@2@$00@std@@QAE@XZ ENDP ; std::_Compressed_pair<std::_Wrap_alloc<std::allocator<wchar_t> >,std::_String_val<std::_Simple_types<wchar_t> >,1>::~_Compressed_pair<std::_Wrap_alloc<std::allocator<wchar_t> >,std::_String_val<std::_Simple_types<wchar_t> >,1>
_TEXT	ENDS
; Function compile flags: /Ogtp
; File c:\program files (x86)\microsoft visual studio\2017\community\vc\tools\msvc\14.10.25017\include\xutility
;	COMDAT ?_Get_second@?$_Compressed_pair@U?$_Wrap_alloc@V?$allocator@_W@std@@@std@@V?$_String_val@U?$_Simple_types@_W@std@@@2@$00@std@@QBEABV?$_String_val@U?$_Simple_types@_W@std@@@2@XZ
_TEXT	SEGMENT
?_Get_second@?$_Compressed_pair@U?$_Wrap_alloc@V?$allocator@_W@std@@@std@@V?$_String_val@U?$_Simple_types@_W@std@@@2@$00@std@@QBEABV?$_String_val@U?$_Simple_types@_W@std@@@2@XZ PROC ; std::_Compressed_pair<std::_Wrap_alloc<std::allocator<wchar_t> >,std::_String_val<std::_Simple_types<wchar_t> >,1>::_Get_second, COMDAT
; _this$ = ecx

; 343  : 		return (_Myval2);

	mov	eax, ecx

; 344  : 		}

	ret	0
?_Get_second@?$_Compressed_pair@U?$_Wrap_alloc@V?$allocator@_W@std@@@std@@V?$_String_val@U?$_Simple_types@_W@std@@@2@$00@std@@QBEABV?$_String_val@U?$_Simple_types@_W@std@@@2@XZ ENDP ; std::_Compressed_pair<std::_Wrap_alloc<std::allocator<wchar_t> >,std::_String_val<std::_Simple_types<wchar_t> >,1>::_Get_second
_TEXT	ENDS
; Function compile flags: /Ogtp
; File c:\program files (x86)\microsoft visual studio\2017\community\vc\tools\msvc\14.10.25017\include\xutility
;	COMDAT ?_Get_second@?$_Compressed_pair@U?$_Wrap_alloc@V?$allocator@_W@std@@@std@@V?$_String_val@U?$_Simple_types@_W@std@@@2@$00@std@@QAEAAV?$_String_val@U?$_Simple_types@_W@std@@@2@XZ
_TEXT	SEGMENT
?_Get_second@?$_Compressed_pair@U?$_Wrap_alloc@V?$allocator@_W@std@@@std@@V?$_String_val@U?$_Simple_types@_W@std@@@2@$00@std@@QAEAAV?$_String_val@U?$_Simple_types@_W@std@@@2@XZ PROC ; std::_Compressed_pair<std::_Wrap_alloc<std::allocator<wchar_t> >,std::_String_val<std::_Simple_types<wchar_t> >,1>::_Get_second, COMDAT
; _this$ = ecx

; 338  : 		return (_Myval2);

	mov	eax, ecx

; 339  : 		}

	ret	0
?_Get_second@?$_Compressed_pair@U?$_Wrap_alloc@V?$allocator@_W@std@@@std@@V?$_String_val@U?$_Simple_types@_W@std@@@2@$00@std@@QAEAAV?$_String_val@U?$_Simple_types@_W@std@@@2@XZ ENDP ; std::_Compressed_pair<std::_Wrap_alloc<std::allocator<wchar_t> >,std::_String_val<std::_Simple_types<wchar_t> >,1>::_Get_second
_TEXT	ENDS
; Function compile flags: /Ogtp
; File c:\program files (x86)\microsoft visual studio\2017\community\vc\tools\msvc\14.10.25017\include\xutility
;	COMDAT ?_Get_first@?$_Compressed_pair@U?$_Wrap_alloc@V?$allocator@_W@std@@@std@@V?$_String_val@U?$_Simple_types@_W@std@@@2@$00@std@@QBEABU?$_Wrap_alloc@V?$allocator@_W@std@@@2@XZ
_TEXT	SEGMENT
?_Get_first@?$_Compressed_pair@U?$_Wrap_alloc@V?$allocator@_W@std@@@std@@V?$_String_val@U?$_Simple_types@_W@std@@@2@$00@std@@QBEABU?$_Wrap_alloc@V?$allocator@_W@std@@@2@XZ PROC ; std::_Compressed_pair<std::_Wrap_alloc<std::allocator<wchar_t> >,std::_String_val<std::_Simple_types<wchar_t> >,1>::_Get_first, COMDAT
; _this$ = ecx

; 323  : 		return (*this);

	mov	eax, ecx

; 324  : 		}

	ret	0
?_Get_first@?$_Compressed_pair@U?$_Wrap_alloc@V?$allocator@_W@std@@@std@@V?$_String_val@U?$_Simple_types@_W@std@@@2@$00@std@@QBEABU?$_Wrap_alloc@V?$allocator@_W@std@@@2@XZ ENDP ; std::_Compressed_pair<std::_Wrap_alloc<std::allocator<wchar_t> >,std::_String_val<std::_Simple_types<wchar_t> >,1>::_Get_first
_TEXT	ENDS
; Function compile flags: /Ogtp
; File c:\program files (x86)\microsoft visual studio\2017\community\vc\tools\msvc\14.10.25017\include\xutility
;	COMDAT ?_Get_first@?$_Compressed_pair@U?$_Wrap_alloc@V?$allocator@_W@std@@@std@@V?$_String_val@U?$_Simple_types@_W@std@@@2@$00@std@@QAEAAU?$_Wrap_alloc@V?$allocator@_W@std@@@2@XZ
_TEXT	SEGMENT
?_Get_first@?$_Compressed_pair@U?$_Wrap_alloc@V?$allocator@_W@std@@@std@@V?$_String_val@U?$_Simple_types@_W@std@@@2@$00@std@@QAEAAU?$_Wrap_alloc@V?$allocator@_W@std@@@2@XZ PROC ; std::_Compressed_pair<std::_Wrap_alloc<std::allocator<wchar_t> >,std::_String_val<std::_Simple_types<wchar_t> >,1>::_Get_first, COMDAT
; _this$ = ecx

; 318  : 		return (*this);

	mov	eax, ecx

; 319  : 		}

	ret	0
?_Get_first@?$_Compressed_pair@U?$_Wrap_alloc@V?$allocator@_W@std@@@std@@V?$_String_val@U?$_Simple_types@_W@std@@@2@$00@std@@QAEAAU?$_Wrap_alloc@V?$allocator@_W@std@@@2@XZ ENDP ; std::_Compressed_pair<std::_Wrap_alloc<std::allocator<wchar_t> >,std::_String_val<std::_Simple_types<wchar_t> >,1>::_Get_first
_TEXT	ENDS
; Function compile flags: /Ogtp
; File c:\program files (x86)\microsoft visual studio\2017\community\vc\tools\msvc\14.10.25017\include\xstring
;	COMDAT ?_Myres@?$_String_alloc@U?$_String_base_types@_WV?$allocator@_W@std@@@std@@@std@@QAEAAIXZ
_TEXT	SEGMENT
?_Myres@?$_String_alloc@U?$_String_base_types@_WV?$allocator@_W@std@@@std@@@std@@QAEAAIXZ PROC ; std::_String_alloc<std::_String_base_types<wchar_t,std::allocator<wchar_t> > >::_Myres, COMDAT
; _this$ = ecx

; 1849 : 		return (_Get_data()._Myres);

	lea	eax, DWORD PTR [ecx+20]

; 1850 : 		}

	ret	0
?_Myres@?$_String_alloc@U?$_String_base_types@_WV?$allocator@_W@std@@@std@@@std@@QAEAAIXZ ENDP ; std::_String_alloc<std::_String_base_types<wchar_t,std::allocator<wchar_t> > >::_Myres
_TEXT	ENDS
; Function compile flags: /Ogtp
; File c:\program files (x86)\microsoft visual studio\2017\community\vc\tools\msvc\14.10.25017\include\xstring
;	COMDAT ?_Mysize@?$_String_alloc@U?$_String_base_types@_WV?$allocator@_W@std@@@std@@@std@@QBEABIXZ
_TEXT	SEGMENT
?_Mysize@?$_String_alloc@U?$_String_base_types@_WV?$allocator@_W@std@@@std@@@std@@QBEABIXZ PROC ; std::_String_alloc<std::_String_base_types<wchar_t,std::allocator<wchar_t> > >::_Mysize, COMDAT
; _this$ = ecx

; 1844 : 		return (_Get_data()._Mysize);

	lea	eax, DWORD PTR [ecx+16]

; 1845 : 		}

	ret	0
?_Mysize@?$_String_alloc@U?$_String_base_types@_WV?$allocator@_W@std@@@std@@@std@@QBEABIXZ ENDP ; std::_String_alloc<std::_String_base_types<wchar_t,std::allocator<wchar_t> > >::_Mysize
_TEXT	ENDS
; Function compile flags: /Ogtp
; File c:\program files (x86)\microsoft visual studio\2017\community\vc\tools\msvc\14.10.25017\include\xstring
;	COMDAT ?_Mysize@?$_String_alloc@U?$_String_base_types@_WV?$allocator@_W@std@@@std@@@std@@QAEAAIXZ
_TEXT	SEGMENT
?_Mysize@?$_String_alloc@U?$_String_base_types@_WV?$allocator@_W@std@@@std@@@std@@QAEAAIXZ PROC ; std::_String_alloc<std::_String_base_types<wchar_t,std::allocator<wchar_t> > >::_Mysize, COMDAT
; _this$ = ecx

; 1839 : 		return (_Get_data()._Mysize);

	lea	eax, DWORD PTR [ecx+16]

; 1840 : 		}

	ret	0
?_Mysize@?$_String_alloc@U?$_String_base_types@_WV?$allocator@_W@std@@@std@@@std@@QAEAAIXZ ENDP ; std::_String_alloc<std::_String_base_types<wchar_t,std::allocator<wchar_t> > >::_Mysize
_TEXT	ENDS
; Function compile flags: /Ogtp
; File c:\program files (x86)\microsoft visual studio\2017\community\vc\tools\msvc\14.10.25017\include\xstring
;	COMDAT ?_Get_data@?$_String_alloc@U?$_String_base_types@_WV?$allocator@_W@std@@@std@@@std@@QBEABV?$_String_val@U?$_Simple_types@_W@std@@@2@XZ
_TEXT	SEGMENT
?_Get_data@?$_String_alloc@U?$_String_base_types@_WV?$allocator@_W@std@@@std@@@std@@QBEABV?$_String_val@U?$_Simple_types@_W@std@@@2@XZ PROC ; std::_String_alloc<std::_String_base_types<wchar_t,std::allocator<wchar_t> > >::_Get_data, COMDAT
; _this$ = ecx

; 1834 : 		return (_Mypair._Get_second());

	mov	eax, ecx

; 1835 : 		}

	ret	0
?_Get_data@?$_String_alloc@U?$_String_base_types@_WV?$allocator@_W@std@@@std@@@std@@QBEABV?$_String_val@U?$_Simple_types@_W@std@@@2@XZ ENDP ; std::_String_alloc<std::_String_base_types<wchar_t,std::allocator<wchar_t> > >::_Get_data
_TEXT	ENDS
; Function compile flags: /Ogtp
; File c:\program files (x86)\microsoft visual studio\2017\community\vc\tools\msvc\14.10.25017\include\xstring
;	COMDAT ?_Get_data@?$_String_alloc@U?$_String_base_types@_WV?$allocator@_W@std@@@std@@@std@@QAEAAV?$_String_val@U?$_Simple_types@_W@std@@@2@XZ
_TEXT	SEGMENT
?_Get_data@?$_String_alloc@U?$_String_base_types@_WV?$allocator@_W@std@@@std@@@std@@QAEAAV?$_String_val@U?$_Simple_types@_W@std@@@2@XZ PROC ; std::_String_alloc<std::_String_base_types<wchar_t,std::allocator<wchar_t> > >::_Get_data, COMDAT
; _this$ = ecx

; 1829 : 		return (_Mypair._Get_second());

	mov	eax, ecx

; 1830 : 		}

	ret	0
?_Get_data@?$_String_alloc@U?$_String_base_types@_WV?$allocator@_W@std@@@std@@@std@@QAEAAV?$_String_val@U?$_Simple_types@_W@std@@@2@XZ ENDP ; std::_String_alloc<std::_String_base_types<wchar_t,std::allocator<wchar_t> > >::_Get_data
_TEXT	ENDS
; Function compile flags: /Ogtp
; File c:\program files (x86)\microsoft visual studio\2017\community\vc\tools\msvc\14.10.25017\include\xstring
;	COMDAT ?_Getal@?$_String_alloc@U?$_String_base_types@_WV?$allocator@_W@std@@@std@@@std@@QBEABU?$_Wrap_alloc@V?$allocator@_W@std@@@2@XZ
_TEXT	SEGMENT
?_Getal@?$_String_alloc@U?$_String_base_types@_WV?$allocator@_W@std@@@std@@@std@@QBEABU?$_Wrap_alloc@V?$allocator@_W@std@@@2@XZ PROC ; std::_String_alloc<std::_String_base_types<wchar_t,std::allocator<wchar_t> > >::_Getal, COMDAT
; _this$ = ecx

; 1824 : 		return (_Mypair._Get_first());

	mov	eax, ecx

; 1825 : 		}

	ret	0
?_Getal@?$_String_alloc@U?$_String_base_types@_WV?$allocator@_W@std@@@std@@@std@@QBEABU?$_Wrap_alloc@V?$allocator@_W@std@@@2@XZ ENDP ; std::_String_alloc<std::_String_base_types<wchar_t,std::allocator<wchar_t> > >::_Getal
_TEXT	ENDS
; Function compile flags: /Ogtp
; File c:\program files (x86)\microsoft visual studio\2017\community\vc\tools\msvc\14.10.25017\include\xstring
;	COMDAT ?_Getal@?$_String_alloc@U?$_String_base_types@_WV?$allocator@_W@std@@@std@@@std@@QAEAAU?$_Wrap_alloc@V?$allocator@_W@std@@@2@XZ
_TEXT	SEGMENT
?_Getal@?$_String_alloc@U?$_String_base_types@_WV?$allocator@_W@std@@@std@@@std@@QAEAAU?$_Wrap_alloc@V?$allocator@_W@std@@@2@XZ PROC ; std::_String_alloc<std::_String_base_types<wchar_t,std::allocator<wchar_t> > >::_Getal, COMDAT
; _this$ = ecx

; 1819 : 		return (_Mypair._Get_first());

	mov	eax, ecx

; 1820 : 		}

	ret	0
?_Getal@?$_String_alloc@U?$_String_base_types@_WV?$allocator@_W@std@@@std@@@std@@QAEAAU?$_Wrap_alloc@V?$allocator@_W@std@@@2@XZ ENDP ; std::_String_alloc<std::_String_base_types<wchar_t,std::allocator<wchar_t> > >::_Getal
_TEXT	ENDS
; Function compile flags: /Ogtp
; File c:\program files (x86)\microsoft visual studio\2017\community\vc\tools\msvc\14.10.25017\include\xstring
;	COMDAT ?_Orphan_all@?$_String_alloc@U?$_String_base_types@_WV?$allocator@_W@std@@@std@@@std@@QAEXXZ
_TEXT	SEGMENT
?_Orphan_all@?$_String_alloc@U?$_String_base_types@_WV?$allocator@_W@std@@@std@@@std@@QAEXXZ PROC ; std::_String_alloc<std::_String_base_types<wchar_t,std::allocator<wchar_t> > >::_Orphan_all, COMDAT
; _this$ = ecx

; 1809 : 		_Get_data()._Orphan_all();
; 1810 : 		}

	ret	0
?_Orphan_all@?$_String_alloc@U?$_String_base_types@_WV?$allocator@_W@std@@@std@@@std@@QAEXXZ ENDP ; std::_String_alloc<std::_String_base_types<wchar_t,std::allocator<wchar_t> > >::_Orphan_all
_TEXT	ENDS
; Function compile flags: /Ogtp
; File c:\program files (x86)\microsoft visual studio\2017\community\vc\tools\msvc\14.10.25017\include\xstring
;	COMDAT ??0?$_String_alloc@U?$_String_base_types@_WV?$allocator@_W@std@@@std@@@std@@QAE@XZ
_TEXT	SEGMENT
??0?$_String_alloc@U?$_String_base_types@_WV?$allocator@_W@std@@@std@@@std@@QAE@XZ PROC ; std::_String_alloc<std::_String_base_types<wchar_t,std::allocator<wchar_t> > >::_String_alloc<std::_String_base_types<wchar_t,std::allocator<wchar_t> > >, COMDAT
; _this$ = ecx

; 1595 : 		_Mysize(0),

	mov	DWORD PTR [ecx+16], 0

; 1697 : 		}

	mov	eax, ecx

; 1596 : 		_Myres(0)

	mov	DWORD PTR [ecx+20], 0

; 1697 : 		}

	ret	0
