; Listing generated by Microsoft (R) Optimizing Compiler Version 19.10.25019.0 

	TITLE	C:\Users\andon\Source\Repos\SpecialK\src\widgets\gpu_widget.cpp
	.686P
	.XMM
	include listing.inc
	.model	flat

INCLUDELIB MSVCRT
INCLUDELIB OLDNAMES

PUBLIC	??0ImVec2@@QAE@MM@Z				; ImVec2::ImVec2
PUBLIC	??0ImVec4@@QAE@XZ				; ImVec4::ImVec4
PUBLIC	??0ImColor@@QAE@MMMM@Z				; ImColor::ImColor
PUBLIC	??BImColor@@QBE?AUImVec4@@XZ			; ImColor::operator ImVec4
PUBLIC	?HSV@ImColor@@SA?AU1@MMMM@Z			; ImColor::HSV
PUBLIC	_wmemcpy
PUBLIC	_wmemmove
PUBLIC	?min@?$numeric_limits@M@std@@SAMXZ		; std::numeric_limits<float>::min
PUBLIC	?max@?$numeric_limits@M@std@@SAMXZ		; std::numeric_limits<float>::max
PUBLIC	??2@YAPAXIPAX@Z					; operator new
PUBLIC	?length@?$char_traits@_W@std@@SAIQB_W@Z		; std::char_traits<wchar_t>::length
PUBLIC	?copy@?$char_traits@_W@std@@SAPA_WQA_WQB_WI@Z	; std::char_traits<wchar_t>::copy
PUBLIC	?move@?$char_traits@_W@std@@SAPA_WQA_WQB_WI@Z	; std::char_traits<wchar_t>::move
PUBLIC	?assign@?$char_traits@_W@std@@SAXAA_WAB_W@Z	; std::char_traits<wchar_t>::assign
PUBLIC	?length@?$char_traits@D@std@@SAIQBD@Z		; std::char_traits<char>::length
PUBLIC	?copy@?$char_traits@D@std@@SAPADQADQBDI@Z	; std::char_traits<char>::copy
PUBLIC	?move@?$char_traits@D@std@@SAPADQADQBDI@Z	; std::char_traits<char>::move
PUBLIC	?assign@?$char_traits@D@std@@SAXAADABD@Z	; std::char_traits<char>::assign
PUBLIC	?_Orphan_all@_Container_base0@std@@QAEXXZ	; std::_Container_base0::_Orphan_all
PUBLIC	?_Adopt@_Iterator_base0@std@@QAEXPBX@Z		; std::_Iterator_base0::_Adopt
PUBLIC	?_Allocate@std@@YAPAXII_N@Z			; std::_Allocate
PUBLIC	?_Deallocate@std@@YAXPAXII@Z			; std::_Deallocate
PUBLIC	??0?$allocator@D@std@@QAE@XZ			; std::allocator<char>::allocator<char>
PUBLIC	?deallocate@?$allocator@D@std@@QAEXPADI@Z	; std::allocator<char>::deallocate
PUBLIC	?allocate@?$allocator@D@std@@QAEPADI@Z		; std::allocator<char>::allocate
PUBLIC	?max_size@?$allocator@D@std@@QBEIXZ		; std::allocator<char>::max_size
PUBLIC	?max_size@?$allocator_traits@V?$allocator@D@std@@@std@@SAIABV?$allocator@D@2@@Z ; std::allocator_traits<std::allocator<char> >::max_size
PUBLIC	??0?$_Wrap_alloc@V?$allocator@D@std@@@std@@QAE@XZ ; std::_Wrap_alloc<std::allocator<char> >::_Wrap_alloc<std::allocator<char> >
PUBLIC	?allocate@?$_Wrap_alloc@V?$allocator@D@std@@@std@@QAEPADI@Z ; std::_Wrap_alloc<std::allocator<char> >::allocate
PUBLIC	?deallocate@?$_Wrap_alloc@V?$allocator@D@std@@@std@@QAEXPADI@Z ; std::_Wrap_alloc<std::allocator<char> >::deallocate
PUBLIC	?max_size@?$_Wrap_alloc@V?$allocator@D@std@@@std@@QBEIU_Nil@2@@Z ; std::_Wrap_alloc<std::allocator<char> >::max_size
PUBLIC	??0?$_String_val@U?$_Simple_types@D@std@@@std@@QAE@XZ ; std::_String_val<std::_Simple_types<char> >::_String_val<std::_Simple_types<char> >
PUBLIC	?_Myptr@?$_String_val@U?$_Simple_types@D@std@@@std@@QAEPADXZ ; std::_String_val<std::_Simple_types<char> >::_Myptr
PUBLIC	?_Myptr@?$_String_val@U?$_Simple_types@D@std@@@std@@QBEPBDXZ ; std::_String_val<std::_Simple_types<char> >::_Myptr
PUBLIC	?_Large_string_engaged@?$_String_val@U?$_Simple_types@D@std@@@std@@QBE_NXZ ; std::_String_val<std::_Simple_types<char> >::_Large_string_engaged
PUBLIC	??0_Bxty@?$_String_val@U?$_Simple_types@D@std@@@std@@QAE@XZ ; std::_String_val<std::_Simple_types<char> >::_Bxty::_Bxty
PUBLIC	??1_Bxty@?$_String_val@U?$_Simple_types@D@std@@@std@@QAE@XZ ; std::_String_val<std::_Simple_types<char> >::_Bxty::~_Bxty
PUBLIC	??1?$_String_val@U?$_Simple_types@D@std@@@std@@QAE@XZ ; std::_String_val<std::_Simple_types<char> >::~_String_val<std::_Simple_types<char> >
PUBLIC	?_Myptr@?$_String_alloc@U?$_String_base_types@DV?$allocator@D@std@@@std@@@std@@QAEPADXZ ; std::_String_alloc<std::_String_base_types<char,std::allocator<char> > >::_Myptr
PUBLIC	?_Myptr@?$_String_alloc@U?$_String_base_types@DV?$allocator@D@std@@@std@@@std@@QBEPBDXZ ; std::_String_alloc<std::_String_base_types<char,std::allocator<char> > >::_Myptr
PUBLIC	??0?$_String_alloc@U?$_String_base_types@DV?$allocator@D@std@@@std@@@std@@QAE@XZ ; std::_String_alloc<std::_String_base_types<char,std::allocator<char> > >::_String_alloc<std::_String_base_types<char,std::allocator<char> > >
PUBLIC	?_Orphan_all@?$_String_alloc@U?$_String_base_types@DV?$allocator@D@std@@@std@@@std@@QAEXXZ ; std::_String_alloc<std::_String_base_types<char,std::allocator<char> > >::_Orphan_all
PUBLIC	?_Getal@?$_String_alloc@U?$_String_base_types@DV?$allocator@D@std@@@std@@@std@@QAEAAU?$_Wrap_alloc@V?$allocator@D@std@@@2@XZ ; std::_String_alloc<std::_String_base_types<char,std::allocator<char> > >::_Getal
PUBLIC	?_Getal@?$_String_alloc@U?$_String_base_types@DV?$allocator@D@std@@@std@@@std@@QBEABU?$_Wrap_alloc@V?$allocator@D@std@@@2@XZ ; std::_String_alloc<std::_String_base_types<char,std::allocator<char> > >::_Getal
PUBLIC	?_Get_data@?$_String_alloc@U?$_String_base_types@DV?$allocator@D@std@@@std@@@std@@QAEAAV?$_String_val@U?$_Simple_types@D@std@@@2@XZ ; std::_String_alloc<std::_String_base_types<char,std::allocator<char> > >::_Get_data
PUBLIC	?_Get_data@?$_String_alloc@U?$_String_base_types@DV?$allocator@D@std@@@std@@@std@@QBEABV?$_String_val@U?$_Simple_types@D@std@@@2@XZ ; std::_String_alloc<std::_String_base_types<char,std::allocator<char> > >::_Get_data
PUBLIC	?_Mysize@?$_String_alloc@U?$_String_base_types@DV?$allocator@D@std@@@std@@@std@@QAEAAIXZ ; std::_String_alloc<std::_String_base_types<char,std::allocator<char> > >::_Mysize
PUBLIC	?_Mysize@?$_String_alloc@U?$_String_base_types@DV?$allocator@D@std@@@std@@@std@@QBEABIXZ ; std::_String_alloc<std::_String_base_types<char,std::allocator<char> > >::_Mysize
PUBLIC	?_Myres@?$_String_alloc@U?$_String_base_types@DV?$allocator@D@std@@@std@@@std@@QAEAAIXZ ; std::_String_alloc<std::_String_base_types<char,std::allocator<char> > >::_Myres
PUBLIC	?_Get_first@?$_Compressed_pair@U?$_Wrap_alloc@V?$allocator@D@std@@@std@@V?$_String_val@U?$_Simple_types@D@std@@@2@$00@std@@QAEAAU?$_Wrap_alloc@V?$allocator@D@std@@@2@XZ ; std::_Compressed_pair<std::_Wrap_alloc<std::allocator<char> >,std::_String_val<std::_Simple_types<char> >,1>::_Get_first
PUBLIC	?_Get_first@?$_Compressed_pair@U?$_Wrap_alloc@V?$allocator@D@std@@@std@@V?$_String_val@U?$_Simple_types@D@std@@@2@$00@std@@QBEABU?$_Wrap_alloc@V?$allocator@D@std@@@2@XZ ; std::_Compressed_pair<std::_Wrap_alloc<std::allocator<char> >,std::_String_val<std::_Simple_types<char> >,1>::_Get_first
PUBLIC	?_Get_second@?$_Compressed_pair@U?$_Wrap_alloc@V?$allocator@D@std@@@std@@V?$_String_val@U?$_Simple_types@D@std@@@2@$00@std@@QAEAAV?$_String_val@U?$_Simple_types@D@std@@@2@XZ ; std::_Compressed_pair<std::_Wrap_alloc<std::allocator<char> >,std::_String_val<std::_Simple_types<char> >,1>::_Get_second
PUBLIC	?_Get_second@?$_Compressed_pair@U?$_Wrap_alloc@V?$allocator@D@std@@@std@@V?$_String_val@U?$_Simple_types@D@std@@@2@$00@std@@QBEABV?$_String_val@U?$_Simple_types@D@std@@@2@XZ ; std::_Compressed_pair<std::_Wrap_alloc<std::allocator<char> >,std::_String_val<std::_Simple_types<char> >,1>::_Get_second
PUBLIC	??1?$_Compressed_pair@U?$_Wrap_alloc@V?$allocator@D@std@@@std@@V?$_String_val@U?$_Simple_types@D@std@@@2@$00@std@@QAE@XZ ; std::_Compressed_pair<std::_Wrap_alloc<std::allocator<char> >,std::_String_val<std::_Simple_types<char> >,1>::~_Compressed_pair<std::_Wrap_alloc<std::allocator<char> >,std::_String_val<std::_Simple_types<char> >,1>
PUBLIC	??1?$_String_alloc@U?$_String_base_types@DV?$allocator@D@std@@@std@@@std@@QAE@XZ ; std::_String_alloc<std::_String_base_types<char,std::allocator<char> > >::~_String_alloc<std::_String_base_types<char,std::allocator<char> > >
PUBLIC	??0?$basic_string@DU?$char_traits@D@std@@V?$allocator@D@2@@std@@QAE@QBD@Z ; std::basic_string<char,std::char_traits<char>,std::allocator<char> >::basic_string<char,std::char_traits<char>,std::allocator<char> >
PUBLIC	??1?$basic_string@DU?$char_traits@D@std@@V?$allocator@D@2@@std@@QAE@XZ ; std::basic_string<char,std::char_traits<char>,std::allocator<char> >::~basic_string<char,std::char_traits<char>,std::allocator<char> >
PUBLIC	?assign@?$basic_string@DU?$char_traits@D@std@@V?$allocator@D@2@@std@@QAEAAV12@ABV12@II@Z ; std::basic_string<char,std::char_traits<char>,std::allocator<char> >::assign
PUBLIC	?assign@?$basic_string@DU?$char_traits@D@std@@V?$allocator@D@2@@std@@QAEAAV12@QBDI@Z ; std::basic_string<char,std::char_traits<char>,std::allocator<char> >::assign
PUBLIC	?assign@?$basic_string@DU?$char_traits@D@std@@V?$allocator@D@2@@std@@QAEAAV12@QBD@Z ; std::basic_string<char,std::char_traits<char>,std::allocator<char> >::assign
PUBLIC	?erase@?$basic_string@DU?$char_traits@D@std@@V?$allocator@D@2@@std@@QAEAAV12@I@Z ; std::basic_string<char,std::char_traits<char>,std::allocator<char> >::erase
PUBLIC	?erase@?$basic_string@DU?$char_traits@D@std@@V?$allocator@D@2@@std@@QAEAAV12@II@Z ; std::basic_string<char,std::char_traits<char>,std::allocator<char> >::erase
PUBLIC	?max_size@?$basic_string@DU?$char_traits@D@std@@V?$allocator@D@2@@std@@QBEIXZ ; std::basic_string<char,std::char_traits<char>,std::allocator<char> >::max_size
PUBLIC	?_Clamp_suffix_size@?$basic_string@DU?$char_traits@D@std@@V?$allocator@D@2@@std@@QBEIII@Z ; std::basic_string<char,std::char_traits<char>,std::allocator<char> >::_Clamp_suffix_size
PUBLIC	?_Copy@?$basic_string@DU?$char_traits@D@std@@V?$allocator@D@2@@std@@QAEXI@Z ; std::basic_string<char,std::char_traits<char>,std::allocator<char> >::_Copy
PUBLIC	?_Eos@?$basic_string@DU?$char_traits@D@std@@V?$allocator@D@2@@std@@QAEXI@Z ; std::basic_string<char,std::char_traits<char>,std::allocator<char> >::_Eos
PUBLIC	?_Grow@?$basic_string@DU?$char_traits@D@std@@V?$allocator@D@2@@std@@QAE_NI@Z ; std::basic_string<char,std::char_traits<char>,std::allocator<char> >::_Grow
PUBLIC	?_Inside@?$basic_string@DU?$char_traits@D@std@@V?$allocator@D@2@@std@@QBE_NQBD@Z ; std::basic_string<char,std::char_traits<char>,std::allocator<char> >::_Inside
PUBLIC	?_Tidy_init@?$basic_string@DU?$char_traits@D@std@@V?$allocator@D@2@@std@@QAEXXZ ; std::basic_string<char,std::char_traits<char>,std::allocator<char> >::_Tidy_init
PUBLIC	?_Tidy_deallocate@?$basic_string@DU?$char_traits@D@std@@V?$allocator@D@2@@std@@QAEXXZ ; std::basic_string<char,std::char_traits<char>,std::allocator<char> >::_Tidy_deallocate
PUBLIC	?_Xlen@?$basic_string@DU?$char_traits@D@std@@V?$allocator@D@2@@std@@SAXXZ ; std::basic_string<char,std::char_traits<char>,std::allocator<char> >::_Xlen
PUBLIC	?_Check_offset@?$basic_string@DU?$char_traits@D@std@@V?$allocator@D@2@@std@@QBEXI@Z ; std::basic_string<char,std::char_traits<char>,std::allocator<char> >::_Check_offset
PUBLIC	?_Xran@?$basic_string@DU?$char_traits@D@std@@V?$allocator@D@2@@std@@SAXXZ ; std::basic_string<char,std::char_traits<char>,std::allocator<char> >::_Xran
PUBLIC	??0?$allocator@_W@std@@QAE@XZ			; std::allocator<wchar_t>::allocator<wchar_t>
PUBLIC	?deallocate@?$allocator@_W@std@@QAEXPA_WI@Z	; std::allocator<wchar_t>::deallocate
PUBLIC	?allocate@?$allocator@_W@std@@QAEPA_WI@Z	; std::allocator<wchar_t>::allocate
PUBLIC	?max_size@?$allocator@_W@std@@QBEIXZ		; std::allocator<wchar_t>::max_size
PUBLIC	?max_size@?$allocator_traits@V?$allocator@_W@std@@@std@@SAIABV?$allocator@_W@2@@Z ; std::allocator_traits<std::allocator<wchar_t> >::max_size
PUBLIC	??0?$_Wrap_alloc@V?$allocator@_W@std@@@std@@QAE@XZ ; std::_Wrap_alloc<std::allocator<wchar_t> >::_Wrap_alloc<std::allocator<wchar_t> >
PUBLIC	?allocate@?$_Wrap_alloc@V?$allocator@_W@std@@@std@@QAEPA_WI@Z ; std::_Wrap_alloc<std::allocator<wchar_t> >::allocate
PUBLIC	?deallocate@?$_Wrap_alloc@V?$allocator@_W@std@@@std@@QAEXPA_WI@Z ; std::_Wrap_alloc<std::allocator<wchar_t> >::deallocate
PUBLIC	?max_size@?$_Wrap_alloc@V?$allocator@_W@std@@@std@@QBEIU_Nil@2@@Z ; std::_Wrap_alloc<std::allocator<wchar_t> >::max_size
PUBLIC	??0?$_String_val@U?$_Simple_types@_W@std@@@std@@QAE@XZ ; std::_String_val<std::_Simple_types<wchar_t> >::_String_val<std::_Simple_types<wchar_t> >
PUBLIC	?_Myptr@?$_String_val@U?$_Simple_types@_W@std@@@std@@QAEPA_WXZ ; std::_String_val<std::_Simple_types<wchar_t> >::_Myptr
PUBLIC	?_Myptr@?$_String_val@U?$_Simple_types@_W@std@@@std@@QBEPB_WXZ ; std::_String_val<std::_Simple_types<wchar_t> >::_Myptr
PUBLIC	?_Large_string_engaged@?$_String_val@U?$_Simple_types@_W@std@@@std@@QBE_NXZ ; std::_String_val<std::_Simple_types<wchar_t> >::_Large_string_engaged
PUBLIC	??0_Bxty@?$_String_val@U?$_Simple_types@_W@std@@@std@@QAE@XZ ; std::_String_val<std::_Simple_types<wchar_t> >::_Bxty::_Bxty
PUBLIC	??1_Bxty@?$_String_val@U?$_Simple_types@_W@std@@@std@@QAE@XZ ; std::_String_val<std::_Simple_types<wchar_t> >::_Bxty::~_Bxty
PUBLIC	??1?$_String_val@U?$_Simple_types@_W@std@@@std@@QAE@XZ ; std::_String_val<std::_Simple_types<wchar_t> >::~_String_val<std::_Simple_types<wchar_t> >
PUBLIC	?_Myptr@?$_String_alloc@U?$_String_base_types@_WV?$allocator@_W@std@@@std@@@std@@QAEPA_WXZ ; std::_String_alloc<std::_String_base_types<wchar_t,std::allocator<wchar_t> > >::_Myptr
PUBLIC	?_Myptr@?$_String_alloc@U?$_String_base_types@_WV?$allocator@_W@std@@@std@@@std@@QBEPB_WXZ ; std::_String_alloc<std::_String_base_types<wchar_t,std::allocator<wchar_t> > >::_Myptr
PUBLIC	??0?$_String_alloc@U?$_String_base_types@_WV?$allocator@_W@std@@@std@@@std@@QAE@XZ ; std::_String_alloc<std::_String_base_types<wchar_t,std::allocator<wchar_t> > >::_String_alloc<std::_String_base_types<wchar_t,std::allocator<wchar_t> > >
PUBLIC	?_Orphan_all@?$_String_alloc@U?$_String_base_types@_WV?$allocator@_W@std@@@std@@@std@@QAEXXZ ; std::_String_alloc<std::_String_base_types<wchar_t,std::allocator<wchar_t> > >::_Orphan_all
PUBLIC	?_Getal@?$_String_alloc@U?$_String_base_types@_WV?$allocator@_W@std@@@std@@@std@@QAEAAU?$_Wrap_alloc@V?$allocator@_W@std@@@2@XZ ; std::_String_alloc<std::_String_base_types<wchar_t,std::allocator<wchar_t> > >::_Getal
PUBLIC	?_Getal@?$_String_alloc@U?$_String_base_types@_WV?$allocator@_W@std@@@std@@@std@@QBEABU?$_Wrap_alloc@V?$allocator@_W@std@@@2@XZ ; std::_String_alloc<std::_String_base_types<wchar_t,std::allocator<wchar_t> > >::_Getal
PUBLIC	?_Get_data@?$_String_alloc@U?$_String_base_types@_WV?$allocator@_W@std@@@std@@@std@@QAEAAV?$_String_val@U?$_Simple_types@_W@std@@@2@XZ ; std::_String_alloc<std::_String_base_types<wchar_t,std::allocator<wchar_t> > >::_Get_data
PUBLIC	?_Get_data@?$_String_alloc@U?$_String_base_types@_WV?$allocator@_W@std@@@std@@@std@@QBEABV?$_String_val@U?$_Simple_types@_W@std@@@2@XZ ; std::_String_alloc<std::_String_base_types<wchar_t,std::allocator<wchar_t> > >::_Get_data
PUBLIC	?_Mysize@?$_String_alloc@U?$_String_base_types@_WV?$allocator@_W@std@@@std@@@std@@QAEAAIXZ ; std::_String_alloc<std::_String_base_types<wchar_t,std::allocator<wchar_t> > >::_Mysize
PUBLIC	?_Mysize@?$_String_alloc@U?$_String_base_types@_WV?$allocator@_W@std@@@std@@@std@@QBEABIXZ ; std::_String_alloc<std::_String_base_types<wchar_t,std::allocator<wchar_t> > >::_Mysize
PUBLIC	?_Myres@?$_String_alloc@U?$_String_base_types@_WV?$allocator@_W@std@@@std@@@std@@QAEAAIXZ ; std::_String_alloc<std::_String_base_types<wchar_t,std::allocator<wchar_t> > >::_Myres
PUBLIC	?_Get_first@?$_Compressed_pair@U?$_Wrap_alloc@V?$allocator@_W@std@@@std@@V?$_String_val@U?$_Simple_types@_W@std@@@2@$00@std@@QAEAAU?$_Wrap_alloc@V?$allocator@_W@std@@@2@XZ ; std::_Compressed_pair<std::_Wrap_alloc<std::allocator<wchar_t> >,std::_String_val<std::_Simple_types<wchar_t> >,1>::_Get_first
PUBLIC	?_Get_first@?$_Compressed_pair@U?$_Wrap_alloc@V?$allocator@_W@std@@@std@@V?$_String_val@U?$_Simple_types@_W@std@@@2@$00@std@@QBEABU?$_Wrap_alloc@V?$allocator@_W@std@@@2@XZ ; std::_Compressed_pair<std::_Wrap_alloc<std::allocator<wchar_t> >,std::_String_val<std::_Simple_types<wchar_t> >,1>::_Get_first
PUBLIC	?_Get_second@?$_Compressed_pair@U?$_Wrap_alloc@V?$allocator@_W@std@@@std@@V?$_String_val@U?$_Simple_types@_W@std@@@2@$00@std@@QAEAAV?$_String_val@U?$_Simple_types@_W@std@@@2@XZ ; std::_Compressed_pair<std::_Wrap_alloc<std::allocator<wchar_t> >,std::_String_val<std::_Simple_types<wchar_t> >,1>::_Get_second
PUBLIC	?_Get_second@?$_Compressed_pair@U?$_Wrap_alloc@V?$allocator@_W@std@@@std@@V?$_String_val@U?$_Simple_types@_W@std@@@2@$00@std@@QBEABV?$_String_val@U?$_Simple_types@_W@std@@@2@XZ ; std::_Compressed_pair<std::_Wrap_alloc<std::allocator<wchar_t> >,std::_String_val<std::_Simple_types<wchar_t> >,1>::_Get_second
PUBLIC	??1?$_Compressed_pair@U?$_Wrap_alloc@V?$allocator@_W@std@@@std@@V?$_String_val@U?$_Simple_types@_W@std@@@2@$00@std@@QAE@XZ ; std::_Compressed_pair<std::_Wrap_alloc<std::allocator<wchar_t> >,std::_String_val<std::_Simple_types<wchar_t> >,1>::~_Compressed_pair<std::_Wrap_alloc<std::allocator<wchar_t> >,std::_String_val<std::_Simple_types<wchar_t> >,1>
PUBLIC	??1?$_String_alloc@U?$_String_base_types@_WV?$allocator@_W@std@@@std@@@std@@QAE@XZ ; std::_String_alloc<std::_String_base_types<wchar_t,std::allocator<wchar_t> > >::~_String_alloc<std::_String_base_types<wchar_t,std::allocator<wchar_t> > >
PUBLIC	??0?$basic_string@_WU?$char_traits@_W@std@@V?$allocator@_W@2@@std@@QAE@QB_W@Z ; std::basic_string<wchar_t,std::char_traits<wchar_t>,std::allocator<wchar_t> >::basic_string<wchar_t,std::char_traits<wchar_t>,std::allocator<wchar_t> >
PUBLIC	??1?$basic_string@_WU?$char_traits@_W@std@@V?$allocator@_W@2@@std@@QAE@XZ ; std::basic_string<wchar_t,std::char_traits<wchar_t>,std::allocator<wchar_t> >::~basic_string<wchar_t,std::char_traits<wchar_t>,std::allocator<wchar_t> >
PUBLIC	?assign@?$basic_string@_WU?$char_traits@_W@std@@V?$allocator@_W@2@@std@@QAEAAV12@ABV12@II@Z ; std::basic_string<wchar_t,std::char_traits<wchar_t>,std::allocator<wchar_t> >::assign
PUBLIC	?assign@?$basic_string@_WU?$char_traits@_W@std@@V?$allocator@_W@2@@std@@QAEAAV12@QB_WI@Z ; std::basic_string<wchar_t,std::char_traits<wchar_t>,std::allocator<wchar_t> >::assign
PUBLIC	?assign@?$basic_string@_WU?$char_traits@_W@std@@V?$allocator@_W@2@@std@@QAEAAV12@QB_W@Z ; std::basic_string<wchar_t,std::char_traits<wchar_t>,std::allocator<wchar_t> >::assign
PUBLIC	?erase@?$basic_string@_WU?$char_traits@_W@std@@V?$allocator@_W@2@@std@@QAEAAV12@I@Z ; std::basic_string<wchar_t,std::char_traits<wchar_t>,std::allocator<wchar_t> >::erase
PUBLIC	?erase@?$basic_string@_WU?$char_traits@_W@std@@V?$allocator@_W@2@@std@@QAEAAV12@II@Z ; std::basic_string<wchar_t,std::char_traits<wchar_t>,std::allocator<wchar_t> >::erase
PUBLIC	?max_size@?$basic_string@_WU?$char_traits@_W@std@@V?$allocator@_W@2@@std@@QBEIXZ ; std::basic_string<wchar_t,std::char_traits<wchar_t>,std::allocator<wchar_t> >::max_size
PUBLIC	?_Clamp_suffix_size@?$basic_string@_WU?$char_traits@_W@std@@V?$allocator@_W@2@@std@@QBEIII@Z ; std::basic_string<wchar_t,std::char_traits<wchar_t>,std::allocator<wchar_t> >::_Clamp_suffix_size
PUBLIC	?_Copy@?$basic_string@_WU?$char_traits@_W@std@@V?$allocator@_W@2@@std@@QAEXI@Z ; std::basic_string<wchar_t,std::char_traits<wchar_t>,std::allocator<wchar_t> >::_Copy
PUBLIC	?_Eos@?$basic_string@_WU?$char_traits@_W@std@@V?$allocator@_W@2@@std@@QAEXI@Z ; std::basic_string<wchar_t,std::char_traits<wchar_t>,std::allocator<wchar_t> >::_Eos
PUBLIC	?_Grow@?$basic_string@_WU?$char_traits@_W@std@@V?$allocator@_W@2@@std@@QAE_NI@Z ; std::basic_string<wchar_t,std::char_traits<wchar_t>,std::allocator<wchar_t> >::_Grow
PUBLIC	?_Inside@?$basic_string@_WU?$char_traits@_W@std@@V?$allocator@_W@2@@std@@QBE_NQB_W@Z ; std::basic_string<wchar_t,std::char_traits<wchar_t>,std::allocator<wchar_t> >::_Inside
PUBLIC	?_Tidy_init@?$basic_string@_WU?$char_traits@_W@std@@V?$allocator@_W@2@@std@@QAEXXZ ; std::basic_string<wchar_t,std::char_traits<wchar_t>,std::allocator<wchar_t> >::_Tidy_init
PUBLIC	?_Tidy_deallocate@?$basic_string@_WU?$char_traits@_W@std@@V?$allocator@_W@2@@std@@QAEXXZ ; std::basic_string<wchar_t,std::char_traits<wchar_t>,std::allocator<wchar_t> >::_Tidy_deallocate
PUBLIC	?_Xlen@?$basic_string@_WU?$char_traits@_W@std@@V?$allocator@_W@2@@std@@SAXXZ ; std::basic_string<wchar_t,std::char_traits<wchar_t>,std::allocator<wchar_t> >::_Xlen
PUBLIC	?_Check_offset@?$basic_string@_WU?$char_traits@_W@std@@V?$allocator@_W@2@@std@@QBEXI@Z ; std::basic_string<wchar_t,std::char_traits<wchar_t>,std::allocator<wchar_t> >::_Check_offset
PUBLIC	?_Xran@?$basic_string@_WU?$char_traits@_W@std@@V?$allocator@_W@2@@std@@SAXXZ ; std::basic_string<wchar_t,std::char_traits<wchar_t>,std::allocator<wchar_t> >::_Xran
PUBLIC	??1SK_Keybind@@QAE@XZ				; SK_Keybind::~SK_Keybind
PUBLIC	?run@SK_Widget@@UAEXXZ				; SK_Widget::run
PUBLIC	?draw@SK_Widget@@UAEXXZ				; SK_Widget::draw
PUBLIC	?setAutoFit@SK_Widget@@QAEAAV1@_N@Z		; SK_Widget::setAutoFit
PUBLIC	?setClickThrough@SK_Widget@@QAEAAV1@_N@Z	; SK_Widget::setClickThrough
PUBLIC	?setDockingPoint@SK_Widget@@QAEAAV1@W4DockAnchor@1@@Z ; SK_Widget::setDockingPoint
PUBLIC	?OnConfig@SK_Widget@@MAEXW4ConfigEvent@1@@Z	; SK_Widget::OnConfig
PUBLIC	??0SK_Widget@@IAE@PBD@Z				; SK_Widget::SK_Widget
PUBLIC	??0?$allocator@U?$_Tree_node@U?$pair@$$CBV?$basic_string@DU?$char_traits@D@std@@V?$allocator@D@2@@std@@PAViParameter@sk@@@std@@PAX@std@@@std@@QAE@XZ ; std::allocator<std::_Tree_node<std::pair<std::basic_string<char,std::char_traits<char>,std::allocator<char> > const ,sk::iParameter *>,void *> >::allocator<std::_Tree_node<std::pair<std::basic_string<char,std::char_traits<char>,std::allocator<char> > const ,sk::iParameter *>,void *> >
PUBLIC	?deallocate@?$allocator@U?$_Tree_node@U?$pair@$$CBV?$basic_string@DU?$char_traits@D@std@@V?$allocator@D@2@@std@@PAViParameter@sk@@@std@@PAX@std@@@std@@QAEXPAU?$_Tree_node@U?$pair@$$CBV?$basic_string@DU?$char_traits@D@std@@V?$allocator@D@2@@std@@PAViParameter@sk@@@std@@PAX@2@I@Z ; std::allocator<std::_Tree_node<std::pair<std::basic_string<char,std::char_traits<char>,std::allocator<char> > const ,sk::iParameter *>,void *> >::deallocate
PUBLIC	?allocate@?$allocator@U?$_Tree_node@U?$pair@$$CBV?$basic_string@DU?$char_traits@D@std@@V?$allocator@D@2@@std@@PAViParameter@sk@@@std@@PAX@std@@@std@@QAEPAU?$_Tree_node@U?$pair@$$CBV?$basic_string@DU?$char_traits@D@std@@V?$allocator@D@2@@std@@PAViParameter@sk@@@std@@PAX@2@I@Z ; std::allocator<std::_Tree_node<std::pair<std::basic_string<char,std::char_traits<char>,std::allocator<char> > const ,sk::iParameter *>,void *> >::allocate
PUBLIC	??0?$_Wrap_alloc@V?$allocator@U?$_Tree_node@U?$pair@$$CBV?$basic_string@DU?$char_traits@D@std@@V?$allocator@D@2@@std@@PAViParameter@sk@@@std@@PAX@std@@@std@@@std@@QAE@XZ ; std::_Wrap_alloc<std::allocator<std::_Tree_node<std::pair<std::basic_string<char,std::char_traits<char>,std::allocator<char> > const ,sk::iParameter *>,void *> > >::_Wrap_alloc<std::allocator<std::_Tree_node<std::pair<std::basic_string<char,std::char_traits<char>,std::allocator<char> > const ,sk::iParameter *>,void *> > >
PUBLIC	?allocate@?$_Wrap_alloc@V?$allocator@U?$_Tree_node@U?$pair@$$CBV?$basic_string@DU?$char_traits@D@std@@V?$allocator@D@2@@std@@PAViParameter@sk@@@std@@PAX@std@@@std@@@std@@QAEPAU?$_Tree_node@U?$pair@$$CBV?$basic_string@DU?$char_traits@D@std@@V?$allocator@D@2@@std@@PAViParameter@sk@@@std@@PAX@2@I@Z ; std::_Wrap_alloc<std::allocator<std::_Tree_node<std::pair<std::basic_string<char,std::char_traits<char>,std::allocator<char> > const ,sk::iParameter *>,void *> > >::allocate
PUBLIC	?deallocate@?$_Wrap_alloc@V?$allocator@U?$_Tree_node@U?$pair@$$CBV?$basic_string@DU?$char_traits@D@std@@V?$allocator@D@2@@std@@PAViParameter@sk@@@std@@PAX@std@@@std@@@std@@QAEXPAU?$_Tree_node@U?$pair@$$CBV?$basic_string@DU?$char_traits@D@std@@V?$allocator@D@2@@std@@PAViParameter@sk@@@std@@PAX@2@I@Z ; std::_Wrap_alloc<std::allocator<std::_Tree_node<std::pair<std::basic_string<char,std::char_traits<char>,std::allocator<char> > const ,sk::iParameter *>,void *> > >::deallocate
PUBLIC	?_Color@?$_Tree_comp_alloc@V?$_Tmap_traits@V?$basic_string@DU?$char_traits@D@std@@V?$allocator@D@2@@std@@PAViParameter@sk@@U?$less@V?$basic_string@DU?$char_traits@D@std@@V?$allocator@D@2@@std@@@2@V?$allocator@U?$pair@$$CBV?$basic_string@DU?$char_traits@D@std@@V?$allocator@D@2@@std@@PAViParameter@sk@@@std@@@2@$0A@@std@@@std@@SAAADPAU?$_Tree_node@U?$pair@$$CBV?$basic_string@DU?$char_traits@D@std@@V?$allocator@D@2@@std@@PAViParameter@sk@@@std@@PAX@2@@Z ; std::_Tree_comp_alloc<std::_Tmap_traits<std::basic_string<char,std::char_traits<char>,std::allocator<char> >,sk::iParameter *,std::less<std::basic_string<char,std::char_traits<char>,std::allocator<char> > >,std::allocator<std::pair<std::basic_string<char,std::char_traits<char>,std::allocator<char> > const ,sk::iParameter *> >,0> >::_Color
PUBLIC	?_Isnil@?$_Tree_comp_alloc@V?$_Tmap_traits@V?$basic_string@DU?$char_traits@D@std@@V?$allocator@D@2@@std@@PAViParameter@sk@@U?$less@V?$basic_string@DU?$char_traits@D@std@@V?$allocator@D@2@@std@@@2@V?$allocator@U?$pair@$$CBV?$basic_string@DU?$char_traits@D@std@@V?$allocator@D@2@@std@@PAViParameter@sk@@@std@@@2@$0A@@std@@@std@@SAAADPAU?$_Tree_node@U?$pair@$$CBV?$basic_string@DU?$char_traits@D@std@@V?$allocator@D@2@@std@@PAViParameter@sk@@@std@@PAX@2@@Z ; std::_Tree_comp_alloc<std::_Tmap_traits<std::basic_string<char,std::char_traits<char>,std::allocator<char> >,sk::iParameter *,std::less<std::basic_string<char,std::char_traits<char>,std::allocator<char> > >,std::allocator<std::pair<std::basic_string<char,std::char_traits<char>,std::allocator<char> > const ,sk::iParameter *> >,0> >::_Isnil
PUBLIC	?_Left@?$_Tree_comp_alloc@V?$_Tmap_traits@V?$basic_string@DU?$char_traits@D@std@@V?$allocator@D@2@@std@@PAViParameter@sk@@U?$less@V?$basic_string@DU?$char_traits@D@std@@V?$allocator@D@2@@std@@@2@V?$allocator@U?$pair@$$CBV?$basic_string@DU?$char_traits@D@std@@V?$allocator@D@2@@std@@PAViParameter@sk@@@std@@@2@$0A@@std@@@std@@SAAAPAU?$_Tree_node@U?$pair@$$CBV?$basic_string@DU?$char_traits@D@std@@V?$allocator@D@2@@std@@PAViParameter@sk@@@std@@PAX@2@PAU32@@Z ; std::_Tree_comp_alloc<std::_Tmap_traits<std::basic_string<char,std::char_traits<char>,std::allocator<char> >,sk::iParameter *,std::less<std::basic_string<char,std::char_traits<char>,std::allocator<char> > >,std::allocator<std::pair<std::basic_string<char,std::char_traits<char>,std::allocator<char> > const ,sk::iParameter *> >,0> >::_Left
PUBLIC	?_Parent@?$_Tree_comp_alloc@V?$_Tmap_traits@V?$basic_string@DU?$char_traits@D@std@@V?$allocator@D@2@@std@@PAViParameter@sk@@U?$less@V?$basic_string@DU?$char_traits@D@std@@V?$allocator@D@2@@std@@@2@V?$allocator@U?$pair@$$CBV?$basic_string@DU?$char_traits@D@std@@V?$allocator@D@2@@std@@PAViParameter@sk@@@std@@@2@$0A@@std@@@std@@SAAAPAU?$_Tree_node@U?$pair@$$CBV?$basic_string@DU?$char_traits@D@std@@V?$allocator@D@2@@std@@PAViParameter@sk@@@std@@PAX@2@PAU32@@Z ; std::_Tree_comp_alloc<std::_Tmap_traits<std::basic_string<char,std::char_traits<char>,std::allocator<char> >,sk::iParameter *,std::less<std::basic_string<char,std::char_traits<char>,std::allocator<char> > >,std::allocator<std::pair<std::basic_string<char,std::char_traits<char>,std::allocator<char> > const ,sk::iParameter *> >,0> >::_Parent
PUBLIC	?_Right@?$_Tree_comp_alloc@V?$_Tmap_traits@V?$basic_string@DU?$char_traits@D@std@@V?$allocator@D@2@@std@@PAViParameter@sk@@U?$less@V?$basic_string@DU?$char_traits@D@std@@V?$allocator@D@2@@std@@@2@V?$allocator@U?$pair@$$CBV?$basic_string@DU?$char_traits@D@std@@V?$allocator@D@2@@std@@PAViParameter@sk@@@std@@@2@$0A@@std@@@std@@SAAAPAU?$_Tree_node@U?$pair@$$CBV?$basic_string@DU?$char_traits@D@std@@V?$allocator@D@2@@std@@PAViParameter@sk@@@std@@PAX@2@PAU32@@Z ; std::_Tree_comp_alloc<std::_Tmap_traits<std::basic_string<char,std::char_traits<char>,std::allocator<char> >,sk::iParameter *,std::less<std::basic_string<char,std::char_traits<char>,std::allocator<char> > >,std::allocator<std::pair<std::basic_string<char,std::char_traits<char>,std::allocator<char> > const ,sk::iParameter *> >,0> >::_Right
PUBLIC	?_Myval@?$_Tree_comp_alloc@V?$_Tmap_traits@V?$basic_string@DU?$char_traits@D@std@@V?$allocator@D@2@@std@@PAViParameter@sk@@U?$less@V?$basic_string@DU?$char_traits@D@std@@V?$allocator@D@2@@std@@@2@V?$allocator@U?$pair@$$CBV?$basic_string@DU?$char_traits@D@std@@V?$allocator@D@2@@std@@PAViParameter@sk@@@std@@@2@$0A@@std@@@std@@SAAAU?$pair@$$CBV?$basic_string@DU?$char_traits@D@std@@V?$allocator@D@2@@std@@PAViParameter@sk@@@2@PAU?$_Tree_node@U?$pair@$$CBV?$basic_string@DU?$char_traits@D@std@@V?$allocator@D@2@@std@@PAViParameter@sk@@@std@@PAX@2@@Z ; std::_Tree_comp_alloc<std::_Tmap_traits<std::basic_string<char,std::char_traits<char>,std::allocator<char> >,sk::iParameter *,std::less<std::basic_string<char,std::char_traits<char>,std::allocator<char> > >,std::allocator<std::pair<std::basic_string<char,std::char_traits<char>,std::allocator<char> > const ,sk::iParameter *> >,0> >::_Myval
PUBLIC	?_Max@?$_Tree_comp_alloc@V?$_Tmap_traits@V?$basic_string@DU?$char_traits@D@std@@V?$allocator@D@2@@std@@PAViParameter@sk@@U?$less@V?$basic_string@DU?$char_traits@D@std@@V?$allocator@D@2@@std@@@2@V?$allocator@U?$pair@$$CBV?$basic_string@DU?$char_traits@D@std@@V?$allocator@D@2@@std@@PAViParameter@sk@@@std@@@2@$0A@@std@@@std@@SAPAU?$_Tree_node@U?$pair@$$CBV?$basic_string@DU?$char_traits@D@std@@V?$allocator@D@2@@std@@PAViParameter@sk@@@std@@PAX@2@PAU32@@Z ; std::_Tree_comp_alloc<std::_Tmap_traits<std::basic_string<char,std::char_traits<char>,std::allocator<char> >,sk::iParameter *,std::less<std::basic_string<char,std::char_traits<char>,std::allocator<char> > >,std::allocator<std::pair<std::basic_string<char,std::char_traits<char>,std::allocator<char> > const ,sk::iParameter *> >,0> >::_Max
PUBLIC	?_Min@?$_Tree_comp_alloc@V?$_Tmap_traits@V?$basic_string@DU?$char_traits@D@std@@V?$allocator@D@2@@std@@PAViParameter@sk@@U?$less@V?$basic_string@DU?$char_traits@D@std@@V?$allocator@D@2@@std@@@2@V?$allocator@U?$pair@$$CBV?$basic_string@DU?$char_traits@D@std@@V?$allocator@D@2@@std@@PAViParameter@sk@@@std@@@2@$0A@@std@@@std@@SAPAU?$_Tree_node@U?$pair@$$CBV?$basic_string@DU?$char_traits@D@std@@V?$allocator@D@2@@std@@PAViParameter@sk@@@std@@PAX@2@PAU32@@Z ; std::_Tree_comp_alloc<std::_Tmap_traits<std::basic_string<char,std::char_traits<char>,std::allocator<char> >,sk::iParameter *,std::less<std::basic_string<char,std::char_traits<char>,std::allocator<char> > >,std::allocator<std::pair<std::basic_string<char,std::char_traits<char>,std::allocator<char> > const ,sk::iParameter *> >,0> >::_Min
PUBLIC	??0?$_Tree_comp_alloc@V?$_Tmap_traits@V?$basic_string@DU?$char_traits@D@std@@V?$allocator@D@2@@std@@PAViParameter@sk@@U?$less@V?$basic_string@DU?$char_traits@D@std@@V?$allocator@D@2@@std@@@2@V?$allocator@U?$pair@$$CBV?$basic_string@DU?$char_traits@D@std@@V?$allocator@D@2@@std@@PAViParameter@sk@@@std@@@2@$0A@@std@@@std@@QAE@ABU?$less@V?$basic_string@DU?$char_traits@D@std@@V?$allocator@D@2@@std@@@1@@Z ; std::_Tree_comp_alloc<std::_Tmap_traits<std::basic_string<char,std::char_traits<char>,std::allocator<char> >,sk::iParameter *,std::less<std::basic_string<char,std::char_traits<char>,std::allocator<char> > >,std::allocator<std::pair<std::basic_string<char,std::char_traits<char>,std::allocator<char> > const ,sk::iParameter *> >,0> >::_Tree_comp_alloc<std::_Tmap_traits<std::basic_string<char,std::char_traits<char>,std::allocator<char> >,sk::iParameter *,std::less<std::basic_string<char,std::char_traits<char>,std::allocator<char> > >,std::allocator<std::pair<std::basic_string<char,std::char_traits<char>,std::allocator<char> > const ,sk::iParameter *> >,0> >
PUBLIC	?_Construct@?$_Tree_comp_alloc@V?$_Tmap_traits@V?$basic_string@DU?$char_traits@D@std@@V?$allocator@D@2@@std@@PAViParameter@sk@@U?$less@V?$basic_string@DU?$char_traits@D@std@@V?$allocator@D@2@@std@@@2@V?$allocator@U?$pair@$$CBV?$basic_string@DU?$char_traits@D@std@@V?$allocator@D@2@@std@@PAViParameter@sk@@@std@@@2@$0A@@std@@@std@@QAEXXZ ; std::_Tree_comp_alloc<std::_Tmap_traits<std::basic_string<char,std::char_traits<char>,std::allocator<char> >,sk::iParameter *,std::less<std::basic_string<char,std::char_traits<char>,std::allocator<char> > >,std::allocator<std::pair<std::basic_string<char,std::char_traits<char>,std::allocator<char> > const ,sk::iParameter *> >,0> >::_Construct
PUBLIC	??1?$_Tree_comp_alloc@V?$_Tmap_traits@V?$basic_string@DU?$char_traits@D@std@@V?$allocator@D@2@@std@@PAViParameter@sk@@U?$less@V?$basic_string@DU?$char_traits@D@std@@V?$allocator@D@2@@std@@@2@V?$allocator@U?$pair@$$CBV?$basic_string@DU?$char_traits@D@std@@V?$allocator@D@2@@std@@PAViParameter@sk@@@std@@@2@$0A@@std@@@std@@QAE@XZ ; std::_Tree_comp_alloc<std::_Tmap_traits<std::basic_string<char,std::char_traits<char>,std::allocator<char> >,sk::iParameter *,std::less<std::basic_string<char,std::char_traits<char>,std::allocator<char> > >,std::allocator<std::pair<std::basic_string<char,std::char_traits<char>,std::allocator<char> > const ,sk::iParameter *> >,0> >::~_Tree_comp_alloc<std::_Tmap_traits<std::basic_string<char,std::char_traits<char>,std::allocator<char> >,sk::iParameter *,std::less<std::basic_string<char,std::char_traits<char>,std::allocator<char> > >,std::allocator<std::pair<std::basic_string<char,std::char_traits<char>,std::allocator<char> > const ,sk::iParameter *> >,0> >
PUBLIC	?_Buyheadnode@?$_Tree_comp_alloc@V?$_Tmap_traits@V?$basic_string@DU?$char_traits@D@std@@V?$allocator@D@2@@std@@PAViParameter@sk@@U?$less@V?$basic_string@DU?$char_traits@D@std@@V?$allocator@D@2@@std@@@2@V?$allocator@U?$pair@$$CBV?$basic_string@DU?$char_traits@D@std@@V?$allocator@D@2@@std@@PAViParameter@sk@@@std@@@2@$0A@@std@@@std@@QAEPAU?$_Tree_node@U?$pair@$$CBV?$basic_string@DU?$char_traits@D@std@@V?$allocator@D@2@@std@@PAViParameter@sk@@@std@@PAX@2@XZ ; std::_Tree_comp_alloc<std::_Tmap_traits<std::basic_string<char,std::char_traits<char>,std::allocator<char> >,sk::iParameter *,std::less<std::basic_string<char,std::char_traits<char>,std::allocator<char> > >,std::allocator<std::pair<std::basic_string<char,std::char_traits<char>,std::allocator<char> > const ,sk::iParameter *> >,0> >::_Buyheadnode
PUBLIC	?_Freeheadnode@?$_Tree_comp_alloc@V?$_Tmap_traits@V?$basic_string@DU?$char_traits@D@std@@V?$allocator@D@2@@std@@PAViParameter@sk@@U?$less@V?$basic_string@DU?$char_traits@D@std@@V?$allocator@D@2@@std@@@2@V?$allocator@U?$pair@$$CBV?$basic_string@DU?$char_traits@D@std@@V?$allocator@D@2@@std@@PAViParameter@sk@@@std@@@2@$0A@@std@@@std@@QAEXPAU?$_Tree_node@U?$pair@$$CBV?$basic_string@DU?$char_traits@D@std@@V?$allocator@D@2@@std@@PAViParameter@sk@@@std@@PAX@2@@Z ; std::_Tree_comp_alloc<std::_Tmap_traits<std::basic_string<char,std::char_traits<char>,std::allocator<char> >,sk::iParameter *,std::less<std::basic_string<char,std::char_traits<char>,std::allocator<char> > >,std::allocator<std::pair<std::basic_string<char,std::char_traits<char>,std::allocator<char> > const ,sk::iParameter *> >,0> >::_Freeheadnode
PUBLIC	?_Getal@?$_Tree_comp_alloc@V?$_Tmap_traits@V?$basic_string@DU?$char_traits@D@std@@V?$allocator@D@2@@std@@PAViParameter@sk@@U?$less@V?$basic_string@DU?$char_traits@D@std@@V?$allocator@D@2@@std@@@2@V?$allocator@U?$pair@$$CBV?$basic_string@DU?$char_traits@D@std@@V?$allocator@D@2@@std@@PAViParameter@sk@@@std@@@2@$0A@@std@@@std@@QAEAAU?$_Wrap_alloc@V?$allocator@U?$_Tree_node@U?$pair@$$CBV?$basic_string@DU?$char_traits@D@std@@V?$allocator@D@2@@std@@PAViParameter@sk@@@std@@PAX@std@@@std@@@2@XZ ; std::_Tree_comp_alloc<std::_Tmap_traits<std::basic_string<char,std::char_traits<char>,std::allocator<char> >,sk::iParameter *,std::less<std::basic_string<char,std::char_traits<char>,std::allocator<char> > >,std::allocator<std::pair<std::basic_string<char,std::char_traits<char>,std::allocator<char> > const ,sk::iParameter *> >,0> >::_Getal
PUBLIC	?_Get_data@?$_Tree_comp_alloc@V?$_Tmap_traits@V?$basic_string@DU?$char_traits@D@std@@V?$allocator@D@2@@std@@PAViParameter@sk@@U?$less@V?$basic_string@DU?$char_traits@D@std@@V?$allocator@D@2@@std@@@2@V?$allocator@U?$pair@$$CBV?$basic_string@DU?$char_traits@D@std@@V?$allocator@D@2@@std@@PAViParameter@sk@@@std@@@2@$0A@@std@@@std@@QAEAAV?$_Tree_val@U?$_Tree_simple_types@U?$pair@$$CBV?$basic_string@DU?$char_traits@D@std@@V?$allocator@D@2@@std@@PAViParameter@sk@@@std@@@std@@@2@XZ ; std::_Tree_comp_alloc<std::_Tmap_traits<std::basic_string<char,std::char_traits<char>,std::allocator<char> >,sk::iParameter *,std::less<std::basic_string<char,std::char_traits<char>,std::allocator<char> > >,std::allocator<std::pair<std::basic_string<char,std::char_traits<char>,std::allocator<char> > const ,sk::iParameter *> >,0> >::_Get_data
PUBLIC	?_Get_data@?$_Tree_comp_alloc@V?$_Tmap_traits@V?$basic_string@DU?$char_traits@D@std@@V?$allocator@D@2@@std@@PAViParameter@sk@@U?$less@V?$basic_string@DU?$char_traits@D@std@@V?$allocator@D@2@@std@@@2@V?$allocator@U?$pair@$$CBV?$basic_string@DU?$char_traits@D@std@@V?$allocator@D@2@@std@@PAViParameter@sk@@@std@@@2@$0A@@std@@@std@@QBEABV?$_Tree_val@U?$_Tree_simple_types@U?$pair@$$CBV?$basic_string@DU?$char_traits@D@std@@V?$allocator@D@2@@std@@PAViParameter@sk@@@std@@@std@@@2@XZ ; std::_Tree_comp_alloc<std::_Tmap_traits<std::basic_string<char,std::char_traits<char>,std::allocator<char> >,sk::iParameter *,std::less<std::basic_string<char,std::char_traits<char>,std::allocator<char> > >,std::allocator<std::pair<std::basic_string<char,std::char_traits<char>,std::allocator<char> > const ,sk::iParameter *> >,0> >::_Get_data
PUBLIC	?_Myhead@?$_Tree_comp_alloc@V?$_Tmap_traits@V?$basic_string@DU?$char_traits@D@std@@V?$allocator@D@2@@std@@PAViParameter@sk@@U?$less@V?$basic_string@DU?$char_traits@D@std@@V?$allocator@D@2@@std@@@2@V?$allocator@U?$pair@$$CBV?$basic_string@DU?$char_traits@D@std@@V?$allocator@D@2@@std@@PAViParameter@sk@@@std@@@2@$0A@@std@@@std@@QAEAAPAU?$_Tree_node@U?$pair@$$CBV?$basic_string@DU?$char_traits@D@std@@V?$allocator@D@2@@std@@PAViParameter@sk@@@std@@PAX@2@XZ ; std::_Tree_comp_alloc<std::_Tmap_traits<std::basic_string<char,std::char_traits<char>,std::allocator<char> >,sk::iParameter *,std::less<std::basic_string<char,std::char_traits<char>,std::allocator<char> > >,std::allocator<std::pair<std::basic_string<char,std::char_traits<char>,std::allocator<char> > const ,sk::iParameter *> >,0> >::_Myhead
PUBLIC	?_Myhead@?$_Tree_comp_alloc@V?$_Tmap_traits@V?$basic_string@DU?$char_traits@D@std@@V?$allocator@D@2@@std@@PAViParameter@sk@@U?$less@V?$basic_string@DU?$char_traits@D@std@@V?$allocator@D@2@@std@@@2@V?$allocator@U?$pair@$$CBV?$basic_string@DU?$char_traits@D@std@@V?$allocator@D@2@@std@@PAViParameter@sk@@@std@@@2@$0A@@std@@@std@@QBEABQAU?$_Tree_node@U?$pair@$$CBV?$basic_string@DU?$char_traits@D@std@@V?$allocator@D@2@@std@@PAViParameter@sk@@@std@@PAX@2@XZ ; std::_Tree_comp_alloc<std::_Tmap_traits<std::basic_string<char,std::char_traits<char>,std::allocator<char> >,sk::iParameter *,std::less<std::basic_string<char,std::char_traits<char>,std::allocator<char> > >,std::allocator<std::pair<std::basic_string<char,std::char_traits<char>,std::allocator<char> > const ,sk::iParameter *> >,0> >::_Myhead
PUBLIC	?_Mysize@?$_Tree_comp_alloc@V?$_Tmap_traits@V?$basic_string@DU?$char_traits@D@std@@V?$allocator@D@2@@std@@PAViParameter@sk@@U?$less@V?$basic_string@DU?$char_traits@D@std@@V?$allocator@D@2@@std@@@2@V?$allocator@U?$pair@$$CBV?$basic_string@DU?$char_traits@D@std@@V?$allocator@D@2@@std@@PAViParameter@sk@@@std@@@2@$0A@@std@@@std@@QAEAAIXZ ; std::_Tree_comp_alloc<std::_Tmap_traits<std::basic_string<char,std::char_traits<char>,std::allocator<char> >,sk::iParameter *,std::less<std::basic_string<char,std::char_traits<char>,std::allocator<char> > >,std::allocator<std::pair<std::basic_string<char,std::char_traits<char>,std::allocator<char> > const ,sk::iParameter *> >,0> >::_Mysize
PUBLIC	??0?$_Tree_val@U?$_Tree_simple_types@U?$pair@$$CBV?$basic_string@DU?$char_traits@D@std@@V?$allocator@D@2@@std@@PAViParameter@sk@@@std@@@std@@@std@@QAE@XZ ; std::_Tree_val<std::_Tree_simple_types<std::pair<std::basic_string<char,std::char_traits<char>,std::allocator<char> > const ,sk::iParameter *> > >::_Tree_val<std::_Tree_simple_types<std::pair<std::basic_string<char,std::char_traits<char>,std::allocator<char> > const ,sk::iParameter *> > >
PUBLIC	?_Color@?$_Tree_val@U?$_Tree_simple_types@U?$pair@$$CBV?$basic_string@DU?$char_traits@D@std@@V?$allocator@D@2@@std@@PAViParameter@sk@@@std@@@std@@@std@@SAAADPAU?$_Tree_node@U?$pair@$$CBV?$basic_string@DU?$char_traits@D@std@@V?$allocator@D@2@@std@@PAViParameter@sk@@@std@@PAX@2@@Z ; std::_Tree_val<std::_Tree_simple_types<std::pair<std::basic_string<char,std::char_traits<char>,std::allocator<char> > const ,sk::iParameter *> > >::_Color
PUBLIC	?_Isnil@?$_Tree_val@U?$_Tree_simple_types@U?$pair@$$CBV?$basic_string@DU?$char_traits@D@std@@V?$allocator@D@2@@std@@PAViParameter@sk@@@std@@@std@@@std@@SAAADPAU?$_Tree_node@U?$pair@$$CBV?$basic_string@DU?$char_traits@D@std@@V?$allocator@D@2@@std@@PAViParameter@sk@@@std@@PAX@2@@Z ; std::_Tree_val<std::_Tree_simple_types<std::pair<std::basic_string<char,std::char_traits<char>,std::allocator<char> > const ,sk::iParameter *> > >::_Isnil
PUBLIC	?_Left@?$_Tree_val@U?$_Tree_simple_types@U?$pair@$$CBV?$basic_string@DU?$char_traits@D@std@@V?$allocator@D@2@@std@@PAViParameter@sk@@@std@@@std@@@std@@SAAAPAU?$_Tree_node@U?$pair@$$CBV?$basic_string@DU?$char_traits@D@std@@V?$allocator@D@2@@std@@PAViParameter@sk@@@std@@PAX@2@PAU32@@Z ; std::_Tree_val<std::_Tree_simple_types<std::pair<std::basic_string<char,std::char_traits<char>,std::allocator<char> > const ,sk::iParameter *> > >::_Left
PUBLIC	?_Parent@?$_Tree_val@U?$_Tree_simple_types@U?$pair@$$CBV?$basic_string@DU?$char_traits@D@std@@V?$allocator@D@2@@std@@PAViParameter@sk@@@std@@@std@@@std@@SAAAPAU?$_Tree_node@U?$pair@$$CBV?$basic_string@DU?$char_traits@D@std@@V?$allocator@D@2@@std@@PAViParameter@sk@@@std@@PAX@2@PAU32@@Z ; std::_Tree_val<std::_Tree_simple_types<std::pair<std::basic_string<char,std::char_traits<char>,std::allocator<char> > const ,sk::iParameter *> > >::_Parent
PUBLIC	?_Right@?$_Tree_val@U?$_Tree_simple_types@U?$pair@$$CBV?$basic_string@DU?$char_traits@D@std@@V?$allocator@D@2@@std@@PAViParameter@sk@@@std@@@std@@@std@@SAAAPAU?$_Tree_node@U?$pair@$$CBV?$basic_string@DU?$char_traits@D@std@@V?$allocator@D@2@@std@@PAViParameter@sk@@@std@@PAX@2@PAU32@@Z ; std::_Tree_val<std::_Tree_simple_types<std::pair<std::basic_string<char,std::char_traits<char>,std::allocator<char> > const ,sk::iParameter *> > >::_Right
PUBLIC	?_Myval@?$_Tree_val@U?$_Tree_simple_types@U?$pair@$$CBV?$basic_string@DU?$char_traits@D@std@@V?$allocator@D@2@@std@@PAViParameter@sk@@@std@@@std@@@std@@SAAAU?$pair@$$CBV?$basic_string@DU?$char_traits@D@std@@V?$allocator@D@2@@std@@PAViParameter@sk@@@2@PAU?$_Tree_node@U?$pair@$$CBV?$basic_string@DU?$char_traits@D@std@@V?$allocator@D@2@@std@@PAViParameter@sk@@@std@@PAX@2@@Z ; std::_Tree_val<std::_Tree_simple_types<std::pair<std::basic_string<char,std::char_traits<char>,std::allocator<char> > const ,sk::iParameter *> > >::_Myval
PUBLIC	?_Max@?$_Tree_val@U?$_Tree_simple_types@U?$pair@$$CBV?$basic_string@DU?$char_traits@D@std@@V?$allocator@D@2@@std@@PAViParameter@sk@@@std@@@std@@@std@@SAPAU?$_Tree_node@U?$pair@$$CBV?$basic_string@DU?$char_traits@D@std@@V?$allocator@D@2@@std@@PAViParameter@sk@@@std@@PAX@2@PAU32@@Z ; std::_Tree_val<std::_Tree_simple_types<std::pair<std::basic_string<char,std::char_traits<char>,std::allocator<char> > const ,sk::iParameter *> > >::_Max
PUBLIC	?_Min@?$_Tree_val@U?$_Tree_simple_types@U?$pair@$$CBV?$basic_string@DU?$char_traits@D@std@@V?$allocator@D@2@@std@@PAViParameter@sk@@@std@@@std@@@std@@SAPAU?$_Tree_node@U?$pair@$$CBV?$basic_string@DU?$char_traits@D@std@@V?$allocator@D@2@@std@@PAViParameter@sk@@@std@@PAX@2@PAU32@@Z ; std::_Tree_val<std::_Tree_simple_types<std::pair<std::basic_string<char,std::char_traits<char>,std::allocator<char> > const ,sk::iParameter *> > >::_Min
PUBLIC	?_Get_first@?$_Compressed_pair@U?$_Wrap_alloc@V?$allocator@U?$_Tree_node@U?$pair@$$CBV?$basic_string@DU?$char_traits@D@std@@V?$allocator@D@2@@std@@PAViParameter@sk@@@std@@PAX@std@@@std@@@std@@V?$_Tree_val@U?$_Tree_simple_types@U?$pair@$$CBV?$basic_string@DU?$char_traits@D@std@@V?$allocator@D@2@@std@@PAViParameter@sk@@@std@@@std@@@2@$00@std@@QAEAAU?$_Wrap_alloc@V?$allocator@U?$_Tree_node@U?$pair@$$CBV?$basic_string@DU?$char_traits@D@std@@V?$allocator@D@2@@std@@PAViParameter@sk@@@std@@PAX@std@@@std@@@2@XZ ; std::_Compressed_pair<std::_Wrap_alloc<std::allocator<std::_Tree_node<std::pair<std::basic_string<char,std::char_traits<char>,std::allocator<char> > const ,sk::iParameter *>,void *> > >,std::_Tree_val<std::_Tree_simple_types<std::pair<std::basic_string<char,std::char_traits<char>,std::allocator<char> > const ,sk::iParameter *> > >,1>::_Get_first
PUBLIC	?_Get_second@?$_Compressed_pair@U?$_Wrap_alloc@V?$allocator@U?$_Tree_node@U?$pair@$$CBV?$basic_string@DU?$char_traits@D@std@@V?$allocator@D@2@@std@@PAViParameter@sk@@@std@@PAX@std@@@std@@@std@@V?$_Tree_val@U?$_Tree_simple_types@U?$pair@$$CBV?$basic_string@DU?$char_traits@D@std@@V?$allocator@D@2@@std@@PAViParameter@sk@@@std@@@std@@@2@$00@std@@QAEAAV?$_Tree_val@U?$_Tree_simple_types@U?$pair@$$CBV?$basic_string@DU?$char_traits@D@std@@V?$allocator@D@2@@std@@PAViParameter@sk@@@std@@@std@@@2@XZ ; std::_Compressed_pair<std::_Wrap_alloc<std::allocator<std::_Tree_node<std::pair<std::basic_string<char,std::char_traits<char>,std::allocator<char> > const ,sk::iParameter *>,void *> > >,std::_Tree_val<std::_Tree_simple_types<std::pair<std::basic_string<char,std::char_traits<char>,std::allocator<char> > const ,sk::iParameter *> > >,1>::_Get_second
PUBLIC	?_Get_second@?$_Compressed_pair@U?$_Wrap_alloc@V?$allocator@U?$_Tree_node@U?$pair@$$CBV?$basic_string@DU?$char_traits@D@std@@V?$allocator@D@2@@std@@PAViParameter@sk@@@std@@PAX@std@@@std@@@std@@V?$_Tree_val@U?$_Tree_simple_types@U?$pair@$$CBV?$basic_string@DU?$char_traits@D@std@@V?$allocator@D@2@@std@@PAViParameter@sk@@@std@@@std@@@2@$00@std@@QBEABV?$_Tree_val@U?$_Tree_simple_types@U?$pair@$$CBV?$basic_string@DU?$char_traits@D@std@@V?$allocator@D@2@@std@@PAViParameter@sk@@@std@@@std@@@2@XZ ; std::_Compressed_pair<std::_Wrap_alloc<std::allocator<std::_Tree_node<std::pair<std::basic_string<char,std::char_traits<char>,std::allocator<char> > const ,sk::iParameter *>,void *> > >,std::_Tree_val<std::_Tree_simple_types<std::pair<std::basic_string<char,std::char_traits<char>,std::allocator<char> > const ,sk::iParameter *> > >,1>::_Get_second
PUBLIC	?_Get_second@?$_Compressed_pair@U?$less@V?$basic_string@DU?$char_traits@D@std@@V?$allocator@D@2@@std@@@std@@V?$_Compressed_pair@U?$_Wrap_alloc@V?$allocator@U?$_Tree_node@U?$pair@$$CBV?$basic_string@DU?$char_traits@D@std@@V?$allocator@D@2@@std@@PAViParameter@sk@@@std@@PAX@std@@@std@@@std@@V?$_Tree_val@U?$_Tree_simple_types@U?$pair@$$CBV?$basic_string@DU?$char_traits@D@std@@V?$allocator@D@2@@std@@PAViParameter@sk@@@std@@@std@@@2@$00@2@$00@std@@QAEAAV?$_Compressed_pair@U?$_Wrap_alloc@V?$allocator@U?$_Tree_node@U?$pair@$$CBV?$basic_string@DU?$char_traits@D@std@@V?$allocator@D@2@@std@@PAViParameter@sk@@@std@@PAX@std@@@std@@@std@@V?$_Tree_val@U?$_Tree_simple_types@U?$pair@$$CBV?$basic_string@DU?$char_traits@D@std@@V?$allocator@D@2@@std@@PAViParameter@sk@@@std@@@std@@@2@$00@2@XZ ; std::_Compressed_pair<std::less<std::basic_string<char,std::char_traits<char>,std::allocator<char> > >,std::_Compressed_pair<std::_Wrap_alloc<std::allocator<std::_Tree_node<std::pair<std::basic_string<char,std::char_traits<char>,std::allocator<char> > const ,sk::iParameter *>,void *> > >,std::_Tree_val<std::_Tree_simple_types<std::pair<std::basic_string<char,std::char_traits<char>,std::allocator<char> > const ,sk::iParameter *> > >,1>,1>::_Get_second
PUBLIC	?_Get_second@?$_Compressed_pair@U?$less@V?$basic_string@DU?$char_traits@D@std@@V?$allocator@D@2@@std@@@std@@V?$_Compressed_pair@U?$_Wrap_alloc@V?$allocator@U?$_Tree_node@U?$pair@$$CBV?$basic_string@DU?$char_traits@D@std@@V?$allocator@D@2@@std@@PAViParameter@sk@@@std@@PAX@std@@@std@@@std@@V?$_Tree_val@U?$_Tree_simple_types@U?$pair@$$CBV?$basic_string@DU?$char_traits@D@std@@V?$allocator@D@2@@std@@PAViParameter@sk@@@std@@@std@@@2@$00@2@$00@std@@QBEABV?$_Compressed_pair@U?$_Wrap_alloc@V?$allocator@U?$_Tree_node@U?$pair@$$CBV?$basic_string@DU?$char_traits@D@std@@V?$allocator@D@2@@std@@PAViParameter@sk@@@std@@PAX@std@@@std@@@std@@V?$_Tree_val@U?$_Tree_simple_types@U?$pair@$$CBV?$basic_string@DU?$char_traits@D@std@@V?$allocator@D@2@@std@@PAViParameter@sk@@@std@@@std@@@2@$00@2@XZ ; std::_Compressed_pair<std::less<std::basic_string<char,std::char_traits<char>,std::allocator<char> > >,std::_Compressed_pair<std::_Wrap_alloc<std::allocator<std::_Tree_node<std::pair<std::basic_string<char,std::char_traits<char>,std::allocator<char> > const ,sk::iParameter *>,void *> > >,std::_Tree_val<std::_Tree_simple_types<std::pair<std::basic_string<char,std::char_traits<char>,std::allocator<char> > const ,sk::iParameter *> > >,1>,1>::_Get_second
PUBLIC	??0?$_Tree@V?$_Tmap_traits@V?$basic_string@DU?$char_traits@D@std@@V?$allocator@D@2@@std@@PAViParameter@sk@@U?$less@V?$basic_string@DU?$char_traits@D@std@@V?$allocator@D@2@@std@@@2@V?$allocator@U?$pair@$$CBV?$basic_string@DU?$char_traits@D@std@@V?$allocator@D@2@@std@@PAViParameter@sk@@@std@@@2@$0A@@std@@@std@@QAE@ABU?$less@V?$basic_string@DU?$char_traits@D@std@@V?$allocator@D@2@@std@@@1@@Z ; std::_Tree<std::_Tmap_traits<std::basic_string<char,std::char_traits<char>,std::allocator<char> >,sk::iParameter *,std::less<std::basic_string<char,std::char_traits<char>,std::allocator<char> > >,std::allocator<std::pair<std::basic_string<char,std::char_traits<char>,std::allocator<char> > const ,sk::iParameter *> >,0> >::_Tree<std::_Tmap_traits<std::basic_string<char,std::char_traits<char>,std::allocator<char> >,sk::iParameter *,std::less<std::basic_string<char,std::char_traits<char>,std::allocator<char> > >,std::allocator<std::pair<std::basic_string<char,std::char_traits<char>,std::allocator<char> > const ,sk::iParameter *> >,0> >
PUBLIC	??1?$_Tree@V?$_Tmap_traits@V?$basic_string@DU?$char_traits@D@std@@V?$allocator@D@2@@std@@PAViParameter@sk@@U?$less@V?$basic_string@DU?$char_traits@D@std@@V?$allocator@D@2@@std@@@2@V?$allocator@U?$pair@$$CBV?$basic_string@DU?$char_traits@D@std@@V?$allocator@D@2@@std@@PAViParameter@sk@@@std@@@2@$0A@@std@@@std@@QAE@XZ ; std::_Tree<std::_Tmap_traits<std::basic_string<char,std::char_traits<char>,std::allocator<char> >,sk::iParameter *,std::less<std::basic_string<char,std::char_traits<char>,std::allocator<char> > >,std::allocator<std::pair<std::basic_string<char,std::char_traits<char>,std::allocator<char> > const ,sk::iParameter *> >,0> >::~_Tree<std::_Tmap_traits<std::basic_string<char,std::char_traits<char>,std::allocator<char> >,sk::iParameter *,std::less<std::basic_string<char,std::char_traits<char>,std::allocator<char> > >,std::allocator<std::pair<std::basic_string<char,std::char_traits<char>,std::allocator<char> > const ,sk::iParameter *> >,0> >
PUBLIC	?begin@?$_Tree@V?$_Tmap_traits@V?$basic_string@DU?$char_traits@D@std@@V?$allocator@D@2@@std@@PAViParameter@sk@@U?$less@V?$basic_string@DU?$char_traits@D@std@@V?$allocator@D@2@@std@@@2@V?$allocator@U?$pair@$$CBV?$basic_string@DU?$char_traits@D@std@@V?$allocator@D@2@@std@@PAViParameter@sk@@@std@@@2@$0A@@std@@@std@@QAE?AV?$_Tree_iterator@V?$_Tree_val@U?$_Tree_simple_types@U?$pair@$$CBV?$basic_string@DU?$char_traits@D@std@@V?$allocator@D@2@@std@@PAViParameter@sk@@@std@@@std@@@std@@@2@XZ ; std::_Tree<std::_Tmap_traits<std::basic_string<char,std::char_traits<char>,std::allocator<char> >,sk::iParameter *,std::less<std::basic_string<char,std::char_traits<char>,std::allocator<char> > >,std::allocator<std::pair<std::basic_string<char,std::char_traits<char>,std::allocator<char> > const ,sk::iParameter *> >,0> >::begin
PUBLIC	?end@?$_Tree@V?$_Tmap_traits@V?$basic_string@DU?$char_traits@D@std@@V?$allocator@D@2@@std@@PAViParameter@sk@@U?$less@V?$basic_string@DU?$char_traits@D@std@@V?$allocator@D@2@@std@@@2@V?$allocator@U?$pair@$$CBV?$basic_string@DU?$char_traits@D@std@@V?$allocator@D@2@@std@@PAViParameter@sk@@@std@@@2@$0A@@std@@@std@@QAE?AV?$_Tree_iterator@V?$_Tree_val@U?$_Tree_simple_types@U?$pair@$$CBV?$basic_string@DU?$char_traits@D@std@@V?$allocator@D@2@@std@@PAViParameter@sk@@@std@@@std@@@std@@@2@XZ ; std::_Tree<std::_Tmap_traits<std::basic_string<char,std::char_traits<char>,std::allocator<char> >,sk::iParameter *,std::less<std::basic_string<char,std::char_traits<char>,std::allocator<char> > >,std::allocator<std::pair<std::basic_string<char,std::char_traits<char>,std::allocator<char> > const ,sk::iParameter *> >,0> >::end
PUBLIC	?erase@?$_Tree@V?$_Tmap_traits@V?$basic_string@DU?$char_traits@D@std@@V?$allocator@D@2@@std@@PAViParameter@sk@@U?$less@V?$basic_string@DU?$char_traits@D@std@@V?$allocator@D@2@@std@@@2@V?$allocator@U?$pair@$$CBV?$basic_string@DU?$char_traits@D@std@@V?$allocator@D@2@@std@@PAViParameter@sk@@@std@@@2@$0A@@std@@@std@@QAE?AV?$_Tree_iterator@V?$_Tree_val@U?$_Tree_simple_types@U?$pair@$$CBV?$basic_string@DU?$char_traits@D@std@@V?$allocator@D@2@@std@@PAViParameter@sk@@@std@@@std@@@std@@@2@V?$_Tree_const_iterator@V?$_Tree_val@U?$_Tree_simple_types@U?$pair@$$CBV?$basic_string@DU?$char_traits@D@std@@V?$allocator@D@2@@std@@PAViParameter@sk@@@std@@@std@@@std@@@2@@Z ; std::_Tree<std::_Tmap_traits<std::basic_string<char,std::char_traits<char>,std::allocator<char> >,sk::iParameter *,std::less<std::basic_string<char,std::char_traits<char>,std::allocator<char> > >,std::allocator<std::pair<std::basic_string<char,std::char_traits<char>,std::allocator<char> > const ,sk::iParameter *> >,0> >::erase
PUBLIC	?erase@?$_Tree@V?$_Tmap_traits@V?$basic_string@DU?$char_traits@D@std@@V?$allocator@D@2@@std@@PAViParameter@sk@@U?$less@V?$basic_string@DU?$char_traits@D@std@@V?$allocator@D@2@@std@@@2@V?$allocator@U?$pair@$$CBV?$basic_string@DU?$char_traits@D@std@@V?$allocator@D@2@@std@@PAViParameter@sk@@@std@@@2@$0A@@std@@@std@@QAE?AV?$_Tree_iterator@V?$_Tree_val@U?$_Tree_simple_types@U?$pair@$$CBV?$basic_string@DU?$char_traits@D@std@@V?$allocator@D@2@@std@@PAViParameter@sk@@@std@@@std@@@std@@@2@V?$_Tree_const_iterator@V?$_Tree_val@U?$_Tree_simple_types@U?$pair@$$CBV?$basic_string@DU?$char_traits@D@std@@V?$allocator@D@2@@std@@PAViParameter@sk@@@std@@@std@@@std@@@2@0@Z ; std::_Tree<std::_Tmap_traits<std::basic_string<char,std::char_traits<char>,std::allocator<char> >,sk::iParameter *,std::less<std::basic_string<char,std::char_traits<char>,std::allocator<char> > >,std::allocator<std::pair<std::basic_string<char,std::char_traits<char>,std::allocator<char> > const ,sk::iParameter *> >,0> >::erase
PUBLIC	?clear@?$_Tree@V?$_Tmap_traits@V?$basic_string@DU?$char_traits@D@std@@V?$allocator@D@2@@std@@PAViParameter@sk@@U?$less@V?$basic_string@DU?$char_traits@D@std@@V?$allocator@D@2@@std@@@2@V?$allocator@U?$pair@$$CBV?$basic_string@DU?$char_traits@D@std@@V?$allocator@D@2@@std@@PAViParameter@sk@@@std@@@2@$0A@@std@@@std@@QAEXXZ ; std::_Tree<std::_Tmap_traits<std::basic_string<char,std::char_traits<char>,std::allocator<char> >,sk::iParameter *,std::less<std::basic_string<char,std::char_traits<char>,std::allocator<char> > >,std::allocator<std::pair<std::basic_string<char,std::char_traits<char>,std::allocator<char> > const ,sk::iParameter *> >,0> >::clear
PUBLIC	?_Erase@?$_Tree@V?$_Tmap_traits@V?$basic_string@DU?$char_traits@D@std@@V?$allocator@D@2@@std@@PAViParameter@sk@@U?$less@V?$basic_string@DU?$char_traits@D@std@@V?$allocator@D@2@@std@@@2@V?$allocator@U?$pair@$$CBV?$basic_string@DU?$char_traits@D@std@@V?$allocator@D@2@@std@@PAViParameter@sk@@@std@@@2@$0A@@std@@@std@@IAEXPAU?$_Tree_node@U?$pair@$$CBV?$basic_string@DU?$char_traits@D@std@@V?$allocator@D@2@@std@@PAViParameter@sk@@@std@@PAX@2@@Z ; std::_Tree<std::_Tmap_traits<std::basic_string<char,std::char_traits<char>,std::allocator<char> >,sk::iParameter *,std::less<std::basic_string<char,std::char_traits<char>,std::allocator<char> > >,std::allocator<std::pair<std::basic_string<char,std::char_traits<char>,std::allocator<char> > const ,sk::iParameter *> >,0> >::_Erase
PUBLIC	?_Lmost@?$_Tree@V?$_Tmap_traits@V?$basic_string@DU?$char_traits@D@std@@V?$allocator@D@2@@std@@PAViParameter@sk@@U?$less@V?$basic_string@DU?$char_traits@D@std@@V?$allocator@D@2@@std@@@2@V?$allocator@U?$pair@$$CBV?$basic_string@DU?$char_traits@D@std@@V?$allocator@D@2@@std@@PAViParameter@sk@@@std@@@2@$0A@@std@@@std@@IBEAAPAU?$_Tree_node@U?$pair@$$CBV?$basic_string@DU?$char_traits@D@std@@V?$allocator@D@2@@std@@PAViParameter@sk@@@std@@PAX@2@XZ ; std::_Tree<std::_Tmap_traits<std::basic_string<char,std::char_traits<char>,std::allocator<char> >,sk::iParameter *,std::less<std::basic_string<char,std::char_traits<char>,std::allocator<char> > >,std::allocator<std::pair<std::basic_string<char,std::char_traits<char>,std::allocator<char> > const ,sk::iParameter *> >,0> >::_Lmost
PUBLIC	?_Lrotate@?$_Tree@V?$_Tmap_traits@V?$basic_string@DU?$char_traits@D@std@@V?$allocator@D@2@@std@@PAViParameter@sk@@U?$less@V?$basic_string@DU?$char_traits@D@std@@V?$allocator@D@2@@std@@@2@V?$allocator@U?$pair@$$CBV?$basic_string@DU?$char_traits@D@std@@V?$allocator@D@2@@std@@PAViParameter@sk@@@std@@@2@$0A@@std@@@std@@IAEXPAU?$_Tree_node@U?$pair@$$CBV?$basic_string@DU?$char_traits@D@std@@V?$allocator@D@2@@std@@PAViParameter@sk@@@std@@PAX@2@@Z ; std::_Tree<std::_Tmap_traits<std::basic_string<char,std::char_traits<char>,std::allocator<char> >,sk::iParameter *,std::less<std::basic_string<char,std::char_traits<char>,std::allocator<char> > >,std::allocator<std::pair<std::basic_string<char,std::char_traits<char>,std::allocator<char> > const ,sk::iParameter *> >,0> >::_Lrotate
PUBLIC	?_Rmost@?$_Tree@V?$_Tmap_traits@V?$basic_string@DU?$char_traits@D@std@@V?$allocator@D@2@@std@@PAViParameter@sk@@U?$less@V?$basic_string@DU?$char_traits@D@std@@V?$allocator@D@2@@std@@@2@V?$allocator@U?$pair@$$CBV?$basic_string@DU?$char_traits@D@std@@V?$allocator@D@2@@std@@PAViParameter@sk@@@std@@@2@$0A@@std@@@std@@IBEAAPAU?$_Tree_node@U?$pair@$$CBV?$basic_string@DU?$char_traits@D@std@@V?$allocator@D@2@@std@@PAViParameter@sk@@@std@@PAX@2@XZ ; std::_Tree<std::_Tmap_traits<std::basic_string<char,std::char_traits<char>,std::allocator<char> >,sk::iParameter *,std::less<std::basic_string<char,std::char_traits<char>,std::allocator<char> > >,std::allocator<std::pair<std::basic_string<char,std::char_traits<char>,std::allocator<char> > const ,sk::iParameter *> >,0> >::_Rmost
PUBLIC	?_Root@?$_Tree@V?$_Tmap_traits@V?$basic_string@DU?$char_traits@D@std@@V?$allocator@D@2@@std@@PAViParameter@sk@@U?$less@V?$basic_string@DU?$char_traits@D@std@@V?$allocator@D@2@@std@@@2@V?$allocator@U?$pair@$$CBV?$basic_string@DU?$char_traits@D@std@@V?$allocator@D@2@@std@@PAViParameter@sk@@@std@@@2@$0A@@std@@@std@@IBEAAPAU?$_Tree_node@U?$pair@$$CBV?$basic_string@DU?$char_traits@D@std@@V?$allocator@D@2@@std@@PAViParameter@sk@@@std@@PAX@2@XZ ; std::_Tree<std::_Tmap_traits<std::basic_string<char,std::char_traits<char>,std::allocator<char> >,sk::iParameter *,std::less<std::basic_string<char,std::char_traits<char>,std::allocator<char> > >,std::allocator<std::pair<std::basic_string<char,std::char_traits<char>,std::allocator<char> > const ,sk::iParameter *> >,0> >::_Root
PUBLIC	?_Rrotate@?$_Tree@V?$_Tmap_traits@V?$basic_string@DU?$char_traits@D@std@@V?$allocator@D@2@@std@@PAViParameter@sk@@U?$less@V?$basic_string@DU?$char_traits@D@std@@V?$allocator@D@2@@std@@@2@V?$allocator@U?$pair@$$CBV?$basic_string@DU?$char_traits@D@std@@V?$allocator@D@2@@std@@PAViParameter@sk@@@std@@@2@$0A@@std@@@std@@IAEXPAU?$_Tree_node@U?$pair@$$CBV?$basic_string@DU?$char_traits@D@std@@V?$allocator@D@2@@std@@PAViParameter@sk@@@std@@PAX@2@@Z ; std::_Tree<std::_Tmap_traits<std::basic_string<char,std::char_traits<char>,std::allocator<char> >,sk::iParameter *,std::less<std::basic_string<char,std::char_traits<char>,std::allocator<char> > >,std::allocator<std::pair<std::basic_string<char,std::char_traits<char>,std::allocator<char> > const ,sk::iParameter *> >,0> >::_Rrotate
PUBLIC	?_Tidy@?$_Tree@V?$_Tmap_traits@V?$basic_string@DU?$char_traits@D@std@@V?$allocator@D@2@@std@@PAViParameter@sk@@U?$less@V?$basic_string@DU?$char_traits@D@std@@V?$allocator@D@2@@std@@@2@V?$allocator@U?$pair@$$CBV?$basic_string@DU?$char_traits@D@std@@V?$allocator@D@2@@std@@PAViParameter@sk@@@std@@@2@$0A@@std@@@std@@IAEXXZ ; std::_Tree<std::_Tmap_traits<std::basic_string<char,std::char_traits<char>,std::allocator<char> >,sk::iParameter *,std::less<std::basic_string<char,std::char_traits<char>,std::allocator<char> > >,std::allocator<std::pair<std::basic_string<char,std::char_traits<char>,std::allocator<char> > const ,sk::iParameter *> >,0> >::_Tidy
PUBLIC	??0?$map@V?$basic_string@DU?$char_traits@D@std@@V?$allocator@D@2@@std@@PAViParameter@sk@@U?$less@V?$basic_string@DU?$char_traits@D@std@@V?$allocator@D@2@@std@@@2@V?$allocator@U?$pair@$$CBV?$basic_string@DU?$char_traits@D@std@@V?$allocator@D@2@@std@@PAViParameter@sk@@@std@@@2@@std@@QAE@XZ ; std::map<std::basic_string<char,std::char_traits<char>,std::allocator<char> >,sk::iParameter *,std::less<std::basic_string<char,std::char_traits<char>,std::allocator<char> > >,std::allocator<std::pair<std::basic_string<char,std::char_traits<char>,std::allocator<char> > const ,sk::iParameter *> > >::map<std::basic_string<char,std::char_traits<char>,std::allocator<char> >,sk::iParameter *,std::less<std::basic_string<char,std::char_traits<char>,std::allocator<char> > >,std::allocator<std::pair<std::basic_string<char,std::char_traits<char>,std::allocator<char> > const ,sk::iParameter *> > >
PUBLIC	??1?$map@V?$basic_string@DU?$char_traits@D@std@@V?$allocator@D@2@@std@@PAViParameter@sk@@U?$less@V?$basic_string@DU?$char_traits@D@std@@V?$allocator@D@2@@std@@@2@V?$allocator@U?$pair@$$CBV?$basic_string@DU?$char_traits@D@std@@V?$allocator@D@2@@std@@PAViParameter@sk@@@std@@@2@@std@@QAE@XZ ; std::map<std::basic_string<char,std::char_traits<char>,std::allocator<char> >,sk::iParameter *,std::less<std::basic_string<char,std::char_traits<char>,std::allocator<char> > >,std::allocator<std::pair<std::basic_string<char,std::char_traits<char>,std::allocator<char> > const ,sk::iParameter *> > >::~map<std::basic_string<char,std::char_traits<char>,std::allocator<char> >,sk::iParameter *,std::less<std::basic_string<char,std::char_traits<char>,std::allocator<char> > >,std::allocator<std::pair<std::basic_string<char,std::char_traits<char>,std::allocator<char> > const ,sk::iParameter *> > >
PUBLIC	??1SK_Widget@@QAE@XZ				; SK_Widget::~SK_Widget
PUBLIC	??__K_GHz@@YAMO@Z				; operator "" _GHz
PUBLIC	??__K_MiB@@YAMO@Z				; operator "" _MiB
PUBLIC	??0SKWG_GPU_Monitor@@QAE@XZ			; SKWG_GPU_Monitor::SKWG_GPU_Monitor
PUBLIC	?run@SKWG_GPU_Monitor@@UAEXXZ			; SKWG_GPU_Monitor::run
PUBLIC	?draw@SKWG_GPU_Monitor@@UAEXXZ			; SKWG_GPU_Monitor::draw
PUBLIC	?OnConfig@SKWG_GPU_Monitor@@UAEXW4ConfigEvent@SK_Widget@@@Z ; SKWG_GPU_Monitor::OnConfig
PUBLIC	?getCapacity@?$SK_Stat_DataHistory@M$0GA@@@QAEHXZ ; SK_Stat_DataHistory<float,96>::getCapacity
PUBLIC	?getUpdates@?$SK_Stat_DataHistory@M$0GA@@@QAEHXZ ; SK_Stat_DataHistory<float,96>::getUpdates
PUBLIC	?addValue@?$SK_Stat_DataHistory@M$0GA@@@QAEXM_N@Z ; SK_Stat_DataHistory<float,96>::addValue
PUBLIC	?getMin@?$SK_Stat_DataHistory@M$0GA@@@QAEMXZ	; SK_Stat_DataHistory<float,96>::getMin
PUBLIC	?getMax@?$SK_Stat_DataHistory@M$0GA@@@QAEMXZ	; SK_Stat_DataHistory<float,96>::getMax
PUBLIC	?getAvg@?$SK_Stat_DataHistory@M$0GA@@@QAEMXZ	; SK_Stat_DataHistory<float,96>::getAvg
PUBLIC	?getOffset@?$SK_Stat_DataHistory@M$0GA@@@QAEHXZ	; SK_Stat_DataHistory<float,96>::getOffset
PUBLIC	?getValues@?$SK_Stat_DataHistory@M$0GA@@@QAEAAV?$array@M$0GA@@std@@XZ ; SK_Stat_DataHistory<float,96>::getValues
PUBLIC	?calcStats@?$SK_Stat_DataHistory@M$0GA@@@IAEXXZ	; SK_Stat_DataHistory<float,96>::calcStats
PUBLIC	?begin@?$array@M$0GA@@std@@QAE?AV?$_Array_iterator@M$0GA@@2@XZ ; std::array<float,96>::begin
PUBLIC	?end@?$array@M$0GA@@std@@QAE?AV?$_Array_iterator@M$0GA@@2@XZ ; std::array<float,96>::end
PUBLIC	??A?$array@M$0GA@@std@@QAEAAMI@Z		; std::array<float,96>::operator[]
PUBLIC	?data@?$array@M$0GA@@std@@QAEPAMXZ		; std::array<float,96>::data
PUBLIC	??0stat_cache_s@?$SK_Stat_DataHistory@M$0GA@@@QAE@XZ ; SK_Stat_DataHistory<float,96>::stat_cache_s::stat_cache_s
PUBLIC	??0?$SK_Stat_DataHistory@M$0GA@@@QAE@XZ		; SK_Stat_DataHistory<float,96>::SK_Stat_DataHistory<float,96>
PUBLIC	??0stat_cache_s@?$SK_Stat_DataHistory@_K$0GA@@@QAE@XZ ; SK_Stat_DataHistory<unsigned __int64,96>::stat_cache_s::stat_cache_s
PUBLIC	??0?$SK_Stat_DataHistory@_K$0GA@@@QAE@XZ	; SK_Stat_DataHistory<unsigned __int64,96>::SK_Stat_DataHistory<unsigned __int64,96>
PUBLIC	??0stat_cache_s@?$SK_Stat_DataHistory@I$0GA@@@QAE@XZ ; SK_Stat_DataHistory<unsigned int,96>::stat_cache_s::stat_cache_s
PUBLIC	??0?$SK_Stat_DataHistory@I$0GA@@@QAE@XZ		; SK_Stat_DataHistory<unsigned int,96>::SK_Stat_DataHistory<unsigned int,96>
PUBLIC	??1SKWG_GPU_Monitor@@QAE@XZ			; SKWG_GPU_Monitor::~SKWG_GPU_Monitor
PUBLIC	??$min@M@std@@YAABMABM0@Z			; std::min<float>
PUBLIC	??$max@M@std@@YAABMABM0@Z			; std::max<float>
PUBLIC	??$addressof@$$CBV?$basic_string@_WU?$char_traits@_W@std@@V?$allocator@_W@2@@std@@@std@@YAPBV?$basic_string@_WU?$char_traits@_W@std@@V?$allocator@_W@2@@0@ABV10@@Z ; std::addressof<std::basic_string<wchar_t,std::char_traits<wchar_t>,std::allocator<wchar_t> > const >
PUBLIC	??0?$_Array_const_iterator@M$0GA@@std@@QAE@PBMI@Z ; std::_Array_const_iterator<float,96>::_Array_const_iterator<float,96>
PUBLIC	??D?$_Array_const_iterator@M$0GA@@std@@QBEABMXZ	; std::_Array_const_iterator<float,96>::operator*
PUBLIC	??E?$_Array_const_iterator@M$0GA@@std@@QAEAAV01@XZ ; std::_Array_const_iterator<float,96>::operator++
PUBLIC	??8?$_Array_const_iterator@M$0GA@@std@@QBE_NABV01@@Z ; std::_Array_const_iterator<float,96>::operator==
PUBLIC	??9?$_Array_const_iterator@M$0GA@@std@@QBE_NABV01@@Z ; std::_Array_const_iterator<float,96>::operator!=
PUBLIC	??0?$_Array_iterator@M$0GA@@std@@QAE@PAMI@Z	; std::_Array_iterator<float,96>::_Array_iterator<float,96>
PUBLIC	??D?$_Array_iterator@M$0GA@@std@@QBEAAMXZ	; std::_Array_iterator<float,96>::operator*
PUBLIC	??E?$_Array_iterator@M$0GA@@std@@QAEAAV01@XZ	; std::_Array_iterator<float,96>::operator++
PUBLIC	??0?$_Tree_unchecked_const_iterator@V?$_Tree_val@U?$_Tree_simple_types@U?$pair@$$CBV?$basic_string@DU?$char_traits@D@std@@V?$allocator@D@2@@std@@PAViParameter@sk@@@std@@@std@@@std@@U_Iterator_base0@2@@std@@QAE@PAU?$_Tree_node@U?$pair@$$CBV?$basic_string@DU?$char_traits@D@std@@V?$allocator@D@2@@std@@PAViParameter@sk@@@std@@PAX@1@PBV?$_Tree_val@U?$_Tree_simple_types@U?$pair@$$CBV?$basic_string@DU?$char_traits@D@std@@V?$allocator@D@2@@std@@PAViParameter@sk@@@std@@@std@@@1@@Z ; std::_Tree_unchecked_const_iterator<std::_Tree_val<std::_Tree_simple_types<std::pair<std::basic_string<char,std::char_traits<char>,std::allocator<char> > const ,sk::iParameter *> > >,std::_Iterator_base0>::_Tree_unchecked_const_iterator<std::_Tree_val<std::_Tree_simple_types<std::pair<std::basic_string<char,std::char_traits<char>,std::allocator<char> > const ,sk::iParameter *> > >,std::_Iterator_base0>
PUBLIC	??E?$_Tree_unchecked_const_iterator@V?$_Tree_val@U?$_Tree_simple_types@U?$pair@$$CBV?$basic_string@DU?$char_traits@D@std@@V?$allocator@D@2@@std@@PAViParameter@sk@@@std@@@std@@@std@@U_Iterator_base0@2@@std@@QAEAAV01@XZ ; std::_Tree_unchecked_const_iterator<std::_Tree_val<std::_Tree_simple_types<std::pair<std::basic_string<char,std::char_traits<char>,std::allocator<char> > const ,sk::iParameter *> > >,std::_Iterator_base0>::operator++
PUBLIC	?_Mynode@?$_Tree_unchecked_const_iterator@V?$_Tree_val@U?$_Tree_simple_types@U?$pair@$$CBV?$basic_string@DU?$char_traits@D@std@@V?$allocator@D@2@@std@@PAViParameter@sk@@@std@@@std@@@std@@U_Iterator_base0@2@@std@@QBEPAU?$_Tree_node@U?$pair@$$CBV?$basic_string@DU?$char_traits@D@std@@V?$allocator@D@2@@std@@PAViParameter@sk@@@std@@PAX@2@XZ ; std::_Tree_unchecked_const_iterator<std::_Tree_val<std::_Tree_simple_types<std::pair<std::basic_string<char,std::char_traits<char>,std::allocator<char> > const ,sk::iParameter *> > >,std::_Iterator_base0>::_Mynode
PUBLIC	??0?$_Tree_const_iterator@V?$_Tree_val@U?$_Tree_simple_types@U?$pair@$$CBV?$basic_string@DU?$char_traits@D@std@@V?$allocator@D@2@@std@@PAViParameter@sk@@@std@@@std@@@std@@@std@@QAE@PAU?$_Tree_node@U?$pair@$$CBV?$basic_string@DU?$char_traits@D@std@@V?$allocator@D@2@@std@@PAViParameter@sk@@@std@@PAX@1@PBV?$_Tree_val@U?$_Tree_simple_types@U?$pair@$$CBV?$basic_string@DU?$char_traits@D@std@@V?$allocator@D@2@@std@@PAViParameter@sk@@@std@@@std@@@1@@Z ; std::_Tree_const_iterator<std::_Tree_val<std::_Tree_simple_types<std::pair<std::basic_string<char,std::char_traits<char>,std::allocator<char> > const ,sk::iParameter *> > > >::_Tree_const_iterator<std::_Tree_val<std::_Tree_simple_types<std::pair<std::basic_string<char,std::char_traits<char>,std::allocator<char> > const ,sk::iParameter *> > > >
PUBLIC	??E?$_Tree_const_iterator@V?$_Tree_val@U?$_Tree_simple_types@U?$pair@$$CBV?$basic_string@DU?$char_traits@D@std@@V?$allocator@D@2@@std@@PAViParameter@sk@@@std@@@std@@@std@@@std@@QAEAAV01@XZ ; std::_Tree_const_iterator<std::_Tree_val<std::_Tree_simple_types<std::pair<std::basic_string<char,std::char_traits<char>,std::allocator<char> > const ,sk::iParameter *> > > >::operator++
PUBLIC	??E?$_Tree_const_iterator@V?$_Tree_val@U?$_Tree_simple_types@U?$pair@$$CBV?$basic_string@DU?$char_traits@D@std@@V?$allocator@D@2@@std@@PAViParameter@sk@@@std@@@std@@@std@@@std@@QAE?AV01@H@Z ; std::_Tree_const_iterator<std::_Tree_val<std::_Tree_simple_types<std::pair<std::basic_string<char,std::char_traits<char>,std::allocator<char> > const ,sk::iParameter *> > > >::operator++
PUBLIC	??8?$_Tree_const_iterator@V?$_Tree_val@U?$_Tree_simple_types@U?$pair@$$CBV?$basic_string@DU?$char_traits@D@std@@V?$allocator@D@2@@std@@PAViParameter@sk@@@std@@@std@@@std@@@std@@QBE_NABV01@@Z ; std::_Tree_const_iterator<std::_Tree_val<std::_Tree_simple_types<std::pair<std::basic_string<char,std::char_traits<char>,std::allocator<char> > const ,sk::iParameter *> > > >::operator==
PUBLIC	??9?$_Tree_const_iterator@V?$_Tree_val@U?$_Tree_simple_types@U?$pair@$$CBV?$basic_string@DU?$char_traits@D@std@@V?$allocator@D@2@@std@@PAViParameter@sk@@@std@@@std@@@std@@@std@@QBE_NABV01@@Z ; std::_Tree_const_iterator<std::_Tree_val<std::_Tree_simple_types<std::pair<std::basic_string<char,std::char_traits<char>,std::allocator<char> > const ,sk::iParameter *> > > >::operator!=
PUBLIC	??0?$_Tree_iterator@V?$_Tree_val@U?$_Tree_simple_types@U?$pair@$$CBV?$basic_string@DU?$char_traits@D@std@@V?$allocator@D@2@@std@@PAViParameter@sk@@@std@@@std@@@std@@@std@@QAE@PAU?$_Tree_node@U?$pair@$$CBV?$basic_string@DU?$char_traits@D@std@@V?$allocator@D@2@@std@@PAViParameter@sk@@@std@@PAX@1@PBV?$_Tree_val@U?$_Tree_simple_types@U?$pair@$$CBV?$basic_string@DU?$char_traits@D@std@@V?$allocator@D@2@@std@@PAViParameter@sk@@@std@@@std@@@1@@Z ; std::_Tree_iterator<std::_Tree_val<std::_Tree_simple_types<std::pair<std::basic_string<char,std::char_traits<char>,std::allocator<char> > const ,sk::iParameter *> > > >::_Tree_iterator<std::_Tree_val<std::_Tree_simple_types<std::pair<std::basic_string<char,std::char_traits<char>,std::allocator<char> > const ,sk::iParameter *> > > >
PUBLIC	??$?0$$V@?$_Compressed_pair@U?$_Wrap_alloc@V?$allocator@_W@std@@@std@@V?$_String_val@U?$_Simple_types@_W@std@@@2@$00@std@@QAE@U_Zero_then_variadic_args_t@1@@Z ; std::_Compressed_pair<std::_Wrap_alloc<std::allocator<wchar_t> >,std::_String_val<std::_Simple_types<wchar_t> >,1>::_Compressed_pair<std::_Wrap_alloc<std::allocator<wchar_t> >,std::_String_val<std::_Simple_types<wchar_t> >,1><>
PUBLIC	??$?0$$V@?$_Compressed_pair@U?$_Wrap_alloc@V?$allocator@D@std@@@std@@V?$_String_val@U?$_Simple_types@D@std@@@2@$00@std@@QAE@U_Zero_then_variadic_args_t@1@@Z ; std::_Compressed_pair<std::_Wrap_alloc<std::allocator<char> >,std::_String_val<std::_Simple_types<char> >,1>::_Compressed_pair<std::_Wrap_alloc<std::allocator<char> >,std::_String_val<std::_Simple_types<char> >,1><>
PUBLIC	??$addressof@PA_W@std@@YAPAPA_WAAPA_W@Z		; std::addressof<wchar_t *>
PUBLIC	??$destroy@PA_W@?$_Wrap_alloc@V?$allocator@_W@std@@@std@@QAEXPAPA_W@Z ; std::_Wrap_alloc<std::allocator<wchar_t> >::destroy<wchar_t *>
PUBLIC	??$addressof@PAD@std@@YAPAPADAAPAD@Z		; std::addressof<char *>
PUBLIC	??$destroy@PAD@?$_Wrap_alloc@V?$allocator@D@std@@@std@@QAEXPAPAD@Z ; std::_Wrap_alloc<std::allocator<char> >::destroy<char *>
PUBLIC	??$addressof@M@std@@YAPAMAAM@Z			; std::addressof<float>
PUBLIC	??$addressof@PAU?$_Tree_node@U?$pair@$$CBV?$basic_string@DU?$char_traits@D@std@@V?$allocator@D@2@@std@@PAViParameter@sk@@@std@@PAX@std@@@std@@YAPAPAU?$_Tree_node@U?$pair@$$CBV?$basic_string@DU?$char_traits@D@std@@V?$allocator@D@2@@std@@PAViParameter@sk@@@std@@PAX@0@AAPAU10@@Z ; std::addressof<std::_Tree_node<std::pair<std::basic_string<char,std::char_traits<char>,std::allocator<char> > const ,sk::iParameter *>,void *> *>
PUBLIC	??$destroy@PAU?$_Tree_node@U?$pair@$$CBV?$basic_string@DU?$char_traits@D@std@@V?$allocator@D@2@@std@@PAViParameter@sk@@@std@@PAX@std@@@?$_Wrap_alloc@V?$allocator@U?$_Tree_node@U?$pair@$$CBV?$basic_string@DU?$char_traits@D@std@@V?$allocator@D@2@@std@@PAViParameter@sk@@@std@@PAX@std@@@std@@@std@@QAEXPAPAU?$_Tree_node@U?$pair@$$CBV?$basic_string@DU?$char_traits@D@std@@V?$allocator@D@2@@std@@PAViParameter@sk@@@std@@PAX@1@@Z ; std::_Wrap_alloc<std::allocator<std::_Tree_node<std::pair<std::basic_string<char,std::char_traits<char>,std::allocator<char> > const ,sk::iParameter *>,void *> > >::destroy<std::_Tree_node<std::pair<std::basic_string<char,std::char_traits<char>,std::allocator<char> > const ,sk::iParameter *>,void *> *>
PUBLIC	??$?0ABU?$less@V?$basic_string@DU?$char_traits@D@std@@V?$allocator@D@2@@std@@@std@@U_Zero_then_variadic_args_t@1@@?$_Compressed_pair@U?$less@V?$basic_string@DU?$char_traits@D@std@@V?$allocator@D@2@@std@@@std@@V?$_Compressed_pair@U?$_Wrap_alloc@V?$allocator@U?$_Tree_node@U?$pair@$$CBV?$basic_string@DU?$char_traits@D@std@@V?$allocator@D@2@@std@@PAViParameter@sk@@@std@@PAX@std@@@std@@@std@@V?$_Tree_val@U?$_Tree_simple_types@U?$pair@$$CBV?$basic_string@DU?$char_traits@D@std@@V?$allocator@D@2@@std@@PAViParameter@sk@@@std@@@std@@@2@$00@2@$00@std@@QAE@U_One_then_variadic_args_t@1@ABU?$less@V?$basic_string@DU?$char_traits@D@std@@V?$allocator@D@2@@std@@@1@$$QAU_Zero_then_variadic_args_t@1@@Z ; std::_Compressed_pair<std::less<std::basic_string<char,std::char_traits<char>,std::allocator<char> > >,std::_Compressed_pair<std::_Wrap_alloc<std::allocator<std::_Tree_node<std::pair<std::basic_string<char,std::char_traits<char>,std::allocator<char> > const ,sk::iParameter *>,void *> > >,std::_Tree_val<std::_Tree_simple_types<std::pair<std::basic_string<char,std::char_traits<char>,std::allocator<char> > const ,sk::iParameter *> > >,1>,1>::_Compressed_pair<std::less<std::basic_string<char,std::char_traits<char>,std::allocator<char> > >,std::_Compressed_pair<std::_Wrap_alloc<std::allocator<std::_Tree_node<std::pair<std::basic_string<char,std::char_traits<char>,std::allocator<char> > const ,sk::iParameter *>,void *> > >,std::_Tree_val<std::_Tree_simple_types<std::pair<std::basic_string<char,std::char_traits<char>,std::allocator<char> > const ,sk::iParameter *> > >,1>,1><std::less<std::basic_string<char,std::char_traits<char>,std::allocator<char> > > const &,std::_Zero_then_variadic_args_t>
PUBLIC	??1?$pair@$$CBV?$basic_string@DU?$char_traits@D@std@@V?$allocator@D@2@@std@@PAViParameter@sk@@@std@@QAE@XZ ; std::pair<std::basic_string<char,std::char_traits<char>,std::allocator<char> > const ,sk::iParameter *>::~pair<std::basic_string<char,std::char_traits<char>,std::allocator<char> > const ,sk::iParameter *>
PUBLIC	??_G?$pair@$$CBV?$basic_string@DU?$char_traits@D@std@@V?$allocator@D@2@@std@@PAViParameter@sk@@@std@@QAEPAXI@Z ; std::pair<std::basic_string<char,std::char_traits<char>,std::allocator<char> > const ,sk::iParameter *>::`scalar deleting destructor'
PUBLIC	??$addressof@V?$_Tree_val@U?$_Tree_simple_types@U?$pair@$$CBV?$basic_string@DU?$char_traits@D@std@@V?$allocator@D@2@@std@@PAViParameter@sk@@@std@@@std@@@std@@@std@@YAPAV?$_Tree_val@U?$_Tree_simple_types@U?$pair@$$CBV?$basic_string@DU?$char_traits@D@std@@V?$allocator@D@2@@std@@PAViParameter@sk@@@std@@@std@@@0@AAV10@@Z ; std::addressof<std::_Tree_val<std::_Tree_simple_types<std::pair<std::basic_string<char,std::char_traits<char>,std::allocator<char> > const ,sk::iParameter *> > > >
PUBLIC	??$_Unfancy@_W@std@@YAPA_WPA_W@Z		; std::_Unfancy<wchar_t>
PUBLIC	??$_Unfancy@D@std@@YAPADPAD@Z			; std::_Unfancy<char>
PUBLIC	??$_Min_value@I@std@@YAABIABI0@Z		; std::_Min_value<unsigned int>
PUBLIC	??$addressof@$$CBV?$basic_string@DU?$char_traits@D@std@@V?$allocator@D@2@@std@@@std@@YAPBV?$basic_string@DU?$char_traits@D@std@@V?$allocator@D@2@@0@ABV10@@Z ; std::addressof<std::basic_string<char,std::char_traits<char>,std::allocator<char> > const >
PUBLIC	??$swap@DX@std@@YAXAAD0@Z			; std::swap<char,void>
PUBLIC	??$addressof@U?$pair@$$CBV?$basic_string@DU?$char_traits@D@std@@V?$allocator@D@2@@std@@PAViParameter@sk@@@std@@@std@@YAPAU?$pair@$$CBV?$basic_string@DU?$char_traits@D@std@@V?$allocator@D@2@@std@@PAViParameter@sk@@@0@AAU10@@Z ; std::addressof<std::pair<std::basic_string<char,std::char_traits<char>,std::allocator<char> > const ,sk::iParameter *> >
PUBLIC	??$destroy@U?$pair@$$CBV?$basic_string@DU?$char_traits@D@std@@V?$allocator@D@2@@std@@PAViParameter@sk@@@std@@@?$_Wrap_alloc@V?$allocator@U?$_Tree_node@U?$pair@$$CBV?$basic_string@DU?$char_traits@D@std@@V?$allocator@D@2@@std@@PAViParameter@sk@@@std@@PAX@std@@@std@@@std@@QAEXPAU?$pair@$$CBV?$basic_string@DU?$char_traits@D@std@@V?$allocator@D@2@@std@@PAViParameter@sk@@@1@@Z ; std::_Wrap_alloc<std::allocator<std::_Tree_node<std::pair<std::basic_string<char,std::char_traits<char>,std::allocator<char> > const ,sk::iParameter *>,void *> > >::destroy<std::pair<std::basic_string<char,std::char_traits<char>,std::allocator<char> > const ,sk::iParameter *> >
PUBLIC	??$construct@PA_WAAPA_W@?$_Wrap_alloc@V?$allocator@_W@std@@@std@@QAEXPAPA_WAAPA_W@Z ; std::_Wrap_alloc<std::allocator<wchar_t> >::construct<wchar_t *,wchar_t * &>
PUBLIC	??$construct@PADAAPAD@?$_Wrap_alloc@V?$allocator@D@std@@@std@@QAEXPAPADAAPAD@Z ; std::_Wrap_alloc<std::allocator<char> >::construct<char *,char * &>
PUBLIC	??$construct@PAU?$_Tree_node@U?$pair@$$CBV?$basic_string@DU?$char_traits@D@std@@V?$allocator@D@2@@std@@PAViParameter@sk@@@std@@PAX@std@@AAPAU12@@?$_Wrap_alloc@V?$allocator@U?$_Tree_node@U?$pair@$$CBV?$basic_string@DU?$char_traits@D@std@@V?$allocator@D@2@@std@@PAViParameter@sk@@@std@@PAX@std@@@std@@@std@@QAEXPAPAU?$_Tree_node@U?$pair@$$CBV?$basic_string@DU?$char_traits@D@std@@V?$allocator@D@2@@std@@PAViParameter@sk@@@std@@PAX@1@AAPAU21@@Z ; std::_Wrap_alloc<std::allocator<std::_Tree_node<std::pair<std::basic_string<char,std::char_traits<char>,std::allocator<char> > const ,sk::iParameter *>,void *> > >::construct<std::_Tree_node<std::pair<std::basic_string<char,std::char_traits<char>,std::allocator<char> > const ,sk::iParameter *>,void *> *,std::_Tree_node<std::pair<std::basic_string<char,std::char_traits<char>,std::allocator<char> > const ,sk::iParameter *>,void *> * &>
PUBLIC	??$destroy@PA_W@?$allocator_traits@V?$allocator@_W@std@@@std@@SAXAAV?$allocator@_W@1@PAPA_W@Z ; std::allocator_traits<std::allocator<wchar_t> >::destroy<wchar_t *>
PUBLIC	??$destroy@PAD@?$allocator_traits@V?$allocator@D@std@@@std@@SAXAAV?$allocator@D@1@PAPAD@Z ; std::allocator_traits<std::allocator<char> >::destroy<char *>
PUBLIC	??$destroy@PAU?$_Tree_node@U?$pair@$$CBV?$basic_string@DU?$char_traits@D@std@@V?$allocator@D@2@@std@@PAViParameter@sk@@@std@@PAX@std@@@?$allocator_traits@V?$allocator@U?$_Tree_node@U?$pair@$$CBV?$basic_string@DU?$char_traits@D@std@@V?$allocator@D@2@@std@@PAViParameter@sk@@@std@@PAX@std@@@std@@@std@@SAXAAV?$allocator@U?$_Tree_node@U?$pair@$$CBV?$basic_string@DU?$char_traits@D@std@@V?$allocator@D@2@@std@@PAViParameter@sk@@@std@@PAX@std@@@1@PAPAU?$_Tree_node@U?$pair@$$CBV?$basic_string@DU?$char_traits@D@std@@V?$allocator@D@2@@std@@PAViParameter@sk@@@std@@PAX@1@@Z ; std::allocator_traits<std::allocator<std::_Tree_node<std::pair<std::basic_string<char,std::char_traits<char>,std::allocator<char> > const ,sk::iParameter *>,void *> > >::destroy<std::_Tree_node<std::pair<std::basic_string<char,std::char_traits<char>,std::allocator<char> > const ,sk::iParameter *>,void *> *>
PUBLIC	??$forward@ABU?$less@V?$basic_string@DU?$char_traits@D@std@@V?$allocator@D@2@@std@@@std@@@std@@YAABU?$less@V?$basic_string@DU?$char_traits@D@std@@V?$allocator@D@2@@std@@@0@ABU10@@Z ; std::forward<std::less<std::basic_string<char,std::char_traits<char>,std::allocator<char> > > const &>
PUBLIC	??$forward@U_Zero_then_variadic_args_t@std@@@std@@YA$$QAU_Zero_then_variadic_args_t@0@AAU10@@Z ; std::forward<std::_Zero_then_variadic_args_t>
PUBLIC	??$?0$$V@?$_Compressed_pair@U?$_Wrap_alloc@V?$allocator@U?$_Tree_node@U?$pair@$$CBV?$basic_string@DU?$char_traits@D@std@@V?$allocator@D@2@@std@@PAViParameter@sk@@@std@@PAX@std@@@std@@@std@@V?$_Tree_val@U?$_Tree_simple_types@U?$pair@$$CBV?$basic_string@DU?$char_traits@D@std@@V?$allocator@D@2@@std@@PAViParameter@sk@@@std@@@std@@@2@$00@std@@QAE@U_Zero_then_variadic_args_t@1@@Z ; std::_Compressed_pair<std::_Wrap_alloc<std::allocator<std::_Tree_node<std::pair<std::basic_string<char,std::char_traits<char>,std::allocator<char> > const ,sk::iParameter *>,void *> > >,std::_Tree_val<std::_Tree_simple_types<std::pair<std::basic_string<char,std::char_traits<char>,std::allocator<char> > const ,sk::iParameter *> > >,1>::_Compressed_pair<std::_Wrap_alloc<std::allocator<std::_Tree_node<std::pair<std::basic_string<char,std::char_traits<char>,std::allocator<char> > const ,sk::iParameter *>,void *> > >,std::_Tree_val<std::_Tree_simple_types<std::pair<std::basic_string<char,std::char_traits<char>,std::allocator<char> > const ,sk::iParameter *> > >,1><>
PUBLIC	??$move@AAD@std@@YA$$QADAAD@Z			; std::move<char &>
PUBLIC	??$destroy@U?$pair@$$CBV?$basic_string@DU?$char_traits@D@std@@V?$allocator@D@2@@std@@PAViParameter@sk@@@std@@@?$allocator_traits@V?$allocator@U?$_Tree_node@U?$pair@$$CBV?$basic_string@DU?$char_traits@D@std@@V?$allocator@D@2@@std@@PAViParameter@sk@@@std@@PAX@std@@@std@@@std@@SAXAAV?$allocator@U?$_Tree_node@U?$pair@$$CBV?$basic_string@DU?$char_traits@D@std@@V?$allocator@D@2@@std@@PAViParameter@sk@@@std@@PAX@std@@@1@PAU?$pair@$$CBV?$basic_string@DU?$char_traits@D@std@@V?$allocator@D@2@@std@@PAViParameter@sk@@@1@@Z ; std::allocator_traits<std::allocator<std::_Tree_node<std::pair<std::basic_string<char,std::char_traits<char>,std::allocator<char> > const ,sk::iParameter *>,void *> > >::destroy<std::pair<std::basic_string<char,std::char_traits<char>,std::allocator<char> > const ,sk::iParameter *> >
PUBLIC	??$forward@AAPA_W@std@@YAAAPA_WAAPA_W@Z		; std::forward<wchar_t * &>
PUBLIC	??$construct@PA_WAAPA_W@?$allocator_traits@V?$allocator@_W@std@@@std@@SAXAAV?$allocator@_W@1@PAPA_WAAPA_W@Z ; std::allocator_traits<std::allocator<wchar_t> >::construct<wchar_t *,wchar_t * &>
PUBLIC	??$forward@AAPAD@std@@YAAAPADAAPAD@Z		; std::forward<char * &>
PUBLIC	??$construct@PADAAPAD@?$allocator_traits@V?$allocator@D@std@@@std@@SAXAAV?$allocator@D@1@PAPADAAPAD@Z ; std::allocator_traits<std::allocator<char> >::construct<char *,char * &>
PUBLIC	??$forward@AAPAU?$_Tree_node@U?$pair@$$CBV?$basic_string@DU?$char_traits@D@std@@V?$allocator@D@2@@std@@PAViParameter@sk@@@std@@PAX@std@@@std@@YAAAPAU?$_Tree_node@U?$pair@$$CBV?$basic_string@DU?$char_traits@D@std@@V?$allocator@D@2@@std@@PAViParameter@sk@@@std@@PAX@0@AAPAU10@@Z ; std::forward<std::_Tree_node<std::pair<std::basic_string<char,std::char_traits<char>,std::allocator<char> > const ,sk::iParameter *>,void *> * &>
PUBLIC	??$construct@PAU?$_Tree_node@U?$pair@$$CBV?$basic_string@DU?$char_traits@D@std@@V?$allocator@D@2@@std@@PAViParameter@sk@@@std@@PAX@std@@AAPAU12@@?$allocator_traits@V?$allocator@U?$_Tree_node@U?$pair@$$CBV?$basic_string@DU?$char_traits@D@std@@V?$allocator@D@2@@std@@PAViParameter@sk@@@std@@PAX@std@@@std@@@std@@SAXAAV?$allocator@U?$_Tree_node@U?$pair@$$CBV?$basic_string@DU?$char_traits@D@std@@V?$allocator@D@2@@std@@PAViParameter@sk@@@std@@PAX@std@@@1@PAPAU?$_Tree_node@U?$pair@$$CBV?$basic_string@DU?$char_traits@D@std@@V?$allocator@D@2@@std@@PAViParameter@sk@@@std@@PAX@1@AAPAU31@@Z ; std::allocator_traits<std::allocator<std::_Tree_node<std::pair<std::basic_string<char,std::char_traits<char>,std::allocator<char> > const ,sk::iParameter *>,void *> > >::construct<std::_Tree_node<std::pair<std::basic_string<char,std::char_traits<char>,std::allocator<char> > const ,sk::iParameter *>,void *> *,std::_Tree_node<std::pair<std::basic_string<char,std::char_traits<char>,std::allocator<char> > const ,sk::iParameter *>,void *> * &>
PUBLIC	??$destroy@PA_W@?$allocator@_W@std@@QAEXPAPA_W@Z ; std::allocator<wchar_t>::destroy<wchar_t *>
PUBLIC	??$destroy@PAD@?$allocator@D@std@@QAEXPAPAD@Z	; std::allocator<char>::destroy<char *>
PUBLIC	??$destroy@PAU?$_Tree_node@U?$pair@$$CBV?$basic_string@DU?$char_traits@D@std@@V?$allocator@D@2@@std@@PAViParameter@sk@@@std@@PAX@std@@@?$allocator@U?$_Tree_node@U?$pair@$$CBV?$basic_string@DU?$char_traits@D@std@@V?$allocator@D@2@@std@@PAViParameter@sk@@@std@@PAX@std@@@std@@QAEXPAPAU?$_Tree_node@U?$pair@$$CBV?$basic_string@DU?$char_traits@D@std@@V?$allocator@D@2@@std@@PAViParameter@sk@@@std@@PAX@1@@Z ; std::allocator<std::_Tree_node<std::pair<std::basic_string<char,std::char_traits<char>,std::allocator<char> > const ,sk::iParameter *>,void *> >::destroy<std::_Tree_node<std::pair<std::basic_string<char,std::char_traits<char>,std::allocator<char> > const ,sk::iParameter *>,void *> *>
PUBLIC	??$destroy@U?$pair@$$CBV?$basic_string@DU?$char_traits@D@std@@V?$allocator@D@2@@std@@PAViParameter@sk@@@std@@@?$allocator@U?$_Tree_node@U?$pair@$$CBV?$basic_string@DU?$char_traits@D@std@@V?$allocator@D@2@@std@@PAViParameter@sk@@@std@@PAX@std@@@std@@QAEXPAU?$pair@$$CBV?$basic_string@DU?$char_traits@D@std@@V?$allocator@D@2@@std@@PAViParameter@sk@@@1@@Z ; std::allocator<std::_Tree_node<std::pair<std::basic_string<char,std::char_traits<char>,std::allocator<char> > const ,sk::iParameter *>,void *> >::destroy<std::pair<std::basic_string<char,std::char_traits<char>,std::allocator<char> > const ,sk::iParameter *> >
PUBLIC	??$construct@PA_WAAPA_W@?$allocator@_W@std@@QAEXPAPA_WAAPA_W@Z ; std::allocator<wchar_t>::construct<wchar_t *,wchar_t * &>
PUBLIC	??$construct@PADAAPAD@?$allocator@D@std@@QAEXPAPADAAPAD@Z ; std::allocator<char>::construct<char *,char * &>
PUBLIC	??$construct@PAU?$_Tree_node@U?$pair@$$CBV?$basic_string@DU?$char_traits@D@std@@V?$allocator@D@2@@std@@PAViParameter@sk@@@std@@PAX@std@@AAPAU12@@?$allocator@U?$_Tree_node@U?$pair@$$CBV?$basic_string@DU?$char_traits@D@std@@V?$allocator@D@2@@std@@PAViParameter@sk@@@std@@PAX@std@@@std@@QAEXPAPAU?$_Tree_node@U?$pair@$$CBV?$basic_string@DU?$char_traits@D@std@@V?$allocator@D@2@@std@@PAViParameter@sk@@@std@@PAX@1@AAPAU21@@Z ; std::allocator<std::_Tree_node<std::pair<std::basic_string<char,std::char_traits<char>,std::allocator<char> > const ,sk::iParameter *>,void *> >::construct<std::_Tree_node<std::pair<std::basic_string<char,std::char_traits<char>,std::allocator<char> > const ,sk::iParameter *>,void *> *,std::_Tree_node<std::pair<std::basic_string<char,std::char_traits<char>,std::allocator<char> > const ,sk::iParameter *>,void *> * &>
PUBLIC	??_7SK_Widget@@6B@				; SK_Widget::`vftable'
PUBLIC	??_C@_0BG@LCBJFFOH@Widget?5Toggle?5Keybind?$AA@	; `string'
PUBLIC	??_C@_11LOCGONAA@?$AA?$AA@			; `string'
PUBLIC	??_C@_0BF@IHOHKLDA@Widget?5Focus?5Keybind?$AA@	; `string'
PUBLIC	??_7SKWG_GPU_Monitor@@6B@			; SKWG_GPU_Monitor::`vftable'
PUBLIC	?__gpu_monitor__@@3VSKWG_GPU_Monitor@@A		; __gpu_monitor__
PUBLIC	??_C@_0L@DJLPPAIK@GPUMonitor?$AA@		; `string'
PUBLIC	?max_use@?1??draw@SKWG_GPU_Monitor@@UAEXXZ@4MA	; `SKWG_GPU_Monitor::draw'::`2'::max_use
PUBLIC	??_C@_0EG@NDKAAPJL@GPU?$CFlu?5Load?5?$CF?$CF?3?6?6?6?5?5?5?5?5?5?5?5?5?5min?3@ ; `string'
PUBLIC	??_C@_0BD@GCENCMFL@?$CD?$CD?$CDGPU_LoadPercent?$AA@ ; `string'
PUBLIC	??_C@_0EJ@IJKLDOJK@GPU?$CFlu?5Temp?5?$CI?B?$LAC?$CJ?3?6?6?6?5?5?5?5?5?5?5?5?5?5m@ ; `string'
PUBLIC	??_C@_0N@MIKFKOFP@?$CD?$CD?$CDGPU_TempC?$AA@	; `string'
PUBLIC	??_C@_0EJ@JCEADLCF@GPU?$CFlu?5Core?5Clock?5?$CIGHz?$CJ?3?6?6?6?5?5?5?5?5@ ; `string'
PUBLIC	??_C@_0BB@DFHJFHFN@?$CD?$CD?$CDGPU_CoreClock?$AA@ ; `string'
PUBLIC	??_C@_0EJ@DJOKDOLI@GPU?$CFlu?5VRAM?5Clock?5?$CIGHz?$CJ?3?6?6?6?5?5?5?5?5@ ; `string'
PUBLIC	??_C@_0BB@NMJABJBB@?$CD?$CD?$CDGPU_VRAMClock?$AA@ ; `string'
PUBLIC	??_C@_0EJ@NMNMIBDN@GPU?$CFlu?5VRAM?5Usage?5?$CIMiB?$CJ?3?6?6?6?5?5?5?5?5@ ; `string'
PUBLIC	??_C@_0BB@JCPKAKKF@?$CD?$CD?$CDGPU_VRAMUsage?$AA@ ; `string'
PUBLIC	??_C@_0BA@JFNIOLAK@string?5too?5long?$AA@	; `string'
PUBLIC	??_C@_0BI@CFPLBAOH@invalid?5string?5position?$AA@ ; `string'
PUBLIC	??_R4SK_Widget@@6B@				; SK_Widget::`RTTI Complete Object Locator'
PUBLIC	??_R0?AVSK_Widget@@@8				; SK_Widget `RTTI Type Descriptor'
PUBLIC	??_R3SK_Widget@@8				; SK_Widget::`RTTI Class Hierarchy Descriptor'
PUBLIC	??_R2SK_Widget@@8				; SK_Widget::`RTTI Base Class Array'
PUBLIC	??_R1A@?0A@EA@SK_Widget@@8			; SK_Widget::`RTTI Base Class Descriptor at (0,-1,0,64)'
PUBLIC	??_R4SKWG_GPU_Monitor@@6B@			; SKWG_GPU_Monitor::`RTTI Complete Object Locator'
PUBLIC	??_R0?AVSKWG_GPU_Monitor@@@8			; SKWG_GPU_Monitor `RTTI Type Descriptor'
PUBLIC	??_R3SKWG_GPU_Monitor@@8			; SKWG_GPU_Monitor::`RTTI Class Hierarchy Descriptor'
PUBLIC	??_R2SKWG_GPU_Monitor@@8			; SKWG_GPU_Monitor::`RTTI Base Class Array'
PUBLIC	??_R1A@?0A@EA@SKWG_GPU_Monitor@@8		; SKWG_GPU_Monitor::`RTTI Base Class Descriptor at (0,-1,0,64)'
PUBLIC	__real@00800000
PUBLIC	__real@35800000
PUBLIC	__real@358637bd
PUBLIC	__real@3c23d70a
PUBLIC	__real@3e9eb852
PUBLIC	__real@3f000000
PUBLIC	__real@3f800000
PUBLIC	__real@3f866666
PUBLIC	__real@40900000
PUBLIC	__real@4130000000000000
PUBLIC	__real@41cdcd6500000000
PUBLIC	__real@42c00000
PUBLIC	__real@45800000
PUBLIC	__real@7f7fffff
PUBLIC	__xmm@41f00000000000000000000000000000
EXTRN	??2@YAPAXI@Z:PROC				; operator new
EXTRN	??3@YAXPAX@Z:PROC				; operator delete
EXTRN	??3@YAXPAXI@Z:PROC				; operator delete
EXTRN	_atexit:PROC
EXTRN	___std_terminate:PROC
EXTRN	__imp___invalid_parameter_noinfo_noreturn:PROC
EXTRN	__imp__memmove:PROC
EXTRN	?GetStyle@ImGui@@YAAAUImGuiStyle@@XZ:PROC	; ImGui::GetStyle
EXTRN	?GetContentRegionAvailWidth@ImGui@@YAMXZ:PROC	; ImGui::GetContentRegionAvailWidth
EXTRN	?PushStyleColor@ImGui@@YAXHABUImVec4@@@Z:PROC	; ImGui::PushStyleColor
EXTRN	?PopStyleColor@ImGui@@YAXH@Z:PROC		; ImGui::PopStyleColor
EXTRN	?GetFont@ImGui@@YAPAUImFont@@XZ:PROC		; ImGui::GetFont
EXTRN	?PlotLinesC@ImGui@@YAXPBDPBMHH0MMUImVec2@@HMMM_N@Z:PROC ; ImGui::PlotLinesC
EXTRN	?ColorConvertHSVtoRGB@ImGui@@YAXMMMAAM00@Z:PROC	; ImGui::ColorConvertHSVtoRGB
EXTRN	__imp__timeGetTime@0:PROC
EXTRN	_sprintf_s:PROC
EXTRN	__imp_?_Xbad_alloc@std@@YAXXZ:PROC
EXTRN	__imp_?_Xlength_error@std@@YAXPBD@Z:PROC
EXTRN	__imp_?_Xout_of_range@std@@YAXPBD@Z:PROC
EXTRN	?SK_GPU_GetClockRateInkHz@@YGIH@Z:PROC		; SK_GPU_GetClockRateInkHz
EXTRN	?SK_GPU_GetMemClockRateInkHz@@YGIH@Z:PROC	; SK_GPU_GetMemClockRateInkHz
EXTRN	?SK_GPU_GetGPULoad@@YGMH@Z:PROC			; SK_GPU_GetGPULoad
EXTRN	?SK_GPU_GetTempInC@@YGMH@Z:PROC			; SK_GPU_GetTempInC
EXTRN	?SK_GPU_GetVRAMUsed@@YG_KH@Z:PROC		; SK_GPU_GetVRAMUsed
EXTRN	?SK_GPU_GetVRAMBudget@@YG_KH@Z:PROC		; SK_GPU_GetVRAMBudget
EXTRN	?SK_PollGPU@@YAXXZ:PROC				; SK_PollGPU
EXTRN	__CxxThrowException@8:PROC
EXTRN	___CxxFrameHandler3:PROC
EXTRN	__ultod3:PROC
EXTRN	_memcpy:PROC
EXTRN	_memset:PROC
EXTRN	??_7type_info@@6B@:QWORD			; type_info::`vftable'
EXTRN	?SK_ImGui_Widgets@@3USK_ImGui_WidgetRegistry@@A:BYTE ; SK_ImGui_Widgets
EXTRN	__fltused:DWORD
_BSS	SEGMENT
?__gpu_monitor__@@3VSKWG_GPU_Monitor@@A DB 0df0H DUP (?) ; __gpu_monitor__
_BSS	ENDS
;	COMDAT ?max_use@?1??draw@SKWG_GPU_Monitor@@UAEXXZ@4MA
_BSS	SEGMENT
?max_use@?1??draw@SKWG_GPU_Monitor@@UAEXXZ@4MA DD 01H DUP (?) ; `SKWG_GPU_Monitor::draw'::`2'::max_use
_BSS	ENDS
CRT$XCU	SEGMENT
?__gpu_monitor__$initializer$@@3P6AXXZA DD FLAT:??__E__gpu_monitor__@@YAXXZ ; __gpu_monitor__$initializer$
CRT$XCU	ENDS
;	COMDAT __xmm@41f00000000000000000000000000000
CONST	SEGMENT
__xmm@41f00000000000000000000000000000 DB 00H, 00H, 00H, 00H, 00H, 00H, 00H
	DB	00H, 00H, 00H, 00H, 00H, 00H, 00H, 0f0H, 'A'
CONST	ENDS
;	COMDAT __real@7f7fffff
CONST	SEGMENT
__real@7f7fffff DD 07f7fffffr			; 3.40282e+38
CONST	ENDS
;	COMDAT __real@45800000
CONST	SEGMENT
__real@45800000 DD 045800000r			; 4096
CONST	ENDS
;	COMDAT __real@42c00000
CONST	SEGMENT
__real@42c00000 DD 042c00000r			; 96
CONST	ENDS
;	COMDAT __real@41cdcd6500000000
CONST	SEGMENT
__real@41cdcd6500000000 DQ 041cdcd6500000000r	; 1e+09
CONST	ENDS
;	COMDAT __real@4130000000000000
CONST	SEGMENT
__real@4130000000000000 DQ 04130000000000000r	; 1.04858e+06
CONST	ENDS
;	COMDAT __real@40900000
CONST	SEGMENT
__real@40900000 DD 040900000r			; 4.5
CONST	ENDS
;	COMDAT __real@3f866666
CONST	SEGMENT
__real@3f866666 DD 03f866666r			; 1.05
CONST	ENDS
;	COMDAT __real@3f800000
CONST	SEGMENT
__real@3f800000 DD 03f800000r			; 1
CONST	ENDS
;	COMDAT __real@3f000000
CONST	SEGMENT
__real@3f000000 DD 03f000000r			; 0.5
CONST	ENDS
;	COMDAT __real@3e9eb852
CONST	SEGMENT
__real@3e9eb852 DD 03e9eb852r			; 0.31
CONST	ENDS
;	COMDAT __real@3c23d70a
CONST	SEGMENT
__real@3c23d70a DD 03c23d70ar			; 0.01
CONST	ENDS
;	COMDAT __real@358637bd
CONST	SEGMENT
__real@358637bd DD 0358637bdr			; 1e-06
CONST	ENDS
;	COMDAT __real@35800000
CONST	SEGMENT
__real@35800000 DD 035800000r			; 9.53674e-07
CONST	ENDS
;	COMDAT __real@00800000
CONST	SEGMENT
__real@00800000 DD 000800000r			; 1.17549e-38
CONST	ENDS
;	COMDAT ??_R1A@?0A@EA@SKWG_GPU_Monitor@@8
rdata$r	SEGMENT
??_R1A@?0A@EA@SKWG_GPU_Monitor@@8 DD FLAT:??_R0?AVSKWG_GPU_Monitor@@@8 ; SKWG_GPU_Monitor::`RTTI Base Class Descriptor at (0,-1,0,64)'
	DD	01H
	DD	00H
	DD	0ffffffffH
	DD	00H
	DD	040H
	DD	FLAT:??_R3SKWG_GPU_Monitor@@8
rdata$r	ENDS
;	COMDAT ??_R2SKWG_GPU_Monitor@@8
rdata$r	SEGMENT
??_R2SKWG_GPU_Monitor@@8 DD FLAT:??_R1A@?0A@EA@SKWG_GPU_Monitor@@8 ; SKWG_GPU_Monitor::`RTTI Base Class Array'
	DD	FLAT:??_R1A@?0A@EA@SK_Widget@@8
rdata$r	ENDS
;	COMDAT ??_R3SKWG_GPU_Monitor@@8
rdata$r	SEGMENT
??_R3SKWG_GPU_Monitor@@8 DD 00H				; SKWG_GPU_Monitor::`RTTI Class Hierarchy Descriptor'
	DD	00H
	DD	02H
	DD	FLAT:??_R2SKWG_GPU_Monitor@@8
rdata$r	ENDS
;	COMDAT ??_R0?AVSKWG_GPU_Monitor@@@8
data$r	SEGMENT
??_R0?AVSKWG_GPU_Monitor@@@8 DD FLAT:??_7type_info@@6B@	; SKWG_GPU_Monitor `RTTI Type Descriptor'
	DD	00H
	DB	'.?AVSKWG_GPU_Monitor@@', 00H
data$r	ENDS
;	COMDAT ??_R4SKWG_GPU_Monitor@@6B@
rdata$r	SEGMENT
??_R4SKWG_GPU_Monitor@@6B@ DD 00H			; SKWG_GPU_Monitor::`RTTI Complete Object Locator'
	DD	00H
	DD	00H
	DD	FLAT:??_R0?AVSKWG_GPU_Monitor@@@8
	DD	FLAT:??_R3SKWG_GPU_Monitor@@8
rdata$r	ENDS
;	COMDAT ??_R1A@?0A@EA@SK_Widget@@8
rdata$r	SEGMENT
??_R1A@?0A@EA@SK_Widget@@8 DD FLAT:??_R0?AVSK_Widget@@@8 ; SK_Widget::`RTTI Base Class Descriptor at (0,-1,0,64)'
	DD	00H
	DD	00H
	DD	0ffffffffH
	DD	00H
	DD	040H
	DD	FLAT:??_R3SK_Widget@@8
rdata$r	ENDS
;	COMDAT ??_R2SK_Widget@@8
rdata$r	SEGMENT
??_R2SK_Widget@@8 DD FLAT:??_R1A@?0A@EA@SK_Widget@@8	; SK_Widget::`RTTI Base Class Array'
rdata$r	ENDS
;	COMDAT ??_R3SK_Widget@@8
rdata$r	SEGMENT
??_R3SK_Widget@@8 DD 00H				; SK_Widget::`RTTI Class Hierarchy Descriptor'
	DD	00H
	DD	01H
	DD	FLAT:??_R2SK_Widget@@8
rdata$r	ENDS
;	COMDAT ??_R0?AVSK_Widget@@@8
data$r	SEGMENT
??_R0?AVSK_Widget@@@8 DD FLAT:??_7type_info@@6B@	; SK_Widget `RTTI Type Descriptor'
	DD	00H
	DB	'.?AVSK_Widget@@', 00H
data$r	ENDS
;	COMDAT ??_R4SK_Widget@@6B@
rdata$r	SEGMENT
??_R4SK_Widget@@6B@ DD 00H				; SK_Widget::`RTTI Complete Object Locator'
	DD	00H
	DD	00H
	DD	FLAT:??_R0?AVSK_Widget@@@8
	DD	FLAT:??_R3SK_Widget@@8
rdata$r	ENDS
;	COMDAT ??_C@_0BI@CFPLBAOH@invalid?5string?5position?$AA@
CONST	SEGMENT
??_C@_0BI@CFPLBAOH@invalid?5string?5position?$AA@ DB 'invalid string posi'
	DB	'tion', 00H					; `string'
CONST	ENDS
;	COMDAT ??_C@_0BA@JFNIOLAK@string?5too?5long?$AA@
CONST	SEGMENT
??_C@_0BA@JFNIOLAK@string?5too?5long?$AA@ DB 'string too long', 00H ; `string'
CONST	ENDS
;	COMDAT ??_C@_0BB@JCPKAKKF@?$CD?$CD?$CDGPU_VRAMUsage?$AA@
CONST	SEGMENT
??_C@_0BB@JCPKAKKF@?$CD?$CD?$CDGPU_VRAMUsage?$AA@ DB '###GPU_VRAMUsage', 00H ; `string'
CONST	ENDS
;	COMDAT ??_C@_0EJ@NMNMIBDN@GPU?$CFlu?5VRAM?5Usage?5?$CIMiB?$CJ?3?6?6?6?5?5?5?5?5@
CONST	SEGMENT
??_C@_0EJ@NMNMIBDN@GPU?$CFlu?5VRAM?5Usage?5?$CIMiB?$CJ?3?6?6?6?5?5?5?5?5@ DB 'G'
	DB	'PU%lu VRAM Usage (MiB):', 0aH, 0aH, 0aH, '          min: %6.1'
	DB	'f, max: %6.1f, avg: %6.1f', 0aH, 00H	; `string'
CONST	ENDS
;	COMDAT ??_C@_0BB@NMJABJBB@?$CD?$CD?$CDGPU_VRAMClock?$AA@
CONST	SEGMENT
??_C@_0BB@NMJABJBB@?$CD?$CD?$CDGPU_VRAMClock?$AA@ DB '###GPU_VRAMClock', 00H ; `string'
CONST	ENDS
;	COMDAT ??_C@_0EJ@DJOKDOLI@GPU?$CFlu?5VRAM?5Clock?5?$CIGHz?$CJ?3?6?6?6?5?5?5?5?5@
CONST	SEGMENT
??_C@_0EJ@DJOKDOLI@GPU?$CFlu?5VRAM?5Clock?5?$CIGHz?$CJ?3?6?6?6?5?5?5?5?5@ DB 'G'
	DB	'PU%lu VRAM Clock (GHz):', 0aH, 0aH, 0aH, '          min: %4.2'
	DB	'f, max: %4.2f, avg: %5.3f', 0aH, 00H	; `string'
CONST	ENDS
;	COMDAT ??_C@_0BB@DFHJFHFN@?$CD?$CD?$CDGPU_CoreClock?$AA@
CONST	SEGMENT
??_C@_0BB@DFHJFHFN@?$CD?$CD?$CDGPU_CoreClock?$AA@ DB '###GPU_CoreClock', 00H ; `string'
CONST	ENDS
;	COMDAT ??_C@_0EJ@JCEADLCF@GPU?$CFlu?5Core?5Clock?5?$CIGHz?$CJ?3?6?6?6?5?5?5?5?5@
CONST	SEGMENT
??_C@_0EJ@JCEADLCF@GPU?$CFlu?5Core?5Clock?5?$CIGHz?$CJ?3?6?6?6?5?5?5?5?5@ DB 'G'
	DB	'PU%lu Core Clock (GHz):', 0aH, 0aH, 0aH, '          min: %4.2'
	DB	'f, max: %4.2f, avg: %5.3f', 0aH, 00H	; `string'
CONST	ENDS
;	COMDAT ??_C@_0N@MIKFKOFP@?$CD?$CD?$CDGPU_TempC?$AA@
CONST	SEGMENT
??_C@_0N@MIKFKOFP@?$CD?$CD?$CDGPU_TempC?$AA@ DB '###GPU_TempC', 00H ; `string'
CONST	ENDS
;	COMDAT ??_C@_0EJ@IJKLDOJK@GPU?$CFlu?5Temp?5?$CI?B?$LAC?$CJ?3?6?6?6?5?5?5?5?5?5?5?5?5?5m@
CONST	SEGMENT
??_C@_0EJ@IJKLDOJK@GPU?$CFlu?5Temp?5?$CI?B?$LAC?$CJ?3?6?6?6?5?5?5?5?5?5?5?5?5?5m@ DB 'G'
	DB	'PU%lu Temp (', 0c2H, 0b0H, 'C):', 0aH, 0aH, 0aH, '          m'
	DB	'in: %3.0f', 0c2H, 0b0H, ', max: %3.0f', 0c2H, 0b0H, ', avg: %'
	DB	'4.1f', 0c2H, 0b0H, 0aH, 00H			; `string'
CONST	ENDS
;	COMDAT ??_C@_0BD@GCENCMFL@?$CD?$CD?$CDGPU_LoadPercent?$AA@
CONST	SEGMENT
??_C@_0BD@GCENCMFL@?$CD?$CD?$CDGPU_LoadPercent?$AA@ DB '###GPU_LoadPercen'
	DB	't', 00H					; `string'
CONST	ENDS
;	COMDAT ??_C@_0EG@NDKAAPJL@GPU?$CFlu?5Load?5?$CF?$CF?3?6?6?6?5?5?5?5?5?5?5?5?5?5min?3@
CONST	SEGMENT
??_C@_0EG@NDKAAPJL@GPU?$CFlu?5Load?5?$CF?$CF?3?6?6?6?5?5?5?5?5?5?5?5?5?5min?3@ DB 'G'
	DB	'PU%lu Load %%:', 0aH, 0aH, 0aH, '          min: %3.0f%%, max:'
	DB	' %3.0f%%, avg: %4.1f%%', 0aH, 00H		; `string'
CONST	ENDS
;	COMDAT ??_C@_0L@DJLPPAIK@GPUMonitor?$AA@
CONST	SEGMENT
??_C@_0L@DJLPPAIK@GPUMonitor?$AA@ DB 'GPUMonitor', 00H	; `string'
CONST	ENDS
;	COMDAT ??_7SKWG_GPU_Monitor@@6B@
CONST	SEGMENT
??_7SKWG_GPU_Monitor@@6B@ DD FLAT:??_R4SKWG_GPU_Monitor@@6B@ ; SKWG_GPU_Monitor::`vftable'
	DD	FLAT:?run@SKWG_GPU_Monitor@@UAEXXZ
	DD	FLAT:?draw@SKWG_GPU_Monitor@@UAEXXZ
	DD	FLAT:?OnConfig@SKWG_GPU_Monitor@@UAEXW4ConfigEvent@SK_Widget@@@Z
CONST	ENDS
;	COMDAT ??_C@_0BF@IHOHKLDA@Widget?5Focus?5Keybind?$AA@
CONST	SEGMENT
??_C@_0BF@IHOHKLDA@Widget?5Focus?5Keybind?$AA@ DB 'Widget Focus Keybind', 00H ; `string'
CONST	ENDS
;	COMDAT ??_C@_11LOCGONAA@?$AA?$AA@
CONST	SEGMENT
??_C@_11LOCGONAA@?$AA?$AA@ DB 00H, 00H			; `string'
CONST	ENDS
;	COMDAT ??_C@_0BG@LCBJFFOH@Widget?5Toggle?5Keybind?$AA@
CONST	SEGMENT
??_C@_0BG@LCBJFFOH@Widget?5Toggle?5Keybind?$AA@ DB 'Widget Toggle Keybind'
	DB	00H						; `string'
CONST	ENDS
;	COMDAT ??_7SK_Widget@@6B@
CONST	SEGMENT
??_7SK_Widget@@6B@ DD FLAT:??_R4SK_Widget@@6B@		; SK_Widget::`vftable'
	DD	FLAT:?run@SK_Widget@@UAEXXZ
	DD	FLAT:?draw@SK_Widget@@UAEXXZ
	DD	FLAT:?OnConfig@SK_Widget@@MAEXW4ConfigEvent@1@@Z
CONST	ENDS
;	COMDAT xdata$x
xdata$x	SEGMENT
__unwindtable$??1SK_Widget@@QAE@XZ DD 0ffffffffH
	DD	FLAT:___std_terminate
__ehfuncinfo$??1SK_Widget@@QAE@XZ DD 019930522H
	DD	01H
	DD	FLAT:__unwindtable$??1SK_Widget@@QAE@XZ
	DD	2 DUP(00H)
	DD	2 DUP(00H)
	DD	00H
	DD	05H
xdata$x	ENDS
;	COMDAT xdata$x
xdata$x	SEGMENT
__unwindtable$??1?$map@V?$basic_string@DU?$char_traits@D@std@@V?$allocator@D@2@@std@@PAViParameter@sk@@U?$less@V?$basic_string@DU?$char_traits@D@std@@V?$allocator@D@2@@std@@@2@V?$allocator@U?$pair@$$CBV?$basic_string@DU?$char_traits@D@std@@V?$allocator@D@2@@std@@PAViParameter@sk@@@std@@@2@@std@@QAE@XZ DD 0ffffffffH
	DD	FLAT:___std_terminate
__ehfuncinfo$??1?$map@V?$basic_string@DU?$char_traits@D@std@@V?$allocator@D@2@@std@@PAViParameter@sk@@U?$less@V?$basic_string@DU?$char_traits@D@std@@V?$allocator@D@2@@std@@@2@V?$allocator@U?$pair@$$CBV?$basic_string@DU?$char_traits@D@std@@V?$allocator@D@2@@std@@PAViParameter@sk@@@std@@@2@@std@@QAE@XZ DD 019930522H
	DD	01H
	DD	FLAT:__unwindtable$??1?$map@V?$basic_string@DU?$char_traits@D@std@@V?$allocator@D@2@@std@@PAViParameter@sk@@U?$less@V?$basic_string@DU?$char_traits@D@std@@V?$allocator@D@2@@std@@@2@V?$allocator@U?$pair@$$CBV?$basic_string@DU?$char_traits@D@std@@V?$allocator@D@2@@std@@PAViParameter@sk@@@std@@@2@@std@@QAE@XZ
	DD	2 DUP(00H)
	DD	2 DUP(00H)
	DD	00H
	DD	05H
xdata$x	ENDS
;	COMDAT xdata$x
xdata$x	SEGMENT
__ehfuncinfo$?clear@?$_Tree@V?$_Tmap_traits@V?$basic_string@DU?$char_traits@D@std@@V?$allocator@D@2@@std@@PAViParameter@sk@@U?$less@V?$basic_string@DU?$char_traits@D@std@@V?$allocator@D@2@@std@@@2@V?$allocator@U?$pair@$$CBV?$basic_string@DU?$char_traits@D@std@@V?$allocator@D@2@@std@@PAViParameter@sk@@@std@@@2@$0A@@std@@@std@@QAEXXZ DD 019930522H
	DD	00H
	DD	00H
	DD	2 DUP(00H)
	DD	2 DUP(00H)
	DD	00H
	DD	05H
xdata$x	ENDS
;	COMDAT xdata$x
xdata$x	SEGMENT
__unwindtable$?erase@?$_Tree@V?$_Tmap_traits@V?$basic_string@DU?$char_traits@D@std@@V?$allocator@D@2@@std@@PAViParameter@sk@@U?$less@V?$basic_string@DU?$char_traits@D@std@@V?$allocator@D@2@@std@@@2@V?$allocator@U?$pair@$$CBV?$basic_string@DU?$char_traits@D@std@@V?$allocator@D@2@@std@@PAViParameter@sk@@@std@@@2@$0A@@std@@@std@@QAE?AV?$_Tree_iterator@V?$_Tree_val@U?$_Tree_simple_types@U?$pair@$$CBV?$basic_string@DU?$char_traits@D@std@@V?$allocator@D@2@@std@@PAViParameter@sk@@@std@@@std@@@std@@@2@V?$_Tree_const_iterator@V?$_Tree_val@U?$_Tree_simple_types@U?$pair@$$CBV?$basic_string@DU?$char_traits@D@std@@V?$allocator@D@2@@std@@PAViParameter@sk@@@std@@@std@@@std@@@2@0@Z DD 0ffffffffH
	DD	FLAT:___std_terminate
__ehfuncinfo$?erase@?$_Tree@V?$_Tmap_traits@V?$basic_string@DU?$char_traits@D@std@@V?$allocator@D@2@@std@@PAViParameter@sk@@U?$less@V?$basic_string@DU?$char_traits@D@std@@V?$allocator@D@2@@std@@@2@V?$allocator@U?$pair@$$CBV?$basic_string@DU?$char_traits@D@std@@V?$allocator@D@2@@std@@PAViParameter@sk@@@std@@@2@$0A@@std@@@std@@QAE?AV?$_Tree_iterator@V?$_Tree_val@U?$_Tree_simple_types@U?$pair@$$CBV?$basic_string@DU?$char_traits@D@std@@V?$allocator@D@2@@std@@PAViParameter@sk@@@std@@@std@@@std@@@2@V?$_Tree_const_iterator@V?$_Tree_val@U?$_Tree_simple_types@U?$pair@$$CBV?$basic_string@DU?$char_traits@D@std@@V?$allocator@D@2@@std@@PAViParameter@sk@@@std@@@std@@@std@@@2@0@Z DD 019930522H
	DD	01H
	DD	FLAT:__unwindtable$?erase@?$_Tree@V?$_Tmap_traits@V?$basic_string@DU?$char_traits@D@std@@V?$allocator@D@2@@std@@PAViParameter@sk@@U?$less@V?$basic_string@DU?$char_traits@D@std@@V?$allocator@D@2@@std@@@2@V?$allocator@U?$pair@$$CBV?$basic_string@DU?$char_traits@D@std@@V?$allocator@D@2@@std@@PAViParameter@sk@@@std@@@2@$0A@@std@@@std@@QAE?AV?$_Tree_iterator@V?$_Tree_val@U?$_Tree_simple_types@U?$pair@$$CBV?$basic_string@DU?$char_traits@D@std@@V?$allocator@D@2@@std@@PAViParameter@sk@@@std@@@std@@@std@@@2@V?$_Tree_const_iterator@V?$_Tree_val@U?$_Tree_simple_types@U?$pair@$$CBV?$basic_string@DU?$char_traits@D@std@@V?$allocator@D@2@@std@@PAViParameter@sk@@@std@@@std@@@std@@@2@0@Z
	DD	2 DUP(00H)
	DD	2 DUP(00H)
	DD	00H
	DD	01H
xdata$x	ENDS
;	COMDAT xdata$x
xdata$x	SEGMENT
__ehfuncinfo$??1?$_Tree@V?$_Tmap_traits@V?$basic_string@DU?$char_traits@D@std@@V?$allocator@D@2@@std@@PAViParameter@sk@@U?$less@V?$basic_string@DU?$char_traits@D@std@@V?$allocator@D@2@@std@@@2@V?$allocator@U?$pair@$$CBV?$basic_string@DU?$char_traits@D@std@@V?$allocator@D@2@@std@@PAViParameter@sk@@@std@@@2@$0A@@std@@@std@@QAE@XZ DD 019930522H
	DD	00H
	DD	00H
	DD	2 DUP(00H)
	DD	2 DUP(00H)
	DD	00H
	DD	05H
xdata$x	ENDS
;	COMDAT xdata$x
xdata$x	SEGMENT
__unwindtable$??0SK_Widget@@IAE@PBD@Z DD 0ffffffffH
	DD	FLAT:__unwindfunclet$??0SK_Widget@@IAE@PBD@Z$1
	DD	00H
	DD	FLAT:__unwindfunclet$??0SK_Widget@@IAE@PBD@Z$3
	DD	01H
	DD	FLAT:__unwindfunclet$??0SK_Widget@@IAE@PBD@Z$4
__ehfuncinfo$??0SK_Widget@@IAE@PBD@Z DD 019930522H
	DD	03H
	DD	FLAT:__unwindtable$??0SK_Widget@@IAE@PBD@Z
	DD	2 DUP(00H)
	DD	2 DUP(00H)
	DD	00H
	DD	01H
xdata$x	ENDS
;	COMDAT xdata$x
xdata$x	SEGMENT
__catchsym$?_Copy@?$basic_string@_WU?$char_traits@_W@std@@V?$allocator@_W@2@@std@@QAEXI@Z$18 DD 040H
	DD	00H
	DD	00H
	DD	FLAT:__catch$?_Copy@?$basic_string@_WU?$char_traits@_W@std@@V?$allocator@_W@2@@std@@QAEXI@Z$0
__unwindtable$?_Copy@?$basic_string@_WU?$char_traits@_W@std@@V?$allocator@_W@2@@std@@QAEXI@Z DD 0ffffffffH
	DD	00H
	DD	0ffffffffH
	DD	00H
__tryblocktable$?_Copy@?$basic_string@_WU?$char_traits@_W@std@@V?$allocator@_W@2@@std@@QAEXI@Z DD 00H
	DD	00H
	DD	01H
	DD	01H
	DD	FLAT:__catchsym$?_Copy@?$basic_string@_WU?$char_traits@_W@std@@V?$allocator@_W@2@@std@@QAEXI@Z$18
__ehfuncinfo$?_Copy@?$basic_string@_WU?$char_traits@_W@std@@V?$allocator@_W@2@@std@@QAEXI@Z DD 019930522H
	DD	02H
	DD	FLAT:__unwindtable$?_Copy@?$basic_string@_WU?$char_traits@_W@std@@V?$allocator@_W@2@@std@@QAEXI@Z
	DD	01H
	DD	FLAT:__tryblocktable$?_Copy@?$basic_string@_WU?$char_traits@_W@std@@V?$allocator@_W@2@@std@@QAEXI@Z
	DD	2 DUP(00H)
	DD	00H
	DD	01H
xdata$x	ENDS
;	COMDAT xdata$x
xdata$x	SEGMENT
__catchsym$?_Copy@?$basic_string@DU?$char_traits@D@std@@V?$allocator@D@2@@std@@QAEXI@Z$18 DD 040H
	DD	00H
	DD	00H
	DD	FLAT:__catch$?_Copy@?$basic_string@DU?$char_traits@D@std@@V?$allocator@D@2@@std@@QAEXI@Z$0
__unwindtable$?_Copy@?$basic_string@DU?$char_traits@D@std@@V?$allocator@D@2@@std@@QAEXI@Z DD 0ffffffffH
	DD	00H
	DD	0ffffffffH
	DD	00H
__tryblocktable$?_Copy@?$basic_string@DU?$char_traits@D@std@@V?$allocator@D@2@@std@@QAEXI@Z DD 00H
	DD	00H
	DD	01H
	DD	01H
	DD	FLAT:__catchsym$?_Copy@?$basic_string@DU?$char_traits@D@std@@V?$allocator@D@2@@std@@QAEXI@Z$18
__ehfuncinfo$?_Copy@?$basic_string@DU?$char_traits@D@std@@V?$allocator@D@2@@std@@QAEXI@Z DD 019930522H
	DD	02H
	DD	FLAT:__unwindtable$?_Copy@?$basic_string@DU?$char_traits@D@std@@V?$allocator@D@2@@std@@QAEXI@Z
	DD	01H
	DD	FLAT:__tryblocktable$?_Copy@?$basic_string@DU?$char_traits@D@std@@V?$allocator@D@2@@std@@QAEXI@Z
	DD	2 DUP(00H)
	DD	00H
	DD	01H
xdata$x	ENDS
; Function compile flags: /Ogtp
; File c:\program files (x86)\microsoft visual studio\2017\community\vc\tools\msvc\14.10.25017\include\xmemory0
;	COMDAT ??$construct@PAU?$_Tree_node@U?$pair@$$CBV?$basic_string@DU?$char_traits@D@std@@V?$allocator@D@2@@std@@PAViParameter@sk@@@std@@PAX@std@@AAPAU12@@?$allocator@U?$_Tree_node@U?$pair@$$CBV?$basic_string@DU?$char_traits@D@std@@V?$allocator@D@2@@std@@PAViParameter@sk@@@std@@PAX@std@@@std@@QAEXPAPAU?$_Tree_node@U?$pair@$$CBV?$basic_string@DU?$char_traits@D@std@@V?$allocator@D@2@@std@@PAViParameter@sk@@@std@@PAX@1@AAPAU21@@Z
_TEXT	SEGMENT
__Ptr$ = 8						; size = 4
_<_Args_0>$ = 12					; size = 4
??$construct@PAU?$_Tree_node@U?$pair@$$CBV?$basic_string@DU?$char_traits@D@std@@V?$allocator@D@2@@std@@PAViParameter@sk@@@std@@PAX@std@@AAPAU12@@?$allocator@U?$_Tree_node@U?$pair@$$CBV?$basic_string@DU?$char_traits@D@std@@V?$allocator@D@2@@std@@PAViParameter@sk@@@std@@PAX@std@@@std@@QAEXPAPAU?$_Tree_node@U?$pair@$$CBV?$basic_string@DU?$char_traits@D@std@@V?$allocator@D@2@@std@@PAViParameter@sk@@@std@@PAX@1@AAPAU21@@Z PROC ; std::allocator<std::_Tree_node<std::pair<std::basic_string<char,std::char_traits<char>,std::allocator<char> > const ,sk::iParameter *>,void *> >::construct<std::_Tree_node<std::pair<std::basic_string<char,std::char_traits<char>,std::allocator<char> > const ,sk::iParameter *>,void *> *,std::_Tree_node<std::pair<std::basic_string<char,std::char_traits<char>,std::allocator<char> > const ,sk::iParameter *>,void *> * &>, COMDAT
; _this$ = ecx

; 839  : 		{	// construct _Objty(_Types...) at _Ptr

	npad	2
	push	ebp
	mov	ebp, esp

; 840  : 		::new ((void *)_Ptr) _Objty(_STD forward<_Types>(_Args)...);

	mov	ecx, DWORD PTR __Ptr$[ebp]
	test	ecx, ecx
	je	SHORT $LN3@construct
	mov	eax, DWORD PTR _<_Args_0>$[ebp]
	mov	eax, DWORD PTR [eax]
	mov	DWORD PTR [ecx], eax
$LN3@construct:

; 841  : 		}

	pop	ebp
	ret	8
??$construct@PAU?$_Tree_node@U?$pair@$$CBV?$basic_string@DU?$char_traits@D@std@@V?$allocator@D@2@@std@@PAViParameter@sk@@@std@@PAX@std@@AAPAU12@@?$allocator@U?$_Tree_node@U?$pair@$$CBV?$basic_string@DU?$char_traits@D@std@@V?$allocator@D@2@@std@@PAViParameter@sk@@@std@@PAX@std@@@std@@QAEXPAPAU?$_Tree_node@U?$pair@$$CBV?$basic_string@DU?$char_traits@D@std@@V?$allocator@D@2@@std@@PAViParameter@sk@@@std@@PAX@1@AAPAU21@@Z ENDP ; std::allocator<std::_Tree_node<std::pair<std::basic_string<char,std::char_traits<char>,std::allocator<char> > const ,sk::iParameter *>,void *> >::construct<std::_Tree_node<std::pair<std::basic_string<char,std::char_traits<char>,std::allocator<char> > const ,sk::iParameter *>,void *> *,std::_Tree_node<std::pair<std::basic_string<char,std::char_traits<char>,std::allocator<char> > const ,sk::iParameter *>,void *> * &>
_TEXT	ENDS
; Function compile flags: /Ogtp
; File c:\program files (x86)\microsoft visual studio\2017\community\vc\tools\msvc\14.10.25017\include\xmemory0
;	COMDAT ??$construct@PADAAPAD@?$allocator@D@std@@QAEXPAPADAAPAD@Z
_TEXT	SEGMENT
__Ptr$ = 8						; size = 4
_<_Args_0>$ = 12					; size = 4
??$construct@PADAAPAD@?$allocator@D@std@@QAEXPAPADAAPAD@Z PROC ; std::allocator<char>::construct<char *,char * &>, COMDAT
; _this$ = ecx

; 839  : 		{	// construct _Objty(_Types...) at _Ptr

	npad	2
	push	ebp
	mov	ebp, esp

; 840  : 		::new ((void *)_Ptr) _Objty(_STD forward<_Types>(_Args)...);

	mov	ecx, DWORD PTR __Ptr$[ebp]
	test	ecx, ecx
	je	SHORT $LN3@construct
	mov	eax, DWORD PTR _<_Args_0>$[ebp]
	mov	eax, DWORD PTR [eax]
	mov	DWORD PTR [ecx], eax
$LN3@construct:

; 841  : 		}

	pop	ebp
	ret	8
??$construct@PADAAPAD@?$allocator@D@std@@QAEXPAPADAAPAD@Z ENDP ; std::allocator<char>::construct<char *,char * &>
_TEXT	ENDS
; Function compile flags: /Ogtp
; File c:\program files (x86)\microsoft visual studio\2017\community\vc\tools\msvc\14.10.25017\include\xmemory0
;	COMDAT ??$construct@PA_WAAPA_W@?$allocator@_W@std@@QAEXPAPA_WAAPA_W@Z
_TEXT	SEGMENT
__Ptr$ = 8						; size = 4
_<_Args_0>$ = 12					; size = 4
??$construct@PA_WAAPA_W@?$allocator@_W@std@@QAEXPAPA_WAAPA_W@Z PROC ; std::allocator<wchar_t>::construct<wchar_t *,wchar_t * &>, COMDAT
; _this$ = ecx

; 839  : 		{	// construct _Objty(_Types...) at _Ptr

	npad	2
	push	ebp
	mov	ebp, esp

; 840  : 		::new ((void *)_Ptr) _Objty(_STD forward<_Types>(_Args)...);

	mov	ecx, DWORD PTR __Ptr$[ebp]
	test	ecx, ecx
	je	SHORT $LN3@construct
	mov	eax, DWORD PTR _<_Args_0>$[ebp]
	mov	eax, DWORD PTR [eax]
	mov	DWORD PTR [ecx], eax
$LN3@construct:

; 841  : 		}

	pop	ebp
	ret	8
??$construct@PA_WAAPA_W@?$allocator@_W@std@@QAEXPAPA_WAAPA_W@Z ENDP ; std::allocator<wchar_t>::construct<wchar_t *,wchar_t * &>
_TEXT	ENDS
; Function compile flags: /Ogtp
; File c:\program files (x86)\microsoft visual studio\2017\community\vc\tools\msvc\14.10.25017\include\xmemory0
; File c:\program files (x86)\microsoft visual studio\2017\community\vc\tools\msvc\14.10.25017\include\xstring
; File c:\program files (x86)\microsoft visual studio\2017\community\vc\tools\msvc\14.10.25017\include\xmemory0
; File c:\program files (x86)\microsoft visual studio\2017\community\vc\tools\msvc\14.10.25017\include\xstring
; File c:\program files (x86)\microsoft visual studio\2017\community\vc\tools\msvc\14.10.25017\include\xmemory0
; File c:\program files (x86)\microsoft visual studio\2017\community\vc\tools\msvc\14.10.25017\include\xstring
; File c:\program files (x86)\microsoft visual studio\2017\community\vc\tools\msvc\14.10.25017\include\iosfwd
; File c:\program files (x86)\microsoft visual studio\2017\community\vc\tools\msvc\14.10.25017\include\xmemory0
;	COMDAT ??$destroy@U?$pair@$$CBV?$basic_string@DU?$char_traits@D@std@@V?$allocator@D@2@@std@@PAViParameter@sk@@@std@@@?$allocator@U?$_Tree_node@U?$pair@$$CBV?$basic_string@DU?$char_traits@D@std@@V?$allocator@D@2@@std@@PAViParameter@sk@@@std@@PAX@std@@@std@@QAEXPAU?$pair@$$CBV?$basic_string@DU?$char_traits@D@std@@V?$allocator@D@2@@std@@PAViParameter@sk@@@1@@Z
_TEXT	SEGMENT
__Ptr$ = 8						; size = 4
??$destroy@U?$pair@$$CBV?$basic_string@DU?$char_traits@D@std@@V?$allocator@D@2@@std@@PAViParameter@sk@@@std@@@?$allocator@U?$_Tree_node@U?$pair@$$CBV?$basic_string@DU?$char_traits@D@std@@V?$allocator@D@2@@std@@PAViParameter@sk@@@std@@PAX@std@@@std@@QAEXPAU?$pair@$$CBV?$basic_string@DU?$char_traits@D@std@@V?$allocator@D@2@@std@@PAViParameter@sk@@@1@@Z PROC ; std::allocator<std::_Tree_node<std::pair<std::basic_string<char,std::char_traits<char>,std::allocator<char> > const ,sk::iParameter *>,void *> >::destroy<std::pair<std::basic_string<char,std::char_traits<char>,std::allocator<char> > const ,sk::iParameter *> >, COMDAT
; _this$ = ecx

; 845  : 		{	// destroy object at _Ptr

	npad	2
	push	ebp
	mov	ebp, esp
	push	esi
; File c:\program files (x86)\microsoft visual studio\2017\community\vc\tools\msvc\14.10.25017\include\xstring

; 1628 : 		return (this->_BUF_SIZE <= _Myres);

	mov	esi, DWORD PTR __Ptr$[ebp]
	mov	eax, DWORD PTR [esi+20]
	cmp	eax, 16					; 00000010H

; 3608 : 		if (_My_data._Large_string_engaged())

	jb	SHORT $LN14@destroy
; File c:\program files (x86)\microsoft visual studio\2017\community\vc\tools\msvc\14.10.25017\include\xmemory0

; 823  : 		_Deallocate(_Ptr, _Count, sizeof (_Ty));

	push	1
; File c:\program files (x86)\microsoft visual studio\2017\community\vc\tools\msvc\14.10.25017\include\xstring

; 3613 : 			_Al.deallocate(_Ptr, _My_data._Myres + 1);

	inc	eax
; File c:\program files (x86)\microsoft visual studio\2017\community\vc\tools\msvc\14.10.25017\include\xmemory0

; 823  : 		_Deallocate(_Ptr, _Count, sizeof (_Ty));

	push	eax
	push	DWORD PTR [esi]
	call	?_Deallocate@std@@YAXPAXII@Z		; std::_Deallocate
	add	esp, 12					; 0000000cH
$LN14@destroy:
; File c:\program files (x86)\microsoft visual studio\2017\community\vc\tools\msvc\14.10.25017\include\xstring

; 3616 : 		_My_data._Mysize = 0;

	mov	DWORD PTR [esi+16], 0

; 3617 : 		_My_data._Myres = this->_BUF_SIZE - 1;

	mov	DWORD PTR [esi+20], 15			; 0000000fH
; File c:\program files (x86)\microsoft visual studio\2017\community\vc\tools\msvc\14.10.25017\include\iosfwd

; 517  : 		_Left = _Right;

	mov	BYTE PTR [esi], 0
	pop	esi
; File c:\program files (x86)\microsoft visual studio\2017\community\vc\tools\msvc\14.10.25017\include\xmemory0

; 847  : 		}

	pop	ebp
	ret	4
??$destroy@U?$pair@$$CBV?$basic_string@DU?$char_traits@D@std@@V?$allocator@D@2@@std@@PAViParameter@sk@@@std@@@?$allocator@U?$_Tree_node@U?$pair@$$CBV?$basic_string@DU?$char_traits@D@std@@V?$allocator@D@2@@std@@PAViParameter@sk@@@std@@PAX@std@@@std@@QAEXPAU?$pair@$$CBV?$basic_string@DU?$char_traits@D@std@@V?$allocator@D@2@@std@@PAViParameter@sk@@@1@@Z ENDP ; std::allocator<std::_Tree_node<std::pair<std::basic_string<char,std::char_traits<char>,std::allocator<char> > const ,sk::iParameter *>,void *> >::destroy<std::pair<std::basic_string<char,std::char_traits<char>,std::allocator<char> > const ,sk::iParameter *> >
_TEXT	ENDS
; Function compile flags: /Ogtp
; File c:\program files (x86)\microsoft visual studio\2017\community\vc\tools\msvc\14.10.25017\include\xmemory0
;	COMDAT ??$destroy@PAU?$_Tree_node@U?$pair@$$CBV?$basic_string@DU?$char_traits@D@std@@V?$allocator@D@2@@std@@PAViParameter@sk@@@std@@PAX@std@@@?$allocator@U?$_Tree_node@U?$pair@$$CBV?$basic_string@DU?$char_traits@D@std@@V?$allocator@D@2@@std@@PAViParameter@sk@@@std@@PAX@std@@@std@@QAEXPAPAU?$_Tree_node@U?$pair@$$CBV?$basic_string@DU?$char_traits@D@std@@V?$allocator@D@2@@std@@PAViParameter@sk@@@std@@PAX@1@@Z
_TEXT	SEGMENT
__Ptr$ = 8						; size = 4
??$destroy@PAU?$_Tree_node@U?$pair@$$CBV?$basic_string@DU?$char_traits@D@std@@V?$allocator@D@2@@std@@PAViParameter@sk@@@std@@PAX@std@@@?$allocator@U?$_Tree_node@U?$pair@$$CBV?$basic_string@DU?$char_traits@D@std@@V?$allocator@D@2@@std@@PAViParameter@sk@@@std@@PAX@std@@@std@@QAEXPAPAU?$_Tree_node@U?$pair@$$CBV?$basic_string@DU?$char_traits@D@std@@V?$allocator@D@2@@std@@PAViParameter@sk@@@std@@PAX@1@@Z PROC ; std::allocator<std::_Tree_node<std::pair<std::basic_string<char,std::char_traits<char>,std::allocator<char> > const ,sk::iParameter *>,void *> >::destroy<std::_Tree_node<std::pair<std::basic_string<char,std::char_traits<char>,std::allocator<char> > const ,sk::iParameter *>,void *> *>, COMDAT
; _this$ = ecx

; 846  : 		_Ptr->~_Uty();
; 847  : 		}

	ret	4
??$destroy@PAU?$_Tree_node@U?$pair@$$CBV?$basic_string@DU?$char_traits@D@std@@V?$allocator@D@2@@std@@PAViParameter@sk@@@std@@PAX@std@@@?$allocator@U?$_Tree_node@U?$pair@$$CBV?$basic_string@DU?$char_traits@D@std@@V?$allocator@D@2@@std@@PAViParameter@sk@@@std@@PAX@std@@@std@@QAEXPAPAU?$_Tree_node@U?$pair@$$CBV?$basic_string@DU?$char_traits@D@std@@V?$allocator@D@2@@std@@PAViParameter@sk@@@std@@PAX@1@@Z ENDP ; std::allocator<std::_Tree_node<std::pair<std::basic_string<char,std::char_traits<char>,std::allocator<char> > const ,sk::iParameter *>,void *> >::destroy<std::_Tree_node<std::pair<std::basic_string<char,std::char_traits<char>,std::allocator<char> > const ,sk::iParameter *>,void *> *>
_TEXT	ENDS
; Function compile flags: /Ogtp
; File c:\program files (x86)\microsoft visual studio\2017\community\vc\tools\msvc\14.10.25017\include\xmemory0
;	COMDAT ??$destroy@PAD@?$allocator@D@std@@QAEXPAPAD@Z
_TEXT	SEGMENT
__Ptr$ = 8						; size = 4
??$destroy@PAD@?$allocator@D@std@@QAEXPAPAD@Z PROC	; std::allocator<char>::destroy<char *>, COMDAT
; _this$ = ecx

; 846  : 		_Ptr->~_Uty();
; 847  : 		}

	ret	4
??$destroy@PAD@?$allocator@D@std@@QAEXPAPAD@Z ENDP	; std::allocator<char>::destroy<char *>
_TEXT	ENDS
; Function compile flags: /Ogtp
; File c:\program files (x86)\microsoft visual studio\2017\community\vc\tools\msvc\14.10.25017\include\xmemory0
;	COMDAT ??$destroy@PA_W@?$allocator@_W@std@@QAEXPAPA_W@Z
_TEXT	SEGMENT
__Ptr$ = 8						; size = 4
??$destroy@PA_W@?$allocator@_W@std@@QAEXPAPA_W@Z PROC	; std::allocator<wchar_t>::destroy<wchar_t *>, COMDAT
; _this$ = ecx

; 846  : 		_Ptr->~_Uty();
; 847  : 		}

	ret	4
??$destroy@PA_W@?$allocator@_W@std@@QAEXPAPA_W@Z ENDP	; std::allocator<wchar_t>::destroy<wchar_t *>
_TEXT	ENDS
; Function compile flags: /Ogtp
; File c:\program files (x86)\microsoft visual studio\2017\community\vc\tools\msvc\14.10.25017\include\xmemory0
;	COMDAT ??$construct@PAU?$_Tree_node@U?$pair@$$CBV?$basic_string@DU?$char_traits@D@std@@V?$allocator@D@2@@std@@PAViParameter@sk@@@std@@PAX@std@@AAPAU12@@?$allocator_traits@V?$allocator@U?$_Tree_node@U?$pair@$$CBV?$basic_string@DU?$char_traits@D@std@@V?$allocator@D@2@@std@@PAViParameter@sk@@@std@@PAX@std@@@std@@@std@@SAXAAV?$allocator@U?$_Tree_node@U?$pair@$$CBV?$basic_string@DU?$char_traits@D@std@@V?$allocator@D@2@@std@@PAViParameter@sk@@@std@@PAX@std@@@1@PAPAU?$_Tree_node@U?$pair@$$CBV?$basic_string@DU?$char_traits@D@std@@V?$allocator@D@2@@std@@PAViParameter@sk@@@std@@PAX@1@AAPAU31@@Z
_TEXT	SEGMENT
__Al$ = 8						; size = 4
__Ptr$ = 12						; size = 4
_<_Args_0>$ = 16					; size = 4
??$construct@PAU?$_Tree_node@U?$pair@$$CBV?$basic_string@DU?$char_traits@D@std@@V?$allocator@D@2@@std@@PAViParameter@sk@@@std@@PAX@std@@AAPAU12@@?$allocator_traits@V?$allocator@U?$_Tree_node@U?$pair@$$CBV?$basic_string@DU?$char_traits@D@std@@V?$allocator@D@2@@std@@PAViParameter@sk@@@std@@PAX@std@@@std@@@std@@SAXAAV?$allocator@U?$_Tree_node@U?$pair@$$CBV?$basic_string@DU?$char_traits@D@std@@V?$allocator@D@2@@std@@PAViParameter@sk@@@std@@PAX@std@@@1@PAPAU?$_Tree_node@U?$pair@$$CBV?$basic_string@DU?$char_traits@D@std@@V?$allocator@D@2@@std@@PAViParameter@sk@@@std@@PAX@1@AAPAU31@@Z PROC ; std::allocator_traits<std::allocator<std::_Tree_node<std::pair<std::basic_string<char,std::char_traits<char>,std::allocator<char> > const ,sk::iParameter *>,void *> > >::construct<std::_Tree_node<std::pair<std::basic_string<char,std::char_traits<char>,std::allocator<char> > const ,sk::iParameter *>,void *> *,std::_Tree_node<std::pair<std::basic_string<char,std::char_traits<char>,std::allocator<char> > const ,sk::iParameter *>,void *> * &>, COMDAT

; 958  : 		{	// construct _Objty(_Types...) at _Ptr

	npad	2
	push	ebp
	mov	ebp, esp

; 840  : 		::new ((void *)_Ptr) _Objty(_STD forward<_Types>(_Args)...);

	mov	ecx, DWORD PTR __Ptr$[ebp]
	test	ecx, ecx
	je	SHORT $LN8@construct
	mov	eax, DWORD PTR _<_Args_0>$[ebp]
	mov	eax, DWORD PTR [eax]
	mov	DWORD PTR [ecx], eax
$LN8@construct:

; 959  : 		_Al.construct(_Ptr, _STD forward<_Types>(_Args)...);
; 960  : 		}

	pop	ebp
	ret	0
??$construct@PAU?$_Tree_node@U?$pair@$$CBV?$basic_string@DU?$char_traits@D@std@@V?$allocator@D@2@@std@@PAViParameter@sk@@@std@@PAX@std@@AAPAU12@@?$allocator_traits@V?$allocator@U?$_Tree_node@U?$pair@$$CBV?$basic_string@DU?$char_traits@D@std@@V?$allocator@D@2@@std@@PAViParameter@sk@@@std@@PAX@std@@@std@@@std@@SAXAAV?$allocator@U?$_Tree_node@U?$pair@$$CBV?$basic_string@DU?$char_traits@D@std@@V?$allocator@D@2@@std@@PAViParameter@sk@@@std@@PAX@std@@@1@PAPAU?$_Tree_node@U?$pair@$$CBV?$basic_string@DU?$char_traits@D@std@@V?$allocator@D@2@@std@@PAViParameter@sk@@@std@@PAX@1@AAPAU31@@Z ENDP ; std::allocator_traits<std::allocator<std::_Tree_node<std::pair<std::basic_string<char,std::char_traits<char>,std::allocator<char> > const ,sk::iParameter *>,void *> > >::construct<std::_Tree_node<std::pair<std::basic_string<char,std::char_traits<char>,std::allocator<char> > const ,sk::iParameter *>,void *> *,std::_Tree_node<std::pair<std::basic_string<char,std::char_traits<char>,std::allocator<char> > const ,sk::iParameter *>,void *> * &>
_TEXT	ENDS
; Function compile flags: /Ogtp
; File c:\program files (x86)\microsoft visual studio\2017\community\vc\tools\msvc\14.10.25017\include\type_traits
;	COMDAT ??$forward@AAPAU?$_Tree_node@U?$pair@$$CBV?$basic_string@DU?$char_traits@D@std@@V?$allocator@D@2@@std@@PAViParameter@sk@@@std@@PAX@std@@@std@@YAAAPAU?$_Tree_node@U?$pair@$$CBV?$basic_string@DU?$char_traits@D@std@@V?$allocator@D@2@@std@@PAViParameter@sk@@@std@@PAX@0@AAPAU10@@Z
_TEXT	SEGMENT
__Arg$ = 8						; size = 4
??$forward@AAPAU?$_Tree_node@U?$pair@$$CBV?$basic_string@DU?$char_traits@D@std@@V?$allocator@D@2@@std@@PAViParameter@sk@@@std@@PAX@std@@@std@@YAAAPAU?$_Tree_node@U?$pair@$$CBV?$basic_string@DU?$char_traits@D@std@@V?$allocator@D@2@@std@@PAViParameter@sk@@@std@@PAX@0@AAPAU10@@Z PROC ; std::forward<std::_Tree_node<std::pair<std::basic_string<char,std::char_traits<char>,std::allocator<char> > const ,sk::iParameter *>,void *> * &>, COMDAT

; 1334 : 	{	// forward an lvalue as either an lvalue or an rvalue

	npad	2
	push	ebp
	mov	ebp, esp

; 1335 : 	return (static_cast<_Ty&&>(_Arg));

	mov	eax, DWORD PTR __Arg$[ebp]

; 1336 : 	}

	pop	ebp
	ret	0
??$forward@AAPAU?$_Tree_node@U?$pair@$$CBV?$basic_string@DU?$char_traits@D@std@@V?$allocator@D@2@@std@@PAViParameter@sk@@@std@@PAX@std@@@std@@YAAAPAU?$_Tree_node@U?$pair@$$CBV?$basic_string@DU?$char_traits@D@std@@V?$allocator@D@2@@std@@PAViParameter@sk@@@std@@PAX@0@AAPAU10@@Z ENDP ; std::forward<std::_Tree_node<std::pair<std::basic_string<char,std::char_traits<char>,std::allocator<char> > const ,sk::iParameter *>,void *> * &>
_TEXT	ENDS
; Function compile flags: /Ogtp
; File c:\program files (x86)\microsoft visual studio\2017\community\vc\tools\msvc\14.10.25017\include\xmemory0
;	COMDAT ??$construct@PADAAPAD@?$allocator_traits@V?$allocator@D@std@@@std@@SAXAAV?$allocator@D@1@PAPADAAPAD@Z
_TEXT	SEGMENT
__Al$ = 8						; size = 4
__Ptr$ = 12						; size = 4
_<_Args_0>$ = 16					; size = 4
??$construct@PADAAPAD@?$allocator_traits@V?$allocator@D@std@@@std@@SAXAAV?$allocator@D@1@PAPADAAPAD@Z PROC ; std::allocator_traits<std::allocator<char> >::construct<char *,char * &>, COMDAT

; 958  : 		{	// construct _Objty(_Types...) at _Ptr

	npad	2
	push	ebp
	mov	ebp, esp

; 840  : 		::new ((void *)_Ptr) _Objty(_STD forward<_Types>(_Args)...);

	mov	ecx, DWORD PTR __Ptr$[ebp]
	test	ecx, ecx
	je	SHORT $LN8@construct
	mov	eax, DWORD PTR _<_Args_0>$[ebp]
	mov	eax, DWORD PTR [eax]
	mov	DWORD PTR [ecx], eax
$LN8@construct:

; 959  : 		_Al.construct(_Ptr, _STD forward<_Types>(_Args)...);
; 960  : 		}

	pop	ebp
	ret	0
??$construct@PADAAPAD@?$allocator_traits@V?$allocator@D@std@@@std@@SAXAAV?$allocator@D@1@PAPADAAPAD@Z ENDP ; std::allocator_traits<std::allocator<char> >::construct<char *,char * &>
_TEXT	ENDS
; Function compile flags: /Ogtp
; File c:\program files (x86)\microsoft visual studio\2017\community\vc\tools\msvc\14.10.25017\include\type_traits
;	COMDAT ??$forward@AAPAD@std@@YAAAPADAAPAD@Z
_TEXT	SEGMENT
__Arg$ = 8						; size = 4
??$forward@AAPAD@std@@YAAAPADAAPAD@Z PROC		; std::forward<char * &>, COMDAT

; 1334 : 	{	// forward an lvalue as either an lvalue or an rvalue

	npad	2
	push	ebp
	mov	ebp, esp

; 1335 : 	return (static_cast<_Ty&&>(_Arg));

	mov	eax, DWORD PTR __Arg$[ebp]

; 1336 : 	}

	pop	ebp
	ret	0
??$forward@AAPAD@std@@YAAAPADAAPAD@Z ENDP		; std::forward<char * &>
_TEXT	ENDS
; Function compile flags: /Ogtp
; File c:\program files (x86)\microsoft visual studio\2017\community\vc\tools\msvc\14.10.25017\include\xmemory0
;	COMDAT ??$construct@PA_WAAPA_W@?$allocator_traits@V?$allocator@_W@std@@@std@@SAXAAV?$allocator@_W@1@PAPA_WAAPA_W@Z
_TEXT	SEGMENT
__Al$ = 8						; size = 4
__Ptr$ = 12						; size = 4
_<_Args_0>$ = 16					; size = 4
??$construct@PA_WAAPA_W@?$allocator_traits@V?$allocator@_W@std@@@std@@SAXAAV?$allocator@_W@1@PAPA_WAAPA_W@Z PROC ; std::allocator_traits<std::allocator<wchar_t> >::construct<wchar_t *,wchar_t * &>, COMDAT

; 958  : 		{	// construct _Objty(_Types...) at _Ptr

	npad	2
	push	ebp
	mov	ebp, esp

; 840  : 		::new ((void *)_Ptr) _Objty(_STD forward<_Types>(_Args)...);

	mov	ecx, DWORD PTR __Ptr$[ebp]
	test	ecx, ecx
	je	SHORT $LN8@construct
	mov	eax, DWORD PTR _<_Args_0>$[ebp]
	mov	eax, DWORD PTR [eax]
	mov	DWORD PTR [ecx], eax
$LN8@construct:

; 959  : 		_Al.construct(_Ptr, _STD forward<_Types>(_Args)...);
; 960  : 		}

	pop	ebp
	ret	0
??$construct@PA_WAAPA_W@?$allocator_traits@V?$allocator@_W@std@@@std@@SAXAAV?$allocator@_W@1@PAPA_WAAPA_W@Z ENDP ; std::allocator_traits<std::allocator<wchar_t> >::construct<wchar_t *,wchar_t * &>
_TEXT	ENDS
; Function compile flags: /Ogtp
; File c:\program files (x86)\microsoft visual studio\2017\community\vc\tools\msvc\14.10.25017\include\type_traits
;	COMDAT ??$forward@AAPA_W@std@@YAAAPA_WAAPA_W@Z
_TEXT	SEGMENT
__Arg$ = 8						; size = 4
??$forward@AAPA_W@std@@YAAAPA_WAAPA_W@Z PROC		; std::forward<wchar_t * &>, COMDAT

; 1334 : 	{	// forward an lvalue as either an lvalue or an rvalue

	npad	2
	push	ebp
	mov	ebp, esp

; 1335 : 	return (static_cast<_Ty&&>(_Arg));

	mov	eax, DWORD PTR __Arg$[ebp]

; 1336 : 	}

	pop	ebp
	ret	0
??$forward@AAPA_W@std@@YAAAPA_WAAPA_W@Z ENDP		; std::forward<wchar_t * &>
_TEXT	ENDS
; Function compile flags: /Ogtp
; File c:\program files (x86)\microsoft visual studio\2017\community\vc\tools\msvc\14.10.25017\include\xmemory0
; File c:\program files (x86)\microsoft visual studio\2017\community\vc\tools\msvc\14.10.25017\include\xstring
; File c:\program files (x86)\microsoft visual studio\2017\community\vc\tools\msvc\14.10.25017\include\xmemory0
; File c:\program files (x86)\microsoft visual studio\2017\community\vc\tools\msvc\14.10.25017\include\xstring
; File c:\program files (x86)\microsoft visual studio\2017\community\vc\tools\msvc\14.10.25017\include\xmemory0
; File c:\program files (x86)\microsoft visual studio\2017\community\vc\tools\msvc\14.10.25017\include\xstring
; File c:\program files (x86)\microsoft visual studio\2017\community\vc\tools\msvc\14.10.25017\include\iosfwd
; File c:\program files (x86)\microsoft visual studio\2017\community\vc\tools\msvc\14.10.25017\include\xmemory0
;	COMDAT ??$destroy@U?$pair@$$CBV?$basic_string@DU?$char_traits@D@std@@V?$allocator@D@2@@std@@PAViParameter@sk@@@std@@@?$allocator_traits@V?$allocator@U?$_Tree_node@U?$pair@$$CBV?$basic_string@DU?$char_traits@D@std@@V?$allocator@D@2@@std@@PAViParameter@sk@@@std@@PAX@std@@@std@@@std@@SAXAAV?$allocator@U?$_Tree_node@U?$pair@$$CBV?$basic_string@DU?$char_traits@D@std@@V?$allocator@D@2@@std@@PAViParameter@sk@@@std@@PAX@std@@@1@PAU?$pair@$$CBV?$basic_string@DU?$char_traits@D@std@@V?$allocator@D@2@@std@@PAViParameter@sk@@@1@@Z
_TEXT	SEGMENT
__Al$ = 8						; size = 4
__Ptr$ = 12						; size = 4
??$destroy@U?$pair@$$CBV?$basic_string@DU?$char_traits@D@std@@V?$allocator@D@2@@std@@PAViParameter@sk@@@std@@@?$allocator_traits@V?$allocator@U?$_Tree_node@U?$pair@$$CBV?$basic_string@DU?$char_traits@D@std@@V?$allocator@D@2@@std@@PAViParameter@sk@@@std@@PAX@std@@@std@@@std@@SAXAAV?$allocator@U?$_Tree_node@U?$pair@$$CBV?$basic_string@DU?$char_traits@D@std@@V?$allocator@D@2@@std@@PAViParameter@sk@@@std@@PAX@std@@@1@PAU?$pair@$$CBV?$basic_string@DU?$char_traits@D@std@@V?$allocator@D@2@@std@@PAViParameter@sk@@@1@@Z PROC ; std::allocator_traits<std::allocator<std::_Tree_node<std::pair<std::basic_string<char,std::char_traits<char>,std::allocator<char> > const ,sk::iParameter *>,void *> > >::destroy<std::pair<std::basic_string<char,std::char_traits<char>,std::allocator<char> > const ,sk::iParameter *> >, COMDAT

; 964  : 		{	// destroy object at _Ptr

	npad	2
	push	ebp
	mov	ebp, esp
	push	esi
; File c:\program files (x86)\microsoft visual studio\2017\community\vc\tools\msvc\14.10.25017\include\xstring

; 1628 : 		return (this->_BUF_SIZE <= _Myres);

	mov	esi, DWORD PTR __Ptr$[ebp]
	mov	eax, DWORD PTR [esi+20]
	cmp	eax, 16					; 00000010H

; 3608 : 		if (_My_data._Large_string_engaged())

	jb	SHORT $LN16@destroy
; File c:\program files (x86)\microsoft visual studio\2017\community\vc\tools\msvc\14.10.25017\include\xmemory0

; 823  : 		_Deallocate(_Ptr, _Count, sizeof (_Ty));

	push	1
; File c:\program files (x86)\microsoft visual studio\2017\community\vc\tools\msvc\14.10.25017\include\xstring

; 3613 : 			_Al.deallocate(_Ptr, _My_data._Myres + 1);

	inc	eax
; File c:\program files (x86)\microsoft visual studio\2017\community\vc\tools\msvc\14.10.25017\include\xmemory0

; 823  : 		_Deallocate(_Ptr, _Count, sizeof (_Ty));

	push	eax
	push	DWORD PTR [esi]
	call	?_Deallocate@std@@YAXPAXII@Z		; std::_Deallocate
	add	esp, 12					; 0000000cH
$LN16@destroy:
; File c:\program files (x86)\microsoft visual studio\2017\community\vc\tools\msvc\14.10.25017\include\xstring

; 3616 : 		_My_data._Mysize = 0;

	mov	DWORD PTR [esi+16], 0

; 3617 : 		_My_data._Myres = this->_BUF_SIZE - 1;

	mov	DWORD PTR [esi+20], 15			; 0000000fH
; File c:\program files (x86)\microsoft visual studio\2017\community\vc\tools\msvc\14.10.25017\include\iosfwd

; 517  : 		_Left = _Right;

	mov	BYTE PTR [esi], 0
	pop	esi
; File c:\program files (x86)\microsoft visual studio\2017\community\vc\tools\msvc\14.10.25017\include\xmemory0

; 966  : 		}

	pop	ebp
	ret	0
??$destroy@U?$pair@$$CBV?$basic_string@DU?$char_traits@D@std@@V?$allocator@D@2@@std@@PAViParameter@sk@@@std@@@?$allocator_traits@V?$allocator@U?$_Tree_node@U?$pair@$$CBV?$basic_string@DU?$char_traits@D@std@@V?$allocator@D@2@@std@@PAViParameter@sk@@@std@@PAX@std@@@std@@@std@@SAXAAV?$allocator@U?$_Tree_node@U?$pair@$$CBV?$basic_string@DU?$char_traits@D@std@@V?$allocator@D@2@@std@@PAViParameter@sk@@@std@@PAX@std@@@1@PAU?$pair@$$CBV?$basic_string@DU?$char_traits@D@std@@V?$allocator@D@2@@std@@PAViParameter@sk@@@1@@Z ENDP ; std::allocator_traits<std::allocator<std::_Tree_node<std::pair<std::basic_string<char,std::char_traits<char>,std::allocator<char> > const ,sk::iParameter *>,void *> > >::destroy<std::pair<std::basic_string<char,std::char_traits<char>,std::allocator<char> > const ,sk::iParameter *> >
_TEXT	ENDS
; Function compile flags: /Ogtp
; File c:\program files (x86)\microsoft visual studio\2017\community\vc\tools\msvc\14.10.25017\include\type_traits
;	COMDAT ??$move@AAD@std@@YA$$QADAAD@Z
_TEXT	SEGMENT
__Arg$ = 8						; size = 4
??$move@AAD@std@@YA$$QADAAD@Z PROC			; std::move<char &>, COMDAT

; 1350 : 	{	// forward _Arg as movable

	npad	2
	push	ebp
	mov	ebp, esp

; 1351 : 	return (static_cast<typename remove_reference<_Ty>::type&&>(_Arg));

	mov	eax, DWORD PTR __Arg$[ebp]

; 1352 : 	}

	pop	ebp
	ret	0
??$move@AAD@std@@YA$$QADAAD@Z ENDP			; std::move<char &>
_TEXT	ENDS
; Function compile flags: /Ogtp
; File c:\program files (x86)\microsoft visual studio\2017\community\vc\tools\msvc\14.10.25017\include\xutility
; File c:\program files (x86)\microsoft visual studio\2017\community\vc\tools\msvc\14.10.25017\include\xtree
; File c:\program files (x86)\microsoft visual studio\2017\community\vc\tools\msvc\14.10.25017\include\xutility
; File c:\program files (x86)\microsoft visual studio\2017\community\vc\tools\msvc\14.10.25017\include\xtree
; File c:\program files (x86)\microsoft visual studio\2017\community\vc\tools\msvc\14.10.25017\include\xutility
;	COMDAT ??$?0$$V@?$_Compressed_pair@U?$_Wrap_alloc@V?$allocator@U?$_Tree_node@U?$pair@$$CBV?$basic_string@DU?$char_traits@D@std@@V?$allocator@D@2@@std@@PAViParameter@sk@@@std@@PAX@std@@@std@@@std@@V?$_Tree_val@U?$_Tree_simple_types@U?$pair@$$CBV?$basic_string@DU?$char_traits@D@std@@V?$allocator@D@2@@std@@PAViParameter@sk@@@std@@@std@@@2@$00@std@@QAE@U_Zero_then_variadic_args_t@1@@Z
_TEXT	SEGMENT
___formal$ = 8						; size = 1
??$?0$$V@?$_Compressed_pair@U?$_Wrap_alloc@V?$allocator@U?$_Tree_node@U?$pair@$$CBV?$basic_string@DU?$char_traits@D@std@@V?$allocator@D@2@@std@@PAViParameter@sk@@@std@@PAX@std@@@std@@@std@@V?$_Tree_val@U?$_Tree_simple_types@U?$pair@$$CBV?$basic_string@DU?$char_traits@D@std@@V?$allocator@D@2@@std@@PAViParameter@sk@@@std@@@std@@@2@$00@std@@QAE@U_Zero_then_variadic_args_t@1@@Z PROC ; std::_Compressed_pair<std::_Wrap_alloc<std::allocator<std::_Tree_node<std::pair<std::basic_string<char,std::char_traits<char>,std::allocator<char> > const ,sk::iParameter *>,void *> > >,std::_Tree_val<std::_Tree_simple_types<std::pair<std::basic_string<char,std::char_traits<char>,std::allocator<char> > const ,sk::iParameter *> > >,1>::_Compressed_pair<std::_Wrap_alloc<std::allocator<std::_Tree_node<std::pair<std::basic_string<char,std::char_traits<char>,std::allocator<char> > const ,sk::iParameter *>,void *> > >,std::_Tree_val<std::_Tree_simple_types<std::pair<std::basic_string<char,std::char_traits<char>,std::allocator<char> > const ,sk::iParameter *> > >,1><>, COMDAT
; _this$ = ecx
; File c:\program files (x86)\microsoft visual studio\2017\community\vc\tools\msvc\14.10.25017\include\xtree

; 560  : 		: _Myhead(),

	mov	DWORD PTR [ecx], 0
; File c:\program files (x86)\microsoft visual studio\2017\community\vc\tools\msvc\14.10.25017\include\xutility

; 304  : 		}

	mov	eax, ecx
; File c:\program files (x86)\microsoft visual studio\2017\community\vc\tools\msvc\14.10.25017\include\xtree

; 561  : 		_Mysize(0)

	mov	DWORD PTR [ecx+4], 0
; File c:\program files (x86)\microsoft visual studio\2017\community\vc\tools\msvc\14.10.25017\include\xutility

; 304  : 		}

	ret	4
??$?0$$V@?$_Compressed_pair@U?$_Wrap_alloc@V?$allocator@U?$_Tree_node@U?$pair@$$CBV?$basic_string@DU?$char_traits@D@std@@V?$allocator@D@2@@std@@PAViParameter@sk@@@std@@PAX@std@@@std@@@std@@V?$_Tree_val@U?$_Tree_simple_types@U?$pair@$$CBV?$basic_string@DU?$char_traits@D@std@@V?$allocator@D@2@@std@@PAViParameter@sk@@@std@@@std@@@2@$00@std@@QAE@U_Zero_then_variadic_args_t@1@@Z ENDP ; std::_Compressed_pair<std::_Wrap_alloc<std::allocator<std::_Tree_node<std::pair<std::basic_string<char,std::char_traits<char>,std::allocator<char> > const ,sk::iParameter *>,void *> > >,std::_Tree_val<std::_Tree_simple_types<std::pair<std::basic_string<char,std::char_traits<char>,std::allocator<char> > const ,sk::iParameter *> > >,1>::_Compressed_pair<std::_Wrap_alloc<std::allocator<std::_Tree_node<std::pair<std::basic_string<char,std::char_traits<char>,std::allocator<char> > const ,sk::iParameter *>,void *> > >,std::_Tree_val<std::_Tree_simple_types<std::pair<std::basic_string<char,std::char_traits<char>,std::allocator<char> > const ,sk::iParameter *> > >,1><>
_TEXT	ENDS
; Function compile flags: /Ogtp
; File c:\program files (x86)\microsoft visual studio\2017\community\vc\tools\msvc\14.10.25017\include\type_traits
;	COMDAT ??$forward@U_Zero_then_variadic_args_t@std@@@std@@YA$$QAU_Zero_then_variadic_args_t@0@AAU10@@Z
_TEXT	SEGMENT
__Arg$ = 8						; size = 4
??$forward@U_Zero_then_variadic_args_t@std@@@std@@YA$$QAU_Zero_then_variadic_args_t@0@AAU10@@Z PROC ; std::forward<std::_Zero_then_variadic_args_t>, COMDAT

; 1334 : 	{	// forward an lvalue as either an lvalue or an rvalue

	npad	2
	push	ebp
	mov	ebp, esp

; 1335 : 	return (static_cast<_Ty&&>(_Arg));

	mov	eax, DWORD PTR __Arg$[ebp]

; 1336 : 	}

	pop	ebp
	ret	0
??$forward@U_Zero_then_variadic_args_t@std@@@std@@YA$$QAU_Zero_then_variadic_args_t@0@AAU10@@Z ENDP ; std::forward<std::_Zero_then_variadic_args_t>
_TEXT	ENDS
; Function compile flags: /Ogtp
; File c:\program files (x86)\microsoft visual studio\2017\community\vc\tools\msvc\14.10.25017\include\type_traits
;	COMDAT ??$forward@ABU?$less@V?$basic_string@DU?$char_traits@D@std@@V?$allocator@D@2@@std@@@std@@@std@@YAABU?$less@V?$basic_string@DU?$char_traits@D@std@@V?$allocator@D@2@@std@@@0@ABU10@@Z
_TEXT	SEGMENT
__Arg$ = 8						; size = 4
??$forward@ABU?$less@V?$basic_string@DU?$char_traits@D@std@@V?$allocator@D@2@@std@@@std@@@std@@YAABU?$less@V?$basic_string@DU?$char_traits@D@std@@V?$allocator@D@2@@std@@@0@ABU10@@Z PROC ; std::forward<std::less<std::basic_string<char,std::char_traits<char>,std::allocator<char> > > const &>, COMDAT

; 1334 : 	{	// forward an lvalue as either an lvalue or an rvalue

	npad	2
	push	ebp
	mov	ebp, esp

; 1335 : 	return (static_cast<_Ty&&>(_Arg));

	mov	eax, DWORD PTR __Arg$[ebp]

; 1336 : 	}

	pop	ebp
	ret	0
??$forward@ABU?$less@V?$basic_string@DU?$char_traits@D@std@@V?$allocator@D@2@@std@@@std@@@std@@YAABU?$less@V?$basic_string@DU?$char_traits@D@std@@V?$allocator@D@2@@std@@@0@ABU10@@Z ENDP ; std::forward<std::less<std::basic_string<char,std::char_traits<char>,std::allocator<char> > > const &>
_TEXT	ENDS
; Function compile flags: /Ogtp
; File c:\program files (x86)\microsoft visual studio\2017\community\vc\tools\msvc\14.10.25017\include\xmemory0
;	COMDAT ??$destroy@PAU?$_Tree_node@U?$pair@$$CBV?$basic_string@DU?$char_traits@D@std@@V?$allocator@D@2@@std@@PAViParameter@sk@@@std@@PAX@std@@@?$allocator_traits@V?$allocator@U?$_Tree_node@U?$pair@$$CBV?$basic_string@DU?$char_traits@D@std@@V?$allocator@D@2@@std@@PAViParameter@sk@@@std@@PAX@std@@@std@@@std@@SAXAAV?$allocator@U?$_Tree_node@U?$pair@$$CBV?$basic_string@DU?$char_traits@D@std@@V?$allocator@D@2@@std@@PAViParameter@sk@@@std@@PAX@std@@@1@PAPAU?$_Tree_node@U?$pair@$$CBV?$basic_string@DU?$char_traits@D@std@@V?$allocator@D@2@@std@@PAViParameter@sk@@@std@@PAX@1@@Z
_TEXT	SEGMENT
__Al$ = 8						; size = 4
__Ptr$ = 12						; size = 4
??$destroy@PAU?$_Tree_node@U?$pair@$$CBV?$basic_string@DU?$char_traits@D@std@@V?$allocator@D@2@@std@@PAViParameter@sk@@@std@@PAX@std@@@?$allocator_traits@V?$allocator@U?$_Tree_node@U?$pair@$$CBV?$basic_string@DU?$char_traits@D@std@@V?$allocator@D@2@@std@@PAViParameter@sk@@@std@@PAX@std@@@std@@@std@@SAXAAV?$allocator@U?$_Tree_node@U?$pair@$$CBV?$basic_string@DU?$char_traits@D@std@@V?$allocator@D@2@@std@@PAViParameter@sk@@@std@@PAX@std@@@1@PAPAU?$_Tree_node@U?$pair@$$CBV?$basic_string@DU?$char_traits@D@std@@V?$allocator@D@2@@std@@PAViParameter@sk@@@std@@PAX@1@@Z PROC ; std::allocator_traits<std::allocator<std::_Tree_node<std::pair<std::basic_string<char,std::char_traits<char>,std::allocator<char> > const ,sk::iParameter *>,void *> > >::destroy<std::_Tree_node<std::pair<std::basic_string<char,std::char_traits<char>,std::allocator<char> > const ,sk::iParameter *>,void *> *>, COMDAT

; 965  : 		_Al.destroy(_Ptr);
; 966  : 		}

	ret	0
??$destroy@PAU?$_Tree_node@U?$pair@$$CBV?$basic_string@DU?$char_traits@D@std@@V?$allocator@D@2@@std@@PAViParameter@sk@@@std@@PAX@std@@@?$allocator_traits@V?$allocator@U?$_Tree_node@U?$pair@$$CBV?$basic_string@DU?$char_traits@D@std@@V?$allocator@D@2@@std@@PAViParameter@sk@@@std@@PAX@std@@@std@@@std@@SAXAAV?$allocator@U?$_Tree_node@U?$pair@$$CBV?$basic_string@DU?$char_traits@D@std@@V?$allocator@D@2@@std@@PAViParameter@sk@@@std@@PAX@std@@@1@PAPAU?$_Tree_node@U?$pair@$$CBV?$basic_string@DU?$char_traits@D@std@@V?$allocator@D@2@@std@@PAViParameter@sk@@@std@@PAX@1@@Z ENDP ; std::allocator_traits<std::allocator<std::_Tree_node<std::pair<std::basic_string<char,std::char_traits<char>,std::allocator<char> > const ,sk::iParameter *>,void *> > >::destroy<std::_Tree_node<std::pair<std::basic_string<char,std::char_traits<char>,std::allocator<char> > const ,sk::iParameter *>,void *> *>
_TEXT	ENDS
; Function compile flags: /Ogtp
; File c:\program files (x86)\microsoft visual studio\2017\community\vc\tools\msvc\14.10.25017\include\xmemory0
;	COMDAT ??$destroy@PAD@?$allocator_traits@V?$allocator@D@std@@@std@@SAXAAV?$allocator@D@1@PAPAD@Z
_TEXT	SEGMENT
__Al$ = 8						; size = 4
__Ptr$ = 12						; size = 4
??$destroy@PAD@?$allocator_traits@V?$allocator@D@std@@@std@@SAXAAV?$allocator@D@1@PAPAD@Z PROC ; std::allocator_traits<std::allocator<char> >::destroy<char *>, COMDAT

; 965  : 		_Al.destroy(_Ptr);
; 966  : 		}

	ret	0
??$destroy@PAD@?$allocator_traits@V?$allocator@D@std@@@std@@SAXAAV?$allocator@D@1@PAPAD@Z ENDP ; std::allocator_traits<std::allocator<char> >::destroy<char *>
_TEXT	ENDS
; Function compile flags: /Ogtp
; File c:\program files (x86)\microsoft visual studio\2017\community\vc\tools\msvc\14.10.25017\include\xmemory0
;	COMDAT ??$destroy@PA_W@?$allocator_traits@V?$allocator@_W@std@@@std@@SAXAAV?$allocator@_W@1@PAPA_W@Z
_TEXT	SEGMENT
__Al$ = 8						; size = 4
__Ptr$ = 12						; size = 4
??$destroy@PA_W@?$allocator_traits@V?$allocator@_W@std@@@std@@SAXAAV?$allocator@_W@1@PAPA_W@Z PROC ; std::allocator_traits<std::allocator<wchar_t> >::destroy<wchar_t *>, COMDAT

; 965  : 		_Al.destroy(_Ptr);
; 966  : 		}

	ret	0
??$destroy@PA_W@?$allocator_traits@V?$allocator@_W@std@@@std@@SAXAAV?$allocator@_W@1@PAPA_W@Z ENDP ; std::allocator_traits<std::allocator<wchar_t> >::destroy<wchar_t *>
_TEXT	ENDS
; Function compile flags: /Ogtp
; File c:\program files (x86)\microsoft visual studio\2017\community\vc\tools\msvc\14.10.25017\include\xmemory0
;	COMDAT ??$construct@PAU?$_Tree_node@U?$pair@$$CBV?$basic_string@DU?$char_traits@D@std@@V?$allocator@D@2@@std@@PAViParameter@sk@@@std@@PAX@std@@AAPAU12@@?$_Wrap_alloc@V?$allocator@U?$_Tree_node@U?$pair@$$CBV?$basic_string@DU?$char_traits@D@std@@V?$allocator@D@2@@std@@PAViParameter@sk@@@std@@PAX@std@@@std@@@std@@QAEXPAPAU?$_Tree_node@U?$pair@$$CBV?$basic_string@DU?$char_traits@D@std@@V?$allocator@D@2@@std@@PAViParameter@sk@@@std@@PAX@1@AAPAU21@@Z
_TEXT	SEGMENT
__Ptr$ = 8						; size = 4
_<_Args_0>$ = 12					; size = 4
??$construct@PAU?$_Tree_node@U?$pair@$$CBV?$basic_string@DU?$char_traits@D@std@@V?$allocator@D@2@@std@@PAViParameter@sk@@@std@@PAX@std@@AAPAU12@@?$_Wrap_alloc@V?$allocator@U?$_Tree_node@U?$pair@$$CBV?$basic_string@DU?$char_traits@D@std@@V?$allocator@D@2@@std@@PAViParameter@sk@@@std@@PAX@std@@@std@@@std@@QAEXPAPAU?$_Tree_node@U?$pair@$$CBV?$basic_string@DU?$char_traits@D@std@@V?$allocator@D@2@@std@@PAViParameter@sk@@@std@@PAX@1@AAPAU21@@Z PROC ; std::_Wrap_alloc<std::allocator<std::_Tree_node<std::pair<std::basic_string<char,std::char_traits<char>,std::allocator<char> > const ,sk::iParameter *>,void *> > >::construct<std::_Tree_node<std::pair<std::basic_string<char,std::char_traits<char>,std::allocator<char> > const ,sk::iParameter *>,void *> *,std::_Tree_node<std::pair<std::basic_string<char,std::char_traits<char>,std::allocator<char> > const ,sk::iParameter *>,void *> * &>, COMDAT
; _this$ = ecx

; 1095 : 		{	// construct _Ty(_Types...) at _Ptr

	npad	2
	push	ebp
	mov	ebp, esp

; 840  : 		::new ((void *)_Ptr) _Objty(_STD forward<_Types>(_Args)...);

	mov	ecx, DWORD PTR __Ptr$[ebp]
	test	ecx, ecx
	je	SHORT $LN13@construct
	mov	eax, DWORD PTR _<_Args_0>$[ebp]
	mov	eax, DWORD PTR [eax]
	mov	DWORD PTR [ecx], eax
$LN13@construct:

; 1096 : 		_Mytraits::construct(*this, _Ptr,
; 1097 : 			_STD forward<_Types>(_Args)...);
; 1098 : 		}

	pop	ebp
	ret	8
??$construct@PAU?$_Tree_node@U?$pair@$$CBV?$basic_string@DU?$char_traits@D@std@@V?$allocator@D@2@@std@@PAViParameter@sk@@@std@@PAX@std@@AAPAU12@@?$_Wrap_alloc@V?$allocator@U?$_Tree_node@U?$pair@$$CBV?$basic_string@DU?$char_traits@D@std@@V?$allocator@D@2@@std@@PAViParameter@sk@@@std@@PAX@std@@@std@@@std@@QAEXPAPAU?$_Tree_node@U?$pair@$$CBV?$basic_string@DU?$char_traits@D@std@@V?$allocator@D@2@@std@@PAViParameter@sk@@@std@@PAX@1@AAPAU21@@Z ENDP ; std::_Wrap_alloc<std::allocator<std::_Tree_node<std::pair<std::basic_string<char,std::char_traits<char>,std::allocator<char> > const ,sk::iParameter *>,void *> > >::construct<std::_Tree_node<std::pair<std::basic_string<char,std::char_traits<char>,std::allocator<char> > const ,sk::iParameter *>,void *> *,std::_Tree_node<std::pair<std::basic_string<char,std::char_traits<char>,std::allocator<char> > const ,sk::iParameter *>,void *> * &>
_TEXT	ENDS
; Function compile flags: /Ogtp
; File c:\program files (x86)\microsoft visual studio\2017\community\vc\tools\msvc\14.10.25017\include\xmemory0
;	COMDAT ??$construct@PADAAPAD@?$_Wrap_alloc@V?$allocator@D@std@@@std@@QAEXPAPADAAPAD@Z
_TEXT	SEGMENT
__Ptr$ = 8						; size = 4
_<_Args_0>$ = 12					; size = 4
??$construct@PADAAPAD@?$_Wrap_alloc@V?$allocator@D@std@@@std@@QAEXPAPADAAPAD@Z PROC ; std::_Wrap_alloc<std::allocator<char> >::construct<char *,char * &>, COMDAT
; _this$ = ecx

; 1095 : 		{	// construct _Ty(_Types...) at _Ptr

	npad	2
	push	ebp
	mov	ebp, esp

; 840  : 		::new ((void *)_Ptr) _Objty(_STD forward<_Types>(_Args)...);

	mov	ecx, DWORD PTR __Ptr$[ebp]
	test	ecx, ecx
	je	SHORT $LN13@construct
	mov	eax, DWORD PTR _<_Args_0>$[ebp]
	mov	eax, DWORD PTR [eax]
	mov	DWORD PTR [ecx], eax
$LN13@construct:

; 1096 : 		_Mytraits::construct(*this, _Ptr,
; 1097 : 			_STD forward<_Types>(_Args)...);
; 1098 : 		}

	pop	ebp
	ret	8
??$construct@PADAAPAD@?$_Wrap_alloc@V?$allocator@D@std@@@std@@QAEXPAPADAAPAD@Z ENDP ; std::_Wrap_alloc<std::allocator<char> >::construct<char *,char * &>
_TEXT	ENDS
; Function compile flags: /Ogtp
; File c:\program files (x86)\microsoft visual studio\2017\community\vc\tools\msvc\14.10.25017\include\xmemory0
;	COMDAT ??$construct@PA_WAAPA_W@?$_Wrap_alloc@V?$allocator@_W@std@@@std@@QAEXPAPA_WAAPA_W@Z
_TEXT	SEGMENT
__Ptr$ = 8						; size = 4
_<_Args_0>$ = 12					; size = 4
??$construct@PA_WAAPA_W@?$_Wrap_alloc@V?$allocator@_W@std@@@std@@QAEXPAPA_WAAPA_W@Z PROC ; std::_Wrap_alloc<std::allocator<wchar_t> >::construct<wchar_t *,wchar_t * &>, COMDAT
; _this$ = ecx

; 1095 : 		{	// construct _Ty(_Types...) at _Ptr

	npad	2
	push	ebp
	mov	ebp, esp

; 840  : 		::new ((void *)_Ptr) _Objty(_STD forward<_Types>(_Args)...);

	mov	ecx, DWORD PTR __Ptr$[ebp]
	test	ecx, ecx
	je	SHORT $LN13@construct
	mov	eax, DWORD PTR _<_Args_0>$[ebp]
	mov	eax, DWORD PTR [eax]
	mov	DWORD PTR [ecx], eax
$LN13@construct:

; 1096 : 		_Mytraits::construct(*this, _Ptr,
; 1097 : 			_STD forward<_Types>(_Args)...);
; 1098 : 		}

	pop	ebp
	ret	8
??$construct@PA_WAAPA_W@?$_Wrap_alloc@V?$allocator@_W@std@@@std@@QAEXPAPA_WAAPA_W@Z ENDP ; std::_Wrap_alloc<std::allocator<wchar_t> >::construct<wchar_t *,wchar_t * &>
_TEXT	ENDS
; Function compile flags: /Ogtp
; File c:\program files (x86)\microsoft visual studio\2017\community\vc\tools\msvc\14.10.25017\include\xmemory0
; File c:\program files (x86)\microsoft visual studio\2017\community\vc\tools\msvc\14.10.25017\include\xstring
; File c:\program files (x86)\microsoft visual studio\2017\community\vc\tools\msvc\14.10.25017\include\xmemory0
; File c:\program files (x86)\microsoft visual studio\2017\community\vc\tools\msvc\14.10.25017\include\xstring
; File c:\program files (x86)\microsoft visual studio\2017\community\vc\tools\msvc\14.10.25017\include\xmemory0
; File c:\program files (x86)\microsoft visual studio\2017\community\vc\tools\msvc\14.10.25017\include\xstring
; File c:\program files (x86)\microsoft visual studio\2017\community\vc\tools\msvc\14.10.25017\include\iosfwd
; File c:\program files (x86)\microsoft visual studio\2017\community\vc\tools\msvc\14.10.25017\include\xmemory0
;	COMDAT ??$destroy@U?$pair@$$CBV?$basic_string@DU?$char_traits@D@std@@V?$allocator@D@2@@std@@PAViParameter@sk@@@std@@@?$_Wrap_alloc@V?$allocator@U?$_Tree_node@U?$pair@$$CBV?$basic_string@DU?$char_traits@D@std@@V?$allocator@D@2@@std@@PAViParameter@sk@@@std@@PAX@std@@@std@@@std@@QAEXPAU?$pair@$$CBV?$basic_string@DU?$char_traits@D@std@@V?$allocator@D@2@@std@@PAViParameter@sk@@@1@@Z
_TEXT	SEGMENT
__Ptr$ = 8						; size = 4
??$destroy@U?$pair@$$CBV?$basic_string@DU?$char_traits@D@std@@V?$allocator@D@2@@std@@PAViParameter@sk@@@std@@@?$_Wrap_alloc@V?$allocator@U?$_Tree_node@U?$pair@$$CBV?$basic_string@DU?$char_traits@D@std@@V?$allocator@D@2@@std@@PAViParameter@sk@@@std@@PAX@std@@@std@@@std@@QAEXPAU?$pair@$$CBV?$basic_string@DU?$char_traits@D@std@@V?$allocator@D@2@@std@@PAViParameter@sk@@@1@@Z PROC ; std::_Wrap_alloc<std::allocator<std::_Tree_node<std::pair<std::basic_string<char,std::char_traits<char>,std::allocator<char> > const ,sk::iParameter *>,void *> > >::destroy<std::pair<std::basic_string<char,std::char_traits<char>,std::allocator<char> > const ,sk::iParameter *> >, COMDAT
; _this$ = ecx

; 1102 : 		{	// destroy object at _Ptr

	npad	2
	push	ebp
	mov	ebp, esp
	push	esi
; File c:\program files (x86)\microsoft visual studio\2017\community\vc\tools\msvc\14.10.25017\include\xstring

; 1628 : 		return (this->_BUF_SIZE <= _Myres);

	mov	esi, DWORD PTR __Ptr$[ebp]
	mov	eax, DWORD PTR [esi+20]
	cmp	eax, 16					; 00000010H

; 3608 : 		if (_My_data._Large_string_engaged())

	jb	SHORT $LN18@destroy
; File c:\program files (x86)\microsoft visual studio\2017\community\vc\tools\msvc\14.10.25017\include\xmemory0

; 823  : 		_Deallocate(_Ptr, _Count, sizeof (_Ty));

	push	1
; File c:\program files (x86)\microsoft visual studio\2017\community\vc\tools\msvc\14.10.25017\include\xstring

; 3613 : 			_Al.deallocate(_Ptr, _My_data._Myres + 1);

	inc	eax
; File c:\program files (x86)\microsoft visual studio\2017\community\vc\tools\msvc\14.10.25017\include\xmemory0

; 823  : 		_Deallocate(_Ptr, _Count, sizeof (_Ty));

	push	eax
	push	DWORD PTR [esi]
	call	?_Deallocate@std@@YAXPAXII@Z		; std::_Deallocate
	add	esp, 12					; 0000000cH
$LN18@destroy:
; File c:\program files (x86)\microsoft visual studio\2017\community\vc\tools\msvc\14.10.25017\include\xstring

; 3616 : 		_My_data._Mysize = 0;

	mov	DWORD PTR [esi+16], 0

; 3617 : 		_My_data._Myres = this->_BUF_SIZE - 1;

	mov	DWORD PTR [esi+20], 15			; 0000000fH
; File c:\program files (x86)\microsoft visual studio\2017\community\vc\tools\msvc\14.10.25017\include\iosfwd

; 517  : 		_Left = _Right;

	mov	BYTE PTR [esi], 0
	pop	esi
; File c:\program files (x86)\microsoft visual studio\2017\community\vc\tools\msvc\14.10.25017\include\xmemory0

; 1104 : 		}

	pop	ebp
	ret	4
??$destroy@U?$pair@$$CBV?$basic_string@DU?$char_traits@D@std@@V?$allocator@D@2@@std@@PAViParameter@sk@@@std@@@?$_Wrap_alloc@V?$allocator@U?$_Tree_node@U?$pair@$$CBV?$basic_string@DU?$char_traits@D@std@@V?$allocator@D@2@@std@@PAViParameter@sk@@@std@@PAX@std@@@std@@@std@@QAEXPAU?$pair@$$CBV?$basic_string@DU?$char_traits@D@std@@V?$allocator@D@2@@std@@PAViParameter@sk@@@1@@Z ENDP ; std::_Wrap_alloc<std::allocator<std::_Tree_node<std::pair<std::basic_string<char,std::char_traits<char>,std::allocator<char> > const ,sk::iParameter *>,void *> > >::destroy<std::pair<std::basic_string<char,std::char_traits<char>,std::allocator<char> > const ,sk::iParameter *> >
_TEXT	ENDS
; Function compile flags: /Ogtp
; File c:\program files (x86)\microsoft visual studio\2017\community\vc\tools\msvc\14.10.25017\include\xstddef
;	COMDAT ??$addressof@U?$pair@$$CBV?$basic_string@DU?$char_traits@D@std@@V?$allocator@D@2@@std@@PAViParameter@sk@@@std@@@std@@YAPAU?$pair@$$CBV?$basic_string@DU?$char_traits@D@std@@V?$allocator@D@2@@std@@PAViParameter@sk@@@0@AAU10@@Z
_TEXT	SEGMENT
__Val$ = 8						; size = 4
??$addressof@U?$pair@$$CBV?$basic_string@DU?$char_traits@D@std@@V?$allocator@D@2@@std@@PAViParameter@sk@@@std@@@std@@YAPAU?$pair@$$CBV?$basic_string@DU?$char_traits@D@std@@V?$allocator@D@2@@std@@PAViParameter@sk@@@0@AAU10@@Z PROC ; std::addressof<std::pair<std::basic_string<char,std::char_traits<char>,std::allocator<char> > const ,sk::iParameter *> >, COMDAT

; 629  : 	{	// return address of _Val

	npad	2
	push	ebp
	mov	ebp, esp

; 630  : 	return (__builtin_addressof(_Val));

	mov	eax, DWORD PTR __Val$[ebp]

; 631  : 	}

	pop	ebp
	ret	0
??$addressof@U?$pair@$$CBV?$basic_string@DU?$char_traits@D@std@@V?$allocator@D@2@@std@@PAViParameter@sk@@@std@@@std@@YAPAU?$pair@$$CBV?$basic_string@DU?$char_traits@D@std@@V?$allocator@D@2@@std@@PAViParameter@sk@@@0@AAU10@@Z ENDP ; std::addressof<std::pair<std::basic_string<char,std::char_traits<char>,std::allocator<char> > const ,sk::iParameter *> >
_TEXT	ENDS
; Function compile flags: /Ogtp
; File c:\program files (x86)\microsoft visual studio\2017\community\vc\tools\msvc\14.10.25017\include\utility
;	COMDAT ??$swap@DX@std@@YAXAAD0@Z
_TEXT	SEGMENT
__Left$ = 8						; size = 4
__Right$ = 12						; size = 4
??$swap@DX@std@@YAXAAD0@Z PROC				; std::swap<char,void>, COMDAT

; 65   : 	{	// exchange values stored at _Left and _Right

	npad	2
	push	ebp
	mov	ebp, esp

; 66   : 	_Ty _Tmp = _STD move(_Left);
; 67   : 	_Left = _STD move(_Right);

	mov	ecx, DWORD PTR __Right$[ebp]
	mov	edx, DWORD PTR __Left$[ebp]
	push	ebx
	mov	al, BYTE PTR [ecx]
	mov	bl, BYTE PTR [edx]
	mov	BYTE PTR [edx], al

; 68   : 	_Right = _STD move(_Tmp);

	mov	BYTE PTR [ecx], bl
	pop	ebx

; 69   : 	}

	pop	ebp
	ret	0
??$swap@DX@std@@YAXAAD0@Z ENDP				; std::swap<char,void>
_TEXT	ENDS
; Function compile flags: /Ogtp
; File c:\program files (x86)\microsoft visual studio\2017\community\vc\tools\msvc\14.10.25017\include\xstddef
;	COMDAT ??$addressof@$$CBV?$basic_string@DU?$char_traits@D@std@@V?$allocator@D@2@@std@@@std@@YAPBV?$basic_string@DU?$char_traits@D@std@@V?$allocator@D@2@@0@ABV10@@Z
_TEXT	SEGMENT
__Val$ = 8						; size = 4
??$addressof@$$CBV?$basic_string@DU?$char_traits@D@std@@V?$allocator@D@2@@std@@@std@@YAPBV?$basic_string@DU?$char_traits@D@std@@V?$allocator@D@2@@0@ABV10@@Z PROC ; std::addressof<std::basic_string<char,std::char_traits<char>,std::allocator<char> > const >, COMDAT

; 629  : 	{	// return address of _Val

	npad	2
	push	ebp
	mov	ebp, esp

; 630  : 	return (__builtin_addressof(_Val));

	mov	eax, DWORD PTR __Val$[ebp]

; 631  : 	}

	pop	ebp
	ret	0
??$addressof@$$CBV?$basic_string@DU?$char_traits@D@std@@V?$allocator@D@2@@std@@@std@@YAPBV?$basic_string@DU?$char_traits@D@std@@V?$allocator@D@2@@0@ABV10@@Z ENDP ; std::addressof<std::basic_string<char,std::char_traits<char>,std::allocator<char> > const >
_TEXT	ENDS
; Function compile flags: /Ogtp
; File c:\program files (x86)\microsoft visual studio\2017\community\vc\tools\msvc\14.10.25017\include\utility
;	COMDAT ??$_Min_value@I@std@@YAABIABI0@Z
_TEXT	SEGMENT
__Left$ = 8						; size = 4
__Right$ = 12						; size = 4
??$_Min_value@I@std@@YAABIABI0@Z PROC			; std::_Min_value<unsigned int>, COMDAT

; 22   : 	{	// return smaller of _Left and _Right

	npad	2
	push	ebp
	mov	ebp, esp

; 23   : 	return (_Right < _Left ? _Right : _Left);

	mov	edx, DWORD PTR __Right$[ebp]
	mov	eax, DWORD PTR __Left$[ebp]
	mov	ecx, DWORD PTR [edx]
	cmp	ecx, DWORD PTR [eax]
	cmovb	eax, edx

; 24   : 	}

	pop	ebp
	ret	0
??$_Min_value@I@std@@YAABIABI0@Z ENDP			; std::_Min_value<unsigned int>
_TEXT	ENDS
; Function compile flags: /Ogtp
; File c:\program files (x86)\microsoft visual studio\2017\community\vc\tools\msvc\14.10.25017\include\xstddef
;	COMDAT ??$_Unfancy@D@std@@YAPADPAD@Z
_TEXT	SEGMENT
__Ptr$ = 8						; size = 4
??$_Unfancy@D@std@@YAPADPAD@Z PROC			; std::_Unfancy<char>, COMDAT

; 642  : 	{	// do nothing for plain pointers

	npad	2
	push	ebp
	mov	ebp, esp

; 643  : 	return (_Ptr);

	mov	eax, DWORD PTR __Ptr$[ebp]

; 644  : 	}

	pop	ebp
	ret	0
??$_Unfancy@D@std@@YAPADPAD@Z ENDP			; std::_Unfancy<char>
_TEXT	ENDS
; Function compile flags: /Ogtp
; File c:\program files (x86)\microsoft visual studio\2017\community\vc\tools\msvc\14.10.25017\include\xstddef
;	COMDAT ??$_Unfancy@_W@std@@YAPA_WPA_W@Z
_TEXT	SEGMENT
__Ptr$ = 8						; size = 4
??$_Unfancy@_W@std@@YAPA_WPA_W@Z PROC			; std::_Unfancy<wchar_t>, COMDAT

; 642  : 	{	// do nothing for plain pointers

	npad	2
	push	ebp
	mov	ebp, esp

; 643  : 	return (_Ptr);

	mov	eax, DWORD PTR __Ptr$[ebp]

; 644  : 	}

	pop	ebp
	ret	0
??$_Unfancy@_W@std@@YAPA_WPA_W@Z ENDP			; std::_Unfancy<wchar_t>
_TEXT	ENDS
; Function compile flags: /Ogtp
; File c:\program files (x86)\microsoft visual studio\2017\community\vc\tools\msvc\14.10.25017\include\xstddef
;	COMDAT ??$addressof@V?$_Tree_val@U?$_Tree_simple_types@U?$pair@$$CBV?$basic_string@DU?$char_traits@D@std@@V?$allocator@D@2@@std@@PAViParameter@sk@@@std@@@std@@@std@@@std@@YAPAV?$_Tree_val@U?$_Tree_simple_types@U?$pair@$$CBV?$basic_string@DU?$char_traits@D@std@@V?$allocator@D@2@@std@@PAViParameter@sk@@@std@@@std@@@0@AAV10@@Z
_TEXT	SEGMENT
__Val$ = 8						; size = 4
??$addressof@V?$_Tree_val@U?$_Tree_simple_types@U?$pair@$$CBV?$basic_string@DU?$char_traits@D@std@@V?$allocator@D@2@@std@@PAViParameter@sk@@@std@@@std@@@std@@@std@@YAPAV?$_Tree_val@U?$_Tree_simple_types@U?$pair@$$CBV?$basic_string@DU?$char_traits@D@std@@V?$allocator@D@2@@std@@PAViParameter@sk@@@std@@@std@@@0@AAV10@@Z PROC ; std::addressof<std::_Tree_val<std::_Tree_simple_types<std::pair<std::basic_string<char,std::char_traits<char>,std::allocator<char> > const ,sk::iParameter *> > > >, COMDAT

; 629  : 	{	// return address of _Val

	npad	2
	push	ebp
	mov	ebp, esp

; 630  : 	return (__builtin_addressof(_Val));

	mov	eax, DWORD PTR __Val$[ebp]

; 631  : 	}

	pop	ebp
	ret	0
??$addressof@V?$_Tree_val@U?$_Tree_simple_types@U?$pair@$$CBV?$basic_string@DU?$char_traits@D@std@@V?$allocator@D@2@@std@@PAViParameter@sk@@@std@@@std@@@std@@@std@@YAPAV?$_Tree_val@U?$_Tree_simple_types@U?$pair@$$CBV?$basic_string@DU?$char_traits@D@std@@V?$allocator@D@2@@std@@PAViParameter@sk@@@std@@@std@@@0@AAV10@@Z ENDP ; std::addressof<std::_Tree_val<std::_Tree_simple_types<std::pair<std::basic_string<char,std::char_traits<char>,std::allocator<char> > const ,sk::iParameter *> > > >
_TEXT	ENDS
; Function compile flags: /Ogtp
; File c:\program files (x86)\microsoft visual studio\2017\community\vc\tools\msvc\14.10.25017\include\xstring
; File c:\program files (x86)\microsoft visual studio\2017\community\vc\tools\msvc\14.10.25017\include\xmemory0
; File c:\program files (x86)\microsoft visual studio\2017\community\vc\tools\msvc\14.10.25017\include\xstring
; File c:\program files (x86)\microsoft visual studio\2017\community\vc\tools\msvc\14.10.25017\include\xmemory0
; File c:\program files (x86)\microsoft visual studio\2017\community\vc\tools\msvc\14.10.25017\include\xstring
; File c:\program files (x86)\microsoft visual studio\2017\community\vc\tools\msvc\14.10.25017\include\iosfwd
;	COMDAT ??_G?$pair@$$CBV?$basic_string@DU?$char_traits@D@std@@V?$allocator@D@2@@std@@PAViParameter@sk@@@std@@QAEPAXI@Z
_TEXT	SEGMENT
___flags$ = 8						; size = 4
??_G?$pair@$$CBV?$basic_string@DU?$char_traits@D@std@@V?$allocator@D@2@@std@@PAViParameter@sk@@@std@@QAEPAXI@Z PROC ; std::pair<std::basic_string<char,std::char_traits<char>,std::allocator<char> > const ,sk::iParameter *>::`scalar deleting destructor', COMDAT
; _this$ = ecx
	npad	2
	push	ebp
	mov	ebp, esp
	push	esi
	mov	esi, ecx
; File c:\program files (x86)\microsoft visual studio\2017\community\vc\tools\msvc\14.10.25017\include\xstring

; 1628 : 		return (this->_BUF_SIZE <= _Myres);

	mov	eax, DWORD PTR [esi+20]
	cmp	eax, 16					; 00000010H

; 3608 : 		if (_My_data._Large_string_engaged())

	jb	SHORT $LN11@scalar
; File c:\program files (x86)\microsoft visual studio\2017\community\vc\tools\msvc\14.10.25017\include\xmemory0

; 823  : 		_Deallocate(_Ptr, _Count, sizeof (_Ty));

	push	1
; File c:\program files (x86)\microsoft visual studio\2017\community\vc\tools\msvc\14.10.25017\include\xstring

; 3613 : 			_Al.deallocate(_Ptr, _My_data._Myres + 1);

	inc	eax
; File c:\program files (x86)\microsoft visual studio\2017\community\vc\tools\msvc\14.10.25017\include\xmemory0

; 823  : 		_Deallocate(_Ptr, _Count, sizeof (_Ty));

	push	eax
	push	DWORD PTR [esi]
	call	?_Deallocate@std@@YAXPAXII@Z		; std::_Deallocate
	add	esp, 12					; 0000000cH
$LN11@scalar:
	test	BYTE PTR ___flags$[ebp], 1
; File c:\program files (x86)\microsoft visual studio\2017\community\vc\tools\msvc\14.10.25017\include\xstring

; 3616 : 		_My_data._Mysize = 0;

	mov	DWORD PTR [esi+16], 0

; 3617 : 		_My_data._Myres = this->_BUF_SIZE - 1;

	mov	DWORD PTR [esi+20], 15			; 0000000fH
; File c:\program files (x86)\microsoft visual studio\2017\community\vc\tools\msvc\14.10.25017\include\iosfwd

; 517  : 		_Left = _Right;

	mov	BYTE PTR [esi], 0
	je	SHORT $LN37@scalar
	push	28					; 0000001cH
	push	esi
	call	??3@YAXPAXI@Z				; operator delete
	add	esp, 8
$LN37@scalar:
	mov	eax, esi
	pop	esi
	pop	ebp
	ret	4
??_G?$pair@$$CBV?$basic_string@DU?$char_traits@D@std@@V?$allocator@D@2@@std@@PAViParameter@sk@@@std@@QAEPAXI@Z ENDP ; std::pair<std::basic_string<char,std::char_traits<char>,std::allocator<char> > const ,sk::iParameter *>::`scalar deleting destructor'
_TEXT	ENDS
; Function compile flags: /Ogtp
; File c:\program files (x86)\microsoft visual studio\2017\community\vc\tools\msvc\14.10.25017\include\xstring
; File c:\program files (x86)\microsoft visual studio\2017\community\vc\tools\msvc\14.10.25017\include\xmemory0
; File c:\program files (x86)\microsoft visual studio\2017\community\vc\tools\msvc\14.10.25017\include\xstring
; File c:\program files (x86)\microsoft visual studio\2017\community\vc\tools\msvc\14.10.25017\include\xmemory0
; File c:\program files (x86)\microsoft visual studio\2017\community\vc\tools\msvc\14.10.25017\include\xstring
; File c:\program files (x86)\microsoft visual studio\2017\community\vc\tools\msvc\14.10.25017\include\iosfwd
;	COMDAT ??1?$pair@$$CBV?$basic_string@DU?$char_traits@D@std@@V?$allocator@D@2@@std@@PAViParameter@sk@@@std@@QAE@XZ
_TEXT	SEGMENT
??1?$pair@$$CBV?$basic_string@DU?$char_traits@D@std@@V?$allocator@D@2@@std@@PAViParameter@sk@@@std@@QAE@XZ PROC ; std::pair<std::basic_string<char,std::char_traits<char>,std::allocator<char> > const ,sk::iParameter *>::~pair<std::basic_string<char,std::char_traits<char>,std::allocator<char> > const ,sk::iParameter *>, COMDAT
; _this$ = ecx
	npad	2
	push	esi
	mov	esi, ecx
; File c:\program files (x86)\microsoft visual studio\2017\community\vc\tools\msvc\14.10.25017\include\xstring

; 1628 : 		return (this->_BUF_SIZE <= _Myres);

	mov	eax, DWORD PTR [esi+20]
	cmp	eax, 16					; 00000010H

; 3608 : 		if (_My_data._Large_string_engaged())

	jb	SHORT $LN7@pair
; File c:\program files (x86)\microsoft visual studio\2017\community\vc\tools\msvc\14.10.25017\include\xmemory0

; 823  : 		_Deallocate(_Ptr, _Count, sizeof (_Ty));

	push	1
; File c:\program files (x86)\microsoft visual studio\2017\community\vc\tools\msvc\14.10.25017\include\xstring

; 3613 : 			_Al.deallocate(_Ptr, _My_data._Myres + 1);

	inc	eax
; File c:\program files (x86)\microsoft visual studio\2017\community\vc\tools\msvc\14.10.25017\include\xmemory0

; 823  : 		_Deallocate(_Ptr, _Count, sizeof (_Ty));

	push	eax
	push	DWORD PTR [esi]
	call	?_Deallocate@std@@YAXPAXII@Z		; std::_Deallocate
	add	esp, 12					; 0000000cH
$LN7@pair:
; File c:\program files (x86)\microsoft visual studio\2017\community\vc\tools\msvc\14.10.25017\include\xstring

; 3616 : 		_My_data._Mysize = 0;

	mov	DWORD PTR [esi+16], 0

; 3617 : 		_My_data._Myres = this->_BUF_SIZE - 1;

	mov	DWORD PTR [esi+20], 15			; 0000000fH
; File c:\program files (x86)\microsoft visual studio\2017\community\vc\tools\msvc\14.10.25017\include\iosfwd

; 517  : 		_Left = _Right;

	mov	BYTE PTR [esi], 0
	pop	esi
	ret	0
??1?$pair@$$CBV?$basic_string@DU?$char_traits@D@std@@V?$allocator@D@2@@std@@PAViParameter@sk@@@std@@QAE@XZ ENDP ; std::pair<std::basic_string<char,std::char_traits<char>,std::allocator<char> > const ,sk::iParameter *>::~pair<std::basic_string<char,std::char_traits<char>,std::allocator<char> > const ,sk::iParameter *>
_TEXT	ENDS
; Function compile flags: /Ogtp
; File c:\program files (x86)\microsoft visual studio\2017\community\vc\tools\msvc\14.10.25017\include\xutility
; File c:\program files (x86)\microsoft visual studio\2017\community\vc\tools\msvc\14.10.25017\include\xtree
; File c:\program files (x86)\microsoft visual studio\2017\community\vc\tools\msvc\14.10.25017\include\xutility
; File c:\program files (x86)\microsoft visual studio\2017\community\vc\tools\msvc\14.10.25017\include\xtree
; File c:\program files (x86)\microsoft visual studio\2017\community\vc\tools\msvc\14.10.25017\include\xutility
;	COMDAT ??$?0ABU?$less@V?$basic_string@DU?$char_traits@D@std@@V?$allocator@D@2@@std@@@std@@U_Zero_then_variadic_args_t@1@@?$_Compressed_pair@U?$less@V?$basic_string@DU?$char_traits@D@std@@V?$allocator@D@2@@std@@@std@@V?$_Compressed_pair@U?$_Wrap_alloc@V?$allocator@U?$_Tree_node@U?$pair@$$CBV?$basic_string@DU?$char_traits@D@std@@V?$allocator@D@2@@std@@PAViParameter@sk@@@std@@PAX@std@@@std@@@std@@V?$_Tree_val@U?$_Tree_simple_types@U?$pair@$$CBV?$basic_string@DU?$char_traits@D@std@@V?$allocator@D@2@@std@@PAViParameter@sk@@@std@@@std@@@2@$00@2@$00@std@@QAE@U_One_then_variadic_args_t@1@ABU?$less@V?$basic_string@DU?$char_traits@D@std@@V?$allocator@D@2@@std@@@1@$$QAU_Zero_then_variadic_args_t@1@@Z
_TEXT	SEGMENT
___formal$ = 8						; size = 1
__Val1$ = 12						; size = 4
_<_Val2_0>$ = 16					; size = 4
??$?0ABU?$less@V?$basic_string@DU?$char_traits@D@std@@V?$allocator@D@2@@std@@@std@@U_Zero_then_variadic_args_t@1@@?$_Compressed_pair@U?$less@V?$basic_string@DU?$char_traits@D@std@@V?$allocator@D@2@@std@@@std@@V?$_Compressed_pair@U?$_Wrap_alloc@V?$allocator@U?$_Tree_node@U?$pair@$$CBV?$basic_string@DU?$char_traits@D@std@@V?$allocator@D@2@@std@@PAViParameter@sk@@@std@@PAX@std@@@std@@@std@@V?$_Tree_val@U?$_Tree_simple_types@U?$pair@$$CBV?$basic_string@DU?$char_traits@D@std@@V?$allocator@D@2@@std@@PAViParameter@sk@@@std@@@std@@@2@$00@2@$00@std@@QAE@U_One_then_variadic_args_t@1@ABU?$less@V?$basic_string@DU?$char_traits@D@std@@V?$allocator@D@2@@std@@@1@$$QAU_Zero_then_variadic_args_t@1@@Z PROC ; std::_Compressed_pair<std::less<std::basic_string<char,std::char_traits<char>,std::allocator<char> > >,std::_Compressed_pair<std::_Wrap_alloc<std::allocator<std::_Tree_node<std::pair<std::basic_string<char,std::char_traits<char>,std::allocator<char> > const ,sk::iParameter *>,void *> > >,std::_Tree_val<std::_Tree_simple_types<std::pair<std::basic_string<char,std::char_traits<char>,std::allocator<char> > const ,sk::iParameter *> > >,1>,1>::_Compressed_pair<std::less<std::basic_string<char,std::char_traits<char>,std::allocator<char> > >,std::_Compressed_pair<std::_Wrap_alloc<std::allocator<std::_Tree_node<std::pair<std::basic_string<char,std::char_traits<char>,std::allocator<char> > const ,sk::iParameter *>,void *> > >,std::_Tree_val<std::_Tree_simple_types<std::pair<std::basic_string<char,std::char_traits<char>,std::allocator<char> > const ,sk::iParameter *> > >,1>,1><std::less<std::basic_string<char,std::char_traits<char>,std::allocator<char> > > const &,std::_Zero_then_variadic_args_t>, COMDAT
; _this$ = ecx
; File c:\program files (x86)\microsoft visual studio\2017\community\vc\tools\msvc\14.10.25017\include\xtree

; 560  : 		: _Myhead(),

	mov	DWORD PTR [ecx], 0
; File c:\program files (x86)\microsoft visual studio\2017\community\vc\tools\msvc\14.10.25017\include\xutility

; 313  : 		}

	mov	eax, ecx
; File c:\program files (x86)\microsoft visual studio\2017\community\vc\tools\msvc\14.10.25017\include\xtree

; 561  : 		_Mysize(0)

	mov	DWORD PTR [ecx+4], 0
; File c:\program files (x86)\microsoft visual studio\2017\community\vc\tools\msvc\14.10.25017\include\xutility

; 313  : 		}

	ret	12					; 0000000cH
??$?0ABU?$less@V?$basic_string@DU?$char_traits@D@std@@V?$allocator@D@2@@std@@@std@@U_Zero_then_variadic_args_t@1@@?$_Compressed_pair@U?$less@V?$basic_string@DU?$char_traits@D@std@@V?$allocator@D@2@@std@@@std@@V?$_Compressed_pair@U?$_Wrap_alloc@V?$allocator@U?$_Tree_node@U?$pair@$$CBV?$basic_string@DU?$char_traits@D@std@@V?$allocator@D@2@@std@@PAViParameter@sk@@@std@@PAX@std@@@std@@@std@@V?$_Tree_val@U?$_Tree_simple_types@U?$pair@$$CBV?$basic_string@DU?$char_traits@D@std@@V?$allocator@D@2@@std@@PAViParameter@sk@@@std@@@std@@@2@$00@2@$00@std@@QAE@U_One_then_variadic_args_t@1@ABU?$less@V?$basic_string@DU?$char_traits@D@std@@V?$allocator@D@2@@std@@@1@$$QAU_Zero_then_variadic_args_t@1@@Z ENDP ; std::_Compressed_pair<std::less<std::basic_string<char,std::char_traits<char>,std::allocator<char> > >,std::_Compressed_pair<std::_Wrap_alloc<std::allocator<std::_Tree_node<std::pair<std::basic_string<char,std::char_traits<char>,std::allocator<char> > const ,sk::iParameter *>,void *> > >,std::_Tree_val<std::_Tree_simple_types<std::pair<std::basic_string<char,std::char_traits<char>,std::allocator<char> > const ,sk::iParameter *> > >,1>,1>::_Compressed_pair<std::less<std::basic_string<char,std::char_traits<char>,std::allocator<char> > >,std::_Compressed_pair<std::_Wrap_alloc<std::allocator<std::_Tree_node<std::pair<std::basic_string<char,std::char_traits<char>,std::allocator<char> > const ,sk::iParameter *>,void *> > >,std::_Tree_val<std::_Tree_simple_types<std::pair<std::basic_string<char,std::char_traits<char>,std::allocator<char> > const ,sk::iParameter *> > >,1>,1><std::less<std::basic_string<char,std::char_traits<char>,std::allocator<char> > > const &,std::_Zero_then_variadic_args_t>
_TEXT	ENDS
; Function compile flags: /Ogtp
; File c:\program files (x86)\microsoft visual studio\2017\community\vc\tools\msvc\14.10.25017\include\xmemory0
;	COMDAT ??$destroy@PAU?$_Tree_node@U?$pair@$$CBV?$basic_string@DU?$char_traits@D@std@@V?$allocator@D@2@@std@@PAViParameter@sk@@@std@@PAX@std@@@?$_Wrap_alloc@V?$allocator@U?$_Tree_node@U?$pair@$$CBV?$basic_string@DU?$char_traits@D@std@@V?$allocator@D@2@@std@@PAViParameter@sk@@@std@@PAX@std@@@std@@@std@@QAEXPAPAU?$_Tree_node@U?$pair@$$CBV?$basic_string@DU?$char_traits@D@std@@V?$allocator@D@2@@std@@PAViParameter@sk@@@std@@PAX@1@@Z
_TEXT	SEGMENT
__Ptr$ = 8						; size = 4
??$destroy@PAU?$_Tree_node@U?$pair@$$CBV?$basic_string@DU?$char_traits@D@std@@V?$allocator@D@2@@std@@PAViParameter@sk@@@std@@PAX@std@@@?$_Wrap_alloc@V?$allocator@U?$_Tree_node@U?$pair@$$CBV?$basic_string@DU?$char_traits@D@std@@V?$allocator@D@2@@std@@PAViParameter@sk@@@std@@PAX@std@@@std@@@std@@QAEXPAPAU?$_Tree_node@U?$pair@$$CBV?$basic_string@DU?$char_traits@D@std@@V?$allocator@D@2@@std@@PAViParameter@sk@@@std@@PAX@1@@Z PROC ; std::_Wrap_alloc<std::allocator<std::_Tree_node<std::pair<std::basic_string<char,std::char_traits<char>,std::allocator<char> > const ,sk::iParameter *>,void *> > >::destroy<std::_Tree_node<std::pair<std::basic_string<char,std::char_traits<char>,std::allocator<char> > const ,sk::iParameter *>,void *> *>, COMDAT
; _this$ = ecx

; 1103 : 		_Mytraits::destroy(*this, _Ptr);
; 1104 : 		}

	ret	4
??$destroy@PAU?$_Tree_node@U?$pair@$$CBV?$basic_string@DU?$char_traits@D@std@@V?$allocator@D@2@@std@@PAViParameter@sk@@@std@@PAX@std@@@?$_Wrap_alloc@V?$allocator@U?$_Tree_node@U?$pair@$$CBV?$basic_string@DU?$char_traits@D@std@@V?$allocator@D@2@@std@@PAViParameter@sk@@@std@@PAX@std@@@std@@@std@@QAEXPAPAU?$_Tree_node@U?$pair@$$CBV?$basic_string@DU?$char_traits@D@std@@V?$allocator@D@2@@std@@PAViParameter@sk@@@std@@PAX@1@@Z ENDP ; std::_Wrap_alloc<std::allocator<std::_Tree_node<std::pair<std::basic_string<char,std::char_traits<char>,std::allocator<char> > const ,sk::iParameter *>,void *> > >::destroy<std::_Tree_node<std::pair<std::basic_string<char,std::char_traits<char>,std::allocator<char> > const ,sk::iParameter *>,void *> *>
_TEXT	ENDS
; Function compile flags: /Ogtp
; File c:\program files (x86)\microsoft visual studio\2017\community\vc\tools\msvc\14.10.25017\include\xstddef
;	COMDAT ??$addressof@PAU?$_Tree_node@U?$pair@$$CBV?$basic_string@DU?$char_traits@D@std@@V?$allocator@D@2@@std@@PAViParameter@sk@@@std@@PAX@std@@@std@@YAPAPAU?$_Tree_node@U?$pair@$$CBV?$basic_string@DU?$char_traits@D@std@@V?$allocator@D@2@@std@@PAViParameter@sk@@@std@@PAX@0@AAPAU10@@Z
_TEXT	SEGMENT
__Val$ = 8						; size = 4
??$addressof@PAU?$_Tree_node@U?$pair@$$CBV?$basic_string@DU?$char_traits@D@std@@V?$allocator@D@2@@std@@PAViParameter@sk@@@std@@PAX@std@@@std@@YAPAPAU?$_Tree_node@U?$pair@$$CBV?$basic_string@DU?$char_traits@D@std@@V?$allocator@D@2@@std@@PAViParameter@sk@@@std@@PAX@0@AAPAU10@@Z PROC ; std::addressof<std::_Tree_node<std::pair<std::basic_string<char,std::char_traits<char>,std::allocator<char> > const ,sk::iParameter *>,void *> *>, COMDAT

; 629  : 	{	// return address of _Val

	npad	2
	push	ebp
	mov	ebp, esp

; 630  : 	return (__builtin_addressof(_Val));

	mov	eax, DWORD PTR __Val$[ebp]

; 631  : 	}

	pop	ebp
	ret	0
??$addressof@PAU?$_Tree_node@U?$pair@$$CBV?$basic_string@DU?$char_traits@D@std@@V?$allocator@D@2@@std@@PAViParameter@sk@@@std@@PAX@std@@@std@@YAPAPAU?$_Tree_node@U?$pair@$$CBV?$basic_string@DU?$char_traits@D@std@@V?$allocator@D@2@@std@@PAViParameter@sk@@@std@@PAX@0@AAPAU10@@Z ENDP ; std::addressof<std::_Tree_node<std::pair<std::basic_string<char,std::char_traits<char>,std::allocator<char> > const ,sk::iParameter *>,void *> *>
_TEXT	ENDS
; Function compile flags: /Ogtp
; File c:\program files (x86)\microsoft visual studio\2017\community\vc\tools\msvc\14.10.25017\include\xstddef
;	COMDAT ??$addressof@M@std@@YAPAMAAM@Z
_TEXT	SEGMENT
__Val$ = 8						; size = 4
??$addressof@M@std@@YAPAMAAM@Z PROC			; std::addressof<float>, COMDAT

; 629  : 	{	// return address of _Val

	npad	2
	push	ebp
	mov	ebp, esp

; 630  : 	return (__builtin_addressof(_Val));

	mov	eax, DWORD PTR __Val$[ebp]

; 631  : 	}

	pop	ebp
	ret	0
??$addressof@M@std@@YAPAMAAM@Z ENDP			; std::addressof<float>
_TEXT	ENDS
; Function compile flags: /Ogtp
; File c:\program files (x86)\microsoft visual studio\2017\community\vc\tools\msvc\14.10.25017\include\xmemory0
;	COMDAT ??$destroy@PAD@?$_Wrap_alloc@V?$allocator@D@std@@@std@@QAEXPAPAD@Z
_TEXT	SEGMENT
__Ptr$ = 8						; size = 4
??$destroy@PAD@?$_Wrap_alloc@V?$allocator@D@std@@@std@@QAEXPAPAD@Z PROC ; std::_Wrap_alloc<std::allocator<char> >::destroy<char *>, COMDAT
; _this$ = ecx

; 1103 : 		_Mytraits::destroy(*this, _Ptr);
; 1104 : 		}

	ret	4
??$destroy@PAD@?$_Wrap_alloc@V?$allocator@D@std@@@std@@QAEXPAPAD@Z ENDP ; std::_Wrap_alloc<std::allocator<char> >::destroy<char *>
_TEXT	ENDS
; Function compile flags: /Ogtp
; File c:\program files (x86)\microsoft visual studio\2017\community\vc\tools\msvc\14.10.25017\include\xstddef
;	COMDAT ??$addressof@PAD@std@@YAPAPADAAPAD@Z
_TEXT	SEGMENT
__Val$ = 8						; size = 4
??$addressof@PAD@std@@YAPAPADAAPAD@Z PROC		; std::addressof<char *>, COMDAT

; 629  : 	{	// return address of _Val

	npad	2
	push	ebp
	mov	ebp, esp

; 630  : 	return (__builtin_addressof(_Val));

	mov	eax, DWORD PTR __Val$[ebp]

; 631  : 	}

	pop	ebp
	ret	0
??$addressof@PAD@std@@YAPAPADAAPAD@Z ENDP		; std::addressof<char *>
_TEXT	ENDS
; Function compile flags: /Ogtp
; File c:\program files (x86)\microsoft visual studio\2017\community\vc\tools\msvc\14.10.25017\include\xmemory0
;	COMDAT ??$destroy@PA_W@?$_Wrap_alloc@V?$allocator@_W@std@@@std@@QAEXPAPA_W@Z
_TEXT	SEGMENT
__Ptr$ = 8						; size = 4
??$destroy@PA_W@?$_Wrap_alloc@V?$allocator@_W@std@@@std@@QAEXPAPA_W@Z PROC ; std::_Wrap_alloc<std::allocator<wchar_t> >::destroy<wchar_t *>, COMDAT
; _this$ = ecx

; 1103 : 		_Mytraits::destroy(*this, _Ptr);
; 1104 : 		}

	ret	4
??$destroy@PA_W@?$_Wrap_alloc@V?$allocator@_W@std@@@std@@QAEXPAPA_W@Z ENDP ; std::_Wrap_alloc<std::allocator<wchar_t> >::destroy<wchar_t *>
_TEXT	ENDS
; Function compile flags: /Ogtp
; File c:\program files (x86)\microsoft visual studio\2017\community\vc\tools\msvc\14.10.25017\include\xstddef
;	COMDAT ??$addressof@PA_W@std@@YAPAPA_WAAPA_W@Z
_TEXT	SEGMENT
__Val$ = 8						; size = 4
??$addressof@PA_W@std@@YAPAPA_WAAPA_W@Z PROC		; std::addressof<wchar_t *>, COMDAT

; 629  : 	{	// return address of _Val

	npad	2
	push	ebp
	mov	ebp, esp

; 630  : 	return (__builtin_addressof(_Val));

	mov	eax, DWORD PTR __Val$[ebp]

; 631  : 	}

	pop	ebp
	ret	0
??$addressof@PA_W@std@@YAPAPA_WAAPA_W@Z ENDP		; std::addressof<wchar_t *>
_TEXT	ENDS
; Function compile flags: /Ogtp
; File c:\program files (x86)\microsoft visual studio\2017\community\vc\tools\msvc\14.10.25017\include\xutility
; File c:\program files (x86)\microsoft visual studio\2017\community\vc\tools\msvc\14.10.25017\include\xstring
; File c:\program files (x86)\microsoft visual studio\2017\community\vc\tools\msvc\14.10.25017\include\xutility
; File c:\program files (x86)\microsoft visual studio\2017\community\vc\tools\msvc\14.10.25017\include\xstring
; File c:\program files (x86)\microsoft visual studio\2017\community\vc\tools\msvc\14.10.25017\include\xutility
;	COMDAT ??$?0$$V@?$_Compressed_pair@U?$_Wrap_alloc@V?$allocator@D@std@@@std@@V?$_String_val@U?$_Simple_types@D@std@@@2@$00@std@@QAE@U_Zero_then_variadic_args_t@1@@Z
_TEXT	SEGMENT
___formal$ = 8						; size = 1
??$?0$$V@?$_Compressed_pair@U?$_Wrap_alloc@V?$allocator@D@std@@@std@@V?$_String_val@U?$_Simple_types@D@std@@@2@$00@std@@QAE@U_Zero_then_variadic_args_t@1@@Z PROC ; std::_Compressed_pair<std::_Wrap_alloc<std::allocator<char> >,std::_String_val<std::_Simple_types<char> >,1>::_Compressed_pair<std::_Wrap_alloc<std::allocator<char> >,std::_String_val<std::_Simple_types<char> >,1><>, COMDAT
; _this$ = ecx
; File c:\program files (x86)\microsoft visual studio\2017\community\vc\tools\msvc\14.10.25017\include\xstring

; 1595 : 		_Mysize(0),

	mov	DWORD PTR [ecx+16], 0
; File c:\program files (x86)\microsoft visual studio\2017\community\vc\tools\msvc\14.10.25017\include\xutility

; 304  : 		}

	mov	eax, ecx
; File c:\program files (x86)\microsoft visual studio\2017\community\vc\tools\msvc\14.10.25017\include\xstring

; 1596 : 		_Myres(0)

	mov	DWORD PTR [ecx+20], 0
; File c:\program files (x86)\microsoft visual studio\2017\community\vc\tools\msvc\14.10.25017\include\xutility

; 304  : 		}

	ret	4
??$?0$$V@?$_Compressed_pair@U?$_Wrap_alloc@V?$allocator@D@std@@@std@@V?$_String_val@U?$_Simple_types@D@std@@@2@$00@std@@QAE@U_Zero_then_variadic_args_t@1@@Z ENDP ; std::_Compressed_pair<std::_Wrap_alloc<std::allocator<char> >,std::_String_val<std::_Simple_types<char> >,1>::_Compressed_pair<std::_Wrap_alloc<std::allocator<char> >,std::_String_val<std::_Simple_types<char> >,1><>
_TEXT	ENDS
; Function compile flags: /Ogtp
; File c:\program files (x86)\microsoft visual studio\2017\community\vc\tools\msvc\14.10.25017\include\xutility
; File c:\program files (x86)\microsoft visual studio\2017\community\vc\tools\msvc\14.10.25017\include\xstring
; File c:\program files (x86)\microsoft visual studio\2017\community\vc\tools\msvc\14.10.25017\include\xutility
; File c:\program files (x86)\microsoft visual studio\2017\community\vc\tools\msvc\14.10.25017\include\xstring
; File c:\program files (x86)\microsoft visual studio\2017\community\vc\tools\msvc\14.10.25017\include\xutility
;	COMDAT ??$?0$$V@?$_Compressed_pair@U?$_Wrap_alloc@V?$allocator@_W@std@@@std@@V?$_String_val@U?$_Simple_types@_W@std@@@2@$00@std@@QAE@U_Zero_then_variadic_args_t@1@@Z
_TEXT	SEGMENT
___formal$ = 8						; size = 1
??$?0$$V@?$_Compressed_pair@U?$_Wrap_alloc@V?$allocator@_W@std@@@std@@V?$_String_val@U?$_Simple_types@_W@std@@@2@$00@std@@QAE@U_Zero_then_variadic_args_t@1@@Z PROC ; std::_Compressed_pair<std::_Wrap_alloc<std::allocator<wchar_t> >,std::_String_val<std::_Simple_types<wchar_t> >,1>::_Compressed_pair<std::_Wrap_alloc<std::allocator<wchar_t> >,std::_String_val<std::_Simple_types<wchar_t> >,1><>, COMDAT
; _this$ = ecx
; File c:\program files (x86)\microsoft visual studio\2017\community\vc\tools\msvc\14.10.25017\include\xstring

; 1595 : 		_Mysize(0),

	mov	DWORD PTR [ecx+16], 0
; File c:\program files (x86)\microsoft visual studio\2017\community\vc\tools\msvc\14.10.25017\include\xutility

; 304  : 		}

	mov	eax, ecx
; File c:\program files (x86)\microsoft visual studio\2017\community\vc\tools\msvc\14.10.25017\include\xstring

; 1596 : 		_Myres(0)

	mov	DWORD PTR [ecx+20], 0
; File c:\program files (x86)\microsoft visual studio\2017\community\vc\tools\msvc\14.10.25017\include\xutility

; 304  : 		}

	ret	4
??$?0$$V@?$_Compressed_pair@U?$_Wrap_alloc@V?$allocator@_W@std@@@std@@V?$_String_val@U?$_Simple_types@_W@std@@@2@$00@std@@QAE@U_Zero_then_variadic_args_t@1@@Z ENDP ; std::_Compressed_pair<std::_Wrap_alloc<std::allocator<wchar_t> >,std::_String_val<std::_Simple_types<wchar_t> >,1>::_Compressed_pair<std::_Wrap_alloc<std::allocator<wchar_t> >,std::_String_val<std::_Simple_types<wchar_t> >,1><>
_TEXT	ENDS
; Function compile flags: /Ogtp
; File c:\program files (x86)\microsoft visual studio\2017\community\vc\tools\msvc\14.10.25017\include\xtree
;	COMDAT ??0?$_Tree_iterator@V?$_Tree_val@U?$_Tree_simple_types@U?$pair@$$CBV?$basic_string@DU?$char_traits@D@std@@V?$allocator@D@2@@std@@PAViParameter@sk@@@std@@@std@@@std@@@std@@QAE@PAU?$_Tree_node@U?$pair@$$CBV?$basic_string@DU?$char_traits@D@std@@V?$allocator@D@2@@std@@PAViParameter@sk@@@std@@PAX@1@PBV?$_Tree_val@U?$_Tree_simple_types@U?$pair@$$CBV?$basic_string@DU?$char_traits@D@std@@V?$allocator@D@2@@std@@PAViParameter@sk@@@std@@@std@@@1@@Z
_TEXT	SEGMENT
__Pnode$ = 8						; size = 4
__Plist$ = 12						; size = 4
??0?$_Tree_iterator@V?$_Tree_val@U?$_Tree_simple_types@U?$pair@$$CBV?$basic_string@DU?$char_traits@D@std@@V?$allocator@D@2@@std@@PAViParameter@sk@@@std@@@std@@@std@@@std@@QAE@PAU?$_Tree_node@U?$pair@$$CBV?$basic_string@DU?$char_traits@D@std@@V?$allocator@D@2@@std@@PAViParameter@sk@@@std@@PAX@1@PBV?$_Tree_val@U?$_Tree_simple_types@U?$pair@$$CBV?$basic_string@DU?$char_traits@D@std@@V?$allocator@D@2@@std@@PAViParameter@sk@@@std@@@std@@@1@@Z PROC ; std::_Tree_iterator<std::_Tree_val<std::_Tree_simple_types<std::pair<std::basic_string<char,std::char_traits<char>,std::allocator<char> > const ,sk::iParameter *> > > >::_Tree_iterator<std::_Tree_val<std::_Tree_simple_types<std::pair<std::basic_string<char,std::char_traits<char>,std::allocator<char> > const ,sk::iParameter *> > > >, COMDAT
; _this$ = ecx

; 379  : 		{	// construct with node pointer _Pnode

	npad	2
	push	ebp
	mov	ebp, esp

; 43   : 		: _Ptr(_Pnode)

	mov	eax, DWORD PTR __Pnode$[ebp]
	mov	DWORD PTR [ecx], eax

; 380  : 		}

	mov	eax, ecx
	pop	ebp
	ret	8
??0?$_Tree_iterator@V?$_Tree_val@U?$_Tree_simple_types@U?$pair@$$CBV?$basic_string@DU?$char_traits@D@std@@V?$allocator@D@2@@std@@PAViParameter@sk@@@std@@@std@@@std@@@std@@QAE@PAU?$_Tree_node@U?$pair@$$CBV?$basic_string@DU?$char_traits@D@std@@V?$allocator@D@2@@std@@PAViParameter@sk@@@std@@PAX@1@PBV?$_Tree_val@U?$_Tree_simple_types@U?$pair@$$CBV?$basic_string@DU?$char_traits@D@std@@V?$allocator@D@2@@std@@PAViParameter@sk@@@std@@@std@@@1@@Z ENDP ; std::_Tree_iterator<std::_Tree_val<std::_Tree_simple_types<std::pair<std::basic_string<char,std::char_traits<char>,std::allocator<char> > const ,sk::iParameter *> > > >::_Tree_iterator<std::_Tree_val<std::_Tree_simple_types<std::pair<std::basic_string<char,std::char_traits<char>,std::allocator<char> > const ,sk::iParameter *> > > >
_TEXT	ENDS
; Function compile flags: /Ogtp
; File c:\program files (x86)\microsoft visual studio\2017\community\vc\tools\msvc\14.10.25017\include\xtree
;	COMDAT ??9?$_Tree_const_iterator@V?$_Tree_val@U?$_Tree_simple_types@U?$pair@$$CBV?$basic_string@DU?$char_traits@D@std@@V?$allocator@D@2@@std@@PAViParameter@sk@@@std@@@std@@@std@@@std@@QBE_NABV01@@Z
_TEXT	SEGMENT
__Right$ = 8						; size = 4
??9?$_Tree_const_iterator@V?$_Tree_val@U?$_Tree_simple_types@U?$pair@$$CBV?$basic_string@DU?$char_traits@D@std@@V?$allocator@D@2@@std@@PAViParameter@sk@@@std@@@std@@@std@@@std@@QBE_NABV01@@Z PROC ; std::_Tree_const_iterator<std::_Tree_val<std::_Tree_simple_types<std::pair<std::basic_string<char,std::char_traits<char>,std::allocator<char> > const ,sk::iParameter *> > > >::operator!=, COMDAT
; _this$ = ecx

; 335  : 		{	// test for iterator inequality

	npad	2
	push	ebp
	mov	ebp, esp
	mov	eax, DWORD PTR __Right$[ebp]
	mov	ecx, DWORD PTR [ecx]
	cmp	ecx, DWORD PTR [eax]
	setne	al

; 336  : 		return (!(*this == _Right));
; 337  : 		}

	pop	ebp
	ret	4
??9?$_Tree_const_iterator@V?$_Tree_val@U?$_Tree_simple_types@U?$pair@$$CBV?$basic_string@DU?$char_traits@D@std@@V?$allocator@D@2@@std@@PAViParameter@sk@@@std@@@std@@@std@@@std@@QBE_NABV01@@Z ENDP ; std::_Tree_const_iterator<std::_Tree_val<std::_Tree_simple_types<std::pair<std::basic_string<char,std::char_traits<char>,std::allocator<char> > const ,sk::iParameter *> > > >::operator!=
_TEXT	ENDS
; Function compile flags: /Ogtp
; File c:\program files (x86)\microsoft visual studio\2017\community\vc\tools\msvc\14.10.25017\include\xtree
;	COMDAT ??8?$_Tree_const_iterator@V?$_Tree_val@U?$_Tree_simple_types@U?$pair@$$CBV?$basic_string@DU?$char_traits@D@std@@V?$allocator@D@2@@std@@PAViParameter@sk@@@std@@@std@@@std@@@std@@QBE_NABV01@@Z
_TEXT	SEGMENT
__Right$ = 8						; size = 4
??8?$_Tree_const_iterator@V?$_Tree_val@U?$_Tree_simple_types@U?$pair@$$CBV?$basic_string@DU?$char_traits@D@std@@V?$allocator@D@2@@std@@PAViParameter@sk@@@std@@@std@@@std@@@std@@QBE_NABV01@@Z PROC ; std::_Tree_const_iterator<std::_Tree_val<std::_Tree_simple_types<std::pair<std::basic_string<char,std::char_traits<char>,std::allocator<char> > const ,sk::iParameter *> > > >::operator==, COMDAT
; _this$ = ecx

; 320  : 		{	// test for iterator equality

	npad	2
	push	ebp
	mov	ebp, esp
	mov	eax, DWORD PTR __Right$[ebp]
	mov	ecx, DWORD PTR [ecx]
	cmp	ecx, DWORD PTR [eax]
	sete	al

; 321  :  #if _ITERATOR_DEBUG_LEVEL == 2
; 322  : 		if (this->_Getcont() != _Right._Getcont())
; 323  : 			{	// report error
; 324  : 			_DEBUG_ERROR("map/set iterators incompatible");
; 325  : 			}
; 326  : 
; 327  :  #elif _ITERATOR_DEBUG_LEVEL == 1
; 328  : 		_SCL_SECURE_VALIDATE(this->_Getcont() == _Right._Getcont());
; 329  :  #endif /* _ITERATOR_DEBUG_LEVEL */
; 330  : 
; 331  : 		return (this->_Ptr == _Right._Ptr);
; 332  : 		}

	pop	ebp
	ret	4
??8?$_Tree_const_iterator@V?$_Tree_val@U?$_Tree_simple_types@U?$pair@$$CBV?$basic_string@DU?$char_traits@D@std@@V?$allocator@D@2@@std@@PAViParameter@sk@@@std@@@std@@@std@@@std@@QBE_NABV01@@Z ENDP ; std::_Tree_const_iterator<std::_Tree_val<std::_Tree_simple_types<std::pair<std::basic_string<char,std::char_traits<char>,std::allocator<char> > const ,sk::iParameter *> > > >::operator==
_TEXT	ENDS
; Function compile flags: /Ogtp
; File c:\program files (x86)\microsoft visual studio\2017\community\vc\tools\msvc\14.10.25017\include\xtree
;	COMDAT ??E?$_Tree_const_iterator@V?$_Tree_val@U?$_Tree_simple_types@U?$pair@$$CBV?$basic_string@DU?$char_traits@D@std@@V?$allocator@D@2@@std@@PAViParameter@sk@@@std@@@std@@@std@@@std@@QAE?AV01@H@Z
_TEXT	SEGMENT
___$ReturnUdt$ = 8					; size = 4
___formal$ = 12						; size = 4
??E?$_Tree_const_iterator@V?$_Tree_val@U?$_Tree_simple_types@U?$pair@$$CBV?$basic_string@DU?$char_traits@D@std@@V?$allocator@D@2@@std@@PAViParameter@sk@@@std@@@std@@@std@@@std@@QAE?AV01@H@Z PROC ; std::_Tree_const_iterator<std::_Tree_val<std::_Tree_simple_types<std::pair<std::basic_string<char,std::char_traits<char>,std::allocator<char> > const ,sk::iParameter *> > > >::operator++, COMDAT
; _this$ = ecx

; 276  : 		{	// postincrement

	npad	2
	push	ebp
	mov	ebp, esp

; 277  : 		_Myiter _Tmp = *this;

	mov	edx, DWORD PTR [ecx]
	push	esi
	mov	esi, DWORD PTR ___$ReturnUdt$[ebp]
	mov	DWORD PTR [esi], edx

; 271  : 		++static_cast<_Mybase&>(*this);

	call	??E?$_Tree_unchecked_const_iterator@V?$_Tree_val@U?$_Tree_simple_types@U?$pair@$$CBV?$basic_string@DU?$char_traits@D@std@@V?$allocator@D@2@@std@@PAViParameter@sk@@@std@@@std@@@std@@U_Iterator_base0@2@@std@@QAEAAV01@XZ ; std::_Tree_unchecked_const_iterator<std::_Tree_val<std::_Tree_simple_types<std::pair<std::basic_string<char,std::char_traits<char>,std::allocator<char> > const ,sk::iParameter *> > >,std::_Iterator_base0>::operator++

; 278  : 		++*this;
; 279  : 		return (_Tmp);

	mov	eax, esi
	pop	esi

; 280  : 		}

	pop	ebp
	ret	8
??E?$_Tree_const_iterator@V?$_Tree_val@U?$_Tree_simple_types@U?$pair@$$CBV?$basic_string@DU?$char_traits@D@std@@V?$allocator@D@2@@std@@PAViParameter@sk@@@std@@@std@@@std@@@std@@QAE?AV01@H@Z ENDP ; std::_Tree_const_iterator<std::_Tree_val<std::_Tree_simple_types<std::pair<std::basic_string<char,std::char_traits<char>,std::allocator<char> > const ,sk::iParameter *> > > >::operator++
_TEXT	ENDS
; Function compile flags: /Ogtp
; File c:\program files (x86)\microsoft visual studio\2017\community\vc\tools\msvc\14.10.25017\include\xtree
;	COMDAT ??E?$_Tree_const_iterator@V?$_Tree_val@U?$_Tree_simple_types@U?$pair@$$CBV?$basic_string@DU?$char_traits@D@std@@V?$allocator@D@2@@std@@PAViParameter@sk@@@std@@@std@@@std@@@std@@QAEAAV01@XZ
_TEXT	SEGMENT
??E?$_Tree_const_iterator@V?$_Tree_val@U?$_Tree_simple_types@U?$pair@$$CBV?$basic_string@DU?$char_traits@D@std@@V?$allocator@D@2@@std@@PAViParameter@sk@@@std@@@std@@@std@@@std@@QAEAAV01@XZ PROC ; std::_Tree_const_iterator<std::_Tree_val<std::_Tree_simple_types<std::pair<std::basic_string<char,std::char_traits<char>,std::allocator<char> > const ,sk::iParameter *> > > >::operator++, COMDAT
; _this$ = ecx

; 257  : 		{	// preincrement

	npad	2
	push	esi
	mov	esi, ecx

; 258  :  #if _ITERATOR_DEBUG_LEVEL == 2
; 259  : 		if (this->_Getcont() == 0
; 260  : 			|| this->_Ptr == nullptr_t{}
; 261  : 			|| _Mytree::_Isnil(this->_Ptr))
; 262  : 			{	// report error
; 263  : 			_DEBUG_ERROR("map/set iterator not incrementable");
; 264  : 			}
; 265  : 
; 266  :  #elif _ITERATOR_DEBUG_LEVEL == 1
; 267  : 		_SCL_SECURE_VALIDATE(this->_Getcont() != 0 && this->_Ptr != nullptr_t{});
; 268  : 		_SCL_SECURE_VALIDATE_RANGE(!_Mytree::_Isnil(this->_Ptr));
; 269  :  #endif /* _ITERATOR_DEBUG_LEVEL */
; 270  : 
; 271  : 		++static_cast<_Mybase&>(*this);

	call	??E?$_Tree_unchecked_const_iterator@V?$_Tree_val@U?$_Tree_simple_types@U?$pair@$$CBV?$basic_string@DU?$char_traits@D@std@@V?$allocator@D@2@@std@@PAViParameter@sk@@@std@@@std@@@std@@U_Iterator_base0@2@@std@@QAEAAV01@XZ ; std::_Tree_unchecked_const_iterator<std::_Tree_val<std::_Tree_simple_types<std::pair<std::basic_string<char,std::char_traits<char>,std::allocator<char> > const ,sk::iParameter *> > >,std::_Iterator_base0>::operator++

; 272  : 		return (*this);

	mov	eax, esi
	pop	esi

; 273  : 		}

	ret	0
??E?$_Tree_const_iterator@V?$_Tree_val@U?$_Tree_simple_types@U?$pair@$$CBV?$basic_string@DU?$char_traits@D@std@@V?$allocator@D@2@@std@@PAViParameter@sk@@@std@@@std@@@std@@@std@@QAEAAV01@XZ ENDP ; std::_Tree_const_iterator<std::_Tree_val<std::_Tree_simple_types<std::pair<std::basic_string<char,std::char_traits<char>,std::allocator<char> > const ,sk::iParameter *> > > >::operator++
_TEXT	ENDS
; Function compile flags: /Ogtp
; File c:\program files (x86)\microsoft visual studio\2017\community\vc\tools\msvc\14.10.25017\include\xtree
;	COMDAT ??0?$_Tree_const_iterator@V?$_Tree_val@U?$_Tree_simple_types@U?$pair@$$CBV?$basic_string@DU?$char_traits@D@std@@V?$allocator@D@2@@std@@PAViParameter@sk@@@std@@@std@@@std@@@std@@QAE@PAU?$_Tree_node@U?$pair@$$CBV?$basic_string@DU?$char_traits@D@std@@V?$allocator@D@2@@std@@PAViParameter@sk@@@std@@PAX@1@PBV?$_Tree_val@U?$_Tree_simple_types@U?$pair@$$CBV?$basic_string@DU?$char_traits@D@std@@V?$allocator@D@2@@std@@PAViParameter@sk@@@std@@@std@@@1@@Z
_TEXT	SEGMENT
__Pnode$ = 8						; size = 4
__Plist$ = 12						; size = 4
??0?$_Tree_const_iterator@V?$_Tree_val@U?$_Tree_simple_types@U?$pair@$$CBV?$basic_string@DU?$char_traits@D@std@@V?$allocator@D@2@@std@@PAViParameter@sk@@@std@@@std@@@std@@@std@@QAE@PAU?$_Tree_node@U?$pair@$$CBV?$basic_string@DU?$char_traits@D@std@@V?$allocator@D@2@@std@@PAViParameter@sk@@@std@@PAX@1@PBV?$_Tree_val@U?$_Tree_simple_types@U?$pair@$$CBV?$basic_string@DU?$char_traits@D@std@@V?$allocator@D@2@@std@@PAViParameter@sk@@@std@@@std@@@1@@Z PROC ; std::_Tree_const_iterator<std::_Tree_val<std::_Tree_simple_types<std::pair<std::basic_string<char,std::char_traits<char>,std::allocator<char> > const ,sk::iParameter *> > > >::_Tree_const_iterator<std::_Tree_val<std::_Tree_simple_types<std::pair<std::basic_string<char,std::char_traits<char>,std::allocator<char> > const ,sk::iParameter *> > > >, COMDAT
; _this$ = ecx

; 214  : 		{	// construct with node pointer _Pnode

	npad	2
	push	ebp
	mov	ebp, esp

; 43   : 		: _Ptr(_Pnode)

	mov	eax, DWORD PTR __Pnode$[ebp]
	mov	DWORD PTR [ecx], eax

; 215  : 		}

	mov	eax, ecx
	pop	ebp
	ret	8
??0?$_Tree_const_iterator@V?$_Tree_val@U?$_Tree_simple_types@U?$pair@$$CBV?$basic_string@DU?$char_traits@D@std@@V?$allocator@D@2@@std@@PAViParameter@sk@@@std@@@std@@@std@@@std@@QAE@PAU?$_Tree_node@U?$pair@$$CBV?$basic_string@DU?$char_traits@D@std@@V?$allocator@D@2@@std@@PAViParameter@sk@@@std@@PAX@1@PBV?$_Tree_val@U?$_Tree_simple_types@U?$pair@$$CBV?$basic_string@DU?$char_traits@D@std@@V?$allocator@D@2@@std@@PAViParameter@sk@@@std@@@std@@@1@@Z ENDP ; std::_Tree_const_iterator<std::_Tree_val<std::_Tree_simple_types<std::pair<std::basic_string<char,std::char_traits<char>,std::allocator<char> > const ,sk::iParameter *> > > >::_Tree_const_iterator<std::_Tree_val<std::_Tree_simple_types<std::pair<std::basic_string<char,std::char_traits<char>,std::allocator<char> > const ,sk::iParameter *> > > >
_TEXT	ENDS
; Function compile flags: /Ogtp
; File c:\program files (x86)\microsoft visual studio\2017\community\vc\tools\msvc\14.10.25017\include\xtree
;	COMDAT ?_Mynode@?$_Tree_unchecked_const_iterator@V?$_Tree_val@U?$_Tree_simple_types@U?$pair@$$CBV?$basic_string@DU?$char_traits@D@std@@V?$allocator@D@2@@std@@PAViParameter@sk@@@std@@@std@@@std@@U_Iterator_base0@2@@std@@QBEPAU?$_Tree_node@U?$pair@$$CBV?$basic_string@DU?$char_traits@D@std@@V?$allocator@D@2@@std@@PAViParameter@sk@@@std@@PAX@2@XZ
_TEXT	SEGMENT
?_Mynode@?$_Tree_unchecked_const_iterator@V?$_Tree_val@U?$_Tree_simple_types@U?$pair@$$CBV?$basic_string@DU?$char_traits@D@std@@V?$allocator@D@2@@std@@PAViParameter@sk@@@std@@@std@@@std@@U_Iterator_base0@2@@std@@QBEPAU?$_Tree_node@U?$pair@$$CBV?$basic_string@DU?$char_traits@D@std@@V?$allocator@D@2@@std@@PAViParameter@sk@@@std@@PAX@2@XZ PROC ; std::_Tree_unchecked_const_iterator<std::_Tree_val<std::_Tree_simple_types<std::pair<std::basic_string<char,std::char_traits<char>,std::allocator<char> > const ,sk::iParameter *> > >,std::_Iterator_base0>::_Mynode, COMDAT
; _this$ = ecx

; 123  : 		return (_Ptr);

	mov	eax, DWORD PTR [ecx]

; 124  : 		}

	ret	0
?_Mynode@?$_Tree_unchecked_const_iterator@V?$_Tree_val@U?$_Tree_simple_types@U?$pair@$$CBV?$basic_string@DU?$char_traits@D@std@@V?$allocator@D@2@@std@@PAViParameter@sk@@@std@@@std@@@std@@U_Iterator_base0@2@@std@@QBEPAU?$_Tree_node@U?$pair@$$CBV?$basic_string@DU?$char_traits@D@std@@V?$allocator@D@2@@std@@PAViParameter@sk@@@std@@PAX@2@XZ ENDP ; std::_Tree_unchecked_const_iterator<std::_Tree_val<std::_Tree_simple_types<std::pair<std::basic_string<char,std::char_traits<char>,std::allocator<char> > const ,sk::iParameter *> > >,std::_Iterator_base0>::_Mynode
_TEXT	ENDS
; Function compile flags: /Ogtp
; File c:\program files (x86)\microsoft visual studio\2017\community\vc\tools\msvc\14.10.25017\include\xtree
;	COMDAT ??E?$_Tree_unchecked_const_iterator@V?$_Tree_val@U?$_Tree_simple_types@U?$pair@$$CBV?$basic_string@DU?$char_traits@D@std@@V?$allocator@D@2@@std@@PAViParameter@sk@@@std@@@std@@@std@@U_Iterator_base0@2@@std@@QAEAAV01@XZ
_TEXT	SEGMENT
??E?$_Tree_unchecked_const_iterator@V?$_Tree_val@U?$_Tree_simple_types@U?$pair@$$CBV?$basic_string@DU?$char_traits@D@std@@V?$allocator@D@2@@std@@PAViParameter@sk@@@std@@@std@@@std@@U_Iterator_base0@2@@std@@QAEAAV01@XZ PROC ; std::_Tree_unchecked_const_iterator<std::_Tree_val<std::_Tree_simple_types<std::pair<std::basic_string<char,std::char_traits<char>,std::allocator<char> > const ,sk::iParameter *> > >,std::_Iterator_base0>::operator++, COMDAT
; _this$ = ecx

; 59   : 		{	// preincrement

	mov	edx, ecx

; 576  : 		return ((char&)_Pnode->_Isnil);

	mov	eax, DWORD PTR [edx]

; 60   : 		if (_Mytree::_Isnil(_Ptr))

	cmp	BYTE PTR [eax+13], 0
	jne	SHORT $LN41@operator

; 576  : 		return ((char&)_Pnode->_Isnil);

	mov	ecx, DWORD PTR [eax+8]

; 61   : 			;	// end() shouldn't be incremented, don't move
; 62   : 		else if (!_Mytree::_Isnil(_Mytree::_Right(_Ptr)))

	cmp	BYTE PTR [ecx+13], 0
	jne	SHORT $LN34@operator

; 576  : 		return ((char&)_Pnode->_Isnil);

	mov	eax, DWORD PTR [ecx]

; 608  : 		while (!_Isnil(_Left(_Pnode)))

	cmp	BYTE PTR [eax+13], 0
	jne	SHORT $LN19@operator
	npad	5
$LL18@operator:

; 609  : 			_Pnode = _Left(_Pnode);

	mov	ecx, eax

; 576  : 		return ((char&)_Pnode->_Isnil);

	mov	eax, DWORD PTR [ecx]

; 608  : 		while (!_Isnil(_Left(_Pnode)))

	cmp	BYTE PTR [eax+13], 0
	je	SHORT $LL18@operator
$LN19@operator:

; 63   : 			_Ptr = _Mytree::_Min(

	mov	DWORD PTR [edx], ecx

; 72   : 			}
; 73   : 		return (*this);

	mov	eax, edx

; 74   : 		}

	ret	0
$LN34@operator:

; 64   : 				_Mytree::_Right(_Ptr));	// ==> smallest of right subtree
; 65   : 		else
; 66   : 			{	// climb looking for right subtree
; 67   : 			_Nodeptr _Pnode;
; 68   : 			while (!_Mytree::_Isnil(_Pnode = _Mytree::_Parent(_Ptr))
; 69   : 				&& _Ptr == _Mytree::_Right(_Pnode))

	mov	eax, DWORD PTR [eax+4]
	cmp	BYTE PTR [eax+13], 0
	jne	SHORT $LN3@operator
$LL2@operator:
	mov	ecx, DWORD PTR [edx]
	cmp	ecx, DWORD PTR [eax+8]
	jne	SHORT $LN3@operator

; 70   : 				_Ptr = _Pnode;	// ==> parent while right subtree

	mov	DWORD PTR [edx], eax
	mov	eax, DWORD PTR [eax+4]
	cmp	BYTE PTR [eax+13], 0
	je	SHORT $LL2@operator
$LN3@operator:

; 71   : 			_Ptr = _Pnode;	// ==> parent (head if end())

	mov	DWORD PTR [edx], eax
$LN41@operator:

; 72   : 			}
; 73   : 		return (*this);

	mov	eax, edx

; 74   : 		}

	ret	0
??E?$_Tree_unchecked_const_iterator@V?$_Tree_val@U?$_Tree_simple_types@U?$pair@$$CBV?$basic_string@DU?$char_traits@D@std@@V?$allocator@D@2@@std@@PAViParameter@sk@@@std@@@std@@@std@@U_Iterator_base0@2@@std@@QAEAAV01@XZ ENDP ; std::_Tree_unchecked_const_iterator<std::_Tree_val<std::_Tree_simple_types<std::pair<std::basic_string<char,std::char_traits<char>,std::allocator<char> > const ,sk::iParameter *> > >,std::_Iterator_base0>::operator++
_TEXT	ENDS
; Function compile flags: /Ogtp
; File c:\program files (x86)\microsoft visual studio\2017\community\vc\tools\msvc\14.10.25017\include\xtree
;	COMDAT ??0?$_Tree_unchecked_const_iterator@V?$_Tree_val@U?$_Tree_simple_types@U?$pair@$$CBV?$basic_string@DU?$char_traits@D@std@@V?$allocator@D@2@@std@@PAViParameter@sk@@@std@@@std@@@std@@U_Iterator_base0@2@@std@@QAE@PAU?$_Tree_node@U?$pair@$$CBV?$basic_string@DU?$char_traits@D@std@@V?$allocator@D@2@@std@@PAViParameter@sk@@@std@@PAX@1@PBV?$_Tree_val@U?$_Tree_simple_types@U?$pair@$$CBV?$basic_string@DU?$char_traits@D@std@@V?$allocator@D@2@@std@@PAViParameter@sk@@@std@@@std@@@1@@Z
_TEXT	SEGMENT
__Pnode$ = 8						; size = 4
__Plist$ = 12						; size = 4
??0?$_Tree_unchecked_const_iterator@V?$_Tree_val@U?$_Tree_simple_types@U?$pair@$$CBV?$basic_string@DU?$char_traits@D@std@@V?$allocator@D@2@@std@@PAViParameter@sk@@@std@@@std@@@std@@U_Iterator_base0@2@@std@@QAE@PAU?$_Tree_node@U?$pair@$$CBV?$basic_string@DU?$char_traits@D@std@@V?$allocator@D@2@@std@@PAViParameter@sk@@@std@@PAX@1@PBV?$_Tree_val@U?$_Tree_simple_types@U?$pair@$$CBV?$basic_string@DU?$char_traits@D@std@@V?$allocator@D@2@@std@@PAViParameter@sk@@@std@@@std@@@1@@Z PROC ; std::_Tree_unchecked_const_iterator<std::_Tree_val<std::_Tree_simple_types<std::pair<std::basic_string<char,std::char_traits<char>,std::allocator<char> > const ,sk::iParameter *> > >,std::_Iterator_base0>::_Tree_unchecked_const_iterator<std::_Tree_val<std::_Tree_simple_types<std::pair<std::basic_string<char,std::char_traits<char>,std::allocator<char> > const ,sk::iParameter *> > >,std::_Iterator_base0>, COMDAT
; _this$ = ecx

; 44   : 		{	// construct with node pointer _Pnode

	npad	2
	push	ebp
	mov	ebp, esp

; 43   : 		: _Ptr(_Pnode)

	mov	eax, DWORD PTR __Pnode$[ebp]
	mov	DWORD PTR [ecx], eax

; 45   : 		this->_Adopt(_Plist);
; 46   : 		}

	mov	eax, ecx
	pop	ebp
	ret	8
??0?$_Tree_unchecked_const_iterator@V?$_Tree_val@U?$_Tree_simple_types@U?$pair@$$CBV?$basic_string@DU?$char_traits@D@std@@V?$allocator@D@2@@std@@PAViParameter@sk@@@std@@@std@@@std@@U_Iterator_base0@2@@std@@QAE@PAU?$_Tree_node@U?$pair@$$CBV?$basic_string@DU?$char_traits@D@std@@V?$allocator@D@2@@std@@PAViParameter@sk@@@std@@PAX@1@PBV?$_Tree_val@U?$_Tree_simple_types@U?$pair@$$CBV?$basic_string@DU?$char_traits@D@std@@V?$allocator@D@2@@std@@PAViParameter@sk@@@std@@@std@@@1@@Z ENDP ; std::_Tree_unchecked_const_iterator<std::_Tree_val<std::_Tree_simple_types<std::pair<std::basic_string<char,std::char_traits<char>,std::allocator<char> > const ,sk::iParameter *> > >,std::_Iterator_base0>::_Tree_unchecked_const_iterator<std::_Tree_val<std::_Tree_simple_types<std::pair<std::basic_string<char,std::char_traits<char>,std::allocator<char> > const ,sk::iParameter *> > >,std::_Iterator_base0>
_TEXT	ENDS
; Function compile flags: /Ogtp
; File c:\program files (x86)\microsoft visual studio\2017\community\vc\tools\msvc\14.10.25017\include\xutility
;	COMDAT ??E?$_Array_iterator@M$0GA@@std@@QAEAAV01@XZ
_TEXT	SEGMENT
??E?$_Array_iterator@M$0GA@@std@@QAEAAV01@XZ PROC	; std::_Array_iterator<float,96>::operator++, COMDAT
; _this$ = ecx

; 1596 : 		++_Ptr;

	add	DWORD PTR [ecx], 4

; 1962 : 		++*(_Mybase *)this;
; 1963 : 		return (*this);

	mov	eax, ecx

; 1964 : 		}

	ret	0
??E?$_Array_iterator@M$0GA@@std@@QAEAAV01@XZ ENDP	; std::_Array_iterator<float,96>::operator++
_TEXT	ENDS
; Function compile flags: /Ogtp
; File c:\program files (x86)\microsoft visual studio\2017\community\vc\tools\msvc\14.10.25017\include\xutility
;	COMDAT ??D?$_Array_iterator@M$0GA@@std@@QBEAAMXZ
_TEXT	SEGMENT
??D?$_Array_iterator@M$0GA@@std@@QBEAAMXZ PROC		; std::_Array_iterator<float,96>::operator*, COMDAT
; _this$ = ecx

; 1952 : 		return ((reference)**(_Mybase *)this);

	mov	eax, DWORD PTR [ecx]

; 1953 : 		}

	ret	0
??D?$_Array_iterator@M$0GA@@std@@QBEAAMXZ ENDP		; std::_Array_iterator<float,96>::operator*
_TEXT	ENDS
; Function compile flags: /Ogtp
; File c:\program files (x86)\microsoft visual studio\2017\community\vc\tools\msvc\14.10.25017\include\xutility
;	COMDAT ??0?$_Array_iterator@M$0GA@@std@@QAE@PAMI@Z
_TEXT	SEGMENT
__Parg$ = 8						; size = 4
__Off$ = 12						; size = 4
??0?$_Array_iterator@M$0GA@@std@@QAE@PAMI@Z PROC	; std::_Array_iterator<float,96>::_Array_iterator<float,96>, COMDAT
; _this$ = ecx

; 1934 : 		{	// construct with pointer and offset

	npad	2
	push	ebp
	mov	ebp, esp

; 1567 : 		: _Ptr(_Parg + _Off)

	mov	edx, DWORD PTR __Off$[ebp]
	mov	eax, DWORD PTR __Parg$[ebp]
	lea	eax, DWORD PTR [eax+edx*4]
	mov	DWORD PTR [ecx], eax

; 1935 : 		}

	mov	eax, ecx
	pop	ebp
	ret	8
??0?$_Array_iterator@M$0GA@@std@@QAE@PAMI@Z ENDP	; std::_Array_iterator<float,96>::_Array_iterator<float,96>
_TEXT	ENDS
; Function compile flags: /Ogtp
; File c:\program files (x86)\microsoft visual studio\2017\community\vc\tools\msvc\14.10.25017\include\xutility
;	COMDAT ??9?$_Array_const_iterator@M$0GA@@std@@QBE_NABV01@@Z
_TEXT	SEGMENT
__Right$ = 8						; size = 4
??9?$_Array_const_iterator@M$0GA@@std@@QBE_NABV01@@Z PROC ; std::_Array_const_iterator<float,96>::operator!=, COMDAT
; _this$ = ecx

; 1659 : 		{	// test for iterator inequality

	npad	2
	push	ebp
	mov	ebp, esp
	mov	eax, DWORD PTR __Right$[ebp]
	mov	ecx, DWORD PTR [ecx]
	cmp	ecx, DWORD PTR [eax]
	setne	al

; 1660 : 		return (!(*this == _Right));
; 1661 : 		}

	pop	ebp
	ret	4
??9?$_Array_const_iterator@M$0GA@@std@@QBE_NABV01@@Z ENDP ; std::_Array_const_iterator<float,96>::operator!=
_TEXT	ENDS
; Function compile flags: /Ogtp
; File c:\program files (x86)\microsoft visual studio\2017\community\vc\tools\msvc\14.10.25017\include\xutility
;	COMDAT ??8?$_Array_const_iterator@M$0GA@@std@@QBE_NABV01@@Z
_TEXT	SEGMENT
__Right$ = 8						; size = 4
??8?$_Array_const_iterator@M$0GA@@std@@QBE_NABV01@@Z PROC ; std::_Array_const_iterator<float,96>::operator==, COMDAT
; _this$ = ecx

; 1654 : 		{	// test for iterator equality

	npad	2
	push	ebp
	mov	ebp, esp
	mov	eax, DWORD PTR __Right$[ebp]
	mov	ecx, DWORD PTR [ecx]
	cmp	ecx, DWORD PTR [eax]
	sete	al

; 1655 : 		return (_Ptr == _Right._Ptr);
; 1656 : 		}

	pop	ebp
	ret	4
??8?$_Array_const_iterator@M$0GA@@std@@QBE_NABV01@@Z ENDP ; std::_Array_const_iterator<float,96>::operator==
_TEXT	ENDS
; Function compile flags: /Ogtp
; File c:\program files (x86)\microsoft visual studio\2017\community\vc\tools\msvc\14.10.25017\include\xutility
;	COMDAT ??E?$_Array_const_iterator@M$0GA@@std@@QAEAAV01@XZ
_TEXT	SEGMENT
??E?$_Array_const_iterator@M$0GA@@std@@QAEAAV01@XZ PROC	; std::_Array_const_iterator<float,96>::operator++, COMDAT
; _this$ = ecx

; 1596 : 		++_Ptr;

	add	DWORD PTR [ecx], 4

; 1597 : 		return (*this);

	mov	eax, ecx

; 1598 : 		}

	ret	0
??E?$_Array_const_iterator@M$0GA@@std@@QAEAAV01@XZ ENDP	; std::_Array_const_iterator<float,96>::operator++
_TEXT	ENDS
; Function compile flags: /Ogtp
; File c:\program files (x86)\microsoft visual studio\2017\community\vc\tools\msvc\14.10.25017\include\xutility
;	COMDAT ??D?$_Array_const_iterator@M$0GA@@std@@QBEABMXZ
_TEXT	SEGMENT
??D?$_Array_const_iterator@M$0GA@@std@@QBEABMXZ PROC	; std::_Array_const_iterator<float,96>::operator*, COMDAT
; _this$ = ecx

; 1586 : 		return (*_Ptr);

	mov	eax, DWORD PTR [ecx]

; 1587 : 		}

	ret	0
??D?$_Array_const_iterator@M$0GA@@std@@QBEABMXZ ENDP	; std::_Array_const_iterator<float,96>::operator*
_TEXT	ENDS
; Function compile flags: /Ogtp
; File c:\program files (x86)\microsoft visual studio\2017\community\vc\tools\msvc\14.10.25017\include\xutility
;	COMDAT ??0?$_Array_const_iterator@M$0GA@@std@@QAE@PBMI@Z
_TEXT	SEGMENT
__Parg$ = 8						; size = 4
__Off$ = 12						; size = 4
??0?$_Array_const_iterator@M$0GA@@std@@QAE@PBMI@Z PROC	; std::_Array_const_iterator<float,96>::_Array_const_iterator<float,96>, COMDAT
; _this$ = ecx

; 1568 : 		{	// construct with pointer and offset

	npad	2
	push	ebp
	mov	ebp, esp

; 1567 : 		: _Ptr(_Parg + _Off)

	mov	edx, DWORD PTR __Off$[ebp]
	mov	eax, DWORD PTR __Parg$[ebp]
	lea	eax, DWORD PTR [eax+edx*4]
	mov	DWORD PTR [ecx], eax

; 1569 : 		}

	mov	eax, ecx
	pop	ebp
	ret	8
??0?$_Array_const_iterator@M$0GA@@std@@QAE@PBMI@Z ENDP	; std::_Array_const_iterator<float,96>::_Array_const_iterator<float,96>
_TEXT	ENDS
; Function compile flags: /Ogtp
; File c:\program files (x86)\microsoft visual studio\2017\community\vc\tools\msvc\14.10.25017\include\xstddef
;	COMDAT ??$addressof@$$CBV?$basic_string@_WU?$char_traits@_W@std@@V?$allocator@_W@2@@std@@@std@@YAPBV?$basic_string@_WU?$char_traits@_W@std@@V?$allocator@_W@2@@0@ABV10@@Z
_TEXT	SEGMENT
__Val$ = 8						; size = 4
??$addressof@$$CBV?$basic_string@_WU?$char_traits@_W@std@@V?$allocator@_W@2@@std@@@std@@YAPBV?$basic_string@_WU?$char_traits@_W@std@@V?$allocator@_W@2@@0@ABV10@@Z PROC ; std::addressof<std::basic_string<wchar_t,std::char_traits<wchar_t>,std::allocator<wchar_t> > const >, COMDAT

; 629  : 	{	// return address of _Val

	npad	2
	push	ebp
	mov	ebp, esp

; 630  : 	return (__builtin_addressof(_Val));

	mov	eax, DWORD PTR __Val$[ebp]

; 631  : 	}

	pop	ebp
	ret	0
??$addressof@$$CBV?$basic_string@_WU?$char_traits@_W@std@@V?$allocator@_W@2@@std@@@std@@YAPBV?$basic_string@_WU?$char_traits@_W@std@@V?$allocator@_W@2@@0@ABV10@@Z ENDP ; std::addressof<std::basic_string<wchar_t,std::char_traits<wchar_t>,std::allocator<wchar_t> > const >
_TEXT	ENDS
; Function compile flags: /Ogtp
; File c:\program files (x86)\microsoft visual studio\2017\community\vc\tools\msvc\14.10.25017\include\algorithm
;	COMDAT ??$max@M@std@@YAABMABM0@Z
_TEXT	SEGMENT
__Left$ = 8						; size = 4
__Right$ = 12						; size = 4
??$max@M@std@@YAABMABM0@Z PROC				; std::max<float>, COMDAT

; 3742 : 	{	// return larger of _Left and _Right

	npad	2
	push	ebp
	mov	ebp, esp

; 3743 : 	return (_DEBUG_LT(_Left, _Right) ? _Right : _Left);

	mov	ecx, DWORD PTR __Right$[ebp]
	mov	eax, DWORD PTR __Left$[ebp]
	movss	xmm0, DWORD PTR [ecx]
	comiss	xmm0, DWORD PTR [eax]
	cmova	eax, ecx

; 3744 : 	}

	pop	ebp
	ret	0
??$max@M@std@@YAABMABM0@Z ENDP				; std::max<float>
_TEXT	ENDS
; Function compile flags: /Ogtp
; File c:\program files (x86)\microsoft visual studio\2017\community\vc\tools\msvc\14.10.25017\include\algorithm
;	COMDAT ??$min@M@std@@YAABMABM0@Z
_TEXT	SEGMENT
__Left$ = 8						; size = 4
__Right$ = 12						; size = 4
??$min@M@std@@YAABMABM0@Z PROC				; std::min<float>, COMDAT

; 3778 : 	{	// return smaller of _Left and _Right

	npad	2
	push	ebp
	mov	ebp, esp

; 3779 : 	return (_DEBUG_LT(_Right, _Left) ? _Right : _Left);

	mov	eax, DWORD PTR __Left$[ebp]
	mov	ecx, DWORD PTR __Right$[ebp]
	movss	xmm0, DWORD PTR [eax]
	comiss	xmm0, DWORD PTR [ecx]
	cmova	eax, ecx

; 3780 : 	}

	pop	ebp
	ret	0
??$min@M@std@@YAABMABM0@Z ENDP				; std::min<float>
_TEXT	ENDS
; Function compile flags: /Ogtp
;	COMDAT ??__F__gpu_monitor__@@YAXXZ
text$yd	SEGMENT
??__F__gpu_monitor__@@YAXXZ PROC			; `dynamic atexit destructor for '__gpu_monitor__'', COMDAT
	mov	ecx, OFFSET ?__gpu_monitor__@@3VSKWG_GPU_Monitor@@A ; __gpu_monitor__
	jmp	??1SK_Widget@@QAE@XZ
??__F__gpu_monitor__@@YAXXZ ENDP			; `dynamic atexit destructor for '__gpu_monitor__''
text$yd	ENDS
; Function compile flags: /Ogtp
; File c:\users\andon\source\repos\specialk\src\widgets\gpu_widget.cpp
;	COMDAT ??__E__gpu_monitor__@@YAXXZ
text$di	SEGMENT
??__E__gpu_monitor__@@YAXXZ PROC			; `dynamic initializer for '__gpu_monitor__'', COMDAT

; 254  : } __gpu_monitor__;

	mov	ecx, OFFSET ?__gpu_monitor__@@3VSKWG_GPU_Monitor@@A ; __gpu_monitor__
	call	??0SKWG_GPU_Monitor@@QAE@XZ		; SKWG_GPU_Monitor::SKWG_GPU_Monitor
	push	OFFSET ??__F__gpu_monitor__@@YAXXZ	; `dynamic atexit destructor for '__gpu_monitor__''
	call	_atexit
	pop	ecx
	ret	0
??__E__gpu_monitor__@@YAXXZ ENDP			; `dynamic initializer for '__gpu_monitor__''
text$di	ENDS
; Function compile flags: /Ogtp
;	COMDAT ??1SKWG_GPU_Monitor@@QAE@XZ
_TEXT	SEGMENT
??1SKWG_GPU_Monitor@@QAE@XZ PROC			; SKWG_GPU_Monitor::~SKWG_GPU_Monitor, COMDAT
; _this$ = ecx
	jmp	??1SK_Widget@@QAE@XZ
??1SKWG_GPU_Monitor@@QAE@XZ ENDP			; SKWG_GPU_Monitor::~SKWG_GPU_Monitor
_TEXT	ENDS
; Function compile flags: /Ogtp
;	COMDAT ??0?$SK_Stat_DataHistory@I$0GA@@@QAE@XZ
_TEXT	SEGMENT
??0?$SK_Stat_DataHistory@I$0GA@@@QAE@XZ PROC		; SK_Stat_DataHistory<unsigned int,96>::SK_Stat_DataHistory<unsigned int,96>, COMDAT
; _this$ = ecx
	mov	DWORD PTR [ecx], 0
	mov	eax, ecx
	mov	DWORD PTR [ecx+388], 0
	mov	DWORD PTR [ecx+392], 0
	mov	DWORD PTR [ecx+408], 0
	ret	0
??0?$SK_Stat_DataHistory@I$0GA@@@QAE@XZ ENDP		; SK_Stat_DataHistory<unsigned int,96>::SK_Stat_DataHistory<unsigned int,96>
_TEXT	ENDS
; Function compile flags: /Ogtp
;	COMDAT ??0stat_cache_s@?$SK_Stat_DataHistory@I$0GA@@@QAE@XZ
_TEXT	SEGMENT
??0stat_cache_s@?$SK_Stat_DataHistory@I$0GA@@@QAE@XZ PROC ; SK_Stat_DataHistory<unsigned int,96>::stat_cache_s::stat_cache_s, COMDAT
; _this$ = ecx
	mov	DWORD PTR [ecx+12], 0
	mov	eax, ecx
	ret	0
??0stat_cache_s@?$SK_Stat_DataHistory@I$0GA@@@QAE@XZ ENDP ; SK_Stat_DataHistory<unsigned int,96>::stat_cache_s::stat_cache_s
_TEXT	ENDS
; Function compile flags: /Ogtp
;	COMDAT ??0?$SK_Stat_DataHistory@_K$0GA@@@QAE@XZ
_TEXT	SEGMENT
??0?$SK_Stat_DataHistory@_K$0GA@@@QAE@XZ PROC		; SK_Stat_DataHistory<unsigned __int64,96>::SK_Stat_DataHistory<unsigned __int64,96>, COMDAT
; _this$ = ecx
	mov	DWORD PTR [ecx], 0
	mov	eax, ecx
	mov	DWORD PTR [ecx+776], 0
	mov	DWORD PTR [ecx+784], 0
	mov	DWORD PTR [ecx+788], 0
	mov	DWORD PTR [ecx+816], 0
	ret	0
??0?$SK_Stat_DataHistory@_K$0GA@@@QAE@XZ ENDP		; SK_Stat_DataHistory<unsigned __int64,96>::SK_Stat_DataHistory<unsigned __int64,96>
_TEXT	ENDS
; Function compile flags: /Ogtp
;	COMDAT ??0stat_cache_s@?$SK_Stat_DataHistory@_K$0GA@@@QAE@XZ
_TEXT	SEGMENT
??0stat_cache_s@?$SK_Stat_DataHistory@_K$0GA@@@QAE@XZ PROC ; SK_Stat_DataHistory<unsigned __int64,96>::stat_cache_s::stat_cache_s, COMDAT
; _this$ = ecx
	mov	DWORD PTR [ecx+24], 0
	mov	eax, ecx
	ret	0
??0stat_cache_s@?$SK_Stat_DataHistory@_K$0GA@@@QAE@XZ ENDP ; SK_Stat_DataHistory<unsigned __int64,96>::stat_cache_s::stat_cache_s
_TEXT	ENDS
; Function compile flags: /Ogtp
;	COMDAT ??0?$SK_Stat_DataHistory@M$0GA@@@QAE@XZ
_TEXT	SEGMENT
??0?$SK_Stat_DataHistory@M$0GA@@@QAE@XZ PROC		; SK_Stat_DataHistory<float,96>::SK_Stat_DataHistory<float,96>, COMDAT
; _this$ = ecx
	mov	DWORD PTR [ecx], 0
	mov	eax, ecx
	mov	DWORD PTR [ecx+388], 0
	mov	DWORD PTR [ecx+392], 0
	mov	DWORD PTR [ecx+408], 0
	ret	0
??0?$SK_Stat_DataHistory@M$0GA@@@QAE@XZ ENDP		; SK_Stat_DataHistory<float,96>::SK_Stat_DataHistory<float,96>
_TEXT	ENDS
; Function compile flags: /Ogtp
;	COMDAT ??0stat_cache_s@?$SK_Stat_DataHistory@M$0GA@@@QAE@XZ
_TEXT	SEGMENT
??0stat_cache_s@?$SK_Stat_DataHistory@M$0GA@@@QAE@XZ PROC ; SK_Stat_DataHistory<float,96>::stat_cache_s::stat_cache_s, COMDAT
; _this$ = ecx
	mov	DWORD PTR [ecx+12], 0
	mov	eax, ecx
	ret	0
??0stat_cache_s@?$SK_Stat_DataHistory@M$0GA@@@QAE@XZ ENDP ; SK_Stat_DataHistory<float,96>::stat_cache_s::stat_cache_s
_TEXT	ENDS
; Function compile flags: /Ogtp
; File c:\program files (x86)\microsoft visual studio\2017\community\vc\tools\msvc\14.10.25017\include\array
;	COMDAT ?data@?$array@M$0GA@@std@@QAEPAMXZ
_TEXT	SEGMENT
?data@?$array@M$0GA@@std@@QAEPAMXZ PROC			; std::array<float,96>::data, COMDAT
; _this$ = ecx

; 207  : 		return (_Elems);

	mov	eax, ecx

; 208  : 		}

	ret	0
?data@?$array@M$0GA@@std@@QAEPAMXZ ENDP			; std::array<float,96>::data
_TEXT	ENDS
; Function compile flags: /Ogtp
; File c:\program files (x86)\microsoft visual studio\2017\community\vc\tools\msvc\14.10.25017\include\array
;	COMDAT ??A?$array@M$0GA@@std@@QAEAAMI@Z
_TEXT	SEGMENT
__Pos$ = 8						; size = 4
??A?$array@M$0GA@@std@@QAEAAMI@Z PROC			; std::array<float,96>::operator[], COMDAT
; _this$ = ecx

; 148  : 		{	// subscript mutable sequence

	npad	2
	push	ebp
	mov	ebp, esp

; 149  :  #if _ITERATOR_DEBUG_LEVEL == 2
; 150  : 		if (_Size <= _Pos)
; 151  : 			{
; 152  : 			_DEBUG_ERROR("array subscript out of range");
; 153  : 			}
; 154  :  #elif _ITERATOR_DEBUG_LEVEL == 1
; 155  : 		_SCL_SECURE_VALIDATE_RANGE(_Pos < _Size);
; 156  :  #endif /* _ITERATOR_DEBUG_LEVEL */
; 157  : 
; 158  : 		return (_Elems[_Pos]);

	mov	eax, DWORD PTR __Pos$[ebp]
	lea	eax, DWORD PTR [ecx+eax*4]

; 159  : 		}

	pop	ebp
	ret	4
??A?$array@M$0GA@@std@@QAEAAMI@Z ENDP			; std::array<float,96>::operator[]
_TEXT	ENDS
; Function compile flags: /Ogtp
; File c:\program files (x86)\microsoft visual studio\2017\community\vc\tools\msvc\14.10.25017\include\array
; File c:\program files (x86)\microsoft visual studio\2017\community\vc\tools\msvc\14.10.25017\include\xutility
; File c:\program files (x86)\microsoft visual studio\2017\community\vc\tools\msvc\14.10.25017\include\array
;	COMDAT ?end@?$array@M$0GA@@std@@QAE?AV?$_Array_iterator@M$0GA@@2@XZ
_TEXT	SEGMENT
___$ReturnUdt$ = 8					; size = 4
?end@?$array@M$0GA@@std@@QAE?AV?$_Array_iterator@M$0GA@@2@XZ PROC ; std::array<float,96>::end, COMDAT
; _this$ = ecx

; 69   : 		{	// return iterator for end of mutable sequence

	npad	2
	push	ebp
	mov	ebp, esp
; File c:\program files (x86)\microsoft visual studio\2017\community\vc\tools\msvc\14.10.25017\include\xutility

; 1567 : 		: _Ptr(_Parg + _Off)

	mov	eax, DWORD PTR ___$ReturnUdt$[ebp]
	add	ecx, 384				; 00000180H
	mov	DWORD PTR [eax], ecx
; File c:\program files (x86)\microsoft visual studio\2017\community\vc\tools\msvc\14.10.25017\include\array

; 71   : 		}

	pop	ebp
	ret	4
?end@?$array@M$0GA@@std@@QAE?AV?$_Array_iterator@M$0GA@@2@XZ ENDP ; std::array<float,96>::end
_TEXT	ENDS
; Function compile flags: /Ogtp
; File c:\program files (x86)\microsoft visual studio\2017\community\vc\tools\msvc\14.10.25017\include\array
; File c:\program files (x86)\microsoft visual studio\2017\community\vc\tools\msvc\14.10.25017\include\xutility
; File c:\program files (x86)\microsoft visual studio\2017\community\vc\tools\msvc\14.10.25017\include\array
;	COMDAT ?begin@?$array@M$0GA@@std@@QAE?AV?$_Array_iterator@M$0GA@@2@XZ
_TEXT	SEGMENT
___$ReturnUdt$ = 8					; size = 4
?begin@?$array@M$0GA@@std@@QAE?AV?$_Array_iterator@M$0GA@@2@XZ PROC ; std::array<float,96>::begin, COMDAT
; _this$ = ecx

; 59   : 		{	// return iterator for beginning of mutable sequence

	npad	2
	push	ebp
	mov	ebp, esp
; File c:\program files (x86)\microsoft visual studio\2017\community\vc\tools\msvc\14.10.25017\include\xutility

; 1567 : 		: _Ptr(_Parg + _Off)

	mov	eax, DWORD PTR ___$ReturnUdt$[ebp]
	mov	DWORD PTR [eax], ecx
; File c:\program files (x86)\microsoft visual studio\2017\community\vc\tools\msvc\14.10.25017\include\array

; 61   : 		}

	pop	ebp
	ret	4
?begin@?$array@M$0GA@@std@@QAE?AV?$_Array_iterator@M$0GA@@2@XZ ENDP ; std::array<float,96>::begin
_TEXT	ENDS
; Function compile flags: /Ogtp
; File c:\users\andon\source\repos\specialk\include\specialk\widgets\widget.h
; File c:\program files (x86)\microsoft visual studio\2017\community\vc\tools\msvc\14.10.25017\include\limits
; File c:\users\andon\source\repos\specialk\include\specialk\widgets\widget.h
; File c:\program files (x86)\microsoft visual studio\2017\community\vc\tools\msvc\14.10.25017\include\limits
; File c:\program files (x86)\microsoft visual studio\2017\community\vc\tools\msvc\14.10.25017\include\xutility
; File c:\users\andon\source\repos\specialk\include\specialk\widgets\widget.h
; File c:\program files (x86)\microsoft visual studio\2017\community\vc\tools\msvc\14.10.25017\include\xutility
; File c:\users\andon\source\repos\specialk\include\specialk\widgets\widget.h
; File c:\program files (x86)\microsoft visual studio\2017\community\vc\tools\msvc\14.10.25017\include\algorithm
; File c:\program files (x86)\microsoft visual studio\2017\community\vc\tools\msvc\14.10.25017\include\xutility
; File c:\users\andon\source\repos\specialk\include\specialk\widgets\widget.h
;	COMDAT ?calcStats@?$SK_Stat_DataHistory@M$0GA@@@IAEXXZ
_TEXT	SEGMENT
?calcStats@?$SK_Stat_DataHistory@M$0GA@@@IAEXXZ PROC	; SK_Stat_DataHistory<float,96>::calcStats, COMDAT
; _this$ = ecx

; 403  :   {

	npad	2
	push	esi
	mov	esi, ecx
	push	edi

; 404  :     if (cached_stats.last_calc != updates)

	mov	edi, DWORD PTR [esi]
	cmp	DWORD PTR [esi+408], edi
	je	$LN5@calcStats
; File c:\program files (x86)\microsoft visual studio\2017\community\vc\tools\msvc\14.10.25017\include\limits

; 1089 : 		return (_FLT_MAX);

	movss	xmm3, DWORD PTR __real@7f7fffff
; File c:\users\andon\source\repos\specialk\include\specialk\widgets\widget.h

; 412  :       for (auto& val : values)

	lea	eax, DWORD PTR [esi+4]
; File c:\program files (x86)\microsoft visual studio\2017\community\vc\tools\msvc\14.10.25017\include\limits

; 1084 : 		return (_FLT_MIN);

	movss	xmm4, DWORD PTR __real@00800000
; File c:\program files (x86)\microsoft visual studio\2017\community\vc\tools\msvc\14.10.25017\include\xutility

; 1567 : 		: _Ptr(_Parg + _Off)

	lea	ecx, DWORD PTR [eax+384]
; File c:\users\andon\source\repos\specialk\include\specialk\widgets\widget.h

; 406  :       int sample =  0;

	xor	edx, edx
	xorps	xmm2, xmm2
; File c:\program files (x86)\microsoft visual studio\2017\community\vc\tools\msvc\14.10.25017\include\xutility

; 1655 : 		return (_Ptr == _Right._Ptr);

	cmp	eax, ecx
; File c:\users\andon\source\repos\specialk\include\specialk\widgets\widget.h

; 412  :       for (auto& val : values)

	je	SHORT $LN57@calcStats
$LL4@calcStats:

; 413  :       {
; 414  :         if (++sample > updates)

	inc	edx
	cmp	edx, edi
	jg	SHORT $LN57@calcStats

; 415  :           break;
; 416  : 
; 417  :         sum += val;

	movss	xmm1, DWORD PTR [eax]
	movaps	xmm0, xmm1
	addss	xmm2, xmm0
; File c:\program files (x86)\microsoft visual studio\2017\community\vc\tools\msvc\14.10.25017\include\algorithm

; 3743 : 	return (_DEBUG_LT(_Left, _Right) ? _Right : _Left);

	comiss	xmm4, xmm1
	ja	SHORT $LN59@calcStats
	movss	xmm4, xmm1
	jmp	SHORT $LN60@calcStats
$LN59@calcStats:
	movss	xmm4, xmm4
$LN60@calcStats:

; 3779 : 	return (_DEBUG_LT(_Right, _Left) ? _Right : _Left);

	comiss	xmm1, xmm3
	ja	SHORT $LN61@calcStats
	movss	xmm3, xmm1
	jmp	SHORT $LN62@calcStats
$LN61@calcStats:
	movss	xmm3, xmm3
$LN62@calcStats:
; File c:\program files (x86)\microsoft visual studio\2017\community\vc\tools\msvc\14.10.25017\include\xutility

; 1596 : 		++_Ptr;

	add	eax, 4

; 1655 : 		return (_Ptr == _Right._Ptr);

	cmp	eax, ecx
; File c:\users\andon\source\repos\specialk\include\specialk\widgets\widget.h

; 412  :       for (auto& val : values)

	jne	SHORT $LL4@calcStats
$LN57@calcStats:
	movd	xmm0, edx

; 418  : 
; 419  :         max = std::max (val, max);
; 420  :         min = std::min (val, min);
; 421  :       }
; 422  : 
; 423  :       cached_stats.avg = sum / sample;

	cvtdq2ps xmm0, xmm0

; 424  :       cached_stats.min = min;
; 425  :       cached_stats.max = max;
; 426  : 
; 427  :       cached_stats.last_calc = updates;

	mov	DWORD PTR [esi+408], edi
	movss	DWORD PTR [esi+396], xmm3
	divss	xmm2, xmm0
	movss	DWORD PTR [esi+400], xmm4
	movss	DWORD PTR [esi+404], xmm2
$LN5@calcStats:

; 428  :     }
; 429  :   }

	pop	edi
	pop	esi
	ret	0
?calcStats@?$SK_Stat_DataHistory@M$0GA@@@IAEXXZ ENDP	; SK_Stat_DataHistory<float,96>::calcStats
_TEXT	ENDS
; Function compile flags: /Ogtp
; File c:\users\andon\source\repos\specialk\include\specialk\widgets\widget.h
;	COMDAT ?getValues@?$SK_Stat_DataHistory@M$0GA@@@QAEAAV?$array@M$0GA@@std@@XZ
_TEXT	SEGMENT
?getValues@?$SK_Stat_DataHistory@M$0GA@@@QAEAAV?$array@M$0GA@@std@@XZ PROC ; SK_Stat_DataHistory<float,96>::getValues, COMDAT
; _this$ = ecx

; 393  :   std::array <_T, max_samples>& getValues (void) { return values;        };

	lea	eax, DWORD PTR [ecx+4]
	ret	0
?getValues@?$SK_Stat_DataHistory@M$0GA@@@QAEAAV?$array@M$0GA@@std@@XZ ENDP ; SK_Stat_DataHistory<float,96>::getValues
_TEXT	ENDS
; Function compile flags: /Ogtp
; File c:\users\andon\source\repos\specialk\include\specialk\widgets\widget.h
;	COMDAT ?getOffset@?$SK_Stat_DataHistory@M$0GA@@@QAEHXZ
_TEXT	SEGMENT
?getOffset@?$SK_Stat_DataHistory@M$0GA@@@QAEHXZ PROC	; SK_Stat_DataHistory<float,96>::getOffset, COMDAT
; _this$ = ecx

; 392  :   int                           getOffset (void) { return values_offset; };

	mov	eax, DWORD PTR [ecx+388]
	ret	0
?getOffset@?$SK_Stat_DataHistory@M$0GA@@@QAEHXZ ENDP	; SK_Stat_DataHistory<float,96>::getOffset
_TEXT	ENDS
; Function compile flags: /Ogtp
; File c:\users\andon\source\repos\specialk\include\specialk\widgets\widget.h
;	COMDAT ?getAvg@?$SK_Stat_DataHistory@M$0GA@@@QAEMXZ
_TEXT	SEGMENT
?getAvg@?$SK_Stat_DataHistory@M$0GA@@@QAEMXZ PROC	; SK_Stat_DataHistory<float,96>::getAvg, COMDAT
; _this$ = ecx

; 384  :   {

	npad	2
	push	esi
	mov	esi, ecx

; 385  :     calcStats ();

	call	?calcStats@?$SK_Stat_DataHistory@M$0GA@@@IAEXXZ ; SK_Stat_DataHistory<float,96>::calcStats

; 386  : 
; 387  :     return cached_stats.avg;

	fld	DWORD PTR [esi+404]
	pop	esi

; 388  :   }

	ret	0
?getAvg@?$SK_Stat_DataHistory@M$0GA@@@QAEMXZ ENDP	; SK_Stat_DataHistory<float,96>::getAvg
_TEXT	ENDS
; Function compile flags: /Ogtp
; File c:\users\andon\source\repos\specialk\include\specialk\widgets\widget.h
;	COMDAT ?getMax@?$SK_Stat_DataHistory@M$0GA@@@QAEMXZ
_TEXT	SEGMENT
?getMax@?$SK_Stat_DataHistory@M$0GA@@@QAEMXZ PROC	; SK_Stat_DataHistory<float,96>::getMax, COMDAT
; _this$ = ecx

; 377  :   {

	npad	2
	push	esi
	mov	esi, ecx

; 378  :     calcStats ();

	call	?calcStats@?$SK_Stat_DataHistory@M$0GA@@@IAEXXZ ; SK_Stat_DataHistory<float,96>::calcStats

; 379  : 
; 380  :     return cached_stats.max;

	fld	DWORD PTR [esi+400]
	pop	esi

; 381  :   }

	ret	0
?getMax@?$SK_Stat_DataHistory@M$0GA@@@QAEMXZ ENDP	; SK_Stat_DataHistory<float,96>::getMax
_TEXT	ENDS
; Function compile flags: /Ogtp
; File c:\users\andon\source\repos\specialk\include\specialk\widgets\widget.h
;	COMDAT ?getMin@?$SK_Stat_DataHistory@M$0GA@@@QAEMXZ
_TEXT	SEGMENT
?getMin@?$SK_Stat_DataHistory@M$0GA@@@QAEMXZ PROC	; SK_Stat_DataHistory<float,96>::getMin, COMDAT
; _this$ = ecx

; 370  :   {

	npad	2
	push	esi
	mov	esi, ecx

; 371  :     calcStats ();

	call	?calcStats@?$SK_Stat_DataHistory@M$0GA@@@IAEXXZ ; SK_Stat_DataHistory<float,96>::calcStats

; 372  : 
; 373  :     return cached_stats.min;

	fld	DWORD PTR [esi+396]
	pop	esi

; 374  :   }

	ret	0
?getMin@?$SK_Stat_DataHistory@M$0GA@@@QAEMXZ ENDP	; SK_Stat_DataHistory<float,96>::getMin
_TEXT	ENDS
; Function compile flags: /Ogtp
; File c:\users\andon\source\repos\specialk\include\specialk\widgets\widget.h
;	COMDAT ?addValue@?$SK_Stat_DataHistory@M$0GA@@@QAEXM_N@Z
_TEXT	SEGMENT
_val$ = 8						; size = 4
_only_if_different$ = 12				; size = 1
?addValue@?$SK_Stat_DataHistory@M$0GA@@@QAEXM_N@Z PROC	; SK_Stat_DataHistory<float,96>::addValue, COMDAT
; _this$ = ecx

; 348  :   {

	npad	2
	push	ebp
	mov	ebp, esp

; 349  :     bool insert = (! only_if_different) || (last_val != val);

	cmp	BYTE PTR _only_if_different$[ebp], 0
	movss	xmm1, DWORD PTR _val$[ebp]
	je	SHORT $LN4@addValue
	movss	xmm0, DWORD PTR [ecx+392]
	ucomiss	xmm0, xmm1
	lahf
	test	ah, 68					; 00000044H
	jnp	SHORT $LN2@addValue
$LN4@addValue:

; 350  : 
; 351  :     if (insert)
; 352  :     {
; 353  :       values [values_offset] = val;

	mov	eax, DWORD PTR [ecx+388]
	push	esi

; 354  :               values_offset  = (values_offset + 1) % getCapacity ();

	mov	esi, 96					; 00000060H
	movss	DWORD PTR [ecx+eax*4+4], xmm1
	mov	eax, DWORD PTR [ecx+388]
	inc	eax

; 355  : 
; 356  :       ++updates;
; 357  : 
; 358  :       last_val = val;

	movss	DWORD PTR [ecx+392], xmm1
	cdq
	idiv	esi
	inc	DWORD PTR [ecx]
	mov	DWORD PTR [ecx+388], edx
	pop	esi
$LN2@addValue:

; 359  :     }
; 360  :   }

	pop	ebp
	ret	8
?addValue@?$SK_Stat_DataHistory@M$0GA@@@QAEXM_N@Z ENDP	; SK_Stat_DataHistory<float,96>::addValue
_TEXT	ENDS
; Function compile flags: /Ogtp
; File c:\users\andon\source\repos\specialk\include\specialk\widgets\widget.h
;	COMDAT ?getUpdates@?$SK_Stat_DataHistory@M$0GA@@@QAEHXZ
_TEXT	SEGMENT
?getUpdates@?$SK_Stat_DataHistory@M$0GA@@@QAEHXZ PROC	; SK_Stat_DataHistory<float,96>::getUpdates, COMDAT
; _this$ = ecx

; 334  :     return updates;

	mov	eax, DWORD PTR [ecx]

; 335  :   }

	ret	0
?getUpdates@?$SK_Stat_DataHistory@M$0GA@@@QAEHXZ ENDP	; SK_Stat_DataHistory<float,96>::getUpdates
_TEXT	ENDS
; Function compile flags: /Ogtp
; File c:\users\andon\source\repos\specialk\include\specialk\widgets\widget.h
;	COMDAT ?getCapacity@?$SK_Stat_DataHistory@M$0GA@@@QAEHXZ
_TEXT	SEGMENT
?getCapacity@?$SK_Stat_DataHistory@M$0GA@@@QAEHXZ PROC	; SK_Stat_DataHistory<float,96>::getCapacity, COMDAT
; _this$ = ecx

; 329  :     return max_samples;

	mov	eax, 96					; 00000060H

; 330  :   };

	ret	0
?getCapacity@?$SK_Stat_DataHistory@M$0GA@@@QAEHXZ ENDP	; SK_Stat_DataHistory<float,96>::getCapacity
_TEXT	ENDS
; Function compile flags: /Ogtp
; File c:\users\andon\source\repos\specialk\src\widgets\gpu_widget.cpp
;	COMDAT ?OnConfig@SKWG_GPU_Monitor@@UAEXW4ConfigEvent@SK_Widget@@@Z
_TEXT	SEGMENT
_event$ = 8						; size = 4
?OnConfig@SKWG_GPU_Monitor@@UAEXW4ConfigEvent@SK_Widget@@@Z PROC ; SKWG_GPU_Monitor::OnConfig, COMDAT
; _this$ = ecx

; 231  :     switch (event)
; 232  :     {
; 233  :       case SK_Widget::ConfigEvent::LoadComplete:
; 234  :         break;
; 235  : 
; 236  :       case SK_Widget::ConfigEvent::SaveStart:
; 237  :         break;
; 238  :     }
; 239  :   }

	ret	4
?OnConfig@SKWG_GPU_Monitor@@UAEXW4ConfigEvent@SK_Widget@@@Z ENDP ; SKWG_GPU_Monitor::OnConfig
_TEXT	ENDS
; Function compile flags: /Ogtp
; File c:\users\andon\source\repos\specialk\src\widgets\gpu_widget.cpp
; File c:\users\andon\source\repos\specialk\include\specialk\widgets\widget.h
; File c:\users\andon\source\repos\specialk\src\widgets\gpu_widget.cpp
; File c:\users\andon\source\repos\specialk\include\specialk\widgets\widget.h
; File c:\users\andon\source\repos\specialk\src\widgets\gpu_widget.cpp
; File c:\users\andon\source\repos\specialk\include\specialk\widgets\widget.h
; File c:\users\andon\source\repos\specialk\src\widgets\gpu_widget.cpp
; File c:\users\andon\source\repos\specialk\include\imgui\imgui.h
; File c:\users\andon\source\repos\specialk\src\widgets\gpu_widget.cpp
; File c:\users\andon\source\repos\specialk\include\imgui\imgui.h
; File c:\users\andon\source\repos\specialk\src\widgets\gpu_widget.cpp
; File c:\users\andon\source\repos\specialk\include\imgui\imgui.h
; File c:\users\andon\source\repos\specialk\src\widgets\gpu_widget.cpp
; File c:\users\andon\source\repos\specialk\include\imgui\imgui.h
; File c:\users\andon\source\repos\specialk\src\widgets\gpu_widget.cpp
; File c:\users\andon\source\repos\specialk\include\imgui\imgui.h
; File c:\users\andon\source\repos\specialk\src\widgets\gpu_widget.cpp
; File c:\users\andon\source\repos\specialk\include\imgui\imgui.h
; File c:\users\andon\source\repos\specialk\src\widgets\gpu_widget.cpp
; File c:\users\andon\source\repos\specialk\include\imgui\imgui.h
; File c:\users\andon\source\repos\specialk\src\widgets\gpu_widget.cpp
; File c:\users\andon\source\repos\specialk\include\imgui\imgui.h
; File c:\users\andon\source\repos\specialk\src\widgets\gpu_widget.cpp
; File c:\users\andon\source\repos\specialk\include\imgui\imgui.h
; File c:\users\andon\source\repos\specialk\src\widgets\gpu_widget.cpp
; File c:\program files (x86)\microsoft visual studio\2017\community\vc\tools\msvc\14.10.25017\include\array
; File c:\users\andon\source\repos\specialk\src\widgets\gpu_widget.cpp
; File c:\users\andon\source\repos\specialk\include\specialk\widgets\widget.h
; File c:\users\andon\source\repos\specialk\src\widgets\gpu_widget.cpp
; File c:\users\andon\source\repos\specialk\include\specialk\widgets\widget.h
; File c:\users\andon\source\repos\specialk\src\widgets\gpu_widget.cpp
; File c:\users\andon\source\repos\specialk\include\specialk\widgets\widget.h
; File c:\users\andon\source\repos\specialk\src\widgets\gpu_widget.cpp
; File c:\users\andon\source\repos\specialk\include\imgui\imgui.h
; File c:\users\andon\source\repos\specialk\src\widgets\gpu_widget.cpp
; File c:\users\andon\source\repos\specialk\include\imgui\imgui.h
; File c:\users\andon\source\repos\specialk\src\widgets\gpu_widget.cpp
; File c:\users\andon\source\repos\specialk\include\imgui\imgui.h
; File c:\users\andon\source\repos\specialk\src\widgets\gpu_widget.cpp
; File c:\users\andon\source\repos\specialk\include\imgui\imgui.h
; File c:\users\andon\source\repos\specialk\src\widgets\gpu_widget.cpp
; File c:\users\andon\source\repos\specialk\include\imgui\imgui.h
; File c:\users\andon\source\repos\specialk\src\widgets\gpu_widget.cpp
; File c:\users\andon\source\repos\specialk\include\imgui\imgui.h
; File c:\users\andon\source\repos\specialk\src\widgets\gpu_widget.cpp
; File c:\users\andon\source\repos\specialk\include\imgui\imgui.h
; File c:\users\andon\source\repos\specialk\src\widgets\gpu_widget.cpp
; File c:\program files (x86)\microsoft visual studio\2017\community\vc\tools\msvc\14.10.25017\include\array
; File c:\users\andon\source\repos\specialk\src\widgets\gpu_widget.cpp
; File c:\users\andon\source\repos\specialk\include\imgui\imgui.h
; File c:\users\andon\source\repos\specialk\src\widgets\gpu_widget.cpp
; File c:\users\andon\source\repos\specialk\include\imgui\imgui.h
; File c:\users\andon\source\repos\specialk\src\widgets\gpu_widget.cpp
; File c:\users\andon\source\repos\specialk\include\imgui\imgui.h
; File c:\users\andon\source\repos\specialk\src\widgets\gpu_widget.cpp
; File c:\users\andon\source\repos\specialk\include\specialk\widgets\widget.h
; File c:\users\andon\source\repos\specialk\src\widgets\gpu_widget.cpp
; File c:\users\andon\source\repos\specialk\include\imgui\imgui.h
; File c:\users\andon\source\repos\specialk\include\specialk\widgets\widget.h
; File c:\users\andon\source\repos\specialk\include\imgui\imgui.h
; File c:\users\andon\source\repos\specialk\include\specialk\widgets\widget.h
; File c:\users\andon\source\repos\specialk\src\widgets\gpu_widget.cpp
; File c:\program files (x86)\microsoft visual studio\2017\community\vc\tools\msvc\14.10.25017\include\array
; File c:\users\andon\source\repos\specialk\src\widgets\gpu_widget.cpp
; File c:\users\andon\source\repos\specialk\include\specialk\widgets\widget.h
; File c:\users\andon\source\repos\specialk\src\widgets\gpu_widget.cpp
; File c:\users\andon\source\repos\specialk\include\imgui\imgui.h
; File c:\users\andon\source\repos\specialk\include\specialk\widgets\widget.h
; File c:\users\andon\source\repos\specialk\include\imgui\imgui.h
; File c:\users\andon\source\repos\specialk\include\specialk\widgets\widget.h
; File c:\users\andon\source\repos\specialk\src\widgets\gpu_widget.cpp
; File c:\program files (x86)\microsoft visual studio\2017\community\vc\tools\msvc\14.10.25017\include\array
; File c:\users\andon\source\repos\specialk\src\widgets\gpu_widget.cpp
; File c:\users\andon\source\repos\specialk\include\specialk\widgets\widget.h
; File c:\users\andon\source\repos\specialk\src\widgets\gpu_widget.cpp
; File c:\users\andon\source\repos\specialk\include\specialk\widgets\widget.h
; File c:\users\andon\source\repos\specialk\src\widgets\gpu_widget.cpp
; File c:\users\andon\source\repos\specialk\include\specialk\widgets\widget.h
; File c:\users\andon\source\repos\specialk\src\widgets\gpu_widget.cpp
; File c:\users\andon\source\repos\specialk\include\imgui\imgui.h
; File c:\users\andon\source\repos\specialk\src\widgets\gpu_widget.cpp
; File c:\users\andon\source\repos\specialk\include\imgui\imgui.h
; File c:\users\andon\source\repos\specialk\src\widgets\gpu_widget.cpp
; File c:\users\andon\source\repos\specialk\include\imgui\imgui.h
; File c:\users\andon\source\repos\specialk\src\widgets\gpu_widget.cpp
; File c:\users\andon\source\repos\specialk\include\imgui\imgui.h
; File c:\users\andon\source\repos\specialk\src\widgets\gpu_widget.cpp
; File c:\users\andon\source\repos\specialk\include\imgui\imgui.h
; File c:\users\andon\source\repos\specialk\src\widgets\gpu_widget.cpp
; File c:\users\andon\source\repos\specialk\include\imgui\imgui.h
; File c:\users\andon\source\repos\specialk\src\widgets\gpu_widget.cpp
; File c:\users\andon\source\repos\specialk\include\imgui\imgui.h
; File c:\users\andon\source\repos\specialk\src\widgets\gpu_widget.cpp
; File c:\users\andon\source\repos\specialk\include\imgui\imgui.h
; File c:\users\andon\source\repos\specialk\src\widgets\gpu_widget.cpp
; File c:\program files (x86)\microsoft visual studio\2017\community\vc\tools\msvc\14.10.25017\include\array
; File c:\users\andon\source\repos\specialk\src\widgets\gpu_widget.cpp
;	COMDAT ?draw@SKWG_GPU_Monitor@@UAEXXZ
_TEXT	SEGMENT
_szAvg$ = -568						; size = 512
$T1 = -56						; size = 16
$T2 = -56						; size = 16
$T3 = -56						; size = 16
$T4 = -40						; size = 16
$T5 = -32						; size = 8
$T6 = -32						; size = 8
$T7 = -32						; size = 8
$T8 = -32						; size = 8
_samples$1$ = -28					; size = 4
_font_size$1$ = -24					; size = 4
$T9 = -20						; size = 4
_b$10 = -20						; size = 4
_b$11 = -20						; size = 4
_b$12 = -20						; size = 4
_r$13 = -20						; size = 4
_capacity_in_mib$1$ = -16				; size = 4
$T14 = -16						; size = 4
$T15 = -16						; size = 4
_g$16 = -16						; size = 4
$T17 = -12						; size = 8
$T18 = -8						; size = 4
$T19 = -8						; size = 4
$T20 = -8						; size = 4
$T21 = -8						; size = 4
$T22 = -8						; size = 4
$T23 = -8						; size = 4
$T24 = -8						; size = 4
_r$25 = -8						; size = 4
_r$26 = -8						; size = 4
_r$27 = -8						; size = 4
$T28 = -4						; size = 4
$T29 = -4						; size = 4
$T30 = -4						; size = 4
$T31 = -4						; size = 4
$T32 = -4						; size = 4
_g$33 = -4						; size = 4
_g$34 = -4						; size = 4
_g$35 = -4						; size = 4
_b$36 = -4						; size = 4
?draw@SKWG_GPU_Monitor@@UAEXXZ PROC			; SKWG_GPU_Monitor::draw, COMDAT
; _this$ = ecx

; 73   :   {

	npad	2
	push	ebp
	mov	ebp, esp
	sub	esp, 568				; 00000238H
	push	esi
	push	edi
	mov	edi, ecx

; 74   :     const  float font_size           =             ImGui::GetFont  ()->FontSize                        ;//* scale;

	call	?GetFont@ImGui@@YAPAUImFont@@XZ		; ImGui::GetFont
	movss	xmm0, DWORD PTR [eax]
	movss	DWORD PTR _font_size$1$[ebp], xmm0

; 75   :     const  float font_size_multiline = font_size + ImGui::GetStyle ().ItemSpacing.y + ImGui::GetStyle ().ItemInnerSpacing.y;

	call	?GetStyle@ImGui@@YAAAUImGuiStyle@@XZ	; ImGui::GetStyle
	call	?GetStyle@ImGui@@YAAAUImGuiStyle@@XZ	; ImGui::GetStyle

; 76   : 
; 77   :     char szAvg  [512] = { };

	push	512					; 00000200H
	lea	eax, DWORD PTR _szAvg$[ebp]
	push	0
	push	eax
	call	_memset
	add	esp, 12					; 0000000cH

; 79   :     sprintf_s

	lea	esi, DWORD PTR [edi+1088]
; File c:\users\andon\source\repos\specialk\include\specialk\widgets\widget.h

; 385  :     calcStats ();

	mov	ecx, esi
	call	?calcStats@?$SK_Stat_DataHistory@M$0GA@@@IAEXXZ ; SK_Stat_DataHistory<float,96>::calcStats

; 386  : 
; 387  :     return cached_stats.avg;

	movss	xmm0, DWORD PTR [esi+404]

; 378  :     calcStats ();

	mov	ecx, esi

; 387  :     return cached_stats.avg;

	movss	DWORD PTR $T15[ebp], xmm0

; 378  :     calcStats ();

	call	?calcStats@?$SK_Stat_DataHistory@M$0GA@@@IAEXXZ ; SK_Stat_DataHistory<float,96>::calcStats

; 379  : 
; 380  :     return cached_stats.max;

	movss	xmm0, DWORD PTR [esi+400]

; 371  :     calcStats ();

	mov	ecx, esi

; 380  :     return cached_stats.max;

	movss	DWORD PTR $T9[ebp], xmm0

; 371  :     calcStats ();

	call	?calcStats@?$SK_Stat_DataHistory@M$0GA@@@IAEXXZ ; SK_Stat_DataHistory<float,96>::calcStats
	movss	xmm0, DWORD PTR $T15[ebp]
; File c:\users\andon\source\repos\specialk\src\widgets\gpu_widget.cpp

; 79   :     sprintf_s

	lea	eax, DWORD PTR _szAvg$[ebp]
	cvtps2pd xmm0, xmm0
	sub	esp, 24					; 00000018H
	movsd	QWORD PTR [esp+16], xmm0
	movss	xmm0, DWORD PTR $T9[ebp]
	cvtps2pd xmm0, xmm0
	movsd	QWORD PTR [esp+8], xmm0
	movss	xmm0, DWORD PTR [esi+396]
	cvtps2pd xmm0, xmm0
	movsd	QWORD PTR [esp], xmm0
	push	0
	push	OFFSET ??_C@_0EG@NDKAAPJL@GPU?$CFlu?5Load?5?$CF?$CF?3?6?6?6?5?5?5?5?5?5?5?5?5?5min?3@
	push	512					; 00000200H
	push	eax
	call	_sprintf_s
	movd	xmm0, DWORD PTR [esi]
	add	esp, 40					; 00000028H

; 89   :       std::min ( (float)gpu_load.getUpdates  (),

	cvtdq2ps xmm0, xmm0
; File c:\users\andon\source\repos\specialk\include\specialk\widgets\widget.h

; 385  :     calcStats ();

	mov	ecx, esi
; File c:\users\andon\source\repos\specialk\src\widgets\gpu_widget.cpp

; 89   :       std::min ( (float)gpu_load.getUpdates  (),

	movss	DWORD PTR $T24[ebp], xmm0
; File c:\users\andon\source\repos\specialk\include\specialk\widgets\widget.h

; 385  :     calcStats ();

	call	?calcStats@?$SK_Stat_DataHistory@M$0GA@@@IAEXXZ ; SK_Stat_DataHistory<float,96>::calcStats
; File c:\users\andon\source\repos\specialk\src\widgets\gpu_widget.cpp

; 92   :     ImGui::PushStyleColor ( ImGuiCol_PlotLines, 

	movss	xmm1, DWORD PTR [esi+404]
; File c:\users\andon\source\repos\specialk\include\imgui\imgui.h

; 1133 :     static ImColor HSV(float h, float s, float v, float a = 1.0f)   { float r,g,b; ImGui::ColorConvertHSVtoRGB(h, s, v, r, g, b); return ImColor(r,g,b,a); }

	lea	eax, DWORD PTR _b$36[ebp]
; File c:\users\andon\source\repos\specialk\src\widgets\gpu_widget.cpp

; 92   :     ImGui::PushStyleColor ( ImGuiCol_PlotLines, 

	mulss	xmm1, DWORD PTR __real@3c23d70a
; File c:\users\andon\source\repos\specialk\include\imgui\imgui.h

; 1133 :     static ImColor HSV(float h, float s, float v, float a = 1.0f)   { float r,g,b; ImGui::ColorConvertHSVtoRGB(h, s, v, r, g, b); return ImColor(r,g,b,a); }

	push	eax
; File c:\users\andon\source\repos\specialk\src\widgets\gpu_widget.cpp

; 92   :     ImGui::PushStyleColor ( ImGuiCol_PlotLines, 

	movss	xmm0, DWORD PTR __real@3e9eb852
; File c:\users\andon\source\repos\specialk\include\imgui\imgui.h

; 1133 :     static ImColor HSV(float h, float s, float v, float a = 1.0f)   { float r,g,b; ImGui::ColorConvertHSVtoRGB(h, s, v, r, g, b); return ImColor(r,g,b,a); }

	lea	eax, DWORD PTR _g$16[ebp]
	push	eax
	minss	xmm1, DWORD PTR __real@3f800000
	lea	eax, DWORD PTR _r$13[ebp]
	push	eax
	sub	esp, 12					; 0000000cH
; File c:\users\andon\source\repos\specialk\src\widgets\gpu_widget.cpp

; 92   :     ImGui::PushStyleColor ( ImGuiCol_PlotLines, 

	mulss	xmm1, xmm0
; File c:\users\andon\source\repos\specialk\include\imgui\imgui.h

; 1133 :     static ImColor HSV(float h, float s, float v, float a = 1.0f)   { float r,g,b; ImGui::ColorConvertHSVtoRGB(h, s, v, r, g, b); return ImColor(r,g,b,a); }

	mov	DWORD PTR [esp+8], 1064514355		; 3f733333H
	mov	DWORD PTR [esp+4], 1063004406		; 3f5c28f6H
; File c:\users\andon\source\repos\specialk\src\widgets\gpu_widget.cpp

; 92   :     ImGui::PushStyleColor ( ImGuiCol_PlotLines, 

	subss	xmm0, xmm1
; File c:\users\andon\source\repos\specialk\include\imgui\imgui.h

; 1133 :     static ImColor HSV(float h, float s, float v, float a = 1.0f)   { float r,g,b; ImGui::ColorConvertHSVtoRGB(h, s, v, r, g, b); return ImColor(r,g,b,a); }

	movss	DWORD PTR [esp], xmm0
	call	?ColorConvertHSVtoRGB@ImGui@@YAXMMMAAM00@Z ; ImGui::ColorConvertHSVtoRGB

; 1129 :     inline operator ImVec4() const                                  { return Value; }

	movss	xmm0, DWORD PTR _r$13[ebp]
; File c:\users\andon\source\repos\specialk\src\widgets\gpu_widget.cpp

; 92   :     ImGui::PushStyleColor ( ImGuiCol_PlotLines, 

	lea	eax, DWORD PTR $T4[ebp]
; File c:\users\andon\source\repos\specialk\include\imgui\imgui.h

; 1129 :     inline operator ImVec4() const                                  { return Value; }

	movss	DWORD PTR $T4[ebp], xmm0
	movss	xmm0, DWORD PTR _g$16[ebp]
	movss	DWORD PTR $T4[ebp+4], xmm0
	movss	xmm0, DWORD PTR _b$36[ebp]
; File c:\users\andon\source\repos\specialk\src\widgets\gpu_widget.cpp

; 92   :     ImGui::PushStyleColor ( ImGuiCol_PlotLines, 

	push	eax
	push	37					; 00000025H
; File c:\users\andon\source\repos\specialk\include\imgui\imgui.h

; 1129 :     inline operator ImVec4() const                                  { return Value; }

	movss	DWORD PTR $T4[ebp+8], xmm0
	mov	DWORD PTR $T4[ebp+12], 1065353216	; 3f800000H
; File c:\users\andon\source\repos\specialk\src\widgets\gpu_widget.cpp

; 92   :     ImGui::PushStyleColor ( ImGuiCol_PlotLines, 

	call	?PushStyleColor@ImGui@@YAXHABUImVec4@@@Z ; ImGui::PushStyleColor
	add	esp, 32					; 00000020H

; 98   :     ImGui::PlotLinesC ( "###GPU_LoadPercent",

	call	?GetContentRegionAvailWidth@ImGui@@YAMXZ ; ImGui::GetContentRegionAvailWidth
	movss	xmm0, DWORD PTR _font_size$1$[ebp]
	mulss	xmm0, DWORD PTR __real@40900000
; File c:\users\andon\source\repos\specialk\include\imgui\imgui.h

; 98   :     ImVec2(float _x, float _y) { x = _x; y = _y; }

	fstp	DWORD PTR $T8[ebp]
; File c:\users\andon\source\repos\specialk\src\widgets\gpu_widget.cpp

; 98   :     ImGui::PlotLinesC ( "###GPU_LoadPercent",

	movss	DWORD PTR _font_size$1$[ebp], xmm0
	push	0
	sub	esp, 12					; 0000000cH
; File c:\users\andon\source\repos\specialk\include\imgui\imgui.h

; 98   :     ImVec2(float _x, float _y) { x = _x; y = _y; }

	movss	DWORD PTR $T8[ebp+4], xmm0
	movss	xmm0, DWORD PTR $T24[ebp]
; File c:\users\andon\source\repos\specialk\src\widgets\gpu_widget.cpp

; 98   :     ImGui::PlotLinesC ( "###GPU_LoadPercent",

	lea	eax, DWORD PTR _szAvg$[ebp]
	minss	xmm0, DWORD PTR __real@42c00000
	mov	DWORD PTR [esp+8], 0
	mov	DWORD PTR [esp+4], 0
	mov	DWORD PTR [esp], 0
	push	4
	push	DWORD PTR $T8[ebp+4]
	push	DWORD PTR $T8[ebp]
	sub	esp, 8
	mov	DWORD PTR [esp+4], 1120403456		; 42c80000H
	mov	DWORD PTR [esp], 0
	push	eax
	push	DWORD PTR [edi+1476]
	cvttss2si eax, xmm0
	push	eax
; File c:\program files (x86)\microsoft visual studio\2017\community\vc\tools\msvc\14.10.25017\include\array

; 207  : 		return (_Elems);

	lea	eax, DWORD PTR [edi+1092]
; File c:\users\andon\source\repos\specialk\src\widgets\gpu_widget.cpp

; 98   :     ImGui::PlotLinesC ( "###GPU_LoadPercent",

	push	eax
	push	OFFSET ??_C@_0BD@GCENCMFL@?$CD?$CD?$CDGPU_LoadPercent?$AA@
	call	?PlotLinesC@ImGui@@YAXPBDPBMHH0MMUImVec2@@HMMM_N@Z ; ImGui::PlotLinesC
	add	esp, 56					; 00000038H

; 108  :     sprintf_s

	lea	esi, DWORD PTR [edi+1500]
; File c:\users\andon\source\repos\specialk\include\specialk\widgets\widget.h

; 385  :     calcStats ();

	mov	ecx, esi
	call	?calcStats@?$SK_Stat_DataHistory@M$0GA@@@IAEXXZ ; SK_Stat_DataHistory<float,96>::calcStats

; 386  : 
; 387  :     return cached_stats.avg;

	movss	xmm0, DWORD PTR [esi+404]

; 378  :     calcStats ();

	mov	ecx, esi

; 387  :     return cached_stats.avg;

	movss	DWORD PTR $T23[ebp], xmm0

; 378  :     calcStats ();

	call	?calcStats@?$SK_Stat_DataHistory@M$0GA@@@IAEXXZ ; SK_Stat_DataHistory<float,96>::calcStats

; 379  : 
; 380  :     return cached_stats.max;

	movss	xmm0, DWORD PTR [esi+400]

; 371  :     calcStats ();

	mov	ecx, esi

; 380  :     return cached_stats.max;

	movss	DWORD PTR $T32[ebp], xmm0

; 371  :     calcStats ();

	call	?calcStats@?$SK_Stat_DataHistory@M$0GA@@@IAEXXZ ; SK_Stat_DataHistory<float,96>::calcStats
	movss	xmm0, DWORD PTR $T23[ebp]
; File c:\users\andon\source\repos\specialk\src\widgets\gpu_widget.cpp

; 108  :     sprintf_s

	lea	eax, DWORD PTR _szAvg$[ebp]
	cvtps2pd xmm0, xmm0
	sub	esp, 24					; 00000018H
	movsd	QWORD PTR [esp+16], xmm0
	movss	xmm0, DWORD PTR $T32[ebp]
	cvtps2pd xmm0, xmm0
	movsd	QWORD PTR [esp+8], xmm0
	movss	xmm0, DWORD PTR [esi+396]
	cvtps2pd xmm0, xmm0
	movsd	QWORD PTR [esp], xmm0
	push	0
	push	OFFSET ??_C@_0EJ@IJKLDOJK@GPU?$CFlu?5Temp?5?$CI?B?$LAC?$CJ?3?6?6?6?5?5?5?5?5?5?5?5?5?5m@
	push	512					; 00000200H
	push	eax
	call	_sprintf_s
	movd	xmm0, DWORD PTR [esi]
	add	esp, 40					; 00000028H

; 117  :     samples = 

	cvtdq2ps xmm0, xmm0
; File c:\users\andon\source\repos\specialk\include\specialk\widgets\widget.h

; 385  :     calcStats ();

	mov	ecx, esi
; File c:\users\andon\source\repos\specialk\src\widgets\gpu_widget.cpp

; 117  :     samples = 

	movss	DWORD PTR $T14[ebp], xmm0
; File c:\users\andon\source\repos\specialk\include\specialk\widgets\widget.h

; 385  :     calcStats ();

	call	?calcStats@?$SK_Stat_DataHistory@M$0GA@@@IAEXXZ ; SK_Stat_DataHistory<float,96>::calcStats
; File c:\users\andon\source\repos\specialk\src\widgets\gpu_widget.cpp

; 121  :     ImGui::PushStyleColor ( ImGuiCol_PlotLines, 

	movss	xmm1, DWORD PTR [esi+404]
; File c:\users\andon\source\repos\specialk\include\imgui\imgui.h

; 1133 :     static ImColor HSV(float h, float s, float v, float a = 1.0f)   { float r,g,b; ImGui::ColorConvertHSVtoRGB(h, s, v, r, g, b); return ImColor(r,g,b,a); }

	lea	eax, DWORD PTR _b$12[ebp]
; File c:\users\andon\source\repos\specialk\src\widgets\gpu_widget.cpp

; 121  :     ImGui::PushStyleColor ( ImGuiCol_PlotLines, 

	mulss	xmm1, DWORD PTR __real@3c23d70a
; File c:\users\andon\source\repos\specialk\include\imgui\imgui.h

; 1133 :     static ImColor HSV(float h, float s, float v, float a = 1.0f)   { float r,g,b; ImGui::ColorConvertHSVtoRGB(h, s, v, r, g, b); return ImColor(r,g,b,a); }

	push	eax
; File c:\users\andon\source\repos\specialk\src\widgets\gpu_widget.cpp

; 121  :     ImGui::PushStyleColor ( ImGuiCol_PlotLines, 

	movss	xmm0, DWORD PTR __real@3e9eb852
; File c:\users\andon\source\repos\specialk\include\imgui\imgui.h

; 1133 :     static ImColor HSV(float h, float s, float v, float a = 1.0f)   { float r,g,b; ImGui::ColorConvertHSVtoRGB(h, s, v, r, g, b); return ImColor(r,g,b,a); }

	lea	eax, DWORD PTR _g$35[ebp]
	push	eax
	minss	xmm1, DWORD PTR __real@3f800000
	lea	eax, DWORD PTR _r$27[ebp]
	push	eax
	sub	esp, 12					; 0000000cH
; File c:\users\andon\source\repos\specialk\src\widgets\gpu_widget.cpp

; 121  :     ImGui::PushStyleColor ( ImGuiCol_PlotLines, 

	mulss	xmm1, xmm0
; File c:\users\andon\source\repos\specialk\include\imgui\imgui.h

; 1133 :     static ImColor HSV(float h, float s, float v, float a = 1.0f)   { float r,g,b; ImGui::ColorConvertHSVtoRGB(h, s, v, r, g, b); return ImColor(r,g,b,a); }

	mov	DWORD PTR [esp+8], 1064514355		; 3f733333H
	mov	DWORD PTR [esp+4], 1063004406		; 3f5c28f6H
; File c:\users\andon\source\repos\specialk\src\widgets\gpu_widget.cpp

; 121  :     ImGui::PushStyleColor ( ImGuiCol_PlotLines, 

	subss	xmm0, xmm1
; File c:\users\andon\source\repos\specialk\include\imgui\imgui.h

; 1133 :     static ImColor HSV(float h, float s, float v, float a = 1.0f)   { float r,g,b; ImGui::ColorConvertHSVtoRGB(h, s, v, r, g, b); return ImColor(r,g,b,a); }

	movss	DWORD PTR [esp], xmm0
	call	?ColorConvertHSVtoRGB@ImGui@@YAXMMMAAM00@Z ; ImGui::ColorConvertHSVtoRGB

; 1129 :     inline operator ImVec4() const                                  { return Value; }

	movss	xmm0, DWORD PTR _r$27[ebp]
	movss	DWORD PTR $T3[ebp], xmm0
	movss	xmm0, DWORD PTR _g$35[ebp]
	movss	DWORD PTR $T3[ebp+4], xmm0
	movss	xmm0, DWORD PTR _b$12[ebp]
	movss	DWORD PTR $T3[ebp+8], xmm0
	mov	DWORD PTR $T3[ebp+12], 1065353216	; 3f800000H
; File c:\users\andon\source\repos\specialk\src\widgets\gpu_widget.cpp

; 121  :     ImGui::PushStyleColor ( ImGuiCol_PlotLines, 

	lea	eax, DWORD PTR $T3[ebp]
	push	eax
	push	37					; 00000025H
	call	?PushStyleColor@ImGui@@YAXHABUImVec4@@@Z ; ImGui::PushStyleColor
	add	esp, 32					; 00000020H

; 127  :     ImGui::PlotLinesC ( "###GPU_TempC",

	call	?GetContentRegionAvailWidth@ImGui@@YAMXZ ; ImGui::GetContentRegionAvailWidth
; File c:\users\andon\source\repos\specialk\include\imgui\imgui.h

; 98   :     ImVec2(float _x, float _y) { x = _x; y = _y; }

	movss	xmm0, DWORD PTR _font_size$1$[ebp]
; File c:\users\andon\source\repos\specialk\src\widgets\gpu_widget.cpp

; 127  :     ImGui::PlotLinesC ( "###GPU_TempC",

	lea	eax, DWORD PTR _szAvg$[ebp]
	push	0
	sub	esp, 12					; 0000000cH
; File c:\users\andon\source\repos\specialk\include\imgui\imgui.h

; 98   :     ImVec2(float _x, float _y) { x = _x; y = _y; }

	movss	DWORD PTR $T7[ebp+4], xmm0
	movss	xmm0, DWORD PTR $T14[ebp]
	minss	xmm0, DWORD PTR __real@42c00000
	fstp	DWORD PTR $T7[ebp]
; File c:\users\andon\source\repos\specialk\src\widgets\gpu_widget.cpp

; 127  :     ImGui::PlotLinesC ( "###GPU_TempC",

	mov	DWORD PTR [esp+8], 0
	mov	DWORD PTR [esp+4], 0
	mov	DWORD PTR [esp], 0
	push	4
	push	DWORD PTR $T7[ebp+4]
	push	DWORD PTR $T7[ebp]
	sub	esp, 8
	mov	DWORD PTR [esp+4], 1120403456		; 42c80000H
	mov	DWORD PTR [esp], 0
	push	eax
	push	DWORD PTR [edi+1888]
	cvttss2si eax, xmm0
	push	eax
; File c:\program files (x86)\microsoft visual studio\2017\community\vc\tools\msvc\14.10.25017\include\array

; 207  : 		return (_Elems);

	lea	eax, DWORD PTR [edi+1504]
; File c:\users\andon\source\repos\specialk\src\widgets\gpu_widget.cpp

; 127  :     ImGui::PlotLinesC ( "###GPU_TempC",

	push	eax
	push	OFFSET ??_C@_0N@MIKFKOFP@?$CD?$CD?$CDGPU_TempC?$AA@
