; Listing generated by Microsoft (R) Optimizing Compiler Version 19.10.25019.0 

	TITLE	C:\Users\andon\Source\Repos\SpecialK\src\imgui\imgui_demo.cpp
	.686P
	.XMM
	include listing.inc
	.model	flat

INCLUDELIB MSVCRT
INCLUDELIB OLDNAMES

CONST	SEGMENT
$SG11264 DB	'Multi-line Text Input', 00H
$SG11382 DB	00H
$SG11389 DB	00H
$SG11265 DB	'Read-only', 00H
$SG11494 DB	00H
$SG11622 DB	00H
$SG12290 DB	'Example: Fixed Overlay', 00H
$SG11634 DB	00H
$SG11266 DB	'##source', 00H
$SG11767 DB	00H
$SG11816 DB	00H
$SG11818 DB	00H
$SG12291 DB	'Simple overlay', 0aH, 'on the top-left side of the scree'
	DB	'n.', 00H
$SG11820 DB	00H
$SG12292 DB	'Mouse Position: (%.1f,%.1f)', 00H
$SG11268 DB	'Button', 00H
$SG11822 DB	00H
$SG11270 DB	'Thanks for clicking me!', 00H
$SG11271 DB	'checkbox', 00H
$SG12049 DB	00H
$SG12057 DB	00H
$SG12074 DB	00H
$SG11272 DB	'radio a', 00H
$SG11273 DB	'radio b', 00H
$SG11274 DB	'radio c', 00H
$SG11276 DB	'Click', 00H
$SG12172 DB	00H
$SG12205 DB	00H
$SG12301 DB	'Same title as another window##1', 00H
$SG11277 DB	'Hover over me', 00H
	ORG $+6
$SG12302 DB	'This is window 1.', 0aH, 'My title is the same as window'
	DB	' 2, but my identifier is unique.', 00H
	ORG $+3
$SG12303 DB	'Same title as another window##2', 00H
$SG11279 DB	'I am a tooltip', 00H
	ORG $+1
$SG11280 DB	'- or me', 00H
$SG12307 DB	'This window has a changing title.', 00H
	ORG $+2
$SG12304 DB	'This is window 2.', 0aH, 'My title is the same as window'
	DB	' 1, but my identifier is unique.', 00H
	ORG $+3
$SG12305 DB	'|/-\', 00H
	ORG $+3
$SG12306 DB	'Animated title %c %d###AnimatedTitle', 00H
	ORG $+3
$SG11282 DB	'I am a fancy tooltip', 00H
	ORG $+3
$SG11283 DB	'Curve', 00H
	ORG $+2
$SG11284 DB	'Value', 00H
	ORG $+2
$SG11285 DB	'label', 00H
	ORG $+2
$SG11286 DB	'aaaa', 00H, 'bbbb', 00H, 'cccc', 00H, 'dddd', 00H, 'eeee'
	DB	00H, 00H, 00H
	ORG $+1
$SG11287 DB	'combo', 00H
	ORG $+2
$SG11288 DB	'AAAA', 00H
	ORG $+3
$SG11289 DB	'BBBB', 00H
	ORG $+3
$SG11290 DB	'CCCC', 00H
	ORG $+3
$SG11291 DB	'DDDD', 00H
	ORG $+3
$SG11292 DB	'EEEE', 00H
	ORG $+3
$SG11293 DB	'FFFF', 00H
	ORG $+3
$SG11294 DB	'GGGG', 00H
	ORG $+3
$SG11295 DB	'HHHH', 00H
	ORG $+3
$SG11296 DB	'IIII', 00H
	ORG $+3
$SG11297 DB	'JJJJ', 00H
	ORG $+3
$SG11298 DB	'KKKK', 00H
	ORG $+3
$SG11299 DB	'combo scroll', 00H
	ORG $+3
$SG11300 DB	'input text', 00H
	ORG $+1
$SG11302 DB	'input int', 00H
	ORG $+2
$SG11301 DB	'Hold SHIFT or use mouse to select text.', 0aH, 'CTRL+Lef'
	DB	't/Right to word jump.', 0aH, 'CTRL+A or double-click to selec'
	DB	't all.', 0aH, 'CTRL+X,CTRL+C,CTRL+V clipboard.', 0aH, 'CTRL+Z'
	DB	',CTRL+Y undo/redo.', 0aH, 'ESCAPE to revert.', 0aH, 00H
$SG11303 DB	'You can apply arithmetic operators +,*,/ on numerical va'
	DB	'lues.', 0aH, '  e.g. [ 100 ], input ''*2'', result becomes [ '
	DB	'200 ]', 0aH, 'Use +- to subtract.', 0aH, 00H
	ORG $+2
$SG11304 DB	'input float', 00H
$SG11305 DB	'input float3', 00H
	ORG $+3
$SG11306 DB	'%.0f', 00H
	ORG $+3
$SG11307 DB	'drag int', 00H
	ORG $+3
$SG11308 DB	'Click and drag to edit value.', 0aH, 'Hold SHIFT/ALT for'
	DB	' faster/slower edit.', 0aH, 'Double-click or CTRL+click to in'
	DB	'put value.', 00H
$SG11309 DB	'%.0f%%', 00H
	ORG $+1
$SG11310 DB	'drag int 0..100', 00H
$SG11311 DB	'%.3f', 00H
	ORG $+3
$SG11312 DB	'drag float', 00H
	ORG $+1
$SG11313 DB	'%.06f ns', 00H
	ORG $+3
$SG11314 DB	'drag small float', 00H
	ORG $+3
$SG11315 DB	'%.0f', 00H
	ORG $+3
$SG11316 DB	'slider int', 00H
	ORG $+1
$SG11317 DB	'CTRL+click to input value.', 00H
	ORG $+1
$SG11318 DB	'ratio = %.3f', 00H
	ORG $+3
$SG11319 DB	'slider float', 00H
	ORG $+3
$SG11320 DB	'%.4f', 00H
	ORG $+3
$SG11321 DB	'slider log float', 00H
	ORG $+3
$SG11322 DB	'slider angle', 00H
	ORG $+3
$SG11323 DB	'color 1', 00H
$SG11324 DB	'Click on the colored square to change edit mode.', 0aH, 'C'
	DB	'TRL+click on individual component to input value.', 0aH, 00H
	ORG $+3
$SG11325 DB	'color 2', 00H
$SG11326 DB	'Apple', 00H
	ORG $+2
$SG11327 DB	'Banana', 00H
	ORG $+1
$SG11328 DB	'Cherry', 00H
	ORG $+1
$SG11329 DB	'Kiwi', 00H
	ORG $+3
$SG10305 DB	'(?)', 00H
$SG11330 DB	'Mango', 00H
	ORG $+2
$SG11331 DB	'Orange', 00H
	ORG $+1
$SG11332 DB	'Pineapple', 00H
	ORG $+2
$SG11333 DB	'Strawberry', 00H
	ORG $+1
$SG10309 DB	'Double-click on title bar to collapse window.', 00H
	ORG $+2
$SG11334 DB	'Watermelon', 00H
	ORG $+1
$SG10310 DB	'Click and drag on lower right corner to resize window.', 00H
	ORG $+1
$SG11335 DB	'listbox', 0aH, '(single select)', 00H
$SG10311 DB	'Click and drag on any empty space to move window.', 00H
	ORG $+2
$SG10312 DB	'Mouse Wheel to scroll.', 00H
	ORG $+1
$SG11337 DB	'Range Widgets', 00H
	ORG $+2
$SG11338 DB	'Max: %.1f %%', 00H
	ORG $+3
$SG10314 DB	'CTRL+Mouse Wheel to zoom window contents.', 00H
	ORG $+2
$SG11339 DB	'Min: %.1f %%', 00H
	ORG $+3
$SG10315 DB	'TAB/SHIFT+TAB to cycle through keyboard editable fields.'
	DB	00H
	ORG $+3
$SG11340 DB	'range', 00H
	ORG $+2
$SG10316 DB	'CTRL+Click on a slider or drag box to input text.', 00H
	ORG $+2
$SG11341 DB	'Max: %.0f units', 00H
$SG10317 DB	'While editing text:', 0aH, '- Hold SHIFT or use mouse to'
	DB	' select text', 0aH, '- CTRL+Left/Right to word jump', 0aH, '-'
	DB	' CTRL+A or double-click to select all', 0aH, '- CTRL+X,CTRL+C'
	DB	',CTRL+V clipboard', 0aH, '- CTRL+Z,CTRL+Y undo/redo', 0aH, '-'
	DB	' ESCAPE to revert', 0aH, '- You can apply arithmetic operator'
	DB	's +,*,/ on numerical values.', 0aH, '  Use +- to subtract.', 0aH
	DB	00H
$SG11342 DB	'Min: %.0f units', 00H
$SG11343 DB	'range int (no bounds)', 00H
	ORG $+2
$SG11345 DB	'Multi-component Widgets', 00H
$SG11346 DB	'input float2', 00H
	ORG $+3
$SG11347 DB	'%.3f', 00H
	ORG $+3
$SG11348 DB	'drag float2', 00H
$SG11349 DB	'%.3f', 00H
	ORG $+3
$SG11350 DB	'slider float2', 00H
	ORG $+2
$SG11351 DB	'%.0f', 00H
	ORG $+3
$SG11352 DB	'drag int2', 00H
	ORG $+2
$SG11353 DB	'input int2', 00H
	ORG $+1
$SG11354 DB	'%.0f', 00H
	ORG $+3
$SG11355 DB	'slider int2', 00H
$SG11356 DB	'input float3', 00H
	ORG $+3
$SG11357 DB	'%.3f', 00H
	ORG $+3
$SG11358 DB	'drag float3', 00H
$SG11359 DB	'%.3f', 00H
	ORG $+3
$SG11360 DB	'slider float3', 00H
	ORG $+2
$SG11361 DB	'%.0f', 00H
	ORG $+3
$SG11362 DB	'drag int3', 00H
	ORG $+2
$SG11363 DB	'input int3', 00H
	ORG $+1
$SG11364 DB	'%.0f', 00H
	ORG $+3
$SG11365 DB	'slider int3', 00H
$SG11366 DB	'input float4', 00H
	ORG $+3
$SG11367 DB	'%.3f', 00H
	ORG $+3
$SG11368 DB	'drag float4', 00H
$SG11369 DB	'%.3f', 00H
	ORG $+3
$SG11370 DB	'slider float4', 00H
	ORG $+2
$SG11371 DB	'input int4', 00H
	ORG $+1
$SG11372 DB	'%.0f', 00H
	ORG $+3
$SG11373 DB	'drag int4', 00H
	ORG $+2
$SG11374 DB	'%.0f', 00H
	ORG $+3
$SG11375 DB	'slider int4', 00H
$SG11377 DB	'Vertical Sliders', 00H
	ORG $+3
$SG11378 DB	'%.0f', 00H
	ORG $+3
$SG12403 DB	'Example: Custom rendering', 00H
	ORG $+2
$SG11379 DB	'##int', 00H
	ORG $+2
$SG12404 DB	'Primitives', 00H
	ORG $+1
$SG11380 DB	'set1', 00H
	ORG $+3
$SG12405 DB	'%.0f', 00H
	ORG $+3
$SG12406 DB	'Size', 00H
	ORG $+3
$SG12407 DB	'Color', 00H
	ORG $+2
$SG11383 DB	'##v', 00H
$SG12408 DB	'Canvas example', 00H
	ORG $+1
$SG12410 DB	'Clear', 00H
	ORG $+2
$SG11386 DB	'%.3f', 00H
	ORG $+3
$SG11387 DB	'set2', 00H
	ORG $+3
$SG12413 DB	'Undo', 00H
	ORG $+3
$SG12414 DB	'Left-click and drag to add lines,', 0aH, 'Right-click to'
	DB	' undo', 00H
	ORG $+2
$SG11390 DB	'##v', 00H
$SG12417 DB	'canvas', 00H
	ORG $+1
$SG11393 DB	'%.3f', 00H
	ORG $+3
$SG11394 DB	'set3', 00H
	ORG $+3
$SG11396 DB	'%.2f', 0aH, 'sec', 00H
	ORG $+3
$SG11397 DB	'##v', 00H
$SG11399 DB	'Plots widgets', 00H
	ORG $+2
$SG11400 DB	'Animate', 00H
$SG11401 DB	'Frame Times', 00H
$SG11404 DB	'avg 0.0', 00H
$SG11405 DB	'Lines', 00H
	ORG $+2
$SG11406 DB	'Histogram', 00H
	ORG $+2
$SG11407 DB	'Sin', 00H, 'Saw', 00H, 00H
	ORG $+3
$SG11408 DB	'func', 00H
	ORG $+3
$SG11409 DB	'%.0f', 00H
	ORG $+3
$SG11410 DB	'Sample count', 00H
	ORG $+3
$SG11411 DB	'Lines', 00H
	ORG $+2
$SG11412 DB	'Histogram', 00H
	ORG $+2
$SG11416 DB	'Progress Bar', 00H
	ORG $+3
$SG11417 DB	'%d/%d', 00H
	ORG $+2
$SG11419 DB	'Layout', 00H
	ORG $+1
$SG11421 DB	'Child regions', 00H
	ORG $+2
$SG11422 DB	'Without border', 00H
	ORG $+1
$SG11423 DB	'Goto', 00H
	ORG $+3
$SG11424 DB	'##Line', 00H
	ORG $+1
$SG11425 DB	'Sub1', 00H
	ORG $+3
$SG11426 DB	'%04d: scrollable region', 00H
$SG11429 DB	'Sub2', 00H
	ORG $+3
$SG11430 DB	'With border', 00H
$SG11432 DB	'%08x', 00H
	ORG $+3
$SG11434 DB	'Pressed ''%s''', 0aH, 00H
	ORG $+2
$SG11436 DB	'Widgets Width', 00H
	ORG $+2
$SG11437 DB	'PushItemWidth(100)', 00H
	ORG $+1
$SG11438 DB	'Fixed width.', 00H
	ORG $+3
$SG11439 DB	'%.3f', 00H
	ORG $+3
$SG11440 DB	'float##1', 00H
	ORG $+3
$SG11441 DB	'PushItemWidth(GetWindowWidth() * 0.5f)', 00H
	ORG $+1
$SG11442 DB	'Half of window width.', 00H
	ORG $+2
$SG11443 DB	'%.3f', 00H
	ORG $+3
$SG11444 DB	'float##2', 00H
	ORG $+3
$SG11445 DB	'PushItemWidth(GetContentRegionAvailWidth() * 0.5f)', 00H
	ORG $+1
$SG11446 DB	'Half of available width.', 0aH, '(~ right-cursor_pos)', 0aH
	DB	'(works within a column set)', 00H
	ORG $+2
$SG11447 DB	'%.3f', 00H
	ORG $+3
$SG11448 DB	'float##3', 00H
	ORG $+3
$SG11449 DB	'PushItemWidth(-100)', 00H
$SG11450 DB	'Align to right edge minus 100', 00H
	ORG $+2
$SG11451 DB	'%.3f', 00H
	ORG $+3
$SG11452 DB	'float##4', 00H
	ORG $+3
$SG11453 DB	'PushItemWidth(-1)', 00H
	ORG $+2
$SG11454 DB	'Align to right edge', 00H
$SG11455 DB	'%.3f', 00H
	ORG $+3
$SG11456 DB	'float##5', 00H
	ORG $+3
$SG11458 DB	'Basic Horizontal Layout', 00H
$SG11460 DB	'Two items: Hello', 00H
	ORG $+3
$SG11459 DB	'(Use ImGui::SameLine() to keep adding items to the right'
	DB	' of the preceding item)', 00H
$SG11461 DB	'Sailor', 00H
	ORG $+1
$SG11462 DB	'More spacing: Hello', 00H
$SG11463 DB	'Sailor', 00H
	ORG $+1
$SG11464 DB	'Normal buttons', 00H
	ORG $+1
$SG11465 DB	'Banana', 00H
	ORG $+1
$SG11466 DB	'Apple', 00H
	ORG $+2
$SG11467 DB	'Corniflower', 00H
$SG11468 DB	'Small buttons', 00H
	ORG $+2
$SG11469 DB	'Like this one', 00H
	ORG $+2
$SG11470 DB	'can fit within a text block.', 00H
	ORG $+3
$SG11471 DB	'Aligned', 00H
$SG11472 DB	'x=150', 00H
	ORG $+2
$SG11473 DB	'x=300', 00H
	ORG $+2
$SG11474 DB	'Aligned', 00H
$SG11475 DB	'x=150', 00H
	ORG $+2
$SG11476 DB	'x=300', 00H
	ORG $+2
$SG11477 DB	'My', 00H
	ORG $+1
$SG11478 DB	'Tailor', 00H
	ORG $+1
$SG11479 DB	'Is', 00H
	ORG $+1
$SG11480 DB	'Rich', 00H
	ORG $+3
$SG11481 DB	'AAAA', 00H
	ORG $+3
$SG11482 DB	'BBBB', 00H
	ORG $+3
$SG11483 DB	'CCCC', 00H
	ORG $+3
$SG11484 DB	'DDDD', 00H
	ORG $+3
$SG11485 DB	'Combo', 00H
	ORG $+2
$SG11486 DB	'%.3f', 00H
	ORG $+3
$SG11487 DB	'X', 00H
	ORG $+2
$SG11488 DB	'%.3f', 00H
	ORG $+3
$SG11489 DB	'Y', 00H
	ORG $+2
$SG11490 DB	'%.3f', 00H
	ORG $+3
$SG11491 DB	'Z', 00H
	ORG $+2
$SG11492 DB	'Lists:', 00H
	ORG $+1
$SG11495 DB	'A', 00H
	ORG $+2
$SG11496 DB	'B', 00H
	ORG $+2
$SG11498 DB	'Groups', 00H
	ORG $+1
$SG11500 DB	'AAA', 00H
$SG11499 DB	'(Using ImGui::BeginGroup()/EndGroup() to layout items. B'
	DB	'eginGroup() basically locks the horizontal position. EndGroup'
	DB	'() bundles the whole group so that you can use functions such'
	DB	' as IsItemHovered() on it.)', 00H
	ORG $+2
$SG11501 DB	'BBB', 00H
$SG11502 DB	'CCC', 00H
$SG11503 DB	'DDD', 00H
$SG11505 DB	'Group hovered', 00H
	ORG $+2
$SG11506 DB	'EEE', 00H
$SG11507 DB	'##values', 00H
	ORG $+3
$SG11508 DB	'ACTION', 00H
	ORG $+1
$SG11509 DB	'REACTION', 00H
	ORG $+3
$SG11510 DB	'LEVERAGE', 0aH, 'BUZZWORD', 00H
	ORG $+2
$SG11511 DB	'List', 00H
	ORG $+3
$SG11512 DB	'Selected', 00H
	ORG $+3
$SG11513 DB	'Not Selected', 00H
	ORG $+3
$SG11515 DB	'Text Baseline Alignment', 00H
$SG11516 DB	'(This is testing the vertical alignment that occurs on t'
	DB	'ext to keep it at the same baseline as widgets. Lines only co'
	DB	'mposed of text or "small" widgets fit in less vertical spaces'
	DB	' than lines with normal widgets)', 00H
	ORG $+1
$SG11517 DB	'One', 0aH, 'Two', 0aH, 'Three', 00H
	ORG $+2
$SG11518 DB	'Hello', 0aH, 'World', 00H
$SG11519 DB	'Banana', 00H
	ORG $+1
$SG11520 DB	'Banana', 00H
	ORG $+1
$SG11521 DB	'Hello', 0aH, 'World', 00H
$SG11522 DB	'One', 0aH, 'Two', 0aH, 'Three', 00H
	ORG $+2
$SG11523 DB	'HOP##1', 00H
	ORG $+1
$SG11524 DB	'Banana', 00H
	ORG $+1
$SG11525 DB	'Hello', 0aH, 'World', 00H
$SG11526 DB	'Banana', 00H
	ORG $+1
$SG11527 DB	'HOP##2', 00H
	ORG $+1
$SG11528 DB	'Hello', 0aH, 'World', 00H
$SG11529 DB	'Banana', 00H
	ORG $+1
$SG11530 DB	'TEST##1', 00H
$SG11531 DB	'TEST', 00H
	ORG $+3
$SG11532 DB	'TEST##2', 00H
$SG11533 DB	'Text aligned to Widget', 00H
	ORG $+1
$SG11534 DB	'Widget##1', 00H
	ORG $+2
$SG11535 DB	'Widget', 00H
	ORG $+1
$SG11536 DB	'Widget##2', 00H
	ORG $+2
$SG11537 DB	'Button##1', 00H
	ORG $+2
$SG11539 DB	'Node##1', 00H
$SG11540 DB	'Item %d..', 00H
	ORG $+2
$SG11541 DB	'Node##2', 00H
$SG11542 DB	'Button##2', 00H
	ORG $+2
$SG11544 DB	'Item %d..', 00H
	ORG $+2
$SG11545 DB	'Button##3', 00H
	ORG $+2
$SG11546 DB	'Bullet text', 00H
$SG11547 DB	'Node', 00H
	ORG $+3
$SG11548 DB	'Button##4', 00H
	ORG $+2
$SG11550 DB	'Scrolling', 00H
	ORG $+2
$SG11553 DB	'Line %.0f', 00H
	ORG $+2
$SG11551 DB	'(Use SetScrollHere() or SetScrollFromPosY() to scroll to'
	DB	' a given position.)', 00H
$SG11552 DB	'Track', 00H
	ORG $+2
$SG11554 DB	'##line', 00H
	ORG $+1
$SG11555 DB	'Scroll To', 00H
	ORG $+2
$SG11556 DB	'y = %.0f px', 00H
$SG11557 DB	'##pos_y', 00H
$SG11560 DB	'Top', 00H
$SG11561 DB	'25%', 00H
$SG11562 DB	'Center', 00H
	ORG $+1
$SG11563 DB	'75%', 00H
$SG11564 DB	'Bottom', 00H
	ORG $+1
$SG11565 DB	'%s', 00H
	ORG $+1
$SG11569 DB	'Line %d', 00H
$SG11570 DB	'Line %d', 00H
$SG11572 DB	'Horizontal Scrolling', 00H
	ORG $+3
$SG11576 DB	'Lines', 00H
	ORG $+2
$SG11577 DB	'scrolling', 00H
	ORG $+2
$SG11573 DB	'Horizontal scrolling for a window has to be enabled expl'
	DB	'icitly via the ImGuiWindowFlags_HorizontalScrollbar flag.', 00H
	ORG $+2
$SG11579 DB	'FizzBuzz', 00H
	ORG $+3
$SG11574 DB	'You may want to explicitly specify content width by call'
	DB	'ing SetNextWindowContentWidth() before Begin().', 00H
$SG11575 DB	'%.0f', 00H
	ORG $+3
$SG11580 DB	'Fizz', 00H
	ORG $+3
$SG11581 DB	'Buzz', 00H
	ORG $+3
$SG11582 DB	'%d', 00H
	ORG $+1
$SG11583 DB	'<<', 00H
	ORG $+1
$SG11585 DB	'Scroll from code', 00H
	ORG $+3
$SG11586 DB	'>>', 00H
	ORG $+1
$SG11589 DB	'scrolling', 00H
	ORG $+2
$SG11591 DB	'Clipping', 00H
	ORG $+3
$SG11592 DB	'On a per-widget basis we are occasionally clipping text '
	DB	'CPU-side if it won''t fit in its frame. Otherwise we are doin'
	DB	'g coarser clipping + passing a scissor rectangle to the rende'
	DB	'rer. The system is designed to try minimizing both execution '
	DB	'and CPU/GPU rendering cost.', 00H
	ORG $+2
$SG11593 DB	'%.0f', 00H
	ORG $+3
$SG11594 DB	'size', 00H
	ORG $+3
$SG11595 DB	'(Click and drag)', 00H
	ORG $+3
$SG11596 DB	'##dummy', 00H
$SG11598 DB	'Line 1 hello', 0aH, 'Line 2 clip me!', 00H
	ORG $+3
$SG11600 DB	'Popups & Modal windows', 00H
	ORG $+1
$SG11602 DB	'Popups', 00H
	ORG $+1
$SG11603 DB	'When a popup is active, it inhibits interacting with win'
	DB	'dows that are behind the popup. Clicking outside the popup cl'
	DB	'oses it.', 00H
	ORG $+2
$SG11604 DB	'Bream', 00H
	ORG $+2
$SG11605 DB	'Haddock', 00H
$SG11606 DB	'Mackerel', 00H
	ORG $+3
$SG11607 DB	'Pollock', 00H
$SG11608 DB	'Tilefish', 00H
	ORG $+3
$SG11610 DB	'Select..', 00H
	ORG $+3
$SG11611 DB	'select', 00H
	ORG $+1
$SG11612 DB	'<None>', 00H
	ORG $+1
$SG11614 DB	'select', 00H
	ORG $+1
$SG11615 DB	'Aquarium', 00H
	ORG $+3
$SG11618 DB	'Toggle..', 00H
	ORG $+3
$SG11619 DB	'toggle', 00H
	ORG $+1
$SG11621 DB	'toggle', 00H
	ORG $+1
$SG11624 DB	'Sub-menu', 00H
	ORG $+3
$SG11625 DB	'Click me', 00H
	ORG $+3
$SG11626 DB	'Tooltip here', 00H
	ORG $+3
$SG11628 DB	'I am a tooltip over a popup', 00H
$SG11630 DB	'Stacked Popup', 00H
	ORG $+2
$SG11631 DB	'another popup', 00H
	ORG $+2
$SG11633 DB	'another popup', 00H
	ORG $+2
$SG11636 DB	'Sub-menu', 00H
	ORG $+3
$SG11637 DB	'Click me', 00H
	ORG $+3
$SG11639 DB	'Popup Menu..', 00H
	ORG $+3
$SG11640 DB	'FilePopup', 00H
	ORG $+2
$SG11642 DB	'FilePopup', 00H
	ORG $+2
$SG11643 DB	'Below we are testing adding menu items to a regular wind'
	DB	'ow. It''s rather unusual but should work!', 00H
	ORG $+3
$SG11644 DB	'foo', 00H
$SG11645 DB	'CTRL+M', 00H
	ORG $+1
$SG11646 DB	'Menu item', 00H
	ORG $+2
$SG11648 DB	'Menu inside a regular window', 00H
	ORG $+3
$SG11650 DB	'Context menus', 00H
	ORG $+2
$SG11651 DB	'Value = %.3f (<-- right-click here)', 00H
$SG11653 DB	'item context menu', 00H
	ORG $+2
$SG11655 DB	'Set to zero', 00H
$SG11657 DB	'Set to PI', 00H
	ORG $+2
$SG11659 DB	'color context menu', 00H
	ORG $+1
$SG11660 DB	'Edit color', 00H
	ORG $+1
$SG11661 DB	'##edit', 00H
	ORG $+1
$SG11663 DB	'Close', 00H
	ORG $+2
$SG11664 DB	'(<-- right-click here)', 00H
	ORG $+1
$SG11666 DB	'Modals', 00H
	ORG $+1
$SG11669 DB	'Delete..', 00H
	ORG $+3
$SG11667 DB	'Modal windows are like popups but the user cannot close '
	DB	'them by clicking outside the window.', 00H
	ORG $+3
$SG11670 DB	'Delete?', 00H
$SG11672 DB	'Delete?', 00H
$SG11673 DB	'All those beautiful files will be deleted.', 0aH, 'This '
	DB	'operation cannot be undone!', 0aH, 0aH, 00H
	ORG $+2
$SG11674 DB	'Don''t ask me next time', 00H
	ORG $+1
$SG11676 DB	'OK', 00H
	ORG $+1
$SG11678 DB	'Cancel', 00H
	ORG $+1
$SG11680 DB	'Stacked modals..', 00H
	ORG $+3
$SG11681 DB	'Stacked 1', 00H
	ORG $+2
$SG11683 DB	'Stacked 1', 00H
	ORG $+2
$SG11684 DB	'Hello from Stacked The First', 0aH, 'Using style.Colors['
	DB	'ImGuiCol_ModalWindowDarkening] for darkening.', 00H
	ORG $+2
$SG11685 DB	'aaaa', 00H, 'bbbb', 00H, 'cccc', 00H, 'dddd', 00H, 'eeee'
	DB	00H, 00H, 00H
	ORG $+1
$SG11686 DB	'Combo', 00H
	ORG $+2
$SG11688 DB	'Add another modal..', 00H
$SG11689 DB	'Stacked 2', 00H
	ORG $+2
$SG11691 DB	'Stacked 2', 00H
	ORG $+2
$SG11692 DB	'Hello from Stacked The Second!', 0aH, 'We are piling a m'
	DB	'odal over another here,', 0aH, 'and also testing if the menu-'
	DB	'bar works.', 00H
$SG11694 DB	'Close', 00H
	ORG $+2
$SG11696 DB	'Close', 00H
	ORG $+2
$SG11698 DB	'Columns', 00H
$SG11700 DB	'Basic', 00H
	ORG $+2
$SG11701 DB	'Without border:', 00H
$SG11702 DB	'mycolumns3', 00H
	ORG $+1
$SG11703 DB	'Item %d', 00H
$SG11705 DB	'With border:', 00H
	ORG $+3
$SG11706 DB	'mycolumns', 00H
	ORG $+2
$SG11707 DB	'ID', 00H
	ORG $+1
$SG11708 DB	'Name', 00H
	ORG $+3
$SG11709 DB	'Path', 00H
	ORG $+3
$SG11710 DB	'Flags', 00H
	ORG $+2
$SG11711 DB	'One', 00H
$SG11712 DB	'Two', 00H
$SG11713 DB	'Three', 00H
	ORG $+2
$SG11714 DB	'/path/one', 00H
	ORG $+2
$SG11715 DB	'/path/two', 00H
	ORG $+2
$SG11716 DB	'/path/three', 00H
$SG11717 DB	'%04d', 00H
	ORG $+3
$SG11719 DB	'....', 00H
	ORG $+3
$SG11721 DB	'Mixed items', 00H
$SG11722 DB	'mixed', 00H
	ORG $+2
$SG11723 DB	'Hello', 00H
	ORG $+2
$SG11724 DB	'Banana', 00H
	ORG $+1
$SG11725 DB	'ImGui', 00H
	ORG $+2
$SG11726 DB	'Apple', 00H
	ORG $+2
$SG11727 DB	'red', 00H
$SG11728 DB	'An extra line here.', 00H
$SG11729 DB	'Sailor', 00H
	ORG $+1
$SG11730 DB	'Corniflower', 00H
$SG11731 DB	'blue', 00H
	ORG $+3
$SG11733 DB	'Category A', 00H
	ORG $+1
$SG11734 DB	'Blah blah blah', 00H
	ORG $+1
$SG11736 DB	'Category B', 00H
	ORG $+1
$SG11737 DB	'Blah blah blah', 00H
	ORG $+1
$SG11739 DB	'Category C', 00H
	ORG $+1
$SG11740 DB	'Blah blah blah', 00H
	ORG $+1
$SG11742 DB	'Word-wrapping', 00H
	ORG $+2
$SG11743 DB	'word-wrapping', 00H
	ORG $+2
$SG11744 DB	'The quick brown fox jumps over the lazy dog.', 00H
	ORG $+3
$SG11745 DB	'Hello Left', 00H
	ORG $+1
$SG11746 DB	'The quick brown fox jumps over the lazy dog.', 00H
	ORG $+3
$SG11747 DB	'Hello Right', 00H
$SG11749 DB	'Borders', 00H
$SG11750 DB	'horizontal', 00H
	ORG $+1
$SG11751 DB	'vertical', 00H
	ORG $+3
$SG11753 DB	'%c%c%c', 00H
	ORG $+1
$SG11755 DB	'Tree within single cell', 00H
$SG11758 DB	'tree items', 00H
	ORG $+1
$SG11756 DB	'NB: Tree node must be poped before ending the cell. Ther'
	DB	'e''s no storage of state per-cell.', 00H
	ORG $+2
$SG11760 DB	'Hello', 00H
	ORG $+2
$SG11761 DB	'Sailor', 00H
	ORG $+1
$SG11763 DB	'Bonjour', 00H
$SG11764 DB	'Marin', 00H
	ORG $+2
$SG12789 DB	'Example: Console', 00H
	ORG $+3
$SG11766 DB	'Filtering', 00H
	ORG $+2
$SG11769 DB	'Filter (inc,-exc)', 00H
	ORG $+2
$SG11768 DB	'Filter usage:', 0aH, '  ""         display all lines', 0aH
	DB	'  "xxx"      display lines containing "xxx"', 0aH, '  "xxx,yy'
	DB	'y"  display lines containing "xxx" or "yyy"', 0aH, '  "-xxx" '
	DB	'    hide lines containing "xxx"', 00H
	ORG $+1
$SG11770 DB	'aaa1.c', 00H
	ORG $+1
$SG11771 DB	'bbb1.c', 00H
	ORG $+1
$SG11772 DB	'ccc1.c', 00H
	ORG $+1
$SG11773 DB	'aaa2.cpp', 00H
	ORG $+3
$SG11774 DB	'bbb2.cpp', 00H
	ORG $+3
$SG11775 DB	'ccc2.cpp', 00H
	ORG $+3
$SG11776 DB	'abc.h', 00H
	ORG $+2
$SG11777 DB	'hello, world', 00H
	ORG $+3
$SG11779 DB	'%s', 00H
	ORG $+1
$SG11781 DB	'Inputs, Navigation & Focus', 00H
	ORG $+1
$SG11782 DB	'io.NavMovesMouse', 00H
	ORG $+3
$SG11783 DB	'Request ImGui to move your move cursor when using gamepa'
	DB	'd/keyboard navigation. NewFrame() will change io.MousePos and'
	DB	' set the io.WantMoveMouse flag, your backend will need to app'
	DB	'ly the new mouse position.', 00H
	ORG $+3
$SG11784 DB	'io.MouseDrawCursor', 00H
	ORG $+1
$SG11787 DB	'WantCaptureKeyboard: %d', 00H
$SG11788 DB	'WantTextInput: %d', 00H
	ORG $+2
$SG11785 DB	'Request ImGui to render a mouse cursor for you in softwa'
	DB	're. Note that a mouse cursor rendered via regular GPU renderi'
	DB	'ng will feel more laggy than hardware cursor, but will be mor'
	DB	'e in sync with your other visuals.', 00H
	ORG $+3
$SG11786 DB	'WantCaptureMouse: %d', 00H
	ORG $+3
$SG11789 DB	'WantMoveMouse: %d', 00H
	ORG $+2
$SG11791 DB	'Keyboard, Mouse & Navigation State', 00H
	ORG $+1
$SG11792 DB	'Mouse pos: (%g, %g)', 00H
$SG11793 DB	'Mouse down:', 00H
$SG11795 DB	'b%d (%.02f secs)', 00H
	ORG $+3
$SG11796 DB	'Mouse clicked:', 00H
	ORG $+1
$SG11798 DB	'b%d', 00H
$SG11799 DB	'Mouse dbl-clicked:', 00H
	ORG $+1
$SG11801 DB	'b%d', 00H
$SG11802 DB	'Mouse released:', 00H
$SG11804 DB	'b%d', 00H
$SG11805 DB	'Mouse wheel: %.1f', 00H
	ORG $+2
$SG11806 DB	'Keys down:', 00H
	ORG $+1
$SG11808 DB	'%d (%.02f secs)', 00H
$SG11809 DB	'Keys pressed:', 00H
	ORG $+2
$SG11811 DB	'%d', 00H
	ORG $+1
$SG11812 DB	'Keys release:', 00H
	ORG $+2
$SG11814 DB	'%d', 00H
	ORG $+1
$SG11815 DB	'SUPER ', 00H
	ORG $+1
$SG11817 DB	'ALT ', 00H
	ORG $+3
$SG11819 DB	'SHIFT ', 00H
	ORG $+1
$SG11821 DB	'CTRL ', 00H
	ORG $+2
$SG11823 DB	'Keys mods: %s%s%s%s', 00H
$SG11824 DB	'NavUsable: %d, NavActive: %d', 00H
	ORG $+3
$SG11825 DB	'NavInputs down:', 00H
$SG11827 DB	'[%d] %.2f', 00H
	ORG $+2
$SG11828 DB	'NavInputs pressed:', 00H
	ORG $+1
$SG11830 DB	'[%d]', 00H
	ORG $+3
$SG11831 DB	'NavInputs duration:', 00H
$SG11833 DB	'[%d] %.2f', 00H
	ORG $+2
$SG11834 DB	'Hovering me sets the', 0aH, 'keyboard capture flag', 00H
	ORG $+1
$SG11836 DB	'Holding me clears the', 0aH, 'the keyboard capture flag', 00H
$SG11839 DB	'Tabbing', 00H
$SG11840 DB	'Use TAB/SHIFT+TAB to cycle through keyboard editable fie'
	DB	'lds.', 00H
	ORG $+3
$SG11841 DB	'1', 00H
	ORG $+2
$SG11842 DB	'2', 00H
	ORG $+2
$SG11843 DB	'3', 00H
	ORG $+2
$SG11844 DB	'4 (tab skip)', 00H
	ORG $+3
$SG11845 DB	'5', 00H
	ORG $+2
$SG11847 DB	'Focus from code', 00H
$SG11848 DB	'Focus on 1', 00H
	ORG $+1
$SG11849 DB	'Focus on 2', 00H
	ORG $+1
$SG11850 DB	'Focus on 3', 00H
	ORG $+1
$SG11852 DB	'1', 00H
	ORG $+2
$SG11855 DB	'2', 00H
	ORG $+2
$SG11858 DB	'3 (tab skip)', 00H
	ORG $+3
$SG11862 DB	'Item with focus: %d', 00H
$SG11863 DB	'Item with focus: <none>', 00H
$SG11866 DB	'Dragging', 00H
	ORG $+3
$SG11864 DB	'Cursor & selection are preserved when refocusing last us'
	DB	'ed item in code.', 00H
	ORG $+3
$SG11868 DB	'Drag Me', 00H
$SG11873 DB	'Hover to see mouse cursors:', 00H
$SG11867 DB	'You can use ImGui::GetMouseDragDelta(0) to query for the'
	DB	' dragged amount on any widget.', 00H
	ORG $+1
$SG11870 DB	'Raw (%.1f, %.1f), WithLockThresold (%.1f, %.1f), MouseDe'
	DB	'lta (%.1f, %.1f)', 00H
	ORG $+3
$SG11872 DB	'Mouse cursors', 00H
	ORG $+2
$SG11875 DB	'Mouse cursor %d', 00H
$SG12932 DB	'log', 00H
$SG11874 DB	'Your application can render a different mouse cursor bas'
	DB	'ed on what ImGui::GetMouseCursor() returns. If software curso'
	DB	'r rendering (io.MouseDrawCursor) is set ImGui will draw the r'
	DB	'ight cursor for you, otherwise your backend needs to handle i'
	DB	't.', 00H
	ORG $+2
$SG12926 DB	'system', 00H
	ORG $+1
$SG12927 DB	'info', 00H
	ORG $+3
$SG12928 DB	'warning', 00H
$SG12929 DB	'error', 00H
	ORG $+2
$SG12930 DB	'fatal', 00H
	ORG $+2
$SG12931 DB	'notice', 00H
	ORG $+1
$SG12933 DB	'[%s] Hello, time is %.1f, rand() %d', 0aH, 00H
	ORG $+3
$SG12934 DB	'Example: Log', 00H
	ORG $+3
$SG12960 DB	'Example: Layout', 00H
$SG12963 DB	'File', 00H
	ORG $+3
$SG12965 DB	'Close', 00H
	ORG $+2
$SG12966 DB	'left pane', 00H
	ORG $+2
$SG12967 DB	'MyObject %d', 00H
$SG12969 DB	'item view', 00H
	ORG $+2
$SG12970 DB	'MyObject: %d', 00H
	ORG $+3
$SG12971 DB	'Lorem ipsum dolor sit amet, consectetur adipiscing elit,'
	DB	' sed do eiusmod tempor incididunt ut labore et dolore magna a'
	DB	'liqua. ', 00H
	ORG $+3
$SG12972 DB	'buttons', 00H
$SG12974 DB	'Revert', 00H
	ORG $+1
$SG12976 DB	'Save', 00H
	ORG $+3
$SG11994 DB	'Revert Style', 00H
	ORG $+3
$SG11997 DB	'Save Style', 00H
	ORG $+1
$SG13023 DB	'Example: Property editor', 00H
	ORG $+3
$SG11999 DB	'Rendering', 00H
	ORG $+2
$SG12000 DB	'Anti-aliased lines', 00H
	ORG $+1
$SG13024 DB	'This example shows how you may implement a property edit'
	DB	'or using two columns.', 0aH, 'All objects/fields data are dum'
	DB	'mies here.', 0aH, 'Remember that in many simple cases, you ca'
	DB	'n use ImGui::SameLine(xxx) to position', 0aH, 'your cursor ho'
	DB	'rizontally instead of using the Columns() API.', 00H
	ORG $+2
$SG13025 DB	'Object', 00H
	ORG $+1
$SG12001 DB	'Anti-aliased shapes', 00H
$SG12002 DB	'Curve Tessellation Tolerance', 00H
	ORG $+3
$SG12004 DB	'%.2f', 00H
	ORG $+3
$SG12005 DB	'Global Alpha', 00H
	ORG $+3
$SG12007 DB	'Settings', 00H
	ORG $+3
$SG12008 DB	'%.0f', 00H
	ORG $+3
$SG12009 DB	'WindowPadding', 00H
	ORG $+2
$SG12010 DB	'%.0f', 00H
	ORG $+3
$SG12011 DB	'WindowRounding', 00H
	ORG $+1
$SG12012 DB	'%.0f', 00H
	ORG $+3
$SG12013 DB	'ChildWindowRounding', 00H
$SG12014 DB	'%.0f', 00H
	ORG $+3
$SG12015 DB	'FramePadding', 00H
	ORG $+3
$SG12016 DB	'%.0f', 00H
	ORG $+3
$SG12017 DB	'FrameRounding', 00H
	ORG $+2
$SG12018 DB	'%.0f', 00H
	ORG $+3
$SG12019 DB	'ItemSpacing', 00H
$SG12020 DB	'%.0f', 00H
	ORG $+3
$SG12021 DB	'ItemInnerSpacing', 00H
	ORG $+3
$SG12022 DB	'%.0f', 00H
	ORG $+3
$SG12023 DB	'TouchExtraPadding', 00H
	ORG $+2
$SG12024 DB	'%.0f', 00H
	ORG $+3
$SG12025 DB	'IndentSpacing', 00H
	ORG $+2
$SG12026 DB	'%.0f', 00H
	ORG $+3
$SG12027 DB	'ScrollbarSize', 00H
	ORG $+2
$SG12028 DB	'%.0f', 00H
	ORG $+3
$SG12029 DB	'ScrollbarRounding', 00H
	ORG $+2
$SG12030 DB	'%.0f', 00H
	ORG $+3
$SG12031 DB	'GrabMinSize', 00H
$SG12032 DB	'%.0f', 00H
	ORG $+3
$SG12033 DB	'GrabRounding', 00H
	ORG $+3
$SG12034 DB	'Alignment', 00H
	ORG $+2
$SG12035 DB	'%.2f', 00H
	ORG $+3
$SG12036 DB	'WindowTitleAlign', 00H
	ORG $+3
$SG12037 DB	'%.2f', 00H
	ORG $+3
$SG12038 DB	'ButtonTextAlign', 00H
$SG12039 DB	'Alignment applies when a button is larger than its text '
	DB	'content.', 00H
	ORG $+3
$SG13064 DB	'Example: Long text display', 00H
	ORG $+1
$SG13065 DB	'Printing unusually long amount of text.', 00H
$SG12041 DB	'Colors', 00H
	ORG $+1
$SG13066 DB	'Single call to TextUnformatted()', 00H, 'Multiple calls '
	DB	'to Text(), clipped manually', 00H, 'Multiple calls to Text(),'
	DB	' not clipped', 00H, 00H
	ORG $+1
$SG13067 DB	'Test type', 00H
	ORG $+2
$SG12043 DB	'Copy Colors', 00H
$SG13068 DB	'Buffer contents: %d lines, %d bytes', 00H
$SG13070 DB	'Clear', 00H
	ORG $+2
$SG12046 DB	'ImGuiStyle& style = ImGui::GetStyle();', 0dH, 0aH, 00H
	ORG $+3
$SG13072 DB	'Add 1000 lines', 00H
	ORG $+1
$SG13073 DB	'%i The quick brown fox jumps over the lazy dog', 0aH, 00H
$SG13074 DB	'Log', 00H
$SG12050 DB	'style.Colors[ImGuiCol_%s]%*s= ImVec4(%.2ff, %.2ff, %.2ff'
	DB	', %.2ff);', 0dH, 0aH, 00H
$SG12051 DB	'To Clipboard', 00H, 'To TTY', 00H, 00H
	ORG $+3
$SG12052 DB	'##output_type', 00H
	ORG $+2
$SG13077 DB	'%i The quick brown fox jumps over the lazy dog', 00H
	ORG $+1
$SG12053 DB	'Only Modified Fields', 00H
	ORG $+3
$SG12054 DB	'RGB', 00H
$SG13079 DB	'%i The quick brown fox jumps over the lazy dog', 00H
	ORG $+1
$SG12055 DB	'HSV', 00H
$SG12056 DB	'HEX', 00H
$SG12058 DB	'Filter colors', 00H
	ORG $+2
$SG12059 DB	'#colors', 00H
$SG12063 DB	'Revert', 00H
	ORG $+1
$SG12066 DB	'Save', 00H
	ORG $+3
$SG12068 DB	'Fonts (%d)', 00H
	ORG $+1
$SG12069 DB	'Fonts', 00H
	ORG $+2
$SG12075 DB	'Font %d: ''%s'', %.2f px, %d glyphs', 00H
	ORG $+2
$SG12070 DB	'Tip: Load fonts with io.Fonts->AddFontFromFileTTF()', 0aH
	DB	'before calling io.Fonts->GetTex* functions.', 00H
$SG12072 DB	'Atlas texture (%dx%d pixels)', 00H
	ORG $+3
$SG12073 DB	'Atlas texture', 00H
	ORG $+2
$SG12077 DB	'Set as default', 00H
	ORG $+1
$SG12078 DB	'The quick brown fox jumps over the lazy dog', 00H
$SG12080 DB	'Details', 00H
$SG12081 DB	'%.1f', 00H
	ORG $+3
$SG12082 DB	'Font scale', 00H
	ORG $+1
$SG12083 DB	'Note than the default embedded font is NOT meant to be s'
	DB	'caled.', 0aH, 0aH, 'Font are currently rendered into bitmaps '
	DB	'at a given size at the time of building the atlas. You may ov'
	DB	'ersample them to get some flexibility with scaling. You can a'
	DB	'lso render at multiple sizes and select which one to use at r'
	DB	'untime.', 0aH, 0aH, '(Glimmer of hope: the atlas system shoul'
	DB	'd hopefully be rewritten in the future to make scaling more n'
	DB	'atural and automatic.)', 00H
	ORG $+3
$SG12084 DB	'Ascent: %f, Descent: %f, Height: %f', 00H
$SG12085 DB	'Fallback character: ''%c'' (%d)', 00H
	ORG $+2
$SG12086 DB	'Texture surface: %d pixels (approx)', 00H
$SG12087 DB	'Input %d: ''%s'', Oversample: (%d,%d), PixelSnapH: %d', 00H
$SG12089 DB	'Glyphs (%d)', 00H
$SG12090 DB	'Glyphs', 00H
	ORG $+1
$SG12092 DB	'glyphs', 00H
	ORG $+1
$SG12093 DB	'glyph', 00H
	ORG $+2
$SG12094 DB	'U+%04X..U+%04X (%d %s)', 00H
	ORG $+1
$SG12096 DB	'Codepoint: U+%04X', 00H
	ORG $+2
$SG12097 DB	'XAdvance+1: %.1f', 00H
	ORG $+3
$SG12098 DB	'Pos: (%.2f,%.2f)->(%.2f,%.2f)', 00H
	ORG $+2
$SG12099 DB	'UV: (%.3f,%.3f)->(%.3f,%.3f)', 00H
	ORG $+3
$SG12100 DB	'%.1f', 00H
	ORG $+3
$SG12101 DB	'this window scale', 00H
	ORG $+2
$SG12102 DB	'%.1f', 00H
	ORG $+3
$SG12103 DB	'global scale', 00H
	ORG $+3
$SG11082 DB	'Style Editor', 00H
	ORG $+3
$SG11084 DB	'About ImGui', 00H
$SG12109 DB	'File', 00H
	ORG $+3
$SG11085 DB	'dear imgui, %s', 00H
	ORG $+1
$SG11086 DB	'By Omar Cornut and all github contributors.', 00H
$SG12111 DB	'Edit', 00H
	ORG $+3
$SG12113 DB	'CTRL+Z', 00H
	ORG $+1
$SG12120 DB	'Cut', 00H
$SG11087 DB	'ImGui is licensed under the MIT License, see LICENSE for'
	DB	' more information.', 00H
	ORG $+1
$SG12114 DB	'Undo', 00H
	ORG $+3
$SG12116 DB	'CTRL+Y', 00H
	ORG $+1
$SG12117 DB	'Redo', 00H
	ORG $+3
$SG12119 DB	'CTRL+X', 00H
	ORG $+1
$SG11097 DB	'ImGui Demo', 00H
	ORG $+1
$SG12122 DB	'CTRL+C', 00H
	ORG $+1
$SG11098 DB	'Dear ImGui says hello.', 00H
	ORG $+1
$SG12123 DB	'Copy', 00H
	ORG $+3
$SG12125 DB	'CTRL+V', 00H
	ORG $+1
$SG11101 DB	'Menu', 00H
	ORG $+3
$SG12126 DB	'Paste', 00H
	ORG $+2
$SG11103 DB	'Examples', 00H
	ORG $+3
$SG11104 DB	'Main menu bar', 00H
	ORG $+2
$SG11105 DB	'Console', 00H
$SG11106 DB	'Log', 00H
$SG11107 DB	'Simple layout', 00H
	ORG $+2
$SG11108 DB	'Property editor', 00H
$SG11109 DB	'Long text display', 00H
	ORG $+2
$SG11110 DB	'Auto-resizing window', 00H
	ORG $+3
$SG11111 DB	'Constrained-resizing window', 00H
$SG11112 DB	'Simple overlay', 00H
	ORG $+1
$SG11113 DB	'Manipulating window title', 00H
	ORG $+2
$SG11114 DB	'Custom rendering', 00H
	ORG $+3
$SG11116 DB	'Help', 00H
	ORG $+3
$SG11117 DB	'Metrics', 00H
$SG11118 DB	'Style Editor', 00H
	ORG $+3
$SG11119 DB	'About ImGui', 00H
$SG11121 DB	'Help', 00H
	ORG $+3
$SG11124 DB	'Window options', 00H
	ORG $+1
$SG11125 DB	'No titlebar', 00H
$SG11122 DB	'This window is being created by the ShowTestWindow() fun'
	DB	'ction. Please refer to the code for programming reference.', 0aH
	DB	0aH, 'User Guide:', 00H
$SG12148 DB	'(dummy menu)', 00H
	ORG $+3
$SG12150 DB	'New', 00H
$SG11126 DB	'No border', 00H
	ORG $+2
$SG11127 DB	'No resize', 00H
	ORG $+2
$SG12152 DB	'Ctrl+O', 00H
	ORG $+1
$SG11128 DB	'No move', 00H
$SG12153 DB	'Open', 00H
	ORG $+3
$SG11129 DB	'No scrollbar', 00H
	ORG $+3
$SG11130 DB	'No collapse', 00H
$SG12155 DB	'Open Recent', 00H
$SG11131 DB	'No menu', 00H
$SG12156 DB	'fish_hat.c', 00H
	ORG $+1
$SG11132 DB	'No nav', 00H
	ORG $+1
$SG12157 DB	'fish_hat.inl', 00H
	ORG $+3
$SG12158 DB	'fish_hat.h', 00H
	ORG $+1
$SG11134 DB	'Style', 00H
	ORG $+2
$SG12160 DB	'More..', 00H
	ORG $+1
$SG11136 DB	'Logging', 00H
$SG12161 DB	'Hello', 00H
	ORG $+2
$SG12162 DB	'Sailor', 00H
	ORG $+1
$SG11139 DB	'Widgets', 00H
$SG12164 DB	'Recurse..', 00H
	ORG $+2
$SG11137 DB	'The logging API redirects all text output so you can eas'
	DB	'ily capture the content of a window or a block. Tree nodes ca'
	DB	'n be automatically expanded. You can also call ImGui::LogText'
	DB	'() to output directly to the log without a visual output.', 00H
$SG11141 DB	'Trees', 00H
	ORG $+2
$SG12166 DB	'Ctrl+S', 00H
	ORG $+1
$SG12167 DB	'Save', 00H
	ORG $+3
$SG11143 DB	'Basic trees', 00H
$SG12169 DB	'Save As..', 00H
	ORG $+2
$SG11145 DB	'Child %d', 00H
	ORG $+3
$SG11146 DB	'blah blah', 00H
	ORG $+2
$SG12171 DB	'Options', 00H
$SG11148 DB	'print', 00H
	ORG $+2
$SG12173 DB	'Enabled', 00H
$SG11149 DB	'Child %d pressed', 00H
	ORG $+3
$SG12174 DB	'child', 00H
	ORG $+2
$SG12175 DB	'Scrolling Text %d', 00H
	ORG $+2
$SG11151 DB	'Advanced, with Selectable nodes', 00H
$SG12176 DB	'%.3f', 00H
	ORG $+3
$SG12177 DB	'Value', 00H
	ORG $+2
$SG11154 DB	'Hello!', 00H
	ORG $+1
$SG11158 DB	'Selectable Node %d', 00H
	ORG $+1
$SG11152 DB	'This is a more standard looking tree with selectable nod'
	DB	'es.', 0aH, 'Click to select, CTRL+Click to toggle, click on a'
	DB	'rrows or double-click to open.', 00H
$SG11153 DB	'Align label with current X position)', 00H
	ORG $+3
$SG12178 DB	'Input', 00H
	ORG $+2
$SG12179 DB	'Yes', 00H, 'No', 00H, 'Maybe', 00H, 00H, 00H
	ORG $+1
$SG12180 DB	'Combo', 00H
	ORG $+2
$SG12181 DB	'Check', 00H
	ORG $+2
$SG12183 DB	'Colors', 00H
	ORG $+1
$SG12185 DB	'Disabled', 00H
	ORG $+3
$SG11161 DB	'Blah blah', 0aH, 'Blah Blah', 00H
$SG11162 DB	'Selectable Leaf %d', 00H
	ORG $+1
$SG12187 DB	'Checked', 00H
$SG12189 DB	'Alt+F4', 00H
	ORG $+1
$SG12190 DB	'Quit', 00H
	ORG $+3
$SG11169 DB	'Collapsing Headers', 00H
	ORG $+1
$SG11171 DB	'Header', 00H
	ORG $+1
$SG11172 DB	'Enable extra group', 00H
	ORG $+1
$SG11173 DB	'Some content %d', 00H
$SG11175 DB	'Header with a close button', 00H
	ORG $+1
$SG11176 DB	'More content %d', 00H
$SG12201 DB	'Example: Auto-resizing window', 00H
	ORG $+2
$SG11178 DB	'Bullets', 00H
$SG11180 DB	'Bullet point 2', 0aH, 'On multiple lines', 00H
	ORG $+3
$SG12202 DB	'Window will resize every-frame to the size of its conten'
	DB	't.', 0aH, 'Note that you probably don''t want to query the wi'
	DB	'ndow size to', 0aH, 'output your content because that would c'
	DB	'reate a feedback loop.', 00H
$SG12203 DB	'%.0f', 00H
	ORG $+3
$SG11179 DB	'Bullet point 1', 00H
	ORG $+1
$SG12204 DB	'Number of lines', 00H
$SG11181 DB	'Bullet point 3 (two calls)', 00H
	ORG $+1
$SG12206 DB	'%*sThis is line %d', 00H
	ORG $+1
$SG11182 DB	'Button', 00H
	ORG $+1
$SG11184 DB	'Colored Text', 00H
	ORG $+3
$SG11185 DB	'Pink', 00H
	ORG $+3
$SG11186 DB	'Yellow', 00H
	ORG $+1
$SG11187 DB	'Disabled', 00H
	ORG $+3
$SG11189 DB	'Word Wrapping', 00H
	ORG $+2
$SG11192 DB	'Wrap width', 00H
	ORG $+1
$SG11190 DB	'This text should automatically wrap on the edge of the w'
	DB	'indow. The current implementation for text wrapping follows s'
	DB	'imple rules suitable for English and possibly other languages'
	DB	'.', 00H
$SG11191 DB	'%.0f', 00H
	ORG $+3
$SG11193 DB	'Test paragraph 1:', 00H
	ORG $+2
$SG11194 DB	'The lazy dog is a good dog. This paragraph is made to fi'
	DB	't within %.0f pixels. Testing a 1 character word. The quick b'
	DB	'rown fox jumps over the lazy dog.', 00H
	ORG $+1
$SG11195 DB	'Test paragraph 2:', 00H
	ORG $+2
$SG11198 DB	'UTF-8 Text', 00H
	ORG $+1
$SG11196 DB	'aaaaaaaa bbbbbbbb, c cccccccc,dddddddd. d eeeeeeee   fff'
	DB	'fffff. gggggggg!hhhhhhhh', 00H
	ORG $+3
$SG11200 DB	'Hiragana: ', 0e3H, 081H, 08bH, 0e3H, 081H, 08dH, 0e3H, 081H
	DB	08fH, 0e3H, 081H, 091H, 0e3H, 081H, 093H, ' (kakikukeko)', 00H
	ORG $+1
$SG11201 DB	'Kanjis: ', 0e6H, 097H, 0a5H, 0e6H, 09cH, 0acH, 0e8H, 0aaH
	DB	09eH, ' (nihongo)', 00H
$SG11199 DB	'CJK text will only appears if the font was loaded with t'
	DB	'he appropriate CJK character ranges. Call io.Font->LoadFromFi'
	DB	'leTTF() manually to load extra character ranges.', 00H
	ORG $+2
$SG11202 DB	'UTF-8 input', 00H
$SG11204 DB	'Images', 00H
	ORG $+1
$SG11206 DB	'%.0fx%.0f', 00H
	ORG $+2
$SG11205 DB	'Below we are displaying the font texture (which is the o'
	DB	'nly texture we have access to in this demo). Use the ''ImText'
	DB	'ureID'' type as storage to pass pointers or identifier to you'
	DB	'r own texture data. Hover the texture for a zoomed view!', 00H
	ORG $+3
$SG11214 DB	'Min: (%.2f, %.2f)', 00H
	ORG $+2
$SG11215 DB	'Max: (%.2f, %.2f)', 00H
	ORG $+2
$SG11216 DB	'And now some textured buttons..', 00H
$SG11218 DB	'Pressed %d times.', 00H
	ORG $+2
$SG11220 DB	'Selectables', 00H
$SG11222 DB	'Basic', 00H
	ORG $+2
$SG11223 DB	'1. I am selectable', 00H
	ORG $+1
$SG11224 DB	'2. I am selectable', 00H
	ORG $+1
$SG11225 DB	'3. I am not selectable', 00H
	ORG $+1
$SG11226 DB	'4. I am selectable', 00H
	ORG $+1
$SG11228 DB	'5. I am double clickable', 00H
	ORG $+3
$SG11231 DB	'Rendering more text into the same block', 00H
$SG11232 DB	'main.c', 00H
	ORG $+1
$SG11233 DB	' 2,345 bytes', 00H
	ORG $+3
$SG11234 DB	'Hello.cpp', 00H
	ORG $+2
$SG11235 DB	'12,345 bytes', 00H
	ORG $+3
$SG11236 DB	'Hello.h', 00H
$SG11237 DB	' 2,345 bytes', 00H
	ORG $+3
$SG11239 DB	'In columns', 00H
	ORG $+1
$SG11240 DB	'Item %d', 00H
$SG11243 DB	'Grid', 00H
	ORG $+3
$SG12269 DB	'Example: Constrained Resize', 00H
$SG11245 DB	'Sailor', 00H
	ORG $+1
$SG12270 DB	'Resize vertical only', 00H
	ORG $+3
$SG12271 DB	'Resize horizontal only', 00H
	ORG $+1
$SG12272 DB	'Width > 100, Height > 100', 00H
	ORG $+2
$SG12273 DB	'Width 300-400', 00H
	ORG $+2
$SG12274 DB	'Custom: Always Square', 00H
	ORG $+2
$SG12275 DB	'Custom: Fixed Steps (100)', 00H
	ORG $+2
$SG12276 DB	'Constraint', 00H
	ORG $+1
$SG11252 DB	'Filtered Text Input', 00H
$SG11253 DB	'default', 00H
$SG12278 DB	'200x200', 00H
$SG11254 DB	'decimal', 00H
$SG11255 DB	'hexadecimal', 00H
$SG12280 DB	'500x500', 00H
$SG11256 DB	'uppercase', 00H
	ORG $+2
$SG11257 DB	'no blank', 00H
	ORG $+3
$SG12282 DB	'800x200', 00H
$SG11258 DB	'"imgui" letters', 00H
$SG12283 DB	'Hello, sailor! Making this line long enough for the exam'
	DB	'ple.', 00H
	ORG $+3
$SG11259 DB	'Password input', 00H
	ORG $+1
$SG11260 DB	'password', 00H
	ORG $+3
$SG11261 DB	'Display all characters as ''*''.', 0aH, 'Disable clipboa'
	DB	'rd cut and copy.', 0aH, 'Disable logging.', 0aH, 00H
	ORG $+3
$SG11262 DB	'password (clear)', 00H
CONST	ENDS
PUBLIC	??0ImVec2@@QAE@MM@Z				; ImVec2::ImVec2
PUBLIC	??0ImVec4@@QAE@XZ				; ImVec4::ImVec4
PUBLIC	??0ImVec4@@QAE@MMMM@Z				; ImVec4::ImVec4
PUBLIC	?ShowUserGuide@ImGui@@YAXXZ			; ImGui::ShowUserGuide
PUBLIC	?ShowStyleEditor@ImGui@@YAXPAUImGuiStyle@@@Z	; ImGui::ShowStyleEditor
PUBLIC	?ShowTestWindow@ImGui@@YAXPA_N@Z		; ImGui::ShowTestWindow
PUBLIC	??1?$ImVector@UTextRange@ImGuiTextFilter@@@@QAE@XZ ; ImVector<ImGuiTextFilter::TextRange>::~ImVector<ImGuiTextFilter::TextRange>
PUBLIC	?empty@?$ImVector@UTextRange@ImGuiTextFilter@@@@QBE_NXZ ; ImVector<ImGuiTextFilter::TextRange>::empty
PUBLIC	??1ImGuiTextFilter@@QAE@XZ			; ImGuiTextFilter::~ImGuiTextFilter
PUBLIC	?IsActive@ImGuiTextFilter@@QBE_NXZ		; ImGuiTextFilter::IsActive
PUBLIC	??0?$ImVector@D@@QAE@XZ				; ImVector<char>::ImVector<char>
PUBLIC	??1?$ImVector@D@@QAE@XZ				; ImVector<char>::~ImVector<char>
PUBLIC	?clear@?$ImVector@D@@QAEXXZ			; ImVector<char>::clear
PUBLIC	?front@?$ImVector@D@@QBEABDXZ			; ImVector<char>::front
PUBLIC	?back@?$ImVector@D@@QBEABDXZ			; ImVector<char>::back
PUBLIC	?_grow_capacity@?$ImVector@D@@QAEHH@Z		; ImVector<char>::_grow_capacity
PUBLIC	?reserve@?$ImVector@D@@QAEXH@Z			; ImVector<char>::reserve
PUBLIC	?push_back@?$ImVector@D@@QAEXABD@Z		; ImVector<char>::push_back
PUBLIC	??0ImGuiTextBuffer@@QAE@XZ			; ImGuiTextBuffer::ImGuiTextBuffer
PUBLIC	??AImGuiTextBuffer@@QAEDH@Z			; ImGuiTextBuffer::operator[]
PUBLIC	?begin@ImGuiTextBuffer@@QBEPBDXZ		; ImGuiTextBuffer::begin
PUBLIC	?end@ImGuiTextBuffer@@QBEPBDXZ			; ImGuiTextBuffer::end
PUBLIC	?size@ImGuiTextBuffer@@QBEHXZ			; ImGuiTextBuffer::size
PUBLIC	?clear@ImGuiTextBuffer@@QAEXXZ			; ImGuiTextBuffer::clear
PUBLIC	??1ImGuiTextBuffer@@QAE@XZ			; ImGuiTextBuffer::~ImGuiTextBuffer
PUBLIC	??0ImColor@@QAE@HHHH@Z				; ImColor::ImColor
PUBLIC	??0ImColor@@QAE@MMMM@Z				; ImColor::ImColor
PUBLIC	??0ImColor@@QAE@ABUImVec4@@@Z			; ImColor::ImColor
PUBLIC	??BImColor@@QBEIXZ				; ImColor::operator unsigned int
PUBLIC	??BImColor@@QBE?AUImVec4@@XZ			; ImColor::operator ImVec4
PUBLIC	?HSV@ImColor@@SA?AU1@MMMM@Z			; ImColor::HSV
PUBLIC	??0ImGuiListClipper@@QAE@HM@Z			; ImGuiListClipper::ImGuiListClipper
PUBLIC	??1ImGuiListClipper@@QAE@XZ			; ImGuiListClipper::~ImGuiListClipper
PUBLIC	??0?$ImVector@UImVec2@@@@QAE@XZ			; ImVector<ImVec2>::ImVector<ImVec2>
PUBLIC	??1?$ImVector@UImVec2@@@@QAE@XZ			; ImVector<ImVec2>::~ImVector<ImVec2>
PUBLIC	?empty@?$ImVector@UImVec2@@@@QBE_NXZ		; ImVector<ImVec2>::empty
PUBLIC	??A?$ImVector@UImVec2@@@@QAEAAUImVec2@@H@Z	; ImVector<ImVec2>::operator[]
PUBLIC	?clear@?$ImVector@UImVec2@@@@QAEXXZ		; ImVector<ImVec2>::clear
PUBLIC	?_grow_capacity@?$ImVector@UImVec2@@@@QAEHH@Z	; ImVector<ImVec2>::_grow_capacity
PUBLIC	?reserve@?$ImVector@UImVec2@@@@QAEXH@Z		; ImVector<ImVec2>::reserve
PUBLIC	?push_back@?$ImVector@UImVec2@@@@QAEXABUImVec2@@@Z ; ImVector<ImVec2>::push_back
PUBLIC	?pop_back@?$ImVector@UImVec2@@@@QAEXXZ		; ImVector<ImVec2>::pop_back
PUBLIC	??A?$ImVector@PAUImFont@@@@QAEAAPAUImFont@@H@Z	; ImVector<ImFont *>::operator[]
PUBLIC	_cosf
PUBLIC	_sinf
PUBLIC	??0?$ImVector@PAD@@QAE@XZ			; ImVector<char *>::ImVector<char *>
PUBLIC	??1?$ImVector@PAD@@QAE@XZ			; ImVector<char *>::~ImVector<char *>
PUBLIC	??A?$ImVector@PAD@@QAEAAPADH@Z			; ImVector<char *>::operator[]
PUBLIC	?clear@?$ImVector@PAD@@QAEXXZ			; ImVector<char *>::clear
PUBLIC	?begin@?$ImVector@PAD@@QAEPAPADXZ		; ImVector<char *>::begin
PUBLIC	?_grow_capacity@?$ImVector@PAD@@QAEHH@Z		; ImVector<char *>::_grow_capacity
PUBLIC	?reserve@?$ImVector@PAD@@QAEXH@Z		; ImVector<char *>::reserve
PUBLIC	?push_back@?$ImVector@PAD@@QAEXABQAD@Z		; ImVector<char *>::push_back
PUBLIC	?erase@?$ImVector@PAD@@QAEPAPADPBQAD@Z		; ImVector<char *>::erase
PUBLIC	??0?$ImVector@PBD@@QAE@XZ			; ImVector<char const *>::ImVector<char const *>
PUBLIC	??1?$ImVector@PBD@@QAE@XZ			; ImVector<char const *>::~ImVector<char const *>
PUBLIC	??A?$ImVector@PBD@@QAEAAPBDH@Z			; ImVector<char const *>::operator[]
PUBLIC	?_grow_capacity@?$ImVector@PBD@@QAEHH@Z		; ImVector<char const *>::_grow_capacity
PUBLIC	?reserve@?$ImVector@PBD@@QAEXH@Z		; ImVector<char const *>::reserve
PUBLIC	?push_back@?$ImVector@PBD@@QAEXABQBD@Z		; ImVector<char const *>::push_back
PUBLIC	??0ExampleAppConsole@@QAE@XZ			; ExampleAppConsole::ExampleAppConsole
PUBLIC	??1ExampleAppConsole@@QAE@XZ			; ExampleAppConsole::~ExampleAppConsole
PUBLIC	?Stricmp@ExampleAppConsole@@SAHPBD0@Z		; ExampleAppConsole::Stricmp
PUBLIC	?Strnicmp@ExampleAppConsole@@SAHPBD0H@Z		; ExampleAppConsole::Strnicmp
PUBLIC	?Strdup@ExampleAppConsole@@SAPADPBD@Z		; ExampleAppConsole::Strdup
PUBLIC	?ClearLog@ExampleAppConsole@@QAEXXZ		; ExampleAppConsole::ClearLog
PUBLIC	?AddLog@ExampleAppConsole@@QAAXPBDZZ		; ExampleAppConsole::AddLog
PUBLIC	?Draw@ExampleAppConsole@@QAEXPBDPA_N@Z		; ExampleAppConsole::Draw
PUBLIC	?ExecCommand@ExampleAppConsole@@QAEXPBD@Z	; ExampleAppConsole::ExecCommand
PUBLIC	?TextEditCallbackStub@ExampleAppConsole@@SAHPAUImGuiTextEditCallbackData@@@Z ; ExampleAppConsole::TextEditCallbackStub
PUBLIC	?TextEditCallback@ExampleAppConsole@@QAEHPAUImGuiTextEditCallbackData@@@Z ; ExampleAppConsole::TextEditCallback
PUBLIC	??$__vcrt_va_start_verify_argument_type@PBD@@YAXXZ ; __vcrt_va_start_verify_argument_type<char const *>
PUBLIC	??__Ffilter@?1??Draw@ExampleAppConsole@@QAEXPBDPA_N@Z@YAXXZ ; `ExampleAppConsole::Draw'::`2'::`dynamic atexit destructor for 'filter''
PUBLIC	??0?$ImVector@H@@QAE@XZ				; ImVector<int>::ImVector<int>
PUBLIC	??1?$ImVector@H@@QAE@XZ				; ImVector<int>::~ImVector<int>
PUBLIC	??A?$ImVector@H@@QAEAAHH@Z			; ImVector<int>::operator[]
PUBLIC	?clear@?$ImVector@H@@QAEXXZ			; ImVector<int>::clear
PUBLIC	?_grow_capacity@?$ImVector@H@@QAEHH@Z		; ImVector<int>::_grow_capacity
PUBLIC	?reserve@?$ImVector@H@@QAEXH@Z			; ImVector<int>::reserve
PUBLIC	?push_back@?$ImVector@H@@QAEXABH@Z		; ImVector<int>::push_back
PUBLIC	?Clear@ExampleAppLog@@QAEXXZ			; ExampleAppLog::Clear
PUBLIC	?AddLog@ExampleAppLog@@QAAXPBDZZ		; ExampleAppLog::AddLog
PUBLIC	?Draw@ExampleAppLog@@QAEXPBDPA_N@Z		; ExampleAppLog::Draw
PUBLIC	??0ExampleAppLog@@QAE@XZ			; ExampleAppLog::ExampleAppLog
PUBLIC	??1ExampleAppLog@@QAE@XZ			; ExampleAppLog::~ExampleAppLog
PUBLIC	??_C@_05EAJAAGNN@imgui?$AA@			; `string'
PUBLIC	??_C@_04DOKPJKJF@HELP?$AA@			; `string'
PUBLIC	??_C@_07DBIJIOJO@HISTORY?$AA@			; `string'
PUBLIC	??_C@_05PONODPI@CLEAR?$AA@			; `string'
PUBLIC	??_C@_08GOHMLCGG@CLASSIFY?$AA@			; `string'
PUBLIC	??_C@_0BC@JPCINNJN@Welcome?5to?5ImGui?$CB?$AA@	; `string'
PUBLIC	?filter@?1??Draw@ExampleAppConsole@@QAEXPBDPA_N@Z@4UImGuiTextFilter@@A ; `ExampleAppConsole::Draw'::`2'::filter
PUBLIC	?$TSS0@?1??Draw@ExampleAppConsole@@QAEXPBDPA_N@Z@4HA ; TSS0<`template-parameter-2',ExampleAppConsole::aw,unsigned char * const,void,char const *,bool *>
PUBLIC	??_C@_0MA@ICGIOBFG@This?5example?5implements?5a?5consol@ ; `string'
PUBLIC	??_C@_0DJ@NBHLDCP@Enter?5?8HELP?8?5for?5help?0?5press?5TAB@ ; `string'
PUBLIC	??_C@_0P@CGJDLLEJ@Add?5Dummy?5Text?$AA@		; `string'
PUBLIC	??_C@_0N@OJGBPOOP@?$CFd?5some?5text?$AA@	; `string'
PUBLIC	??_C@_0P@BMHJKMPF@some?5more?5text?$AA@		; `string'
PUBLIC	??_C@_0CF@PEIDNPCH@display?5very?5important?5message?5h@ ; `string'
PUBLIC	??_C@_0BA@HHKLEHKC@Add?5Dummy?5Error?$AA@	; `string'
PUBLIC	??_C@_0BN@KNPJMMPE@?$FLerror?$FN?5something?5went?5wrong?$AA@ ; `string'
PUBLIC	??_C@_05MDNHABIA@Clear?$AA@			; `string'
PUBLIC	??_C@_0BB@GPFIAMJC@Scroll?5to?5bottom?$AA@	; `string'
PUBLIC	??_C@_00CNPNBAHC@?$AA@				; `string'
PUBLIC	??_C@_0CA@HIABFBKB@Filter?5?$CI?$CCincl?0?9excl?$CC?$CJ?5?$CI?$CCerror?$CC?$CJ?$AA@ ; `string'
PUBLIC	??_C@_0BA@KOEFNJOK@ScrollingRegion?$AA@		; `string'
PUBLIC	??_C@_07LFMCMLFD@?$FLerror?$FN?$AA@		; `string'
PUBLIC	??_C@_02KPDBPKPG@?$CD?5?$AA@			; `string'
PUBLIC	??_C@_05DCDOHKAB@Input?$AA@			; `string'
PUBLIC	??_C@_05DFHAGHEP@?$CD?5?$CFs?6?$AA@		; `string'
PUBLIC	??_C@_09GJFNIAOH@Commands?3?$AA@		; `string'
PUBLIC	??_C@_04JKCKOCFH@?9?5?$CFs?$AA@			; `string'
PUBLIC	??_C@_08PKLPHKJF@?$CF3d?3?5?$CFs?6?$AA@		; `string'
PUBLIC	??_C@_0BH@OKLFOGKH@Unknown?5command?3?5?8?$CFs?8?6?$AA@ ; `string'
PUBLIC	??_C@_0BG@DOPMHGPK@No?5match?5for?5?$CC?$CF?4?$CKs?$CC?$CB?6?$AA@ ; `string'
PUBLIC	??_C@_01CLKCMJKC@?5?$AA@			; `string'
PUBLIC	??_C@_0BD@LCPLNAHF@Possible?5matches?3?6?$AA@	; `string'
PUBLIC	??_C@_05PHKAGDP@?9?5?$CFs?6?$AA@		; `string'
PUBLIC	??_C@_02DKCKIIND@?$CFs?$AA@			; `string'
PUBLIC	??_C@_04OPMHGHMB@Copy?$AA@			; `string'
PUBLIC	??_C@_06IBDJIBGI@Filter?$AA@			; `string'
PUBLIC	??_C@_09PKEBEIDM@scrolling?$AA@			; `string'
PUBLIC	?dummy_members@?4??ShowDummyObject@funcs@?1??ShowExampleAppPropertyEditor@@YAXPA_N@Z@SAXPBDH@Z@4PAMA ; ``ShowExampleAppPropertyEditor'::`2'::funcs::ShowDummyObject'::`5'::dummy_members
PUBLIC	??_C@_05FIIOEGIK@?$CFs_?$CFu?$AA@		; `string'
PUBLIC	??_C@_06ELFECKBG@Object?$AA@			; `string'
PUBLIC	??_C@_0BC@LIBEHHHH@my?5sailor?5is?5rich?$AA@	; `string'
PUBLIC	??_C@_05GIMBDOHM@Child?$AA@			; `string'
PUBLIC	??_C@_08BNKJGCPO@Field_?$CFd?$AA@		; `string'
PUBLIC	??_C@_07FBBIKLOB@?$CD?$CDvalue?$AA@		; `string'
PUBLIC	??_C@_04GFJLOHHD@?$CF?43f?$AA@			; `string'
PUBLIC	__real@00000000
PUBLIC	__real@3b808081
PUBLIC	__real@3c888889
PUBLIC	__real@3d4ccccd
PUBLIC	__real@3dcccccd
PUBLIC	__real@3e124925
PUBLIC	__real@3e2e147b
PUBLIC	__real@3e800000
PUBLIC	__real@3e99999a
PUBLIC	__real@3ecccccd
PUBLIC	__real@3f000000
PUBLIC	__real@3f0ccccd
PUBLIC	__real@3f800000
PUBLIC	__real@3f8ccccd
PUBLIC	__real@3fa66666
PUBLIC	__real@40400000
PUBLIC	__real@40800000
PUBLIC	__real@40e00000
PUBLIC	__real@41000000
PUBLIC	__real@41200000
PUBLIC	__real@41800000
PUBLIC	__real@41a00000
PUBLIC	__real@41c00000
PUBLIC	__real@41f00000
PUBLIC	__real@42000000
PUBLIC	__real@42200000
PUBLIC	__real@42480000
PUBLIC	__real@42800000
PUBLIC	__real@447a0000
PUBLIC	__real@44db2000
PUBLIC	__real@bdcccccd
PUBLIC	__real@bf800000
PUBLIC	__real@c47a0000
PUBLIC	__xmm@3f0080813f8000003f8000003f800000
PUBLIC	__xmm@3f19999a3f4ccccd3e4ccccd3f000000
PUBLIC	__xmm@3f800000000000000000000000000000
PUBLIC	__xmm@3f80000000000000000000003f800000
PUBLIC	__xmm@3f800000000000003f80000000000000
PUBLIC	__xmm@3f800000000000003f8000003f800000
PUBLIC	__xmm@3f8000003e48c8ca3e48c8ca3e48c8ca
PUBLIC	__xmm@3f8000003e70f0f23e48c8ca3e48c8ca
PUBLIC	__xmm@3f8000003e8c8c8d3e70f0f23e70f0f2
PUBLIC	__xmm@3f8000003ecccccd3ecccccd3f800000
PUBLIC	__xmm@3f8000003ef0f0f23eb4b4b53eb4b4b5
PUBLIC	__xmm@3f8000003f147ae13f47ae143f800000
PUBLIC	__xmm@3f8000003f800000000000003f800000
PUBLIC	__xmm@3f8000003f8000003f0000003f4ccccd
PUBLIC	__xmm@3f8000003f8000003f8000003f800000
PUBLIC	__xmm@80000000800000008000000080000000
EXTRN	_atexit:PROC
EXTRN	__Init_thread_header:PROC
EXTRN	__Init_thread_abort:PROC
EXTRN	__Init_thread_footer:PROC
EXTRN	___std_terminate:PROC
EXTRN	__imp__memmove:PROC
EXTRN	__imp__strchr:PROC
EXTRN	__imp__strstr:PROC
EXTRN	__imp__strncmp:PROC
EXTRN	?GetIO@ImGui@@YAAAUImGuiIO@@XZ:PROC		; ImGui::GetIO
EXTRN	?GetStyle@ImGui@@YAAAUImGuiStyle@@XZ:PROC	; ImGui::GetStyle
EXTRN	?ShowMetricsWindow@ImGui@@YAXPA_N@Z:PROC	; ImGui::ShowMetricsWindow
EXTRN	?Begin@ImGui@@YA_NPBDPA_NH@Z:PROC		; ImGui::Begin
EXTRN	?Begin@ImGui@@YA_NPBDPA_NABUImVec2@@MH@Z:PROC	; ImGui::Begin
EXTRN	?End@ImGui@@YAXXZ:PROC				; ImGui::End
EXTRN	?BeginChild@ImGui@@YA_NPBDABUImVec2@@_NH@Z:PROC	; ImGui::BeginChild
EXTRN	?BeginChild@ImGui@@YA_NIABUImVec2@@_NH@Z:PROC	; ImGui::BeginChild
EXTRN	?EndChild@ImGui@@YAXXZ:PROC			; ImGui::EndChild
EXTRN	?GetContentRegionAvail@ImGui@@YA?AUImVec2@@XZ:PROC ; ImGui::GetContentRegionAvail
EXTRN	?GetContentRegionAvailWidth@ImGui@@YAMXZ:PROC	; ImGui::GetContentRegionAvailWidth
EXTRN	?GetWindowContentRegionWidth@ImGui@@YAMXZ:PROC	; ImGui::GetWindowContentRegionWidth
EXTRN	?GetWindowDrawList@ImGui@@YAPAUImDrawList@@XZ:PROC ; ImGui::GetWindowDrawList
EXTRN	?GetWindowWidth@ImGui@@YAMXZ:PROC		; ImGui::GetWindowWidth
EXTRN	?SetWindowFontScale@ImGui@@YAXM@Z:PROC		; ImGui::SetWindowFontScale
EXTRN	?SetNextWindowPos@ImGui@@YAXABUImVec2@@H@Z:PROC	; ImGui::SetNextWindowPos
EXTRN	?SetNextWindowSize@ImGui@@YAXABUImVec2@@H@Z:PROC ; ImGui::SetNextWindowSize
EXTRN	?SetNextWindowSizeConstraints@ImGui@@YAXABUImVec2@@0P6AXPAUImGuiSizeConstraintCallbackData@@@ZPAX@Z:PROC ; ImGui::SetNextWindowSizeConstraints
EXTRN	?SetWindowSize@ImGui@@YAXABUImVec2@@H@Z:PROC	; ImGui::SetWindowSize
EXTRN	?GetScrollX@ImGui@@YAMXZ:PROC			; ImGui::GetScrollX
EXTRN	?SetScrollX@ImGui@@YAXM@Z:PROC			; ImGui::SetScrollX
EXTRN	?SetScrollHere@ImGui@@YAXM@Z:PROC		; ImGui::SetScrollHere
EXTRN	?SetScrollFromPosY@ImGui@@YAXMM@Z:PROC		; ImGui::SetScrollFromPosY
EXTRN	?SetKeyboardFocusHere@ImGui@@YAXH@Z:PROC	; ImGui::SetKeyboardFocusHere
EXTRN	?PushFont@ImGui@@YAXPAUImFont@@@Z:PROC		; ImGui::PushFont
EXTRN	?PopFont@ImGui@@YAXXZ:PROC			; ImGui::PopFont
EXTRN	?PushStyleColor@ImGui@@YAXHABUImVec4@@@Z:PROC	; ImGui::PushStyleColor
EXTRN	?PopStyleColor@ImGui@@YAXH@Z:PROC		; ImGui::PopStyleColor
EXTRN	?PushStyleVar@ImGui@@YAXHM@Z:PROC		; ImGui::PushStyleVar
EXTRN	?PushStyleVar@ImGui@@YAXHABUImVec2@@@Z:PROC	; ImGui::PushStyleVar
EXTRN	?PopStyleVar@ImGui@@YAXH@Z:PROC			; ImGui::PopStyleVar
EXTRN	?GetFont@ImGui@@YAPAUImFont@@XZ:PROC		; ImGui::GetFont
EXTRN	?GetFontSize@ImGui@@YAMXZ:PROC			; ImGui::GetFontSize
EXTRN	?GetColorU32@ImGui@@YAIHM@Z:PROC		; ImGui::GetColorU32
EXTRN	?PushItemWidth@ImGui@@YAXM@Z:PROC		; ImGui::PushItemWidth
EXTRN	?PopItemWidth@ImGui@@YAXXZ:PROC			; ImGui::PopItemWidth
EXTRN	?PushTextWrapPos@ImGui@@YAXM@Z:PROC		; ImGui::PushTextWrapPos
EXTRN	?PopTextWrapPos@ImGui@@YAXXZ:PROC		; ImGui::PopTextWrapPos
EXTRN	?PushAllowKeyboardFocus@ImGui@@YAX_N@Z:PROC	; ImGui::PushAllowKeyboardFocus
EXTRN	?PopAllowKeyboardFocus@ImGui@@YAXXZ:PROC	; ImGui::PopAllowKeyboardFocus
EXTRN	?Separator@ImGui@@YAXXZ:PROC			; ImGui::Separator
EXTRN	?SameLine@ImGui@@YAXMM@Z:PROC			; ImGui::SameLine
EXTRN	?NewLine@ImGui@@YAXXZ:PROC			; ImGui::NewLine
EXTRN	?Spacing@ImGui@@YAXXZ:PROC			; ImGui::Spacing
EXTRN	?Dummy@ImGui@@YAXABUImVec2@@@Z:PROC		; ImGui::Dummy
EXTRN	?Indent@ImGui@@YAXM@Z:PROC			; ImGui::Indent
EXTRN	?Unindent@ImGui@@YAXM@Z:PROC			; ImGui::Unindent
EXTRN	?BeginGroup@ImGui@@YAXXZ:PROC			; ImGui::BeginGroup
EXTRN	?EndGroup@ImGui@@YAXXZ:PROC			; ImGui::EndGroup
EXTRN	?GetCursorPos@ImGui@@YA?AUImVec2@@XZ:PROC	; ImGui::GetCursorPos
EXTRN	?GetCursorStartPos@ImGui@@YA?AUImVec2@@XZ:PROC	; ImGui::GetCursorStartPos
EXTRN	?GetCursorScreenPos@ImGui@@YA?AUImVec2@@XZ:PROC	; ImGui::GetCursorScreenPos
EXTRN	?AlignFirstTextHeightToWidgets@ImGui@@YAXXZ:PROC ; ImGui::AlignFirstTextHeightToWidgets
EXTRN	?GetTextLineHeight@ImGui@@YAMXZ:PROC		; ImGui::GetTextLineHeight
EXTRN	?GetItemsLineHeightWithSpacing@ImGui@@YAMXZ:PROC ; ImGui::GetItemsLineHeightWithSpacing
EXTRN	?Columns@ImGui@@YAXHPBD_N@Z:PROC		; ImGui::Columns
EXTRN	?NextColumn@ImGui@@YAXXZ:PROC			; ImGui::NextColumn
EXTRN	?PushID@ImGui@@YAXPBD@Z:PROC			; ImGui::PushID
EXTRN	?PushID@ImGui@@YAXH@Z:PROC			; ImGui::PushID
EXTRN	?PopID@ImGui@@YAXXZ:PROC			; ImGui::PopID
EXTRN	?GetID@ImGui@@YAIPBX@Z:PROC			; ImGui::GetID
EXTRN	?Text@ImGui@@YAXPBDZZ:PROC			; ImGui::Text
EXTRN	?TextColored@ImGui@@YAXABUImVec4@@PBDZZ:PROC	; ImGui::TextColored
EXTRN	?TextDisabled@ImGui@@YAXPBDZZ:PROC		; ImGui::TextDisabled
EXTRN	?TextWrapped@ImGui@@YAXPBDZZ:PROC		; ImGui::TextWrapped
EXTRN	?TextUnformatted@ImGui@@YAXPBD0@Z:PROC		; ImGui::TextUnformatted
EXTRN	?LabelText@ImGui@@YAXPBD0ZZ:PROC		; ImGui::LabelText
EXTRN	?Bullet@ImGui@@YAXXZ:PROC			; ImGui::Bullet
EXTRN	?BulletText@ImGui@@YAXPBDZZ:PROC		; ImGui::BulletText
EXTRN	?Button@ImGui@@YA_NPBDABUImVec2@@@Z:PROC	; ImGui::Button
EXTRN	?SmallButton@ImGui@@YA_NPBD@Z:PROC		; ImGui::SmallButton
EXTRN	?InvisibleButton@ImGui@@YA_NPBDABUImVec2@@@Z:PROC ; ImGui::InvisibleButton
EXTRN	?Image@ImGui@@YAXPAXABUImVec2@@11ABUImVec4@@2@Z:PROC ; ImGui::Image
EXTRN	?ImageButton@ImGui@@YA_NPAXABUImVec2@@11HABUImVec4@@2@Z:PROC ; ImGui::ImageButton
EXTRN	?Checkbox@ImGui@@YA_NPBDPA_N@Z:PROC		; ImGui::Checkbox
EXTRN	?RadioButton@ImGui@@YA_NPBDPAHH@Z:PROC		; ImGui::RadioButton
EXTRN	?Combo@ImGui@@YA_NPBDPAHPBQBDHH@Z:PROC		; ImGui::Combo
EXTRN	?Combo@ImGui@@YA_NPBDPAH0H@Z:PROC		; ImGui::Combo
EXTRN	?ColorButton@ImGui@@YA_NABUImVec4@@_N1@Z:PROC	; ImGui::ColorButton
EXTRN	?ColorEdit3@ImGui@@YA_NPBDQAM@Z:PROC		; ImGui::ColorEdit3
EXTRN	?ColorEdit4@ImGui@@YA_NPBDQAM_N@Z:PROC		; ImGui::ColorEdit4
EXTRN	?ColorEditMode@ImGui@@YAXH@Z:PROC		; ImGui::ColorEditMode
EXTRN	?PlotLines@ImGui@@YAXPBDPBMHH0MMUImVec2@@H@Z:PROC ; ImGui::PlotLines
EXTRN	?PlotLines@ImGui@@YAXPBDP6AMPAXH@Z1HH0MMUImVec2@@@Z:PROC ; ImGui::PlotLines
EXTRN	?PlotHistogram@ImGui@@YAXPBDPBMHH0MMUImVec2@@H@Z:PROC ; ImGui::PlotHistogram
EXTRN	?PlotHistogram@ImGui@@YAXPBDP6AMPAXH@Z1HH0MMUImVec2@@@Z:PROC ; ImGui::PlotHistogram
EXTRN	?ProgressBar@ImGui@@YAXMABUImVec2@@PBD@Z:PROC	; ImGui::ProgressBar
EXTRN	?DragFloat@ImGui@@YA_NPBDPAMMMM0M@Z:PROC	; ImGui::DragFloat
EXTRN	?DragFloat2@ImGui@@YA_NPBDQAMMMM0M@Z:PROC	; ImGui::DragFloat2
EXTRN	?DragFloat3@ImGui@@YA_NPBDQAMMMM0M@Z:PROC	; ImGui::DragFloat3
EXTRN	?DragFloat4@ImGui@@YA_NPBDQAMMMM0M@Z:PROC	; ImGui::DragFloat4
EXTRN	?DragFloatRange2@ImGui@@YA_NPBDPAM1MMM00M@Z:PROC ; ImGui::DragFloatRange2
EXTRN	?DragInt@ImGui@@YA_NPBDPAHMHH0@Z:PROC		; ImGui::DragInt
EXTRN	?DragInt2@ImGui@@YA_NPBDQAHMHH0@Z:PROC		; ImGui::DragInt2
EXTRN	?DragInt3@ImGui@@YA_NPBDQAHMHH0@Z:PROC		; ImGui::DragInt3
EXTRN	?DragInt4@ImGui@@YA_NPBDQAHMHH0@Z:PROC		; ImGui::DragInt4
EXTRN	?DragIntRange2@ImGui@@YA_NPBDPAH1MHH00@Z:PROC	; ImGui::DragIntRange2
EXTRN	?InputText@ImGui@@YA_NPBDPADIHP6AHPAUImGuiTextEditCallbackData@@@ZPAX@Z:PROC ; ImGui::InputText
EXTRN	?InputTextMultiline@ImGui@@YA_NPBDPADIABUImVec2@@HP6AHPAUImGuiTextEditCallbackData@@@ZPAX@Z:PROC ; ImGui::InputTextMultiline
EXTRN	?InputFloat@ImGui@@YA_NPBDPAMMMHH@Z:PROC	; ImGui::InputFloat
EXTRN	?InputFloat2@ImGui@@YA_NPBDQAMHH@Z:PROC		; ImGui::InputFloat2
EXTRN	?InputFloat3@ImGui@@YA_NPBDQAMHH@Z:PROC		; ImGui::InputFloat3
EXTRN	?InputFloat4@ImGui@@YA_NPBDQAMHH@Z:PROC		; ImGui::InputFloat4
EXTRN	?InputInt@ImGui@@YA_NPBDPAHHHH@Z:PROC		; ImGui::InputInt
EXTRN	?InputInt2@ImGui@@YA_NPBDQAHH@Z:PROC		; ImGui::InputInt2
EXTRN	?InputInt3@ImGui@@YA_NPBDQAHH@Z:PROC		; ImGui::InputInt3
EXTRN	?InputInt4@ImGui@@YA_NPBDQAHH@Z:PROC		; ImGui::InputInt4
EXTRN	?SliderFloat@ImGui@@YA_NPBDPAMMM0M@Z:PROC	; ImGui::SliderFloat
EXTRN	?SliderFloat2@ImGui@@YA_NPBDQAMMM0M@Z:PROC	; ImGui::SliderFloat2
EXTRN	?SliderFloat3@ImGui@@YA_NPBDQAMMM0M@Z:PROC	; ImGui::SliderFloat3
EXTRN	?SliderFloat4@ImGui@@YA_NPBDQAMMM0M@Z:PROC	; ImGui::SliderFloat4
EXTRN	?SliderAngle@ImGui@@YA_NPBDPAMMM@Z:PROC		; ImGui::SliderAngle
EXTRN	?SliderInt@ImGui@@YA_NPBDPAHHH0@Z:PROC		; ImGui::SliderInt
EXTRN	?SliderInt2@ImGui@@YA_NPBDQAHHH0@Z:PROC		; ImGui::SliderInt2
EXTRN	?SliderInt3@ImGui@@YA_NPBDQAHHH0@Z:PROC		; ImGui::SliderInt3
EXTRN	?SliderInt4@ImGui@@YA_NPBDQAHHH0@Z:PROC		; ImGui::SliderInt4
EXTRN	?VSliderFloat@ImGui@@YA_NPBDABUImVec2@@PAMMM0M@Z:PROC ; ImGui::VSliderFloat
EXTRN	?VSliderInt@ImGui@@YA_NPBDABUImVec2@@PAHHH0@Z:PROC ; ImGui::VSliderInt
EXTRN	?TreeNode@ImGui@@YA_NPBD@Z:PROC			; ImGui::TreeNode
EXTRN	?TreeNode@ImGui@@YA_NPBD0ZZ:PROC		; ImGui::TreeNode
EXTRN	?TreeNode@ImGui@@YA_NPBXPBDZZ:PROC		; ImGui::TreeNode
EXTRN	?TreeNodeEx@ImGui@@YA_NPBXHPBDZZ:PROC		; ImGui::TreeNodeEx
EXTRN	?TreePush@ImGui@@YAXPBX@Z:PROC			; ImGui::TreePush
EXTRN	?TreePop@ImGui@@YAXXZ:PROC			; ImGui::TreePop
EXTRN	?GetTreeNodeToLabelSpacing@ImGui@@YAMXZ:PROC	; ImGui::GetTreeNodeToLabelSpacing
EXTRN	?CollapsingHeader@ImGui@@YA_NPBDH@Z:PROC	; ImGui::CollapsingHeader
EXTRN	?CollapsingHeader@ImGui@@YA_NPBDPA_NH@Z:PROC	; ImGui::CollapsingHeader
EXTRN	?Selectable@ImGui@@YA_NPBD_NHABUImVec2@@@Z:PROC	; ImGui::Selectable
EXTRN	?Selectable@ImGui@@YA_NPBDPA_NHABUImVec2@@@Z:PROC ; ImGui::Selectable
EXTRN	?ListBox@ImGui@@YA_NPBDPAHPBQBDHH@Z:PROC	; ImGui::ListBox
EXTRN	?ListBoxHeader@ImGui@@YA_NPBDABUImVec2@@@Z:PROC	; ImGui::ListBoxHeader
EXTRN	?ListBoxFooter@ImGui@@YAXXZ:PROC		; ImGui::ListBoxFooter
EXTRN	?SetTooltip@ImGui@@YAXPBDZZ:PROC		; ImGui::SetTooltip
EXTRN	?BeginTooltip@ImGui@@YAXXZ:PROC			; ImGui::BeginTooltip
EXTRN	?EndTooltip@ImGui@@YAXXZ:PROC			; ImGui::EndTooltip
EXTRN	?BeginMainMenuBar@ImGui@@YA_NXZ:PROC		; ImGui::BeginMainMenuBar
EXTRN	?EndMainMenuBar@ImGui@@YAXXZ:PROC		; ImGui::EndMainMenuBar
EXTRN	?BeginMenuBar@ImGui@@YA_NXZ:PROC		; ImGui::BeginMenuBar
EXTRN	?EndMenuBar@ImGui@@YAXXZ:PROC			; ImGui::EndMenuBar
EXTRN	?BeginMenu@ImGui@@YA_NPBD_N@Z:PROC		; ImGui::BeginMenu
EXTRN	?EndMenu@ImGui@@YAXXZ:PROC			; ImGui::EndMenu
EXTRN	?MenuItem@ImGui@@YA_NPBD0_N1@Z:PROC		; ImGui::MenuItem
EXTRN	?MenuItem@ImGui@@YA_NPBD0PA_N_N@Z:PROC		; ImGui::MenuItem
EXTRN	?OpenPopup@ImGui@@YAXPBD@Z:PROC			; ImGui::OpenPopup
EXTRN	?BeginPopup@ImGui@@YA_NPBD@Z:PROC		; ImGui::BeginPopup
EXTRN	?BeginPopupModal@ImGui@@YA_NPBDPA_NH@Z:PROC	; ImGui::BeginPopupModal
EXTRN	?BeginPopupContextItem@ImGui@@YA_NPBDH@Z:PROC	; ImGui::BeginPopupContextItem
EXTRN	?BeginPopupContextWindow@ImGui@@YA_N_NPBDH@Z:PROC ; ImGui::BeginPopupContextWindow
EXTRN	?EndPopup@ImGui@@YAXXZ:PROC			; ImGui::EndPopup
EXTRN	?CloseCurrentPopup@ImGui@@YAXXZ:PROC		; ImGui::CloseCurrentPopup
EXTRN	?LogToTTY@ImGui@@YAXH@Z:PROC			; ImGui::LogToTTY
EXTRN	?LogToClipboard@ImGui@@YAXH@Z:PROC		; ImGui::LogToClipboard
EXTRN	?LogFinish@ImGui@@YAXXZ:PROC			; ImGui::LogFinish
EXTRN	?LogButtons@ImGui@@YAXXZ:PROC			; ImGui::LogButtons
EXTRN	?LogText@ImGui@@YAXPBDZZ:PROC			; ImGui::LogText
EXTRN	?IsItemHovered@ImGui@@YA_NXZ:PROC		; ImGui::IsItemHovered
EXTRN	?IsItemActive@ImGui@@YA_NXZ:PROC		; ImGui::IsItemActive
EXTRN	?IsItemFocused@ImGui@@YA_NXZ:PROC		; ImGui::IsItemFocused
EXTRN	?IsItemClicked@ImGui@@YA_NH@Z:PROC		; ImGui::IsItemClicked
EXTRN	?GetItemRectMin@ImGui@@YA?AUImVec2@@XZ:PROC	; ImGui::GetItemRectMin
EXTRN	?GetItemRectMax@ImGui@@YA?AUImVec2@@XZ:PROC	; ImGui::GetItemRectMax
EXTRN	?GetItemRectSize@ImGui@@YA?AUImVec2@@XZ:PROC	; ImGui::GetItemRectSize
EXTRN	?SetItemDefaultFocus@ImGui@@YAXXZ:PROC		; ImGui::SetItemDefaultFocus
EXTRN	?GetTime@ImGui@@YAMXZ:PROC			; ImGui::GetTime
EXTRN	?GetStyleColName@ImGui@@YAPBDH@Z:PROC		; ImGui::GetStyleColName
EXTRN	?CalcItemRectClosestPoint@ImGui@@YA?AUImVec2@@ABU2@_NM@Z:PROC ; ImGui::CalcItemRectClosestPoint
EXTRN	?ColorConvertFloat4ToU32@ImGui@@YAIABUImVec4@@@Z:PROC ; ImGui::ColorConvertFloat4ToU32
EXTRN	?ColorConvertHSVtoRGB@ImGui@@YAXMMMAAM00@Z:PROC	; ImGui::ColorConvertHSVtoRGB
EXTRN	?IsKeyPressed@ImGui@@YA_NH_N@Z:PROC		; ImGui::IsKeyPressed
EXTRN	?IsKeyReleased@ImGui@@YA_NH@Z:PROC		; ImGui::IsKeyReleased
EXTRN	?IsMouseClicked@ImGui@@YA_NH_N@Z:PROC		; ImGui::IsMouseClicked
EXTRN	?IsMouseDoubleClicked@ImGui@@YA_NH@Z:PROC	; ImGui::IsMouseDoubleClicked
EXTRN	?IsMouseReleased@ImGui@@YA_NH@Z:PROC		; ImGui::IsMouseReleased
EXTRN	?IsMouseDragging@ImGui@@YA_NHM@Z:PROC		; ImGui::IsMouseDragging
EXTRN	?IsMouseHoveringRect@ImGui@@YA_NABUImVec2@@0_N@Z:PROC ; ImGui::IsMouseHoveringRect
EXTRN	?GetMousePos@ImGui@@YA?AUImVec2@@XZ:PROC	; ImGui::GetMousePos
EXTRN	?GetMouseDragDelta@ImGui@@YA?AUImVec2@@HM@Z:PROC ; ImGui::GetMouseDragDelta
EXTRN	?SetMouseCursor@ImGui@@YAXH@Z:PROC		; ImGui::SetMouseCursor
EXTRN	?CaptureKeyboardFromApp@ImGui@@YAX_N@Z:PROC	; ImGui::CaptureKeyboardFromApp
EXTRN	?MemAlloc@ImGui@@YAPAXI@Z:PROC			; ImGui::MemAlloc
EXTRN	?MemFree@ImGui@@YAXPAX@Z:PROC			; ImGui::MemFree
EXTRN	?GetVersion@ImGui@@YAPBDXZ:PROC			; ImGui::GetVersion
EXTRN	??0ImGuiStyle@@QAE@XZ:PROC			; ImGuiStyle::ImGuiStyle
EXTRN	??0ImGuiTextFilter@@QAE@PBD@Z:PROC		; ImGuiTextFilter::ImGuiTextFilter
EXTRN	?Draw@ImGuiTextFilter@@QAE_NPBDM@Z:PROC		; ImGuiTextFilter::Draw
EXTRN	?PassFilter@ImGuiTextFilter@@QBE_NPBD0@Z:PROC	; ImGuiTextFilter::PassFilter
EXTRN	?append@ImGuiTextBuffer@@QAAXPBDZZ:PROC		; ImGuiTextBuffer::append
EXTRN	?appendv@ImGuiTextBuffer@@QAEXPBDPAD@Z:PROC	; ImGuiTextBuffer::appendv
EXTRN	?DeleteChars@ImGuiTextEditCallbackData@@QAEXHH@Z:PROC ; ImGuiTextEditCallbackData::DeleteChars
EXTRN	?InsertChars@ImGuiTextEditCallbackData@@QAEXHPBD0@Z:PROC ; ImGuiTextEditCallbackData::InsertChars
EXTRN	?Step@ImGuiListClipper@@QAE_NXZ:PROC		; ImGuiListClipper::Step
EXTRN	?Begin@ImGuiListClipper@@QAEXHM@Z:PROC		; ImGuiListClipper::Begin
EXTRN	?PushClipRect@ImDrawList@@QAEXUImVec2@@0_N@Z:PROC ; ImDrawList::PushClipRect
EXTRN	?PushClipRectFullScreen@ImDrawList@@QAEXXZ:PROC	; ImDrawList::PushClipRectFullScreen
EXTRN	?PopClipRect@ImDrawList@@QAEXXZ:PROC		; ImDrawList::PopClipRect
EXTRN	?AddLine@ImDrawList@@QAEXABUImVec2@@0IM@Z:PROC	; ImDrawList::AddLine
EXTRN	?AddRect@ImDrawList@@QAEXABUImVec2@@0IMHM@Z:PROC ; ImDrawList::AddRect
EXTRN	?AddRectFilled@ImDrawList@@QAEXABUImVec2@@0IMH@Z:PROC ; ImDrawList::AddRectFilled
EXTRN	?AddRectFilledMultiColor@ImDrawList@@QAEXABUImVec2@@0IIII@Z:PROC ; ImDrawList::AddRectFilledMultiColor
EXTRN	?AddTriangle@ImDrawList@@QAEXABUImVec2@@00IM@Z:PROC ; ImDrawList::AddTriangle
EXTRN	?AddTriangleFilled@ImDrawList@@QAEXABUImVec2@@00I@Z:PROC ; ImDrawList::AddTriangleFilled
EXTRN	?AddCircle@ImDrawList@@QAEXABUImVec2@@MIHM@Z:PROC ; ImDrawList::AddCircle
EXTRN	?AddCircleFilled@ImDrawList@@QAEXABUImVec2@@MIH@Z:PROC ; ImDrawList::AddCircleFilled
EXTRN	?AddText@ImDrawList@@QAEXPBUImFont@@MABUImVec2@@IPBD2MPBUImVec4@@@Z:PROC ; ImDrawList::AddText
EXTRN	?AddBezierCurve@ImDrawList@@QAEXABUImVec2@@000IMH@Z:PROC ; ImDrawList::AddBezierCurve
EXTRN	?FindGlyph@ImFont@@QBEPBUGlyph@1@G@Z:PROC	; ImFont::FindGlyph
EXTRN	?RenderChar@ImFont@@QBEXPAUImDrawList@@MUImVec2@@IG@Z:PROC ; ImFont::RenderChar
EXTRN	__imp__toupper:PROC
EXTRN	_printf:PROC
EXTRN	_vsnprintf:PROC
EXTRN	_sprintf:PROC
EXTRN	__snprintf:PROC
EXTRN	__imp__free:PROC
EXTRN	__imp__malloc:PROC
EXTRN	__imp__rand:PROC
EXTRN	___CxxFrameHandler3:PROC
EXTRN	___libm_sse2_cosf:PROC
EXTRN	___libm_sse2_sinf:PROC
EXTRN	_memcpy:PROC
EXTRN	_memset:PROC
EXTRN	__Init_thread_epoch:DWORD
EXTRN	__fltused:DWORD
EXTRN	__tls_array:DWORD
EXTRN	__tls_index:DWORD
;	COMDAT ?show_app_main_menu_bar@?1??ShowTestWindow@ImGui@@YAXPA_N@Z@4_NA
_BSS	SEGMENT
?show_app_main_menu_bar@?1??ShowTestWindow@ImGui@@YAXPA_N@Z@4_NA DB 01H DUP (?) ; `ImGui::ShowTestWindow'::`2'::show_app_main_menu_bar
_BSS	ENDS
;	COMDAT ?show_app_console@?1??ShowTestWindow@ImGui@@YAXPA_N@Z@4_NA
_BSS	SEGMENT
?show_app_console@?1??ShowTestWindow@ImGui@@YAXPA_N@Z@4_NA DB 01H DUP (?) ; `ImGui::ShowTestWindow'::`2'::show_app_console
_BSS	ENDS
;	COMDAT ?show_app_log@?1??ShowTestWindow@ImGui@@YAXPA_N@Z@4_NA
_BSS	SEGMENT
?show_app_log@?1??ShowTestWindow@ImGui@@YAXPA_N@Z@4_NA DB 01H DUP (?) ; `ImGui::ShowTestWindow'::`2'::show_app_log
_BSS	ENDS
;	COMDAT ?show_app_layout@?1??ShowTestWindow@ImGui@@YAXPA_N@Z@4_NA
_BSS	SEGMENT
?show_app_layout@?1??ShowTestWindow@ImGui@@YAXPA_N@Z@4_NA DB 01H DUP (?) ; `ImGui::ShowTestWindow'::`2'::show_app_layout
_BSS	ENDS
;	COMDAT ?show_app_property_editor@?1??ShowTestWindow@ImGui@@YAXPA_N@Z@4_NA
_BSS	SEGMENT
?show_app_property_editor@?1??ShowTestWindow@ImGui@@YAXPA_N@Z@4_NA DB 01H DUP (?) ; `ImGui::ShowTestWindow'::`2'::show_app_property_editor
_BSS	ENDS
;	COMDAT ?show_app_long_text@?1??ShowTestWindow@ImGui@@YAXPA_N@Z@4_NA
_BSS	SEGMENT
?show_app_long_text@?1??ShowTestWindow@ImGui@@YAXPA_N@Z@4_NA DB 01H DUP (?) ; `ImGui::ShowTestWindow'::`2'::show_app_long_text
_BSS	ENDS
;	COMDAT ?show_app_auto_resize@?1??ShowTestWindow@ImGui@@YAXPA_N@Z@4_NA
_BSS	SEGMENT
?show_app_auto_resize@?1??ShowTestWindow@ImGui@@YAXPA_N@Z@4_NA DB 01H DUP (?) ; `ImGui::ShowTestWindow'::`2'::show_app_auto_resize
_BSS	ENDS
;	COMDAT ?show_app_constrained_resize@?1??ShowTestWindow@ImGui@@YAXPA_N@Z@4_NA
_BSS	SEGMENT
?show_app_constrained_resize@?1??ShowTestWindow@ImGui@@YAXPA_N@Z@4_NA DB 01H DUP (?) ; `ImGui::ShowTestWindow'::`2'::show_app_constrained_resize
_BSS	ENDS
;	COMDAT ?show_app_fixed_overlay@?1??ShowTestWindow@ImGui@@YAXPA_N@Z@4_NA
_BSS	SEGMENT
?show_app_fixed_overlay@?1??ShowTestWindow@ImGui@@YAXPA_N@Z@4_NA DB 01H DUP (?) ; `ImGui::ShowTestWindow'::`2'::show_app_fixed_overlay
_BSS	ENDS
;	COMDAT ?show_app_manipulating_window_title@?1??ShowTestWindow@ImGui@@YAXPA_N@Z@4_NA
_BSS	SEGMENT
?show_app_manipulating_window_title@?1??ShowTestWindow@ImGui@@YAXPA_N@Z@4_NA DB 01H DUP (?) ; `ImGui::ShowTestWindow'::`2'::show_app_manipulating_window_title
_BSS	ENDS
;	COMDAT ?show_app_custom_rendering@?1??ShowTestWindow@ImGui@@YAXPA_N@Z@4_NA
_BSS	SEGMENT
?show_app_custom_rendering@?1??ShowTestWindow@ImGui@@YAXPA_N@Z@4_NA DB 01H DUP (?) ; `ImGui::ShowTestWindow'::`2'::show_app_custom_rendering
_BSS	ENDS
;	COMDAT ?show_app_style_editor@?1??ShowTestWindow@ImGui@@YAXPA_N@Z@4_NA
_BSS	SEGMENT
?show_app_style_editor@?1??ShowTestWindow@ImGui@@YAXPA_N@Z@4_NA DB 01H DUP (?) ; `ImGui::ShowTestWindow'::`2'::show_app_style_editor
_BSS	ENDS
;	COMDAT ?show_app_metrics@?1??ShowTestWindow@ImGui@@YAXPA_N@Z@4_NA
_BSS	SEGMENT
?show_app_metrics@?1??ShowTestWindow@ImGui@@YAXPA_N@Z@4_NA DB 01H DUP (?) ; `ImGui::ShowTestWindow'::`2'::show_app_metrics
_BSS	ENDS
;	COMDAT ?show_app_about@?1??ShowTestWindow@ImGui@@YAXPA_N@Z@4_NA
_BSS	SEGMENT
?show_app_about@?1??ShowTestWindow@ImGui@@YAXPA_N@Z@4_NA DB 01H DUP (?) ; `ImGui::ShowTestWindow'::`2'::show_app_about
_BSS	ENDS
;	COMDAT ?no_titlebar@?1??ShowTestWindow@ImGui@@YAXPA_N@Z@4_NA
_BSS	SEGMENT
?no_titlebar@?1??ShowTestWindow@ImGui@@YAXPA_N@Z@4_NA DB 01H DUP (?) ; `ImGui::ShowTestWindow'::`2'::no_titlebar
_BSS	ENDS
;	COMDAT ?no_resize@?1??ShowTestWindow@ImGui@@YAXPA_N@Z@4_NA
_BSS	SEGMENT
?no_resize@?1??ShowTestWindow@ImGui@@YAXPA_N@Z@4_NA DB 01H DUP (?) ; `ImGui::ShowTestWindow'::`2'::no_resize
_BSS	ENDS
;	COMDAT ?no_move@?1??ShowTestWindow@ImGui@@YAXPA_N@Z@4_NA
_BSS	SEGMENT
?no_move@?1??ShowTestWindow@ImGui@@YAXPA_N@Z@4_NA DB 01H DUP (?) ; `ImGui::ShowTestWindow'::`2'::no_move
_BSS	ENDS
;	COMDAT ?no_scrollbar@?1??ShowTestWindow@ImGui@@YAXPA_N@Z@4_NA
_BSS	SEGMENT
?no_scrollbar@?1??ShowTestWindow@ImGui@@YAXPA_N@Z@4_NA DB 01H DUP (?) ; `ImGui::ShowTestWindow'::`2'::no_scrollbar
_BSS	ENDS
;	COMDAT ?no_collapse@?1??ShowTestWindow@ImGui@@YAXPA_N@Z@4_NA
_BSS	SEGMENT
?no_collapse@?1??ShowTestWindow@ImGui@@YAXPA_N@Z@4_NA DB 01H DUP (?) ; `ImGui::ShowTestWindow'::`2'::no_collapse
_BSS	ENDS
;	COMDAT ?no_menu@?1??ShowTestWindow@ImGui@@YAXPA_N@Z@4_NA
_BSS	SEGMENT
?no_menu@?1??ShowTestWindow@ImGui@@YAXPA_N@Z@4_NA DB 01H DUP (?) ; `ImGui::ShowTestWindow'::`2'::no_menu
_BSS	ENDS
;	COMDAT ?no_nav@?1??ShowTestWindow@ImGui@@YAXPA_N@Z@4_NA
_BSS	SEGMENT
?no_nav@?1??ShowTestWindow@ImGui@@YAXPA_N@Z@4_NA DB 01H DUP (?) ; `ImGui::ShowTestWindow'::`2'::no_nav
_BSS	ENDS
;	COMDAT ?align_label_with_current_x_position@?FN@??ShowTestWindow@ImGui@@YAXPA_N@Z@4_NA
_BSS	SEGMENT
?align_label_with_current_x_position@?FN@??ShowTestWindow@ImGui@@YAXPA_N@Z@4_NA DB 01H DUP (?) ; `ImGui::ShowTestWindow'::`93'::align_label_with_current_x_position
_BSS	ENDS
;	COMDAT ?pressed_count@?IP@??ShowTestWindow@ImGui@@YAXPA_N@Z@4HA
_BSS	SEGMENT
?pressed_count@?IP@??ShowTestWindow@ImGui@@YAXPA_N@Z@4HA DD 01H DUP (?) ; `ImGui::ShowTestWindow'[::P]::pressed_count
_BSS	ENDS
;	COMDAT ?selected@?KN@??ShowTestWindow@ImGui@@YAXPA_N@Z@4PA_NA
_BSS	SEGMENT
?selected@?KN@??ShowTestWindow@ImGui@@YAXPA_N@Z@4PA_NA DB 03H DUP (?) ; `ImGui::ShowTestWindow'::`173'::selected
_BSS	ENDS
;	COMDAT ?selected@?LA@??ShowTestWindow@ImGui@@YAXPA_N@Z@4PA_NA
_BSS	SEGMENT
?selected@?LA@??ShowTestWindow@ImGui@@YAXPA_N@Z@4PA_NA DB 010H DUP (?) ; `ImGui::ShowTestWindow'::`176'::selected
_BSS	ENDS
;	COMDAT ?buf1@?MK@??ShowTestWindow@ImGui@@YAXPA_N@Z@4PADA
_BSS	SEGMENT
?buf1@?MK@??ShowTestWindow@ImGui@@YAXPA_N@Z@4PADA DB 040H DUP (?) ; `ImGui::ShowTestWindow'::`202'::buf1
_BSS	ENDS
;	COMDAT ?buf2@?MK@??ShowTestWindow@ImGui@@YAXPA_N@Z@4PADA
_BSS	SEGMENT
?buf2@?MK@??ShowTestWindow@ImGui@@YAXPA_N@Z@4PADA DB 040H DUP (?) ; `ImGui::ShowTestWindow'::`202'::buf2
_BSS	ENDS
;	COMDAT ?buf3@?MK@??ShowTestWindow@ImGui@@YAXPA_N@Z@4PADA
_BSS	SEGMENT
?buf3@?MK@??ShowTestWindow@ImGui@@YAXPA_N@Z@4PADA DB 040H DUP (?) ; `ImGui::ShowTestWindow'::`202'::buf3
_BSS	ENDS
;	COMDAT ?buf4@?MK@??ShowTestWindow@ImGui@@YAXPA_N@Z@4PADA
_BSS	SEGMENT
?buf4@?MK@??ShowTestWindow@ImGui@@YAXPA_N@Z@4PADA DB 040H DUP (?) ; `ImGui::ShowTestWindow'::`202'::buf4
_BSS	ENDS
;	COMDAT ?buf5@?MK@??ShowTestWindow@ImGui@@YAXPA_N@Z@4PADA
_BSS	SEGMENT
?buf5@?MK@??ShowTestWindow@ImGui@@YAXPA_N@Z@4PADA DB 040H DUP (?) ; `ImGui::ShowTestWindow'::`202'::buf5
_BSS	ENDS
;	COMDAT ?buf6@?MK@??ShowTestWindow@ImGui@@YAXPA_N@Z@4PADA
_BSS	SEGMENT
?buf6@?MK@??ShowTestWindow@ImGui@@YAXPA_N@Z@4PADA DB 040H DUP (?) ; `ImGui::ShowTestWindow'::`202'::buf6
_BSS	ENDS
;	COMDAT ?read_only@?MN@??ShowTestWindow@ImGui@@YAXPA_N@Z@4_NA
_BSS	SEGMENT
?read_only@?MN@??ShowTestWindow@ImGui@@YAXPA_N@Z@4_NA DB 01H DUP (?) ; `ImGui::ShowTestWindow'::`205'::read_only
_BSS	ENDS
;	COMDAT ?clicked@?EO@??ShowTestWindow@ImGui@@YAXPA_N@Z@4HA
_BSS	SEGMENT
?clicked@?EO@??ShowTestWindow@ImGui@@YAXPA_N@Z@4HA DD 01H DUP (?) ; `ImGui::ShowTestWindow'::`78'::clicked
_BSS	ENDS
;	COMDAT ?e@?EO@??ShowTestWindow@ImGui@@YAXPA_N@Z@4HA
_BSS	SEGMENT
?e@?EO@??ShowTestWindow@ImGui@@YAXPA_N@Z@4HA DD 01H DUP (?) ; `ImGui::ShowTestWindow'::`78'::e
_BSS	ENDS
;	COMDAT ?i1@?NO@??ShowTestWindow@ImGui@@YAXPA_N@Z@4HA
_BSS	SEGMENT
?i1@?NO@??ShowTestWindow@ImGui@@YAXPA_N@Z@4HA DD 01H DUP (?) ; `ImGui::ShowTestWindow'::`222'::i1
_BSS	ENDS
;	COMDAT ?f2@?NO@??ShowTestWindow@ImGui@@YAXPA_N@Z@4MA
_BSS	SEGMENT
?f2@?NO@??ShowTestWindow@ImGui@@YAXPA_N@Z@4MA DD 01H DUP (?) ; `ImGui::ShowTestWindow'::`222'::f2
_BSS	ENDS
;	COMDAT ?angle@?NO@??ShowTestWindow@ImGui@@YAXPA_N@Z@4MA
_BSS	SEGMENT
?angle@?NO@??ShowTestWindow@ImGui@@YAXPA_N@Z@4MA DD 01H DUP (?) ; `ImGui::ShowTestWindow'::`222'::angle
_BSS	ENDS
;	COMDAT ?int_value@?OH@??ShowTestWindow@ImGui@@YAXPA_N@Z@4HA
_BSS	SEGMENT
?int_value@?OH@??ShowTestWindow@ImGui@@YAXPA_N@Z@4HA DD 01H DUP (?) ; `ImGui::ShowTestWindow'::`231'::int_value
_BSS	ENDS
;	COMDAT ?values@?PM@??ShowTestWindow@ImGui@@YAXPA_N@Z@4PAMA
_BSS	SEGMENT
?values@?PM@??ShowTestWindow@ImGui@@YAXPA_N@Z@4PAMA DD 05aH DUP (?) ; `ImGui::ShowTestWindow'::`252'::values
_BSS	ENDS
;	COMDAT ?values_offset@?PM@??ShowTestWindow@ImGui@@YAXPA_N@Z@4HA
_BSS	SEGMENT
?values_offset@?PM@??ShowTestWindow@ImGui@@YAXPA_N@Z@4HA DD 01H DUP (?) ; `ImGui::ShowTestWindow'::`252'::values_offset
_BSS	ENDS
;	COMDAT ?refresh_time@?PM@??ShowTestWindow@ImGui@@YAXPA_N@Z@4MA
_BSS	SEGMENT
?refresh_time@?PM@??ShowTestWindow@ImGui@@YAXPA_N@Z@4MA DD 01H DUP (?) ; `ImGui::ShowTestWindow'::`252'::refresh_time
_BSS	ENDS
;	COMDAT ?phase@?BAA@??ShowTestWindow@ImGui@@YAXPA_N@Z@4MA
_BSS	SEGMENT
?phase@?BAA@??ShowTestWindow@ImGui@@YAXPA_N@Z@4MA DD 01H DUP (?) ; `ImGui::ShowTestWindow'::`256'::phase
_BSS	ENDS
;	COMDAT ?func_type@?PM@??ShowTestWindow@ImGui@@YAXPA_N@Z@4HA
_BSS	SEGMENT
?func_type@?PM@??ShowTestWindow@ImGui@@YAXPA_N@Z@4HA DD 01H DUP (?) ; `ImGui::ShowTestWindow'::`252'::func_type
_BSS	ENDS
;	COMDAT ?progress@?PM@??ShowTestWindow@ImGui@@YAXPA_N@Z@4MA
_BSS	SEGMENT
?progress@?PM@??ShowTestWindow@ImGui@@YAXPA_N@Z@4MA DD 01H DUP (?) ; `ImGui::ShowTestWindow'::`252'::progress
_BSS	ENDS
;	COMDAT ?f@?BBO@??ShowTestWindow@ImGui@@YAXPA_N@Z@4MA
_BSS	SEGMENT
?f@?BBO@??ShowTestWindow@ImGui@@YAXPA_N@Z@4MA DD 01H DUP (?) ; `ImGui::ShowTestWindow'::`286'::f
_BSS	ENDS
;	COMDAT ?c1@?BCB@??ShowTestWindow@ImGui@@YAXPA_N@Z@4_NA
_BSS	SEGMENT
?c1@?BCB@??ShowTestWindow@ImGui@@YAXPA_N@Z@4_NA DB 01H DUP (?) ; `ImGui::ShowTestWindow'::`289'::c1
_BSS	ENDS
;	COMDAT ?c2@?BCB@??ShowTestWindow@ImGui@@YAXPA_N@Z@4_NA
_BSS	SEGMENT
?c2@?BCB@??ShowTestWindow@ImGui@@YAXPA_N@Z@4_NA DB 01H DUP (?) ; `ImGui::ShowTestWindow'::`289'::c2
_BSS	ENDS
;	COMDAT ?c3@?BCB@??ShowTestWindow@ImGui@@YAXPA_N@Z@4_NA
_BSS	SEGMENT
?c3@?BCB@??ShowTestWindow@ImGui@@YAXPA_N@Z@4_NA DB 01H DUP (?) ; `ImGui::ShowTestWindow'::`289'::c3
_BSS	ENDS
;	COMDAT ?c4@?BCB@??ShowTestWindow@ImGui@@YAXPA_N@Z@4_NA
_BSS	SEGMENT
?c4@?BCB@??ShowTestWindow@ImGui@@YAXPA_N@Z@4_NA DB 01H DUP (?) ; `ImGui::ShowTestWindow'::`289'::c4
_BSS	ENDS
;	COMDAT ?color@?BIL@??ShowTestWindow@ImGui@@YAXPA_N@Z@4UImVec4@@A
_BSS	SEGMENT
?color@?BIL@??ShowTestWindow@ImGui@@YAXPA_N@Z@4UImVec4@@A DB 010H DUP (?) ; `ImGui::ShowTestWindow'::`395'::color
_BSS	ENDS
;	COMDAT ?$TSS2@?BIL@??ShowTestWindow@ImGui@@YAXPA_N@Z@4HA
_BSS	SEGMENT
?$TSS2@?BIL@??ShowTestWindow@ImGui@@YAXPA_N@Z@4HA DD 01H DUP (?) ; TSS2<`template-parameter-395',ImGui::wTestWindow, ?? :: ?? ::HA::Z::Z::AXPA_N>
_BSS	ENDS
;	COMDAT ?dont_ask_me_next_time@?BJP@??ShowTestWindow@ImGui@@YAXPA_N@Z@4_NA
_BSS	SEGMENT
?dont_ask_me_next_time@?BJP@??ShowTestWindow@ImGui@@YAXPA_N@Z@4_NA DB 01H DUP (?) ; `ImGui::ShowTestWindow'::`415'::dont_ask_me_next_time
_BSS	ENDS
;	COMDAT ?filter@?BOD@??ShowTestWindow@ImGui@@YAXPA_N@Z@4UImGuiTextFilter@@A
_BSS	SEGMENT
?filter@?BOD@??ShowTestWindow@ImGui@@YAXPA_N@Z@4UImGuiTextFilter@@A DB 0110H DUP (?) ; `ImGui::ShowTestWindow'::`483'::filter
_BSS	ENDS
;	COMDAT ?$TSS3@?BOD@??ShowTestWindow@ImGui@@YAXPA_N@Z@4HA
_BSS	SEGMENT
?$TSS3@?BOD@??ShowTestWindow@ImGui@@YAXPA_N@Z@4HA DD 01H DUP (?) ; TSS3<`template-parameter-483',ImGui::wTestWindow, ?? :: ?? ::HA::Z::Z::AXPA_N>
_BSS	ENDS
;	COMDAT ?output_dest@?BE@??ShowStyleEditor@ImGui@@YAXPAUImGuiStyle@@@Z@4HA
_BSS	SEGMENT
?output_dest@?BE@??ShowStyleEditor@ImGui@@YAXPAUImGuiStyle@@@Z@4HA DD 01H DUP (?) ; `ImGui::ShowStyleEditor'::`20'::output_dest
_BSS	ENDS
;	COMDAT ?output_only_modified@?BE@??ShowStyleEditor@ImGui@@YAXPAUImGuiStyle@@@Z@4_NA
_BSS	SEGMENT
?output_only_modified@?BE@??ShowStyleEditor@ImGui@@YAXPAUImGuiStyle@@@Z@4_NA DB 01H DUP (?) ; `ImGui::ShowStyleEditor'::`20'::output_only_modified
_BSS	ENDS
;	COMDAT ?edit_mode@?BE@??ShowStyleEditor@ImGui@@YAXPAUImGuiStyle@@@Z@4HA
_BSS	SEGMENT
?edit_mode@?BE@??ShowStyleEditor@ImGui@@YAXPAUImGuiStyle@@@Z@4HA DD 01H DUP (?) ; `ImGui::ShowStyleEditor'::`20'::edit_mode
_BSS	ENDS
;	COMDAT ?filter@?BE@??ShowStyleEditor@ImGui@@YAXPAUImGuiStyle@@@Z@4UImGuiTextFilter@@A
_BSS	SEGMENT
?filter@?BE@??ShowStyleEditor@ImGui@@YAXPAUImGuiStyle@@@Z@4UImGuiTextFilter@@A DB 0110H DUP (?) ; `ImGui::ShowStyleEditor'::`20'::filter
_BSS	ENDS
;	COMDAT ?$TSS0@?BE@??ShowStyleEditor@ImGui@@YAXPAUImGuiStyle@@@Z@4HA
_BSS	SEGMENT
?$TSS0@?BE@??ShowStyleEditor@ImGui@@YAXPAUImGuiStyle@@@Z@4HA DD 01H DUP (?) ; TSS0<`template-parameter-20',ImGui::wStyleEditor,AXPAUImGuiStyle>
_BSS	ENDS
;	COMDAT ?n@?BK@??ShowExampleMenuFile@@YAXXZ@4HA
_BSS	SEGMENT
?n@?BK@??ShowExampleMenuFile@@YAXXZ@4HA DD 01H DUP (?)	; `ShowExampleMenuFile'::`26'::n
_BSS	ENDS
;	COMDAT ?type@?1??ShowExampleAppConstrainedResize@@YAXPA_N@Z@4HA
_BSS	SEGMENT
?type@?1??ShowExampleAppConstrainedResize@@YAXPA_N@Z@4HA DD 01H DUP (?) ; `ShowExampleAppConstrainedResize'::`2'::type
_BSS	ENDS
;	COMDAT ?points@?8??ShowExampleAppCustomRendering@@YAXPA_N@Z@4V?$ImVector@UImVec2@@@@A
_BSS	SEGMENT
?points@?8??ShowExampleAppCustomRendering@@YAXPA_N@Z@4V?$ImVector@UImVec2@@@@A DB 0cH DUP (?) ; `ShowExampleAppCustomRendering'::`9'::points
_BSS	ENDS
;	COMDAT ?$TSS1@?8??ShowExampleAppCustomRendering@@YAXPA_N@Z@4HA
_BSS	SEGMENT
?$TSS1@?8??ShowExampleAppCustomRendering@@YAXPA_N@Z@4HA DD 01H DUP (?) ; TSS1<`template-parameter-9',wExampleAppCustomRendering,int, ?? &>
_BSS	ENDS
;	COMDAT ?adding_line@?8??ShowExampleAppCustomRendering@@YAXPA_N@Z@4_NA
_BSS	SEGMENT
?adding_line@?8??ShowExampleAppCustomRendering@@YAXPA_N@Z@4_NA DB 01H DUP (?) ; `ShowExampleAppCustomRendering'::`9'::adding_line
_BSS	ENDS
;	COMDAT ?filter@?1??Draw@ExampleAppConsole@@QAEXPBDPA_N@Z@4UImGuiTextFilter@@A
_BSS	SEGMENT
?filter@?1??Draw@ExampleAppConsole@@QAEXPBDPA_N@Z@4UImGuiTextFilter@@A DB 0110H DUP (?) ; `ExampleAppConsole::Draw'::`2'::filter
_BSS	ENDS
;	COMDAT ?$TSS0@?1??Draw@ExampleAppConsole@@QAEXPBDPA_N@Z@4HA
_BSS	SEGMENT
?$TSS0@?1??Draw@ExampleAppConsole@@QAEXPBDPA_N@Z@4HA DD 01H DUP (?) ; TSS0<`template-parameter-2',ExampleAppConsole::aw,unsigned char * const,void,char const *,bool *>
_BSS	ENDS
;	COMDAT ?console@?1??ShowExampleAppConsole@@YAXPA_N@Z@4UExampleAppConsole@@A
_BSS	SEGMENT
?console@?1??ShowExampleAppConsole@@YAXPA_N@Z@4UExampleAppConsole@@A DB 012cH DUP (?) ; `ShowExampleAppConsole'::`2'::console
_BSS	ENDS
;	COMDAT ?$TSS0@?1??ShowExampleAppConsole@@YAXPA_N@Z@4HA
_BSS	SEGMENT
?$TSS0@?1??ShowExampleAppConsole@@YAXPA_N@Z@4HA DD 01H DUP (?) ; TSS0<`template-parameter-2',wExampleAppConsole,int, ?? &>
_BSS	ENDS
;	COMDAT ?log@?1??ShowExampleAppLog@@YAXPA_N@Z@4UExampleAppLog@@A
_BSS	SEGMENT
?log@?1??ShowExampleAppLog@@YAXPA_N@Z@4UExampleAppLog@@A DB 012cH DUP (?) ; `ShowExampleAppLog'::`2'::log
_BSS	ENDS
;	COMDAT ?$TSS0@?1??ShowExampleAppLog@@YAXPA_N@Z@4HA
_BSS	SEGMENT
?$TSS0@?1??ShowExampleAppLog@@YAXPA_N@Z@4HA DD 01H DUP (?) ; TSS0<`template-parameter-2',wExampleAppLog,int, ?? &>
_BSS	ENDS
;	COMDAT ?selected@?4??ShowExampleAppLayout@@YAXPA_N@Z@4HA
_BSS	SEGMENT
?selected@?4??ShowExampleAppLayout@@YAXPA_N@Z@4HA DD 01H DUP (?) ; `ShowExampleAppLayout'::`5'::selected
_BSS	ENDS
;	COMDAT ?test_type@?1??ShowExampleAppLongText@@YAXPA_N@Z@4HA
_BSS	SEGMENT
?test_type@?1??ShowExampleAppLongText@@YAXPA_N@Z@4HA DD 01H DUP (?) ; `ShowExampleAppLongText'::`2'::test_type
_BSS	ENDS
;	COMDAT ?log@?1??ShowExampleAppLongText@@YAXPA_N@Z@4UImGuiTextBuffer@@A
_BSS	SEGMENT
?log@?1??ShowExampleAppLongText@@YAXPA_N@Z@4UImGuiTextBuffer@@A DB 0cH DUP (?) ; `ShowExampleAppLongText'::`2'::log
_BSS	ENDS
;	COMDAT ?$TSS0@?1??ShowExampleAppLongText@@YAXPA_N@Z@4HA
_BSS	SEGMENT
?$TSS0@?1??ShowExampleAppLongText@@YAXPA_N@Z@4HA DD 01H DUP (?) ; TSS0<`template-parameter-2',wExampleAppLongText,int, ?? &>
_BSS	ENDS
;	COMDAT ?lines@?1??ShowExampleAppLongText@@YAXPA_N@Z@4HA
_BSS	SEGMENT
?lines@?1??ShowExampleAppLongText@@YAXPA_N@Z@4HA DD 01H DUP (?) ; `ShowExampleAppLongText'::`2'::lines
_BSS	ENDS
;	COMDAT __xmm@80000000800000008000000080000000
CONST	SEGMENT
__xmm@80000000800000008000000080000000 DB 00H, 00H, 00H, 080H, 00H, 00H, 00H
	DB	080H, 00H, 00H, 00H, 080H, 00H, 00H, 00H, 080H
CONST	ENDS
;	COMDAT __xmm@3f8000003f8000003f8000003f800000
CONST	SEGMENT
__xmm@3f8000003f8000003f8000003f800000 DB 00H, 00H, 080H, '?', 00H, 00H, 080H
	DB	'?', 00H, 00H, 080H, '?', 00H, 00H, 080H, '?'
CONST	ENDS
;	COMDAT __xmm@3f8000003f8000003f0000003f4ccccd
CONST	SEGMENT
__xmm@3f8000003f8000003f0000003f4ccccd DB 0cdH, 0ccH, 'L?', 00H, 00H, 00H
	DB	'?', 00H, 00H, 080H, '?', 00H, 00H, 080H, '?'
CONST	ENDS
;	COMDAT __xmm@3f8000003f800000000000003f800000
CONST	SEGMENT
__xmm@3f8000003f800000000000003f800000 DB 00H, 00H, 080H, '?', 00H, 00H, 00H
	DB	00H, 00H, 00H, 080H, '?', 00H, 00H, 080H, '?'
CONST	ENDS
;	COMDAT __xmm@3f8000003f147ae13f47ae143f800000
CONST	SEGMENT
__xmm@3f8000003f147ae13f47ae143f800000 DB 00H, 00H, 080H, '?', 014H, 0aeH
	DB	'G?', 0e1H, 'z', 014H, '?', 00H, 00H, 080H, '?'
CONST	ENDS
;	COMDAT __xmm@3f8000003ef0f0f23eb4b4b53eb4b4b5
CONST	SEGMENT
__xmm@3f8000003ef0f0f23eb4b4b53eb4b4b5 DB 0b5H, 0b4H, 0b4H, '>', 0b5H, 0b4H
	DB	0b4H, '>', 0f2H, 0f0H, 0f0H, '>', 00H, 00H, 080H, '?'
CONST	ENDS
;	COMDAT __xmm@3f8000003ecccccd3ecccccd3f800000
CONST	SEGMENT
__xmm@3f8000003ecccccd3ecccccd3f800000 DB 00H, 00H, 080H, '?', 0cdH, 0ccH
	DB	0ccH, '>', 0cdH, 0ccH, 0ccH, '>', 00H, 00H, 080H, '?'
CONST	ENDS
;	COMDAT __xmm@3f8000003e8c8c8d3e70f0f23e70f0f2
CONST	SEGMENT
__xmm@3f8000003e8c8c8d3e70f0f23e70f0f2 DB 0f2H, 0f0H, 'p>', 0f2H, 0f0H, 'p'
	DB	'>', 08dH, 08cH, 08cH, '>', 00H, 00H, 080H, '?'
CONST	ENDS
;	COMDAT __xmm@3f8000003e70f0f23e48c8ca3e48c8ca
CONST	SEGMENT
__xmm@3f8000003e70f0f23e48c8ca3e48c8ca DB 0caH, 0c8H, 'H>', 0caH, 0c8H, 'H'
	DB	'>', 0f2H, 0f0H, 'p>', 00H, 00H, 080H, '?'
CONST	ENDS
;	COMDAT __xmm@3f8000003e48c8ca3e48c8ca3e48c8ca
CONST	SEGMENT
__xmm@3f8000003e48c8ca3e48c8ca3e48c8ca DB 0caH, 0c8H, 'H>', 0caH, 0c8H, 'H'
	DB	'>', 0caH, 0c8H, 'H>', 00H, 00H, 080H, '?'
CONST	ENDS
;	COMDAT __xmm@3f800000000000003f8000003f800000
CONST	SEGMENT
__xmm@3f800000000000003f8000003f800000 DB 00H, 00H, 080H, '?', 00H, 00H, 080H
	DB	'?', 00H, 00H, 00H, 00H, 00H, 00H, 080H, '?'
CONST	ENDS
;	COMDAT __xmm@3f800000000000003f80000000000000
CONST	SEGMENT
__xmm@3f800000000000003f80000000000000 DB 00H, 00H, 00H, 00H, 00H, 00H, 080H
	DB	'?', 00H, 00H, 00H, 00H, 00H, 00H, 080H, '?'
CONST	ENDS
;	COMDAT __xmm@3f80000000000000000000003f800000
CONST	SEGMENT
__xmm@3f80000000000000000000003f800000 DB 00H, 00H, 080H, '?', 00H, 00H, 00H
	DB	00H, 00H, 00H, 00H, 00H, 00H, 00H, 080H, '?'
CONST	ENDS
;	COMDAT __xmm@3f800000000000000000000000000000
CONST	SEGMENT
__xmm@3f800000000000000000000000000000 DB 00H, 00H, 00H, 00H, 00H, 00H, 00H
	DB	00H, 00H, 00H, 00H, 00H, 00H, 00H, 080H, '?'
CONST	ENDS
;	COMDAT __xmm@3f19999a3f4ccccd3e4ccccd3f000000
CONST	SEGMENT
__xmm@3f19999a3f4ccccd3e4ccccd3f000000 DB 00H, 00H, 00H, '?', 0cdH, 0ccH, 'L'
	DB	'>', 0cdH, 0ccH, 'L?', 09aH, 099H, 019H, '?'
CONST	ENDS
;	COMDAT __xmm@3f0080813f8000003f8000003f800000
CONST	SEGMENT
__xmm@3f0080813f8000003f8000003f800000 DB 00H, 00H, 080H, '?', 00H, 00H, 080H
	DB	'?', 00H, 00H, 080H, '?', 081H, 080H, 00H, '?'
CONST	ENDS
;	COMDAT __real@c47a0000
CONST	SEGMENT
__real@c47a0000 DD 0c47a0000r			; -1000
CONST	ENDS
;	COMDAT __real@bf800000
CONST	SEGMENT
__real@bf800000 DD 0bf800000r			; -1
CONST	ENDS
;	COMDAT __real@bdcccccd
CONST	SEGMENT
__real@bdcccccd DD 0bdcccccdr			; -0.1
CONST	ENDS
;	COMDAT __real@44db2000
CONST	SEGMENT
__real@44db2000 DD 044db2000r			; 1753
CONST	ENDS
;	COMDAT __real@447a0000
CONST	SEGMENT
__real@447a0000 DD 0447a0000r			; 1000
CONST	ENDS
;	COMDAT __real@42800000
CONST	SEGMENT
__real@42800000 DD 042800000r			; 64
CONST	ENDS
;	COMDAT __real@42480000
CONST	SEGMENT
__real@42480000 DD 042480000r			; 50
CONST	ENDS
;	COMDAT __real@42200000
CONST	SEGMENT
__real@42200000 DD 042200000r			; 40
CONST	ENDS
;	COMDAT __real@42000000
CONST	SEGMENT
__real@42000000 DD 042000000r			; 32
CONST	ENDS
;	COMDAT __real@41f00000
CONST	SEGMENT
__real@41f00000 DD 041f00000r			; 30
CONST	ENDS
;	COMDAT __real@41c00000
CONST	SEGMENT
__real@41c00000 DD 041c00000r			; 24
CONST	ENDS
;	COMDAT __real@41a00000
CONST	SEGMENT
__real@41a00000 DD 041a00000r			; 20
CONST	ENDS
;	COMDAT __real@41800000
CONST	SEGMENT
__real@41800000 DD 041800000r			; 16
CONST	ENDS
;	COMDAT __real@41200000
CONST	SEGMENT
__real@41200000 DD 041200000r			; 10
CONST	ENDS
;	COMDAT __real@41000000
CONST	SEGMENT
__real@41000000 DD 041000000r			; 8
CONST	ENDS
;	COMDAT __real@40e00000
CONST	SEGMENT
__real@40e00000 DD 040e00000r			; 7
CONST	ENDS
;	COMDAT __real@40800000
CONST	SEGMENT
__real@40800000 DD 040800000r			; 4
CONST	ENDS
;	COMDAT __real@40400000
CONST	SEGMENT
__real@40400000 DD 040400000r			; 3
CONST	ENDS
;	COMDAT __real@3fa66666
CONST	SEGMENT
__real@3fa66666 DD 03fa66666r			; 1.3
CONST	ENDS
;	COMDAT __real@3f8ccccd
CONST	SEGMENT
__real@3f8ccccd DD 03f8ccccdr			; 1.1
CONST	ENDS
;	COMDAT __real@3f800000
CONST	SEGMENT
__real@3f800000 DD 03f800000r			; 1
CONST	ENDS
;	COMDAT __real@3f0ccccd
CONST	SEGMENT
__real@3f0ccccd DD 03f0ccccdr			; 0.55
CONST	ENDS
;	COMDAT __real@3f000000
CONST	SEGMENT
__real@3f000000 DD 03f000000r			; 0.5
CONST	ENDS
;	COMDAT __real@3ecccccd
CONST	SEGMENT
__real@3ecccccd DD 03ecccccdr			; 0.4
CONST	ENDS
;	COMDAT __real@3e99999a
CONST	SEGMENT
__real@3e99999a DD 03e99999ar			; 0.3
CONST	ENDS
;	COMDAT __real@3e800000
CONST	SEGMENT
__real@3e800000 DD 03e800000r			; 0.25
CONST	ENDS
;	COMDAT __real@3e2e147b
CONST	SEGMENT
__real@3e2e147b DD 03e2e147br			; 0.17
CONST	ENDS
;	COMDAT __real@3e124925
CONST	SEGMENT
__real@3e124925 DD 03e124925r			; 0.142857
CONST	ENDS
;	COMDAT __real@3dcccccd
CONST	SEGMENT
__real@3dcccccd DD 03dcccccdr			; 0.1
CONST	ENDS
;	COMDAT __real@3d4ccccd
CONST	SEGMENT
__real@3d4ccccd DD 03d4ccccdr			; 0.05
CONST	ENDS
;	COMDAT __real@3c888889
CONST	SEGMENT
__real@3c888889 DD 03c888889r			; 0.0166667
CONST	ENDS
;	COMDAT __real@3b808081
CONST	SEGMENT
__real@3b808081 DD 03b808081r			; 0.00392157
CONST	ENDS
;	COMDAT __real@00000000
CONST	SEGMENT
__real@00000000 DD 000000000r			; 0
CONST	ENDS
;	COMDAT ??_C@_04GFJLOHHD@?$CF?43f?$AA@
CONST	SEGMENT
??_C@_04GFJLOHHD@?$CF?43f?$AA@ DB '%.3f', 00H		; `string'
CONST	ENDS
;	COMDAT ??_C@_07FBBIKLOB@?$CD?$CDvalue?$AA@
CONST	SEGMENT
??_C@_07FBBIKLOB@?$CD?$CDvalue?$AA@ DB '##value', 00H	; `string'
CONST	ENDS
;	COMDAT ??_C@_08BNKJGCPO@Field_?$CFd?$AA@
CONST	SEGMENT
??_C@_08BNKJGCPO@Field_?$CFd?$AA@ DB 'Field_%d', 00H	; `string'
CONST	ENDS
;	COMDAT ??_C@_05GIMBDOHM@Child?$AA@
CONST	SEGMENT
??_C@_05GIMBDOHM@Child?$AA@ DB 'Child', 00H		; `string'
CONST	ENDS
;	COMDAT ??_C@_0BC@LIBEHHHH@my?5sailor?5is?5rich?$AA@
CONST	SEGMENT
??_C@_0BC@LIBEHHHH@my?5sailor?5is?5rich?$AA@ DB 'my sailor is rich', 00H ; `string'
CONST	ENDS
;	COMDAT ??_C@_06ELFECKBG@Object?$AA@
CONST	SEGMENT
??_C@_06ELFECKBG@Object?$AA@ DB 'Object', 00H		; `string'
CONST	ENDS
;	COMDAT ??_C@_05FIIOEGIK@?$CFs_?$CFu?$AA@
CONST	SEGMENT
??_C@_05FIIOEGIK@?$CFs_?$CFu?$AA@ DB '%s_%u', 00H	; `string'
CONST	ENDS
;	COMDAT ?dummy_members@?4??ShowDummyObject@funcs@?1??ShowExampleAppPropertyEditor@@YAXPA_N@Z@SAXPBDH@Z@4PAMA
_DATA	SEGMENT
?dummy_members@?4??ShowDummyObject@funcs@?1??ShowExampleAppPropertyEditor@@YAXPA_N@Z@SAXPBDH@Z@4PAMA DD 000000000r ; 0 ; ``ShowExampleAppPropertyEditor'::`2'::funcs::ShowDummyObject'::`5'::dummy_members
	DD	000000000r			; 0
	DD	03f800000r			; 1
	DD	040490ff9r			; 3.1416
	DD	042c80000r			; 100
	DD	04479c000r			; 999
	ORG $+8
_DATA	ENDS
;	COMDAT ?last_time@?1??ShowExampleAppLog@@YAXPA_N@Z@4MA
_DATA	SEGMENT
?last_time@?1??ShowExampleAppLog@@YAXPA_N@Z@4MA DD 0bf800000r ; -1 ; `ShowExampleAppLog'::`2'::last_time
_DATA	ENDS
;	COMDAT ??_C@_09PKEBEIDM@scrolling?$AA@
CONST	SEGMENT
??_C@_09PKEBEIDM@scrolling?$AA@ DB 'scrolling', 00H	; `string'
CONST	ENDS
;	COMDAT ??_C@_06IBDJIBGI@Filter?$AA@
CONST	SEGMENT
??_C@_06IBDJIBGI@Filter?$AA@ DB 'Filter', 00H		; `string'
CONST	ENDS
;	COMDAT ??_C@_04OPMHGHMB@Copy?$AA@
CONST	SEGMENT
??_C@_04OPMHGHMB@Copy?$AA@ DB 'Copy', 00H		; `string'
CONST	ENDS
;	COMDAT ??_C@_02DKCKIIND@?$CFs?$AA@
CONST	SEGMENT
??_C@_02DKCKIIND@?$CFs?$AA@ DB '%s', 00H		; `string'
CONST	ENDS
;	COMDAT ??_C@_05PHKAGDP@?9?5?$CFs?6?$AA@
CONST	SEGMENT
??_C@_05PHKAGDP@?9?5?$CFs?6?$AA@ DB '- %s', 0aH, 00H	; `string'
CONST	ENDS
;	COMDAT ??_C@_0BD@LCPLNAHF@Possible?5matches?3?6?$AA@
CONST	SEGMENT
??_C@_0BD@LCPLNAHF@Possible?5matches?3?6?$AA@ DB 'Possible matches:', 0aH
	DB	00H						; `string'
CONST	ENDS
;	COMDAT ??_C@_01CLKCMJKC@?5?$AA@
CONST	SEGMENT
??_C@_01CLKCMJKC@?5?$AA@ DB ' ', 00H			; `string'
CONST	ENDS
;	COMDAT ??_C@_0BG@DOPMHGPK@No?5match?5for?5?$CC?$CF?4?$CKs?$CC?$CB?6?$AA@
CONST	SEGMENT
??_C@_0BG@DOPMHGPK@No?5match?5for?5?$CC?$CF?4?$CKs?$CC?$CB?6?$AA@ DB 'No '
	DB	'match for "%.*s"!', 0aH, 00H		; `string'
CONST	ENDS
;	COMDAT ??_C@_0BH@OKLFOGKH@Unknown?5command?3?5?8?$CFs?8?6?$AA@
CONST	SEGMENT
??_C@_0BH@OKLFOGKH@Unknown?5command?3?5?8?$CFs?8?6?$AA@ DB 'Unknown comma'
	DB	'nd: ''%s''', 0aH, 00H			; `string'
CONST	ENDS
;	COMDAT ??_C@_08PKLPHKJF@?$CF3d?3?5?$CFs?6?$AA@
CONST	SEGMENT
??_C@_08PKLPHKJF@?$CF3d?3?5?$CFs?6?$AA@ DB '%3d: %s', 0aH, 00H ; `string'
CONST	ENDS
;	COMDAT ??_C@_04JKCKOCFH@?9?5?$CFs?$AA@
CONST	SEGMENT
??_C@_04JKCKOCFH@?9?5?$CFs?$AA@ DB '- %s', 00H		; `string'
CONST	ENDS
;	COMDAT ??_C@_09GJFNIAOH@Commands?3?$AA@
CONST	SEGMENT
??_C@_09GJFNIAOH@Commands?3?$AA@ DB 'Commands:', 00H	; `string'
CONST	ENDS
;	COMDAT ??_C@_05DFHAGHEP@?$CD?5?$CFs?6?$AA@
CONST	SEGMENT
??_C@_05DFHAGHEP@?$CD?5?$CFs?6?$AA@ DB '# %s', 0aH, 00H	; `string'
CONST	ENDS
;	COMDAT ??_C@_05DCDOHKAB@Input?$AA@
CONST	SEGMENT
??_C@_05DCDOHKAB@Input?$AA@ DB 'Input', 00H		; `string'
CONST	ENDS
;	COMDAT ??_C@_02KPDBPKPG@?$CD?5?$AA@
CONST	SEGMENT
??_C@_02KPDBPKPG@?$CD?5?$AA@ DB '# ', 00H		; `string'
CONST	ENDS
;	COMDAT ??_C@_07LFMCMLFD@?$FLerror?$FN?$AA@
CONST	SEGMENT
??_C@_07LFMCMLFD@?$FLerror?$FN?$AA@ DB '[error]', 00H	; `string'
CONST	ENDS
;	COMDAT ??_C@_0BA@KOEFNJOK@ScrollingRegion?$AA@
CONST	SEGMENT
??_C@_0BA@KOEFNJOK@ScrollingRegion?$AA@ DB 'ScrollingRegion', 00H ; `string'
CONST	ENDS
;	COMDAT ??_C@_0CA@HIABFBKB@Filter?5?$CI?$CCincl?0?9excl?$CC?$CJ?5?$CI?$CCerror?$CC?$CJ?$AA@
CONST	SEGMENT
??_C@_0CA@HIABFBKB@Filter?5?$CI?$CCincl?0?9excl?$CC?$CJ?5?$CI?$CCerror?$CC?$CJ?$AA@ DB 'F'
	DB	'ilter ("incl,-excl") ("error")', 00H	; `string'
CONST	ENDS
;	COMDAT ??_C@_00CNPNBAHC@?$AA@
CONST	SEGMENT
??_C@_00CNPNBAHC@?$AA@ DB 00H				; `string'
CONST	ENDS
;	COMDAT ??_C@_0BB@GPFIAMJC@Scroll?5to?5bottom?$AA@
CONST	SEGMENT
??_C@_0BB@GPFIAMJC@Scroll?5to?5bottom?$AA@ DB 'Scroll to bottom', 00H ; `string'
CONST	ENDS
;	COMDAT ??_C@_05MDNHABIA@Clear?$AA@
CONST	SEGMENT
??_C@_05MDNHABIA@Clear?$AA@ DB 'Clear', 00H		; `string'
CONST	ENDS
;	COMDAT ??_C@_0BN@KNPJMMPE@?$FLerror?$FN?5something?5went?5wrong?$AA@
CONST	SEGMENT
??_C@_0BN@KNPJMMPE@?$FLerror?$FN?5something?5went?5wrong?$AA@ DB '[error]'
	DB	' something went wrong', 00H			; `string'
CONST	ENDS
;	COMDAT ??_C@_0BA@HHKLEHKC@Add?5Dummy?5Error?$AA@
CONST	SEGMENT
??_C@_0BA@HHKLEHKC@Add?5Dummy?5Error?$AA@ DB 'Add Dummy Error', 00H ; `string'
CONST	ENDS
;	COMDAT ??_C@_0CF@PEIDNPCH@display?5very?5important?5message?5h@
CONST	SEGMENT
??_C@_0CF@PEIDNPCH@display?5very?5important?5message?5h@ DB 'display very'
	DB	' important message here!', 00H		; `string'
CONST	ENDS
;	COMDAT ??_C@_0P@BMHJKMPF@some?5more?5text?$AA@
CONST	SEGMENT
??_C@_0P@BMHJKMPF@some?5more?5text?$AA@ DB 'some more text', 00H ; `string'
CONST	ENDS
;	COMDAT ??_C@_0N@OJGBPOOP@?$CFd?5some?5text?$AA@
CONST	SEGMENT
??_C@_0N@OJGBPOOP@?$CFd?5some?5text?$AA@ DB '%d some text', 00H ; `string'
CONST	ENDS
;	COMDAT ??_C@_0P@CGJDLLEJ@Add?5Dummy?5Text?$AA@
CONST	SEGMENT
??_C@_0P@CGJDLLEJ@Add?5Dummy?5Text?$AA@ DB 'Add Dummy Text', 00H ; `string'
CONST	ENDS
;	COMDAT ??_C@_0DJ@NBHLDCP@Enter?5?8HELP?8?5for?5help?0?5press?5TAB@
CONST	SEGMENT
??_C@_0DJ@NBHLDCP@Enter?5?8HELP?8?5for?5help?0?5press?5TAB@ DB 'Enter ''H'
	DB	'ELP'' for help, press TAB to use text completion.', 00H ; `string'
CONST	ENDS
;	COMDAT ??_C@_0MA@ICGIOBFG@This?5example?5implements?5a?5consol@
CONST	SEGMENT
??_C@_0MA@ICGIOBFG@This?5example?5implements?5a?5consol@ DB 'This example'
	DB	' implements a console with basic coloring, completion and his'
	DB	'tory. A more elaborate implementation may want to store entri'
	DB	'es along with extra data such as timestamp, emitter, etc.', 00H ; `string'
CONST	ENDS
;	COMDAT ??_C@_0BC@JPCINNJN@Welcome?5to?5ImGui?$CB?$AA@
CONST	SEGMENT
??_C@_0BC@JPCINNJN@Welcome?5to?5ImGui?$CB?$AA@ DB 'Welcome to ImGui!', 00H ; `string'
CONST	ENDS
;	COMDAT ??_C@_08GOHMLCGG@CLASSIFY?$AA@
CONST	SEGMENT
??_C@_08GOHMLCGG@CLASSIFY?$AA@ DB 'CLASSIFY', 00H	; `string'
CONST	ENDS
;	COMDAT ??_C@_05PONODPI@CLEAR?$AA@
CONST	SEGMENT
??_C@_05PONODPI@CLEAR?$AA@ DB 'CLEAR', 00H		; `string'
CONST	ENDS
;	COMDAT ??_C@_07DBIJIOJO@HISTORY?$AA@
CONST	SEGMENT
??_C@_07DBIJIOJO@HISTORY?$AA@ DB 'HISTORY', 00H		; `string'
CONST	ENDS
;	COMDAT ??_C@_04DOKPJKJF@HELP?$AA@
CONST	SEGMENT
??_C@_04DOKPJKJF@HELP?$AA@ DB 'HELP', 00H		; `string'
CONST	ENDS
;	COMDAT ?col@?1??ShowExampleAppCustomRendering@@YAXPA_N@Z@4UImVec4@@A
_DATA	SEGMENT
?col@?1??ShowExampleAppCustomRendering@@YAXPA_N@Z@4UImVec4@@A DD 03f800000r ; 1 ; `ShowExampleAppCustomRendering'::`2'::col
	DD	03f800000r			; 1
	DD	03ecccccdr			; 0.4
	DD	03f800000r			; 1
_DATA	ENDS
;	COMDAT ?sz@?1??ShowExampleAppCustomRendering@@YAXPA_N@Z@4MA
_DATA	SEGMENT
?sz@?1??ShowExampleAppCustomRendering@@YAXPA_N@Z@4MA DD 042100000r ; 36 ; `ShowExampleAppCustomRendering'::`2'::sz
_DATA	ENDS
;	COMDAT ?lines@?1??ShowExampleAppAutoResize@@YAXPA_N@Z@4HA
_DATA	SEGMENT
?lines@?1??ShowExampleAppAutoResize@@YAXPA_N@Z@4HA DD 0aH ; `ShowExampleAppAutoResize'::`2'::lines
_DATA	ENDS
;	COMDAT ?b@?BK@??ShowExampleMenuFile@@YAXXZ@4_NA
_DATA	SEGMENT
?b@?BK@??ShowExampleMenuFile@@YAXXZ@4_NA DB 01H		; `ShowExampleMenuFile'::`26'::b
_DATA	ENDS
;	COMDAT ?f@?BK@??ShowExampleMenuFile@@YAXXZ@4MA
_DATA	SEGMENT
?f@?BK@??ShowExampleMenuFile@@YAXXZ@4MA DD 03f000000r ; 0.5 ; `ShowExampleMenuFile'::`26'::f
_DATA	ENDS
;	COMDAT ?enabled@?BK@??ShowExampleMenuFile@@YAXXZ@4_NA
_DATA	SEGMENT
?enabled@?BK@??ShowExampleMenuFile@@YAXXZ@4_NA DB 01H	; `ShowExampleMenuFile'::`26'::enabled
_DATA	ENDS
;	COMDAT ?window_scale@?CP@??ShowStyleEditor@ImGui@@YAXPAUImGuiStyle@@@Z@4MA
_DATA	SEGMENT
?window_scale@?CP@??ShowStyleEditor@ImGui@@YAXPAUImGuiStyle@@@Z@4MA DD 03f800000r ; 1 ; `ImGui::ShowStyleEditor'::`47'::window_scale
_DATA	ENDS
;	COMDAT ?buf@?CBO@??ShowTestWindow@ImGui@@YAXPA_N@Z@4PADA
_DATA	SEGMENT
?buf@?CBO@??ShowTestWindow@ImGui@@YAXPA_N@Z@4PADA DB 'click on a button t'
	DB	'o set focus', 00H				; `ImGui::ShowTestWindow'::`542'::buf
	ORG $+97
_DATA	ENDS
;	COMDAT ?buf@?CBL@??ShowTestWindow@ImGui@@YAXPA_N@Z@4PADA
_DATA	SEGMENT
?buf@?CBL@??ShowTestWindow@ImGui@@YAXPA_N@Z@4PADA DB 'dummy', 00H ; `ImGui::ShowTestWindow'::`539'::buf
	ORG $+26
_DATA	ENDS
;	COMDAT ?v_borders@?BNB@??ShowTestWindow@ImGui@@YAXPA_N@Z@4_NA
_DATA	SEGMENT
?v_borders@?BNB@??ShowTestWindow@ImGui@@YAXPA_N@Z@4_NA DB 01H ; `ImGui::ShowTestWindow'::`465'::v_borders
_DATA	ENDS
;	COMDAT ?h_borders@?BNB@??ShowTestWindow@ImGui@@YAXPA_N@Z@4_NA
_DATA	SEGMENT
?h_borders@?BNB@??ShowTestWindow@ImGui@@YAXPA_N@Z@4_NA DB 01H ; `ImGui::ShowTestWindow'::`465'::h_borders
_DATA	ENDS
;	COMDAT ?bar@?BMF@??ShowTestWindow@ImGui@@YAXPA_N@Z@4MA
_DATA	SEGMENT
?bar@?BMF@??ShowTestWindow@ImGui@@YAXPA_N@Z@4MA DD 03f800000r ; 1 ; `ImGui::ShowTestWindow'::`453'::bar
_DATA	ENDS
;	COMDAT ?foo@?BMF@??ShowTestWindow@ImGui@@YAXPA_N@Z@4MA
_DATA	SEGMENT
?foo@?BMF@??ShowTestWindow@ImGui@@YAXPA_N@Z@4MA DD 03f800000r ; 1 ; `ImGui::ShowTestWindow'::`453'::foo
_DATA	ENDS
;	COMDAT ?selected@?BLJ@??ShowTestWindow@ImGui@@YAXPA_N@Z@4HA
_DATA	SEGMENT
?selected@?BLJ@??ShowTestWindow@ImGui@@YAXPA_N@Z@4HA DD 0ffffffffH ; `ImGui::ShowTestWindow'::`441'::selected
_DATA	ENDS
;	COMDAT ?item@?BKK@??ShowTestWindow@ImGui@@YAXPA_N@Z@4HA
_DATA	SEGMENT
?item@?BKK@??ShowTestWindow@ImGui@@YAXPA_N@Z@4HA DD 01H	; `ImGui::ShowTestWindow'::`426'::item
_DATA	ENDS
;	COMDAT ?value@?BIL@??ShowTestWindow@ImGui@@YAXPA_N@Z@4MA
_DATA	SEGMENT
?value@?BIL@??ShowTestWindow@ImGui@@YAXPA_N@Z@4MA DD 03f000000r ; 0.5 ; `ImGui::ShowTestWindow'::`395'::value
_DATA	ENDS
;	COMDAT ?toggles@?BGE@??ShowTestWindow@ImGui@@YAXPA_N@Z@4PA_NA
_DATA	SEGMENT
?toggles@?BGE@??ShowTestWindow@ImGui@@YAXPA_N@Z@4PA_NA DB 01H ; `ImGui::ShowTestWindow'::`356'::toggles
	DB	00H
	DB	00H
	DB	00H
	DB	00H
_DATA	ENDS
;	COMDAT ?selected_fish@?BGE@??ShowTestWindow@ImGui@@YAXPA_N@Z@4HA
_DATA	SEGMENT
?selected_fish@?BGE@??ShowTestWindow@ImGui@@YAXPA_N@Z@4HA DD 0ffffffffH ; `ImGui::ShowTestWindow'::`356'::selected_fish
_DATA	ENDS
;	COMDAT ?offset@?BFL@??ShowTestWindow@ImGui@@YAXPA_N@Z@4UImVec2@@A
_DATA	SEGMENT
?offset@?BFL@??ShowTestWindow@ImGui@@YAXPA_N@Z@4UImVec2@@A DD 042480000r ; 50 ; `ImGui::ShowTestWindow'::`347'::offset
	DD	041a00000r			; 20
_DATA	ENDS
;	COMDAT ?size@?BFL@??ShowTestWindow@ImGui@@YAXPA_N@Z@4UImVec2@@A
_DATA	SEGMENT
?size@?BFL@??ShowTestWindow@ImGui@@YAXPA_N@Z@4UImVec2@@A DD 042c80000r ; 100 ; `ImGui::ShowTestWindow'::`347'::size
	DD	042c80000r			; 100
_DATA	ENDS
;	COMDAT ?lines@?BEL@??ShowTestWindow@ImGui@@YAXPA_N@Z@4HA
_DATA	SEGMENT
?lines@?BEL@??ShowTestWindow@ImGui@@YAXPA_N@Z@4HA DD 07H ; `ImGui::ShowTestWindow'::`331'::lines
_DATA	ENDS
;	COMDAT ?scroll_to_px@?BDJ@??ShowTestWindow@ImGui@@YAXPA_N@Z@4HA
_DATA	SEGMENT
?scroll_to_px@?BDJ@??ShowTestWindow@ImGui@@YAXPA_N@Z@4HA DD 0c8H ; `ImGui::ShowTestWindow'::`313'::scroll_to_px
_DATA	ENDS
;	COMDAT ?track_line@?BDJ@??ShowTestWindow@ImGui@@YAXPA_N@Z@4HA
_DATA	SEGMENT
?track_line@?BDJ@??ShowTestWindow@ImGui@@YAXPA_N@Z@4HA DD 032H ; `ImGui::ShowTestWindow'::`313'::track_line
_DATA	ENDS
;	COMDAT ?track@?BDJ@??ShowTestWindow@ImGui@@YAXPA_N@Z@4_NA
_DATA	SEGMENT
?track@?BDJ@??ShowTestWindow@ImGui@@YAXPA_N@Z@4_NA DB 01H ; `ImGui::ShowTestWindow'::`313'::track
_DATA	ENDS
;	COMDAT ?selection@?BCB@??ShowTestWindow@ImGui@@YAXPA_N@Z@4PAHA
_DATA	SEGMENT
?selection@?BCB@??ShowTestWindow@ImGui@@YAXPA_N@Z@4PAHA DD 00H ; `ImGui::ShowTestWindow'::`289'::selection
	DD	01H
	DD	02H
	DD	03H
_DATA	ENDS
;	COMDAT ?item@?BCB@??ShowTestWindow@ImGui@@YAXPA_N@Z@4HA
_DATA	SEGMENT
?item@?BCB@??ShowTestWindow@ImGui@@YAXPA_N@Z@4HA DD 0ffffffffH ; `ImGui::ShowTestWindow'::`289'::item
_DATA	ENDS
;	COMDAT ?f2@?BCB@??ShowTestWindow@ImGui@@YAXPA_N@Z@4MA
_DATA	SEGMENT
?f2@?BCB@??ShowTestWindow@ImGui@@YAXPA_N@Z@4MA DD 040400000r ; 3 ; `ImGui::ShowTestWindow'::`289'::f2
_DATA	ENDS
;	COMDAT ?f1@?BCB@??ShowTestWindow@ImGui@@YAXPA_N@Z@4MA
_DATA	SEGMENT
?f1@?BCB@??ShowTestWindow@ImGui@@YAXPA_N@Z@4MA DD 040000000r ; 2 ; `ImGui::ShowTestWindow'::`289'::f1
_DATA	ENDS
;	COMDAT ?f0@?BCB@??ShowTestWindow@ImGui@@YAXPA_N@Z@4MA
_DATA	SEGMENT
?f0@?BCB@??ShowTestWindow@ImGui@@YAXPA_N@Z@4MA DD 03f800000r ; 1 ; `ImGui::ShowTestWindow'::`289'::f0
_DATA	ENDS
;	COMDAT ?line@?BAP@??ShowTestWindow@ImGui@@YAXPA_N@Z@4HA
_DATA	SEGMENT
?line@?BAP@??ShowTestWindow@ImGui@@YAXPA_N@Z@4HA DD 032H ; `ImGui::ShowTestWindow'::`271'::line
_DATA	ENDS
;	COMDAT ?progress_dir@?PM@??ShowTestWindow@ImGui@@YAXPA_N@Z@4MA
_DATA	SEGMENT
?progress_dir@?PM@??ShowTestWindow@ImGui@@YAXPA_N@Z@4MA DD 03f800000r ; 1 ; `ImGui::ShowTestWindow'::`252'::progress_dir
_DATA	ENDS
;	COMDAT ?display_count@?PM@??ShowTestWindow@ImGui@@YAXPA_N@Z@4HA
_DATA	SEGMENT
?display_count@?PM@??ShowTestWindow@ImGui@@YAXPA_N@Z@4HA DD 046H ; `ImGui::ShowTestWindow'::`252'::display_count
_DATA	ENDS
;	COMDAT ?arr@?PM@??ShowTestWindow@ImGui@@YAXPA_N@Z@4PAMA
_DATA	SEGMENT
?arr@?PM@??ShowTestWindow@ImGui@@YAXPA_N@Z@4PAMA DD 03f19999ar ; 0.6 ; `ImGui::ShowTestWindow'::`252'::arr
	DD	03dcccccdr			; 0.1
	DD	03f800000r			; 1
	DD	03f000000r			; 0.5
	DD	03f6b851fr			; 0.92
	DD	03dcccccdr			; 0.1
	DD	03e4ccccdr			; 0.2
_DATA	ENDS
;	COMDAT ?animate@?PM@??ShowTestWindow@ImGui@@YAXPA_N@Z@4_NA
_DATA	SEGMENT
?animate@?PM@??ShowTestWindow@ImGui@@YAXPA_N@Z@4_NA DB 01H ; `ImGui::ShowTestWindow'::`252'::animate
_DATA	ENDS
;	COMDAT ?values2@?OH@??ShowTestWindow@ImGui@@YAXPA_N@Z@4PAMA
_DATA	SEGMENT
?values2@?OH@??ShowTestWindow@ImGui@@YAXPA_N@Z@4PAMA DD 03e4ccccdr ; 0.2 ; `ImGui::ShowTestWindow'::`231'::values2
	DD	03f4ccccdr			; 0.8
	DD	03ecccccdr			; 0.4
	DD	03e800000r			; 0.25
_DATA	ENDS
;	COMDAT ?values@?OH@??ShowTestWindow@ImGui@@YAXPA_N@Z@4PAMA
_DATA	SEGMENT
?values@?OH@??ShowTestWindow@ImGui@@YAXPA_N@Z@4PAMA DD 000000000r ; 0 ; `ImGui::ShowTestWindow'::`231'::values
	DD	03f19999ar			; 0.6
	DD	03eb33333r			; 0.35
	DD	03f666666r			; 0.9
	DD	03f333333r			; 0.7
	DD	03e4ccccdr			; 0.2
	DD	000000000r			; 0
_DATA	ENDS
;	COMDAT ?vec4i@?OE@??ShowTestWindow@ImGui@@YAXPA_N@Z@4PAHA
_DATA	SEGMENT
?vec4i@?OE@??ShowTestWindow@ImGui@@YAXPA_N@Z@4PAHA DD 01H ; `ImGui::ShowTestWindow'::`228'::vec4i
	DD	05H
	DD	064H
	DD	0ffH
_DATA	ENDS
;	COMDAT ?vec4f@?OE@??ShowTestWindow@ImGui@@YAXPA_N@Z@4PAMA
_DATA	SEGMENT
?vec4f@?OE@??ShowTestWindow@ImGui@@YAXPA_N@Z@4PAMA DD 03dcccccdr ; 0.1 ; `ImGui::ShowTestWindow'::`228'::vec4f
	DD	03e4ccccdr			; 0.2
	DD	03e99999ar			; 0.3
	DD	03ee147aer			; 0.44
_DATA	ENDS
;	COMDAT ?end_i@?OB@??ShowTestWindow@ImGui@@YAXPA_N@Z@4HA
_DATA	SEGMENT
?end_i@?OB@??ShowTestWindow@ImGui@@YAXPA_N@Z@4HA DD 03e8H ; `ImGui::ShowTestWindow'::`225'::end_i
_DATA	ENDS
;	COMDAT ?begin_i@?OB@??ShowTestWindow@ImGui@@YAXPA_N@Z@4HA
_DATA	SEGMENT
?begin_i@?OB@??ShowTestWindow@ImGui@@YAXPA_N@Z@4HA DD 064H ; `ImGui::ShowTestWindow'::`225'::begin_i
_DATA	ENDS
;	COMDAT ?end@?OB@??ShowTestWindow@ImGui@@YAXPA_N@Z@4MA
_DATA	SEGMENT
?end@?OB@??ShowTestWindow@ImGui@@YAXPA_N@Z@4MA DD 042b40000r ; 90 ; `ImGui::ShowTestWindow'::`225'::end
_DATA	ENDS
;	COMDAT ?begin@?OB@??ShowTestWindow@ImGui@@YAXPA_N@Z@4MA
_DATA	SEGMENT
?begin@?OB@??ShowTestWindow@ImGui@@YAXPA_N@Z@4MA DD 041200000r ; 10 ; `ImGui::ShowTestWindow'::`225'::begin
_DATA	ENDS
;	COMDAT ?listbox_item_current@?EO@??ShowTestWindow@ImGui@@YAXPA_N@Z@4HA
_DATA	SEGMENT
?listbox_item_current@?EO@??ShowTestWindow@ImGui@@YAXPA_N@Z@4HA DD 01H ; `ImGui::ShowTestWindow'::`78'::listbox_item_current
_DATA	ENDS
;	COMDAT ?col2@?EO@??ShowTestWindow@ImGui@@YAXPA_N@Z@4PAMA
_DATA	SEGMENT
?col2@?EO@??ShowTestWindow@ImGui@@YAXPA_N@Z@4PAMA DD 03ecccccdr ; 0.4 ; `ImGui::ShowTestWindow'::`78'::col2
	DD	03f333333r			; 0.7
	DD	000000000r			; 0
	DD	03f000000r			; 0.5
_DATA	ENDS
;	COMDAT ?col1@?EO@??ShowTestWindow@ImGui@@YAXPA_N@Z@4PAMA
_DATA	SEGMENT
?col1@?EO@??ShowTestWindow@ImGui@@YAXPA_N@Z@4PAMA DD 03f800000r ; 1 ; `ImGui::ShowTestWindow'::`78'::col1
	DD	000000000r			; 0
	DD	03e4ccccdr			; 0.2
_DATA	ENDS
;	COMDAT ?f1@?NO@??ShowTestWindow@ImGui@@YAXPA_N@Z@4MA
_DATA	SEGMENT
?f1@?NO@??ShowTestWindow@ImGui@@YAXPA_N@Z@4MA DD 03dfbe76dr ; 0.123 ; `ImGui::ShowTestWindow'::`222'::f1
_DATA	ENDS
;	COMDAT ?f2@?NN@??ShowTestWindow@ImGui@@YAXPA_N@Z@4MA
_DATA	SEGMENT
?f2@?NN@??ShowTestWindow@ImGui@@YAXPA_N@Z@4MA DD 03bdb8bacr ; 0.0067 ; `ImGui::ShowTestWindow'::`221'::f2
_DATA	ENDS
;	COMDAT ?f1@?NN@??ShowTestWindow@ImGui@@YAXPA_N@Z@4MA
_DATA	SEGMENT
?f1@?NN@??ShowTestWindow@ImGui@@YAXPA_N@Z@4MA DD 03f800000r ; 1 ; `ImGui::ShowTestWindow'::`221'::f1
_DATA	ENDS
;	COMDAT ?i2@?NN@??ShowTestWindow@ImGui@@YAXPA_N@Z@4HA
_DATA	SEGMENT
?i2@?NN@??ShowTestWindow@ImGui@@YAXPA_N@Z@4HA DD 02aH	; `ImGui::ShowTestWindow'::`221'::i2
_DATA	ENDS
;	COMDAT ?i1@?NN@??ShowTestWindow@ImGui@@YAXPA_N@Z@4HA
_DATA	SEGMENT
?i1@?NN@??ShowTestWindow@ImGui@@YAXPA_N@Z@4HA DD 032H	; `ImGui::ShowTestWindow'::`221'::i1
_DATA	ENDS
;	COMDAT ?vec4a@?NM@??ShowTestWindow@ImGui@@YAXPA_N@Z@4PAMA
_DATA	SEGMENT
?vec4a@?NM@??ShowTestWindow@ImGui@@YAXPA_N@Z@4PAMA DD 03dcccccdr ; 0.1 ; `ImGui::ShowTestWindow'::`220'::vec4a
	DD	03e4ccccdr			; 0.2
	DD	03e99999ar			; 0.3
	DD	03ee147aer			; 0.44
_DATA	ENDS
;	COMDAT ?f0@?NM@??ShowTestWindow@ImGui@@YAXPA_N@Z@4MA
_DATA	SEGMENT
?f0@?NM@??ShowTestWindow@ImGui@@YAXPA_N@Z@4MA DD 03a83126fr ; 0.001 ; `ImGui::ShowTestWindow'::`220'::f0
_DATA	ENDS
;	COMDAT ?i0@?NM@??ShowTestWindow@ImGui@@YAXPA_N@Z@4HA
_DATA	SEGMENT
?i0@?NM@??ShowTestWindow@ImGui@@YAXPA_N@Z@4HA DD 07bH	; `ImGui::ShowTestWindow'::`220'::i0
_DATA	ENDS
;	COMDAT ?str0@?NM@??ShowTestWindow@ImGui@@YAXPA_N@Z@4PADA
_DATA	SEGMENT
?str0@?NM@??ShowTestWindow@ImGui@@YAXPA_N@Z@4PADA DB 'Hello, world!', 00H ; `ImGui::ShowTestWindow'::`220'::str0
	ORG $+114
_DATA	ENDS
;	COMDAT ?item2@?EO@??ShowTestWindow@ImGui@@YAXPA_N@Z@4HA
_DATA	SEGMENT
?item2@?EO@??ShowTestWindow@ImGui@@YAXPA_N@Z@4HA DD 0ffffffffH ; `ImGui::ShowTestWindow'::`78'::item2
_DATA	ENDS
;	COMDAT ?item@?EO@??ShowTestWindow@ImGui@@YAXPA_N@Z@4HA
_DATA	SEGMENT
?item@?EO@??ShowTestWindow@ImGui@@YAXPA_N@Z@4HA DD 01H	; `ImGui::ShowTestWindow'::`78'::item
_DATA	ENDS
;	COMDAT ?arr@?NL@??ShowTestWindow@ImGui@@YAXPA_N@Z@4PAMA
_DATA	SEGMENT
?arr@?NL@??ShowTestWindow@ImGui@@YAXPA_N@Z@4PAMA DD 03f19999ar ; 0.6 ; `ImGui::ShowTestWindow'::`219'::arr
	DD	03dcccccdr			; 0.1
	DD	03f800000r			; 1
	DD	03f000000r			; 0.5
	DD	03f6b851fr			; 0.92
	DD	03dcccccdr			; 0.1
	DD	03e4ccccdr			; 0.2
_DATA	ENDS
;	COMDAT ?check@?EO@??ShowTestWindow@ImGui@@YAXPA_N@Z@4_NA
_DATA	SEGMENT
?check@?EO@??ShowTestWindow@ImGui@@YAXPA_N@Z@4_NA DB 01H ; `ImGui::ShowTestWindow'::`78'::check
_DATA	ENDS
;	COMDAT ?text@?MN@??ShowTestWindow@ImGui@@YAXPA_N@Z@4PADA
_DATA	SEGMENT
?text@?MN@??ShowTestWindow@ImGui@@YAXPA_N@Z@4PADA DB '/*', 0aH, ' The Pen'
	DB	'tium F00F bug, shorthand for F0 0F C7 C8,', 0aH, ' the hexade'
	DB	'cimal encoding of one offending instruction,', 0aH, ' more fo'
	DB	'rmally, the invalid operand with locked CMPXCHG8B', 0aH, ' in'
	DB	'struction bug, is a design flaw in the majority of', 0aH, ' I'
	DB	'ntel Pentium, Pentium MMX, and Pentium OverDrive', 0aH, ' pro'
	DB	'cessors (all in the P5 microarchitecture).', 0aH, '*/', 0aH, 0aH
	DB	'label:', 0aH, 09H, 'lock cmpxchg8b eax', 0aH, 00H ; `ImGui::ShowTestWindow'::`205'::text
	ORG $+16033
_DATA	ENDS
;	COMDAT ?bufpass@?MK@??ShowTestWindow@ImGui@@YAXPA_N@Z@4PADA
_DATA	SEGMENT
?bufpass@?MK@??ShowTestWindow@ImGui@@YAXPA_N@Z@4PADA DB 'password123', 00H ; `ImGui::ShowTestWindow'::`202'::bufpass
	ORG $+52
_DATA	ENDS
;	COMDAT ??_C@_05EAJAAGNN@imgui?$AA@
CONST	SEGMENT
??_C@_05EAJAAGNN@imgui?$AA@ DB 'imgui', 00H		; `string'
CONST	ENDS
;	COMDAT ?selected@?LI@??ShowTestWindow@ImGui@@YAXPA_N@Z@4PA_NA
_DATA	SEGMENT
?selected@?LI@??ShowTestWindow@ImGui@@YAXPA_N@Z@4PA_NA DB 01H ; `ImGui::ShowTestWindow'::`184'::selected
	DB	00H
	DB	00H
	DB	00H
	DB	00H
	DB	01H
	DB	00H
	DB	00H
	DB	00H
	DB	00H
	DB	01H
	DB	00H
	DB	00H
	DB	00H
	DB	00H
	DB	01H
_DATA	ENDS
;	COMDAT ?selected@?KG@??ShowTestWindow@ImGui@@YAXPA_N@Z@4PA_NA
_DATA	SEGMENT
?selected@?KG@??ShowTestWindow@ImGui@@YAXPA_N@Z@4PA_NA DB 00H ; `ImGui::ShowTestWindow'::`166'::selected
	DB	01H
	DB	00H
	DB	00H
_DATA	ENDS
;	COMDAT ?buf@?IM@??ShowTestWindow@ImGui@@YAXPA_N@Z@4PADA
_DATA	SEGMENT
?buf@?IM@??ShowTestWindow@ImGui@@YAXPA_N@Z@4PADA DB 0e6H, 097H, 0a5H, 0e6H
	DB	09cH, 0acH, 0e8H, 0aaH, 09eH, 00H		; `ImGui::ShowTestWindow'[::M]::buf
	ORG $+22
_DATA	ENDS
;	COMDAT ?wrap_width@?IJ@??ShowTestWindow@ImGui@@YAXPA_N@Z@4MA
_DATA	SEGMENT
?wrap_width@?IJ@??ShowTestWindow@ImGui@@YAXPA_N@Z@4MA DD 043480000r ; 200 ; `ImGui::ShowTestWindow'[::J]::wrap_width
_DATA	ENDS
;	COMDAT ?closable_group@?HI@??ShowTestWindow@ImGui@@YAXPA_N@Z@4_NA
_DATA	SEGMENT
?closable_group@?HI@??ShowTestWindow@ImGui@@YAXPA_N@Z@4_NA DB 01H ; `ImGui::ShowTestWindow'::`120'::closable_group
_DATA	ENDS
;	COMDAT ?selection_mask@?FN@??ShowTestWindow@ImGui@@YAXPA_N@Z@4HA
_DATA	SEGMENT
?selection_mask@?FN@??ShowTestWindow@ImGui@@YAXPA_N@Z@4HA DD 04H ; `ImGui::ShowTestWindow'::`93'::selection_mask
_DATA	ENDS
;	COMDAT ?no_border@?1??ShowTestWindow@ImGui@@YAXPA_N@Z@4_NA
_DATA	SEGMENT
?no_border@?1??ShowTestWindow@ImGui@@YAXPA_N@Z@4_NA DB 01H ; `ImGui::ShowTestWindow'::`2'::no_border
_DATA	ENDS
;	COMDAT xdata$x
xdata$x	SEGMENT
__unwindtable$??__Flog@?1??ShowExampleAppLongText@@YAXPA_N@Z@YAXXZ DD 0ffffffffH
	DD	FLAT:___std_terminate
__ehfuncinfo$??__Flog@?1??ShowExampleAppLongText@@YAXPA_N@Z@YAXXZ DD 019930522H
	DD	01H
	DD	FLAT:__unwindtable$??__Flog@?1??ShowExampleAppLongText@@YAXPA_N@Z@YAXXZ
	DD	2 DUP(00H)
	DD	2 DUP(00H)
	DD	00H
	DD	01H
xdata$x	ENDS
;	COMDAT xdata$x
xdata$x	SEGMENT
__unwindtable$??__Flog@?1??ShowExampleAppLog@@YAXPA_N@Z@YAXXZ DD 0ffffffffH
	DD	FLAT:___std_terminate
	DD	0ffffffffH
	DD	FLAT:___std_terminate
	DD	0ffffffffH
	DD	FLAT:___std_terminate
__ehfuncinfo$??__Flog@?1??ShowExampleAppLog@@YAXPA_N@Z@YAXXZ DD 019930522H
	DD	03H
	DD	FLAT:__unwindtable$??__Flog@?1??ShowExampleAppLog@@YAXPA_N@Z@YAXXZ
	DD	2 DUP(00H)
	DD	2 DUP(00H)
	DD	00H
	DD	01H
xdata$x	ENDS
;	COMDAT xdata$x
xdata$x	SEGMENT
__unwindtable$??1ExampleAppLog@@QAE@XZ DD 0ffffffffH
	DD	FLAT:___std_terminate
	DD	0ffffffffH
	DD	FLAT:___std_terminate
	DD	0ffffffffH
	DD	FLAT:___std_terminate
__ehfuncinfo$??1ExampleAppLog@@QAE@XZ DD 019930522H
	DD	03H
	DD	FLAT:__unwindtable$??1ExampleAppLog@@QAE@XZ
	DD	2 DUP(00H)
	DD	2 DUP(00H)
	DD	00H
	DD	05H
xdata$x	ENDS
;	COMDAT xdata$x
xdata$x	SEGMENT
__unwindtable$??0ExampleAppLog@@QAE@XZ DD 0ffffffffH
	DD	FLAT:__unwindfunclet$??0ExampleAppLog@@QAE@XZ$3
	DD	0ffffffffH
	DD	FLAT:__unwindfunclet$??0ExampleAppLog@@QAE@XZ$0
__ehfuncinfo$??0ExampleAppLog@@QAE@XZ DD 019930522H
	DD	02H
	DD	FLAT:__unwindtable$??0ExampleAppLog@@QAE@XZ
	DD	2 DUP(00H)
	DD	2 DUP(00H)
	DD	00H
	DD	01H
xdata$x	ENDS
;	COMDAT xdata$x
xdata$x	SEGMENT
__ehfuncinfo$??1?$ImVector@H@@QAE@XZ DD 019930522H
	DD	00H
	DD	00H
	DD	2 DUP(00H)
	DD	2 DUP(00H)
	DD	00H
	DD	05H
xdata$x	ENDS
;	COMDAT xdata$x
xdata$x	SEGMENT
__unwindtable$??__Ffilter@?1??Draw@ExampleAppConsole@@QAEXPBDPA_N@Z@YAXXZ DD 0ffffffffH
	DD	FLAT:___std_terminate
__ehfuncinfo$??__Ffilter@?1??Draw@ExampleAppConsole@@QAEXPBDPA_N@Z@YAXXZ DD 019930522H
	DD	01H
	DD	FLAT:__unwindtable$??__Ffilter@?1??Draw@ExampleAppConsole@@QAEXPBDPA_N@Z@YAXXZ
	DD	2 DUP(00H)
	DD	2 DUP(00H)
	DD	00H
	DD	01H
xdata$x	ENDS
;	COMDAT xdata$x
xdata$x	SEGMENT
__unwindtable$?TextEditCallback@ExampleAppConsole@@QAEHPAUImGuiTextEditCallbackData@@@Z DD 0ffffffffH
	DD	FLAT:__unwindfunclet$?TextEditCallback@ExampleAppConsole@@QAEHPAUImGuiTextEditCallbackData@@@Z$0
	DD	0ffffffffH
	DD	FLAT:___std_terminate
	DD	0ffffffffH
	DD	FLAT:___std_terminate
__ehfuncinfo$?TextEditCallback@ExampleAppConsole@@QAEHPAUImGuiTextEditCallbackData@@@Z DD 019930522H
	DD	03H
	DD	FLAT:__unwindtable$?TextEditCallback@ExampleAppConsole@@QAEHPAUImGuiTextEditCallbackData@@@Z
	DD	2 DUP(00H)
	DD	2 DUP(00H)
	DD	00H
	DD	01H
xdata$x	ENDS
;	COMDAT xdata$x
xdata$x	SEGMENT
__unwindtable$?Draw@ExampleAppConsole@@QAEXPBDPA_N@Z DD 0ffffffffH
	DD	FLAT:__unwindfunclet$?Draw@ExampleAppConsole@@QAEXPBDPA_N@Z$0
__ehfuncinfo$?Draw@ExampleAppConsole@@QAEXPBDPA_N@Z DD 019930522H
	DD	01H
	DD	FLAT:__unwindtable$?Draw@ExampleAppConsole@@QAEXPBDPA_N@Z
	DD	2 DUP(00H)
	DD	2 DUP(00H)
	DD	00H
	DD	01H
xdata$x	ENDS
;	COMDAT xdata$x
xdata$x	SEGMENT
__unwindtable$??1ExampleAppConsole@@QAE@XZ DD 0ffffffffH
	DD	FLAT:___std_terminate
	DD	0ffffffffH
	DD	FLAT:___std_terminate
	DD	0ffffffffH
	DD	FLAT:___std_terminate
__ehfuncinfo$??1ExampleAppConsole@@QAE@XZ DD 019930522H
	DD	03H
	DD	FLAT:__unwindtable$??1ExampleAppConsole@@QAE@XZ
	DD	2 DUP(00H)
	DD	2 DUP(00H)
	DD	00H
	DD	05H
xdata$x	ENDS
;	COMDAT xdata$x
xdata$x	SEGMENT
__unwindtable$??0ExampleAppConsole@@QAE@XZ DD 0ffffffffH
	DD	FLAT:__unwindfunclet$??0ExampleAppConsole@@QAE@XZ$0
	DD	00H
	DD	FLAT:__unwindfunclet$??0ExampleAppConsole@@QAE@XZ$1
	DD	01H
	DD	FLAT:__unwindfunclet$??0ExampleAppConsole@@QAE@XZ$2
__ehfuncinfo$??0ExampleAppConsole@@QAE@XZ DD 019930522H
	DD	03H
	DD	FLAT:__unwindtable$??0ExampleAppConsole@@QAE@XZ
	DD	2 DUP(00H)
	DD	2 DUP(00H)
	DD	00H
	DD	01H
xdata$x	ENDS
;	COMDAT xdata$x
xdata$x	SEGMENT
__ehfuncinfo$??1?$ImVector@PBD@@QAE@XZ DD 019930522H
	DD	00H
	DD	00H
	DD	2 DUP(00H)
	DD	2 DUP(00H)
	DD	00H
	DD	05H
xdata$x	ENDS
;	COMDAT xdata$x
xdata$x	SEGMENT
__ehfuncinfo$??1?$ImVector@PAD@@QAE@XZ DD 019930522H
	DD	00H
	DD	00H
	DD	2 DUP(00H)
	DD	2 DUP(00H)
	DD	00H
	DD	05H
xdata$x	ENDS
;	COMDAT xdata$x
xdata$x	SEGMENT
__unwindtable$??__Fpoints@?8??ShowExampleAppCustomRendering@@YAXPA_N@Z@YAXXZ DD 0ffffffffH
	DD	FLAT:___std_terminate
__ehfuncinfo$??__Fpoints@?8??ShowExampleAppCustomRendering@@YAXPA_N@Z@YAXXZ DD 019930522H
	DD	01H
	DD	FLAT:__unwindtable$??__Fpoints@?8??ShowExampleAppCustomRendering@@YAXPA_N@Z@YAXXZ
	DD	2 DUP(00H)
	DD	2 DUP(00H)
	DD	00H
	DD	01H
xdata$x	ENDS
;	COMDAT xdata$x
xdata$x	SEGMENT
__unwindtable$??__Ffilter@?BE@??ShowStyleEditor@ImGui@@YAXPAUImGuiStyle@@@Z@YAXXZ DD 0ffffffffH
	DD	FLAT:___std_terminate
__ehfuncinfo$??__Ffilter@?BE@??ShowStyleEditor@ImGui@@YAXPAUImGuiStyle@@@Z@YAXXZ DD 019930522H
	DD	01H
	DD	FLAT:__unwindtable$??__Ffilter@?BE@??ShowStyleEditor@ImGui@@YAXPAUImGuiStyle@@@Z@YAXXZ
	DD	2 DUP(00H)
	DD	2 DUP(00H)
	DD	00H
	DD	01H
xdata$x	ENDS
;	COMDAT xdata$x
xdata$x	SEGMENT
__unwindtable$??__Ffilter@?BOD@??ShowTestWindow@ImGui@@YAXPA_N@Z@YAXXZ DD 0ffffffffH
	DD	FLAT:___std_terminate
__ehfuncinfo$??__Ffilter@?BOD@??ShowTestWindow@ImGui@@YAXPA_N@Z@YAXXZ DD 019930522H
	DD	01H
	DD	FLAT:__unwindtable$??__Ffilter@?BOD@??ShowTestWindow@ImGui@@YAXPA_N@Z@YAXXZ
	DD	2 DUP(00H)
	DD	2 DUP(00H)
	DD	00H
	DD	01H
xdata$x	ENDS
;	COMDAT xdata$x
xdata$x	SEGMENT
__ehfuncinfo$??1?$ImVector@UImVec2@@@@QAE@XZ DD 019930522H
	DD	00H
	DD	00H
	DD	2 DUP(00H)
	DD	2 DUP(00H)
	DD	00H
	DD	05H
xdata$x	ENDS
;	COMDAT xdata$x
xdata$x	SEGMENT
__unwindtable$??1ImGuiTextBuffer@@QAE@XZ DD 0ffffffffH
	DD	FLAT:___std_terminate
__ehfuncinfo$??1ImGuiTextBuffer@@QAE@XZ DD 019930522H
	DD	01H
	DD	FLAT:__unwindtable$??1ImGuiTextBuffer@@QAE@XZ
	DD	2 DUP(00H)
	DD	2 DUP(00H)
	DD	00H
	DD	05H
xdata$x	ENDS
;	COMDAT xdata$x
xdata$x	SEGMENT
__unwindtable$??0ImGuiTextBuffer@@QAE@XZ DD 0ffffffffH
	DD	FLAT:__unwindfunclet$??0ImGuiTextBuffer@@QAE@XZ$0
__ehfuncinfo$??0ImGuiTextBuffer@@QAE@XZ DD 019930522H
	DD	01H
	DD	FLAT:__unwindtable$??0ImGuiTextBuffer@@QAE@XZ
	DD	2 DUP(00H)
	DD	2 DUP(00H)
	DD	00H
	DD	01H
xdata$x	ENDS
;	COMDAT xdata$x
xdata$x	SEGMENT
__ehfuncinfo$??1?$ImVector@D@@QAE@XZ DD 019930522H
	DD	00H
	DD	00H
	DD	2 DUP(00H)
	DD	2 DUP(00H)
	DD	00H
	DD	05H
xdata$x	ENDS
;	COMDAT xdata$x
xdata$x	SEGMENT
__unwindtable$??1ImGuiTextFilter@@QAE@XZ DD 0ffffffffH
	DD	FLAT:___std_terminate
__ehfuncinfo$??1ImGuiTextFilter@@QAE@XZ DD 019930522H
	DD	01H
	DD	FLAT:__unwindtable$??1ImGuiTextFilter@@QAE@XZ
	DD	2 DUP(00H)
	DD	2 DUP(00H)
	DD	00H
	DD	05H
xdata$x	ENDS
;	COMDAT xdata$x
xdata$x	SEGMENT
__ehfuncinfo$??1?$ImVector@UTextRange@ImGuiTextFilter@@@@QAE@XZ DD 019930522H
	DD	00H
	DD	00H
	DD	2 DUP(00H)
	DD	2 DUP(00H)
	DD	00H
	DD	05H
xdata$x	ENDS
xdata$x	SEGMENT
__unwindtable$?ShowExampleAppConsole@@YAXPA_N@Z DD 0ffffffffH
	DD	FLAT:__unwindfunclet$?ShowExampleAppConsole@@YAXPA_N@Z$0
__unwindtable$?ShowTestWindow@ImGui@@YAXPA_N@Z DD 0ffffffffH
	DD	FLAT:__unwindfunclet$?ShowTestWindow@ImGui@@YAXPA_N@Z$3
__unwindtable$?ShowStyleEditor@ImGui@@YAXPAUImGuiStyle@@@Z DD 0ffffffffH
	DD	FLAT:__unwindfunclet$?ShowStyleEditor@ImGui@@YAXPAUImGuiStyle@@@Z$0
__unwindtable$?ShowExampleAppLongText@@YAXPA_N@Z DD 0ffffffffH
	DD	FLAT:__unwindfunclet$?ShowExampleAppLongText@@YAXPA_N@Z$0
	DD	00H
	DD	FLAT:__unwindfunclet$?ShowExampleAppLongText@@YAXPA_N@Z$1
__unwindtable$?ShowExampleAppLog@@YAXPA_N@Z DD 0ffffffffH
	DD	FLAT:__unwindfunclet$?ShowExampleAppLog@@YAXPA_N@Z$0
	DD	00H
	DD	FLAT:__unwindfunclet$?ShowExampleAppLog@@YAXPA_N@Z$4
	DD	00H
	DD	FLAT:__unwindfunclet$?ShowExampleAppLog@@YAXPA_N@Z$1
__ehfuncinfo$?ShowExampleAppLongText@@YAXPA_N@Z DD 019930522H
	DD	02H
	DD	FLAT:__unwindtable$?ShowExampleAppLongText@@YAXPA_N@Z
	DD	2 DUP(00H)
	DD	2 DUP(00H)
	DD	00H
	DD	01H
__ehfuncinfo$?ShowExampleAppLog@@YAXPA_N@Z DD 019930522H
	DD	03H
	DD	FLAT:__unwindtable$?ShowExampleAppLog@@YAXPA_N@Z
	DD	2 DUP(00H)
	DD	2 DUP(00H)
	DD	00H
	DD	01H
__ehfuncinfo$?ShowExampleAppConsole@@YAXPA_N@Z DD 019930522H
	DD	01H
	DD	FLAT:__unwindtable$?ShowExampleAppConsole@@YAXPA_N@Z
	DD	2 DUP(00H)
	DD	2 DUP(00H)
	DD	00H
	DD	01H
__ehfuncinfo$?ShowTestWindow@ImGui@@YAXPA_N@Z DD 019930522H
	DD	01H
	DD	FLAT:__unwindtable$?ShowTestWindow@ImGui@@YAXPA_N@Z
	DD	2 DUP(00H)
	DD	2 DUP(00H)
	DD	00H
	DD	01H
__ehfuncinfo$?ShowStyleEditor@ImGui@@YAXPAUImGuiStyle@@@Z DD 019930522H
	DD	01H
	DD	FLAT:__unwindtable$?ShowStyleEditor@ImGui@@YAXPAUImGuiStyle@@@Z
	DD	2 DUP(00H)
	DD	2 DUP(00H)
	DD	00H
	DD	01H
xdata$x	ENDS
; Function compile flags: /Ogtp
; File c:\users\andon\source\repos\specialk\include\imgui\imgui.h
;	COMDAT ??__Flog@?1??ShowExampleAppLongText@@YAXPA_N@Z@YAXXZ
text$yd	SEGMENT
__$EHRec$ = -12						; size = 12
??__Flog@?1??ShowExampleAppLongText@@YAXPA_N@Z@YAXXZ PROC ; `ShowExampleAppLongText'::`2'::`dynamic atexit destructor for 'log'', COMDAT
	npad	2
	push	ebp
	mov	ebp, esp
	mov	eax, DWORD PTR fs:0
	push	-1
	push	__ehhandler$??__Flog@?1??ShowExampleAppLongText@@YAXPA_N@Z@YAXXZ
	push	eax
	mov	DWORD PTR fs:0, esp

; 906  :     ~ImVector()                 { if (Data) ImGui::MemFree(Data); }

	mov	eax, DWORD PTR ?log@?1??ShowExampleAppLongText@@YAXPA_N@Z@4UImGuiTextBuffer@@A+8
	mov	DWORD PTR __$EHRec$[ebp+8], 0
	test	eax, eax
	je	SHORT $LN7@dynamic
	push	eax
	call	?MemFree@ImGui@@YAXPAX@Z		; ImGui::MemFree
	add	esp, 4
$LN7@dynamic:
	mov	ecx, DWORD PTR __$EHRec$[ebp]
	mov	DWORD PTR fs:0, ecx
	mov	esp, ebp
	pop	ebp
	ret	0
text$yd	ENDS
;	COMDAT text$x
text$x	SEGMENT
__ehhandler$??__Flog@?1??ShowExampleAppLongText@@YAXPA_N@Z@YAXXZ:
	mov	eax, OFFSET __ehfuncinfo$??__Flog@?1??ShowExampleAppLongText@@YAXPA_N@Z@YAXXZ
	jmp	___CxxFrameHandler3
text$x	ENDS
??__Flog@?1??ShowExampleAppLongText@@YAXPA_N@Z@YAXXZ ENDP ; `ShowExampleAppLongText'::`2'::`dynamic atexit destructor for 'log''
; Function compile flags: /Ogtp
; File c:\users\andon\source\repos\specialk\src\imgui\imgui_demo.cpp
; File c:\users\andon\source\repos\specialk\include\imgui\imgui.h
; File c:\users\andon\source\repos\specialk\src\imgui\imgui_demo.cpp
; File c:\users\andon\source\repos\specialk\include\imgui\imgui.h
; File c:\users\andon\source\repos\specialk\src\imgui\imgui_demo.cpp
;	COMDAT ?ShowDummyObject@funcs@?1??ShowExampleAppPropertyEditor@@YAXPA_N@Z@SAXPBDH@Z
_TEXT	SEGMENT
_label$1 = -40						; size = 32
$T2 = -8						; size = 8
_prefix$ = 8						; size = 4
_uid$ = 12						; size = 4
?ShowDummyObject@funcs@?1??ShowExampleAppPropertyEditor@@YAXPA_N@Z@SAXPBDH@Z PROC ; `ShowExampleAppPropertyEditor'::`2'::funcs::ShowDummyObject, COMDAT

; 2547 :         {

	npad	2
	push	ebp
	mov	ebp, esp
	sub	esp, 40					; 00000028H
	push	ebx
	push	esi

; 2548 :             ImGui::PushID(uid);                      // Use object uid as identifier. Most commonly you could also use the object pointer as a base ID.

	mov	esi, DWORD PTR _uid$[ebp]
	push	esi
	call	?PushID@ImGui@@YAXH@Z			; ImGui::PushID

; 2549 :             ImGui::AlignFirstTextHeightToWidgets();  // Text and Tree nodes are less high than regular widgets, here we add vertical spacing to make the tree lines equal high.

	call	?AlignFirstTextHeightToWidgets@ImGui@@YAXXZ ; ImGui::AlignFirstTextHeightToWidgets

; 2550 :             bool node_open = ImGui::TreeNode("Object", "%s_%u", prefix, uid);

	push	esi
	push	DWORD PTR _prefix$[ebp]
	push	OFFSET ??_C@_05FIIOEGIK@?$CFs_?$CFu?$AA@
	push	OFFSET ??_C@_06ELFECKBG@Object?$AA@
	call	?TreeNode@ImGui@@YA_NPBD0ZZ		; ImGui::TreeNode
	mov	bl, al

; 2551 :             ImGui::NextColumn();

	call	?NextColumn@ImGui@@YAXXZ		; ImGui::NextColumn

; 2552 :             ImGui::AlignFirstTextHeightToWidgets();

	call	?AlignFirstTextHeightToWidgets@ImGui@@YAXXZ ; ImGui::AlignFirstTextHeightToWidgets

; 2553 :             ImGui::Text("my sailor is rich");

	push	OFFSET ??_C@_0BC@LIBEHHHH@my?5sailor?5is?5rich?$AA@
	call	?Text@ImGui@@YAXPBDZZ			; ImGui::Text
	add	esp, 24					; 00000018H

; 2554 :             ImGui::NextColumn();

	call	?NextColumn@ImGui@@YAXXZ		; ImGui::NextColumn

; 2555 :             if (node_open)

	test	bl, bl
	je	$LN5@ShowDummyO

; 2556 :             {
; 2557 :                 static float dummy_members[8] = { 0.0f,0.0f,1.0f,3.1416f,100.0f,999.0f };
; 2558 :                 for (int i = 0; i < 8; i++)

	push	edi
	xor	esi, esi
	mov	edi, OFFSET ?dummy_members@?4??ShowDummyObject@funcs@?1??ShowExampleAppPropertyEditor@@YAXPA_N@Z@SAXPBDH@Z@4PAMA ; ``ShowExampleAppPropertyEditor'::`2'::funcs::ShowDummyObject'::`5'::dummy_members
	npad	7
$LL4@ShowDummyO:

; 2559 :                 {
; 2560 :                     ImGui::PushID(i); // Use field index as identifier.

	push	esi
	call	?PushID@ImGui@@YAXH@Z			; ImGui::PushID
	add	esp, 4

; 2561 :                     if (i < 2)

	cmp	esi, 2
	jge	SHORT $LN6@ShowDummyO

; 2562 :                     {
; 2563 :                         ShowDummyObject("Child", 424242);

	push	424242					; 00067932H
	push	OFFSET ??_C@_05GIMBDOHM@Child?$AA@
	call	?ShowDummyObject@funcs@?1??ShowExampleAppPropertyEditor@@YAXPA_N@Z@SAXPBDH@Z ; `ShowExampleAppPropertyEditor'::`2'::funcs::ShowDummyObject
	add	esp, 8

; 2564 :                     }
; 2565 :                     else

	jmp	$LN7@ShowDummyO
$LN6@ShowDummyO:

; 2566 :                     {
; 2567 :                         ImGui::AlignFirstTextHeightToWidgets();

	call	?AlignFirstTextHeightToWidgets@ImGui@@YAXXZ ; ImGui::AlignFirstTextHeightToWidgets

; 2568 :                         // Here we use a Selectable (instead of Text) to highlight on hover
; 2569 :                         //ImGui::Text("Field_%d", i);
; 2570 :                         char label[32];
; 2571 :                         sprintf(label, "Field_%d", i);

	push	esi
	lea	eax, DWORD PTR _label$1[ebp]
	push	OFFSET ??_C@_08BNKJGCPO@Field_?$CFd?$AA@
	push	eax
	call	_sprintf

; 2572 :                         ImGui::Bullet();

	call	?Bullet@ImGui@@YAXXZ			; ImGui::Bullet

; 2573 :                         ImGui::Selectable(label);

	lea	eax, DWORD PTR $T2[ebp]
; File c:\users\andon\source\repos\specialk\include\imgui\imgui.h

; 98   :     ImVec2(float _x, float _y) { x = _x; y = _y; }

	mov	DWORD PTR $T2[ebp], 0
; File c:\users\andon\source\repos\specialk\src\imgui\imgui_demo.cpp

; 2573 :                         ImGui::Selectable(label);

	push	eax
	push	0
	lea	eax, DWORD PTR _label$1[ebp]
; File c:\users\andon\source\repos\specialk\include\imgui\imgui.h

; 98   :     ImVec2(float _x, float _y) { x = _x; y = _y; }

	mov	DWORD PTR $T2[ebp+4], 0
; File c:\users\andon\source\repos\specialk\src\imgui\imgui_demo.cpp

; 2573 :                         ImGui::Selectable(label);

	push	0
	push	eax
	call	?Selectable@ImGui@@YA_NPBD_NHABUImVec2@@@Z ; ImGui::Selectable

; 2574 :                         ImGui::NextColumn();

	call	?NextColumn@ImGui@@YAXXZ		; ImGui::NextColumn

; 2575 :                         ImGui::PushItemWidth(-1);

	add	esp, 24					; 00000018H
	mov	DWORD PTR [esp], -1082130432		; bf800000H
	call	?PushItemWidth@ImGui@@YAXM@Z		; ImGui::PushItemWidth
	add	esp, 4

; 2576 :                         if (i >= 5)

	cmp	esi, 5
	jl	SHORT $LN8@ShowDummyO

; 2577 :                             ImGui::InputFloat("##value", &dummy_members[i], 1.0f);

	push	0
	push	-1
	sub	esp, 8
	mov	DWORD PTR [esp+4], 0
	mov	DWORD PTR [esp], 1065353216		; 3f800000H
	push	edi
	push	OFFSET ??_C@_07FBBIKLOB@?$CD?$CDvalue?$AA@
	call	?InputFloat@ImGui@@YA_NPBDPAMMMHH@Z	; ImGui::InputFloat
	add	esp, 24					; 00000018H

; 2578 :                         else

	jmp	SHORT $LN9@ShowDummyO
$LN8@ShowDummyO:

; 2579 :                             ImGui::DragFloat("##value", &dummy_members[i], 0.01f);

	push	ecx
	mov	DWORD PTR [esp], 1065353216		; 3f800000H
	push	OFFSET ??_C@_04GFJLOHHD@?$CF?43f?$AA@
	sub	esp, 12					; 0000000cH
	mov	DWORD PTR [esp+8], 0
	mov	DWORD PTR [esp+4], 0
	mov	DWORD PTR [esp], 1008981770		; 3c23d70aH
	push	edi
	push	OFFSET ??_C@_07FBBIKLOB@?$CD?$CDvalue?$AA@
	call	?DragFloat@ImGui@@YA_NPBDPAMMMM0M@Z	; ImGui::DragFloat
	add	esp, 28					; 0000001cH
$LN9@ShowDummyO:

; 2580 :                         ImGui::PopItemWidth();

	call	?PopItemWidth@ImGui@@YAXXZ		; ImGui::PopItemWidth

; 2581 :                         ImGui::NextColumn();

	call	?NextColumn@ImGui@@YAXXZ		; ImGui::NextColumn
$LN7@ShowDummyO:

; 2582 :                     }
; 2583 :                     ImGui::PopID();

	call	?PopID@ImGui@@YAXXZ			; ImGui::PopID
	add	edi, 4
	inc	esi
	cmp	edi, OFFSET ?dummy_members@?4??ShowDummyObject@funcs@?1??ShowExampleAppPropertyEditor@@YAXPA_N@Z@SAXPBDH@Z@4PAMA+32
	jl	$LL4@ShowDummyO

; 2584 :                 }
; 2585 :                 ImGui::TreePop();

	call	?TreePop@ImGui@@YAXXZ			; ImGui::TreePop
	pop	edi
$LN5@ShowDummyO:

; 2586 :             }
; 2587 :             ImGui::PopID();

	call	?PopID@ImGui@@YAXXZ			; ImGui::PopID
	pop	esi
	pop	ebx

; 2588 :         }

	mov	esp, ebp
	pop	ebp
	ret	0
?ShowDummyObject@funcs@?1??ShowExampleAppPropertyEditor@@YAXPA_N@Z@SAXPBDH@Z ENDP ; `ShowExampleAppPropertyEditor'::`2'::funcs::ShowDummyObject
_TEXT	ENDS
; Function compile flags: /Ogtp
; File c:\users\andon\source\repos\specialk\include\imgui\imgui.h
;	COMDAT ??__Flog@?1??ShowExampleAppLog@@YAXPA_N@Z@YAXXZ
text$yd	SEGMENT
__$EHRec$ = -12						; size = 12
??__Flog@?1??ShowExampleAppLog@@YAXPA_N@Z@YAXXZ PROC	; `ShowExampleAppLog'::`2'::`dynamic atexit destructor for 'log'', COMDAT
	npad	2
	push	ebp
	mov	ebp, esp
	mov	eax, DWORD PTR fs:0
	push	-1
	push	__ehhandler$??__Flog@?1??ShowExampleAppLog@@YAXPA_N@Z@YAXXZ
	push	eax
	mov	DWORD PTR fs:0, esp

; 906  :     ~ImVector()                 { if (Data) ImGui::MemFree(Data); }

	mov	eax, DWORD PTR ?log@?1??ShowExampleAppLog@@YAXPA_N@Z@4UExampleAppLog@@A+292
	mov	DWORD PTR __$EHRec$[ebp+8], 0
	test	eax, eax
	je	SHORT $LN7@dynamic
	push	eax
	call	?MemFree@ImGui@@YAXPAX@Z		; ImGui::MemFree
	add	esp, 4
$LN7@dynamic:
	mov	eax, DWORD PTR ?log@?1??ShowExampleAppLog@@YAXPA_N@Z@4UExampleAppLog@@A+276
	mov	DWORD PTR __$EHRec$[ebp+8], 1
	test	eax, eax
	je	SHORT $LN14@dynamic
	push	eax
	call	?MemFree@ImGui@@YAXPAX@Z		; ImGui::MemFree
	add	esp, 4
$LN14@dynamic:
	mov	eax, DWORD PTR ?log@?1??ShowExampleAppLog@@YAXPA_N@Z@4UExampleAppLog@@A+8
	mov	DWORD PTR __$EHRec$[ebp+8], 2
	test	eax, eax
	je	SHORT $LN21@dynamic
	push	eax
	call	?MemFree@ImGui@@YAXPAX@Z		; ImGui::MemFree
	add	esp, 4
$LN21@dynamic:
	mov	ecx, DWORD PTR __$EHRec$[ebp]
	mov	DWORD PTR fs:0, ecx
	mov	esp, ebp
	pop	ebp
	ret	0
text$yd	ENDS
;	COMDAT text$x
text$x	SEGMENT
__ehhandler$??__Flog@?1??ShowExampleAppLog@@YAXPA_N@Z@YAXXZ:
	mov	eax, OFFSET __ehfuncinfo$??__Flog@?1??ShowExampleAppLog@@YAXPA_N@Z@YAXXZ
	jmp	___CxxFrameHandler3
text$x	ENDS
??__Flog@?1??ShowExampleAppLog@@YAXPA_N@Z@YAXXZ ENDP	; `ShowExampleAppLog'::`2'::`dynamic atexit destructor for 'log''
; Function compile flags: /Ogtp
; File c:\users\andon\source\repos\specialk\include\imgui\imgui.h
;	COMDAT ??1ExampleAppLog@@QAE@XZ
_TEXT	SEGMENT
__$EHRec$ = -12						; size = 12
??1ExampleAppLog@@QAE@XZ PROC				; ExampleAppLog::~ExampleAppLog, COMDAT
; _this$ = ecx
	npad	2
	push	ebp
	mov	ebp, esp
	mov	eax, DWORD PTR fs:0
	push	-1
	push	__ehhandler$??1ExampleAppLog@@QAE@XZ
	push	eax
	mov	DWORD PTR fs:0, esp
	push	esi
	mov	esi, ecx

; 906  :     ~ImVector()                 { if (Data) ImGui::MemFree(Data); }

	mov	eax, DWORD PTR [esi+292]
	mov	DWORD PTR __$EHRec$[ebp+8], 0
	test	eax, eax
	je	SHORT $LN4@ExampleApp
	push	eax
	call	?MemFree@ImGui@@YAXPAX@Z		; ImGui::MemFree
	add	esp, 4
$LN4@ExampleApp:
	mov	eax, DWORD PTR [esi+276]
	mov	DWORD PTR __$EHRec$[ebp+8], 1
	test	eax, eax
	je	SHORT $LN11@ExampleApp
	push	eax
	call	?MemFree@ImGui@@YAXPAX@Z		; ImGui::MemFree
	add	esp, 4
$LN11@ExampleApp:
	mov	eax, DWORD PTR [esi+8]
	mov	DWORD PTR __$EHRec$[ebp+8], 2
	test	eax, eax
	je	SHORT $LN18@ExampleApp
	push	eax
	call	?MemFree@ImGui@@YAXPAX@Z		; ImGui::MemFree
	add	esp, 4
$LN18@ExampleApp:
	mov	ecx, DWORD PTR __$EHRec$[ebp]
	mov	DWORD PTR fs:0, ecx
	pop	esi
	mov	esp, ebp
	pop	ebp
	ret	0
_TEXT	ENDS
;	COMDAT text$x
text$x	SEGMENT
__ehhandler$??1ExampleAppLog@@QAE@XZ:
	mov	eax, OFFSET __ehfuncinfo$??1ExampleAppLog@@QAE@XZ
	jmp	___CxxFrameHandler3
text$x	ENDS
??1ExampleAppLog@@QAE@XZ ENDP				; ExampleAppLog::~ExampleAppLog
; Function compile flags: /Ogtp
; File c:\users\andon\source\repos\specialk\include\imgui\imgui.h
;	COMDAT ??0ExampleAppLog@@QAE@XZ
_TEXT	SEGMENT
_this$ = -24						; size = 4
_this$ = -20						; size = 4
$T2 = -13						; size = 1
__$EHRec$ = -12						; size = 12
??0ExampleAppLog@@QAE@XZ PROC				; ExampleAppLog::ExampleAppLog, COMDAT
; _this$ = ecx
	npad	2
	push	ebp
	mov	ebp, esp
	push	-1
	push	__ehhandler$??0ExampleAppLog@@QAE@XZ
	mov	eax, DWORD PTR fs:0
	push	eax
	mov	DWORD PTR fs:0, esp
	sub	esp, 12					; 0000000cH
	push	esi
	mov	esi, ecx
	mov	DWORD PTR _this$[ebp], esi
	mov	DWORD PTR _this$[ebp], esi

; 905  :     ImVector()                  { Size = Capacity = 0; Data = NULL; }

	mov	DWORD PTR [esi+4], 0
	mov	DWORD PTR [esi], 0
	mov	DWORD PTR [esi+8], 0

; 1000 :     ImGuiTextBuffer()   { Buf.push_back(0); }

	lea	eax, DWORD PTR $T2[ebp]
	mov	DWORD PTR __$EHRec$[ebp+8], 0
	push	eax
	mov	BYTE PTR $T2[ebp], 0
	call	?push_back@?$ImVector@D@@QAEXABD@Z	; ImVector<char>::push_back
	push	OFFSET ??_C@_00CNPNBAHC@?$AA@
	lea	ecx, DWORD PTR [esi+12]
	mov	DWORD PTR __$EHRec$[ebp+8], 1
	call	??0ImGuiTextFilter@@QAE@PBD@Z		; ImGuiTextFilter::ImGuiTextFilter
	mov	ecx, DWORD PTR __$EHRec$[ebp]
	mov	eax, esi

; 905  :     ImVector()                  { Size = Capacity = 0; Data = NULL; }

	mov	DWORD PTR [esi+288], 0
	mov	DWORD PTR [esi+284], 0
	mov	DWORD PTR [esi+292], 0
	pop	esi
	mov	DWORD PTR fs:0, ecx
	mov	esp, ebp
	pop	ebp
	ret	0
_TEXT	ENDS
;	COMDAT text$x
text$x	SEGMENT
__unwindfunclet$??0ExampleAppLog@@QAE@XZ$3:
	mov	ecx, DWORD PTR _this$[ebp]
	jmp	??1?$ImVector@D@@QAE@XZ			; ImVector<char>::~ImVector<char>
__unwindfunclet$??0ExampleAppLog@@QAE@XZ$0:
	mov	ecx, DWORD PTR _this$[ebp]
	jmp	??1ImGuiTextBuffer@@QAE@XZ
__ehhandler$??0ExampleAppLog@@QAE@XZ:
	mov	eax, OFFSET __ehfuncinfo$??0ExampleAppLog@@QAE@XZ
	jmp	___CxxFrameHandler3
text$x	ENDS
??0ExampleAppLog@@QAE@XZ ENDP				; ExampleAppLog::ExampleAppLog
; Function compile flags: /Ogtp
; File c:\users\andon\source\repos\specialk\src\imgui\imgui_demo.cpp
; File c:\users\andon\source\repos\specialk\include\imgui\imgui.h
; File c:\users\andon\source\repos\specialk\src\imgui\imgui_demo.cpp
; File c:\users\andon\source\repos\specialk\include\imgui\imgui.h
; File c:\users\andon\source\repos\specialk\src\imgui\imgui_demo.cpp
; File c:\users\andon\source\repos\specialk\include\imgui\imgui.h
; File c:\users\andon\source\repos\specialk\src\imgui\imgui_demo.cpp
; File c:\users\andon\source\repos\specialk\include\imgui\imgui.h
; File c:\users\andon\source\repos\specialk\src\imgui\imgui_demo.cpp
; File c:\users\andon\source\repos\specialk\include\imgui\imgui.h
; File c:\users\andon\source\repos\specialk\src\imgui\imgui_demo.cpp
; File c:\users\andon\source\repos\specialk\include\imgui\imgui.h
; File c:\users\andon\source\repos\specialk\src\imgui\imgui_demo.cpp
; File c:\users\andon\source\repos\specialk\include\imgui\imgui.h
; File c:\users\andon\source\repos\specialk\src\imgui\imgui_demo.cpp
; File c:\users\andon\source\repos\specialk\include\imgui\imgui.h
; File c:\users\andon\source\repos\specialk\src\imgui\imgui_demo.cpp
; File c:\users\andon\source\repos\specialk\include\imgui\imgui.h
; File c:\users\andon\source\repos\specialk\src\imgui\imgui_demo.cpp
;	COMDAT ?Draw@ExampleAppLog@@QAEXPBDPA_N@Z
_TEXT	SEGMENT
$T1 = -12						; size = 8
$T2 = -12						; size = 8
$T3 = -12						; size = 8
$T4 = -12						; size = 8
_this$1$ = -4						; size = 4
_buf_begin$1$ = 8					; size = 4
_title$ = 8						; size = 4
tv274 = 12						; size = 4
_p_open$ = 12						; size = 4
?Draw@ExampleAppLog@@QAEXPBDPA_N@Z PROC			; ExampleAppLog::Draw, COMDAT
; _this$ = ecx

; 2427 :     {

	npad	2
	push	ebp
	mov	ebp, esp
	sub	esp, 12					; 0000000cH
	push	esi

; 2428 :         ImGui::SetNextWindowSize(ImVec2(500,400), ImGuiSetCond_FirstUseEver);

	lea	eax, DWORD PTR $T4[ebp]
; File c:\users\andon\source\repos\specialk\include\imgui\imgui.h

; 98   :     ImVec2(float _x, float _y) { x = _x; y = _y; }

	mov	DWORD PTR $T4[ebp], 1140457472		; 43fa0000H
; File c:\users\andon\source\repos\specialk\src\imgui\imgui_demo.cpp

; 2427 :     {

	mov	esi, ecx
; File c:\users\andon\source\repos\specialk\include\imgui\imgui.h

; 98   :     ImVec2(float _x, float _y) { x = _x; y = _y; }

	mov	DWORD PTR $T4[ebp+4], 1137180672	; 43c80000H
; File c:\users\andon\source\repos\specialk\src\imgui\imgui_demo.cpp

; 2428 :         ImGui::SetNextWindowSize(ImVec2(500,400), ImGuiSetCond_FirstUseEver);

	push	4
	push	eax
	mov	DWORD PTR _this$1$[ebp], esi
	call	?SetNextWindowSize@ImGui@@YAXABUImVec2@@H@Z ; ImGui::SetNextWindowSize

; 2429 :         ImGui::Begin(title, p_open);

	push	0
	push	DWORD PTR _p_open$[ebp]
	push	DWORD PTR _title$[ebp]
	call	?Begin@ImGui@@YA_NPBDPA_NH@Z		; ImGui::Begin

; 2430 :         if (ImGui::Button("Clear")) Clear();

	lea	eax, DWORD PTR $T3[ebp]
; File c:\users\andon\source\repos\specialk\include\imgui\imgui.h

; 98   :     ImVec2(float _x, float _y) { x = _x; y = _y; }

	mov	DWORD PTR $T3[ebp], 0
; File c:\users\andon\source\repos\specialk\src\imgui\imgui_demo.cpp

; 2430 :         if (ImGui::Button("Clear")) Clear();

	push	eax
	push	OFFSET ??_C@_05MDNHABIA@Clear?$AA@
; File c:\users\andon\source\repos\specialk\include\imgui\imgui.h

; 98   :     ImVec2(float _x, float _y) { x = _x; y = _y; }

	mov	DWORD PTR $T3[ebp+4], 0
; File c:\users\andon\source\repos\specialk\src\imgui\imgui_demo.cpp

; 2430 :         if (ImGui::Button("Clear")) Clear();

	call	?Button@ImGui@@YA_NPBDABUImVec2@@@Z	; ImGui::Button
	add	esp, 28					; 0000001cH
	test	al, al
	je	SHORT $LN5@Draw
	mov	ecx, esi
	call	?Clear@ExampleAppLog@@QAEXXZ		; ExampleAppLog::Clear
$LN5@Draw:

; 2431 :         ImGui::SameLine();

	push	ebx
	push	edi
	sub	esp, 8
	mov	DWORD PTR [esp+4], -1082130432		; bf800000H
	mov	DWORD PTR [esp], 0
	call	?SameLine@ImGui@@YAXMM@Z		; ImGui::SameLine

; 2432 :         bool copy = ImGui::Button("Copy");

	lea	eax, DWORD PTR $T2[ebp]
; File c:\users\andon\source\repos\specialk\include\imgui\imgui.h

; 98   :     ImVec2(float _x, float _y) { x = _x; y = _y; }

	mov	DWORD PTR $T2[ebp], 0
; File c:\users\andon\source\repos\specialk\src\imgui\imgui_demo.cpp

; 2432 :         bool copy = ImGui::Button("Copy");

	push	eax
	push	OFFSET ??_C@_04OPMHGHMB@Copy?$AA@
; File c:\users\andon\source\repos\specialk\include\imgui\imgui.h

; 98   :     ImVec2(float _x, float _y) { x = _x; y = _y; }

	mov	DWORD PTR $T2[ebp+4], 0
; File c:\users\andon\source\repos\specialk\src\imgui\imgui_demo.cpp

; 2432 :         bool copy = ImGui::Button("Copy");

	call	?Button@ImGui@@YA_NPBDABUImVec2@@@Z	; ImGui::Button

; 2433 :         ImGui::SameLine();

	add	esp, 8
	mov	bl, al
	mov	DWORD PTR [esp+4], -1082130432		; bf800000H
	mov	DWORD PTR [esp], 0
	call	?SameLine@ImGui@@YAXMM@Z		; ImGui::SameLine

; 2434 :         Filter.Draw("Filter", -100.0f);

	add	esp, 4
	lea	eax, DWORD PTR [esi+12]
	mov	ecx, eax
	mov	DWORD PTR tv274[ebp], eax
	mov	DWORD PTR [esp], -1027080192		; c2c80000H
	push	OFFSET ??_C@_06IBDJIBGI@Filter?$AA@
	call	?Draw@ImGuiTextFilter@@QAE_NPBDM@Z	; ImGuiTextFilter::Draw

; 2435 :         ImGui::Separator();

	call	?Separator@ImGui@@YAXXZ			; ImGui::Separator

; 2436 :         ImGui::BeginChild("scrolling", ImVec2(0,0), false, ImGuiWindowFlags_HorizontalScrollbar);

	push	2048					; 00000800H
	push	0
	lea	eax, DWORD PTR $T1[ebp]
; File c:\users\andon\source\repos\specialk\include\imgui\imgui.h

; 98   :     ImVec2(float _x, float _y) { x = _x; y = _y; }

	mov	DWORD PTR $T1[ebp], 0
; File c:\users\andon\source\repos\specialk\src\imgui\imgui_demo.cpp

; 2436 :         ImGui::BeginChild("scrolling", ImVec2(0,0), false, ImGuiWindowFlags_HorizontalScrollbar);

	push	eax
	push	OFFSET ??_C@_09PKEBEIDM@scrolling?$AA@
; File c:\users\andon\source\repos\specialk\include\imgui\imgui.h

; 98   :     ImVec2(float _x, float _y) { x = _x; y = _y; }

	mov	DWORD PTR $T1[ebp+4], 0
; File c:\users\andon\source\repos\specialk\src\imgui\imgui_demo.cpp

; 2436 :         ImGui::BeginChild("scrolling", ImVec2(0,0), false, ImGuiWindowFlags_HorizontalScrollbar);

	call	?BeginChild@ImGui@@YA_NPBDABUImVec2@@_NH@Z ; ImGui::BeginChild
	add	esp, 16					; 00000010H

; 2437 :         if (copy) ImGui::LogToClipboard();

	test	bl, bl
	je	SHORT $LN6@Draw
	push	-1
	call	?LogToClipboard@ImGui@@YAXH@Z		; ImGui::LogToClipboard
	add	esp, 4
$LN6@Draw:
; File c:\users\andon\source\repos\specialk\include\imgui\imgui.h

; 908  :     inline bool                 empty() const                   { return Size == 0; }

	cmp	DWORD PTR [esi+268], 0
; File c:\users\andon\source\repos\specialk\src\imgui\imgui_demo.cpp

; 2439 :         if (Filter.IsActive())

	je	SHORT $LN7@Draw

; 2440 :         {
; 2441 :             const char* buf_begin = Buf.begin();

	mov	ecx, DWORD PTR [esi+8]

; 2442 :             const char* line = buf_begin;
; 2443 :             for (int line_no = 0; line != NULL; line_no++)

	xor	ebx, ebx
	mov	DWORD PTR _buf_begin$1$[ebp], ecx
	mov	edi, ecx
	test	ecx, ecx
	je	SHORT $LN8@Draw
$LL4@Draw:

; 2444 :             {
; 2445 :                 const char* line_end = (line_no < LineOffsets.Size) ? buf_begin + LineOffsets[line_no] : NULL;

	cmp	ebx, DWORD PTR [esi+284]
	jge	SHORT $LN12@Draw
	mov	eax, DWORD PTR [esi+292]
	mov	esi, DWORD PTR [eax+ebx*4]
	add	esi, ecx
	jmp	SHORT $LN13@Draw
$LN12@Draw:
	xor	esi, esi
$LN13@Draw:

; 2446 :                 if (Filter.PassFilter(line, line_end))

	mov	ecx, DWORD PTR tv274[ebp]
	push	esi
	push	edi
	call	?PassFilter@ImGuiTextFilter@@QBE_NPBD0@Z ; ImGuiTextFilter::PassFilter
	test	al, al
	je	SHORT $LN9@Draw

; 2447 :                     ImGui::TextUnformatted(line, line_end);

	push	esi
	push	edi
	call	?TextUnformatted@ImGui@@YAXPBD0@Z	; ImGui::TextUnformatted
	add	esp, 8
$LN9@Draw:

; 2448 :                 line = line_end && line_end[1] ? line_end + 1 : NULL;

	test	esi, esi
	je	SHORT $LN14@Draw
	cmp	BYTE PTR [esi+1], 0
	lea	edi, DWORD PTR [esi+1]
	jne	SHORT $LN15@Draw
$LN14@Draw:
	xor	edi, edi
$LN15@Draw:

; 2442 :             const char* line = buf_begin;
; 2443 :             for (int line_no = 0; line != NULL; line_no++)

	mov	esi, DWORD PTR _this$1$[ebp]
	inc	ebx
	mov	ecx, DWORD PTR _buf_begin$1$[ebp]
	test	edi, edi
	jne	SHORT $LL4@Draw

; 2449 :             }
; 2450 :         }
; 2451 :         else

	jmp	SHORT $LN8@Draw
$LN7@Draw:

; 2452 :         {
; 2453 :             ImGui::TextUnformatted(Buf.begin());

	push	0
	push	DWORD PTR [esi+8]
	call	?TextUnformatted@ImGui@@YAXPBD0@Z	; ImGui::TextUnformatted
	add	esp, 8
$LN8@Draw:

; 2454 :         }
; 2455 : 
; 2456 :         if (ScrollToBottom)

	cmp	BYTE PTR [esi+296], 0
	pop	edi
	pop	ebx
	je	SHORT $LN10@Draw

; 2457 :             ImGui::SetScrollHere(1.0f);

	push	ecx
	mov	DWORD PTR [esp], 1065353216		; 3f800000H
	call	?SetScrollHere@ImGui@@YAXM@Z		; ImGui::SetScrollHere
	add	esp, 4
$LN10@Draw:

; 2458 :         ScrollToBottom = false;

	mov	BYTE PTR [esi+296], 0

; 2459 :         ImGui::EndChild();

	call	?EndChild@ImGui@@YAXXZ			; ImGui::EndChild

; 2460 :         ImGui::End();

	call	?End@ImGui@@YAXXZ			; ImGui::End
	pop	esi

; 2461 :     }

	mov	esp, ebp
	pop	ebp
	ret	8
?Draw@ExampleAppLog@@QAEXPBDPA_N@Z ENDP			; ExampleAppLog::Draw
_TEXT	ENDS
; Function compile flags: /Ogtp
; File c:\users\andon\source\repos\specialk\src\imgui\imgui_demo.cpp
; File c:\users\andon\source\repos\specialk\include\imgui\imgui.h
; File c:\users\andon\source\repos\specialk\src\imgui\imgui_demo.cpp
; File c:\users\andon\source\repos\specialk\include\imgui\imgui.h
; File c:\users\andon\source\repos\specialk\src\imgui\imgui_demo.cpp
; File c:\users\andon\source\repos\specialk\include\imgui\imgui.h
; File c:\users\andon\source\repos\specialk\src\imgui\imgui_demo.cpp
; File c:\users\andon\source\repos\specialk\include\imgui\imgui.h
; File c:\users\andon\source\repos\specialk\src\imgui\imgui_demo.cpp
;	COMDAT ?AddLog@ExampleAppLog@@QAAXPBDZZ
_TEXT	SEGMENT
_new_size$1$ = -4					; size = 4
_new_data$1$ = 8					; size = 4
_this$ = 8						; size = 4
_fmt$ = 12						; size = 4
?AddLog@ExampleAppLog@@QAAXPBDZZ PROC			; ExampleAppLog::AddLog, COMDAT

; 2414 :     {

	npad	2
	push	ebp
	mov	ebp, esp
	push	ecx
	push	esi
; File c:\users\andon\source\repos\specialk\include\imgui\imgui.h

; 1004 :     int                 size() const { return Buf.Size - 1; }

	mov	esi, DWORD PTR _this$[ebp]
; File c:\users\andon\source\repos\specialk\src\imgui\imgui_demo.cpp

; 2418 :         Buf.appendv(fmt, args);

	lea	eax, DWORD PTR _fmt$[ebp+4]
	push	edi
	push	eax
	push	DWORD PTR _fmt$[ebp]
; File c:\users\andon\source\repos\specialk\include\imgui\imgui.h

; 1004 :     int                 size() const { return Buf.Size - 1; }

	mov	edi, DWORD PTR [esi]
; File c:\users\andon\source\repos\specialk\src\imgui\imgui_demo.cpp

; 2418 :         Buf.appendv(fmt, args);

	mov	ecx, esi
	call	?appendv@ImGuiTextBuffer@@QAEXPBDPAD@Z	; ImGuiTextBuffer::appendv
; File c:\users\andon\source\repos\specialk\include\imgui\imgui.h

; 1004 :     int                 size() const { return Buf.Size - 1; }

	mov	eax, DWORD PTR [esi]
	dec	edi
	dec	eax
	mov	DWORD PTR _new_size$1$[ebp], eax
; File c:\users\andon\source\repos\specialk\src\imgui\imgui_demo.cpp

; 2420 :         for (int new_size = Buf.size(); old_size < new_size; old_size++)

	cmp	edi, eax
	jge	$LN28@AddLog
	push	ebx
	npad	5
$LL4@AddLog:

; 2421 :             if (Buf[old_size] == '\n')

	mov	eax, DWORD PTR [esi+8]
	cmp	BYTE PTR [edi+eax], 10			; 0000000aH
	jne	$LN2@AddLog
; File c:\users\andon\source\repos\specialk\include\imgui\imgui.h

; 940  :     inline void                 push_back(const value_type& v)  { if (Size == Capacity) reserve(_grow_capacity(Size+1)); Data[Size++] = v; }

	mov	ebx, DWORD PTR [esi+284]
	mov	ecx, DWORD PTR [esi+288]
	cmp	ebx, ecx
	jne	SHORT $LN20@AddLog
	inc	ebx

; 926  :     inline int                  _grow_capacity(int new_size)    { int new_capacity = Capacity ? (Capacity + Capacity/2) : 8; return new_capacity > new_size ? new_capacity : new_size; }

	test	ecx, ecx
	je	SHORT $LN18@AddLog
	mov	eax, ecx
	cdq
	sub	eax, edx
	sar	eax, 1
	add	eax, ecx
	jmp	SHORT $LN19@AddLog
$LN18@AddLog:
	mov	eax, 8
$LN19@AddLog:
	cmp	eax, ebx
	cmovg	ebx, eax

; 931  :         if (new_capacity <= Capacity) return;

	cmp	ebx, ecx
	jle	SHORT $LN20@AddLog

; 932  :         T* new_data = (value_type*)ImGui::MemAlloc((size_t)new_capacity * sizeof(value_type));

	lea	eax, DWORD PTR [ebx*4]
	push	eax
	call	?MemAlloc@ImGui@@YAPAXI@Z		; ImGui::MemAlloc

; 933  :         if (Data)

	mov	edx, DWORD PTR [esi+292]
	add	esp, 4
	mov	DWORD PTR _new_data$1$[ebp], eax
	test	edx, edx
	je	SHORT $LN22@AddLog

; 934  :             memcpy(new_data, Data, (size_t)Size * sizeof(value_type));

	mov	ecx, DWORD PTR [esi+284]
	shl	ecx, 2
	push	ecx
	push	edx
	push	eax
	call	_memcpy
	add	esp, 12					; 0000000cH
$LN22@AddLog:

; 935  :         ImGui::MemFree(Data);

	push	DWORD PTR [esi+292]
	call	?MemFree@ImGui@@YAXPAX@Z		; ImGui::MemFree

; 936  :         Data = new_data;

	mov	eax, DWORD PTR _new_data$1$[ebp]
	add	esp, 4
	mov	DWORD PTR [esi+292], eax

; 937  :         Capacity = new_capacity;

	mov	DWORD PTR [esi+288], ebx
$LN20@AddLog:

; 940  :     inline void                 push_back(const value_type& v)  { if (Size == Capacity) reserve(_grow_capacity(Size+1)); Data[Size++] = v; }

	mov	ecx, DWORD PTR [esi+284]
	mov	eax, DWORD PTR [esi+292]
	mov	DWORD PTR [eax+ecx*4], edi
	inc	DWORD PTR [esi+284]
$LN2@AddLog:
; File c:\users\andon\source\repos\specialk\src\imgui\imgui_demo.cpp

; 2420 :         for (int new_size = Buf.size(); old_size < new_size; old_size++)

	inc	edi
	cmp	edi, DWORD PTR _new_size$1$[ebp]
	jl	$LL4@AddLog
	pop	ebx
$LN28@AddLog:
	pop	edi

; 2422 :                 LineOffsets.push_back(old_size);
; 2423 :         ScrollToBottom = true;

	mov	BYTE PTR [esi+296], 1
	pop	esi

; 2424 :     }

	mov	esp, ebp
	pop	ebp
	ret	0
?AddLog@ExampleAppLog@@QAAXPBDZZ ENDP			; ExampleAppLog::AddLog
_TEXT	ENDS
; Function compile flags: /Ogtp
; File c:\users\andon\source\repos\specialk\src\imgui\imgui_demo.cpp
; File c:\users\andon\source\repos\specialk\include\imgui\imgui.h
; File c:\users\andon\source\repos\specialk\src\imgui\imgui_demo.cpp
;	COMDAT ?Clear@ExampleAppLog@@QAEXXZ
_TEXT	SEGMENT
$T1 = -1						; size = 1
?Clear@ExampleAppLog@@QAEXXZ PROC			; ExampleAppLog::Clear, COMDAT
; _this$ = ecx

; 2411 :     void    Clear()     { Buf.clear(); LineOffsets.clear(); }

	npad	2
	push	ebp
	mov	ebp, esp
	push	ecx
	push	esi
	mov	esi, ecx
; File c:\users\andon\source\repos\specialk\include\imgui\imgui.h

; 915  :     inline void                 clear()                         { if (Data) { Size = Capacity = 0; ImGui::MemFree(Data); Data = NULL; } }

	mov	eax, DWORD PTR [esi+8]
	test	eax, eax
	je	SHORT $LN6@Clear
	push	eax
	mov	DWORD PTR [esi+4], 0
	mov	DWORD PTR [esi], 0
	call	?MemFree@ImGui@@YAXPAX@Z		; ImGui::MemFree
	add	esp, 4
	mov	DWORD PTR [esi+8], 0
$LN6@Clear:

; 1006 :     void                clear() { Buf.clear(); Buf.push_back(0); }

	lea	eax, DWORD PTR $T1[ebp]
	mov	BYTE PTR $T1[ebp], 0
	push	eax
	mov	ecx, esi
	call	?push_back@?$ImVector@D@@QAEXABD@Z	; ImVector<char>::push_back

; 915  :     inline void                 clear()                         { if (Data) { Size = Capacity = 0; ImGui::MemFree(Data); Data = NULL; } }

	mov	eax, DWORD PTR [esi+292]
	test	eax, eax
	je	SHORT $LN9@Clear
	push	eax
	mov	DWORD PTR [esi+288], 0
	mov	DWORD PTR [esi+284], 0
	call	?MemFree@ImGui@@YAXPAX@Z		; ImGui::MemFree
	add	esp, 4
	mov	DWORD PTR [esi+292], 0
$LN9@Clear:
	pop	esi
; File c:\users\andon\source\repos\specialk\src\imgui\imgui_demo.cpp

; 2411 :     void    Clear()     { Buf.clear(); LineOffsets.clear(); }

	mov	esp, ebp
	pop	ebp
	ret	0
?Clear@ExampleAppLog@@QAEXXZ ENDP			; ExampleAppLog::Clear
_TEXT	ENDS
; Function compile flags: /Ogtp
; File c:\users\andon\source\repos\specialk\include\imgui\imgui.h
;	COMDAT ?push_back@?$ImVector@H@@QAEXABH@Z
_TEXT	SEGMENT
_v$ = 8							; size = 4
?push_back@?$ImVector@H@@QAEXABH@Z PROC			; ImVector<int>::push_back, COMDAT
; _this$ = ecx

; 940  :     inline void                 push_back(const value_type& v)  { if (Size == Capacity) reserve(_grow_capacity(Size+1)); Data[Size++] = v; }

	npad	2
	push	ebp
	mov	ebp, esp
	push	esi
	mov	esi, ecx
	push	edi
	mov	edi, DWORD PTR [esi]
	mov	ecx, DWORD PTR [esi+4]
	cmp	edi, ecx
	jne	SHORT $LN8@push_back
	inc	edi

; 926  :     inline int                  _grow_capacity(int new_size)    { int new_capacity = Capacity ? (Capacity + Capacity/2) : 8; return new_capacity > new_size ? new_capacity : new_size; }

	test	ecx, ecx
	je	SHORT $LN6@push_back
	mov	eax, ecx
	cdq
	sub	eax, edx
	sar	eax, 1
	add	eax, ecx
	jmp	SHORT $LN7@push_back
$LN6@push_back:
	mov	eax, 8
$LN7@push_back:
	cmp	eax, edi
	cmovg	edi, eax

; 931  :         if (new_capacity <= Capacity) return;

	cmp	edi, ecx
	jle	SHORT $LN8@push_back

; 932  :         T* new_data = (value_type*)ImGui::MemAlloc((size_t)new_capacity * sizeof(value_type));

	lea	eax, DWORD PTR [edi*4]
	push	ebx
	push	eax
	call	?MemAlloc@ImGui@@YAPAXI@Z		; ImGui::MemAlloc
	mov	ebx, eax
	add	esp, 4

; 933  :         if (Data)

	mov	eax, DWORD PTR [esi+8]
	test	eax, eax
	je	SHORT $LN10@push_back

; 934  :             memcpy(new_data, Data, (size_t)Size * sizeof(value_type));

	mov	ecx, DWORD PTR [esi]
	shl	ecx, 2
	push	ecx
	push	eax
	push	ebx
	call	_memcpy
	add	esp, 12					; 0000000cH
$LN10@push_back:

; 935  :         ImGui::MemFree(Data);

	push	DWORD PTR [esi+8]
	call	?MemFree@ImGui@@YAXPAX@Z		; ImGui::MemFree
	add	esp, 4

; 936  :         Data = new_data;

	mov	DWORD PTR [esi+8], ebx

; 937  :         Capacity = new_capacity;

	mov	DWORD PTR [esi+4], edi
	pop	ebx
$LN8@push_back:

; 940  :     inline void                 push_back(const value_type& v)  { if (Size == Capacity) reserve(_grow_capacity(Size+1)); Data[Size++] = v; }

	mov	edx, DWORD PTR [esi]
	mov	ecx, DWORD PTR [esi+8]
	mov	eax, DWORD PTR _v$[ebp]
	pop	edi
	mov	eax, DWORD PTR [eax]
	mov	DWORD PTR [ecx+edx*4], eax
	inc	DWORD PTR [esi]
	pop	esi
	pop	ebp
	ret	4
?push_back@?$ImVector@H@@QAEXABH@Z ENDP			; ImVector<int>::push_back
_TEXT	ENDS
; Function compile flags: /Ogtp
; File c:\users\andon\source\repos\specialk\include\imgui\imgui.h
;	COMDAT ?reserve@?$ImVector@H@@QAEXH@Z
_TEXT	SEGMENT
_new_capacity$ = 8					; size = 4
?reserve@?$ImVector@H@@QAEXH@Z PROC			; ImVector<int>::reserve, COMDAT
; _this$ = ecx

; 930  :     {

	npad	2
	push	ebp
	mov	ebp, esp
	push	esi
	mov	esi, ecx
	push	edi

; 931  :         if (new_capacity <= Capacity) return;

	mov	edi, DWORD PTR _new_capacity$[ebp]
	cmp	edi, DWORD PTR [esi+4]
	jle	SHORT $LN1@reserve

; 932  :         T* new_data = (value_type*)ImGui::MemAlloc((size_t)new_capacity * sizeof(value_type));

	lea	eax, DWORD PTR [edi*4]
	push	ebx
	push	eax
	call	?MemAlloc@ImGui@@YAPAXI@Z		; ImGui::MemAlloc
	mov	ebx, eax
	add	esp, 4

; 933  :         if (Data)

	mov	eax, DWORD PTR [esi+8]
	test	eax, eax
	je	SHORT $LN3@reserve

; 934  :             memcpy(new_data, Data, (size_t)Size * sizeof(value_type));

	mov	ecx, DWORD PTR [esi]
	shl	ecx, 2
	push	ecx
	push	eax
	push	ebx
	call	_memcpy
	add	esp, 12					; 0000000cH
$LN3@reserve:

; 935  :         ImGui::MemFree(Data);

	push	DWORD PTR [esi+8]
	call	?MemFree@ImGui@@YAXPAX@Z		; ImGui::MemFree
	add	esp, 4

; 936  :         Data = new_data;

	mov	DWORD PTR [esi+8], ebx

; 937  :         Capacity = new_capacity;

	mov	DWORD PTR [esi+4], edi
	pop	ebx
$LN1@reserve:
	pop	edi
	pop	esi

; 938  :     }

	pop	ebp
	ret	4
?reserve@?$ImVector@H@@QAEXH@Z ENDP			; ImVector<int>::reserve
_TEXT	ENDS
; Function compile flags: /Ogtp
; File c:\users\andon\source\repos\specialk\include\imgui\imgui.h
;	COMDAT ?_grow_capacity@?$ImVector@H@@QAEHH@Z
_TEXT	SEGMENT
_new_size$ = 8						; size = 4
?_grow_capacity@?$ImVector@H@@QAEHH@Z PROC		; ImVector<int>::_grow_capacity, COMDAT
; _this$ = ecx

; 926  :     inline int                  _grow_capacity(int new_size)    { int new_capacity = Capacity ? (Capacity + Capacity/2) : 8; return new_capacity > new_size ? new_capacity : new_size; }

	npad	2
	push	ebp
	mov	ebp, esp
	push	esi
	mov	esi, DWORD PTR [ecx+4]
	test	esi, esi
	je	SHORT $LN3@grow_capac
	mov	eax, esi
	cdq
	sub	eax, edx
	mov	ecx, eax
	mov	eax, DWORD PTR _new_size$[ebp]
	sar	ecx, 1
	add	ecx, esi
	cmp	ecx, eax
	pop	esi
	cmovg	eax, ecx
	pop	ebp
	ret	4
$LN3@grow_capac:
	mov	eax, DWORD PTR _new_size$[ebp]
	mov	ecx, 8
	cmp	ecx, eax
	pop	esi
	cmovg	eax, ecx
	pop	ebp
	ret	4
?_grow_capacity@?$ImVector@H@@QAEHH@Z ENDP		; ImVector<int>::_grow_capacity
_TEXT	ENDS
; Function compile flags: /Ogtp
; File c:\users\andon\source\repos\specialk\include\imgui\imgui.h
;	COMDAT ?clear@?$ImVector@H@@QAEXXZ
_TEXT	SEGMENT
?clear@?$ImVector@H@@QAEXXZ PROC			; ImVector<int>::clear, COMDAT
; _this$ = ecx

; 915  :     inline void                 clear()                         { if (Data) { Size = Capacity = 0; ImGui::MemFree(Data); Data = NULL; } }

	npad	2
	push	esi
	mov	esi, ecx
	mov	eax, DWORD PTR [esi+8]
	test	eax, eax
	je	SHORT $LN2@clear
	push	eax
	mov	DWORD PTR [esi+4], 0
	mov	DWORD PTR [esi], 0
	call	?MemFree@ImGui@@YAXPAX@Z		; ImGui::MemFree
	add	esp, 4
	mov	DWORD PTR [esi+8], 0
$LN2@clear:
	pop	esi
	ret	0
?clear@?$ImVector@H@@QAEXXZ ENDP			; ImVector<int>::clear
_TEXT	ENDS
; Function compile flags: /Ogtp
; File c:\users\andon\source\repos\specialk\include\imgui\imgui.h
;	COMDAT ??A?$ImVector@H@@QAEAAHH@Z
_TEXT	SEGMENT
_i$ = 8							; size = 4
??A?$ImVector@H@@QAEAAHH@Z PROC				; ImVector<int>::operator[], COMDAT
; _this$ = ecx

; 912  :     inline value_type&          operator[](int i)               { IM_ASSERT(i < Size); return Data[i]; }

	npad	2
	push	ebp
	mov	ebp, esp
	mov	ecx, DWORD PTR [ecx+8]
	mov	eax, DWORD PTR _i$[ebp]
	lea	eax, DWORD PTR [ecx+eax*4]
	pop	ebp
	ret	4
??A?$ImVector@H@@QAEAAHH@Z ENDP				; ImVector<int>::operator[]
_TEXT	ENDS
; Function compile flags: /Ogtp
; File c:\users\andon\source\repos\specialk\include\imgui\imgui.h
;	COMDAT ??1?$ImVector@H@@QAE@XZ
_TEXT	SEGMENT
__$EHRec$ = -12						; size = 12
??1?$ImVector@H@@QAE@XZ PROC				; ImVector<int>::~ImVector<int>, COMDAT
; _this$ = ecx

; 906  :     ~ImVector()                 { if (Data) ImGui::MemFree(Data); }

	npad	2
	push	ebp
	mov	ebp, esp
	mov	eax, DWORD PTR fs:0
	push	-1
	push	__ehhandler$??1?$ImVector@H@@QAE@XZ
	push	eax
	mov	DWORD PTR fs:0, esp
	mov	eax, DWORD PTR [ecx+8]
	test	eax, eax
	je	SHORT $LN2@ImVector
	push	eax
	call	?MemFree@ImGui@@YAXPAX@Z		; ImGui::MemFree
	add	esp, 4
$LN2@ImVector:
	mov	ecx, DWORD PTR __$EHRec$[ebp]
	mov	DWORD PTR fs:0, ecx
	mov	esp, ebp
	pop	ebp
	ret	0
_TEXT	ENDS
;	COMDAT text$x
text$x	SEGMENT
__ehhandler$??1?$ImVector@H@@QAE@XZ:
	mov	eax, OFFSET __ehfuncinfo$??1?$ImVector@H@@QAE@XZ
	jmp	___CxxFrameHandler3
text$x	ENDS
??1?$ImVector@H@@QAE@XZ ENDP				; ImVector<int>::~ImVector<int>
; Function compile flags: /Ogtp
; File c:\users\andon\source\repos\specialk\include\imgui\imgui.h
;	COMDAT ??0?$ImVector@H@@QAE@XZ
_TEXT	SEGMENT
??0?$ImVector@H@@QAE@XZ PROC				; ImVector<int>::ImVector<int>, COMDAT
; _this$ = ecx

; 905  :     ImVector()                  { Size = Capacity = 0; Data = NULL; }

	mov	DWORD PTR [ecx+4], 0
	mov	eax, ecx
	mov	DWORD PTR [ecx], 0
	mov	DWORD PTR [ecx+8], 0
	ret	0
??0?$ImVector@H@@QAE@XZ ENDP				; ImVector<int>::ImVector<int>
_TEXT	ENDS
; Function compile flags: /Ogtp
;	COMDAT ??__Fconsole@?1??ShowExampleAppConsole@@YAXPA_N@Z@YAXXZ
text$yd	SEGMENT
??__Fconsole@?1??ShowExampleAppConsole@@YAXPA_N@Z@YAXXZ PROC ; `ShowExampleAppConsole'::`2'::`dynamic atexit destructor for 'console'', COMDAT
	mov	ecx, OFFSET ?console@?1??ShowExampleAppConsole@@YAXPA_N@Z@4UExampleAppConsole@@A
	jmp	??1ExampleAppConsole@@QAE@XZ		; ExampleAppConsole::~ExampleAppConsole
??__Fconsole@?1??ShowExampleAppConsole@@YAXPA_N@Z@YAXXZ ENDP ; `ShowExampleAppConsole'::`2'::`dynamic atexit destructor for 'console''
text$yd	ENDS
; Function compile flags: /Ogtp
; File c:\users\andon\source\repos\specialk\include\imgui\imgui.h
;	COMDAT ??__Ffilter@?1??Draw@ExampleAppConsole@@QAEXPBDPA_N@Z@YAXXZ
text$yd	SEGMENT
__$EHRec$ = -12						; size = 12
??__Ffilter@?1??Draw@ExampleAppConsole@@QAEXPBDPA_N@Z@YAXXZ PROC ; `ExampleAppConsole::Draw'::`2'::`dynamic atexit destructor for 'filter'', COMDAT
	npad	2
	push	ebp
	mov	ebp, esp
	mov	eax, DWORD PTR fs:0
	push	-1
	push	__ehhandler$??__Ffilter@?1??Draw@ExampleAppConsole@@QAEXPBDPA_N@Z@YAXXZ
	push	eax
	mov	DWORD PTR fs:0, esp

; 906  :     ~ImVector()                 { if (Data) ImGui::MemFree(Data); }

	mov	eax, DWORD PTR ?filter@?1??Draw@ExampleAppConsole@@QAEXPBDPA_N@Z@4UImGuiTextFilter@@A+264
	mov	DWORD PTR __$EHRec$[ebp+8], 0
	test	eax, eax
	je	SHORT $LN7@dynamic
	push	eax
	call	?MemFree@ImGui@@YAXPAX@Z		; ImGui::MemFree
	add	esp, 4
$LN7@dynamic:
	mov	ecx, DWORD PTR __$EHRec$[ebp]
	mov	DWORD PTR fs:0, ecx
	mov	esp, ebp
	pop	ebp
	ret	0
text$yd	ENDS
;	COMDAT text$x
text$x	SEGMENT
__ehhandler$??__Ffilter@?1??Draw@ExampleAppConsole@@QAEXPBDPA_N@Z@YAXXZ:
	mov	eax, OFFSET __ehfuncinfo$??__Ffilter@?1??Draw@ExampleAppConsole@@QAEXPBDPA_N@Z@YAXXZ
	jmp	___CxxFrameHandler3
text$x	ENDS
??__Ffilter@?1??Draw@ExampleAppConsole@@QAEXPBDPA_N@Z@YAXXZ ENDP ; `ExampleAppConsole::Draw'::`2'::`dynamic atexit destructor for 'filter''
; Function compile flags: /Ogtp
; File c:\program files (x86)\microsoft visual studio\2017\community\vc\tools\msvc\14.10.25017\include\vadefs.h
;	COMDAT ??$__vcrt_va_start_verify_argument_type@PBD@@YAXXZ
_TEXT	SEGMENT
??$__vcrt_va_start_verify_argument_type@PBD@@YAXXZ PROC	; __vcrt_va_start_verify_argument_type<char const *>, COMDAT

; 145  :             static_assert(!__vcrt_va_list_is_reference<_Ty>::__the_value, "va_start argument must not have reference type and must not be parenthesized");
; 146  :         }

	ret	0
??$__vcrt_va_start_verify_argument_type@PBD@@YAXXZ ENDP	; __vcrt_va_start_verify_argument_type<char const *>
_TEXT	ENDS
; Function compile flags: /Ogtp
; File c:\users\andon\source\repos\specialk\src\imgui\imgui_demo.cpp
; File c:\users\andon\source\repos\specialk\include\imgui\imgui.h
; File c:\users\andon\source\repos\specialk\src\imgui\imgui_demo.cpp
; File c:\users\andon\source\repos\specialk\include\imgui\imgui.h
; File c:\users\andon\source\repos\specialk\src\imgui\imgui_demo.cpp
;	COMDAT ?TextEditCallback@ExampleAppConsole@@QAEHPAUImGuiTextEditCallbackData@@@Z
_TEXT	SEGMENT
_candidates$2 = -40					; size = 12
_this$1$ = -28						; size = 4
tv530 = -24						; size = 4
_match_len$1$ = -20					; size = 4
_word_end$1$ = -20					; size = 4
_word_start$1$ = -16					; size = 4
__$EHRec$ = -12						; size = 12
_data$ = 8						; size = 4
?TextEditCallback@ExampleAppConsole@@QAEHPAUImGuiTextEditCallbackData@@@Z PROC ; ExampleAppConsole::TextEditCallback, COMDAT
; _this$ = ecx

; 2295 :     {

	npad	2
	push	ebp
	mov	ebp, esp
	push	-1
	push	__ehhandler$?TextEditCallback@ExampleAppConsole@@QAEHPAUImGuiTextEditCallbackData@@@Z
	mov	eax, DWORD PTR fs:0
	push	eax
	mov	DWORD PTR fs:0, esp
	sub	esp, 28					; 0000001cH
	push	ebx
	push	esi

; 2296 :         //AddLog("cursor: %d, selection: %d-%d", data->CursorPos, data->SelectionStart, data->SelectionEnd);
; 2297 :         switch (data->EventFlag)

	mov	esi, DWORD PTR _data$[ebp]
	mov	ebx, ecx
	mov	DWORD PTR _this$1$[ebp], ebx
	mov	eax, DWORD PTR [esi]
	sub	eax, 64					; 00000040H
	je	$LN18@TextEditCa
	sub	eax, 64					; 00000040H
	jne	$LN98@TextEditCa

; 2360 :                 }
; 2361 : 
; 2362 :                 break;
; 2363 :             }
; 2364 :         case ImGuiInputTextFlags_CallbackHistory:
; 2365 :             {
; 2366 :                 // Example of HISTORY
; 2367 :                 const int prev_history_pos = HistoryPos;
; 2368 :                 if (data->EventKey == ImGuiKey_UpArrow)

	mov	eax, DWORD PTR [esi+16]
	mov	ecx, DWORD PTR [ebx+284]
	cmp	eax, 1
	jne	SHORT $LN33@TextEditCa

; 2369 :                 {
; 2370 :                     if (HistoryPos == -1)

	cmp	ecx, -1
	jne	SHORT $LN35@TextEditCa

; 2371 :                         HistoryPos = History.Size - 1;

	mov	eax, DWORD PTR [ebx+272]
	dec	eax
	jmp	SHORT $LN107@TextEditCa
$LN35@TextEditCa:

; 2372 :                     else if (HistoryPos > 0)

	test	ecx, ecx
	jle	SHORT $LN40@TextEditCa

; 2373 :                         HistoryPos--;

	lea	eax, DWORD PTR [ecx-1]

; 2374 :                 }

	jmp	SHORT $LN107@TextEditCa
$LN33@TextEditCa:

; 2375 :                 else if (data->EventKey == ImGuiKey_DownArrow)

	cmp	eax, 2
	jne	SHORT $LN40@TextEditCa

; 2376 :                 {
; 2377 :                     if (HistoryPos != -1)

	cmp	ecx, -1
	je	SHORT $LN40@TextEditCa

; 2378 :                         if (++HistoryPos >= History.Size)

	lea	eax, DWORD PTR [ecx+1]
	or	edx, -1
	cmp	eax, DWORD PTR [ebx+272]
	cmovge	eax, edx
$LN107@TextEditCa:
	mov	DWORD PTR [ebx+284], eax
$LN40@TextEditCa:

; 2379 :                             HistoryPos = -1;
; 2380 :                 }
; 2381 : 
; 2382 :                 // A better implementation would preserve the data on the current input line along with cursor position.
; 2383 :                 if (prev_history_pos != HistoryPos)

	mov	edx, DWORD PTR [ebx+284]
	cmp	ecx, edx
	je	$LN98@TextEditCa

; 2384 :                 {
; 2385 :                     data->CursorPos = data->SelectionStart = data->SelectionEnd = data->BufTextLen = (int)snprintf(data->Buf, (size_t)data->BufSize, "%s", (HistoryPos >= 0) ? History[HistoryPos] : "");

	test	edx, edx
	js	SHORT $LN43@TextEditCa
	mov	eax, DWORD PTR [ebx+280]
	mov	eax, DWORD PTR [eax+edx*4]
	jmp	SHORT $LN44@TextEditCa
$LN43@TextEditCa:
	mov	eax, OFFSET ??_C@_00CNPNBAHC@?$AA@
$LN44@TextEditCa:
	push	eax
	push	OFFSET ??_C@_02DKCKIIND@?$CFs?$AA@
	push	DWORD PTR [esi+28]
	push	DWORD PTR [esi+20]
	call	__snprintf
	add	esp, 16					; 00000010H
	mov	DWORD PTR [esi+24], eax
	mov	DWORD PTR [esi+44], eax
	mov	DWORD PTR [esi+40], eax
	mov	DWORD PTR [esi+36], eax

; 2386 :                     data->BufDirty = true;
; 2387 :                 }
; 2388 :             }
; 2389 :         }
; 2390 :         return 0;

	xor	eax, eax
	mov	BYTE PTR [esi+32], 1
	pop	esi
	pop	ebx

; 2391 :     }

	mov	ecx, DWORD PTR __$EHRec$[ebp]
	mov	DWORD PTR fs:0, ecx
	mov	esp, ebp
	pop	ebp
	ret	4
$LN18@TextEditCa:

; 2298 :         {
; 2299 :         case ImGuiInputTextFlags_CallbackCompletion:
; 2300 :             {
; 2301 :                 // Example of TEXT COMPLETION
; 2302 : 
; 2303 :                 // Locate beginning of current word
; 2304 :                 const char* word_end = data->Buf + data->CursorPos;

	mov	edx, DWORD PTR [esi+20]
	push	edi
	mov	edi, DWORD PTR [esi+36]
	add	edi, edx
	mov	DWORD PTR _word_end$1$[ebp], edi

; 2305 :                 const char* word_start = word_end;

	mov	ecx, edi
	mov	DWORD PTR _word_start$1$[ebp], ecx

; 2306 :                 while (word_start > data->Buf)

	cmp	edi, edx
	jbe	SHORT $LN80@TextEditCa
	mov	ebx, ecx
$LL4@TextEditCa:

; 2307 :                 {
; 2308 :                     const char c = word_start[-1];

	mov	al, BYTE PTR [ebx-1]

; 2309 :                     if (c == ' ' || c == '\t' || c == ',' || c == ';')

	cmp	al, 32					; 00000020H
	je	SHORT $LN102@TextEditCa
	cmp	al, 9
	je	SHORT $LN102@TextEditCa
	cmp	al, 44					; 0000002cH
	je	SHORT $LN102@TextEditCa
	cmp	al, 59					; 0000003bH
	je	SHORT $LN102@TextEditCa

; 2310 :                         break;
; 2311 :                     word_start--;

	dec	ebx
	mov	DWORD PTR _word_start$1$[ebp], ebx
	cmp	ebx, edx
	ja	SHORT $LL4@TextEditCa
$LN102@TextEditCa:
	mov	ebx, DWORD PTR _this$1$[ebp]
	mov	ecx, DWORD PTR _word_start$1$[ebp]
$LN80@TextEditCa:
; File c:\users\andon\source\repos\specialk\include\imgui\imgui.h

; 905  :     ImVector()                  { Size = Capacity = 0; Data = NULL; }

	mov	DWORD PTR _candidates$2[ebp+4], 0
	mov	DWORD PTR _candidates$2[ebp], 0
	mov	DWORD PTR _candidates$2[ebp+8], 0
; File c:\users\andon\source\repos\specialk\src\imgui\imgui_demo.cpp

; 2316 :                 for (int i = 0; i < Commands.Size; i++)

	xor	esi, esi
	mov	DWORD PTR __$EHRec$[ebp+8], 0
	cmp	DWORD PTR [ebx+288], esi
	jle	$LN96@TextEditCa
	mov	edx, edi
	mov	edi, DWORD PTR _this$1$[ebp]
	sub	edx, ecx
	mov	DWORD PTR tv530[ebp], edx
	npad	11
$LL8@TextEditCa:
	mov	eax, DWORD PTR [edi+296]
	lea	ebx, DWORD PTR [esi*4]

; 2317 :                     if (Strnicmp(Commands[i], word_start, (int)(word_end-word_start)) == 0)

	push	edx
	push	ecx
	push	DWORD PTR [eax+ebx]
	call	?Strnicmp@ExampleAppConsole@@SAHPBD0H@Z	; ExampleAppConsole::Strnicmp
	add	esp, 12					; 0000000cH
	test	eax, eax
	jne	SHORT $LN6@TextEditCa

; 2318 :                         candidates.push_back(Commands[i]);

	mov	eax, DWORD PTR [edi+296]
	lea	ecx, DWORD PTR _candidates$2[ebp]
	add	eax, ebx
	push	eax
	call	?push_back@?$ImVector@PBD@@QAEXABQBD@Z	; ImVector<char const *>::push_back
$LN6@TextEditCa:

; 2316 :                 for (int i = 0; i < Commands.Size; i++)

	mov	ecx, DWORD PTR _word_start$1$[ebp]
	inc	esi
	mov	edx, DWORD PTR tv530[ebp]
	cmp	esi, DWORD PTR [edi+288]
	jl	SHORT $LL8@TextEditCa

; 2319 : 
; 2320 :                 if (candidates.Size == 0)

	mov	eax, DWORD PTR _candidates$2[ebp]
	mov	edi, DWORD PTR _word_end$1$[ebp]
	test	eax, eax
	je	$LN101@TextEditCa

; 2324 :                 }
; 2325 :                 else if (candidates.Size == 1)

	cmp	eax, 1
	jne	SHORT $LN24@TextEditCa

; 2326 :                 {
; 2327 :                     // Single match. Delete the beginning of the word and replace it entirely so we've got nice casing
; 2328 :                     data->DeleteChars((int)(word_start-data->Buf), (int)(word_end-word_start));

	mov	esi, DWORD PTR _data$[ebp]
	mov	eax, ecx
	push	edx
	mov	ecx, esi
	sub	eax, DWORD PTR [esi+20]
	push	eax
	call	?DeleteChars@ImGuiTextEditCallbackData@@QAEXHH@Z ; ImGuiTextEditCallbackData::DeleteChars

; 2329 :                     data->InsertChars(data->CursorPos, candidates[0]);

	mov	ebx, DWORD PTR _candidates$2[ebp+8]
	mov	ecx, esi
	push	0
	push	DWORD PTR [ebx]
	push	DWORD PTR [esi+36]
	call	?InsertChars@ImGuiTextEditCallbackData@@QAEXHPBD0@Z ; ImGuiTextEditCallbackData::InsertChars

; 2330 :                     data->InsertChars(data->CursorPos, " ");

	push	0
	push	OFFSET ??_C@_01CLKCMJKC@?5?$AA@
	push	DWORD PTR [esi+36]
	mov	ecx, esi
	call	?InsertChars@ImGuiTextEditCallbackData@@QAEXHPBD0@Z ; ImGuiTextEditCallbackData::InsertChars

; 2331 :                 }
; 2332 :                 else

	jmp	$LN16@TextEditCa
$LN24@TextEditCa:

; 2333 :                 {
; 2334 :                     // Multiple matches. Complete as much as we can, so inputing "C" will complete to "CL" and display "CLEAR" and "CLASSIFY"
; 2335 :                     int match_len = (int)(word_end - word_start);

	mov	ecx, DWORD PTR tv530[ebp]
	mov	edx, DWORD PTR __imp__toupper
$LN108@TextEditCa:

; 2336 :                     for (;;)
; 2337 :                     {
; 2338 :                         int c = 0;

	xor	edi, edi
	mov	DWORD PTR _match_len$1$[ebp], ecx

; 2339 :                         bool all_candidates_matches = true;
; 2340 :                         for (int i = 0; i < candidates.Size && all_candidates_matches; i++)

	xor	esi, esi
	mov	bl, 1
	test	eax, eax
	jle	SHORT $LN97@TextEditCa
	npad	1
$LL14@TextEditCa:
	test	bl, bl
	je	SHORT $LN81@TextEditCa

; 2341 :                             if (i == 0)

	test	esi, esi
	jne	SHORT $LN26@TextEditCa

; 2342 :                                 c = toupper(candidates[i][match_len]);

	mov	eax, DWORD PTR _candidates$2[ebp+8]
	mov	eax, DWORD PTR [eax]
	movsx	eax, BYTE PTR [eax+ecx]
	push	eax
	call	edx
	add	esp, 4
	mov	edi, eax
$LN105@TextEditCa:
	mov	eax, DWORD PTR _candidates$2[ebp]
$LN12@TextEditCa:

; 2339 :                         bool all_candidates_matches = true;
; 2340 :                         for (int i = 0; i < candidates.Size && all_candidates_matches; i++)

	mov	ecx, DWORD PTR _match_len$1$[ebp]
	inc	esi
	mov	edx, DWORD PTR __imp__toupper
	cmp	esi, eax
	jl	SHORT $LL14@TextEditCa

; 2345 :                         if (!all_candidates_matches)

	test	bl, bl
	je	SHORT $LN81@TextEditCa
$LN97@TextEditCa:

; 2346 :                             break;
; 2347 :                         match_len++;

	inc	ecx

; 2348 :                     }

	jmp	SHORT $LN108@TextEditCa
$LN26@TextEditCa:

; 2343 :                             else if (c == 0 || c != toupper(candidates[i][match_len]))

	test	edi, edi
	je	SHORT $LN29@TextEditCa
	mov	eax, DWORD PTR _candidates$2[ebp+8]
	mov	eax, DWORD PTR [eax+esi*4]
	movsx	eax, BYTE PTR [eax+ecx]
	push	eax
	call	edx
	add	esp, 4
	cmp	edi, eax
	je	SHORT $LN105@TextEditCa
	mov	eax, DWORD PTR _candidates$2[ebp]
$LN29@TextEditCa:

; 2344 :                                 all_candidates_matches = false;

	xor	bl, bl
	jmp	SHORT $LN12@TextEditCa
$LN81@TextEditCa:

; 2349 : 
; 2350 :                     if (match_len > 0)

	test	ecx, ecx
	jle	SHORT $LN103@TextEditCa

; 2351 :                     {
; 2352 :                         data->DeleteChars((int)(word_start - data->Buf), (int)(word_end-word_start));

	mov	esi, DWORD PTR _data$[ebp]
	mov	ecx, esi
	push	DWORD PTR tv530[ebp]
	mov	eax, DWORD PTR _word_start$1$[ebp]
	sub	eax, DWORD PTR [esi+20]
	push	eax
	call	?DeleteChars@ImGuiTextEditCallbackData@@QAEXHH@Z ; ImGuiTextEditCallbackData::DeleteChars

; 2353 :                         data->InsertChars(data->CursorPos, candidates[0], candidates[0] + match_len);

	mov	ebx, DWORD PTR _candidates$2[ebp+8]
	mov	eax, DWORD PTR _match_len$1$[ebp]
	mov	ecx, DWORD PTR [ebx]
	add	eax, ecx
	push	eax
	push	ecx
	push	DWORD PTR [esi+36]
	mov	ecx, esi
	call	?InsertChars@ImGuiTextEditCallbackData@@QAEXHPBD0@Z ; ImGuiTextEditCallbackData::InsertChars
	jmp	SHORT $LN31@TextEditCa
$LN103@TextEditCa:
	mov	ebx, DWORD PTR _candidates$2[ebp+8]
$LN31@TextEditCa:

; 2354 :                     }
; 2355 : 
; 2356 :                     // List matches
; 2357 :                     AddLog("Possible matches:\n");

	mov	edi, DWORD PTR _this$1$[ebp]
	push	OFFSET ??_C@_0BD@LCPLNAHF@Possible?5matches?3?6?$AA@
	push	edi
	call	?AddLog@ExampleAppConsole@@QAAXPBDZZ	; ExampleAppConsole::AddLog
	add	esp, 8

; 2358 :                     for (int i = 0; i < candidates.Size; i++)

	xor	esi, esi
$LL17@TextEditCa:

; 2359 :                         AddLog("- %s\n", candidates[i]);

	push	DWORD PTR [ebx+esi*4]
	push	OFFSET ??_C@_05PHKAGDP@?9?5?$CFs?6?$AA@
	push	edi
	call	?AddLog@ExampleAppConsole@@QAAXPBDZZ	; ExampleAppConsole::AddLog
	inc	esi
	add	esp, 12					; 0000000cH
	cmp	esi, DWORD PTR _candidates$2[ebp]
	jl	SHORT $LL17@TextEditCa

; 2358 :                     for (int i = 0; i < candidates.Size; i++)

	jmp	SHORT $LN16@TextEditCa
$LN101@TextEditCa:
	mov	ebx, DWORD PTR _this$1$[ebp]
$LN96@TextEditCa:

; 2321 :                 {
; 2322 :                     // No match
; 2323 :                     AddLog("No match for \"%.*s\"!\n", (int)(word_end-word_start), word_start);

	mov	eax, DWORD PTR _word_start$1$[ebp]
	sub	edi, eax
	push	eax
	push	edi
	push	OFFSET ??_C@_0BG@DOPMHGPK@No?5match?5for?5?$CC?$CF?4?$CKs?$CC?$CB?6?$AA@
	push	ebx
	call	?AddLog@ExampleAppConsole@@QAAXPBDZZ	; ExampleAppConsole::AddLog
	mov	ebx, DWORD PTR _candidates$2[ebp+8]
	add	esp, 16					; 00000010H
$LN16@TextEditCa:
; File c:\users\andon\source\repos\specialk\include\imgui\imgui.h

; 906  :     ~ImVector()                 { if (Data) ImGui::MemFree(Data); }

	mov	DWORD PTR __$EHRec$[ebp+8], 1
	pop	edi
	test	ebx, ebx
	je	SHORT $LN98@TextEditCa
	push	ebx
	call	?MemFree@ImGui@@YAXPAX@Z		; ImGui::MemFree
	add	esp, 4
$LN98@TextEditCa:
; File c:\users\andon\source\repos\specialk\src\imgui\imgui_demo.cpp

; 2391 :     }

	mov	ecx, DWORD PTR __$EHRec$[ebp]
	xor	eax, eax
	pop	esi
	pop	ebx
	mov	DWORD PTR fs:0, ecx
	mov	esp, ebp
	pop	ebp
	ret	4
_TEXT	ENDS
;	COMDAT text$x
text$x	SEGMENT
__unwindfunclet$?TextEditCallback@ExampleAppConsole@@QAEHPAUImGuiTextEditCallbackData@@@Z$0:
	lea	ecx, DWORD PTR _candidates$2[ebp]
	jmp	??1?$ImVector@PBD@@QAE@XZ		; ImVector<char const *>::~ImVector<char const *>
__ehhandler$?TextEditCallback@ExampleAppConsole@@QAEHPAUImGuiTextEditCallbackData@@@Z:
	mov	eax, OFFSET __ehfuncinfo$?TextEditCallback@ExampleAppConsole@@QAEHPAUImGuiTextEditCallbackData@@@Z
	jmp	___CxxFrameHandler3
text$x	ENDS
?TextEditCallback@ExampleAppConsole@@QAEHPAUImGuiTextEditCallbackData@@@Z ENDP ; ExampleAppConsole::TextEditCallback
; Function compile flags: /Ogtp
; File c:\users\andon\source\repos\specialk\src\imgui\imgui_demo.cpp
;	COMDAT ?TextEditCallbackStub@ExampleAppConsole@@SAHPAUImGuiTextEditCallbackData@@@Z
_TEXT	SEGMENT
_data$ = 8						; size = 4
?TextEditCallbackStub@ExampleAppConsole@@SAHPAUImGuiTextEditCallbackData@@@Z PROC ; ExampleAppConsole::TextEditCallbackStub, COMDAT

; 2289 :     {

	npad	2
	push	ebp
	mov	ebp, esp

; 2290 :         ExampleAppConsole* console = (ExampleAppConsole*)data->UserData;

	mov	eax, DWORD PTR _data$[ebp]

; 2291 :         return console->TextEditCallback(data);

	push	eax
	mov	ecx, DWORD PTR [eax+8]
	call	?TextEditCallback@ExampleAppConsole@@QAEHPAUImGuiTextEditCallbackData@@@Z ; ExampleAppConsole::TextEditCallback

; 2292 :     }

	pop	ebp
	ret	0
?TextEditCallbackStub@ExampleAppConsole@@SAHPAUImGuiTextEditCallbackData@@@Z ENDP ; ExampleAppConsole::TextEditCallbackStub
_TEXT	ENDS
; Function compile flags: /Ogtp
; File c:\users\andon\source\repos\specialk\src\imgui\imgui_demo.cpp
; File c:\users\andon\source\repos\specialk\include\imgui\imgui.h
; File c:\users\andon\source\repos\specialk\src\imgui\imgui_demo.cpp
; File c:\users\andon\source\repos\specialk\include\imgui\imgui.h
; File c:\users\andon\source\repos\specialk\src\imgui\imgui_demo.cpp
; File c:\users\andon\source\repos\specialk\include\imgui\imgui.h
; File c:\users\andon\source\repos\specialk\src\imgui\imgui_demo.cpp
; File c:\users\andon\source\repos\specialk\include\imgui\imgui.h
; File c:\users\andon\source\repos\specialk\src\imgui\imgui_demo.cpp
; File c:\users\andon\source\repos\specialk\include\imgui\imgui.h
; File c:\users\andon\source\repos\specialk\src\imgui\imgui_demo.cpp
; File c:\users\andon\source\repos\specialk\include\imgui\imgui.h
; File c:\users\andon\source\repos\specialk\src\imgui\imgui_demo.cpp
;	COMDAT ?ExecCommand@ExampleAppConsole@@QAEXPBD@Z
_TEXT	SEGMENT
$T1 = -4						; size = 4
_new_data$1$ = 8					; size = 4
_command_line$ = 8					; size = 4
?ExecCommand@ExampleAppConsole@@QAEXPBD@Z PROC		; ExampleAppConsole::ExecCommand, COMDAT
; _this$ = ecx

; 2252 :     {

	npad	2
	push	ebp
	mov	ebp, esp
	push	ecx
	push	ebx

; 2253 :         AddLog("# %s\n", command_line);

	mov	ebx, DWORD PTR _command_line$[ebp]
	push	esi
	push	edi
	push	ebx
	mov	esi, ecx
	push	OFFSET ??_C@_05DFHAGHEP@?$CD?5?$CFs?6?$AA@
	push	esi
	call	?AddLog@ExampleAppConsole@@QAAXPBDZZ	; ExampleAppConsole::AddLog

; 2254 : 
; 2255 :         // Insert into history. First find match and delete it so it can be pushed to the back. This isn't trying to be smart or optimal.
; 2256 :         HistoryPos = -1;
; 2257 :         for (int i = History.Size-1; i >= 0; i--)

	mov	edi, DWORD PTR [esi+272]
	add	esp, 12					; 0000000cH
	sub	edi, 1
	mov	DWORD PTR [esi+284], -1
	js	SHORT $LN3@ExecComman
$LL4@ExecComman:
	mov	eax, DWORD PTR [esi+280]

; 2258 :             if (Stricmp(History[i], command_line) == 0)

	push	ebx
	push	DWORD PTR [eax+edi*4]
	call	?Stricmp@ExampleAppConsole@@SAHPBD0@Z	; ExampleAppConsole::Stricmp
	add	esp, 8
	test	eax, eax
	je	SHORT $LN49@ExecComman

; 2254 : 
; 2255 :         // Insert into history. First find match and delete it so it can be pushed to the back. This isn't trying to be smart or optimal.
; 2256 :         HistoryPos = -1;
; 2257 :         for (int i = History.Size-1; i >= 0; i--)

	sub	edi, 1
	jns	SHORT $LL4@ExecComman

; 2258 :             if (Stricmp(History[i], command_line) == 0)

	jmp	SHORT $LN3@ExecComman
$LN49@ExecComman:

; 2260 :                 free(History[i]);

	mov	eax, DWORD PTR [esi+280]
; File c:\users\andon\source\repos\specialk\include\imgui\imgui.h

; 912  :     inline value_type&          operator[](int i)               { IM_ASSERT(i < Size); return Data[i]; }

	shl	edi, 2
; File c:\users\andon\source\repos\specialk\src\imgui\imgui_demo.cpp

; 2260 :                 free(History[i]);

	push	DWORD PTR [eax+edi]
	call	DWORD PTR __imp__free
; File c:\users\andon\source\repos\specialk\include\imgui\imgui.h

; 943  :     inline iterator             erase(const_iterator it)        { IM_ASSERT(it >= Data && it < Data+Size); const ptrdiff_t off = it - Data; memmove(Data + off, Data + off + 1, ((size_t)Size - (size_t)off - 1) * sizeof(value_type)); Size--; return Data + off; }

	mov	eax, DWORD PTR [esi+280]
	mov	ecx, eax
	sub	ecx, eax
	add	ecx, edi
	sar	ecx, 2
	lea	edx, DWORD PTR [eax+ecx*4]
	mov	eax, DWORD PTR [esi+272]
	sub	eax, ecx
	lea	eax, DWORD PTR [eax*4-4]
	push	eax
	lea	eax, DWORD PTR [edx+4]
	push	eax
	push	edx
	call	DWORD PTR __imp__memmove
	add	esp, 16					; 00000010H
	dec	DWORD PTR [esi+272]
$LN3@ExecComman:
; File c:\users\andon\source\repos\specialk\src\imgui\imgui_demo.cpp

; 2143 :     static char* Strdup(const char *str)                             { size_t len = strlen(str) + 1; void* buff = malloc(len); return (char*)memcpy(buff, (const void*)str, len); }

	mov	edi, ebx
	lea	ecx, DWORD PTR [edi+1]
	npad	4
$LL59@ExecComman:
	mov	al, BYTE PTR [edi]
	inc	edi
	test	al, al
	jne	SHORT $LL59@ExecComman
	sub	edi, ecx
	inc	edi
	push	edi
	call	DWORD PTR __imp__malloc
	push	edi
	push	ebx
	push	eax
	call	_memcpy
; File c:\users\andon\source\repos\specialk\include\imgui\imgui.h

; 940  :     inline void                 push_back(const value_type& v)  { if (Size == Capacity) reserve(_grow_capacity(Size+1)); Data[Size++] = v; }

	mov	edi, DWORD PTR [esi+272]
; File c:\users\andon\source\repos\specialk\src\imgui\imgui_demo.cpp

; 2143 :     static char* Strdup(const char *str)                             { size_t len = strlen(str) + 1; void* buff = malloc(len); return (char*)memcpy(buff, (const void*)str, len); }

	add	esp, 16					; 00000010H
; File c:\users\andon\source\repos\specialk\include\imgui\imgui.h

; 940  :     inline void                 push_back(const value_type& v)  { if (Size == Capacity) reserve(_grow_capacity(Size+1)); Data[Size++] = v; }

	mov	ecx, DWORD PTR [esi+276]
; File c:\users\andon\source\repos\specialk\src\imgui\imgui_demo.cpp

; 2264 :         History.push_back(Strdup(command_line));

	mov	DWORD PTR $T1[ebp], eax
; File c:\users\andon\source\repos\specialk\include\imgui\imgui.h

; 940  :     inline void                 push_back(const value_type& v)  { if (Size == Capacity) reserve(_grow_capacity(Size+1)); Data[Size++] = v; }

	cmp	edi, ecx
	jne	SHORT $LN38@ExecComman
	inc	edi

; 926  :     inline int                  _grow_capacity(int new_size)    { int new_capacity = Capacity ? (Capacity + Capacity/2) : 8; return new_capacity > new_size ? new_capacity : new_size; }

	test	ecx, ecx
	je	SHORT $LN36@ExecComman
	mov	eax, ecx
	cdq
	sub	eax, edx
	sar	eax, 1
	add	eax, ecx
	jmp	SHORT $LN37@ExecComman
$LN36@ExecComman:
	mov	eax, 8
$LN37@ExecComman:
	cmp	eax, edi
	cmovg	edi, eax

; 931  :         if (new_capacity <= Capacity) return;

	cmp	edi, ecx
	jle	SHORT $LN38@ExecComman

; 932  :         T* new_data = (value_type*)ImGui::MemAlloc((size_t)new_capacity * sizeof(value_type));

	lea	eax, DWORD PTR [edi*4]
	push	eax
	call	?MemAlloc@ImGui@@YAPAXI@Z		; ImGui::MemAlloc

; 933  :         if (Data)

	mov	edx, DWORD PTR [esi+280]
	add	esp, 4
	mov	DWORD PTR _new_data$1$[ebp], eax
	test	edx, edx
	je	SHORT $LN40@ExecComman

; 934  :             memcpy(new_data, Data, (size_t)Size * sizeof(value_type));

	mov	ecx, DWORD PTR [esi+272]
	shl	ecx, 2
	push	ecx
	push	edx
	push	eax
	call	_memcpy
	add	esp, 12					; 0000000cH
$LN40@ExecComman:

; 935  :         ImGui::MemFree(Data);

	push	DWORD PTR [esi+280]
	call	?MemFree@ImGui@@YAXPAX@Z		; ImGui::MemFree

; 936  :         Data = new_data;

	mov	eax, DWORD PTR _new_data$1$[ebp]
	add	esp, 4
	mov	DWORD PTR [esi+280], eax

; 937  :         Capacity = new_capacity;

	mov	DWORD PTR [esi+276], edi
$LN38@ExecComman:

; 940  :     inline void                 push_back(const value_type& v)  { if (Size == Capacity) reserve(_grow_capacity(Size+1)); Data[Size++] = v; }

	mov	ecx, DWORD PTR [esi+272]
	mov	eax, DWORD PTR [esi+280]
	mov	edx, DWORD PTR $T1[ebp]
; File c:\users\andon\source\repos\specialk\src\imgui\imgui_demo.cpp

; 2267 :         if (Stricmp(command_line, "CLEAR") == 0)

	push	OFFSET ??_C@_05PONODPI@CLEAR?$AA@
	push	ebx
; File c:\users\andon\source\repos\specialk\include\imgui\imgui.h

; 940  :     inline void                 push_back(const value_type& v)  { if (Size == Capacity) reserve(_grow_capacity(Size+1)); Data[Size++] = v; }

	mov	DWORD PTR [eax+ecx*4], edx
	inc	DWORD PTR [esi+272]
; File c:\users\andon\source\repos\specialk\src\imgui\imgui_demo.cpp

; 2267 :         if (Stricmp(command_line, "CLEAR") == 0)

	call	?Stricmp@ExampleAppConsole@@SAHPBD0@Z	; ExampleAppConsole::Stricmp
	add	esp, 8
	test	eax, eax
	jne	SHORT $LN12@ExecComman

; 2268 :         {
; 2269 :             ClearLog();

	mov	ecx, esi
	call	?ClearLog@ExampleAppConsole@@QAEXXZ	; ExampleAppConsole::ClearLog
	pop	edi
	pop	esi
	pop	ebx

; 2285 :         }
; 2286 :     }

	mov	esp, ebp
	pop	ebp
	ret	4
$LN12@ExecComman:

; 2270 :         }
; 2271 :         else if (Stricmp(command_line, "HELP") == 0)

	push	OFFSET ??_C@_04DOKPJKJF@HELP?$AA@
	push	ebx
	call	?Stricmp@ExampleAppConsole@@SAHPBD0@Z	; ExampleAppConsole::Stricmp
	add	esp, 8
	test	eax, eax
	jne	SHORT $LN14@ExecComman

; 2272 :         {
; 2273 :             AddLog("Commands:");

	push	OFFSET ??_C@_09GJFNIAOH@Commands?3?$AA@
	push	esi
	call	?AddLog@ExampleAppConsole@@QAAXPBDZZ	; ExampleAppConsole::AddLog

; 2274 :             for (int i = 0; i < Commands.Size; i++)

	xor	edi, edi
	add	esp, 8
	cmp	DWORD PTR [esi+288], edi
	jle	$LN17@ExecComman
	npad	13
$LL7@ExecComman:

; 2275 :                 AddLog("- %s", Commands[i]);

	mov	eax, DWORD PTR [esi+296]
	push	DWORD PTR [eax+edi*4]
	push	OFFSET ??_C@_04JKCKOCFH@?9?5?$CFs?$AA@
	push	esi
	call	?AddLog@ExampleAppConsole@@QAAXPBDZZ	; ExampleAppConsole::AddLog
	inc	edi
	add	esp, 12					; 0000000cH
	cmp	edi, DWORD PTR [esi+288]
	jl	SHORT $LL7@ExecComman
	pop	edi
	pop	esi
	pop	ebx

; 2285 :         }
; 2286 :     }

	mov	esp, ebp
	pop	ebp
	ret	4
$LN14@ExecComman:

; 2276 :         }
; 2277 :         else if (Stricmp(command_line, "HISTORY") == 0)

	push	OFFSET ??_C@_07DBIJIOJO@HISTORY?$AA@
	push	ebx
	call	?Stricmp@ExampleAppConsole@@SAHPBD0@Z	; ExampleAppConsole::Stricmp
	add	esp, 8
	test	eax, eax
	jne	SHORT $LN16@ExecComman

; 2278 :         {
; 2279 :             for (int i = History.Size >= 10 ? History.Size - 10 : 0; i < History.Size; i++)

	mov	eax, DWORD PTR [esi+272]
	cmp	eax, 10					; 0000000aH
	jl	SHORT $LN19@ExecComman
	lea	edi, DWORD PTR [eax-10]
	jmp	SHORT $LN20@ExecComman
$LN19@ExecComman:
	xor	edi, edi
$LN20@ExecComman:
	cmp	edi, eax
	jge	SHORT $LN17@ExecComman
$LL10@ExecComman:

; 2280 :                 AddLog("%3d: %s\n", i, History[i]);

	mov	eax, DWORD PTR [esi+280]
	push	DWORD PTR [eax+edi*4]
	push	edi
	push	OFFSET ??_C@_08PKLPHKJF@?$CF3d?3?5?$CFs?6?$AA@
	push	esi
	call	?AddLog@ExampleAppConsole@@QAAXPBDZZ	; ExampleAppConsole::AddLog
	inc	edi
	add	esp, 16					; 00000010H
	cmp	edi, DWORD PTR [esi+272]
	jl	SHORT $LL10@ExecComman
	pop	edi
	pop	esi
	pop	ebx

; 2285 :         }
; 2286 :     }

	mov	esp, ebp
	pop	ebp
	ret	4
$LN16@ExecComman:

; 2281 :         }
; 2282 :         else
; 2283 :         {
; 2284 :             AddLog("Unknown command: '%s'\n", command_line);

	push	ebx
	push	OFFSET ??_C@_0BH@OKLFOGKH@Unknown?5command?3?5?8?$CFs?8?6?$AA@
	push	esi
	call	?AddLog@ExampleAppConsole@@QAAXPBDZZ	; ExampleAppConsole::AddLog
	add	esp, 12					; 0000000cH
$LN17@ExecComman:
	pop	edi
	pop	esi
	pop	ebx

; 2285 :         }
; 2286 :     }

	mov	esp, ebp
	pop	ebp
	ret	4
?ExecCommand@ExampleAppConsole@@QAEXPBD@Z ENDP		; ExampleAppConsole::ExecCommand
_TEXT	ENDS
; Function compile flags: /Ogtp
; File c:\users\andon\source\repos\specialk\src\imgui\imgui_demo.cpp
; File c:\users\andon\source\repos\specialk\include\imgui\imgui.h
; File c:\users\andon\source\repos\specialk\src\imgui\imgui_demo.cpp
; File c:\users\andon\source\repos\specialk\include\imgui\imgui.h
; File c:\users\andon\source\repos\specialk\src\imgui\imgui_demo.cpp
; File c:\users\andon\source\repos\specialk\include\imgui\imgui.h
; File c:\users\andon\source\repos\specialk\src\imgui\imgui_demo.cpp
; File c:\users\andon\source\repos\specialk\include\imgui\imgui.h
; File c:\users\andon\source\repos\specialk\src\imgui\imgui_demo.cpp
; File c:\users\andon\source\repos\specialk\include\imgui\imgui.h
; File c:\users\andon\source\repos\specialk\src\imgui\imgui_demo.cpp
; File c:\users\andon\source\repos\specialk\include\imgui\imgui.h
; File c:\users\andon\source\repos\specialk\src\imgui\imgui_demo.cpp
; File c:\users\andon\source\repos\specialk\include\imgui\imgui.h
; File c:\users\andon\source\repos\specialk\src\imgui\imgui_demo.cpp
; File c:\users\andon\source\repos\specialk\include\imgui\imgui.h
; File c:\users\andon\source\repos\specialk\src\imgui\imgui_demo.cpp
; File c:\users\andon\source\repos\specialk\include\imgui\imgui.h
; File c:\users\andon\source\repos\specialk\src\imgui\imgui_demo.cpp
;	COMDAT ?Draw@ExampleAppConsole@@QAEXPBDPA_N@Z
_TEXT	SEGMENT
_col$2 = -36						; size = 16
$T3 = -20						; size = 8
$T4 = -20						; size = 8
$T5 = -20						; size = 8
$T6 = -20						; size = 8
$T7 = -20						; size = 8
__$EHRec$ = -12						; size = 12
_title$ = 8						; size = 4
_item$1$ = 12						; size = 4
tv728 = 12						; size = 4
_p_open$ = 12						; size = 4
_reclaim_focus$1$ = 15					; size = 1
?Draw@ExampleAppConsole@@QAEXPBDPA_N@Z PROC		; ExampleAppConsole::Draw, COMDAT
; _this$ = ecx

; 2166 :     {

	npad	2
	push	ebp
	mov	ebp, esp
	push	-1
	push	__ehhandler$?Draw@ExampleAppConsole@@QAEXPBDPA_N@Z
	mov	eax, DWORD PTR fs:0
	push	eax
	mov	DWORD PTR fs:0, esp
	sub	esp, 24					; 00000018H
	push	esi

; 2167 :         ImGui::SetNextWindowSize(ImVec2(520,600), ImGuiSetCond_FirstUseEver);

	lea	eax, DWORD PTR $T7[ebp]
; File c:\users\andon\source\repos\specialk\include\imgui\imgui.h

; 98   :     ImVec2(float _x, float _y) { x = _x; y = _y; }

	mov	DWORD PTR $T7[ebp], 1140981760		; 44020000H
; File c:\users\andon\source\repos\specialk\src\imgui\imgui_demo.cpp

; 2167 :         ImGui::SetNextWindowSize(ImVec2(520,600), ImGuiSetCond_FirstUseEver);

	push	4
	push	eax
	mov	esi, ecx
; File c:\users\andon\source\repos\specialk\include\imgui\imgui.h

; 98   :     ImVec2(float _x, float _y) { x = _x; y = _y; }

	mov	DWORD PTR $T7[ebp+4], 1142292480	; 44160000H
; File c:\users\andon\source\repos\specialk\src\imgui\imgui_demo.cpp

; 2167 :         ImGui::SetNextWindowSize(ImVec2(520,600), ImGuiSetCond_FirstUseEver);

	call	?SetNextWindowSize@ImGui@@YAXABUImVec2@@H@Z ; ImGui::SetNextWindowSize

; 2168 :         if (!ImGui::Begin(title, p_open))

	push	0
	push	DWORD PTR _p_open$[ebp]
	push	DWORD PTR _title$[ebp]
	call	?Begin@ImGui@@YA_NPBDPA_NH@Z		; ImGui::Begin
	add	esp, 20					; 00000014H
	test	al, al
	je	$LN22@Draw

; 2169 :         {
; 2170 :             ImGui::End();
; 2171 :             return;
; 2172 :         }
; 2173 : 
; 2174 :         ImGui::TextWrapped("This example implements a console with basic coloring, completion and history. A more elaborate implementation may want to store entries along with extra data such as timestamp, emitter, etc.");

	push	OFFSET ??_C@_0MA@ICGIOBFG@This?5example?5implements?5a?5consol@
	call	?TextWrapped@ImGui@@YAXPBDZZ		; ImGui::TextWrapped

; 2175 :         ImGui::TextWrapped("Enter 'HELP' for help, press TAB to use text completion.");

	push	OFFSET ??_C@_0DJ@NBHLDCP@Enter?5?8HELP?8?5for?5help?0?5press?5TAB@
	call	?TextWrapped@ImGui@@YAXPBDZZ		; ImGui::TextWrapped

; 2176 : 
; 2177 :         // TODO: display items starting from the bottom
; 2178 : 
; 2179 :         if (ImGui::SmallButton("Add Dummy Text")) { AddLog("%d some text", Items.Size); AddLog("some more text"); AddLog("display very important message here!"); } ImGui::SameLine();

	push	OFFSET ??_C@_0P@CGJDLLEJ@Add?5Dummy?5Text?$AA@
	call	?SmallButton@ImGui@@YA_NPBD@Z		; ImGui::SmallButton
	add	esp, 12					; 0000000cH
	test	al, al
	je	SHORT $LN9@Draw
	push	DWORD PTR [esi+256]
	push	OFFSET ??_C@_0N@OJGBPOOP@?$CFd?5some?5text?$AA@
	push	esi
	call	?AddLog@ExampleAppConsole@@QAAXPBDZZ	; ExampleAppConsole::AddLog
	push	OFFSET ??_C@_0P@BMHJKMPF@some?5more?5text?$AA@
	push	esi
	call	?AddLog@ExampleAppConsole@@QAAXPBDZZ	; ExampleAppConsole::AddLog
	push	OFFSET ??_C@_0CF@PEIDNPCH@display?5very?5important?5message?5h@
	push	esi
	call	?AddLog@ExampleAppConsole@@QAAXPBDZZ	; ExampleAppConsole::AddLog
	add	esp, 28					; 0000001cH
$LN9@Draw:
	sub	esp, 8
	mov	DWORD PTR [esp+4], -1082130432		; bf800000H
	mov	DWORD PTR [esp], 0
	call	?SameLine@ImGui@@YAXMM@Z		; ImGui::SameLine

; 2180 :         if (ImGui::SmallButton("Add Dummy Error")) AddLog("[error] something went wrong"); ImGui::SameLine();

	push	OFFSET ??_C@_0BA@HHKLEHKC@Add?5Dummy?5Error?$AA@
	call	?SmallButton@ImGui@@YA_NPBD@Z		; ImGui::SmallButton
	add	esp, 12					; 0000000cH
	test	al, al
	je	SHORT $LN10@Draw
	push	OFFSET ??_C@_0BN@KNPJMMPE@?$FLerror?$FN?5something?5went?5wrong?$AA@
	push	esi
	call	?AddLog@ExampleAppConsole@@QAAXPBDZZ	; ExampleAppConsole::AddLog
	add	esp, 8
$LN10@Draw:
	sub	esp, 8
	mov	DWORD PTR [esp+4], -1082130432		; bf800000H
	mov	DWORD PTR [esp], 0
	call	?SameLine@ImGui@@YAXMM@Z		; ImGui::SameLine

; 2181 :         if (ImGui::SmallButton("Clear")) ClearLog(); ImGui::SameLine();

	push	OFFSET ??_C@_05MDNHABIA@Clear?$AA@
	call	?SmallButton@ImGui@@YA_NPBD@Z		; ImGui::SmallButton
	add	esp, 12					; 0000000cH
	test	al, al
	je	SHORT $LN11@Draw
	mov	ecx, esi
	call	?ClearLog@ExampleAppConsole@@QAEXXZ	; ExampleAppConsole::ClearLog
$LN11@Draw:
	sub	esp, 8
	mov	DWORD PTR [esp+4], -1082130432		; bf800000H
	mov	DWORD PTR [esp], 0
	call	?SameLine@ImGui@@YAXMM@Z		; ImGui::SameLine

; 2182 :         if (ImGui::SmallButton("Scroll to bottom")) ScrollToBottom = true;

	push	OFFSET ??_C@_0BB@GPFIAMJC@Scroll?5to?5bottom?$AA@
	call	?SmallButton@ImGui@@YA_NPBD@Z		; ImGui::SmallButton
	add	esp, 12					; 0000000cH
	test	al, al
	je	SHORT $LN12@Draw
	mov	BYTE PTR [esi+268], 1
$LN12@Draw:

; 2183 :         //static float t = 0.0f; if (ImGui::GetTime() - t > 0.02f) { t = ImGui::GetTime(); AddLog("Spam %f", t); }
; 2184 : 
; 2185 :         ImGui::Separator();

	call	?Separator@ImGui@@YAXXZ			; ImGui::Separator

; 2187 :         ImGui::PushStyleVar(ImGuiStyleVar_FramePadding, ImVec2(0,0));

	lea	eax, DWORD PTR $T6[ebp]
; File c:\users\andon\source\repos\specialk\include\imgui\imgui.h

; 98   :     ImVec2(float _x, float _y) { x = _x; y = _y; }

	mov	DWORD PTR $T6[ebp], 0
; File c:\users\andon\source\repos\specialk\src\imgui\imgui_demo.cpp

; 2187 :         ImGui::PushStyleVar(ImGuiStyleVar_FramePadding, ImVec2(0,0));

	push	eax
	push	5
; File c:\users\andon\source\repos\specialk\include\imgui\imgui.h

; 98   :     ImVec2(float _x, float _y) { x = _x; y = _y; }

	mov	DWORD PTR $T6[ebp+4], 0
; File c:\users\andon\source\repos\specialk\src\imgui\imgui_demo.cpp

; 2187 :         ImGui::PushStyleVar(ImGuiStyleVar_FramePadding, ImVec2(0,0));

	call	?PushStyleVar@ImGui@@YAXHABUImVec2@@@Z	; ImGui::PushStyleVar

; 2188 :         static ImGuiTextFilter filter;

	mov	eax, DWORD PTR fs:__tls_array
	add	esp, 8
	mov	ecx, DWORD PTR __tls_index
	mov	ecx, DWORD PTR [eax+ecx*4]
	mov	eax, DWORD PTR ?$TSS0@?1??Draw@ExampleAppConsole@@QAEXPBDPA_N@Z@4HA ; TSS0<`template-parameter-2',ExampleAppConsole::aw,unsigned char * const,void,char const *,bool *>
	cmp	eax, DWORD PTR __Init_thread_epoch[ecx]
	jle	SHORT $LN2@Draw
	push	OFFSET ?$TSS0@?1??Draw@ExampleAppConsole@@QAEXPBDPA_N@Z@4HA ; TSS0<`template-parameter-2',ExampleAppConsole::aw,unsigned char * const,void,char const *,bool *>
	call	__Init_thread_header
	add	esp, 4
	cmp	DWORD PTR ?$TSS0@?1??Draw@ExampleAppConsole@@QAEXPBDPA_N@Z@4HA, -1 ; TSS0<`template-parameter-2',ExampleAppConsole::aw,unsigned char * const,void,char const *,bool *>
	jne	SHORT $LN2@Draw
	push	OFFSET ??_C@_00CNPNBAHC@?$AA@
	mov	ecx, OFFSET ?filter@?1??Draw@ExampleAppConsole@@QAEXPBDPA_N@Z@4UImGuiTextFilter@@A ; `ExampleAppConsole::Draw'::`2'::filter
	mov	DWORD PTR __$EHRec$[ebp+8], 0
	call	??0ImGuiTextFilter@@QAE@PBD@Z		; ImGuiTextFilter::ImGuiTextFilter
	push	OFFSET ??__Ffilter@?1??Draw@ExampleAppConsole@@QAEXPBDPA_N@Z@YAXXZ ; `ExampleAppConsole::Draw'::`2'::`dynamic atexit destructor for 'filter''
	call	_atexit
	push	OFFSET ?$TSS0@?1??Draw@ExampleAppConsole@@QAEXPBDPA_N@Z@4HA ; TSS0<`template-parameter-2',ExampleAppConsole::aw,unsigned char * const,void,char const *,bool *>
	mov	DWORD PTR __$EHRec$[ebp+8], -1
	call	__Init_thread_footer
	add	esp, 8
$LN2@Draw:

; 2189 :         filter.Draw("Filter (\"incl,-excl\") (\"error\")", 180);

	push	ecx
	mov	DWORD PTR [esp], 1127481344		; 43340000H
	mov	ecx, OFFSET ?filter@?1??Draw@ExampleAppConsole@@QAEXPBDPA_N@Z@4UImGuiTextFilter@@A ; `ExampleAppConsole::Draw'::`2'::filter
	push	OFFSET ??_C@_0CA@HIABFBKB@Filter?5?$CI?$CCincl?0?9excl?$CC?$CJ?5?$CI?$CCerror?$CC?$CJ?$AA@
	call	?Draw@ImGuiTextFilter@@QAE_NPBDM@Z	; ImGuiTextFilter::Draw

; 2190 :         ImGui::PopStyleVar();

	push	1
	call	?PopStyleVar@ImGui@@YAXH@Z		; ImGui::PopStyleVar

; 2191 :         ImGui::Separator();

	call	?Separator@ImGui@@YAXXZ			; ImGui::Separator

; 2193 :         ImGui::BeginChild("ScrollingRegion", ImVec2(0,-ImGui::GetItemsLineHeightWithSpacing()), false, ImGuiWindowFlags_HorizontalScrollbar);

	call	?GetItemsLineHeightWithSpacing@ImGui@@YAMXZ ; ImGui::GetItemsLineHeightWithSpacing
	push	2048					; 00000800H
	fstp	DWORD PTR tv728[ebp]
	movss	xmm0, DWORD PTR tv728[ebp]
	lea	eax, DWORD PTR $T5[ebp]
	xorps	xmm0, DWORD PTR __xmm@80000000800000008000000080000000
	push	0
	push	eax
	push	OFFSET ??_C@_0BA@KOEFNJOK@ScrollingRegion?$AA@
; File c:\users\andon\source\repos\specialk\include\imgui\imgui.h

; 98   :     ImVec2(float _x, float _y) { x = _x; y = _y; }

	mov	DWORD PTR $T5[ebp], 0
	movss	DWORD PTR $T5[ebp+4], xmm0
; File c:\users\andon\source\repos\specialk\src\imgui\imgui_demo.cpp

; 2193 :         ImGui::BeginChild("ScrollingRegion", ImVec2(0,-ImGui::GetItemsLineHeightWithSpacing()), false, ImGuiWindowFlags_HorizontalScrollbar);

	call	?BeginChild@ImGui@@YA_NPBDABUImVec2@@_NH@Z ; ImGui::BeginChild

; 2194 :         if (ImGui::BeginPopupContextWindow())

	push	1
	push	0
	push	1
	call	?BeginPopupContextWindow@ImGui@@YA_N_NPBDH@Z ; ImGui::BeginPopupContextWindow
	add	esp, 32					; 00000020H
	test	al, al
	je	SHORT $LN13@Draw

; 2196 :             if (ImGui::Selectable("Clear")) ClearLog();

	lea	eax, DWORD PTR $T4[ebp]
; File c:\users\andon\source\repos\specialk\include\imgui\imgui.h

; 98   :     ImVec2(float _x, float _y) { x = _x; y = _y; }

	mov	DWORD PTR $T4[ebp], 0
; File c:\users\andon\source\repos\specialk\src\imgui\imgui_demo.cpp

; 2196 :             if (ImGui::Selectable("Clear")) ClearLog();

	push	eax
	push	0
	push	0
	push	OFFSET ??_C@_05MDNHABIA@Clear?$AA@
; File c:\users\andon\source\repos\specialk\include\imgui\imgui.h

; 98   :     ImVec2(float _x, float _y) { x = _x; y = _y; }

	mov	DWORD PTR $T4[ebp+4], 0
; File c:\users\andon\source\repos\specialk\src\imgui\imgui_demo.cpp

; 2196 :             if (ImGui::Selectable("Clear")) ClearLog();

	call	?Selectable@ImGui@@YA_NPBD_NHABUImVec2@@@Z ; ImGui::Selectable
	add	esp, 16					; 00000010H
	test	al, al
	je	SHORT $LN14@Draw
	mov	ecx, esi
	call	?ClearLog@ExampleAppConsole@@QAEXXZ	; ExampleAppConsole::ClearLog
$LN14@Draw:

; 2197 :             ImGui::EndPopup();

	call	?EndPopup@ImGui@@YAXXZ			; ImGui::EndPopup
$LN13@Draw:
	push	edi

; 2211 :         ImGui::PushStyleVar(ImGuiStyleVar_ItemSpacing, ImVec2(4,1)); // Tighten spacing

	lea	eax, DWORD PTR $T3[ebp]
; File c:\users\andon\source\repos\specialk\include\imgui\imgui.h

; 98   :     ImVec2(float _x, float _y) { x = _x; y = _y; }

	mov	DWORD PTR $T3[ebp], 1082130432		; 40800000H
; File c:\users\andon\source\repos\specialk\src\imgui\imgui_demo.cpp

; 2211 :         ImGui::PushStyleVar(ImGuiStyleVar_ItemSpacing, ImVec2(4,1)); // Tighten spacing

	push	eax
	push	7
; File c:\users\andon\source\repos\specialk\include\imgui\imgui.h

; 98   :     ImVec2(float _x, float _y) { x = _x; y = _y; }

	mov	DWORD PTR $T3[ebp+4], 1065353216	; 3f800000H
; File c:\users\andon\source\repos\specialk\src\imgui\imgui_demo.cpp

; 2211 :         ImGui::PushStyleVar(ImGuiStyleVar_ItemSpacing, ImVec2(4,1)); // Tighten spacing

	call	?PushStyleVar@ImGui@@YAXHABUImVec2@@@Z	; ImGui::PushStyleVar

; 2212 :         for (int i = 0; i < Items.Size; i++)

	xor	edi, edi
	add	esp, 8
	cmp	DWORD PTR [esi+256], edi
	jle	$LN4@Draw
$LL5@Draw:

; 2213 :         {
; 2214 :             const char* item = Items[i];

	mov	eax, DWORD PTR [esi+264]

; 2215 :             if (!filter.PassFilter(item))

	mov	ecx, OFFSET ?filter@?1??Draw@ExampleAppConsole@@QAEXPBDPA_N@Z@4UImGuiTextFilter@@A ; `ExampleAppConsole::Draw'::`2'::filter
	push	0
	mov	eax, DWORD PTR [eax+edi*4]
	push	eax
	mov	DWORD PTR _item$1$[ebp], eax
	call	?PassFilter@ImGuiTextFilter@@QBE_NPBD0@Z ; ImGuiTextFilter::PassFilter
	test	al, al
	je	SHORT $LN3@Draw

; 2216 :                 continue;
; 2217 :             ImVec4 col = ImVec4(1.0f,1.0f,1.0f,1.0f); // A better implementation may store a type per-item. For the sample let's just parse the text.
; 2218 :             if (strstr(item, "[error]")) col = ImColor(1.0f,0.4f,0.4f,1.0f);

	movaps	xmm0, XMMWORD PTR __xmm@3f8000003f8000003f8000003f800000
	push	OFFSET ??_C@_07LFMCMLFD@?$FLerror?$FN?$AA@
	push	DWORD PTR _item$1$[ebp]
	movups	XMMWORD PTR _col$2[ebp], xmm0
	call	DWORD PTR __imp__strstr
	add	esp, 8
	test	eax, eax
	je	SHORT $LN16@Draw
	movaps	xmm0, XMMWORD PTR __xmm@3f8000003ecccccd3ecccccd3f800000
	jmp	SHORT $LN98@Draw
$LN16@Draw:

; 2219 :             else if (strncmp(item, "# ", 2) == 0) col = ImColor(1.0f,0.78f,0.58f,1.0f);

	push	2
	push	OFFSET ??_C@_02KPDBPKPG@?$CD?5?$AA@
	push	DWORD PTR _item$1$[ebp]
	call	DWORD PTR __imp__strncmp
	add	esp, 12					; 0000000cH
	test	eax, eax
	jne	SHORT $LN88@Draw
	movaps	xmm0, XMMWORD PTR __xmm@3f8000003f147ae13f47ae143f800000
$LN98@Draw:
	movups	XMMWORD PTR _col$2[ebp], xmm0
$LN88@Draw:

; 2220 :             ImGui::PushStyleColor(ImGuiCol_Text, col);

	lea	eax, DWORD PTR _col$2[ebp]
	push	eax
	push	0
	call	?PushStyleColor@ImGui@@YAXHABUImVec4@@@Z ; ImGui::PushStyleColor

; 2221 :             ImGui::TextUnformatted(item);

	push	0
	push	DWORD PTR _item$1$[ebp]
	call	?TextUnformatted@ImGui@@YAXPBD0@Z	; ImGui::TextUnformatted

; 2222 :             ImGui::PopStyleColor();

	push	1
	call	?PopStyleColor@ImGui@@YAXH@Z		; ImGui::PopStyleColor
	add	esp, 20					; 00000014H
$LN3@Draw:

; 2212 :         for (int i = 0; i < Items.Size; i++)

	inc	edi
	cmp	edi, DWORD PTR [esi+256]
	jl	$LL5@Draw
$LN4@Draw:

; 2223 :         }
; 2224 :         if (ScrollToBottom)

	cmp	BYTE PTR [esi+268], 0
	pop	edi
	je	SHORT $LN19@Draw

; 2225 :             ImGui::SetScrollHere();

	push	ecx
	mov	DWORD PTR [esp], 1056964608		; 3f000000H
	call	?SetScrollHere@ImGui@@YAXM@Z		; ImGui::SetScrollHere
	add	esp, 4
$LN19@Draw:

; 2226 :         ScrollToBottom = false;
; 2227 :         ImGui::PopStyleVar();

	push	1
	mov	BYTE PTR [esi+268], 0
	call	?PopStyleVar@ImGui@@YAXH@Z		; ImGui::PopStyleVar

; 2228 :         ImGui::EndChild();

	call	?EndChild@ImGui@@YAXXZ			; ImGui::EndChild

; 2229 :         ImGui::Separator();

	call	?Separator@ImGui@@YAXXZ			; ImGui::Separator

; 2230 : 
; 2231 :         // Command-line
; 2232 :         bool reclaim_focus = false;
; 2233 :         if (ImGui::InputText("Input", InputBuf, IM_ARRAYSIZE(InputBuf), ImGuiInputTextFlags_EnterReturnsTrue|ImGuiInputTextFlags_CallbackCompletion|ImGuiInputTextFlags_CallbackHistory, &TextEditCallbackStub, (void*)this))

	push	esi
	push	OFFSET ?TextEditCallbackStub@ExampleAppConsole@@SAHPAUImGuiTextEditCallbackData@@@Z ; ExampleAppConsole::TextEditCallbackStub
	push	224					; 000000e0H
	push	256					; 00000100H
	push	esi
	push	OFFSET ??_C@_05DCDOHKAB@Input?$AA@
	mov	BYTE PTR _reclaim_focus$1$[ebp], 0
	call	?InputText@ImGui@@YA_NPBDPADIHP6AHPAUImGuiTextEditCallbackData@@@ZPAX@Z ; ImGui::InputText
	add	esp, 28					; 0000001cH
	test	al, al
	je	SHORT $LN20@Draw

; 2234 :         {
; 2235 :             char* input_end = InputBuf+strlen(InputBuf);

	mov	ecx, esi
	lea	edx, DWORD PTR [ecx+1]
$LL95@Draw:
	mov	al, BYTE PTR [ecx]
	inc	ecx
	test	al, al
	jne	SHORT $LL95@Draw
	sub	ecx, edx
	lea	eax, DWORD PTR [ecx+esi]

; 2236 :             while (input_end > InputBuf && input_end[-1] == ' ') input_end--; *input_end = 0;

	cmp	eax, esi
	jbe	SHORT $LN96@Draw
$LL6@Draw:
	cmp	BYTE PTR [eax-1], 32			; 00000020H
	jne	SHORT $LN96@Draw
	dec	eax
	cmp	eax, esi
	ja	SHORT $LL6@Draw
$LN96@Draw:
	mov	BYTE PTR [eax], 0

; 2237 :             if (InputBuf[0])

	cmp	BYTE PTR [esi], 0
	je	SHORT $LN21@Draw

; 2238 :                 ExecCommand(InputBuf);

	push	esi
	mov	ecx, esi
	call	?ExecCommand@ExampleAppConsole@@QAEXPBD@Z ; ExampleAppConsole::ExecCommand
$LN21@Draw:

; 2239 :             strcpy(InputBuf, "");

	mov	BYTE PTR [esi], 0

; 2240 :             reclaim_focus = true;

	mov	BYTE PTR _reclaim_focus$1$[ebp], 1
$LN20@Draw:

; 2241 :         }
; 2242 : 
; 2243 :         // Demonstrate keeping focus on the input box
; 2244 :         ImGui::SetItemDefaultFocus();

	call	?SetItemDefaultFocus@ImGui@@YAXXZ	; ImGui::SetItemDefaultFocus

; 2245 :         if (ImGui::IsItemHovered() || reclaim_focus)

	call	?IsItemHovered@ImGui@@YA_NXZ		; ImGui::IsItemHovered
	test	al, al
	jne	SHORT $LN23@Draw
	cmp	BYTE PTR _reclaim_focus$1$[ebp], al
	je	SHORT $LN22@Draw
$LN23@Draw:

; 2246 :             ImGui::SetKeyboardFocusHere(-1); // Auto focus previous widget

	push	-1
	call	?SetKeyboardFocusHere@ImGui@@YAXH@Z	; ImGui::SetKeyboardFocusHere
	add	esp, 4
$LN22@Draw:

; 2247 : 
; 2248 :         ImGui::End();

	call	?End@ImGui@@YAXXZ			; ImGui::End

; 2249 :     }

	mov	ecx, DWORD PTR __$EHRec$[ebp]
	pop	esi
	mov	DWORD PTR fs:0, ecx
	mov	esp, ebp
	pop	ebp
	ret	8
_TEXT	ENDS
;	COMDAT text$x
text$x	SEGMENT
__unwindfunclet$?Draw@ExampleAppConsole@@QAEXPBDPA_N@Z$0:
	push	OFFSET ?$TSS0@?1??Draw@ExampleAppConsole@@QAEXPBDPA_N@Z@4HA ; TSS0<`template-parameter-2',ExampleAppConsole::aw,unsigned char * const,void,char const *,bool *>
	call	__Init_thread_abort
	pop	ecx
	ret	0
__ehhandler$?Draw@ExampleAppConsole@@QAEXPBDPA_N@Z:
	mov	eax, OFFSET __ehfuncinfo$?Draw@ExampleAppConsole@@QAEXPBDPA_N@Z
	jmp	___CxxFrameHandler3
text$x	ENDS
?Draw@ExampleAppConsole@@QAEXPBDPA_N@Z ENDP		; ExampleAppConsole::Draw
; Function compile flags: /Ogtp
; File c:\users\andon\source\repos\specialk\src\imgui\imgui_demo.cpp
;	COMDAT ?AddLog@ExampleAppConsole@@QAAXPBDZZ
_TEXT	SEGMENT
_buf$ = -1028						; size = 1024
$T1 = -4						; size = 4
_this$ = 8						; size = 4
_fmt$ = 12						; size = 4
?AddLog@ExampleAppConsole@@QAAXPBDZZ PROC		; ExampleAppConsole::AddLog, COMDAT

; 2154 :     {

	npad	2
	push	ebp
	mov	ebp, esp
	sub	esp, 1028				; 00000404H

; 2155 :         char buf[1024];
; 2156 :         va_list args;
; 2157 :         va_start(args, fmt);
; 2158 :         vsnprintf(buf, IM_ARRAYSIZE(buf), fmt, args);

	lea	eax, DWORD PTR _fmt$[ebp+4]
	push	eax
	push	DWORD PTR _fmt$[ebp]
	lea	eax, DWORD PTR _buf$[ebp]
	push	1024					; 00000400H
	push	eax
	call	_vsnprintf

; 2143 :     static char* Strdup(const char *str)                             { size_t len = strlen(str) + 1; void* buff = malloc(len); return (char*)memcpy(buff, (const void*)str, len); }

	lea	eax, DWORD PTR _buf$[ebp]

; 2159 :         buf[IM_ARRAYSIZE(buf)-1] = 0;

	mov	BYTE PTR _buf$[ebp+1023], 0
	add	esp, 16					; 00000010H

; 2143 :     static char* Strdup(const char *str)                             { size_t len = strlen(str) + 1; void* buff = malloc(len); return (char*)memcpy(buff, (const void*)str, len); }

	lea	edx, DWORD PTR [eax+1]
$LL5@AddLog:
	mov	cl, BYTE PTR [eax]
	inc	eax
	test	cl, cl
	jne	SHORT $LL5@AddLog
	sub	eax, edx
	push	esi
	lea	esi, DWORD PTR [eax+1]
	push	esi
	call	DWORD PTR __imp__malloc
	push	esi
	lea	ecx, DWORD PTR _buf$[ebp]
	push	ecx
	push	eax
	call	_memcpy

; 2160 :         va_end(args);
; 2161 :         Items.push_back(Strdup(buf));

	mov	esi, DWORD PTR _this$[ebp]

; 2143 :     static char* Strdup(const char *str)                             { size_t len = strlen(str) + 1; void* buff = malloc(len); return (char*)memcpy(buff, (const void*)str, len); }

	add	esp, 16					; 00000010H

; 2160 :         va_end(args);
; 2161 :         Items.push_back(Strdup(buf));

	mov	DWORD PTR $T1[ebp], eax
	lea	eax, DWORD PTR $T1[ebp]
	push	eax
	lea	ecx, DWORD PTR [esi+256]
	call	?push_back@?$ImVector@PAD@@QAEXABQAD@Z	; ImVector<char *>::push_back

; 2162 :         ScrollToBottom = true;

	mov	BYTE PTR [esi+268], 1
	pop	esi

; 2163 :     }

	mov	esp, ebp
	pop	ebp
	ret	0
?AddLog@ExampleAppConsole@@QAAXPBDZZ ENDP		; ExampleAppConsole::AddLog
_TEXT	ENDS
; Function compile flags: /Ogtp
; File c:\users\andon\source\repos\specialk\src\imgui\imgui_demo.cpp
; File c:\users\andon\source\repos\specialk\include\imgui\imgui.h
; File c:\users\andon\source\repos\specialk\src\imgui\imgui_demo.cpp
;	COMDAT ?ClearLog@ExampleAppConsole@@QAEXXZ
_TEXT	SEGMENT
?ClearLog@ExampleAppConsole@@QAEXXZ PROC		; ExampleAppConsole::ClearLog, COMDAT
; _this$ = ecx

; 2146 :     {

	npad	2
	push	esi
	mov	esi, ecx
	push	edi

; 2147 :         for (int i = 0; i < Items.Size; i++)

	xor	edi, edi
	cmp	DWORD PTR [esi+256], edi
	jle	SHORT $LN3@ClearLog
	push	ebx
	mov	ebx, DWORD PTR __imp__free
	npad	9
$LL4@ClearLog:

; 2148 :             free(Items[i]);

	mov	eax, DWORD PTR [esi+264]
	push	DWORD PTR [eax+edi*4]
	call	ebx
	inc	edi
	add	esp, 4
	cmp	edi, DWORD PTR [esi+256]
	jl	SHORT $LL4@ClearLog
	pop	ebx
$LN3@ClearLog:
; File c:\users\andon\source\repos\specialk\include\imgui\imgui.h

; 915  :     inline void                 clear()                         { if (Data) { Size = Capacity = 0; ImGui::MemFree(Data); Data = NULL; } }

	mov	eax, DWORD PTR [esi+264]
	test	eax, eax
	je	SHORT $LN15@ClearLog
	push	eax
	mov	DWORD PTR [esi+260], 0
	mov	DWORD PTR [esi+256], 0
	call	?MemFree@ImGui@@YAXPAX@Z		; ImGui::MemFree
	add	esp, 4
	mov	DWORD PTR [esi+264], 0
$LN15@ClearLog:
	pop	edi
; File c:\users\andon\source\repos\specialk\src\imgui\imgui_demo.cpp

; 2150 :         ScrollToBottom = true;

	mov	BYTE PTR [esi+268], 1
	pop	esi

; 2151 :     }

	ret	0
?ClearLog@ExampleAppConsole@@QAEXXZ ENDP		; ExampleAppConsole::ClearLog
_TEXT	ENDS
; Function compile flags: /Ogtp
; File c:\users\andon\source\repos\specialk\src\imgui\imgui_demo.cpp
;	COMDAT ?Strdup@ExampleAppConsole@@SAPADPBD@Z
_TEXT	SEGMENT
_str$ = 8						; size = 4
?Strdup@ExampleAppConsole@@SAPADPBD@Z PROC		; ExampleAppConsole::Strdup, COMDAT

; 2143 :     static char* Strdup(const char *str)                             { size_t len = strlen(str) + 1; void* buff = malloc(len); return (char*)memcpy(buff, (const void*)str, len); }

	npad	2
	push	ebp
	mov	ebp, esp
	mov	eax, DWORD PTR _str$[ebp]
	lea	edx, DWORD PTR [eax+1]
	npad	5
$LL3@Strdup:
	mov	cl, BYTE PTR [eax]
	inc	eax
	test	cl, cl
	jne	SHORT $LL3@Strdup
	sub	eax, edx
	push	esi
	lea	esi, DWORD PTR [eax+1]
	push	esi
	call	DWORD PTR __imp__malloc
	push	esi
	push	DWORD PTR _str$[ebp]
	push	eax
	call	_memcpy
	add	esp, 16					; 00000010H
	pop	esi
	pop	ebp
	ret	0
?Strdup@ExampleAppConsole@@SAPADPBD@Z ENDP		; ExampleAppConsole::Strdup
_TEXT	ENDS
; Function compile flags: /Ogtp
; File c:\users\andon\source\repos\specialk\src\imgui\imgui_demo.cpp
;	COMDAT ?Strnicmp@ExampleAppConsole@@SAHPBD0H@Z
_TEXT	SEGMENT
_str1$ = 8						; size = 4
_str2$ = 12						; size = 4
_n$ = 16						; size = 4
?Strnicmp@ExampleAppConsole@@SAHPBD0H@Z PROC		; ExampleAppConsole::Strnicmp, COMDAT

; 2142 :     static int   Strnicmp(const char* str1, const char* str2, int n) { int d = 0; while (n > 0 && (d = toupper(*str2) - toupper(*str1)) == 0 && *str1) { str1++; str2++; n--; } return d; }

	npad	2
	push	ebp
	mov	ebp, esp
	push	edi
	mov	edi, DWORD PTR _n$[ebp]
	test	edi, edi
	jle	SHORT $LN9@Strnicmp
	mov	eax, DWORD PTR _str2$[ebp]
	push	esi
	mov	esi, DWORD PTR _str1$[ebp]
	sub	eax, esi
	mov	DWORD PTR _str2$[ebp], eax
	push	ebx
	npad	6
$LL2@Strnicmp:
	movsx	eax, BYTE PTR [eax+esi]
	push	eax
	call	DWORD PTR __imp__toupper
	mov	ebx, eax
	movsx	eax, BYTE PTR [esi]
	push	eax
	call	DWORD PTR __imp__toupper
	add	esp, 8
	sub	ebx, eax
	jne	SHORT $LN10@Strnicmp
	cmp	BYTE PTR [esi], bl
	je	SHORT $LN10@Strnicmp
	mov	eax, DWORD PTR _str2$[ebp]
	dec	edi
	inc	esi
	test	edi, edi
	jg	SHORT $LL2@Strnicmp
$LN10@Strnicmp:
	mov	eax, ebx
	pop	ebx
	pop	esi
	pop	edi
	pop	ebp
	ret	0
$LN9@Strnicmp:
	xor	eax, eax
	pop	edi
	pop	ebp
	ret	0
?Strnicmp@ExampleAppConsole@@SAHPBD0H@Z ENDP		; ExampleAppConsole::Strnicmp
_TEXT	ENDS
; Function compile flags: /Ogtp
; File c:\users\andon\source\repos\specialk\src\imgui\imgui_demo.cpp
;	COMDAT ?Stricmp@ExampleAppConsole@@SAHPBD0@Z
_TEXT	SEGMENT
_str1$ = 8						; size = 4
_str2$ = 12						; size = 4
?Stricmp@ExampleAppConsole@@SAHPBD0@Z PROC		; ExampleAppConsole::Stricmp, COMDAT

; 2141 :     static int   Stricmp(const char* str1, const char* str2)         { int d; while ((d = toupper(*str2) - toupper(*str1)) == 0 && *str1) { str1++; str2++; } return d; }

	npad	2
	push	ebp
	mov	ebp, esp
	push	ebx
	mov	ebx, DWORD PTR __imp__toupper
	push	esi
	mov	esi, DWORD PTR _str1$[ebp]
	push	edi
	movsx	eax, BYTE PTR [esi]
	push	eax
	call	ebx
	mov	edi, eax
	mov	eax, DWORD PTR _str2$[ebp]
	movsx	ecx, BYTE PTR [eax]
	push	ecx
	call	ebx
	mov	ebx, eax
	add	esp, 8
	sub	ebx, edi
	jne	SHORT $LN9@Stricmp
	mov	eax, DWORD PTR _str2$[ebp]
	mov	edi, DWORD PTR __imp__toupper
	sub	eax, esi
	mov	DWORD PTR _str2$[ebp], eax
	npad	7
$LL2@Stricmp:
	cmp	BYTE PTR [esi], 0
	je	SHORT $LN9@Stricmp
	movsx	eax, BYTE PTR [eax+esi+1]
	inc	esi
	push	eax
	call	edi
	movsx	ecx, BYTE PTR [esi]
	mov	ebx, eax
	push	ecx
	call	edi
	add	esp, 8
	sub	ebx, eax
	mov	eax, DWORD PTR _str2$[ebp]
	je	SHORT $LL2@Stricmp
$LN9@Stricmp:
	pop	edi
	pop	esi
	mov	eax, ebx
	pop	ebx
	pop	ebp
	ret	0
?Stricmp@ExampleAppConsole@@SAHPBD0@Z ENDP		; ExampleAppConsole::Stricmp
_TEXT	ENDS
; Function compile flags: /Ogtp
; File c:\users\andon\source\repos\specialk\src\imgui\imgui_demo.cpp
; File c:\users\andon\source\repos\specialk\include\imgui\imgui.h
; File c:\users\andon\source\repos\specialk\src\imgui\imgui_demo.cpp
;	COMDAT ??1ExampleAppConsole@@QAE@XZ
_TEXT	SEGMENT
__$EHRec$ = -12						; size = 12
??1ExampleAppConsole@@QAE@XZ PROC			; ExampleAppConsole::~ExampleAppConsole, COMDAT
; _this$ = ecx

; 2134 :     {

	npad	2
	push	ebp
	mov	ebp, esp
	mov	eax, DWORD PTR fs:0
	push	-1
	push	__ehhandler$??1ExampleAppConsole@@QAE@XZ
	push	eax
	mov	DWORD PTR fs:0, esp
	push	ebx
	push	esi
	push	edi
	mov	edi, ecx

; 2135 :         ClearLog();

	call	?ClearLog@ExampleAppConsole@@QAEXXZ	; ExampleAppConsole::ClearLog

; 2136 :         for (int i = 0; i < History.Size; i++)

	xor	esi, esi
	cmp	DWORD PTR [edi+272], esi
	jle	SHORT $LN3@ExampleApp
	mov	ebx, DWORD PTR __imp__free
$LL4@ExampleApp:

; 2137 :             free(History[i]);

	mov	eax, DWORD PTR [edi+280]
	push	DWORD PTR [eax+esi*4]
	call	ebx
	inc	esi
	add	esp, 4
	cmp	esi, DWORD PTR [edi+272]
	jl	SHORT $LL4@ExampleApp
$LN3@ExampleApp:
; File c:\users\andon\source\repos\specialk\include\imgui\imgui.h

; 906  :     ~ImVector()                 { if (Data) ImGui::MemFree(Data); }

	mov	eax, DWORD PTR [edi+296]
	mov	DWORD PTR __$EHRec$[ebp+8], 0
	test	eax, eax
	je	SHORT $LN9@ExampleApp
	push	eax
	call	?MemFree@ImGui@@YAXPAX@Z		; ImGui::MemFree
	add	esp, 4
$LN9@ExampleApp:
	mov	eax, DWORD PTR [edi+280]
	mov	DWORD PTR __$EHRec$[ebp+8], 1
	test	eax, eax
	je	SHORT $LN13@ExampleApp
	push	eax
	call	?MemFree@ImGui@@YAXPAX@Z		; ImGui::MemFree
	add	esp, 4
$LN13@ExampleApp:
	mov	eax, DWORD PTR [edi+264]
	mov	DWORD PTR __$EHRec$[ebp+8], 2
	test	eax, eax
	je	SHORT $LN17@ExampleApp
	push	eax
	call	?MemFree@ImGui@@YAXPAX@Z		; ImGui::MemFree
	add	esp, 4
$LN17@ExampleApp:
; File c:\users\andon\source\repos\specialk\src\imgui\imgui_demo.cpp

; 2138 :     }

	mov	ecx, DWORD PTR __$EHRec$[ebp]
	pop	edi
	pop	esi
	mov	DWORD PTR fs:0, ecx
	pop	ebx
	mov	esp, ebp
	pop	ebp
	ret	0
_TEXT	ENDS
;	COMDAT text$x
text$x	SEGMENT
__ehhandler$??1ExampleAppConsole@@QAE@XZ:
	mov	eax, OFFSET __ehfuncinfo$??1ExampleAppConsole@@QAE@XZ
	jmp	___CxxFrameHandler3
text$x	ENDS
??1ExampleAppConsole@@QAE@XZ ENDP			; ExampleAppConsole::~ExampleAppConsole
; Function compile flags: /Ogtp
; File c:\users\andon\source\repos\specialk\src\imgui\imgui_demo.cpp
; File c:\users\andon\source\repos\specialk\include\imgui\imgui.h
; File c:\users\andon\source\repos\specialk\src\imgui\imgui_demo.cpp
; File c:\users\andon\source\repos\specialk\include\imgui\imgui.h
; File c:\users\andon\source\repos\specialk\src\imgui\imgui_demo.cpp
; File c:\users\andon\source\repos\specialk\include\imgui\imgui.h
; File c:\users\andon\source\repos\specialk\src\imgui\imgui_demo.cpp
;	COMDAT ??0ExampleAppConsole@@QAE@XZ
_TEXT	SEGMENT
_this$ = -20						; size = 4
$T2 = -16						; size = 4
$T3 = -16						; size = 4
$T4 = -16						; size = 4
$T5 = -16						; size = 4
__$EHRec$ = -12						; size = 12
??0ExampleAppConsole@@QAE@XZ PROC			; ExampleAppConsole::ExampleAppConsole, COMDAT
; _this$ = ecx

; 2122 :     ExampleAppConsole()

	npad	2
	push	ebp
	mov	ebp, esp
	push	-1
	push	__ehhandler$??0ExampleAppConsole@@QAE@XZ
	mov	eax, DWORD PTR fs:0
	push	eax
	mov	DWORD PTR fs:0, esp
	sub	esp, 8
	push	esi
	push	edi
	mov	edi, ecx
	mov	DWORD PTR _this$[ebp], edi
; File c:\users\andon\source\repos\specialk\include\imgui\imgui.h

; 905  :     ImVector()                  { Size = Capacity = 0; Data = NULL; }

	mov	DWORD PTR [edi+260], 0
	mov	DWORD PTR [edi+256], 0
	mov	DWORD PTR [edi+264], 0
; File c:\users\andon\source\repos\specialk\src\imgui\imgui_demo.cpp

; 2123 :     {

	mov	DWORD PTR __$EHRec$[ebp+8], 0
; File c:\users\andon\source\repos\specialk\include\imgui\imgui.h

; 905  :     ImVector()                  { Size = Capacity = 0; Data = NULL; }

	mov	DWORD PTR [edi+276], 0
	mov	DWORD PTR [edi+272], 0
	mov	DWORD PTR [edi+280], 0
; File c:\users\andon\source\repos\specialk\src\imgui\imgui_demo.cpp

; 2123 :     {

	lea	esi, DWORD PTR [edi+288]
; File c:\users\andon\source\repos\specialk\include\imgui\imgui.h

; 905  :     ImVector()                  { Size = Capacity = 0; Data = NULL; }

	mov	DWORD PTR [esi+4], 0
	mov	DWORD PTR [esi], 0
	mov	DWORD PTR [esi+8], 0
; File c:\users\andon\source\repos\specialk\src\imgui\imgui_demo.cpp

; 2123 :     {

	mov	BYTE PTR __$EHRec$[ebp+8], 2

; 2124 :         ClearLog();

	call	?ClearLog@ExampleAppConsole@@QAEXXZ	; ExampleAppConsole::ClearLog

; 2125 :         memset(InputBuf, 0, sizeof(InputBuf));

	push	256					; 00000100H
	push	0
	push	edi
	call	_memset
	add	esp, 12					; 0000000cH

; 2126 :         HistoryPos = -1;

	mov	DWORD PTR [edi+284], -1

; 2127 :         Commands.push_back("HELP");

	lea	eax, DWORD PTR $T5[ebp]
	mov	DWORD PTR $T5[ebp], OFFSET ??_C@_04DOKPJKJF@HELP?$AA@
	mov	ecx, esi
	push	eax
	call	?push_back@?$ImVector@PBD@@QAEXABQBD@Z	; ImVector<char const *>::push_back

; 2128 :         Commands.push_back("HISTORY");

	lea	eax, DWORD PTR $T4[ebp]
	mov	DWORD PTR $T4[ebp], OFFSET ??_C@_07DBIJIOJO@HISTORY?$AA@
	push	eax
	mov	ecx, esi
	call	?push_back@?$ImVector@PBD@@QAEXABQBD@Z	; ImVector<char const *>::push_back

; 2129 :         Commands.push_back("CLEAR");

	lea	eax, DWORD PTR $T3[ebp]
	mov	DWORD PTR $T3[ebp], OFFSET ??_C@_05PONODPI@CLEAR?$AA@
	push	eax
	mov	ecx, esi
	call	?push_back@?$ImVector@PBD@@QAEXABQBD@Z	; ImVector<char const *>::push_back

; 2130 :         Commands.push_back("CLASSIFY");  // "classify" is here to provide an example of "C"+[tab] completing to "CL" and displaying matches.

	lea	eax, DWORD PTR $T2[ebp]
	mov	DWORD PTR $T2[ebp], OFFSET ??_C@_08GOHMLCGG@CLASSIFY?$AA@
	push	eax
	mov	ecx, esi
	call	?push_back@?$ImVector@PBD@@QAEXABQBD@Z	; ImVector<char const *>::push_back

; 2131 :         AddLog("Welcome to ImGui!");

	push	OFFSET ??_C@_0BC@JPCINNJN@Welcome?5to?5ImGui?$CB?$AA@
	push	edi
	call	?AddLog@ExampleAppConsole@@QAAXPBDZZ	; ExampleAppConsole::AddLog

; 2132 :     }

	mov	ecx, DWORD PTR __$EHRec$[ebp]
	add	esp, 8
	mov	eax, edi
	mov	DWORD PTR fs:0, ecx
	pop	edi
	pop	esi
	mov	esp, ebp
	pop	ebp
	ret	0
_TEXT	ENDS
;	COMDAT text$x
text$x	SEGMENT
__unwindfunclet$??0ExampleAppConsole@@QAE@XZ$0:
	mov	ecx, DWORD PTR _this$[ebp]
	add	ecx, 256				; 00000100H
	jmp	??1?$ImVector@PAD@@QAE@XZ		; ImVector<char *>::~ImVector<char *>
__unwindfunclet$??0ExampleAppConsole@@QAE@XZ$1:
	mov	ecx, DWORD PTR _this$[ebp]
	add	ecx, 272				; 00000110H
	jmp	??1?$ImVector@PAD@@QAE@XZ		; ImVector<char *>::~ImVector<char *>
__unwindfunclet$??0ExampleAppConsole@@QAE@XZ$2:
	mov	ecx, DWORD PTR _this$[ebp]
	add	ecx, 288				; 00000120H
	jmp	??1?$ImVector@PBD@@QAE@XZ		; ImVector<char const *>::~ImVector<char const *>
__ehhandler$??0ExampleAppConsole@@QAE@XZ:
	mov	eax, OFFSET __ehfuncinfo$??0ExampleAppConsole@@QAE@XZ
	jmp	___CxxFrameHandler3
text$x	ENDS
??0ExampleAppConsole@@QAE@XZ ENDP			; ExampleAppConsole::ExampleAppConsole
; Function compile flags: /Ogtp
; File c:\users\andon\source\repos\specialk\include\imgui\imgui.h
;	COMDAT ?push_back@?$ImVector@PBD@@QAEXABQBD@Z
_TEXT	SEGMENT
_v$ = 8							; size = 4
?push_back@?$ImVector@PBD@@QAEXABQBD@Z PROC		; ImVector<char const *>::push_back, COMDAT
; _this$ = ecx

; 940  :     inline void                 push_back(const value_type& v)  { if (Size == Capacity) reserve(_grow_capacity(Size+1)); Data[Size++] = v; }

	npad	2
	push	ebp
	mov	ebp, esp
	push	esi
	mov	esi, ecx
	push	edi
	mov	edi, DWORD PTR [esi]
	mov	ecx, DWORD PTR [esi+4]
	cmp	edi, ecx
	jne	SHORT $LN8@push_back
	inc	edi

; 926  :     inline int                  _grow_capacity(int new_size)    { int new_capacity = Capacity ? (Capacity + Capacity/2) : 8; return new_capacity > new_size ? new_capacity : new_size; }

	test	ecx, ecx
	je	SHORT $LN6@push_back
	mov	eax, ecx
	cdq
	sub	eax, edx
	sar	eax, 1
	add	eax, ecx
	jmp	SHORT $LN7@push_back
$LN6@push_back:
	mov	eax, 8
$LN7@push_back:
	cmp	eax, edi
	cmovg	edi, eax

; 931  :         if (new_capacity <= Capacity) return;

	cmp	edi, ecx
	jle	SHORT $LN8@push_back

; 932  :         T* new_data = (value_type*)ImGui::MemAlloc((size_t)new_capacity * sizeof(value_type));

	lea	eax, DWORD PTR [edi*4]
	push	ebx
	push	eax
	call	?MemAlloc@ImGui@@YAPAXI@Z		; ImGui::MemAlloc
	mov	ebx, eax
	add	esp, 4

; 933  :         if (Data)

	mov	eax, DWORD PTR [esi+8]
	test	eax, eax
	je	SHORT $LN10@push_back

; 934  :             memcpy(new_data, Data, (size_t)Size * sizeof(value_type));

	mov	ecx, DWORD PTR [esi]
	shl	ecx, 2
	push	ecx
	push	eax
	push	ebx
	call	_memcpy
	add	esp, 12					; 0000000cH
$LN10@push_back:

; 935  :         ImGui::MemFree(Data);

	push	DWORD PTR [esi+8]
	call	?MemFree@ImGui@@YAXPAX@Z		; ImGui::MemFree
	add	esp, 4

; 936  :         Data = new_data;

	mov	DWORD PTR [esi+8], ebx

; 937  :         Capacity = new_capacity;

	mov	DWORD PTR [esi+4], edi
	pop	ebx
$LN8@push_back:

; 940  :     inline void                 push_back(const value_type& v)  { if (Size == Capacity) reserve(_grow_capacity(Size+1)); Data[Size++] = v; }

	mov	edx, DWORD PTR [esi]
	mov	ecx, DWORD PTR [esi+8]
	mov	eax, DWORD PTR _v$[ebp]
	pop	edi
	mov	eax, DWORD PTR [eax]
	mov	DWORD PTR [ecx+edx*4], eax
	inc	DWORD PTR [esi]
	pop	esi
	pop	ebp
	ret	4
?push_back@?$ImVector@PBD@@QAEXABQBD@Z ENDP		; ImVector<char const *>::push_back
_TEXT	ENDS
; Function compile flags: /Ogtp
; File c:\users\andon\source\repos\specialk\include\imgui\imgui.h
;	COMDAT ?reserve@?$ImVector@PBD@@QAEXH@Z
_TEXT	SEGMENT
_new_capacity$ = 8					; size = 4
?reserve@?$ImVector@PBD@@QAEXH@Z PROC			; ImVector<char const *>::reserve, COMDAT
; _this$ = ecx

; 930  :     {

	npad	2
	push	ebp
	mov	ebp, esp
	push	esi
	mov	esi, ecx
	push	edi

; 931  :         if (new_capacity <= Capacity) return;

	mov	edi, DWORD PTR _new_capacity$[ebp]
	cmp	edi, DWORD PTR [esi+4]
	jle	SHORT $LN1@reserve

; 932  :         T* new_data = (value_type*)ImGui::MemAlloc((size_t)new_capacity * sizeof(value_type));

	lea	eax, DWORD PTR [edi*4]
	push	ebx
	push	eax
	call	?MemAlloc@ImGui@@YAPAXI@Z		; ImGui::MemAlloc
	mov	ebx, eax
	add	esp, 4

; 933  :         if (Data)

	mov	eax, DWORD PTR [esi+8]
	test	eax, eax
	je	SHORT $LN3@reserve

; 934  :             memcpy(new_data, Data, (size_t)Size * sizeof(value_type));

	mov	ecx, DWORD PTR [esi]
	shl	ecx, 2
	push	ecx
	push	eax
	push	ebx
	call	_memcpy
	add	esp, 12					; 0000000cH
$LN3@reserve:

; 935  :         ImGui::MemFree(Data);

	push	DWORD PTR [esi+8]
	call	?MemFree@ImGui@@YAXPAX@Z		; ImGui::MemFree
	add	esp, 4

; 936  :         Data = new_data;

	mov	DWORD PTR [esi+8], ebx

; 937  :         Capacity = new_capacity;

	mov	DWORD PTR [esi+4], edi
	pop	ebx
$LN1@reserve:
	pop	edi
	pop	esi

; 938  :     }

	pop	ebp
	ret	4
?reserve@?$ImVector@PBD@@QAEXH@Z ENDP			; ImVector<char const *>::reserve
_TEXT	ENDS
; Function compile flags: /Ogtp
; File c:\users\andon\source\repos\specialk\include\imgui\imgui.h
;	COMDAT ?_grow_capacity@?$ImVector@PBD@@QAEHH@Z
_TEXT	SEGMENT
_new_size$ = 8						; size = 4
?_grow_capacity@?$ImVector@PBD@@QAEHH@Z PROC		; ImVector<char const *>::_grow_capacity, COMDAT
; _this$ = ecx

; 926  :     inline int                  _grow_capacity(int new_size)    { int new_capacity = Capacity ? (Capacity + Capacity/2) : 8; return new_capacity > new_size ? new_capacity : new_size; }

	npad	2
	push	ebp
	mov	ebp, esp
	push	esi
	mov	esi, DWORD PTR [ecx+4]
	test	esi, esi
	je	SHORT $LN3@grow_capac
	mov	eax, esi
	cdq
	sub	eax, edx
	mov	ecx, eax
	mov	eax, DWORD PTR _new_size$[ebp]
	sar	ecx, 1
	add	ecx, esi
	cmp	ecx, eax
	pop	esi
	cmovg	eax, ecx
	pop	ebp
	ret	4
$LN3@grow_capac:
	mov	eax, DWORD PTR _new_size$[ebp]
	mov	ecx, 8
	cmp	ecx, eax
	pop	esi
	cmovg	eax, ecx
	pop	ebp
	ret	4
?_grow_capacity@?$ImVector@PBD@@QAEHH@Z ENDP		; ImVector<char const *>::_grow_capacity
_TEXT	ENDS
; Function compile flags: /Ogtp
; File c:\users\andon\source\repos\specialk\include\imgui\imgui.h
;	COMDAT ??A?$ImVector@PBD@@QAEAAPBDH@Z
_TEXT	SEGMENT
_i$ = 8							; size = 4
??A?$ImVector@PBD@@QAEAAPBDH@Z PROC			; ImVector<char const *>::operator[], COMDAT
; _this$ = ecx

; 912  :     inline value_type&          operator[](int i)               { IM_ASSERT(i < Size); return Data[i]; }

	npad	2
	push	ebp
	mov	ebp, esp
	mov	ecx, DWORD PTR [ecx+8]
	mov	eax, DWORD PTR _i$[ebp]
	lea	eax, DWORD PTR [ecx+eax*4]
	pop	ebp
	ret	4
??A?$ImVector@PBD@@QAEAAPBDH@Z ENDP			; ImVector<char const *>::operator[]
_TEXT	ENDS
; Function compile flags: /Ogtp
; File c:\users\andon\source\repos\specialk\include\imgui\imgui.h
;	COMDAT ??1?$ImVector@PBD@@QAE@XZ
_TEXT	SEGMENT
__$EHRec$ = -12						; size = 12
??1?$ImVector@PBD@@QAE@XZ PROC				; ImVector<char const *>::~ImVector<char const *>, COMDAT
; _this$ = ecx

; 906  :     ~ImVector()                 { if (Data) ImGui::MemFree(Data); }

	npad	2
	push	ebp
	mov	ebp, esp
	mov	eax, DWORD PTR fs:0
	push	-1
	push	__ehhandler$??1?$ImVector@PBD@@QAE@XZ
	push	eax
	mov	DWORD PTR fs:0, esp
	mov	eax, DWORD PTR [ecx+8]
	test	eax, eax
	je	SHORT $LN2@ImVector
	push	eax
	call	?MemFree@ImGui@@YAXPAX@Z		; ImGui::MemFree
	add	esp, 4
$LN2@ImVector:
	mov	ecx, DWORD PTR __$EHRec$[ebp]
	mov	DWORD PTR fs:0, ecx
	mov	esp, ebp
	pop	ebp
	ret	0
_TEXT	ENDS
;	COMDAT text$x
text$x	SEGMENT
__ehhandler$??1?$ImVector@PBD@@QAE@XZ:
	mov	eax, OFFSET __ehfuncinfo$??1?$ImVector@PBD@@QAE@XZ
	jmp	___CxxFrameHandler3
text$x	ENDS
??1?$ImVector@PBD@@QAE@XZ ENDP				; ImVector<char const *>::~ImVector<char const *>
; Function compile flags: /Ogtp
; File c:\users\andon\source\repos\specialk\include\imgui\imgui.h
;	COMDAT ??0?$ImVector@PBD@@QAE@XZ
_TEXT	SEGMENT
??0?$ImVector@PBD@@QAE@XZ PROC				; ImVector<char const *>::ImVector<char const *>, COMDAT
; _this$ = ecx

; 905  :     ImVector()                  { Size = Capacity = 0; Data = NULL; }

	mov	DWORD PTR [ecx+4], 0
	mov	eax, ecx
	mov	DWORD PTR [ecx], 0
	mov	DWORD PTR [ecx+8], 0
	ret	0
??0?$ImVector@PBD@@QAE@XZ ENDP				; ImVector<char const *>::ImVector<char const *>
_TEXT	ENDS
; Function compile flags: /Ogtp
; File c:\users\andon\source\repos\specialk\include\imgui\imgui.h
;	COMDAT ?erase@?$ImVector@PAD@@QAEPAPADPBQAD@Z
_TEXT	SEGMENT
_it$ = 8						; size = 4
?erase@?$ImVector@PAD@@QAEPAPADPBQAD@Z PROC		; ImVector<char *>::erase, COMDAT
; _this$ = ecx

; 943  :     inline iterator             erase(const_iterator it)        { IM_ASSERT(it >= Data && it < Data+Size); const ptrdiff_t off = it - Data; memmove(Data + off, Data + off + 1, ((size_t)Size - (size_t)off - 1) * sizeof(value_type)); Size--; return Data + off; }

	npad	2
	push	ebp
	mov	ebp, esp
	mov	edx, DWORD PTR _it$[ebp]
	push	esi
	push	edi
	mov	edi, ecx
	mov	eax, DWORD PTR [edi+8]
	sub	edx, eax
	sar	edx, 2
	lea	esi, DWORD PTR [edx*4]
	lea	ecx, DWORD PTR [esi+eax]
	mov	eax, DWORD PTR [edi]
	sub	eax, edx
	lea	eax, DWORD PTR [eax*4-4]
	push	eax
	lea	eax, DWORD PTR [ecx+4]
	push	eax
	push	ecx
	call	DWORD PTR __imp__memmove
	dec	DWORD PTR [edi]
	add	esp, 12					; 0000000cH
	mov	eax, DWORD PTR [edi+8]
	add	eax, esi
	pop	edi
	pop	esi
	pop	ebp
	ret	4
?erase@?$ImVector@PAD@@QAEPAPADPBQAD@Z ENDP		; ImVector<char *>::erase
_TEXT	ENDS
; Function compile flags: /Ogtp
; File c:\users\andon\source\repos\specialk\include\imgui\imgui.h
;	COMDAT ?push_back@?$ImVector@PAD@@QAEXABQAD@Z
_TEXT	SEGMENT
_v$ = 8							; size = 4
?push_back@?$ImVector@PAD@@QAEXABQAD@Z PROC		; ImVector<char *>::push_back, COMDAT
; _this$ = ecx

; 940  :     inline void                 push_back(const value_type& v)  { if (Size == Capacity) reserve(_grow_capacity(Size+1)); Data[Size++] = v; }

	npad	2
	push	ebp
	mov	ebp, esp
	push	esi
	mov	esi, ecx
	push	edi
	mov	edi, DWORD PTR [esi]
	mov	ecx, DWORD PTR [esi+4]
	cmp	edi, ecx
	jne	SHORT $LN8@push_back
	inc	edi

; 926  :     inline int                  _grow_capacity(int new_size)    { int new_capacity = Capacity ? (Capacity + Capacity/2) : 8; return new_capacity > new_size ? new_capacity : new_size; }

	test	ecx, ecx
	je	SHORT $LN6@push_back
	mov	eax, ecx
	cdq
	sub	eax, edx
	sar	eax, 1
	add	eax, ecx
	jmp	SHORT $LN7@push_back
$LN6@push_back:
	mov	eax, 8
$LN7@push_back:
	cmp	eax, edi
	cmovg	edi, eax

; 931  :         if (new_capacity <= Capacity) return;

	cmp	edi, ecx
	jle	SHORT $LN8@push_back

; 932  :         T* new_data = (value_type*)ImGui::MemAlloc((size_t)new_capacity * sizeof(value_type));

	lea	eax, DWORD PTR [edi*4]
	push	ebx
	push	eax
	call	?MemAlloc@ImGui@@YAPAXI@Z		; ImGui::MemAlloc
	mov	ebx, eax
	add	esp, 4

; 933  :         if (Data)

	mov	eax, DWORD PTR [esi+8]
	test	eax, eax
	je	SHORT $LN10@push_back

; 934  :             memcpy(new_data, Data, (size_t)Size * sizeof(value_type));

	mov	ecx, DWORD PTR [esi]
	shl	ecx, 2
	push	ecx
	push	eax
	push	ebx
	call	_memcpy
	add	esp, 12					; 0000000cH
$LN10@push_back:

; 935  :         ImGui::MemFree(Data);

	push	DWORD PTR [esi+8]
	call	?MemFree@ImGui@@YAXPAX@Z		; ImGui::MemFree
	add	esp, 4

; 936  :         Data = new_data;

	mov	DWORD PTR [esi+8], ebx

; 937  :         Capacity = new_capacity;

	mov	DWORD PTR [esi+4], edi
	pop	ebx
$LN8@push_back:

; 940  :     inline void                 push_back(const value_type& v)  { if (Size == Capacity) reserve(_grow_capacity(Size+1)); Data[Size++] = v; }

	mov	edx, DWORD PTR [esi]
	mov	ecx, DWORD PTR [esi+8]
	mov	eax, DWORD PTR _v$[ebp]
	pop	edi
	mov	eax, DWORD PTR [eax]
	mov	DWORD PTR [ecx+edx*4], eax
	inc	DWORD PTR [esi]
	pop	esi
	pop	ebp
	ret	4
?push_back@?$ImVector@PAD@@QAEXABQAD@Z ENDP		; ImVector<char *>::push_back
_TEXT	ENDS
; Function compile flags: /Ogtp
; File c:\users\andon\source\repos\specialk\include\imgui\imgui.h
;	COMDAT ?reserve@?$ImVector@PAD@@QAEXH@Z
_TEXT	SEGMENT
_new_capacity$ = 8					; size = 4
?reserve@?$ImVector@PAD@@QAEXH@Z PROC			; ImVector<char *>::reserve, COMDAT
; _this$ = ecx

; 930  :     {

	npad	2
	push	ebp
	mov	ebp, esp
	push	esi
	mov	esi, ecx
	push	edi

; 931  :         if (new_capacity <= Capacity) return;

	mov	edi, DWORD PTR _new_capacity$[ebp]
	cmp	edi, DWORD PTR [esi+4]
	jle	SHORT $LN1@reserve

; 932  :         T* new_data = (value_type*)ImGui::MemAlloc((size_t)new_capacity * sizeof(value_type));

	lea	eax, DWORD PTR [edi*4]
	push	ebx
	push	eax
	call	?MemAlloc@ImGui@@YAPAXI@Z		; ImGui::MemAlloc
	mov	ebx, eax
	add	esp, 4

; 933  :         if (Data)

	mov	eax, DWORD PTR [esi+8]
	test	eax, eax
	je	SHORT $LN3@reserve

; 934  :             memcpy(new_data, Data, (size_t)Size * sizeof(value_type));

	mov	ecx, DWORD PTR [esi]
	shl	ecx, 2
	push	ecx
	push	eax
	push	ebx
	call	_memcpy
	add	esp, 12					; 0000000cH
$LN3@reserve:

; 935  :         ImGui::MemFree(Data);

	push	DWORD PTR [esi+8]
	call	?MemFree@ImGui@@YAXPAX@Z		; ImGui::MemFree
	add	esp, 4

; 936  :         Data = new_data;

	mov	DWORD PTR [esi+8], ebx

; 937  :         Capacity = new_capacity;

	mov	DWORD PTR [esi+4], edi
	pop	ebx
$LN1@reserve:
	pop	edi
	pop	esi

; 938  :     }

	pop	ebp
	ret	4
?reserve@?$ImVector@PAD@@QAEXH@Z ENDP			; ImVector<char *>::reserve
_TEXT	ENDS
; Function compile flags: /Ogtp
; File c:\users\andon\source\repos\specialk\include\imgui\imgui.h
;	COMDAT ?_grow_capacity@?$ImVector@PAD@@QAEHH@Z
_TEXT	SEGMENT
_new_size$ = 8						; size = 4
?_grow_capacity@?$ImVector@PAD@@QAEHH@Z PROC		; ImVector<char *>::_grow_capacity, COMDAT
; _this$ = ecx

; 926  :     inline int                  _grow_capacity(int new_size)    { int new_capacity = Capacity ? (Capacity + Capacity/2) : 8; return new_capacity > new_size ? new_capacity : new_size; }

	npad	2
	push	ebp
	mov	ebp, esp
	push	esi
	mov	esi, DWORD PTR [ecx+4]
	test	esi, esi
	je	SHORT $LN3@grow_capac
	mov	eax, esi
	cdq
	sub	eax, edx
	mov	ecx, eax
	mov	eax, DWORD PTR _new_size$[ebp]
	sar	ecx, 1
	add	ecx, esi
	cmp	ecx, eax
	pop	esi
	cmovg	eax, ecx
	pop	ebp
	ret	4
$LN3@grow_capac:
	mov	eax, DWORD PTR _new_size$[ebp]
	mov	ecx, 8
	cmp	ecx, eax
	pop	esi
	cmovg	eax, ecx
	pop	ebp
	ret	4
?_grow_capacity@?$ImVector@PAD@@QAEHH@Z ENDP		; ImVector<char *>::_grow_capacity
_TEXT	ENDS
; Function compile flags: /Ogtp
; File c:\users\andon\source\repos\specialk\include\imgui\imgui.h
;	COMDAT ?begin@?$ImVector@PAD@@QAEPAPADXZ
_TEXT	SEGMENT
?begin@?$ImVector@PAD@@QAEPAPADXZ PROC			; ImVector<char *>::begin, COMDAT
; _this$ = ecx

; 916  :     inline iterator             begin()                         { return Data; }

	mov	eax, DWORD PTR [ecx+8]
	ret	0
?begin@?$ImVector@PAD@@QAEPAPADXZ ENDP			; ImVector<char *>::begin
_TEXT	ENDS
; Function compile flags: /Ogtp
; File c:\users\andon\source\repos\specialk\include\imgui\imgui.h
;	COMDAT ?clear@?$ImVector@PAD@@QAEXXZ
_TEXT	SEGMENT
?clear@?$ImVector@PAD@@QAEXXZ PROC			; ImVector<char *>::clear, COMDAT
; _this$ = ecx

; 915  :     inline void                 clear()                         { if (Data) { Size = Capacity = 0; ImGui::MemFree(Data); Data = NULL; } }

	npad	2
	push	esi
	mov	esi, ecx
	mov	eax, DWORD PTR [esi+8]
	test	eax, eax
	je	SHORT $LN2@clear
	push	eax
	mov	DWORD PTR [esi+4], 0
	mov	DWORD PTR [esi], 0
	call	?MemFree@ImGui@@YAXPAX@Z		; ImGui::MemFree
	add	esp, 4
	mov	DWORD PTR [esi+8], 0
$LN2@clear:
	pop	esi
	ret	0
?clear@?$ImVector@PAD@@QAEXXZ ENDP			; ImVector<char *>::clear
_TEXT	ENDS
; Function compile flags: /Ogtp
; File c:\users\andon\source\repos\specialk\include\imgui\imgui.h
;	COMDAT ??A?$ImVector@PAD@@QAEAAPADH@Z
_TEXT	SEGMENT
_i$ = 8							; size = 4
??A?$ImVector@PAD@@QAEAAPADH@Z PROC			; ImVector<char *>::operator[], COMDAT
; _this$ = ecx

; 912  :     inline value_type&          operator[](int i)               { IM_ASSERT(i < Size); return Data[i]; }

	npad	2
	push	ebp
	mov	ebp, esp
	mov	ecx, DWORD PTR [ecx+8]
	mov	eax, DWORD PTR _i$[ebp]
	lea	eax, DWORD PTR [ecx+eax*4]
	pop	ebp
	ret	4
??A?$ImVector@PAD@@QAEAAPADH@Z ENDP			; ImVector<char *>::operator[]
_TEXT	ENDS
; Function compile flags: /Ogtp
; File c:\users\andon\source\repos\specialk\include\imgui\imgui.h
;	COMDAT ??1?$ImVector@PAD@@QAE@XZ
_TEXT	SEGMENT
__$EHRec$ = -12						; size = 12
??1?$ImVector@PAD@@QAE@XZ PROC				; ImVector<char *>::~ImVector<char *>, COMDAT
; _this$ = ecx

; 906  :     ~ImVector()                 { if (Data) ImGui::MemFree(Data); }

	npad	2
	push	ebp
	mov	ebp, esp
	mov	eax, DWORD PTR fs:0
	push	-1
	push	__ehhandler$??1?$ImVector@PAD@@QAE@XZ
	push	eax
	mov	DWORD PTR fs:0, esp
	mov	eax, DWORD PTR [ecx+8]
	test	eax, eax
	je	SHORT $LN2@ImVector
	push	eax
	call	?MemFree@ImGui@@YAXPAX@Z		; ImGui::MemFree
	add	esp, 4
$LN2@ImVector:
	mov	ecx, DWORD PTR __$EHRec$[ebp]
	mov	DWORD PTR fs:0, ecx
	mov	esp, ebp
	pop	ebp
	ret	0
_TEXT	ENDS
;	COMDAT text$x
text$x	SEGMENT
__ehhandler$??1?$ImVector@PAD@@QAE@XZ:
	mov	eax, OFFSET __ehfuncinfo$??1?$ImVector@PAD@@QAE@XZ
	jmp	___CxxFrameHandler3
text$x	ENDS
??1?$ImVector@PAD@@QAE@XZ ENDP				; ImVector<char *>::~ImVector<char *>
; Function compile flags: /Ogtp
; File c:\users\andon\source\repos\specialk\include\imgui\imgui.h
;	COMDAT ??0?$ImVector@PAD@@QAE@XZ
_TEXT	SEGMENT
??0?$ImVector@PAD@@QAE@XZ PROC				; ImVector<char *>::ImVector<char *>, COMDAT
; _this$ = ecx

; 905  :     ImVector()                  { Size = Capacity = 0; Data = NULL; }

	mov	DWORD PTR [ecx+4], 0
	mov	eax, ecx
	mov	DWORD PTR [ecx], 0
	mov	DWORD PTR [ecx+8], 0
	ret	0
??0?$ImVector@PAD@@QAE@XZ ENDP				; ImVector<char *>::ImVector<char *>
_TEXT	ENDS
; Function compile flags: /Ogtp
; File c:\users\andon\source\repos\specialk\include\imgui\imgui.h
;	COMDAT ??__Fpoints@?8??ShowExampleAppCustomRendering@@YAXPA_N@Z@YAXXZ
text$yd	SEGMENT
__$EHRec$ = -12						; size = 12
??__Fpoints@?8??ShowExampleAppCustomRendering@@YAXPA_N@Z@YAXXZ PROC ; `ShowExampleAppCustomRendering'::`9'::`dynamic atexit destructor for 'points'', COMDAT
	npad	2
	push	ebp
	mov	ebp, esp
	mov	eax, DWORD PTR fs:0
	push	-1
	push	__ehhandler$??__Fpoints@?8??ShowExampleAppCustomRendering@@YAXPA_N@Z@YAXXZ
	push	eax
	mov	DWORD PTR fs:0, esp

; 906  :     ~ImVector()                 { if (Data) ImGui::MemFree(Data); }

	mov	eax, DWORD PTR ?points@?8??ShowExampleAppCustomRendering@@YAXPA_N@Z@4V?$ImVector@UImVec2@@@@A+8
	mov	DWORD PTR __$EHRec$[ebp+8], 0
	test	eax, eax
	je	SHORT $LN4@dynamic
	push	eax
	call	?MemFree@ImGui@@YAXPAX@Z		; ImGui::MemFree
	add	esp, 4
$LN4@dynamic:
	mov	ecx, DWORD PTR __$EHRec$[ebp]
	mov	DWORD PTR fs:0, ecx
	mov	esp, ebp
	pop	ebp
	ret	0
text$yd	ENDS
;	COMDAT text$x
text$x	SEGMENT
__ehhandler$??__Fpoints@?8??ShowExampleAppCustomRendering@@YAXPA_N@Z@YAXXZ:
	mov	eax, OFFSET __ehfuncinfo$??__Fpoints@?8??ShowExampleAppCustomRendering@@YAXPA_N@Z@YAXXZ
	jmp	___CxxFrameHandler3
text$x	ENDS
??__Fpoints@?8??ShowExampleAppCustomRendering@@YAXPA_N@Z@YAXXZ ENDP ; `ShowExampleAppCustomRendering'::`9'::`dynamic atexit destructor for 'points''
; Function compile flags: /Ogtp
; File c:\users\andon\source\repos\specialk\src\imgui\imgui_demo.cpp
; File c:\users\andon\source\repos\specialk\include\imgui\imgui.h
; File c:\users\andon\source\repos\specialk\src\imgui\imgui_demo.cpp
; File c:\users\andon\source\repos\specialk\include\imgui\imgui.h
; File c:\users\andon\source\repos\specialk\src\imgui\imgui_demo.cpp
;	COMDAT ?Step@CustomConstraints@?1??ShowExampleAppConstrainedResize@@YAXPA_N@Z@SAXPAUImGuiSizeConstraintCallbackData@@@Z
_TEXT	SEGMENT
$T1 = -8						; size = 8
_data$ = 8						; size = 4
?Step@CustomConstraints@?1??ShowExampleAppConstrainedResize@@YAXPA_N@Z@SAXPAUImGuiSizeConstraintCallbackData@@@Z PROC ; `ShowExampleAppConstrainedResize'::`2'::CustomConstraints::Step, COMDAT

; 1937 :         static void Step(ImGuiSizeConstraintCallbackData* data)   { float step = (float)(int)(intptr_t)data->UserData; data->DesiredSize = ImVec2((int)(data->DesiredSize.x / step + 0.5f) * step, (int)(data->DesiredSize.y / step + 0.5f) * step); }

	npad	2
	push	ebp
	mov	ebp, esp
	sub	esp, 8
	mov	ecx, DWORD PTR _data$[ebp]
	movss	xmm2, DWORD PTR __real@3f800000
	movd	xmm3, DWORD PTR [ecx]
	cvtdq2ps xmm3, xmm3
	movss	xmm0, DWORD PTR [ecx+20]
	divss	xmm2, xmm3
	mulss	xmm0, xmm2
	addss	xmm0, DWORD PTR __real@3f000000
	cvttss2si eax, xmm0
	movd	xmm0, eax
	cvtdq2ps xmm0, xmm0
	mulss	xmm0, xmm3
; File c:\users\andon\source\repos\specialk\include\imgui\imgui.h

; 98   :     ImVec2(float _x, float _y) { x = _x; y = _y; }

	movss	DWORD PTR $T1[ebp], xmm0
; File c:\users\andon\source\repos\specialk\src\imgui\imgui_demo.cpp

; 1937 :         static void Step(ImGuiSizeConstraintCallbackData* data)   { float step = (float)(int)(intptr_t)data->UserData; data->DesiredSize = ImVec2((int)(data->DesiredSize.x / step + 0.5f) * step, (int)(data->DesiredSize.y / step + 0.5f) * step); }

	movss	xmm0, DWORD PTR [ecx+24]
	mulss	xmm0, xmm2
	addss	xmm0, DWORD PTR __real@3f000000
	cvttss2si eax, xmm0
	movd	xmm0, eax
	mov	eax, DWORD PTR $T1[ebp]
	cvtdq2ps xmm0, xmm0
	mov	DWORD PTR [ecx+20], eax
	mulss	xmm0, xmm3
; File c:\users\andon\source\repos\specialk\include\imgui\imgui.h

; 98   :     ImVec2(float _x, float _y) { x = _x; y = _y; }

	movss	DWORD PTR $T1[ebp+4], xmm0
; File c:\users\andon\source\repos\specialk\src\imgui\imgui_demo.cpp

; 1937 :         static void Step(ImGuiSizeConstraintCallbackData* data)   { float step = (float)(int)(intptr_t)data->UserData; data->DesiredSize = ImVec2((int)(data->DesiredSize.x / step + 0.5f) * step, (int)(data->DesiredSize.y / step + 0.5f) * step); }

	mov	eax, DWORD PTR $T1[ebp+4]
	mov	DWORD PTR [ecx+24], eax
	mov	esp, ebp
	pop	ebp
	ret	0
?Step@CustomConstraints@?1??ShowExampleAppConstrainedResize@@YAXPA_N@Z@SAXPAUImGuiSizeConstraintCallbackData@@@Z ENDP ; `ShowExampleAppConstrainedResize'::`2'::CustomConstraints::Step
_TEXT	ENDS
; Function compile flags: /Ogtp
; File c:\users\andon\source\repos\specialk\src\imgui\imgui_demo.cpp
; File c:\users\andon\source\repos\specialk\include\imgui\imgui.h
; File c:\users\andon\source\repos\specialk\src\imgui\imgui_demo.cpp
; File c:\users\andon\source\repos\specialk\include\imgui\imgui.h
; File c:\users\andon\source\repos\specialk\src\imgui\imgui_demo.cpp
;	COMDAT ?Square@CustomConstraints@?1??ShowExampleAppConstrainedResize@@YAXPA_N@Z@SAXPAUImGuiSizeConstraintCallbackData@@@Z
_TEXT	SEGMENT
$T1 = -8						; size = 8
_data$ = 8						; size = 4
?Square@CustomConstraints@?1??ShowExampleAppConstrainedResize@@YAXPA_N@Z@SAXPAUImGuiSizeConstraintCallbackData@@@Z PROC ; `ShowExampleAppConstrainedResize'::`2'::CustomConstraints::Square, COMDAT

; 1936 :         static void Square(ImGuiSizeConstraintCallbackData* data) { data->DesiredSize = ImVec2(IM_MAX(data->DesiredSize.x, data->DesiredSize.y), IM_MAX(data->DesiredSize.x, data->DesiredSize.y)); }

	npad	2
	push	ebp
	mov	ebp, esp
	sub	esp, 8
	mov	ecx, DWORD PTR _data$[ebp]
	movss	xmm0, DWORD PTR [ecx+24]
	maxss	xmm0, DWORD PTR [ecx+20]
; File c:\users\andon\source\repos\specialk\include\imgui\imgui.h

; 98   :     ImVec2(float _x, float _y) { x = _x; y = _y; }

	movss	DWORD PTR $T1[ebp], xmm0
; File c:\users\andon\source\repos\specialk\src\imgui\imgui_demo.cpp

; 1936 :         static void Square(ImGuiSizeConstraintCallbackData* data) { data->DesiredSize = ImVec2(IM_MAX(data->DesiredSize.x, data->DesiredSize.y), IM_MAX(data->DesiredSize.x, data->DesiredSize.y)); }

	mov	eax, DWORD PTR $T1[ebp]
; File c:\users\andon\source\repos\specialk\include\imgui\imgui.h

; 98   :     ImVec2(float _x, float _y) { x = _x; y = _y; }

	movss	DWORD PTR $T1[ebp+4], xmm0
; File c:\users\andon\source\repos\specialk\src\imgui\imgui_demo.cpp

; 1936 :         static void Square(ImGuiSizeConstraintCallbackData* data) { data->DesiredSize = ImVec2(IM_MAX(data->DesiredSize.x, data->DesiredSize.y), IM_MAX(data->DesiredSize.x, data->DesiredSize.y)); }

	mov	DWORD PTR [ecx+20], eax
	mov	eax, DWORD PTR $T1[ebp+4]
	mov	DWORD PTR [ecx+24], eax
	mov	esp, ebp
	pop	ebp
	ret	0
?Square@CustomConstraints@?1??ShowExampleAppConstrainedResize@@YAXPA_N@Z@SAXPAUImGuiSizeConstraintCallbackData@@@Z ENDP ; `ShowExampleAppConstrainedResize'::`2'::CustomConstraints::Square
_TEXT	ENDS
; Function compile flags: /Ogtp
; File c:\users\andon\source\repos\specialk\include\imgui\imgui.h
;	COMDAT ??__Ffilter@?BE@??ShowStyleEditor@ImGui@@YAXPAUImGuiStyle@@@Z@YAXXZ
text$yd	SEGMENT
__$EHRec$ = -12						; size = 12
??__Ffilter@?BE@??ShowStyleEditor@ImGui@@YAXPAUImGuiStyle@@@Z@YAXXZ PROC ; `ImGui::ShowStyleEditor'::`20'::`dynamic atexit destructor for 'filter'', COMDAT
	npad	2
	push	ebp
	mov	ebp, esp
	mov	eax, DWORD PTR fs:0
	push	-1
	push	__ehhandler$??__Ffilter@?BE@??ShowStyleEditor@ImGui@@YAXPAUImGuiStyle@@@Z@YAXXZ
	push	eax
	mov	DWORD PTR fs:0, esp

; 906  :     ~ImVector()                 { if (Data) ImGui::MemFree(Data); }

	mov	eax, DWORD PTR ?filter@?BE@??ShowStyleEditor@ImGui@@YAXPAUImGuiStyle@@@Z@4UImGuiTextFilter@@A+264
	mov	DWORD PTR __$EHRec$[ebp+8], 0
	test	eax, eax
	je	SHORT $LN7@dynamic
	push	eax
	call	?MemFree@ImGui@@YAXPAX@Z		; ImGui::MemFree
	add	esp, 4
$LN7@dynamic:
	mov	ecx, DWORD PTR __$EHRec$[ebp]
	mov	DWORD PTR fs:0, ecx
	mov	esp, ebp
	pop	ebp
	ret	0
text$yd	ENDS
;	COMDAT text$x
text$x	SEGMENT
__ehhandler$??__Ffilter@?BE@??ShowStyleEditor@ImGui@@YAXPAUImGuiStyle@@@Z@YAXXZ:
	mov	eax, OFFSET __ehfuncinfo$??__Ffilter@?BE@??ShowStyleEditor@ImGui@@YAXPAUImGuiStyle@@@Z@YAXXZ
	jmp	___CxxFrameHandler3
text$x	ENDS
??__Ffilter@?BE@??ShowStyleEditor@ImGui@@YAXPAUImGuiStyle@@@Z@YAXXZ ENDP ; `ImGui::ShowStyleEditor'::`20'::`dynamic atexit destructor for 'filter''
; Function compile flags: /Ogtp
; File c:\users\andon\source\repos\specialk\include\imgui\imgui.h
;	COMDAT ??__Ffilter@?BOD@??ShowTestWindow@ImGui@@YAXPA_N@Z@YAXXZ
text$yd	SEGMENT
__$EHRec$ = -12						; size = 12
??__Ffilter@?BOD@??ShowTestWindow@ImGui@@YAXPA_N@Z@YAXXZ PROC ; `ImGui::ShowTestWindow'::`483'::`dynamic atexit destructor for 'filter'', COMDAT
	npad	2
	push	ebp
	mov	ebp, esp
	mov	eax, DWORD PTR fs:0
	push	-1
	push	__ehhandler$??__Ffilter@?BOD@??ShowTestWindow@ImGui@@YAXPA_N@Z@YAXXZ
	push	eax
	mov	DWORD PTR fs:0, esp

; 906  :     ~ImVector()                 { if (Data) ImGui::MemFree(Data); }

	mov	eax, DWORD PTR ?filter@?BOD@??ShowTestWindow@ImGui@@YAXPA_N@Z@4UImGuiTextFilter@@A+264
	mov	DWORD PTR __$EHRec$[ebp+8], 0
	test	eax, eax
	je	SHORT $LN7@dynamic
	push	eax
	call	?MemFree@ImGui@@YAXPAX@Z		; ImGui::MemFree
	add	esp, 4
$LN7@dynamic:
	mov	ecx, DWORD PTR __$EHRec$[ebp]
	mov	DWORD PTR fs:0, ecx
	mov	esp, ebp
	pop	ebp
	ret	0
text$yd	ENDS
;	COMDAT text$x
text$x	SEGMENT
__ehhandler$??__Ffilter@?BOD@??ShowTestWindow@ImGui@@YAXPA_N@Z@YAXXZ:
	mov	eax, OFFSET __ehfuncinfo$??__Ffilter@?BOD@??ShowTestWindow@ImGui@@YAXPA_N@Z@YAXXZ
	jmp	___CxxFrameHandler3
text$x	ENDS
??__Ffilter@?BOD@??ShowTestWindow@ImGui@@YAXPA_N@Z@YAXXZ ENDP ; `ImGui::ShowTestWindow'::`483'::`dynamic atexit destructor for 'filter''
; Function compile flags: /Ogtp
; File c:\users\andon\source\repos\specialk\src\imgui\imgui_demo.cpp
;	COMDAT ?Saw@Funcs@?PM@??ShowTestWindow@ImGui@@YAXPA_N@Z@SAMPAXH@Z
_TEXT	SEGMENT
___formal$ = 8						; size = 4
tv66 = 12						; size = 4
_i$ = 12						; size = 4
?Saw@Funcs@?PM@??ShowTestWindow@ImGui@@YAXPA_N@Z@SAMPAXH@Z PROC ; `ImGui::ShowTestWindow'::`252'::Funcs::Saw, COMDAT

; 802  :             static float Saw(void*, int i) { return (i & 1) ? 1.0f : -1.0f; }

	npad	2
	push	ebp
	mov	ebp, esp
	test	BYTE PTR _i$[ebp], 1
	mov	DWORD PTR tv66[ebp], 1065353216		; 3f800000H
	jne	SHORT $LN5@Saw
	mov	DWORD PTR tv66[ebp], -1082130432	; bf800000H
$LN5@Saw:
	fld	DWORD PTR tv66[ebp]
	pop	ebp
	ret	0
?Saw@Funcs@?PM@??ShowTestWindow@ImGui@@YAXPA_N@Z@SAMPAXH@Z ENDP ; `ImGui::ShowTestWindow'::`252'::Funcs::Saw
_TEXT	ENDS
; Function compile flags: /Ogtp
; File c:\users\andon\source\repos\specialk\src\imgui\imgui_demo.cpp
; File c:\program files (x86)\windows kits\10\include\10.0.10240.0\ucrt\math.h
; File c:\users\andon\source\repos\specialk\src\imgui\imgui_demo.cpp
;	COMDAT ?Sin@Funcs@?PM@??ShowTestWindow@ImGui@@YAXPA_N@Z@SAMPAXH@Z
_TEXT	SEGMENT
___formal$ = 8						; size = 4
tv69 = 12						; size = 4
_i$ = 12						; size = 4
?Sin@Funcs@?PM@??ShowTestWindow@ImGui@@YAXPA_N@Z@SAMPAXH@Z PROC ; `ImGui::ShowTestWindow'::`252'::Funcs::Sin, COMDAT

; 801  :             static float Sin(void*, int i) { return sinf(i * 0.1f); }

	npad	2
	push	ebp
	mov	ebp, esp
	movd	xmm0, DWORD PTR _i$[ebp]
	cvtdq2ps xmm0, xmm0
	mulss	xmm0, DWORD PTR __real@3dcccccd
; File c:\program files (x86)\windows kits\10\include\10.0.10240.0\ucrt\math.h

; 736  :         return (float)sin(_X);

	call	___libm_sse2_sinf
	movss	DWORD PTR tv69[ebp], xmm0
; File c:\users\andon\source\repos\specialk\src\imgui\imgui_demo.cpp

; 801  :             static float Sin(void*, int i) { return sinf(i * 0.1f); }

	fld	DWORD PTR tv69[ebp]
	pop	ebp
	ret	0
?Sin@Funcs@?PM@??ShowTestWindow@ImGui@@YAXPA_N@Z@SAMPAXH@Z ENDP ; `ImGui::ShowTestWindow'::`252'::Funcs::Sin
_TEXT	ENDS
; Function compile flags: /Ogtp
; File c:\users\andon\source\repos\specialk\src\imgui\imgui_demo.cpp
;	COMDAT ?FilterImGuiLetters@TextFilters@?MK@??ShowTestWindow@ImGui@@YAXPA_N@Z@SAHPAUImGuiTextEditCallbackData@@@Z
_TEXT	SEGMENT
_data$ = 8						; size = 4
?FilterImGuiLetters@TextFilters@?MK@??ShowTestWindow@ImGui@@YAXPA_N@Z@SAHPAUImGuiTextEditCallbackData@@@Z PROC ; `ImGui::ShowTestWindow'::`202'::TextFilters::FilterImGuiLetters, COMDAT

; 501  :             struct TextFilters { static int FilterImGuiLetters(ImGuiTextEditCallbackData* data) { if (data->EventChar < 256 && strchr("imgui", (char)data->EventChar)) return 0; return 1; } };

	npad	2
	push	ebp
	mov	ebp, esp
	mov	eax, DWORD PTR _data$[ebp]
	mov	ecx, 256				; 00000100H
	cmp	WORD PTR [eax+14], cx
	jae	SHORT $LN2@FilterImGu
	movsx	eax, BYTE PTR [eax+14]
	push	eax
	push	OFFSET ??_C@_05EAJAAGNN@imgui?$AA@
	call	DWORD PTR __imp__strchr
	add	esp, 8
	test	eax, eax
	je	SHORT $LN2@FilterImGu
	xor	eax, eax
	pop	ebp
	ret	0
$LN2@FilterImGu:
	mov	eax, 1
	pop	ebp
	ret	0
?FilterImGuiLetters@TextFilters@?MK@??ShowTestWindow@ImGui@@YAXPA_N@Z@SAHPAUImGuiTextEditCallbackData@@@Z ENDP ; `ImGui::ShowTestWindow'::`202'::TextFilters::FilterImGuiLetters
_TEXT	ENDS
; Function compile flags: /Ogtp
; File c:\users\andon\source\repos\specialk\src\imgui\imgui_demo.cpp
_TEXT	SEGMENT
_desc$ = 8						; size = 4
?ShowHelpMarker@@YAXPBD@Z PROC				; ShowHelpMarker

; 76   : {

	npad	2
	push	ebp
	mov	ebp, esp

; 77   :     ImGui::TextDisabled("(?)");

	push	OFFSET $SG10305
	call	?TextDisabled@ImGui@@YAXPBDZZ		; ImGui::TextDisabled
	add	esp, 4

; 78   :     if (ImGui::IsItemHovered())

	call	?IsItemHovered@ImGui@@YA_NXZ		; ImGui::IsItemHovered
	test	al, al
	je	SHORT $LN2@ShowHelpMa

; 79   :     {
; 80   :         ImGui::BeginTooltip();

	call	?BeginTooltip@ImGui@@YAXXZ		; ImGui::BeginTooltip

; 81   :         ImGui::PushTextWrapPos(450.0f);

	push	ecx
	mov	DWORD PTR [esp], 1138819072		; 43e10000H
	call	?PushTextWrapPos@ImGui@@YAXM@Z		; ImGui::PushTextWrapPos

; 82   :         ImGui::TextUnformatted(desc);

	push	0
	push	DWORD PTR _desc$[ebp]
	call	?TextUnformatted@ImGui@@YAXPBD0@Z	; ImGui::TextUnformatted
	add	esp, 12					; 0000000cH

; 83   :         ImGui::PopTextWrapPos();

	call	?PopTextWrapPos@ImGui@@YAXXZ		; ImGui::PopTextWrapPos

; 85   :     }
; 86   : }

	pop	ebp

; 84   :         ImGui::EndTooltip();

	jmp	?EndTooltip@ImGui@@YAXXZ		; ImGui::EndTooltip
$LN2@ShowHelpMa:

; 85   :     }
; 86   : }

	pop	ebp
	ret	0
?ShowHelpMarker@@YAXPBD@Z ENDP				; ShowHelpMarker
_TEXT	ENDS
; Function compile flags: /Ogtp
; File c:\users\andon\source\repos\specialk\src\imgui\imgui_demo.cpp
; File c:\users\andon\source\repos\specialk\include\imgui\imgui.h
; File c:\users\andon\source\repos\specialk\src\imgui\imgui_demo.cpp
; File c:\users\andon\source\repos\specialk\include\imgui\imgui.h
; File c:\users\andon\source\repos\specialk\src\imgui\imgui_demo.cpp
_TEXT	SEGMENT
$T1 = -8						; size = 8
?ShowExampleMenuFile@@YAXXZ PROC			; ShowExampleMenuFile

; 1858 : {

	npad	2
	push	ebp
	mov	ebp, esp
	sub	esp, 8

; 1859 :     ImGui::MenuItem("(dummy menu)", NULL, false, false);

	push	0
	push	0
	push	0
	push	OFFSET $SG12148
	call	?MenuItem@ImGui@@YA_NPBD0_N1@Z		; ImGui::MenuItem

; 1860 :     if (ImGui::MenuItem("New")) {}

	push	1
	push	0
	push	0
	push	OFFSET $SG12150
	call	?MenuItem@ImGui@@YA_NPBD0_N1@Z		; ImGui::MenuItem

; 1861 :     if (ImGui::MenuItem("Open", "Ctrl+O")) {}

	push	1
	push	0
	push	OFFSET $SG12152
	push	OFFSET $SG12153
	call	?MenuItem@ImGui@@YA_NPBD0_N1@Z		; ImGui::MenuItem

; 1862 :     if (ImGui::BeginMenu("Open Recent"))

	push	1
	push	OFFSET $SG12155
	call	?BeginMenu@ImGui@@YA_NPBD_N@Z		; ImGui::BeginMenu
	add	esp, 56					; 00000038H
	test	al, al
	je	$LN10@ShowExampl

; 1863 :     {
; 1864 :         ImGui::MenuItem("fish_hat.c");

	push	1
	push	0
	push	0
	push	OFFSET $SG12156
	call	?MenuItem@ImGui@@YA_NPBD0_N1@Z		; ImGui::MenuItem

; 1865 :         ImGui::MenuItem("fish_hat.inl");

	push	1
	push	0
	push	0
	push	OFFSET $SG12157
	call	?MenuItem@ImGui@@YA_NPBD0_N1@Z		; ImGui::MenuItem

; 1866 :         ImGui::MenuItem("fish_hat.h");

	push	1
	push	0
	push	0
	push	OFFSET $SG12158
	call	?MenuItem@ImGui@@YA_NPBD0_N1@Z		; ImGui::MenuItem

; 1867 :         if (ImGui::BeginMenu("More.."))

	push	1
	push	OFFSET $SG12160
	call	?BeginMenu@ImGui@@YA_NPBD_N@Z		; ImGui::BeginMenu
	add	esp, 56					; 00000038H
	test	al, al
	je	SHORT $LN11@ShowExampl

; 1868 :         {
; 1869 :             ImGui::MenuItem("Hello");

	push	1
	push	0
	push	0
	push	OFFSET $SG12161
	call	?MenuItem@ImGui@@YA_NPBD0_N1@Z		; ImGui::MenuItem

; 1870 :             ImGui::MenuItem("Sailor");

	push	1
	push	0
	push	0
	push	OFFSET $SG12162
	call	?MenuItem@ImGui@@YA_NPBD0_N1@Z		; ImGui::MenuItem

; 1871 :             if (ImGui::BeginMenu("Recurse.."))

	push	1
	push	OFFSET $SG12164
	call	?BeginMenu@ImGui@@YA_NPBD_N@Z		; ImGui::BeginMenu
	add	esp, 40					; 00000028H
	test	al, al
	je	SHORT $LN12@ShowExampl

; 1872 :             {
; 1873 :                 ShowExampleMenuFile();

	call	?ShowExampleMenuFile@@YAXXZ		; ShowExampleMenuFile

; 1874 :                 ImGui::EndMenu();

	call	?EndMenu@ImGui@@YAXXZ			; ImGui::EndMenu
$LN12@ShowExampl:

; 1875 :             }
; 1876 :             ImGui::EndMenu();

	call	?EndMenu@ImGui@@YAXXZ			; ImGui::EndMenu
$LN11@ShowExampl:

; 1877 :         }
; 1878 :         ImGui::EndMenu();

	call	?EndMenu@ImGui@@YAXXZ			; ImGui::EndMenu
$LN10@ShowExampl:
	push	esi

; 1879 :     }
; 1880 :     if (ImGui::MenuItem("Save", "Ctrl+S")) {}

	push	1
	push	0
	push	OFFSET $SG12166
	push	OFFSET $SG12167
	call	?MenuItem@ImGui@@YA_NPBD0_N1@Z		; ImGui::MenuItem

; 1881 :     if (ImGui::MenuItem("Save As..")) {}

	push	1
	push	0
	push	0
	push	OFFSET $SG12169
	call	?MenuItem@ImGui@@YA_NPBD0_N1@Z		; ImGui::MenuItem

; 1882 :     ImGui::Separator();

	call	?Separator@ImGui@@YAXXZ			; ImGui::Separator

; 1883 :     if (ImGui::BeginMenu("Options"))

	push	1
	push	OFFSET $SG12171
	call	?BeginMenu@ImGui@@YA_NPBD_N@Z		; ImGui::BeginMenu
	add	esp, 40					; 00000028H
	test	al, al
	je	$LN15@ShowExampl

; 1884 :     {
; 1885 :         static bool enabled = true;
; 1886 :         ImGui::MenuItem("Enabled", "", &enabled);

	push	1
	push	OFFSET ?enabled@?BK@??ShowExampleMenuFile@@YAXXZ@4_NA
	push	OFFSET $SG12172
	push	OFFSET $SG12173
	call	?MenuItem@ImGui@@YA_NPBD0PA_N_N@Z	; ImGui::MenuItem

; 1887 :         ImGui::BeginChild("child", ImVec2(0, 60), true);

	push	0
	push	1
	lea	eax, DWORD PTR $T1[ebp]
; File c:\users\andon\source\repos\specialk\include\imgui\imgui.h

; 98   :     ImVec2(float _x, float _y) { x = _x; y = _y; }

	mov	DWORD PTR $T1[ebp], 0
; File c:\users\andon\source\repos\specialk\src\imgui\imgui_demo.cpp

; 1887 :         ImGui::BeginChild("child", ImVec2(0, 60), true);

	push	eax
	push	OFFSET $SG12174
; File c:\users\andon\source\repos\specialk\include\imgui\imgui.h

; 98   :     ImVec2(float _x, float _y) { x = _x; y = _y; }

	mov	DWORD PTR $T1[ebp+4], 1114636288	; 42700000H
; File c:\users\andon\source\repos\specialk\src\imgui\imgui_demo.cpp

; 1887 :         ImGui::BeginChild("child", ImVec2(0, 60), true);

	call	?BeginChild@ImGui@@YA_NPBDABUImVec2@@_NH@Z ; ImGui::BeginChild
	add	esp, 32					; 00000020H

; 1888 :         for (int i = 0; i < 10; i++)

	xor	esi, esi
	npad	9
$LL4@ShowExampl:

; 1889 :             ImGui::Text("Scrolling Text %d", i);

	push	esi
	push	OFFSET $SG12175
	call	?Text@ImGui@@YAXPBDZZ			; ImGui::Text
	inc	esi
	add	esp, 8
	cmp	esi, 10					; 0000000aH
	jl	SHORT $LL4@ShowExampl

; 1890 :         ImGui::EndChild();

	call	?EndChild@ImGui@@YAXXZ			; ImGui::EndChild

