; Listing generated by Microsoft (R) Optimizing Compiler Version 19.10.25019.0 

	TITLE	C:\Users\andon\Source\Repos\SpecialK\src\imgui\imgui_draw.cpp
	.686P
	.XMM
	include listing.inc
	.model	flat

INCLUDELIB MSVCRT
INCLUDELIB OLDNAMES

CONST	SEGMENT
$SG14850 DB	'name', 00H
	ORG $+3
$SG15910 DB	'ProggyClean.ttf, 13px', 00H
	ORG $+2
$SG14903 DB	'head', 00H
	ORG $+3
$SG14905 DB	'name', 00H
	ORG $+3
$SG15931 DB	'rb', 00H
	ORG $+1
$SG15934 DB	'%s, %.0fpx', 00H
	ORG $+1
$SG128600 DB	'[', 00H, 'I', 00H, 'm', 00H, 'G', 00H, 'u', 00H, 'i', 00H
	DB	' ', 00H, 'F', 00H, 'o', 00H, 'n', 00H, 't', 00H, ']', 00H, ' '
	DB	00H, 'U', 00H, 'n', 00H, 'p', 00H, 'r', 00H, 'i', 00H, 'n', 00H
	DB	't', 00H, 'a', 00H, 'b', 00H, 'l', 00H, 'e', 00H, ' ', 00H, 'C'
	DB	00H, 'h', 00H, 'a', 00H, 'r', 00H, 'a', 00H, 'c', 00H, 't', 00H
	DB	'e', 00H, 'r', 00H, ':', 00H, ' ', 00H, '''', 00H, '%', 00H, 'w'
	DB	00H, 'c', 00H, '''', 00H, ' ', 00H, '(', 00H, 'U', 00H, '+', 00H
	DB	'%', 00H, 'l', 00H, 'x', 00H, ')', 00H, 00H, 00H
$SG12965 DB	'typ1', 00H
	ORG $+3
$SG12966 DB	'typ1', 00H
	ORG $+3
$SG12967 DB	'typ1', 00H
	ORG $+3
$SG12968 DB	'typ1', 00H
	ORG $+3
$SG12970 DB	'OTTO', 00H
	ORG $+3
$SG12971 DB	'OTTO', 00H
	ORG $+3
$SG12972 DB	'OTTO', 00H
	ORG $+3
$SG12973 DB	'OTTO', 00H
	ORG $+3
$SG12976 DB	'true', 00H
	ORG $+3
$SG12977 DB	'true', 00H
	ORG $+3
$SG12978 DB	'true', 00H
	ORG $+3
$SG12979 DB	'true', 00H
	ORG $+7
?proggy_clean_ttf_compressed_data_base85@@3QBDB DB '7])#######hV0qs''/###'
	DB	'[),##/l:$#Q6>##5[n42>c-TH`->>#/e>11NNV=Bv(*:.F?uu#(gRU.o0XGH`'
	DB	'$vhLG1hxt9?W`#,5LsCp#-i>.r$<$6pD>Lb'';9Crc6tgXmKVeU2cD4Eo3R/2'
	DB	'*>]b(MC;$jPfY.;h^`IWM9<Lh2TlS+f-s$o6Q<BWH`YiU.xfLq$N;$0iR/GX:'
	DB	'U(jcW2p/W*q?-qmnUCI;jHSAiFWM.R*kU@C=GH?a9wp8f$e.-4^Qg1)Q-GL(l'
	DB	'f(r/7GrRgwV%MS=C#`8ND>Qo#t''X#(v#Y9w0#1D$CIf;W''#pWUPXOuxXuU('
	DB	'H9M(1<q-UE31#^-V''8IRUo7Qf./L>=Ke$$''5F%)]0^#0X@U.a<r:QLtFsLc'
	DB	'L6##lOj)#.Y5<-R&KgLwqJfLgN&;Q?gI^#DY2uLi@^rMl9t=cWq6##weg>$FB'
	DB	'jVQTSDgEKnIS7EM9>ZY9w0#L;>>#Mx&4Mvt//L[MkA#W@lK.N''[0#7RL_&#w'
	DB	'+F%HtG9M#XL`N&.,GM4Pg;-<nLENhvx>-VsM.M0rJfLH2eTM`*oJMHRC`Nkfi'
	DB	'mM2J,W-jXS:)r0wK#@Fge$U>`w''N7G#$#fB#$E^$#:9:hk+eOe--6x)F7*E%'
	DB	'?76%^GMHePW-Z5l''&GiF#$956:rS?dA#fiK:)Yr+`&#0j@''DbG&#^$PG.Ll'
	DB	'+DNa<XCMKEV*N)LN/N*b=%Q6pia-Xg8I$<MR&,VdJe$<(7G;Ckl''&hF;;$<_'
	DB	'=X(b.RS%%)###MPBuuE1V:v&cX&#2m#(&cV]`k9OhLMbn%s$G2,B$BfD3X*sp'
	DB	'5#l,$R#]x_X1xKX%b5U*[r5iMfUo9U`N99hG)tm+/Us9pG)XPu`<0s-)WTt(g'
	DB	'CRxIg(%6sfh=ktMKn3j)<6<b5Sk_/0(^]AaN#(p/L>&VZ>1i%h1S9u5o@YaaW'
	DB	'$e+b<TWFn/Z:Oh(Cx2$lNEoN^e)#CFY@@I;BOQ*sRwZtZxRcU7uW6CXow0i(?'
	DB	'$Q[cjOd[P4d)]>ROPOpxTO7Stwi1::iB1q)C_=dV26J;2,]7op$]uQr@_V7$q'
	DB	'^%lQwtuHY]=DX,n3L#0PHDO4f9>dC@O>HBuKPpP*E,N+b3L#lpR/MrTEH.IAQ'
	DB	'k.a>D[.e;mc.x]Ip.PH^''/aqUO/$1WxLoW0[iLA<QT;5HKD+@qQ''NQ(3_PL'
	DB	'hE48R.qAPSwQ0/WK?Z,[x?-J;jQTWA0X@KJ(_Y8N-:/M74:/-ZpKrUss?d#dZ'
	DB	'q]DAbkU*JqkL+nwX@@47`5>w=4h(9.`GCRUxHPeR`5Mjol(dUWxZa(>STrPkr'
	DB	'JiWx`5U7F#.g*jrohGg`cg:lSTvEY/EV_7H4Q9[Z%cnv;JQYZ5q.l7Zeas:HO'
	DB	'IZOB?G<Nald$qs]@]L<J7bR*>gv:[7MI2k).''2($5FNP&EQ(,)U]W]+fh18.'
	DB	'vsai00);D3@4ku5P?DP8aJt+;qUM]=+b''8@;mViBKx0DE[-auGl8:PJ&Dj+M'
	DB	'6OC]O^((##]`0i)drT;-7X`=-H3[igUnPG-NZlo.#k@h#=Ork$m>a>$-?Tm$U'
	DB	'V(?#P6YY#''/###xe7q.73rI3*pP/$1>s9)W,JrM7SN]''/4C#v$U`0#V.[0>'
	DB	'xQsH$fEmPMgY2u7Kh(G%siIfLSoS+MK2eTM$=5,M8p`A.;_R%#u[K#$x4AG8.'
	DB	'kK/HSB==-''Ie/QTtG?-.*^N-4B/ZM_3YlQC7(p7q)&](`6_c)$/*JL(L-^(]'
	DB	'$wIM`dPtOdGA,U3:w2M-0<q-]L_?^)1vw''.,MRsqVr.L;aN&#/EgJ)PBc[-f'
	DB	'>+WomX2u7lqM2iEumMTcsF?-aT=Z-97UEnXglEn1K-bnEO`guFt(c%=;Am_Qs'
	DB	'@jLooI&NX;]0#j4#F14;gl8-GQpgwhrq8''=l_f-b49''UOqkLu7-##oDY2L('
	DB	'te+Mch&gLYtJ,MEtJfLh''x''M=$CS-ZZ%P]8bZ>#S?YY#%Q&q''3^Fw&?D)U'
	DB	'DNrocM3A76//oL?#h7gl85[qW/NDOk%16ij;+:1a''iNIdb-ou8.P*w,v5#EI'
	DB	'$TWS>Pot-R*H''-SEpA:g)f+O$%%`kA#G=8RMmG1&O`>to8bC]T&$,n.LoO>2'
	DB	'9sp3dt-52U%VM#q7''DHpg+#Z9%H[K<L%a2E-grWVM3@2=-k22tL]4$##6We'''
	DB	'8UJCKE[d_=%wI;''6X-GsLX4j^SgJ$##R*w,vP3wK#iiW&#*h^D&R?jp7+/u&'
	DB	'#(AP##XU8c$fSYW-J95_-Dp[g9wcO&#M-h1OcJlc-*vpw0xUX&#OQFKNX@QI'''
	DB	'IoPp7nb,QU//MQ&ZDkKP)X<WSVL(68uVl&#c''[0#(s1X&xm$Y%B7*K:eDA32'
	DB	'3j998GXbA#pwMs-jgD$9QISB-A_(aN4xoFM^@C58D0+Q+q3n0#3U1InDjF682'
	DB	'-SjMXJK)(h$hxua_K]ul92%''BOU&#BRRh-slg8KDlr:%L71Ka:.A;%YULjDP'
	DB	'mL<LYs8i#XwJOYaKPKc1h:''9Ke,g)b),78=I39B;xiY$bgGw-&.Zi9InXDuY'
	DB	'a%G*f2Bq7mn9^#p1vv%#(Wi-;/Z5ho;#2:;%d&#x9v68C5g?ntX0X)pT`;%pB'
	DB	'3q7mgGN)3%(P8nTd5L7GeA-GL@+%J3u2:(Yf>et`e;)f#Km8&+DC$I46>#Kr]'
	DB	']u-[=99tts1.qb#q72g1WJO81q+eN''03''eM>&1XxY-caEnOj%2n8)),?ILR'
	DB	'5^.Ibn<-X-Mq7[a82Lq:F&#ce+S9wsCK*x`569E8ew''He]h:sI[2LM$[guka'
	DB	'3ZRd6:t%IG:;$%YiJ:Nq=?eAw;/:nnDq0(CYcMpG)qLN4$##&J<j$UpK<Q4a1'
	DB	']MupW^-sj_$%[HK%''F####QRZJ::Y3EGl4''@%FkiAOg#p[##O`gukTfBHag'
	DB	'L<LHw%q&OV0##F=6/:chIm0@eCP8X]:kFI%hl8hgO@RcBhS-@Qb$%+m=hPDLg'
	DB	'*%K8ln(wcf3/''DW-$.lR?n[nCH-eXOONTJlh:.RYF%3''p6sq:UIMA945&^H'
	DB	'FS87@$EP2iG<-lCO$%c`uKGD3rC$x0BL8aFn--`ke%#HMP''vh1/R&O_J9''u'
	DB	'm,.<tx[@%wsJk&bUT2`0uMv7gg#qp/ij.L56''hl;.s5CUrxjOM7-##.l+Au'''
	DB	'A&O:-T72L]P`&=;ctp''XScX*rU.>-XTt,%OVU4)S1+R-#dg0/Nn?Ku1^0f$B'
	DB	'*P:Rowwm-`0PKjYDDM''3]d39VZHEl4,.j'']Pk-M.h^&:0FACm$maq-&sgw0'
	DB	't7/6(^xtk%LuH88Fj-ekm>GA#_>568x6(OFRl-IZp`&b,_P''$M<Jnq79VsJW'
	DB	'/mWS*PUiq76;]/NM_>hLbxfc$mj`,O;&%W2m`Zh:/)Uetw:aJ%]K9h:TcF]u_'
	DB	'-Sj9,VK3M.*''&0D[Ca]J9gp8,kAW]%(?A%R$f<->Zts''^kn=-^@c4%-pY6q'
	DB	'I%J%1IGxfLU9CP8cbPlXv);C=b),<2mOvP8up,UVf3839acAWAW-W?#ao/^#%'
	DB	'KYo8fRULNd2.>%m]UK:n%r$''sw]J;5pAoO_#2mO3n,''=H5(etHg*`+RLgv>'
	DB	'=4U8guD$I%D:W>-r5V*%j*W:Kvej.Lp$<M-SGZ'':+Q_k+uvOSLiEo(<aD/K<'
	DB	'CCc`''Lx>''?;++O''>()jLR-^u68PHm8ZFWe+ej8h:9r6L*0//c&iH&R8pRb'
	DB	'A#Kjm%upV1g:a_#Ur7FuA#(tRh#.Y5K+@?3<-8m0$PEn;J:rh6?I6uG<-`wMU'
	DB	'''ircp0LaE_OtlMb&1#6T.#FDKu#1Lw%u%+GM+X''e?YLfjM[VO0MbuFp7;>Q'
	DB	'&#WIo)0@F%q7c#4XAXN-U&VB<HFF*qL($/V,;(kXZejWO`<[5??ewY(*9=%wD'
	DB	'c;,u<''9t3W-(H1th3+G]ucQ]kLs7df($/*JL]@*t7Bu_G3_7mp7<iaQjO@.k'
	DB	'Lg;x3B0lqp7Hf,^Ze7-##@/c58Mo(3;knp0%)A7?-W+eI''o8)b<nKnw''Ho8'
	DB	'C=Y>pqB>0ie&jhZ[?iLR@@_AvA-iQC(=ksRZRVp7`.=+NpBC%rh&3]R:8XDmE'
	DB	'5^V8O(x<<aG/1N$#FX$0V5Y6x''aErI3I$7x%E`v<-BY,)%-?Psf*l?%C3.mM'
	DB	'(=/M0:JxG''?7WhH%o''a<-80g0NBxoO(GH<dM]n.+%q@jH?f.UsJ2Ggs&4<-'
	DB	'e47&Kl+f//9@`b+?.TeN_&B8Ss?v;^Trk;f#YvJkl&w$]>-+k?''(<S:68tq*'
	DB	'WoDfZu'';mM?8X[ma8W%*`-=;D.(nc7/;)g:T1=^J$&BRV(-lTmNB6xqB[@0*'
	DB	'o.erM*<SWF]u2=st-*(6v>^](H.aREZSi,#1:[IXaZFOm<-ui#qUq2$##Ri;u'
	DB	'75OK#(RtaW-K-F`S+cF]uN`-KMQ%rP/Xri.LRcB##=YL3BgM/3MD?@f&1''BW'
	DB	'-)Ju<L25gl8uhVm1hL$##*8###''A3/LkKW+(^rWX?5W_8g)a(m&K8P>#bmmW'
	DB	'CMkk&#TR`C,5d>g)F;t,4:@_l8G/5h4vUd%&%950:VXD''QdWoY-F$BtUwmfe'
	DB	'$YqL''8(PWX(P?^@Po3$##`MSs?DWBZ/S>+4%>fX,VWv/w''KD`LP5IbH;rTV'
	DB	'>n3cEK8U#bX]l-/V+^lj3;vlMb&[5YQ8#pekX9JP3XUC72L,,?+Ni&co7ApnO'
	DB	'*5NK,((W-i:$,kp''UDAO(G0Sq7MVjJsbIu)''Z,*[>br5fX^:FPAWr-m2KgL'
	DB	'<LUN098kTF&#lvo58=/vjDo;.;)Ka*hLR#/k=rKbxuV`>Q_nN6''8uTG&#1T5'
	DB	'g)uLv:873UpTLgH+#FgpH''_o1780Ph8KmxQJ8#H72L4@768@Tm&Qh4CB/5Ov'
	DB	'mA&,Q&QbUoi$a_%3M01H)4x7I^&KQVgtFnV+;[Pc>[m4k//,]1?#`VY[Jr*3&'
	DB	'&slRfLiVZJ:]?=K3Sw=[$=uRB?3xk48@aeg<Z''<$#4H)6,>e0jT6''N#(q%.'
	DB	'O=?2S]u*(m<-V8J''(1)G][68hW$5''q[GC&5j`TE?m''esFGNRM)j,ffZ?-q'
	DB	'x8;->g4t*:CIP/[Qap7/9''#(1sao7w-.qNUdkJ)tCF&#B^;xGvn2r9FEPFFF'
	DB	'cL@.iFNkTve$m%#QvQS8U@)2Z+3K:AKM5isZ88+dKQ)W6>J%CL<KE>`.d*(B`'
	DB	'-n8D9oK<Up]c$X$(,)M8Zt7/[rdkqTgl-0cuGMv''?>-XV1q[''-5k''cAZ69'
	DB	'e;D_?$ZPP&s^+7])$*$#@QYi9,5P&#9r+$%CE=68>K8r0=dSC%%(@p7.m7jil'
	DB	'Q02''0-VWAg<a/''''3u.=4L$Y)6k/K:_[3=&jvL<L0C/2''v:^;-DIBW,B4E'
	DB	'68:kZ;%?8(Q8BH=kO65BW?xSG&#@uU,DS*,?.+(o(#1vCS8#CHF>TlGW''b)T'
	DB	'q7VT9q^*^$$.:&N@@$&)WHtPm*5_rO0&e%K&#-30j(E4#''Zb.o/(Tpm$>K'''
	DB	'f@[PvFl,hfINTNU6u''0pao7%XUp9]5.>%h`8_=VYbxuel.NTSsJfLacFu3B'''
	DB	'lQSu/m6-Oqem8T+oE--$0a/k]uj9EwsG>%veR*hv^BFpQj:K''#SJ,sB-''#]'
	DB	'(j.Lg92rTw-*n%@/;39rrJF,l#qV%OrtBeC6/,;qB3ebNW[?,Hqj2L.1NP&Gj'
	DB	'UR=1D8QaS3Up&@*9wP?+lo7b?@%''k4`p0Z$22%K3+iCZj?XJN4Nm&+YF]u@-'
	DB	'W$U%VEQ/,,>>#)D<h#`)h0:<Q6909ua+&VU%n2:cG3FJ-%@Bj-DgLr`Hw&HAK'
	DB	'jKjseK</xKT*)B,N9X3]krc12t''pgTV(Lv-tL[xg_%=M_q7a^x?7Ubd>#%8c'
	DB	'Y#YZ?=,`Wdxu/ae&#w6)R89tI#6@s''(6Bf7a&?S=^ZI_kS&ai`&=tE72L_D,'
	DB	';^R)7[$s<Eh#c&)q.MXI%#v9ROa5FZO%sF7q7Nwb&#ptUJ:aqJe$Sl68%.D##'
	DB	'#EC><?-aF&#RNQv>o8lKN%5/$(vdfq7+ebA#u1p]ovUKW&Y%q]''>$1@-[xfn'
	DB	'$7ZTp7mM,G,Ko7a&Gu%G[RMxJs[0MM%wci.LFDK)(<c`Q8N)jEIF*+?P2a8g%'
	DB	')$q]o2aH8C&<SibC/q,(e:v;-b#6[$NtDZ84Je2KNvB#$P5?tQ3nt(0d=j.LQ'
	DB	'f./Ll33+(;q3L-w=8dX$#WF&uIJ@-bfI>%:_i2B5CsR8&9Z&#=mPEnm0f`<&c'
	DB	')QL5uJ#%u%lJj+D-r;BoF&#4DoS97h5g)E#o:&S4weDF,9^Hoe`h*L+_a*NrL'
	DB	'W-1pG_&2UdB86e%B/:=>)N4xeW.*wft-;$''58-ESqr<b?UI(_%@[P46>#U`'''
	DB	'6AQ]m&6/`Z>#S?YY#Vc;r7U2&326d=w&H####?TZ`*4?&.MK?LP8Vxg>$[QXc'
	DB	'%QJv92.(Db*B)gb*BM9dM*hJMAo*c&#b0v=Pjer]$gG&JXDf->''StvU7505l'
	DB	'9$AFvgYRI^&<^b68?j#q9QX4SM''RO#&sL1IM.rJfLUAj221]d##DW=m83u5;'
	DB	'''bYx,*Sl0hL(W;;$doB&O/TQ:(Z^xBdLjL<Lni;''''X.`$#8+1GD:k$YUWs'
	DB	'bn8ogh6rxZ2Z9]%nd+>V#*8U_72Lh+2Q8Cj0i:6hp&$C/:p(HK>T8Y[gHQ4`4'
	DB	')''$Ab(Nof%V''8hL&#<NEdtg(n''=S1A(Q1/I&4([%dM`,Iu''1:_hL>SfD0'
	DB	'7&6D<fp8dHM7/g+tlPN9J*rKaPct&?''uBCem^jn%9_K)<,C5K3s=5g&GmJb*'
	DB	'[SYq7K;TRLGCsM-$$;S%:Y@r7AK0pprpL<Lrh,q7e/%KWK:50I^+m''vi`3?%'
	DB	'Zp+<-d+$L-Sv:@.o19n$s0&39;kn;S%BSq*$3WoJSCLweV[aZ''MQIjO<7;X-'
	DB	'X;&+dMLvu#^UsGEC9WEc[X(wI7#2.(F0jV*eZf<-Qv3J-c+J5AlrB#$p(H68L'
	DB	'vEA''q3n0#m,[`*8Ft)FcYgEud]CWfm68,(aLA$@EFTgLXoBq/UPlp7:d[/;r'
	DB	'_ix=:TF`S5H-b<LI&HY(K=h#)]Lk$K14lVfm:x$H<3^Ql<M`$OhapBnkup''D'
	DB	'#L$Pb_`N*g]2e;X/Dtg,bsj&K#2[-:iYr''_wgH)NUIR8a1n#S?Yej''h8^58'
	DB	'UbZd+^FKD*T@;6A7aQC[K8d-(v6GI$x:T<&''Gp5Uf>@M.*J:;$-rv29''M]8'
	DB	'qMv-tLp,''886iaC=Hb*YJoKJ,(j%K=H`K.v9HggqBIiZu''QvBT.#=)0ukru'
	DB	'V&.)3=(^1`o*Pj4<-<aN((^7(''#Z0wK#5GX@7u][`*S^43933A4rl][`*O4C'
	DB	'gLEl]v$1Q3AeF37dbXk,.)vj#x''d`;qgbQR%FW,2(?LO=s%Sc68%NP''##Ao'
	DB	'tl8x=BE#j1UD([3$M(]UI2LX3RpKN@;/#f''f/&_mt&F)XdF<9t4)Qa.*kTLw'
	DB	'Q''(TTB9.xH''>#MJ+gLq9-##@HuZPN0]u:h7.T..G:;$/Usj(T7`Q8tT72Ln'
	DB	'Yl<-qx8;-HV7Q-&Xdx%1a,hC=0u+HlsV>nuIQL-5<N?)NBS)QN*_I,?&)2''I'
	DB	'M%L3I)X((e/dl2&8''<M:^#M*Q+[T.Xri.LYS3v%fF`68h;b-X[/En''CR.q7'
	DB	'E)p''/kle2HM,u;^%OKC-N+Ll%F9CF<Nf''^#t2L,;27W:0O@6##U6W7:$rJf'
	DB	'LWHj$#)woqBefIZ.PK<b*t7ed;p*_m;4ExK#h@&]>_>@kXQtMacfD.m-VAb8;'
	DB	'IReM3$wf0''''hra*so568''Ip&vRs849''MRYSp%:t:h5qSgwpEr$B>Q,;s('
	DB	'C#$)`svQuF$##-D,##,g68@2[T;.XSdN9Qe)rpt._K-#5wF)sP''##p#C0c%-'
	DB	'Gb%hd+<-j''Ai*x&&HMkT]C''OSl##5RG[JXaHN;d''uA#x._U;.`PU@(Z3dt'
	DB	'4r152@:v,''R.Sj''w#0<-;kPI)FfJ&#AYJ&#//)>-k=m=*XnK$>=)72L]0I%'
	DB	'>.G690a:$##<,);?;72#?x9+d;^V''9;jY@;)br#q^YQpx:X#Te$Z^''=-=bG'
	DB	'hLf:D6&bNwZ9-ZD#n^9HhLMr5G;'']d&6''wYmTFmL<LD)F^%[tC''8;+9E#C'
	DB	'$g%#5Y>q9wI>P(9mI[>kC-ekLC/R&CH+s''B;K-M6$EB%is00:+A4[7xks.Lr'
	DB	'Nk0&E)wILYF@2L''0Nb$+pv<(2.768/FrY&h$^3i&@+G%JT''<-,v`3;_)I9M'
	DB	'^AE]CN?Cl2AZg+%4iTpT3<n-&%H%b<FDj2M<hH=&Eh<2Len$b*aTX=-8QxN)k'
	DB	'11IM1c^j%9s<L<NFSo)B?+<-(GxsF,^-Eh@$4dXhN$+#rxK8''je''D7k`e;)'
	DB	'2pYwPA''_p9&@^18ml1^[@g4t*[JOa*[=Qp7(qJ_oOL^(''7fB&Hq-:sf,sNj'
	DB	'8xq^>$U4O]GKx''m9)b@p7YsvK3w^YR-CdQ*:Ir<($u&)#(&?L9Rg3H)4fiEp'
	DB	'^iI9O8KnTj,]H?D*r7''M;PwZ9K0E^k&-cpI;.p/6_vwoFMV<->#%Xi.LxVnr'
	DB	'U(4&8/P+:hLSKj$#U%]49t''I:rgMi''FL@a:0Y-uA[39'',(vbma*hU%<-SR'
	DB	'F`Tt:542R_VV$p@[p8DV[A,?1839FWdF<TddF<9Ah-6&9tWoDlh]&1SpGMq>T'
	DB	'i1O*H&#(AL8[_P%.M>v^-))qOT*F5Cq0`Ye%+$B6i:7@0IX<N+T+0MlMBPQ*V'
	DB	'j>SsD<U4JHY8kD2)2fU/M#$e.)T4,_=8hLim[&);?UkK''-x?''(:siIfL<$p'
	DB	'FM`i<?%W(mGDHM%>iWP,##P`%/L<eXi:@Z9C.7o=@(pXdAO/NLQ8lPl+HPOQa'
	DB	'8wD8=^GlPa8TKI1CjhsCTSLJM''/Wl>-S(qw%sf/@%#B6;/U7K]uZbi^Oc^2n'
	DB	'<bhPmUkMw>%t<)''mEVE''''n`WnJra$^TKvX5B>;_aSEK'',(hwa0:i4G?.B'
	DB	'ci.(X[?b*($,=-n<.Q%`(X=?+@Am*Js0&=3bh8K]mL<LoNs''6,''85`0?t/'''
	DB	'_U59@]ddF<#LdF<eWdF<OuN/45rY<-L@&#+fm>69=Lb,OcZV/);TTm8VI;?%O'
	DB	'tJ<(b4mq7M6:u?KRdF<gR@2L=FNU-<b[(9c/ML3m;Z[$oF3g)GAWqpARc=<RO'
	DB	'u7cL5l;-[A]%/+fsd;l#SafT/f*W]0=O''$(Tb<[)*@e775R-:Yob%g*>l*:x'
	DB	'P?Yb.5)%w_I?7uk5JC+FS(m#i''k.''a0i)9<7b''fs''59hq$*5Uhv##pi^8'
	DB	'+hIEBF`nvo`;''l0.^S1<-wUK2/Coh58KKhLjM=SO*rfO`+qC`W-On.=AJ56>'
	DB	'>i2@2LH6A:&5q`?9I3@@''04&p2/LVa*T-4<-i3;M9UvZd+N7>b*eIwg:CC)c'
	DB	'<>nO&#<IGe;__.thjZl<%w(Wk2xmp4Q@I#I9,DF]u7-P=.-_:YJ]aS@V?6*C('
	DB	')dOp7:WL,b&3Rg/.cmM9&r^>$(>.Z-I&J(Q0Hd5Q%7Co-b`-c<N(6r@ip+Aur'
	DB	'K<m86QIth*#v;-OBqi+L7wDE-Ir8K[''m+DDSLwK&/.?-V%U_%3:qKNu$_b*B'
	DB	'-kp7NaD''QdWQPKYq[@>P)hI;*_F]u`Rb[.j8_Q/<&>uu+VsH$sM9TA%?)(vm'
	DB	'J80),P7E>)tjD%2L=-t#fK[%`v=Q8<FfNkgg^oIbah*#8/Qt$F&:K*-(N/''+'
	DB	'1vMB,u()-a.VUU*#[e%gAAO(S>WlA2);Sa>gXm8YB`1d@K#n]76-a$U,mF<fX'
	DB	']idqd)<3,]J7JmW4`6]uks=4-72L(jEk+:bJ0M^q-8Dm_Z?0olP1C9Sa&H[d&'
	DB	'c$ooQUj]Exd*3ZM@-WGW2%s'',B-_M%>%Ul:#/''xoFM9QX-$.QN''>[%$Z$u'
	DB	'F6pA6Ki2O5:8w*vP1<-1`[G,)-m#>0`P&#eb#.3i)rtB61(o''$?X3B</R90;'
	DB	'eZ]%Ncq;-Tl]#F>2Qft^ae_5tKL9MUe9b*sLEQ95C&`=G?@Mj=wh*''3E>=-<'
	DB	')Gt*Iw)''QG:`@IwOf7&]1i''S01B+Ev/Nac#9S;=;YQpg_6U`*kVY39xK,[/'
	DB	'6Aj7:''1Bm-_1EYfa1+o&o4hp7KN_Q(OlIo@S%;jVdn0''1<Vc52=u`3^o-n1'
	DB	'''g4v58Hj&6_t7$##?M)c<$bgQ_''SY((-xkA#Y(,p''H9rIVY-b,''%bCPF7'
	DB	'.J<Up^,(dU1VY*5#WkTU>h19w,WQhLI)3S#f$2(eb,jr*b;3Vw]*7NH%$c4Vs'
	DB	',eD9>XW8?N]o+(*pgC%/72LV-u<Hp,3@e^9UB1J+ak9-TN/mhKPg+AJYd$Mlv'
	DB	'AF_jCK*.O-^(63adMT->W%iewS8W6m2rtCpo''RS1R84=@paTKt)>=%&1[)*v'
	DB	'p''u+x,VrwN;&]kuO9JDbg=pO$J*.jVe;u''m0dr9l,<*wMK*Oe=g8lV_KEBF'
	DB	'kO''oU]^=[-792#ok,)i]lR8qQ2oA8wcRCZ^7w/Njh;?.stX?Q1>S1q4Bn$)K'
	DB	'1<-rGdO''$Wr.Lc.CG)$/*JL4tNR/,SVO3,aUw''DJN:)Ss;wGn9A32ijw%FL'
	DB	'+Z0Fn.U9;reSq)bmI32U==5ALuG&#Vf1398/pVo1*c-(aY168o<`JsSbk-,1N'
	DB	';$>0:OUas(3:8Z972LSfF8eb=c-;>SPw7.6hn3m`9^Xkn(r.qS[0;T%&Qc=+S'
	DB	'TRxX''q1BNk3&*eu2;&8q$&x>Q#Q7^Tf+6<(d%ZVmj2bDi%.3L2n+4W''$PiD'
	DB	'DG)g,r%+?,$@?uou5tSe2aN_AQU*<h`e-GI7)?OK2A.d7_c)?wQ5AS@DL3r#7'
	DB	'fSkgl6-++D:''A,uq7SvlB$pcpH''q3n0#_%dY#xCpr-l<F0NR@-##FEV6NTF'
	DB	'6##$l84N1w?AO>''IAOURQ##V^Fv-XFbGM7Fl(N<3DhLGF%q.1rC$#:T__&Pi'
	DB	'68%0xi_&[qFJ(77j_&JWoF.V735&T,[R*:xFR*K5>>#`bW-?4Ne_&6Ne_&6Ne'
	DB	'_&n`kr-#GJcM6X;uM6X;uM(.a..^2TkL%oR(#;u.T%fAr%4tJ8&><1=GHZ_+m'
	DB	'9/#H1F^R#SC#*N=BA9(D?v[UiFY>>^8p,KKF.W]L29uLkLlu/+4T<XoIB&hx='
	DB	'T1PcDaB&;HH+-AFr?(m9HZV)FKS8JCw;SD=6[^/DZUL`EUDf]GGlG&>w$)F./'
	DB	'^n3+rlo+DB;5sIYGNk+i1t-69Jg--0pao7Sm#K)pdHW&;LuDNH@H>#/X-TI(;'
	DB	'P>#,Gc>#0Su>#4`1?#8lC?#<xU?#@.i?#D:%@#HF7@#LRI@#P_[@#Tkn@#Xw*'
	DB	'A#]-=A#a9OA#d<F&#*;G##.GY##2Sl##6`($#:l:$#>xL$#B.`$#F:r$#JF.%'
	DB	'#NR@%#R_R%#Vke%#Zww%#_-4&#3^Rh%Sflr-k''MS.o?.5/sWel/wpEM0%3'''
	DB	'/1)K^f1-d>G21&v(35>V`39V7A4=onx4A1OY5EI0;6Ibgr6M$HS7Q<)58C5w,'
	DB	';WoA*#[%T*#`1g*#d=#+#hI5+#lUG+#pbY+#tnl+#x$),#&1;,#*=M,#.I`,#'
	DB	'2Ur,#6b.-#;w[H#iQtA#m^0B#qjBB#uvTB##-hB#''9$C#+E6C#/QHC#3^ZC#'
	DB	'7jmC#;v)D#?,<D#C8ND#GDaD#KPsD#O]/E#g1A5#KA*1#gC17#MGd;#8(02#L'
	DB	'-d3#rWM4#Hga1#,<w0#T.j<#O#''2#CYN1#qa^:#_4m3#o@/=#eG8=#t8J5#`'
	DB	'+78#4uI-#m3B2#SB[8#Q0@8#i[*9#iOn8#1Nm;#^sN9#qh<9#:=x-#P;K2#$%'
	DB	'X9#bC+.#Rg;<#mN=.#MTF.#RZO.#2?)4#Y#(/#[)1/#b;L/#dAU/#0Sv;#lY$'
	DB	'0#n`-0#sf60#(F24#wrH0#%/e0#TmD<#%JSMFove:CTBEXI:<eh2g)B,3h2^G'
	DB	'3i;#d3jD>)4kMYD4lVu`4m`:&5niUA5@(A5BA1]PBB:xlBCC=2CDLXMCEUtiC'
	DB	'f&0g2''tN?PGT4CPGT4CPGT4CPGT4CPGT4CPGT4CPGT4CPGT4CPGT4CPGT4CP'
	DB	'GT4CPGT4CPGT4CP-qekC`.9kEg^+F$kwViFJTB&5KTB&5KTB&5KTB&5KTB&5K'
	DB	'TB&5KTB&5KTB&5KTB&5KTB&5KTB&5KTB&5KTB&5KTB&5KTB&5o,^<-28ZI''O'
	DB	'?;xpO?;xpO?;xpO?;xpO?;xpO?;xpO?;xpO?;xpO?;xpO?;xpO?;xpO?;xpO?'
	DB	';xpO?;xp;7q-#lLYI:xvD=#', 00H		; proggy_clean_ttf_compressed_data_base85
	ORG $+3
$SG13000 DB	'ttcf', 00H
	ORG $+3
$SG13001 DB	'ttcf', 00H
	ORG $+3
$SG13002 DB	'ttcf', 00H
	ORG $+3
$SG13003 DB	'ttcf', 00H
	ORG $+3
$SG13012 DB	'ttcf', 00H
	ORG $+3
$SG13013 DB	'ttcf', 00H
	ORG $+3
$SG13014 DB	'ttcf', 00H
	ORG $+3
$SG13015 DB	'ttcf', 00H
	ORG $+3
$SG13070 DB	'cmap', 00H
	ORG $+3
$SG13071 DB	'loca', 00H
	ORG $+3
$SG13072 DB	'head', 00H
	ORG $+3
$SG13073 DB	'glyf', 00H
	ORG $+3
$SG13074 DB	'hhea', 00H
	ORG $+3
$SG13075 DB	'hmtx', 00H
	ORG $+3
$SG13076 DB	'kern', 00H
	ORG $+3
$SG13082 DB	'CFF ', 00H
	ORG $+3
$SG13088 DB	'maxp', 00H
	ORG $+3
$SG16247 DB	'..-         -XXXXXXX-    X    -           X           -X'
	DB	'XXXXXX          -          XXXXXXX..-         -X.....X-   X.X'
	DB	'   -          X.X          -X.....X          -          X....'
	DB	'.X---         -XXX.XXX-  X...X  -         X...X         -X...'
	DB	'.X           -           X....XX           -  X.X  - X.....X '
	DB	'-        X.....X        -X...X            -            X...XX'
	DB	'X          -  X.X  -X.......X-       X.......X       -X..X.X '
	DB	'          -           X.X..XX.X         -  X.X  -XXXX.XXXX-  '
	DB	'     XXXX.XXXX       -X.X X.X          -          X.X X.XX..X'
	DB	'        -  X.X  -   X.X   -          X.X          -XX   X.X  '
	DB	'       -         X.X   XXX...X       -  X.X  -   X.X   -    X'
	DB	'X    X.X    XX    -      X.X        -        X.X      X....X '
	DB	'     -  X.X  -   X.X   -   X.X    X.X    X.X   -       X.X   '
	DB	'    -       X.X       X.....X     -  X.X  -   X.X   -  X..X  '
	DB	'  X.X    X..X  -        X.X      -      X.X        X......X  '
	DB	'  -  X.X  -   X.X   - X...XXXXXX.XXXXXX...X -         X.X   X'
	DB	'X-XX   X.X         X.......X   -  X.X  -   X.X   -X..........'
	DB	'...........X-          X.X X.X-X.X X.X          X........X  -'
	DB	'  X.X  -   X.X   - X...XXXXXX.XXXXXX...X -           X.X..X-X'
	DB	'..X.X           X.........X -XXX.XXX-   X.X   -  X..X    X.X '
	DB	'   X..X  -            X...X-X...X            X..........X-X..'
	DB	'...X-   X.X   -   X.X    X.X    X.X   -           X....X-X...'
	DB	'.X           X......XXXXX-XXXXXXX-   X.X   -    XX    X.X    '
	DB	'XX    -          X.....X-X.....X          X...X..X    -------'
	DB	'--   X.X   -          X.X          -          XXXXXXX-XXXXXXX'
	DB	'          X..X X..X   -       -XXXX.XXXX-       XXXX.XXXX    '
	DB	'   ------------------------------------X.X  X..X   -       -X'
	DB	'.......X-       X.......X       -    XX           XX    -    '
	DB	'       XX    X..X  -       - X.....X -        X.....X        '
	DB	'-   X.X           X.X   -                 X..X          -  X.'
	DB	'..X  -         X...X         -  X..X           X..X  -       '
	DB	'           XX           -   X.X   -          X.X          - X'
	DB	'...XXXXXXXXXXXXX...X -           ------------        -    X  '
	DB	'  -           X           -X.....................X-          '
	DB	'                     ----------------------------------- X...'
	DB	'XXXXXXXXXXXXX...X -                                          '
	DB	'                       -  X..X           X..X  -             '
	DB	'                                                    -   X.X  '
	DB	'         X.X   -                                             '
	DB	'                    -    XX           XX    -           ', 00H
CONST	ENDS
PUBLIC	??_H@YGXPAXIIP6EPAX0@Z@Z			; `vector constructor iterator'
PUBLIC	??0ImVec2@@QAE@XZ				; ImVec2::ImVec2
PUBLIC	??0ImVec2@@QAE@MM@Z				; ImVec2::ImVec2
PUBLIC	??0ImVec4@@QAE@XZ				; ImVec4::ImVec4
PUBLIC	??0ImVec4@@QAE@MMMM@Z				; ImVec4::ImVec4
PUBLIC	??0?$ImVector@D@@QAE@XZ				; ImVector<char>::ImVector<char>
PUBLIC	??1?$ImVector@D@@QAE@XZ				; ImVector<char>::~ImVector<char>
PUBLIC	??0ImDrawCmd@@QAE@XZ				; ImDrawCmd::ImDrawCmd
PUBLIC	??0?$ImVector@UImDrawCmd@@@@QAE@XZ		; ImVector<ImDrawCmd>::ImVector<ImDrawCmd>
PUBLIC	??1?$ImVector@UImDrawCmd@@@@QAE@XZ		; ImVector<ImDrawCmd>::~ImVector<ImDrawCmd>
PUBLIC	??A?$ImVector@UImDrawCmd@@@@QAEAAUImDrawCmd@@H@Z ; ImVector<ImDrawCmd>::operator[]
PUBLIC	?clear@?$ImVector@UImDrawCmd@@@@QAEXXZ		; ImVector<ImDrawCmd>::clear
PUBLIC	?back@?$ImVector@UImDrawCmd@@@@QAEAAUImDrawCmd@@XZ ; ImVector<ImDrawCmd>::back
PUBLIC	?_grow_capacity@?$ImVector@UImDrawCmd@@@@QAEHH@Z ; ImVector<ImDrawCmd>::_grow_capacity
PUBLIC	?resize@?$ImVector@UImDrawCmd@@@@QAEXH@Z	; ImVector<ImDrawCmd>::resize
PUBLIC	?reserve@?$ImVector@UImDrawCmd@@@@QAEXH@Z	; ImVector<ImDrawCmd>::reserve
PUBLIC	?push_back@?$ImVector@UImDrawCmd@@@@QAEXABUImDrawCmd@@@Z ; ImVector<ImDrawCmd>::push_back
PUBLIC	?pop_back@?$ImVector@UImDrawCmd@@@@QAEXXZ	; ImVector<ImDrawCmd>::pop_back
PUBLIC	??0?$ImVector@G@@QAE@XZ				; ImVector<unsigned short>::ImVector<unsigned short>
PUBLIC	??1?$ImVector@G@@QAE@XZ				; ImVector<unsigned short>::~ImVector<unsigned short>
PUBLIC	?empty@?$ImVector@G@@QBE_NXZ			; ImVector<unsigned short>::empty
PUBLIC	??A?$ImVector@G@@QAEAAGH@Z			; ImVector<unsigned short>::operator[]
PUBLIC	??A?$ImVector@G@@QBEABGH@Z			; ImVector<unsigned short>::operator[]
PUBLIC	?clear@?$ImVector@G@@QAEXXZ			; ImVector<unsigned short>::clear
PUBLIC	?_grow_capacity@?$ImVector@G@@QAEHH@Z		; ImVector<unsigned short>::_grow_capacity
PUBLIC	?resize@?$ImVector@G@@QAEXH@Z			; ImVector<unsigned short>::resize
PUBLIC	?reserve@?$ImVector@G@@QAEXH@Z			; ImVector<unsigned short>::reserve
PUBLIC	??0ImDrawChannel@@QAE@XZ			; ImDrawChannel::ImDrawChannel
PUBLIC	??0?$ImVector@UImDrawVert@@@@QAE@XZ		; ImVector<ImDrawVert>::ImVector<ImDrawVert>
PUBLIC	??1?$ImVector@UImDrawVert@@@@QAE@XZ		; ImVector<ImDrawVert>::~ImVector<ImDrawVert>
PUBLIC	??A?$ImVector@UImDrawVert@@@@QAEAAUImDrawVert@@H@Z ; ImVector<ImDrawVert>::operator[]
PUBLIC	?clear@?$ImVector@UImDrawVert@@@@QAEXXZ		; ImVector<ImDrawVert>::clear
PUBLIC	?swap@?$ImVector@UImDrawVert@@@@QAEXAAV1@@Z	; ImVector<ImDrawVert>::swap
PUBLIC	?_grow_capacity@?$ImVector@UImDrawVert@@@@QAEHH@Z ; ImVector<ImDrawVert>::_grow_capacity
PUBLIC	?resize@?$ImVector@UImDrawVert@@@@QAEXH@Z	; ImVector<ImDrawVert>::resize
PUBLIC	?reserve@?$ImVector@UImDrawVert@@@@QAEXH@Z	; ImVector<ImDrawVert>::reserve
PUBLIC	?clear@?$ImVector@UImVec4@@@@QAEXXZ		; ImVector<ImVec4>::clear
PUBLIC	?back@?$ImVector@UImVec4@@@@QAEAAUImVec4@@XZ	; ImVector<ImVec4>::back
PUBLIC	?_grow_capacity@?$ImVector@UImVec4@@@@QAEHH@Z	; ImVector<ImVec4>::_grow_capacity
PUBLIC	?resize@?$ImVector@UImVec4@@@@QAEXH@Z		; ImVector<ImVec4>::resize
PUBLIC	?reserve@?$ImVector@UImVec4@@@@QAEXH@Z		; ImVector<ImVec4>::reserve
PUBLIC	?push_back@?$ImVector@UImVec4@@@@QAEXABUImVec4@@@Z ; ImVector<ImVec4>::push_back
PUBLIC	?pop_back@?$ImVector@UImVec4@@@@QAEXXZ		; ImVector<ImVec4>::pop_back
PUBLIC	?empty@?$ImVector@PAX@@QBE_NXZ			; ImVector<void *>::empty
PUBLIC	?clear@?$ImVector@PAX@@QAEXXZ			; ImVector<void *>::clear
PUBLIC	?back@?$ImVector@PAX@@QAEAAPAXXZ		; ImVector<void *>::back
PUBLIC	?_grow_capacity@?$ImVector@PAX@@QAEHH@Z		; ImVector<void *>::_grow_capacity
PUBLIC	?resize@?$ImVector@PAX@@QAEXH@Z			; ImVector<void *>::resize
PUBLIC	?reserve@?$ImVector@PAX@@QAEXH@Z		; ImVector<void *>::reserve
PUBLIC	?push_back@?$ImVector@PAX@@QAEXABQAX@Z		; ImVector<void *>::push_back
PUBLIC	?pop_back@?$ImVector@PAX@@QAEXXZ		; ImVector<void *>::pop_back
PUBLIC	?clear@?$ImVector@UImVec2@@@@QAEXXZ		; ImVector<ImVec2>::clear
PUBLIC	?back@?$ImVector@UImVec2@@@@QAEAAUImVec2@@XZ	; ImVector<ImVec2>::back
PUBLIC	?_grow_capacity@?$ImVector@UImVec2@@@@QAEHH@Z	; ImVector<ImVec2>::_grow_capacity
PUBLIC	?resize@?$ImVector@UImVec2@@@@QAEXH@Z		; ImVector<ImVec2>::resize
PUBLIC	?reserve@?$ImVector@UImVec2@@@@QAEXH@Z		; ImVector<ImVec2>::reserve
PUBLIC	?push_back@?$ImVector@UImVec2@@@@QAEXABUImVec2@@@Z ; ImVector<ImVec2>::push_back
PUBLIC	??A?$ImVector@UImDrawChannel@@@@QAEAAUImDrawChannel@@H@Z ; ImVector<ImDrawChannel>::operator[]
PUBLIC	?clear@?$ImVector@UImDrawChannel@@@@QAEXXZ	; ImVector<ImDrawChannel>::clear
PUBLIC	?_grow_capacity@?$ImVector@UImDrawChannel@@@@QAEHH@Z ; ImVector<ImDrawChannel>::_grow_capacity
PUBLIC	?resize@?$ImVector@UImDrawChannel@@@@QAEXH@Z	; ImVector<ImDrawChannel>::resize
PUBLIC	?reserve@?$ImVector@UImDrawChannel@@@@QAEXH@Z	; ImVector<ImDrawChannel>::reserve
PUBLIC	?PushClipRect@ImDrawList@@QAEXUImVec2@@0_N@Z	; ImDrawList::PushClipRect
PUBLIC	?PushClipRectFullScreen@ImDrawList@@QAEXXZ	; ImDrawList::PushClipRectFullScreen
PUBLIC	?PopClipRect@ImDrawList@@QAEXXZ			; ImDrawList::PopClipRect
PUBLIC	?PushTextureID@ImDrawList@@QAEXABQAX@Z		; ImDrawList::PushTextureID
PUBLIC	?PopTextureID@ImDrawList@@QAEXXZ		; ImDrawList::PopTextureID
PUBLIC	?AddLine@ImDrawList@@QAEXABUImVec2@@0IM@Z	; ImDrawList::AddLine
PUBLIC	?AddRect@ImDrawList@@QAEXABUImVec2@@0IMHM@Z	; ImDrawList::AddRect
PUBLIC	?AddRectFilled@ImDrawList@@QAEXABUImVec2@@0IMH@Z ; ImDrawList::AddRectFilled
PUBLIC	?AddRectFilledMultiColor@ImDrawList@@QAEXABUImVec2@@0IIII@Z ; ImDrawList::AddRectFilledMultiColor
PUBLIC	?AddQuad@ImDrawList@@QAEXABUImVec2@@000IM@Z	; ImDrawList::AddQuad
PUBLIC	?AddQuadFilled@ImDrawList@@QAEXABUImVec2@@000I@Z ; ImDrawList::AddQuadFilled
PUBLIC	?AddTriangle@ImDrawList@@QAEXABUImVec2@@00IM@Z	; ImDrawList::AddTriangle
PUBLIC	?AddTriangleFilled@ImDrawList@@QAEXABUImVec2@@00I@Z ; ImDrawList::AddTriangleFilled
PUBLIC	?AddCircle@ImDrawList@@QAEXABUImVec2@@MIHM@Z	; ImDrawList::AddCircle
PUBLIC	?AddCircleFilled@ImDrawList@@QAEXABUImVec2@@MIH@Z ; ImDrawList::AddCircleFilled
PUBLIC	?AddText@ImDrawList@@QAEXABUImVec2@@IPBD1@Z	; ImDrawList::AddText
PUBLIC	?AddText@ImDrawList@@QAEXPBUImFont@@MABUImVec2@@IPBD2MPBUImVec4@@@Z ; ImDrawList::AddText
PUBLIC	?AddImage@ImDrawList@@QAEXPAXABUImVec2@@111I@Z	; ImDrawList::AddImage
PUBLIC	?AddPolyline@ImDrawList@@QAEXPBUImVec2@@HI_NM1@Z ; ImDrawList::AddPolyline
PUBLIC	?AddConvexPolyFilled@ImDrawList@@QAEXPBUImVec2@@HI_N@Z ; ImDrawList::AddConvexPolyFilled
PUBLIC	?AddBezierCurve@ImDrawList@@QAEXABUImVec2@@000IMH@Z ; ImDrawList::AddBezierCurve
PUBLIC	?PathClear@ImDrawList@@QAEXXZ			; ImDrawList::PathClear
PUBLIC	?PathLineTo@ImDrawList@@QAEXABUImVec2@@@Z	; ImDrawList::PathLineTo
PUBLIC	?PathFill@ImDrawList@@QAEXI@Z			; ImDrawList::PathFill
PUBLIC	?PathStroke@ImDrawList@@QAEXI_NM@Z		; ImDrawList::PathStroke
PUBLIC	?PathArcTo@ImDrawList@@QAEXABUImVec2@@MMMH@Z	; ImDrawList::PathArcTo
PUBLIC	?PathArcToFast@ImDrawList@@QAEXABUImVec2@@MHH@Z	; ImDrawList::PathArcToFast
PUBLIC	?PathBezierCurveTo@ImDrawList@@QAEXABUImVec2@@00H@Z ; ImDrawList::PathBezierCurveTo
PUBLIC	?PathRect@ImDrawList@@QAEXABUImVec2@@0MH@Z	; ImDrawList::PathRect
PUBLIC	?ChannelsSplit@ImDrawList@@QAEXH@Z		; ImDrawList::ChannelsSplit
PUBLIC	?ChannelsMerge@ImDrawList@@QAEXXZ		; ImDrawList::ChannelsMerge
PUBLIC	?ChannelsSetCurrent@ImDrawList@@QAEXH@Z		; ImDrawList::ChannelsSetCurrent
PUBLIC	?AddCallback@ImDrawList@@QAEXP6AXPBU1@PBUImDrawCmd@@@ZPAX@Z ; ImDrawList::AddCallback
PUBLIC	?AddDrawCmd@ImDrawList@@QAEXXZ			; ImDrawList::AddDrawCmd
PUBLIC	?Clear@ImDrawList@@QAEXXZ			; ImDrawList::Clear
PUBLIC	?ClearFreeMemory@ImDrawList@@QAEXXZ		; ImDrawList::ClearFreeMemory
PUBLIC	?PrimReserve@ImDrawList@@QAEXHH@Z		; ImDrawList::PrimReserve
PUBLIC	?PrimRect@ImDrawList@@QAEXABUImVec2@@0I@Z	; ImDrawList::PrimRect
PUBLIC	?PrimRectUV@ImDrawList@@QAEXABUImVec2@@000I@Z	; ImDrawList::PrimRectUV
PUBLIC	?PrimQuadUV@ImDrawList@@QAEXABUImVec2@@0000000I@Z ; ImDrawList::PrimQuadUV
PUBLIC	?PrimWriteVtx@ImDrawList@@QAEXABUImVec2@@0I@Z	; ImDrawList::PrimWriteVtx
PUBLIC	?PrimWriteIdx@ImDrawList@@QAEXG@Z		; ImDrawList::PrimWriteIdx
PUBLIC	?UpdateClipRect@ImDrawList@@QAEXXZ		; ImDrawList::UpdateClipRect
PUBLIC	?UpdateTextureID@ImDrawList@@QAEXXZ		; ImDrawList::UpdateTextureID
PUBLIC	?DeIndexAllBuffers@ImDrawData@@QAEXXZ		; ImDrawData::DeIndexAllBuffers
PUBLIC	?ScaleClipRects@ImDrawData@@QAEXABUImVec2@@@Z	; ImDrawData::ScaleClipRects
PUBLIC	??0ImFontConfig@@QAE@XZ				; ImFontConfig::ImFontConfig
PUBLIC	??0ImFontAtlas@@QAE@XZ				; ImFontAtlas::ImFontAtlas
PUBLIC	??1ImFontAtlas@@QAE@XZ				; ImFontAtlas::~ImFontAtlas
PUBLIC	?AddFont@ImFontAtlas@@QAEPAUImFont@@PBUImFontConfig@@@Z ; ImFontAtlas::AddFont
PUBLIC	?AddFontDefault@ImFontAtlas@@QAEPAUImFont@@PBUImFontConfig@@@Z ; ImFontAtlas::AddFontDefault
PUBLIC	?AddFontFromFileTTF@ImFontAtlas@@QAEPAUImFont@@PBDMPBUImFontConfig@@PBG@Z ; ImFontAtlas::AddFontFromFileTTF
PUBLIC	?AddFontFromMemoryTTF@ImFontAtlas@@QAEPAUImFont@@PAXHMPBUImFontConfig@@PBG@Z ; ImFontAtlas::AddFontFromMemoryTTF
PUBLIC	?AddFontFromMemoryCompressedTTF@ImFontAtlas@@QAEPAUImFont@@PBXHMPBUImFontConfig@@PBG@Z ; ImFontAtlas::AddFontFromMemoryCompressedTTF
PUBLIC	?AddFontFromMemoryCompressedBase85TTF@ImFontAtlas@@QAEPAUImFont@@PBDMPBUImFontConfig@@PBG@Z ; ImFontAtlas::AddFontFromMemoryCompressedBase85TTF
PUBLIC	?ClearTexData@ImFontAtlas@@QAEXXZ		; ImFontAtlas::ClearTexData
PUBLIC	?ClearInputData@ImFontAtlas@@QAEXXZ		; ImFontAtlas::ClearInputData
PUBLIC	?ClearFonts@ImFontAtlas@@QAEXXZ			; ImFontAtlas::ClearFonts
PUBLIC	?Clear@ImFontAtlas@@QAEXXZ			; ImFontAtlas::Clear
PUBLIC	?GetTexDataAsAlpha8@ImFontAtlas@@QAEXPAPAEPAH11@Z ; ImFontAtlas::GetTexDataAsAlpha8
PUBLIC	?GetTexDataAsRGBA32@ImFontAtlas@@QAEXPAPAEPAH11@Z ; ImFontAtlas::GetTexDataAsRGBA32
PUBLIC	?GetGlyphRangesDefault@ImFontAtlas@@QAEPBGXZ	; ImFontAtlas::GetGlyphRangesDefault
PUBLIC	?GetGlyphRangesKorean@ImFontAtlas@@QAEPBGXZ	; ImFontAtlas::GetGlyphRangesKorean
PUBLIC	?GetGlyphRangesJapanese@ImFontAtlas@@QAEPBGXZ	; ImFontAtlas::GetGlyphRangesJapanese
PUBLIC	?GetGlyphRangesChinese@ImFontAtlas@@QAEPBGXZ	; ImFontAtlas::GetGlyphRangesChinese
PUBLIC	?GetGlyphRangesCyrillic@ImFontAtlas@@QAEPBGXZ	; ImFontAtlas::GetGlyphRangesCyrillic
PUBLIC	?GetGlyphRangesThai@ImFontAtlas@@QAEPBGXZ	; ImFontAtlas::GetGlyphRangesThai
PUBLIC	??0?$ImVector@PAUImFont@@@@QAE@XZ		; ImVector<ImFont *>::ImVector<ImFont *>
PUBLIC	??1?$ImVector@PAUImFont@@@@QAE@XZ		; ImVector<ImFont *>::~ImVector<ImFont *>
PUBLIC	??A?$ImVector@PAUImFont@@@@QAEAAPAUImFont@@H@Z	; ImVector<ImFont *>::operator[]
PUBLIC	?clear@?$ImVector@PAUImFont@@@@QAEXXZ		; ImVector<ImFont *>::clear
PUBLIC	?back@?$ImVector@PAUImFont@@@@QAEAAPAUImFont@@XZ ; ImVector<ImFont *>::back
PUBLIC	?_grow_capacity@?$ImVector@PAUImFont@@@@QAEHH@Z	; ImVector<ImFont *>::_grow_capacity
PUBLIC	?reserve@?$ImVector@PAUImFont@@@@QAEXH@Z	; ImVector<ImFont *>::reserve
PUBLIC	?push_back@?$ImVector@PAUImFont@@@@QAEXABQAUImFont@@@Z ; ImVector<ImFont *>::push_back
PUBLIC	??0?$ImVector@UImFontConfig@@@@QAE@XZ		; ImVector<ImFontConfig>::ImVector<ImFontConfig>
PUBLIC	??1?$ImVector@UImFontConfig@@@@QAE@XZ		; ImVector<ImFontConfig>::~ImVector<ImFontConfig>
PUBLIC	?empty@?$ImVector@UImFontConfig@@@@QBE_NXZ	; ImVector<ImFontConfig>::empty
PUBLIC	??A?$ImVector@UImFontConfig@@@@QAEAAUImFontConfig@@H@Z ; ImVector<ImFontConfig>::operator[]
PUBLIC	?clear@?$ImVector@UImFontConfig@@@@QAEXXZ	; ImVector<ImFontConfig>::clear
PUBLIC	?back@?$ImVector@UImFontConfig@@@@QAEAAUImFontConfig@@XZ ; ImVector<ImFontConfig>::back
PUBLIC	?_grow_capacity@?$ImVector@UImFontConfig@@@@QAEHH@Z ; ImVector<ImFontConfig>::_grow_capacity
PUBLIC	?reserve@?$ImVector@UImFontConfig@@@@QAEXH@Z	; ImVector<ImFontConfig>::reserve
PUBLIC	?push_back@?$ImVector@UImFontConfig@@@@QAEXABUImFontConfig@@@Z ; ImVector<ImFontConfig>::push_back
PUBLIC	?Build@ImFontAtlas@@QAE_NXZ			; ImFontAtlas::Build
PUBLIC	?RenderCustomTexData@ImFontAtlas@@QAEXHPAX@Z	; ImFontAtlas::RenderCustomTexData
PUBLIC	??0?$ImVector@UGlyph@ImFont@@@@QAE@XZ		; ImVector<ImFont::Glyph>::ImVector<ImFont::Glyph>
PUBLIC	??1?$ImVector@UGlyph@ImFont@@@@QAE@XZ		; ImVector<ImFont::Glyph>::~ImVector<ImFont::Glyph>
PUBLIC	??A?$ImVector@UGlyph@ImFont@@@@QAEAAUGlyph@ImFont@@H@Z ; ImVector<ImFont::Glyph>::operator[]
PUBLIC	?clear@?$ImVector@UGlyph@ImFont@@@@QAEXXZ	; ImVector<ImFont::Glyph>::clear
PUBLIC	?back@?$ImVector@UGlyph@ImFont@@@@QAEAAUGlyph@ImFont@@XZ ; ImVector<ImFont::Glyph>::back
PUBLIC	?_grow_capacity@?$ImVector@UGlyph@ImFont@@@@QAEHH@Z ; ImVector<ImFont::Glyph>::_grow_capacity
PUBLIC	?resize@?$ImVector@UGlyph@ImFont@@@@QAEXH@Z	; ImVector<ImFont::Glyph>::resize
PUBLIC	?reserve@?$ImVector@UGlyph@ImFont@@@@QAEXH@Z	; ImVector<ImFont::Glyph>::reserve
PUBLIC	??0?$ImVector@M@@QAE@XZ				; ImVector<float>::ImVector<float>
PUBLIC	??1?$ImVector@M@@QAE@XZ				; ImVector<float>::~ImVector<float>
PUBLIC	??A?$ImVector@M@@QAEAAMH@Z			; ImVector<float>::operator[]
PUBLIC	??A?$ImVector@M@@QBEABMH@Z			; ImVector<float>::operator[]
PUBLIC	?clear@?$ImVector@M@@QAEXXZ			; ImVector<float>::clear
PUBLIC	?_grow_capacity@?$ImVector@M@@QAEHH@Z		; ImVector<float>::_grow_capacity
PUBLIC	?resize@?$ImVector@M@@QAEXH@Z			; ImVector<float>::resize
PUBLIC	?reserve@?$ImVector@M@@QAEXH@Z			; ImVector<float>::reserve
PUBLIC	??0ImFont@@QAE@XZ				; ImFont::ImFont
PUBLIC	??1ImFont@@QAE@XZ				; ImFont::~ImFont
PUBLIC	?Clear@ImFont@@QAEXXZ				; ImFont::Clear
PUBLIC	?BuildLookupTable@ImFont@@QAEXXZ		; ImFont::BuildLookupTable
PUBLIC	?FindGlyph@ImFont@@QBEPBUGlyph@1@G@Z		; ImFont::FindGlyph
PUBLIC	?SetFallbackChar@ImFont@@QAEXG@Z		; ImFont::SetFallbackChar
PUBLIC	?CalcTextSizeA@ImFont@@QBE?AUImVec2@@MMMPBD0PAPBD@Z ; ImFont::CalcTextSizeA
PUBLIC	?CalcWordWrapPositionA@ImFont@@QBEPBDMPBD0M@Z	; ImFont::CalcWordWrapPositionA
PUBLIC	?RenderChar@ImFont@@QBEXPAUImDrawList@@MUImVec2@@IG@Z ; ImFont::RenderChar
PUBLIC	?RenderText@ImFont@@QBEXPAUImDrawList@@MUImVec2@@IABUImVec4@@PBD3M_N@Z ; ImFont::RenderText
PUBLIC	?GrowIndex@ImFont@@QAEXH@Z			; ImFont::GrowIndex
PUBLIC	?AddRemapChar@ImFont@@QAEXGG_N@Z		; ImFont::AddRemapChar
PUBLIC	??_GImFont@@QAEPAXI@Z				; ImFont::`scalar deleting destructor'
PUBLIC	_cosf
PUBLIC	_fabsf
PUBLIC	_sinf
PUBLIC	_sqrtf
PUBLIC	??2@YAPAXIUImPlacementNewDummy@@PAX@Z		; operator new
PUBLIC	??3@YAXPAXUImPlacementNewDummy@@0@Z		; operator delete
PUBLIC	??0ImRect@@QAE@XZ				; ImRect::ImRect
PUBLIC	??0ImRect@@QAE@ABUImVec2@@0@Z			; ImRect::ImRect
PUBLIC	??0ImRect@@QAE@ABUImVec4@@@Z			; ImRect::ImRect
PUBLIC	??0ImRect@@QAE@MMMM@Z				; ImRect::ImRect
PUBLIC	?GetCenter@ImRect@@QBE?AUImVec2@@XZ		; ImRect::GetCenter
PUBLIC	?GetSize@ImRect@@QBE?AUImVec2@@XZ		; ImRect::GetSize
PUBLIC	?GetWidth@ImRect@@QBEMXZ			; ImRect::GetWidth
PUBLIC	?GetHeight@ImRect@@QBEMXZ			; ImRect::GetHeight
PUBLIC	?GetTL@ImRect@@QBE?AUImVec2@@XZ			; ImRect::GetTL
PUBLIC	?GetTR@ImRect@@QBE?AUImVec2@@XZ			; ImRect::GetTR
PUBLIC	?GetBL@ImRect@@QBE?AUImVec2@@XZ			; ImRect::GetBL
PUBLIC	?GetBR@ImRect@@QBE?AUImVec2@@XZ			; ImRect::GetBR
PUBLIC	?Contains@ImRect@@QBE_NABUImVec2@@@Z		; ImRect::Contains
PUBLIC	?Contains@ImRect@@QBE_NABU1@@Z			; ImRect::Contains
PUBLIC	?Overlaps@ImRect@@QBE_NABU1@@Z			; ImRect::Overlaps
PUBLIC	?Add@ImRect@@QAEXABUImVec2@@@Z			; ImRect::Add
PUBLIC	?Add@ImRect@@QAEXABU1@@Z			; ImRect::Add
PUBLIC	?Expand@ImRect@@QAEXM@Z				; ImRect::Expand
PUBLIC	?Expand@ImRect@@QAEXABUImVec2@@@Z		; ImRect::Expand
PUBLIC	?Translate@ImRect@@QAEXABUImVec2@@@Z		; ImRect::Translate
PUBLIC	?Clip@ImRect@@QBEXAAU1@@Z			; ImRect::Clip
PUBLIC	?Floor@ImRect@@QAEXXZ				; ImRect::Floor
PUBLIC	?GetClosestPoint@ImRect@@QBE?AUImVec2@@U2@_N@Z	; ImRect::GetClosestPoint
PUBLIC	??4ImRect@@QAEAAU0@ABU0@@Z			; ImRect::operator=
PUBLIC	??4ImRect@@QAEAAU0@$$QAU0@@Z			; ImRect::operator=
PUBLIC	??4ImGuiSimpleColumns@@QAEAAU0@ABU0@@Z		; ImGuiSimpleColumns::operator=
PUBLIC	??4ImGuiSimpleColumns@@QAEAAU0@$$QAU0@@Z	; ImGuiSimpleColumns::operator=
PUBLIC	??0ImGuiTextEditState@@QAE@XZ			; ImGuiTextEditState::ImGuiTextEditState
PUBLIC	?CursorAnimReset@ImGuiTextEditState@@QAEXXZ	; ImGuiTextEditState::CursorAnimReset
PUBLIC	?CursorClamp@ImGuiTextEditState@@QAEXXZ		; ImGuiTextEditState::CursorClamp
PUBLIC	?HasSelection@ImGuiTextEditState@@QBE_NXZ	; ImGuiTextEditState::HasSelection
PUBLIC	?ClearSelection@ImGuiTextEditState@@QAEXXZ	; ImGuiTextEditState::ClearSelection
PUBLIC	?SelectAll@ImGuiTextEditState@@QAEXXZ		; ImGuiTextEditState::SelectAll
PUBLIC	??1ImGuiTextEditState@@QAE@XZ			; ImGuiTextEditState::~ImGuiTextEditState
PUBLIC	??4ImGuiTextEditState@@QAEAAU0@ABU0@@Z		; ImGuiTextEditState::operator=
PUBLIC	??4ImGuiTextEditState@@QAEAAU0@$$QAU0@@Z	; ImGuiTextEditState::operator=
PUBLIC	??0?$ImVector@PAUImGuiWindow@@@@QAE@XZ		; ImVector<ImGuiWindow *>::ImVector<ImGuiWindow *>
PUBLIC	??1?$ImVector@PAUImGuiWindow@@@@QAE@XZ		; ImVector<ImGuiWindow *>::~ImVector<ImGuiWindow *>
PUBLIC	??0?$ImVector@H@@QAE@XZ				; ImVector<int>::ImVector<int>
PUBLIC	??1?$ImVector@H@@QAE@XZ				; ImVector<int>::~ImVector<int>
PUBLIC	??0?$ImVector@UImGuiGroupData@@@@QAE@XZ		; ImVector<ImGuiGroupData>::ImVector<ImGuiGroupData>
PUBLIC	??1?$ImVector@UImGuiGroupData@@@@QAE@XZ		; ImVector<ImGuiGroupData>::~ImVector<ImGuiGroupData>
PUBLIC	??0?$ImVector@UImGuiColumnData@@@@QAE@XZ	; ImVector<ImGuiColumnData>::ImVector<ImGuiColumnData>
PUBLIC	??1?$ImVector@UImGuiColumnData@@@@QAE@XZ	; ImVector<ImGuiColumnData>::~ImVector<ImGuiColumnData>
PUBLIC	??0ImGuiDrawContext@@QAE@XZ			; ImGuiDrawContext::ImGuiDrawContext
PUBLIC	??1ImGuiDrawContext@@QAE@XZ			; ImGuiDrawContext::~ImGuiDrawContext
PUBLIC	??4ImGuiDrawContext@@QAEAAU0@ABU0@@Z		; ImGuiDrawContext::operator=
PUBLIC	??4ImGuiDrawContext@@QAEAAU0@$$QAU0@@Z		; ImGuiDrawContext::operator=
PUBLIC	?Rect@ImGuiWindow@@QBE?AUImRect@@XZ		; ImGuiWindow::Rect
PUBLIC	?CalcFontSize@ImGuiWindow@@QBEMXZ		; ImGuiWindow::CalcFontSize
PUBLIC	?TitleBarHeight@ImGuiWindow@@QBEMXZ		; ImGuiWindow::TitleBarHeight
PUBLIC	?TitleBarRect@ImGuiWindow@@QBE?AUImRect@@XZ	; ImGuiWindow::TitleBarRect
PUBLIC	?MenuBarHeight@ImGuiWindow@@QBEMXZ		; ImGuiWindow::MenuBarHeight
PUBLIC	?MenuBarRect@ImGuiWindow@@QBE?AUImRect@@XZ	; ImGuiWindow::MenuBarRect
PUBLIC	??4ImGuiWindow@@QAEAAU0@ABU0@@Z			; ImGuiWindow::operator=
PUBLIC	__MarkAllocaS
PUBLIC	__MallocaComputeSize
PUBLIC	??0?$ImVector@Ustbrp_rect@@@@QAE@XZ		; ImVector<stbrp_rect>::ImVector<stbrp_rect>
PUBLIC	??1?$ImVector@Ustbrp_rect@@@@QAE@XZ		; ImVector<stbrp_rect>::~ImVector<stbrp_rect>
PUBLIC	??A?$ImVector@Ustbrp_rect@@@@QAEAAUstbrp_rect@@H@Z ; ImVector<stbrp_rect>::operator[]
PUBLIC	?_grow_capacity@?$ImVector@Ustbrp_rect@@@@QAEHH@Z ; ImVector<stbrp_rect>::_grow_capacity
PUBLIC	?reserve@?$ImVector@Ustbrp_rect@@@@QAEXH@Z	; ImVector<stbrp_rect>::reserve
PUBLIC	?push_back@?$ImVector@Ustbrp_rect@@@@QAEXABUstbrp_rect@@@Z ; ImVector<stbrp_rect>::push_back
PUBLIC	?_Hash_seq@std@@YAIPBEI@Z			; std::_Hash_seq
PUBLIC	??R?$_Bitwise_hash@G@std@@QBEIABG@Z		; std::_Bitwise_hash<unsigned short>::operator()
PUBLIC	??2@YAPAXIPAX@Z					; operator new
PUBLIC	?_Orphan_all@_Container_base0@std@@QAEXXZ	; std::_Container_base0::_Orphan_all
PUBLIC	?_Adopt@_Iterator_base0@std@@QAEXPBX@Z		; std::_Iterator_base0::_Adopt
PUBLIC	?_Getcont@_Iterator_base0@std@@QBEPBU_Container_base0@2@XZ ; std::_Iterator_base0::_Getcont
PUBLIC	?_Allocate@std@@YAPAXII_N@Z			; std::_Allocate
PUBLIC	?_Deallocate@std@@YAXPAXII@Z			; std::_Deallocate
PUBLIC	??0?$_Uhash_compare@GU?$hash@G@std@@U?$equal_to@G@2@@std@@QAE@U?$hash@G@1@U?$equal_to@G@1@@Z ; std::_Uhash_compare<unsigned short,std::hash<unsigned short>,std::equal_to<unsigned short> >::_Uhash_compare<unsigned short,std::hash<unsigned short>,std::equal_to<unsigned short> >
PUBLIC	??R?$_Uhash_compare@GU?$hash@G@std@@U?$equal_to@G@2@@std@@QBEIABG@Z ; std::_Uhash_compare<unsigned short,std::hash<unsigned short>,std::equal_to<unsigned short> >::operator()
PUBLIC	??R?$_Uhash_compare@GU?$hash@G@std@@U?$equal_to@G@2@@std@@QBE_NABG0@Z ; std::_Uhash_compare<unsigned short,std::hash<unsigned short>,std::equal_to<unsigned short> >::operator()
PUBLIC	?_Gethash@?$_Uhash_compare@GU?$hash@G@std@@U?$equal_to@G@2@@std@@QBEABU?$hash@G@2@XZ ; std::_Uhash_compare<unsigned short,std::hash<unsigned short>,std::equal_to<unsigned short> >::_Gethash
PUBLIC	?_Getkeyeq@?$_Uhash_compare@GU?$hash@G@std@@U?$equal_to@G@2@@std@@QBEABU?$equal_to@G@2@XZ ; std::_Uhash_compare<unsigned short,std::hash<unsigned short>,std::equal_to<unsigned short> >::_Getkeyeq
PUBLIC	?_Get_max_bucket_size@?$_Uhash_compare@GU?$hash@G@std@@U?$equal_to@G@2@@std@@QAEAAMXZ ; std::_Uhash_compare<unsigned short,std::hash<unsigned short>,std::equal_to<unsigned short> >::_Get_max_bucket_size
PUBLIC	?_Get_max_bucket_size@?$_Uhash_compare@GU?$hash@G@std@@U?$equal_to@G@2@@std@@QBEABMXZ ; std::_Uhash_compare<unsigned short,std::hash<unsigned short>,std::equal_to<unsigned short> >::_Get_max_bucket_size
PUBLIC	??R?$equal_to@G@std@@QBE_NABG0@Z		; std::equal_to<unsigned short>::operator()
PUBLIC	?_Get_first@?$_Compressed_pair@U?$equal_to@G@std@@M$00@std@@QBEABU?$equal_to@G@2@XZ ; std::_Compressed_pair<std::equal_to<unsigned short>,float,1>::_Get_first
PUBLIC	?_Get_second@?$_Compressed_pair@U?$equal_to@G@std@@M$00@std@@QAEAAMXZ ; std::_Compressed_pair<std::equal_to<unsigned short>,float,1>::_Get_second
PUBLIC	?_Get_second@?$_Compressed_pair@U?$equal_to@G@std@@M$00@std@@QBEABMXZ ; std::_Compressed_pair<std::equal_to<unsigned short>,float,1>::_Get_second
PUBLIC	?_Get_first@?$_Compressed_pair@U?$hash@G@std@@V?$_Compressed_pair@U?$equal_to@G@std@@M$00@2@$00@std@@QBEABU?$hash@G@2@XZ ; std::_Compressed_pair<std::hash<unsigned short>,std::_Compressed_pair<std::equal_to<unsigned short>,float,1>,1>::_Get_first
PUBLIC	?_Get_second@?$_Compressed_pair@U?$hash@G@std@@V?$_Compressed_pair@U?$equal_to@G@std@@M$00@2@$00@std@@QAEAAV?$_Compressed_pair@U?$equal_to@G@std@@M$00@2@XZ ; std::_Compressed_pair<std::hash<unsigned short>,std::_Compressed_pair<std::equal_to<unsigned short>,float,1>,1>::_Get_second
PUBLIC	?_Get_second@?$_Compressed_pair@U?$hash@G@std@@V?$_Compressed_pair@U?$equal_to@G@std@@M$00@2@$00@std@@QBEABV?$_Compressed_pair@U?$equal_to@G@std@@M$00@2@XZ ; std::_Compressed_pair<std::hash<unsigned short>,std::_Compressed_pair<std::equal_to<unsigned short>,float,1>,1>::_Get_second
PUBLIC	??0?$_Uset_traits@GV?$_Uhash_compare@GU?$hash@G@std@@U?$equal_to@G@2@@std@@V?$allocator@G@2@$0A@@std@@QAE@ABV?$_Uhash_compare@GU?$hash@G@std@@U?$equal_to@G@2@@1@@Z ; std::_Uset_traits<unsigned short,std::_Uhash_compare<unsigned short,std::hash<unsigned short>,std::equal_to<unsigned short> >,std::allocator<unsigned short>,0>::_Uset_traits<unsigned short,std::_Uhash_compare<unsigned short,std::hash<unsigned short>,std::equal_to<unsigned short> >,std::allocator<unsigned short>,0>
PUBLIC	?_Kfn@?$_Uset_traits@GV?$_Uhash_compare@GU?$hash@G@std@@U?$equal_to@G@2@@std@@V?$allocator@G@2@$0A@@std@@SAABGABG@Z ; std::_Uset_traits<unsigned short,std::_Uhash_compare<unsigned short,std::hash<unsigned short>,std::equal_to<unsigned short> >,std::allocator<unsigned short>,0>::_Kfn
PUBLIC	??0?$allocator@G@std@@QAE@XZ			; std::allocator<unsigned short>::allocator<unsigned short>
PUBLIC	?deallocate@?$allocator@U?$_List_node@GPAX@std@@@std@@QAEXPAU?$_List_node@GPAX@2@I@Z ; std::allocator<std::_List_node<unsigned short,void *> >::deallocate
PUBLIC	?allocate@?$allocator@U?$_List_node@GPAX@std@@@std@@QAEPAU?$_List_node@GPAX@2@I@Z ; std::allocator<std::_List_node<unsigned short,void *> >::allocate
PUBLIC	?max_size@?$allocator@U?$_List_node@GPAX@std@@@std@@QBEIXZ ; std::allocator<std::_List_node<unsigned short,void *> >::max_size
PUBLIC	?max_size@?$allocator_traits@V?$allocator@U?$_List_node@GPAX@std@@@std@@@std@@SAIABV?$allocator@U?$_List_node@GPAX@std@@@2@@Z ; std::allocator_traits<std::allocator<std::_List_node<unsigned short,void *> > >::max_size
PUBLIC	?allocate@?$_Wrap_alloc@V?$allocator@U?$_List_node@GPAX@std@@@std@@@std@@QAEPAU?$_List_node@GPAX@2@I@Z ; std::_Wrap_alloc<std::allocator<std::_List_node<unsigned short,void *> > >::allocate
PUBLIC	?deallocate@?$_Wrap_alloc@V?$allocator@U?$_List_node@GPAX@std@@@std@@@std@@QAEXPAU?$_List_node@GPAX@2@I@Z ; std::_Wrap_alloc<std::allocator<std::_List_node<unsigned short,void *> > >::deallocate
PUBLIC	?max_size@?$_Wrap_alloc@V?$allocator@U?$_List_node@GPAX@std@@@std@@@std@@QBEIU_Nil@2@@Z ; std::_Wrap_alloc<std::allocator<std::_List_node<unsigned short,void *> > >::max_size
PUBLIC	?_Nextnode@?$_List_alloc@U?$_List_base_types@GV?$allocator@G@std@@@std@@@std@@SAAAPAU?$_List_node@GPAX@2@PAU32@@Z ; std::_List_alloc<std::_List_base_types<unsigned short,std::allocator<unsigned short> > >::_Nextnode
PUBLIC	?_Prevnode@?$_List_alloc@U?$_List_base_types@GV?$allocator@G@std@@@std@@@std@@SAAAPAU?$_List_node@GPAX@2@PAU32@@Z ; std::_List_alloc<std::_List_base_types<unsigned short,std::allocator<unsigned short> > >::_Prevnode
PUBLIC	?_Myval@?$_List_alloc@U?$_List_base_types@GV?$allocator@G@std@@@std@@@std@@SAAAGPAU?$_List_node@GPAX@2@@Z ; std::_List_alloc<std::_List_base_types<unsigned short,std::allocator<unsigned short> > >::_Myval
PUBLIC	??1?$_List_alloc@U?$_List_base_types@GV?$allocator@G@std@@@std@@@std@@QAE@XZ ; std::_List_alloc<std::_List_base_types<unsigned short,std::allocator<unsigned short> > >::~_List_alloc<std::_List_base_types<unsigned short,std::allocator<unsigned short> > >
PUBLIC	?_Buyheadnode@?$_List_alloc@U?$_List_base_types@GV?$allocator@G@std@@@std@@@std@@QAEPAU?$_List_node@GPAX@2@XZ ; std::_List_alloc<std::_List_base_types<unsigned short,std::allocator<unsigned short> > >::_Buyheadnode
PUBLIC	?_Freeheadnode@?$_List_alloc@U?$_List_base_types@GV?$allocator@G@std@@@std@@@std@@QAEXPAU?$_List_node@GPAX@2@@Z ; std::_List_alloc<std::_List_base_types<unsigned short,std::allocator<unsigned short> > >::_Freeheadnode
PUBLIC	?_Buynode0@?$_List_alloc@U?$_List_base_types@GV?$allocator@G@std@@@std@@@std@@QAEPAU?$_List_node@GPAX@2@PAU32@0@Z ; std::_List_alloc<std::_List_base_types<unsigned short,std::allocator<unsigned short> > >::_Buynode0
PUBLIC	?_Getal@?$_List_alloc@U?$_List_base_types@GV?$allocator@G@std@@@std@@@std@@QAEAAU?$_Wrap_alloc@V?$allocator@U?$_List_node@GPAX@std@@@std@@@2@XZ ; std::_List_alloc<std::_List_base_types<unsigned short,std::allocator<unsigned short> > >::_Getal
PUBLIC	?_Getal@?$_List_alloc@U?$_List_base_types@GV?$allocator@G@std@@@std@@@std@@QBEABU?$_Wrap_alloc@V?$allocator@U?$_List_node@GPAX@std@@@std@@@2@XZ ; std::_List_alloc<std::_List_base_types<unsigned short,std::allocator<unsigned short> > >::_Getal
PUBLIC	?_Get_data@?$_List_alloc@U?$_List_base_types@GV?$allocator@G@std@@@std@@@std@@QAEAAV?$_List_val@U?$_List_simple_types@G@std@@@2@XZ ; std::_List_alloc<std::_List_base_types<unsigned short,std::allocator<unsigned short> > >::_Get_data
PUBLIC	?_Get_data@?$_List_alloc@U?$_List_base_types@GV?$allocator@G@std@@@std@@@std@@QBEABV?$_List_val@U?$_List_simple_types@G@std@@@2@XZ ; std::_List_alloc<std::_List_base_types<unsigned short,std::allocator<unsigned short> > >::_Get_data
PUBLIC	?_Myhead@?$_List_alloc@U?$_List_base_types@GV?$allocator@G@std@@@std@@@std@@QAEAAPAU?$_List_node@GPAX@2@XZ ; std::_List_alloc<std::_List_base_types<unsigned short,std::allocator<unsigned short> > >::_Myhead
PUBLIC	?_Myhead@?$_List_alloc@U?$_List_base_types@GV?$allocator@G@std@@@std@@@std@@QBEABQAU?$_List_node@GPAX@2@XZ ; std::_List_alloc<std::_List_base_types<unsigned short,std::allocator<unsigned short> > >::_Myhead
PUBLIC	?_Mysize@?$_List_alloc@U?$_List_base_types@GV?$allocator@G@std@@@std@@@std@@QAEAAIXZ ; std::_List_alloc<std::_List_base_types<unsigned short,std::allocator<unsigned short> > >::_Mysize
PUBLIC	?_Mysize@?$_List_alloc@U?$_List_base_types@GV?$allocator@G@std@@@std@@@std@@QBEABIXZ ; std::_List_alloc<std::_List_base_types<unsigned short,std::allocator<unsigned short> > >::_Mysize
PUBLIC	??0?$_List_val@U?$_List_simple_types@G@std@@@std@@QAE@XZ ; std::_List_val<std::_List_simple_types<unsigned short> >::_List_val<std::_List_simple_types<unsigned short> >
PUBLIC	?_Nextnode@?$_List_val@U?$_List_simple_types@G@std@@@std@@SAAAPAU?$_List_node@GPAX@2@PAU32@@Z ; std::_List_val<std::_List_simple_types<unsigned short> >::_Nextnode
PUBLIC	?_Prevnode@?$_List_val@U?$_List_simple_types@G@std@@@std@@SAAAPAU?$_List_node@GPAX@2@PAU32@@Z ; std::_List_val<std::_List_simple_types<unsigned short> >::_Prevnode
PUBLIC	?_Myval@?$_List_val@U?$_List_simple_types@G@std@@@std@@SAAAGPAU?$_List_node@GPAX@2@@Z ; std::_List_val<std::_List_simple_types<unsigned short> >::_Myval
PUBLIC	?_Get_first@?$_Compressed_pair@U?$_Wrap_alloc@V?$allocator@U?$_List_node@GPAX@std@@@std@@@std@@V?$_List_val@U?$_List_simple_types@G@std@@@2@$00@std@@QAEAAU?$_Wrap_alloc@V?$allocator@U?$_List_node@GPAX@std@@@std@@@2@XZ ; std::_Compressed_pair<std::_Wrap_alloc<std::allocator<std::_List_node<unsigned short,void *> > >,std::_List_val<std::_List_simple_types<unsigned short> >,1>::_Get_first
PUBLIC	?_Get_first@?$_Compressed_pair@U?$_Wrap_alloc@V?$allocator@U?$_List_node@GPAX@std@@@std@@@std@@V?$_List_val@U?$_List_simple_types@G@std@@@2@$00@std@@QBEABU?$_Wrap_alloc@V?$allocator@U?$_List_node@GPAX@std@@@std@@@2@XZ ; std::_Compressed_pair<std::_Wrap_alloc<std::allocator<std::_List_node<unsigned short,void *> > >,std::_List_val<std::_List_simple_types<unsigned short> >,1>::_Get_first
PUBLIC	?_Get_second@?$_Compressed_pair@U?$_Wrap_alloc@V?$allocator@U?$_List_node@GPAX@std@@@std@@@std@@V?$_List_val@U?$_List_simple_types@G@std@@@2@$00@std@@QAEAAV?$_List_val@U?$_List_simple_types@G@std@@@2@XZ ; std::_Compressed_pair<std::_Wrap_alloc<std::allocator<std::_List_node<unsigned short,void *> > >,std::_List_val<std::_List_simple_types<unsigned short> >,1>::_Get_second
PUBLIC	?_Get_second@?$_Compressed_pair@U?$_Wrap_alloc@V?$allocator@U?$_List_node@GPAX@std@@@std@@@std@@V?$_List_val@U?$_List_simple_types@G@std@@@2@$00@std@@QBEABV?$_List_val@U?$_List_simple_types@G@std@@@2@XZ ; std::_Compressed_pair<std::_Wrap_alloc<std::allocator<std::_List_node<unsigned short,void *> > >,std::_List_val<std::_List_simple_types<unsigned short> >,1>::_Get_second
PUBLIC	?_Freenode@?$_List_buy@GV?$allocator@G@std@@@std@@QAEXPAU?$_List_node@GPAX@2@@Z ; std::_List_buy<unsigned short,std::allocator<unsigned short> >::_Freenode
PUBLIC	??1?$_List_buy@GV?$allocator@G@std@@@std@@QAE@XZ ; std::_List_buy<unsigned short,std::allocator<unsigned short> >::~_List_buy<unsigned short,std::allocator<unsigned short> >
PUBLIC	??0?$list@GV?$allocator@G@std@@@std@@QAE@ABV?$allocator@G@1@@Z ; std::list<unsigned short,std::allocator<unsigned short> >::list<unsigned short,std::allocator<unsigned short> >
PUBLIC	??1?$list@GV?$allocator@G@std@@@std@@QAE@XZ	; std::list<unsigned short,std::allocator<unsigned short> >::~list<unsigned short,std::allocator<unsigned short> >
PUBLIC	?begin@?$list@GV?$allocator@G@std@@@std@@QAE?AV?$_List_iterator@V?$_List_val@U?$_List_simple_types@G@std@@@std@@@2@XZ ; std::list<unsigned short,std::allocator<unsigned short> >::begin
PUBLIC	?end@?$list@GV?$allocator@G@std@@@std@@QBE?AV?$_List_const_iterator@V?$_List_val@U?$_List_simple_types@G@std@@@std@@@2@XZ ; std::list<unsigned short,std::allocator<unsigned short> >::end
PUBLIC	?_Unchecked_begin@?$list@GV?$allocator@G@std@@@std@@QAE?AV?$_List_unchecked_iterator@V?$_List_val@U?$_List_simple_types@G@std@@@std@@@2@XZ ; std::list<unsigned short,std::allocator<unsigned short> >::_Unchecked_begin
PUBLIC	?_Unchecked_end@?$list@GV?$allocator@G@std@@@std@@QAE?AV?$_List_unchecked_iterator@V?$_List_val@U?$_List_simple_types@G@std@@@std@@@2@XZ ; std::list<unsigned short,std::allocator<unsigned short> >::_Unchecked_end
PUBLIC	?_Unchecked_end@?$list@GV?$allocator@G@std@@@std@@QBE?AV?$_List_unchecked_const_iterator@V?$_List_val@U?$_List_simple_types@G@std@@@std@@U_Iterator_base0@2@@2@XZ ; std::list<unsigned short,std::allocator<unsigned short> >::_Unchecked_end
PUBLIC	?_Make_iter@?$list@GV?$allocator@G@std@@@std@@QBE?AV?$_List_iterator@V?$_List_val@U?$_List_simple_types@G@std@@@std@@@2@V?$_List_const_iterator@V?$_List_val@U?$_List_simple_types@G@std@@@std@@@2@@Z ; std::list<unsigned short,std::allocator<unsigned short> >::_Make_iter
PUBLIC	?_Make_iter@?$list@GV?$allocator@G@std@@@std@@QBE?AV?$_List_iterator@V?$_List_val@U?$_List_simple_types@G@std@@@std@@@2@V?$_List_unchecked_const_iterator@V?$_List_val@U?$_List_simple_types@G@std@@@std@@U_Iterator_base0@2@@2@@Z ; std::list<unsigned short,std::allocator<unsigned short> >::_Make_iter
PUBLIC	?size@?$list@GV?$allocator@G@std@@@std@@QBEIXZ	; std::list<unsigned short,std::allocator<unsigned short> >::size
PUBLIC	?max_size@?$list@GV?$allocator@G@std@@@std@@QBEIXZ ; std::list<unsigned short,std::allocator<unsigned short> >::max_size
PUBLIC	?front@?$list@GV?$allocator@G@std@@@std@@QAEAAGXZ ; std::list<unsigned short,std::allocator<unsigned short> >::front
PUBLIC	?_Unlinknode@?$list@GV?$allocator@G@std@@@std@@QAEPAU?$_List_node@GPAX@2@V?$_List_const_iterator@V?$_List_val@U?$_List_simple_types@G@std@@@std@@@2@@Z ; std::list<unsigned short,std::allocator<unsigned short> >::_Unlinknode
PUBLIC	?erase@?$list@GV?$allocator@G@std@@@std@@QAE?AV?$_List_iterator@V?$_List_val@U?$_List_simple_types@G@std@@@std@@@2@V?$_List_const_iterator@V?$_List_val@U?$_List_simple_types@G@std@@@std@@@2@@Z ; std::list<unsigned short,std::allocator<unsigned short> >::erase
PUBLIC	?clear@?$list@GV?$allocator@G@std@@@std@@QAEXXZ	; std::list<unsigned short,std::allocator<unsigned short> >::clear
PUBLIC	?_Unchecked_splice@?$list@GV?$allocator@G@std@@@std@@QAEXV?$_List_unchecked_const_iterator@V?$_List_val@U?$_List_simple_types@G@std@@@std@@U_Iterator_base0@2@@2@00@Z ; std::list<unsigned short,std::allocator<unsigned short> >::_Unchecked_splice
PUBLIC	?_Tidy@?$list@GV?$allocator@G@std@@@std@@QAEXXZ	; std::list<unsigned short,std::allocator<unsigned short> >::_Tidy
PUBLIC	?_Incsize@?$list@GV?$allocator@G@std@@@std@@QAEXI@Z ; std::list<unsigned short,std::allocator<unsigned short> >::_Incsize
PUBLIC	??0?$_Hash@V?$_Uset_traits@GV?$_Uhash_compare@GU?$hash@G@std@@U?$equal_to@G@2@@std@@V?$allocator@G@2@$0A@@std@@@std@@QAE@ABV?$_Uhash_compare@GU?$hash@G@std@@U?$equal_to@G@2@@1@ABV?$allocator@G@1@@Z ; std::_Hash<std::_Uset_traits<unsigned short,std::_Uhash_compare<unsigned short,std::hash<unsigned short>,std::equal_to<unsigned short> >,std::allocator<unsigned short>,0> >::_Hash<std::_Uset_traits<unsigned short,std::_Uhash_compare<unsigned short,std::hash<unsigned short>,std::equal_to<unsigned short> >,std::allocator<unsigned short>,0> >
PUBLIC	??1?$_Hash@V?$_Uset_traits@GV?$_Uhash_compare@GU?$hash@G@std@@U?$equal_to@G@2@@std@@V?$allocator@G@2@$0A@@std@@@std@@QAE@XZ ; std::_Hash<std::_Uset_traits<unsigned short,std::_Uhash_compare<unsigned short,std::hash<unsigned short>,std::equal_to<unsigned short> >,std::allocator<unsigned short>,0> >::~_Hash<std::_Uset_traits<unsigned short,std::_Uhash_compare<unsigned short,std::hash<unsigned short>,std::equal_to<unsigned short> >,std::allocator<unsigned short>,0> >
PUBLIC	?end@?$_Hash@V?$_Uset_traits@GV?$_Uhash_compare@GU?$hash@G@std@@U?$equal_to@G@2@@std@@V?$allocator@G@2@$0A@@std@@@std@@QBE?AV?$_List_const_iterator@V?$_List_val@U?$_List_simple_types@G@std@@@std@@@2@XZ ; std::_Hash<std::_Uset_traits<unsigned short,std::_Uhash_compare<unsigned short,std::hash<unsigned short>,std::equal_to<unsigned short> >,std::allocator<unsigned short>,0> >::end
PUBLIC	?_Unchecked_begin@?$_Hash@V?$_Uset_traits@GV?$_Uhash_compare@GU?$hash@G@std@@U?$equal_to@G@2@@std@@V?$allocator@G@2@$0A@@std@@@std@@QAE?AV?$_List_unchecked_const_iterator@V?$_List_val@U?$_List_simple_types@G@std@@@std@@U_Iterator_base0@2@@2@XZ ; std::_Hash<std::_Uset_traits<unsigned short,std::_Uhash_compare<unsigned short,std::hash<unsigned short>,std::equal_to<unsigned short> >,std::allocator<unsigned short>,0> >::_Unchecked_begin
PUBLIC	?_Unchecked_end@?$_Hash@V?$_Uset_traits@GV?$_Uhash_compare@GU?$hash@G@std@@U?$equal_to@G@2@@std@@V?$allocator@G@2@$0A@@std@@@std@@QAE?AV?$_List_unchecked_const_iterator@V?$_List_val@U?$_List_simple_types@G@std@@@std@@U_Iterator_base0@2@@2@XZ ; std::_Hash<std::_Uset_traits<unsigned short,std::_Uhash_compare<unsigned short,std::hash<unsigned short>,std::equal_to<unsigned short> >,std::allocator<unsigned short>,0> >::_Unchecked_end
PUBLIC	?_Unchecked_end@?$_Hash@V?$_Uset_traits@GV?$_Uhash_compare@GU?$hash@G@std@@U?$equal_to@G@2@@std@@V?$allocator@G@2@$0A@@std@@@std@@QBE?AV?$_List_unchecked_const_iterator@V?$_List_val@U?$_List_simple_types@G@std@@@std@@U_Iterator_base0@2@@2@XZ ; std::_Hash<std::_Uset_traits<unsigned short,std::_Uhash_compare<unsigned short,std::hash<unsigned short>,std::equal_to<unsigned short> >,std::allocator<unsigned short>,0> >::_Unchecked_end
PUBLIC	?_Make_iter@?$_Hash@V?$_Uset_traits@GV?$_Uhash_compare@GU?$hash@G@std@@U?$equal_to@G@2@@std@@V?$allocator@G@2@$0A@@std@@@std@@QBE?AV?$_List_const_iterator@V?$_List_val@U?$_List_simple_types@G@std@@@std@@@2@V?$_List_unchecked_const_iterator@V?$_List_val@U?$_List_simple_types@G@std@@@std@@U_Iterator_base0@2@@2@@Z ; std::_Hash<std::_Uset_traits<unsigned short,std::_Uhash_compare<unsigned short,std::hash<unsigned short>,std::equal_to<unsigned short> >,std::allocator<unsigned short>,0> >::_Make_iter
PUBLIC	?_Make_iter@?$_Hash@V?$_Uset_traits@GV?$_Uhash_compare@GU?$hash@G@std@@U?$equal_to@G@2@@std@@V?$allocator@G@2@$0A@@std@@@std@@QBE?AV?$_List_const_iterator@V?$_List_val@U?$_List_simple_types@G@std@@@std@@@2@V32@@Z ; std::_Hash<std::_Uset_traits<unsigned short,std::_Uhash_compare<unsigned short,std::hash<unsigned short>,std::equal_to<unsigned short> >,std::allocator<unsigned short>,0> >::_Make_iter
PUBLIC	?size@?$_Hash@V?$_Uset_traits@GV?$_Uhash_compare@GU?$hash@G@std@@U?$equal_to@G@2@@std@@V?$allocator@G@2@$0A@@std@@@std@@QBEIXZ ; std::_Hash<std::_Uset_traits<unsigned short,std::_Uhash_compare<unsigned short,std::hash<unsigned short>,std::equal_to<unsigned short> >,std::allocator<unsigned short>,0> >::size
PUBLIC	?bucket_count@?$_Hash@V?$_Uset_traits@GV?$_Uhash_compare@GU?$hash@G@std@@U?$equal_to@G@2@@std@@V?$allocator@G@2@$0A@@std@@@std@@QBEIXZ ; std::_Hash<std::_Uset_traits<unsigned short,std::_Uhash_compare<unsigned short,std::hash<unsigned short>,std::equal_to<unsigned short> >,std::allocator<unsigned short>,0> >::bucket_count
PUBLIC	?load_factor@?$_Hash@V?$_Uset_traits@GV?$_Uhash_compare@GU?$hash@G@std@@U?$equal_to@G@2@@std@@V?$allocator@G@2@$0A@@std@@@std@@QBEMXZ ; std::_Hash<std::_Uset_traits<unsigned short,std::_Uhash_compare<unsigned short,std::hash<unsigned short>,std::equal_to<unsigned short> >,std::allocator<unsigned short>,0> >::load_factor
PUBLIC	?max_load_factor@?$_Hash@V?$_Uset_traits@GV?$_Uhash_compare@GU?$hash@G@std@@U?$equal_to@G@2@@std@@V?$allocator@G@2@$0A@@std@@@std@@QBEMXZ ; std::_Hash<std::_Uset_traits<unsigned short,std::_Uhash_compare<unsigned short,std::hash<unsigned short>,std::equal_to<unsigned short> >,std::allocator<unsigned short>,0> >::max_load_factor
PUBLIC	?erase@?$_Hash@V?$_Uset_traits@GV?$_Uhash_compare@GU?$hash@G@std@@U?$equal_to@G@2@@std@@V?$allocator@G@2@$0A@@std@@@std@@QAE?AV?$_List_const_iterator@V?$_List_val@U?$_List_simple_types@G@std@@@std@@@2@V32@@Z ; std::_Hash<std::_Uset_traits<unsigned short,std::_Uhash_compare<unsigned short,std::hash<unsigned short>,std::equal_to<unsigned short> >,std::allocator<unsigned short>,0> >::erase
PUBLIC	?count@?$_Hash@V?$_Uset_traits@GV?$_Uhash_compare@GU?$hash@G@std@@U?$equal_to@G@2@@std@@V?$allocator@G@2@$0A@@std@@@std@@QBEIABG@Z ; std::_Hash<std::_Uset_traits<unsigned short,std::_Uhash_compare<unsigned short,std::hash<unsigned short>,std::equal_to<unsigned short> >,std::allocator<unsigned short>,0> >::count
PUBLIC	?equal_range@?$_Hash@V?$_Uset_traits@GV?$_Uhash_compare@GU?$hash@G@std@@U?$equal_to@G@2@@std@@V?$allocator@G@2@$0A@@std@@@std@@QBE?AU?$pair@V?$_List_const_iterator@V?$_List_val@U?$_List_simple_types@G@std@@@std@@@std@@V12@@2@ABG@Z ; std::_Hash<std::_Uset_traits<unsigned short,std::_Uhash_compare<unsigned short,std::hash<unsigned short>,std::equal_to<unsigned short> >,std::allocator<unsigned short>,0> >::equal_range
PUBLIC	?_Destroy_if_not_nil@?$_Hash@V?$_Uset_traits@GV?$_Uhash_compare@GU?$hash@G@std@@U?$equal_to@G@2@@std@@V?$allocator@G@2@$0A@@std@@@std@@IAEXV?$_List_unchecked_const_iterator@V?$_List_val@U?$_List_simple_types@G@std@@@std@@U_Iterator_base0@2@@2@@Z ; std::_Hash<std::_Uset_traits<unsigned short,std::_Uhash_compare<unsigned short,std::hash<unsigned short>,std::equal_to<unsigned short> >,std::allocator<unsigned short>,0> >::_Destroy_if_not_nil
PUBLIC	?_Vec_lo@?$_Hash@V?$_Uset_traits@GV?$_Uhash_compare@GU?$hash@G@std@@U?$equal_to@G@2@@std@@V?$allocator@G@2@$0A@@std@@@std@@IAEAAV?$_List_unchecked_const_iterator@V?$_List_val@U?$_List_simple_types@G@std@@@std@@U_Iterator_base0@2@@2@I@Z ; std::_Hash<std::_Uset_traits<unsigned short,std::_Uhash_compare<unsigned short,std::hash<unsigned short>,std::equal_to<unsigned short> >,std::allocator<unsigned short>,0> >::_Vec_lo
PUBLIC	?_Vec_lo@?$_Hash@V?$_Uset_traits@GV?$_Uhash_compare@GU?$hash@G@std@@U?$equal_to@G@2@@std@@V?$allocator@G@2@$0A@@std@@@std@@IBEAAV?$_List_unchecked_const_iterator@V?$_List_val@U?$_List_simple_types@G@std@@@std@@U_Iterator_base0@2@@2@I@Z ; std::_Hash<std::_Uset_traits<unsigned short,std::_Uhash_compare<unsigned short,std::hash<unsigned short>,std::equal_to<unsigned short> >,std::allocator<unsigned short>,0> >::_Vec_lo
PUBLIC	?_Vec_hi@?$_Hash@V?$_Uset_traits@GV?$_Uhash_compare@GU?$hash@G@std@@U?$equal_to@G@2@@std@@V?$allocator@G@2@$0A@@std@@@std@@IAEAAV?$_List_unchecked_const_iterator@V?$_List_val@U?$_List_simple_types@G@std@@@std@@U_Iterator_base0@2@@2@I@Z ; std::_Hash<std::_Uset_traits<unsigned short,std::_Uhash_compare<unsigned short,std::hash<unsigned short>,std::equal_to<unsigned short> >,std::allocator<unsigned short>,0> >::_Vec_hi
PUBLIC	?_Vec_hi@?$_Hash@V?$_Uset_traits@GV?$_Uhash_compare@GU?$hash@G@std@@U?$equal_to@G@2@@std@@V?$allocator@G@2@$0A@@std@@@std@@IBEAAV?$_List_unchecked_const_iterator@V?$_List_val@U?$_List_simple_types@G@std@@@std@@U_Iterator_base0@2@@2@I@Z ; std::_Hash<std::_Uset_traits<unsigned short,std::_Uhash_compare<unsigned short,std::hash<unsigned short>,std::equal_to<unsigned short> >,std::allocator<unsigned short>,0> >::_Vec_hi
PUBLIC	?_Begin@?$_Hash@V?$_Uset_traits@GV?$_Uhash_compare@GU?$hash@G@std@@U?$equal_to@G@2@@std@@V?$allocator@G@2@$0A@@std@@@std@@IAE?AV?$_List_unchecked_const_iterator@V?$_List_val@U?$_List_simple_types@G@std@@@std@@U_Iterator_base0@2@@2@I@Z ; std::_Hash<std::_Uset_traits<unsigned short,std::_Uhash_compare<unsigned short,std::hash<unsigned short>,std::equal_to<unsigned short> >,std::allocator<unsigned short>,0> >::_Begin
PUBLIC	?_Begin@?$_Hash@V?$_Uset_traits@GV?$_Uhash_compare@GU?$hash@G@std@@U?$equal_to@G@2@@std@@V?$allocator@G@2@$0A@@std@@@std@@IBE?AV?$_List_unchecked_const_iterator@V?$_List_val@U?$_List_simple_types@G@std@@@std@@U_Iterator_base0@2@@2@I@Z ; std::_Hash<std::_Uset_traits<unsigned short,std::_Uhash_compare<unsigned short,std::hash<unsigned short>,std::equal_to<unsigned short> >,std::allocator<unsigned short>,0> >::_Begin
PUBLIC	?_End@?$_Hash@V?$_Uset_traits@GV?$_Uhash_compare@GU?$hash@G@std@@U?$equal_to@G@2@@std@@V?$allocator@G@2@$0A@@std@@@std@@IAE?AV?$_List_unchecked_const_iterator@V?$_List_val@U?$_List_simple_types@G@std@@@std@@U_Iterator_base0@2@@2@I@Z ; std::_Hash<std::_Uset_traits<unsigned short,std::_Uhash_compare<unsigned short,std::hash<unsigned short>,std::equal_to<unsigned short> >,std::allocator<unsigned short>,0> >::_End
PUBLIC	?_End@?$_Hash@V?$_Uset_traits@GV?$_Uhash_compare@GU?$hash@G@std@@U?$equal_to@G@2@@std@@V?$allocator@G@2@$0A@@std@@@std@@IBE?AV?$_List_unchecked_const_iterator@V?$_List_val@U?$_List_simple_types@G@std@@@std@@U_Iterator_base0@2@@2@I@Z ; std::_Hash<std::_Uset_traits<unsigned short,std::_Uhash_compare<unsigned short,std::hash<unsigned short>,std::equal_to<unsigned short> >,std::allocator<unsigned short>,0> >::_End
PUBLIC	?_Erase_bucket@?$_Hash@V?$_Uset_traits@GV?$_Uhash_compare@GU?$hash@G@std@@U?$equal_to@G@2@@std@@V?$allocator@G@2@$0A@@std@@@std@@IAEXV?$_List_const_iterator@V?$_List_val@U?$_List_simple_types@G@std@@@std@@@2@I@Z ; std::_Hash<std::_Uset_traits<unsigned short,std::_Uhash_compare<unsigned short,std::hash<unsigned short>,std::equal_to<unsigned short> >,std::allocator<unsigned short>,0> >::_Erase_bucket
PUBLIC	?_Insert_bucket@?$_Hash@V?$_Uset_traits@GV?$_Uhash_compare@GU?$hash@G@std@@U?$equal_to@G@2@@std@@V?$allocator@G@2@$0A@@std@@@std@@IAEXV?$_List_unchecked_const_iterator@V?$_List_val@U?$_List_simple_types@G@std@@@std@@U_Iterator_base0@2@@2@0I@Z ; std::_Hash<std::_Uset_traits<unsigned short,std::_Uhash_compare<unsigned short,std::hash<unsigned short>,std::equal_to<unsigned short> >,std::allocator<unsigned short>,0> >::_Insert_bucket
PUBLIC	?_Hashval@?$_Hash@V?$_Uset_traits@GV?$_Uhash_compare@GU?$hash@G@std@@U?$equal_to@G@2@@std@@V?$allocator@G@2@$0A@@std@@@std@@IBEIABG@Z ; std::_Hash<std::_Uset_traits<unsigned short,std::_Uhash_compare<unsigned short,std::hash<unsigned short>,std::equal_to<unsigned short> >,std::allocator<unsigned short>,0> >::_Hashval
PUBLIC	?_Init@?$_Hash@V?$_Uset_traits@GV?$_Uhash_compare@GU?$hash@G@std@@U?$equal_to@G@2@@std@@V?$allocator@G@2@$0A@@std@@@std@@IAEXI@Z ; std::_Hash<std::_Uset_traits<unsigned short,std::_Uhash_compare<unsigned short,std::hash<unsigned short>,std::equal_to<unsigned short> >,std::allocator<unsigned short>,0> >::_Init
PUBLIC	?_Check_size@?$_Hash@V?$_Uset_traits@GV?$_Uhash_compare@GU?$hash@G@std@@U?$equal_to@G@2@@std@@V?$allocator@G@2@$0A@@std@@@std@@IAEXXZ ; std::_Hash<std::_Uset_traits<unsigned short,std::_Uhash_compare<unsigned short,std::hash<unsigned short>,std::equal_to<unsigned short> >,std::allocator<unsigned short>,0> >::_Check_size
PUBLIC	?_Reinsert@?$_Hash@V?$_Uset_traits@GV?$_Uhash_compare@GU?$hash@G@std@@U?$equal_to@G@2@@std@@V?$allocator@G@2@$0A@@std@@@std@@IAEXXZ ; std::_Hash<std::_Uset_traits<unsigned short,std::_Uhash_compare<unsigned short,std::hash<unsigned short>,std::equal_to<unsigned short> >,std::allocator<unsigned short>,0> >::_Reinsert
PUBLIC	?_Max_bucket_size@?$_Hash@V?$_Uset_traits@GV?$_Uhash_compare@GU?$hash@G@std@@U?$equal_to@G@2@@std@@V?$allocator@G@2@$0A@@std@@@std@@IAEAAMXZ ; std::_Hash<std::_Uset_traits<unsigned short,std::_Uhash_compare<unsigned short,std::hash<unsigned short>,std::equal_to<unsigned short> >,std::allocator<unsigned short>,0> >::_Max_bucket_size
PUBLIC	?_Max_bucket_size@?$_Hash@V?$_Uset_traits@GV?$_Uhash_compare@GU?$hash@G@std@@U?$equal_to@G@2@@std@@V?$allocator@G@2@$0A@@std@@@std@@IBEABMXZ ; std::_Hash<std::_Uset_traits<unsigned short,std::_Uhash_compare<unsigned short,std::hash<unsigned short>,std::equal_to<unsigned short> >,std::allocator<unsigned short>,0> >::_Max_bucket_size
PUBLIC	??0?$allocator@V?$_List_unchecked_const_iterator@V?$_List_val@U?$_List_simple_types@G@std@@@std@@U_Iterator_base0@2@@std@@@std@@QAE@ABV01@@Z ; std::allocator<std::_List_unchecked_const_iterator<std::_List_val<std::_List_simple_types<unsigned short> >,std::_Iterator_base0> >::allocator<std::_List_unchecked_const_iterator<std::_List_val<std::_List_simple_types<unsigned short> >,std::_Iterator_base0> >
PUBLIC	?deallocate@?$allocator@V?$_List_unchecked_const_iterator@V?$_List_val@U?$_List_simple_types@G@std@@@std@@U_Iterator_base0@2@@std@@@std@@QAEXPAV?$_List_unchecked_const_iterator@V?$_List_val@U?$_List_simple_types@G@std@@@std@@U_Iterator_base0@2@@2@I@Z ; std::allocator<std::_List_unchecked_const_iterator<std::_List_val<std::_List_simple_types<unsigned short> >,std::_Iterator_base0> >::deallocate
PUBLIC	?allocate@?$allocator@V?$_List_unchecked_const_iterator@V?$_List_val@U?$_List_simple_types@G@std@@@std@@U_Iterator_base0@2@@std@@@std@@QAEPAV?$_List_unchecked_const_iterator@V?$_List_val@U?$_List_simple_types@G@std@@@std@@U_Iterator_base0@2@@2@I@Z ; std::allocator<std::_List_unchecked_const_iterator<std::_List_val<std::_List_simple_types<unsigned short> >,std::_Iterator_base0> >::allocate
PUBLIC	?max_size@?$allocator@V?$_List_unchecked_const_iterator@V?$_List_val@U?$_List_simple_types@G@std@@@std@@U_Iterator_base0@2@@std@@@std@@QBEIXZ ; std::allocator<std::_List_unchecked_const_iterator<std::_List_val<std::_List_simple_types<unsigned short> >,std::_Iterator_base0> >::max_size
PUBLIC	?max_size@?$allocator_traits@V?$allocator@V?$_List_unchecked_const_iterator@V?$_List_val@U?$_List_simple_types@G@std@@@std@@U_Iterator_base0@2@@std@@@std@@@std@@SAIABV?$allocator@V?$_List_unchecked_const_iterator@V?$_List_val@U?$_List_simple_types@G@std@@@std@@U_Iterator_base0@2@@std@@@2@@Z ; std::allocator_traits<std::allocator<std::_List_unchecked_const_iterator<std::_List_val<std::_List_simple_types<unsigned short> >,std::_Iterator_base0> > >::max_size
PUBLIC	??0?$_Wrap_alloc@V?$allocator@V?$_List_unchecked_const_iterator@V?$_List_val@U?$_List_simple_types@G@std@@@std@@U_Iterator_base0@2@@std@@@std@@@std@@QAE@ABU01@@Z ; std::_Wrap_alloc<std::allocator<std::_List_unchecked_const_iterator<std::_List_val<std::_List_simple_types<unsigned short> >,std::_Iterator_base0> > >::_Wrap_alloc<std::allocator<std::_List_unchecked_const_iterator<std::_List_val<std::_List_simple_types<unsigned short> >,std::_Iterator_base0> > >
PUBLIC	?allocate@?$_Wrap_alloc@V?$allocator@V?$_List_unchecked_const_iterator@V?$_List_val@U?$_List_simple_types@G@std@@@std@@U_Iterator_base0@2@@std@@@std@@@std@@QAEPAV?$_List_unchecked_const_iterator@V?$_List_val@U?$_List_simple_types@G@std@@@std@@U_Iterator_base0@2@@2@I@Z ; std::_Wrap_alloc<std::allocator<std::_List_unchecked_const_iterator<std::_List_val<std::_List_simple_types<unsigned short> >,std::_Iterator_base0> > >::allocate
PUBLIC	?deallocate@?$_Wrap_alloc@V?$allocator@V?$_List_unchecked_const_iterator@V?$_List_val@U?$_List_simple_types@G@std@@@std@@U_Iterator_base0@2@@std@@@std@@@std@@QAEXPAV?$_List_unchecked_const_iterator@V?$_List_val@U?$_List_simple_types@G@std@@@std@@U_Iterator_base0@2@@2@I@Z ; std::_Wrap_alloc<std::allocator<std::_List_unchecked_const_iterator<std::_List_val<std::_List_simple_types<unsigned short> >,std::_Iterator_base0> > >::deallocate
PUBLIC	?max_size@?$_Wrap_alloc@V?$allocator@V?$_List_unchecked_const_iterator@V?$_List_val@U?$_List_simple_types@G@std@@@std@@U_Iterator_base0@2@@std@@@std@@@std@@QBEIU_Nil@2@@Z ; std::_Wrap_alloc<std::allocator<std::_List_unchecked_const_iterator<std::_List_val<std::_List_simple_types<unsigned short> >,std::_Iterator_base0> > >::max_size
PUBLIC	?max_size@?$allocator_traits@U?$_Wrap_alloc@V?$allocator@V?$_List_unchecked_const_iterator@V?$_List_val@U?$_List_simple_types@G@std@@@std@@U_Iterator_base0@2@@std@@@std@@@std@@@std@@SAIABU?$_Wrap_alloc@V?$allocator@V?$_List_unchecked_const_iterator@V?$_List_val@U?$_List_simple_types@G@std@@@std@@U_Iterator_base0@2@@std@@@std@@@2@@Z ; std::allocator_traits<std::_Wrap_alloc<std::allocator<std::_List_unchecked_const_iterator<std::_List_val<std::_List_simple_types<unsigned short> >,std::_Iterator_base0> > > >::max_size
PUBLIC	?allocate@?$_Wrap_alloc@U?$_Wrap_alloc@V?$allocator@V?$_List_unchecked_const_iterator@V?$_List_val@U?$_List_simple_types@G@std@@@std@@U_Iterator_base0@2@@std@@@std@@@std@@@std@@QAEPAV?$_List_unchecked_const_iterator@V?$_List_val@U?$_List_simple_types@G@std@@@std@@U_Iterator_base0@2@@2@I@Z ; std::_Wrap_alloc<std::_Wrap_alloc<std::allocator<std::_List_unchecked_const_iterator<std::_List_val<std::_List_simple_types<unsigned short> >,std::_Iterator_base0> > > >::allocate
PUBLIC	?deallocate@?$_Wrap_alloc@U?$_Wrap_alloc@V?$allocator@V?$_List_unchecked_const_iterator@V?$_List_val@U?$_List_simple_types@G@std@@@std@@U_Iterator_base0@2@@std@@@std@@@std@@@std@@QAEXPAV?$_List_unchecked_const_iterator@V?$_List_val@U?$_List_simple_types@G@std@@@std@@U_Iterator_base0@2@@2@I@Z ; std::_Wrap_alloc<std::_Wrap_alloc<std::allocator<std::_List_unchecked_const_iterator<std::_List_val<std::_List_simple_types<unsigned short> >,std::_Iterator_base0> > > >::deallocate
PUBLIC	?max_size@?$_Wrap_alloc@U?$_Wrap_alloc@V?$allocator@V?$_List_unchecked_const_iterator@V?$_List_val@U?$_List_simple_types@G@std@@@std@@U_Iterator_base0@2@@std@@@std@@@std@@@std@@QBEIU_Nil@2@@Z ; std::_Wrap_alloc<std::_Wrap_alloc<std::allocator<std::_List_unchecked_const_iterator<std::_List_val<std::_List_simple_types<unsigned short> >,std::_Iterator_base0> > > >::max_size
PUBLIC	?_Orphan_all@?$_Vector_alloc@U?$_Vec_base_types@V?$_List_unchecked_const_iterator@V?$_List_val@U?$_List_simple_types@G@std@@@std@@U_Iterator_base0@2@@std@@U?$_Wrap_alloc@V?$allocator@V?$_List_unchecked_const_iterator@V?$_List_val@U?$_List_simple_types@G@std@@@std@@U_Iterator_base0@2@@std@@@std@@@2@@std@@@std@@QAEXXZ ; std::_Vector_alloc<std::_Vec_base_types<std::_List_unchecked_const_iterator<std::_List_val<std::_List_simple_types<unsigned short> >,std::_Iterator_base0>,std::_Wrap_alloc<std::allocator<std::_List_unchecked_const_iterator<std::_List_val<std::_List_simple_types<unsigned short> >,std::_Iterator_base0> > > > >::_Orphan_all
PUBLIC	?_Getal@?$_Vector_alloc@U?$_Vec_base_types@V?$_List_unchecked_const_iterator@V?$_List_val@U?$_List_simple_types@G@std@@@std@@U_Iterator_base0@2@@std@@U?$_Wrap_alloc@V?$allocator@V?$_List_unchecked_const_iterator@V?$_List_val@U?$_List_simple_types@G@std@@@std@@U_Iterator_base0@2@@std@@@std@@@2@@std@@@std@@QAEAAU?$_Wrap_alloc@U?$_Wrap_alloc@V?$allocator@V?$_List_unchecked_const_iterator@V?$_List_val@U?$_List_simple_types@G@std@@@std@@U_Iterator_base0@2@@std@@@std@@@std@@@2@XZ ; std::_Vector_alloc<std::_Vec_base_types<std::_List_unchecked_const_iterator<std::_List_val<std::_List_simple_types<unsigned short> >,std::_Iterator_base0>,std::_Wrap_alloc<std::allocator<std::_List_unchecked_const_iterator<std::_List_val<std::_List_simple_types<unsigned short> >,std::_Iterator_base0> > > > >::_Getal
PUBLIC	?_Getal@?$_Vector_alloc@U?$_Vec_base_types@V?$_List_unchecked_const_iterator@V?$_List_val@U?$_List_simple_types@G@std@@@std@@U_Iterator_base0@2@@std@@U?$_Wrap_alloc@V?$allocator@V?$_List_unchecked_const_iterator@V?$_List_val@U?$_List_simple_types@G@std@@@std@@U_Iterator_base0@2@@std@@@std@@@2@@std@@@std@@QBEABU?$_Wrap_alloc@U?$_Wrap_alloc@V?$allocator@V?$_List_unchecked_const_iterator@V?$_List_val@U?$_List_simple_types@G@std@@@std@@U_Iterator_base0@2@@std@@@std@@@std@@@2@XZ ; std::_Vector_alloc<std::_Vec_base_types<std::_List_unchecked_const_iterator<std::_List_val<std::_List_simple_types<unsigned short> >,std::_Iterator_base0>,std::_Wrap_alloc<std::allocator<std::_List_unchecked_const_iterator<std::_List_val<std::_List_simple_types<unsigned short> >,std::_Iterator_base0> > > > >::_Getal
PUBLIC	?_Get_data@?$_Vector_alloc@U?$_Vec_base_types@V?$_List_unchecked_const_iterator@V?$_List_val@U?$_List_simple_types@G@std@@@std@@U_Iterator_base0@2@@std@@U?$_Wrap_alloc@V?$allocator@V?$_List_unchecked_const_iterator@V?$_List_val@U?$_List_simple_types@G@std@@@std@@U_Iterator_base0@2@@std@@@std@@@2@@std@@@std@@QAEAAV?$_Vector_val@U?$_Simple_types@V?$_List_unchecked_const_iterator@V?$_List_val@U?$_List_simple_types@G@std@@@std@@U_Iterator_base0@2@@std@@@std@@@2@XZ ; std::_Vector_alloc<std::_Vec_base_types<std::_List_unchecked_const_iterator<std::_List_val<std::_List_simple_types<unsigned short> >,std::_Iterator_base0>,std::_Wrap_alloc<std::allocator<std::_List_unchecked_const_iterator<std::_List_val<std::_List_simple_types<unsigned short> >,std::_Iterator_base0> > > > >::_Get_data
PUBLIC	?_Get_data@?$_Vector_alloc@U?$_Vec_base_types@V?$_List_unchecked_const_iterator@V?$_List_val@U?$_List_simple_types@G@std@@@std@@U_Iterator_base0@2@@std@@U?$_Wrap_alloc@V?$allocator@V?$_List_unchecked_const_iterator@V?$_List_val@U?$_List_simple_types@G@std@@@std@@U_Iterator_base0@2@@std@@@std@@@2@@std@@@std@@QBEABV?$_Vector_val@U?$_Simple_types@V?$_List_unchecked_const_iterator@V?$_List_val@U?$_List_simple_types@G@std@@@std@@U_Iterator_base0@2@@std@@@std@@@2@XZ ; std::_Vector_alloc<std::_Vec_base_types<std::_List_unchecked_const_iterator<std::_List_val<std::_List_simple_types<unsigned short> >,std::_Iterator_base0>,std::_Wrap_alloc<std::allocator<std::_List_unchecked_const_iterator<std::_List_val<std::_List_simple_types<unsigned short> >,std::_Iterator_base0> > > > >::_Get_data
PUBLIC	?_Myfirst@?$_Vector_alloc@U?$_Vec_base_types@V?$_List_unchecked_const_iterator@V?$_List_val@U?$_List_simple_types@G@std@@@std@@U_Iterator_base0@2@@std@@U?$_Wrap_alloc@V?$allocator@V?$_List_unchecked_const_iterator@V?$_List_val@U?$_List_simple_types@G@std@@@std@@U_Iterator_base0@2@@std@@@std@@@2@@std@@@std@@QAEAAPAV?$_List_unchecked_const_iterator@V?$_List_val@U?$_List_simple_types@G@std@@@std@@U_Iterator_base0@2@@2@XZ ; std::_Vector_alloc<std::_Vec_base_types<std::_List_unchecked_const_iterator<std::_List_val<std::_List_simple_types<unsigned short> >,std::_Iterator_base0>,std::_Wrap_alloc<std::allocator<std::_List_unchecked_const_iterator<std::_List_val<std::_List_simple_types<unsigned short> >,std::_Iterator_base0> > > > >::_Myfirst
PUBLIC	?_Myfirst@?$_Vector_alloc@U?$_Vec_base_types@V?$_List_unchecked_const_iterator@V?$_List_val@U?$_List_simple_types@G@std@@@std@@U_Iterator_base0@2@@std@@U?$_Wrap_alloc@V?$allocator@V?$_List_unchecked_const_iterator@V?$_List_val@U?$_List_simple_types@G@std@@@std@@U_Iterator_base0@2@@std@@@std@@@2@@std@@@std@@QBEABQAV?$_List_unchecked_const_iterator@V?$_List_val@U?$_List_simple_types@G@std@@@std@@U_Iterator_base0@2@@2@XZ ; std::_Vector_alloc<std::_Vec_base_types<std::_List_unchecked_const_iterator<std::_List_val<std::_List_simple_types<unsigned short> >,std::_Iterator_base0>,std::_Wrap_alloc<std::allocator<std::_List_unchecked_const_iterator<std::_List_val<std::_List_simple_types<unsigned short> >,std::_Iterator_base0> > > > >::_Myfirst
PUBLIC	?_Mylast@?$_Vector_alloc@U?$_Vec_base_types@V?$_List_unchecked_const_iterator@V?$_List_val@U?$_List_simple_types@G@std@@@std@@U_Iterator_base0@2@@std@@U?$_Wrap_alloc@V?$allocator@V?$_List_unchecked_const_iterator@V?$_List_val@U?$_List_simple_types@G@std@@@std@@U_Iterator_base0@2@@std@@@std@@@2@@std@@@std@@QAEAAPAV?$_List_unchecked_const_iterator@V?$_List_val@U?$_List_simple_types@G@std@@@std@@U_Iterator_base0@2@@2@XZ ; std::_Vector_alloc<std::_Vec_base_types<std::_List_unchecked_const_iterator<std::_List_val<std::_List_simple_types<unsigned short> >,std::_Iterator_base0>,std::_Wrap_alloc<std::allocator<std::_List_unchecked_const_iterator<std::_List_val<std::_List_simple_types<unsigned short> >,std::_Iterator_base0> > > > >::_Mylast
PUBLIC	?_Mylast@?$_Vector_alloc@U?$_Vec_base_types@V?$_List_unchecked_const_iterator@V?$_List_val@U?$_List_simple_types@G@std@@@std@@U_Iterator_base0@2@@std@@U?$_Wrap_alloc@V?$allocator@V?$_List_unchecked_const_iterator@V?$_List_val@U?$_List_simple_types@G@std@@@std@@U_Iterator_base0@2@@std@@@std@@@2@@std@@@std@@QBEABQAV?$_List_unchecked_const_iterator@V?$_List_val@U?$_List_simple_types@G@std@@@std@@U_Iterator_base0@2@@2@XZ ; std::_Vector_alloc<std::_Vec_base_types<std::_List_unchecked_const_iterator<std::_List_val<std::_List_simple_types<unsigned short> >,std::_Iterator_base0>,std::_Wrap_alloc<std::allocator<std::_List_unchecked_const_iterator<std::_List_val<std::_List_simple_types<unsigned short> >,std::_Iterator_base0> > > > >::_Mylast
PUBLIC	?_Myend@?$_Vector_alloc@U?$_Vec_base_types@V?$_List_unchecked_const_iterator@V?$_List_val@U?$_List_simple_types@G@std@@@std@@U_Iterator_base0@2@@std@@U?$_Wrap_alloc@V?$allocator@V?$_List_unchecked_const_iterator@V?$_List_val@U?$_List_simple_types@G@std@@@std@@U_Iterator_base0@2@@std@@@std@@@2@@std@@@std@@QAEAAPAV?$_List_unchecked_const_iterator@V?$_List_val@U?$_List_simple_types@G@std@@@std@@U_Iterator_base0@2@@2@XZ ; std::_Vector_alloc<std::_Vec_base_types<std::_List_unchecked_const_iterator<std::_List_val<std::_List_simple_types<unsigned short> >,std::_Iterator_base0>,std::_Wrap_alloc<std::allocator<std::_List_unchecked_const_iterator<std::_List_val<std::_List_simple_types<unsigned short> >,std::_Iterator_base0> > > > >::_Myend
PUBLIC	?_Myend@?$_Vector_alloc@U?$_Vec_base_types@V?$_List_unchecked_const_iterator@V?$_List_val@U?$_List_simple_types@G@std@@@std@@U_Iterator_base0@2@@std@@U?$_Wrap_alloc@V?$allocator@V?$_List_unchecked_const_iterator@V?$_List_val@U?$_List_simple_types@G@std@@@std@@U_Iterator_base0@2@@std@@@std@@@2@@std@@@std@@QBEABQAV?$_List_unchecked_const_iterator@V?$_List_val@U?$_List_simple_types@G@std@@@std@@U_Iterator_base0@2@@2@XZ ; std::_Vector_alloc<std::_Vec_base_types<std::_List_unchecked_const_iterator<std::_List_val<std::_List_simple_types<unsigned short> >,std::_Iterator_base0>,std::_Wrap_alloc<std::allocator<std::_List_unchecked_const_iterator<std::_List_val<std::_List_simple_types<unsigned short> >,std::_Iterator_base0> > > > >::_Myend
PUBLIC	??0?$_Vector_val@U?$_Simple_types@V?$_List_unchecked_const_iterator@V?$_List_val@U?$_List_simple_types@G@std@@@std@@U_Iterator_base0@2@@std@@@std@@@std@@QAE@XZ ; std::_Vector_val<std::_Simple_types<std::_List_unchecked_const_iterator<std::_List_val<std::_List_simple_types<unsigned short> >,std::_Iterator_base0> > >::_Vector_val<std::_Simple_types<std::_List_unchecked_const_iterator<std::_List_val<std::_List_simple_types<unsigned short> >,std::_Iterator_base0> > >
PUBLIC	?_Get_first@?$_Compressed_pair@U?$_Wrap_alloc@U?$_Wrap_alloc@V?$allocator@V?$_List_unchecked_const_iterator@V?$_List_val@U?$_List_simple_types@G@std@@@std@@U_Iterator_base0@2@@std@@@std@@@std@@@std@@V?$_Vector_val@U?$_Simple_types@V?$_List_unchecked_const_iterator@V?$_List_val@U?$_List_simple_types@G@std@@@std@@U_Iterator_base0@2@@std@@@std@@@2@$00@std@@QAEAAU?$_Wrap_alloc@U?$_Wrap_alloc@V?$allocator@V?$_List_unchecked_const_iterator@V?$_List_val@U?$_List_simple_types@G@std@@@std@@U_Iterator_base0@2@@std@@@std@@@std@@@2@XZ ; std::_Compressed_pair<std::_Wrap_alloc<std::_Wrap_alloc<std::allocator<std::_List_unchecked_const_iterator<std::_List_val<std::_List_simple_types<unsigned short> >,std::_Iterator_base0> > > >,std::_Vector_val<std::_Simple_types<std::_List_unchecked_const_iterator<std::_List_val<std::_List_simple_types<unsigned short> >,std::_Iterator_base0> > >,1>::_Get_first
PUBLIC	?_Get_first@?$_Compressed_pair@U?$_Wrap_alloc@U?$_Wrap_alloc@V?$allocator@V?$_List_unchecked_const_iterator@V?$_List_val@U?$_List_simple_types@G@std@@@std@@U_Iterator_base0@2@@std@@@std@@@std@@@std@@V?$_Vector_val@U?$_Simple_types@V?$_List_unchecked_const_iterator@V?$_List_val@U?$_List_simple_types@G@std@@@std@@U_Iterator_base0@2@@std@@@std@@@2@$00@std@@QBEABU?$_Wrap_alloc@U?$_Wrap_alloc@V?$allocator@V?$_List_unchecked_const_iterator@V?$_List_val@U?$_List_simple_types@G@std@@@std@@U_Iterator_base0@2@@std@@@std@@@std@@@2@XZ ; std::_Compressed_pair<std::_Wrap_alloc<std::_Wrap_alloc<std::allocator<std::_List_unchecked_const_iterator<std::_List_val<std::_List_simple_types<unsigned short> >,std::_Iterator_base0> > > >,std::_Vector_val<std::_Simple_types<std::_List_unchecked_const_iterator<std::_List_val<std::_List_simple_types<unsigned short> >,std::_Iterator_base0> > >,1>::_Get_first
PUBLIC	?_Get_second@?$_Compressed_pair@U?$_Wrap_alloc@U?$_Wrap_alloc@V?$allocator@V?$_List_unchecked_const_iterator@V?$_List_val@U?$_List_simple_types@G@std@@@std@@U_Iterator_base0@2@@std@@@std@@@std@@@std@@V?$_Vector_val@U?$_Simple_types@V?$_List_unchecked_const_iterator@V?$_List_val@U?$_List_simple_types@G@std@@@std@@U_Iterator_base0@2@@std@@@std@@@2@$00@std@@QAEAAV?$_Vector_val@U?$_Simple_types@V?$_List_unchecked_const_iterator@V?$_List_val@U?$_List_simple_types@G@std@@@std@@U_Iterator_base0@2@@std@@@std@@@2@XZ ; std::_Compressed_pair<std::_Wrap_alloc<std::_Wrap_alloc<std::allocator<std::_List_unchecked_const_iterator<std::_List_val<std::_List_simple_types<unsigned short> >,std::_Iterator_base0> > > >,std::_Vector_val<std::_Simple_types<std::_List_unchecked_const_iterator<std::_List_val<std::_List_simple_types<unsigned short> >,std::_Iterator_base0> > >,1>::_Get_second
PUBLIC	?_Get_second@?$_Compressed_pair@U?$_Wrap_alloc@U?$_Wrap_alloc@V?$allocator@V?$_List_unchecked_const_iterator@V?$_List_val@U?$_List_simple_types@G@std@@@std@@U_Iterator_base0@2@@std@@@std@@@std@@@std@@V?$_Vector_val@U?$_Simple_types@V?$_List_unchecked_const_iterator@V?$_List_val@U?$_List_simple_types@G@std@@@std@@U_Iterator_base0@2@@std@@@std@@@2@$00@std@@QBEABV?$_Vector_val@U?$_Simple_types@V?$_List_unchecked_const_iterator@V?$_List_val@U?$_List_simple_types@G@std@@@std@@U_Iterator_base0@2@@std@@@std@@@2@XZ ; std::_Compressed_pair<std::_Wrap_alloc<std::_Wrap_alloc<std::allocator<std::_List_unchecked_const_iterator<std::_List_val<std::_List_simple_types<unsigned short> >,std::_Iterator_base0> > > >,std::_Vector_val<std::_Simple_types<std::_List_unchecked_const_iterator<std::_List_val<std::_List_simple_types<unsigned short> >,std::_Iterator_base0> > >,1>::_Get_second
PUBLIC	??0?$vector@V?$_List_unchecked_const_iterator@V?$_List_val@U?$_List_simple_types@G@std@@@std@@U_Iterator_base0@2@@std@@U?$_Wrap_alloc@V?$allocator@V?$_List_unchecked_const_iterator@V?$_List_val@U?$_List_simple_types@G@std@@@std@@U_Iterator_base0@2@@std@@@std@@@2@@std@@QAE@ABU?$_Wrap_alloc@V?$allocator@V?$_List_unchecked_const_iterator@V?$_List_val@U?$_List_simple_types@G@std@@@std@@U_Iterator_base0@2@@std@@@std@@@1@@Z ; std::vector<std::_List_unchecked_const_iterator<std::_List_val<std::_List_simple_types<unsigned short> >,std::_Iterator_base0>,std::_Wrap_alloc<std::allocator<std::_List_unchecked_const_iterator<std::_List_val<std::_List_simple_types<unsigned short> >,std::_Iterator_base0> > > >::vector<std::_List_unchecked_const_iterator<std::_List_val<std::_List_simple_types<unsigned short> >,std::_Iterator_base0>,std::_Wrap_alloc<std::allocator<std::_List_unchecked_const_iterator<std::_List_val<std::_List_simple_types<unsigned short> >,std::_Iterator_base0> > > >
PUBLIC	??1?$vector@V?$_List_unchecked_const_iterator@V?$_List_val@U?$_List_simple_types@G@std@@@std@@U_Iterator_base0@2@@std@@U?$_Wrap_alloc@V?$allocator@V?$_List_unchecked_const_iterator@V?$_List_val@U?$_List_simple_types@G@std@@@std@@U_Iterator_base0@2@@std@@@std@@@2@@std@@QAE@XZ ; std::vector<std::_List_unchecked_const_iterator<std::_List_val<std::_List_simple_types<unsigned short> >,std::_Iterator_base0>,std::_Wrap_alloc<std::allocator<std::_List_unchecked_const_iterator<std::_List_val<std::_List_simple_types<unsigned short> >,std::_Iterator_base0> > > >::~vector<std::_List_unchecked_const_iterator<std::_List_val<std::_List_simple_types<unsigned short> >,std::_Iterator_base0>,std::_Wrap_alloc<std::allocator<std::_List_unchecked_const_iterator<std::_List_val<std::_List_simple_types<unsigned short> >,std::_Iterator_base0> > > >
PUBLIC	?assign@?$vector@V?$_List_unchecked_const_iterator@V?$_List_val@U?$_List_simple_types@G@std@@@std@@U_Iterator_base0@2@@std@@U?$_Wrap_alloc@V?$allocator@V?$_List_unchecked_const_iterator@V?$_List_val@U?$_List_simple_types@G@std@@@std@@U_Iterator_base0@2@@std@@@std@@@2@@std@@QAEXIABV?$_List_unchecked_const_iterator@V?$_List_val@U?$_List_simple_types@G@std@@@std@@U_Iterator_base0@2@@2@@Z ; std::vector<std::_List_unchecked_const_iterator<std::_List_val<std::_List_simple_types<unsigned short> >,std::_Iterator_base0>,std::_Wrap_alloc<std::allocator<std::_List_unchecked_const_iterator<std::_List_val<std::_List_simple_types<unsigned short> >,std::_Iterator_base0> > > >::assign
PUBLIC	?_Reallocate_exactly@?$vector@V?$_List_unchecked_const_iterator@V?$_List_val@U?$_List_simple_types@G@std@@@std@@U_Iterator_base0@2@@std@@U?$_Wrap_alloc@V?$allocator@V?$_List_unchecked_const_iterator@V?$_List_val@U?$_List_simple_types@G@std@@@std@@U_Iterator_base0@2@@std@@@std@@@2@@std@@AAEXI@Z ; std::vector<std::_List_unchecked_const_iterator<std::_List_val<std::_List_simple_types<unsigned short> >,std::_Iterator_base0>,std::_Wrap_alloc<std::allocator<std::_List_unchecked_const_iterator<std::_List_val<std::_List_simple_types<unsigned short> >,std::_Iterator_base0> > > >::_Reallocate_exactly
PUBLIC	?reserve@?$vector@V?$_List_unchecked_const_iterator@V?$_List_val@U?$_List_simple_types@G@std@@@std@@U_Iterator_base0@2@@std@@U?$_Wrap_alloc@V?$allocator@V?$_List_unchecked_const_iterator@V?$_List_val@U?$_List_simple_types@G@std@@@std@@U_Iterator_base0@2@@std@@@std@@@2@@std@@QAEXI@Z ; std::vector<std::_List_unchecked_const_iterator<std::_List_val<std::_List_simple_types<unsigned short> >,std::_Iterator_base0>,std::_Wrap_alloc<std::allocator<std::_List_unchecked_const_iterator<std::_List_val<std::_List_simple_types<unsigned short> >,std::_Iterator_base0> > > >::reserve
PUBLIC	?size@?$vector@V?$_List_unchecked_const_iterator@V?$_List_val@U?$_List_simple_types@G@std@@@std@@U_Iterator_base0@2@@std@@U?$_Wrap_alloc@V?$allocator@V?$_List_unchecked_const_iterator@V?$_List_val@U?$_List_simple_types@G@std@@@std@@U_Iterator_base0@2@@std@@@std@@@2@@std@@QBEIXZ ; std::vector<std::_List_unchecked_const_iterator<std::_List_val<std::_List_simple_types<unsigned short> >,std::_Iterator_base0>,std::_Wrap_alloc<std::allocator<std::_List_unchecked_const_iterator<std::_List_val<std::_List_simple_types<unsigned short> >,std::_Iterator_base0> > > >::size
PUBLIC	?max_size@?$vector@V?$_List_unchecked_const_iterator@V?$_List_val@U?$_List_simple_types@G@std@@@std@@U_Iterator_base0@2@@std@@U?$_Wrap_alloc@V?$allocator@V?$_List_unchecked_const_iterator@V?$_List_val@U?$_List_simple_types@G@std@@@std@@U_Iterator_base0@2@@std@@@std@@@2@@std@@QBEIXZ ; std::vector<std::_List_unchecked_const_iterator<std::_List_val<std::_List_simple_types<unsigned short> >,std::_Iterator_base0>,std::_Wrap_alloc<std::allocator<std::_List_unchecked_const_iterator<std::_List_val<std::_List_simple_types<unsigned short> >,std::_Iterator_base0> > > >::max_size
PUBLIC	?capacity@?$vector@V?$_List_unchecked_const_iterator@V?$_List_val@U?$_List_simple_types@G@std@@@std@@U_Iterator_base0@2@@std@@U?$_Wrap_alloc@V?$allocator@V?$_List_unchecked_const_iterator@V?$_List_val@U?$_List_simple_types@G@std@@@std@@U_Iterator_base0@2@@std@@@std@@@2@@std@@QBEIXZ ; std::vector<std::_List_unchecked_const_iterator<std::_List_val<std::_List_simple_types<unsigned short> >,std::_Iterator_base0>,std::_Wrap_alloc<std::allocator<std::_List_unchecked_const_iterator<std::_List_val<std::_List_simple_types<unsigned short> >,std::_Iterator_base0> > > >::capacity
PUBLIC	??A?$vector@V?$_List_unchecked_const_iterator@V?$_List_val@U?$_List_simple_types@G@std@@@std@@U_Iterator_base0@2@@std@@U?$_Wrap_alloc@V?$allocator@V?$_List_unchecked_const_iterator@V?$_List_val@U?$_List_simple_types@G@std@@@std@@U_Iterator_base0@2@@std@@@std@@@2@@std@@QAEAAV?$_List_unchecked_const_iterator@V?$_List_val@U?$_List_simple_types@G@std@@@std@@U_Iterator_base0@2@@1@I@Z ; std::vector<std::_List_unchecked_const_iterator<std::_List_val<std::_List_simple_types<unsigned short> >,std::_Iterator_base0>,std::_Wrap_alloc<std::allocator<std::_List_unchecked_const_iterator<std::_List_val<std::_List_simple_types<unsigned short> >,std::_Iterator_base0> > > >::operator[]
PUBLIC	??A?$vector@V?$_List_unchecked_const_iterator@V?$_List_val@U?$_List_simple_types@G@std@@@std@@U_Iterator_base0@2@@std@@U?$_Wrap_alloc@V?$allocator@V?$_List_unchecked_const_iterator@V?$_List_val@U?$_List_simple_types@G@std@@@std@@U_Iterator_base0@2@@std@@@std@@@2@@std@@QBEABV?$_List_unchecked_const_iterator@V?$_List_val@U?$_List_simple_types@G@std@@@std@@U_Iterator_base0@2@@1@I@Z ; std::vector<std::_List_unchecked_const_iterator<std::_List_val<std::_List_simple_types<unsigned short> >,std::_Iterator_base0>,std::_Wrap_alloc<std::allocator<std::_List_unchecked_const_iterator<std::_List_val<std::_List_simple_types<unsigned short> >,std::_Iterator_base0> > > >::operator[]
PUBLIC	?_Ufill@?$vector@V?$_List_unchecked_const_iterator@V?$_List_val@U?$_List_simple_types@G@std@@@std@@U_Iterator_base0@2@@std@@U?$_Wrap_alloc@V?$allocator@V?$_List_unchecked_const_iterator@V?$_List_val@U?$_List_simple_types@G@std@@@std@@U_Iterator_base0@2@@std@@@std@@@2@@std@@AAEPAV?$_List_unchecked_const_iterator@V?$_List_val@U?$_List_simple_types@G@std@@@std@@U_Iterator_base0@2@@2@PAV32@IABV32@@Z ; std::vector<std::_List_unchecked_const_iterator<std::_List_val<std::_List_simple_types<unsigned short> >,std::_Iterator_base0>,std::_Wrap_alloc<std::allocator<std::_List_unchecked_const_iterator<std::_List_val<std::_List_simple_types<unsigned short> >,std::_Iterator_base0> > > >::_Ufill
PUBLIC	?_Umove_if_noexcept1@?$vector@V?$_List_unchecked_const_iterator@V?$_List_val@U?$_List_simple_types@G@std@@@std@@U_Iterator_base0@2@@std@@U?$_Wrap_alloc@V?$allocator@V?$_List_unchecked_const_iterator@V?$_List_val@U?$_List_simple_types@G@std@@@std@@U_Iterator_base0@2@@std@@@std@@@2@@std@@AAEXPAV?$_List_unchecked_const_iterator@V?$_List_val@U?$_List_simple_types@G@std@@@std@@U_Iterator_base0@2@@2@00U?$integral_constant@_N$00@2@@Z ; std::vector<std::_List_unchecked_const_iterator<std::_List_val<std::_List_simple_types<unsigned short> >,std::_Iterator_base0>,std::_Wrap_alloc<std::allocator<std::_List_unchecked_const_iterator<std::_List_val<std::_List_simple_types<unsigned short> >,std::_Iterator_base0> > > >::_Umove_if_noexcept1
PUBLIC	?_Umove_if_noexcept@?$vector@V?$_List_unchecked_const_iterator@V?$_List_val@U?$_List_simple_types@G@std@@@std@@U_Iterator_base0@2@@std@@U?$_Wrap_alloc@V?$allocator@V?$_List_unchecked_const_iterator@V?$_List_val@U?$_List_simple_types@G@std@@@std@@U_Iterator_base0@2@@std@@@std@@@2@@std@@AAEXPAV?$_List_unchecked_const_iterator@V?$_List_val@U?$_List_simple_types@G@std@@@std@@U_Iterator_base0@2@@2@00@Z ; std::vector<std::_List_unchecked_const_iterator<std::_List_val<std::_List_simple_types<unsigned short> >,std::_Iterator_base0>,std::_Wrap_alloc<std::allocator<std::_List_unchecked_const_iterator<std::_List_val<std::_List_simple_types<unsigned short> >,std::_Iterator_base0> > > >::_Umove_if_noexcept
PUBLIC	?_Destroy@?$vector@V?$_List_unchecked_const_iterator@V?$_List_val@U?$_List_simple_types@G@std@@@std@@U_Iterator_base0@2@@std@@U?$_Wrap_alloc@V?$allocator@V?$_List_unchecked_const_iterator@V?$_List_val@U?$_List_simple_types@G@std@@@std@@U_Iterator_base0@2@@std@@@std@@@2@@std@@AAEXPAV?$_List_unchecked_const_iterator@V?$_List_val@U?$_List_simple_types@G@std@@@std@@U_Iterator_base0@2@@2@0@Z ; std::vector<std::_List_unchecked_const_iterator<std::_List_val<std::_List_simple_types<unsigned short> >,std::_Iterator_base0>,std::_Wrap_alloc<std::allocator<std::_List_unchecked_const_iterator<std::_List_val<std::_List_simple_types<unsigned short> >,std::_Iterator_base0> > > >::_Destroy
PUBLIC	?_Calculate_growth@?$vector@V?$_List_unchecked_const_iterator@V?$_List_val@U?$_List_simple_types@G@std@@@std@@U_Iterator_base0@2@@std@@U?$_Wrap_alloc@V?$allocator@V?$_List_unchecked_const_iterator@V?$_List_val@U?$_List_simple_types@G@std@@@std@@U_Iterator_base0@2@@std@@@std@@@2@@std@@ABEII@Z ; std::vector<std::_List_unchecked_const_iterator<std::_List_val<std::_List_simple_types<unsigned short> >,std::_Iterator_base0>,std::_Wrap_alloc<std::allocator<std::_List_unchecked_const_iterator<std::_List_val<std::_List_simple_types<unsigned short> >,std::_Iterator_base0> > > >::_Calculate_growth
PUBLIC	?_Buy@?$vector@V?$_List_unchecked_const_iterator@V?$_List_val@U?$_List_simple_types@G@std@@@std@@U_Iterator_base0@2@@std@@U?$_Wrap_alloc@V?$allocator@V?$_List_unchecked_const_iterator@V?$_List_val@U?$_List_simple_types@G@std@@@std@@U_Iterator_base0@2@@std@@@std@@@2@@std@@AAE_NI@Z ; std::vector<std::_List_unchecked_const_iterator<std::_List_val<std::_List_simple_types<unsigned short> >,std::_Iterator_base0>,std::_Wrap_alloc<std::allocator<std::_List_unchecked_const_iterator<std::_List_val<std::_List_simple_types<unsigned short> >,std::_Iterator_base0> > > >::_Buy
PUBLIC	?_Change_array@?$vector@V?$_List_unchecked_const_iterator@V?$_List_val@U?$_List_simple_types@G@std@@@std@@U_Iterator_base0@2@@std@@U?$_Wrap_alloc@V?$allocator@V?$_List_unchecked_const_iterator@V?$_List_val@U?$_List_simple_types@G@std@@@std@@U_Iterator_base0@2@@std@@@std@@@2@@std@@AAEXQAV?$_List_unchecked_const_iterator@V?$_List_val@U?$_List_simple_types@G@std@@@std@@U_Iterator_base0@2@@2@II@Z ; std::vector<std::_List_unchecked_const_iterator<std::_List_val<std::_List_simple_types<unsigned short> >,std::_Iterator_base0>,std::_Wrap_alloc<std::allocator<std::_List_unchecked_const_iterator<std::_List_val<std::_List_simple_types<unsigned short> >,std::_Iterator_base0> > > >::_Change_array
PUBLIC	?_Tidy@?$vector@V?$_List_unchecked_const_iterator@V?$_List_val@U?$_List_simple_types@G@std@@@std@@U_Iterator_base0@2@@std@@U?$_Wrap_alloc@V?$allocator@V?$_List_unchecked_const_iterator@V?$_List_val@U?$_List_simple_types@G@std@@@std@@U_Iterator_base0@2@@std@@@std@@@2@@std@@AAEXXZ ; std::vector<std::_List_unchecked_const_iterator<std::_List_val<std::_List_simple_types<unsigned short> >,std::_Iterator_base0>,std::_Wrap_alloc<std::allocator<std::_List_unchecked_const_iterator<std::_List_val<std::_List_simple_types<unsigned short> >,std::_Iterator_base0> > > >::_Tidy
PUBLIC	?_Xlength@?$vector@V?$_List_unchecked_const_iterator@V?$_List_val@U?$_List_simple_types@G@std@@@std@@U_Iterator_base0@2@@std@@U?$_Wrap_alloc@V?$allocator@V?$_List_unchecked_const_iterator@V?$_List_val@U?$_List_simple_types@G@std@@@std@@U_Iterator_base0@2@@std@@@std@@@2@@std@@CAXXZ ; std::vector<std::_List_unchecked_const_iterator<std::_List_val<std::_List_simple_types<unsigned short> >,std::_Iterator_base0>,std::_Wrap_alloc<std::allocator<std::_List_unchecked_const_iterator<std::_List_val<std::_List_simple_types<unsigned short> >,std::_Iterator_base0> > > >::_Xlength
PUBLIC	??0?$unordered_set@GU?$hash@G@std@@U?$equal_to@G@2@V?$allocator@G@2@@std@@QAE@XZ ; std::unordered_set<unsigned short,std::hash<unsigned short>,std::equal_to<unsigned short>,std::allocator<unsigned short> >::unordered_set<unsigned short,std::hash<unsigned short>,std::equal_to<unsigned short>,std::allocator<unsigned short> >
PUBLIC	??1?$unordered_set@GU?$hash@G@std@@U?$equal_to@G@2@V?$allocator@G@2@@std@@QAE@XZ ; std::unordered_set<unsigned short,std::hash<unsigned short>,std::equal_to<unsigned short>,std::allocator<unsigned short> >::~unordered_set<unsigned short,std::hash<unsigned short>,std::equal_to<unsigned short>,std::allocator<unsigned short> >
PUBLIC	??$emplace@G@?$_Hash@V?$_Uset_traits@GV?$_Uhash_compare@GU?$hash@G@std@@U?$equal_to@G@2@@std@@V?$allocator@G@2@$0A@@std@@@std@@QAE?AU?$pair@V?$_List_const_iterator@V?$_List_val@U?$_List_simple_types@G@std@@@std@@@std@@_N@1@$$QAG@Z ; std::_Hash<std::_Uset_traits<unsigned short,std::_Uhash_compare<unsigned short,std::hash<unsigned short>,std::equal_to<unsigned short> >,std::allocator<unsigned short>,0> >::emplace<unsigned short>
PUBLIC	??0?$_List_unchecked_const_iterator@V?$_List_val@U?$_List_simple_types@G@std@@@std@@U_Iterator_base0@2@@std@@QAE@XZ ; std::_List_unchecked_const_iterator<std::_List_val<std::_List_simple_types<unsigned short> >,std::_Iterator_base0>::_List_unchecked_const_iterator<std::_List_val<std::_List_simple_types<unsigned short> >,std::_Iterator_base0>
PUBLIC	??0?$_List_unchecked_const_iterator@V?$_List_val@U?$_List_simple_types@G@std@@@std@@U_Iterator_base0@2@@std@@QAE@PAU?$_List_node@GPAX@1@PBV?$_List_val@U?$_List_simple_types@G@std@@@1@@Z ; std::_List_unchecked_const_iterator<std::_List_val<std::_List_simple_types<unsigned short> >,std::_Iterator_base0>::_List_unchecked_const_iterator<std::_List_val<std::_List_simple_types<unsigned short> >,std::_Iterator_base0>
PUBLIC	??D?$_List_unchecked_const_iterator@V?$_List_val@U?$_List_simple_types@G@std@@@std@@U_Iterator_base0@2@@std@@QBEABGXZ ; std::_List_unchecked_const_iterator<std::_List_val<std::_List_simple_types<unsigned short> >,std::_Iterator_base0>::operator*
PUBLIC	??E?$_List_unchecked_const_iterator@V?$_List_val@U?$_List_simple_types@G@std@@@std@@U_Iterator_base0@2@@std@@QAEAAV01@XZ ; std::_List_unchecked_const_iterator<std::_List_val<std::_List_simple_types<unsigned short> >,std::_Iterator_base0>::operator++
PUBLIC	??F?$_List_unchecked_const_iterator@V?$_List_val@U?$_List_simple_types@G@std@@@std@@U_Iterator_base0@2@@std@@QAEAAV01@XZ ; std::_List_unchecked_const_iterator<std::_List_val<std::_List_simple_types<unsigned short> >,std::_Iterator_base0>::operator--
PUBLIC	??8?$_List_unchecked_const_iterator@V?$_List_val@U?$_List_simple_types@G@std@@@std@@U_Iterator_base0@2@@std@@QBE_NABV01@@Z ; std::_List_unchecked_const_iterator<std::_List_val<std::_List_simple_types<unsigned short> >,std::_Iterator_base0>::operator==
PUBLIC	??9?$_List_unchecked_const_iterator@V?$_List_val@U?$_List_simple_types@G@std@@@std@@U_Iterator_base0@2@@std@@QBE_NABV01@@Z ; std::_List_unchecked_const_iterator<std::_List_val<std::_List_simple_types<unsigned short> >,std::_Iterator_base0>::operator!=
PUBLIC	?_Mynode@?$_List_unchecked_const_iterator@V?$_List_val@U?$_List_simple_types@G@std@@@std@@U_Iterator_base0@2@@std@@QBEPAU?$_List_node@GPAX@2@XZ ; std::_List_unchecked_const_iterator<std::_List_val<std::_List_simple_types<unsigned short> >,std::_Iterator_base0>::_Mynode
PUBLIC	??0?$_List_const_iterator@V?$_List_val@U?$_List_simple_types@G@std@@@std@@@std@@QAE@PAU?$_List_node@GPAX@1@PBV?$_List_val@U?$_List_simple_types@G@std@@@1@@Z ; std::_List_const_iterator<std::_List_val<std::_List_simple_types<unsigned short> > >::_List_const_iterator<std::_List_val<std::_List_simple_types<unsigned short> > >
PUBLIC	?_Unchecked@?$_List_const_iterator@V?$_List_val@U?$_List_simple_types@G@std@@@std@@@std@@QBE?AV?$_List_unchecked_const_iterator@V?$_List_val@U?$_List_simple_types@G@std@@@std@@U_Iterator_base0@2@@2@XZ ; std::_List_const_iterator<std::_List_val<std::_List_simple_types<unsigned short> > >::_Unchecked
PUBLIC	??D?$_List_const_iterator@V?$_List_val@U?$_List_simple_types@G@std@@@std@@@std@@QBEABGXZ ; std::_List_const_iterator<std::_List_val<std::_List_simple_types<unsigned short> > >::operator*
PUBLIC	??E?$_List_const_iterator@V?$_List_val@U?$_List_simple_types@G@std@@@std@@@std@@QAEAAV01@XZ ; std::_List_const_iterator<std::_List_val<std::_List_simple_types<unsigned short> > >::operator++
PUBLIC	??E?$_List_const_iterator@V?$_List_val@U?$_List_simple_types@G@std@@@std@@@std@@QAE?AV01@H@Z ; std::_List_const_iterator<std::_List_val<std::_List_simple_types<unsigned short> > >::operator++
PUBLIC	??8?$_List_const_iterator@V?$_List_val@U?$_List_simple_types@G@std@@@std@@@std@@QBE_NABV01@@Z ; std::_List_const_iterator<std::_List_val<std::_List_simple_types<unsigned short> > >::operator==
PUBLIC	??9?$_List_const_iterator@V?$_List_val@U?$_List_simple_types@G@std@@@std@@@std@@QBE_NABV01@@Z ; std::_List_const_iterator<std::_List_val<std::_List_simple_types<unsigned short> > >::operator!=
PUBLIC	??$distance@V?$_List_const_iterator@V?$_List_val@U?$_List_simple_types@G@std@@@std@@@std@@@std@@YAHV?$_List_const_iterator@V?$_List_val@U?$_List_simple_types@G@std@@@std@@@0@0@Z ; std::distance<std::_List_const_iterator<std::_List_val<std::_List_simple_types<unsigned short> > > >
PUBLIC	??$?0V?$_List_const_iterator@V?$_List_val@U?$_List_simple_types@G@std@@@std@@@std@@V01@X$0A@@?$pair@V?$_List_const_iterator@V?$_List_val@U?$_List_simple_types@G@std@@@std@@@std@@V12@@std@@QAE@$$QAV?$_List_const_iterator@V?$_List_val@U?$_List_simple_types@G@std@@@std@@@1@0@Z ; std::pair<std::_List_const_iterator<std::_List_val<std::_List_simple_types<unsigned short> > >,std::_List_const_iterator<std::_List_val<std::_List_simple_types<unsigned short> > > >::pair<std::_List_const_iterator<std::_List_val<std::_List_simple_types<unsigned short> > >,std::_List_const_iterator<std::_List_val<std::_List_simple_types<unsigned short> > > ><std::_List_const_iterator<std::_List_val<std::_List_simple_types<unsigned short> > >,std::_List_const_iterator<std::_List_val<std::_List_simple_types<unsigned short> > >,void,0>
PUBLIC	??$?0ABV?$allocator@G@std@@@?$_Wrap_alloc@V?$allocator@V?$_List_unchecked_const_iterator@V?$_List_val@U?$_List_simple_types@G@std@@@std@@U_Iterator_base0@2@@std@@@std@@@std@@QAE@ABV?$allocator@G@1@@Z ; std::_Wrap_alloc<std::allocator<std::_List_unchecked_const_iterator<std::_List_val<std::_List_simple_types<unsigned short> >,std::_Iterator_base0> > >::_Wrap_alloc<std::allocator<std::_List_unchecked_const_iterator<std::_List_val<std::_List_simple_types<unsigned short> >,std::_Iterator_base0> > ><std::allocator<unsigned short> const &>
PUBLIC	??$?0AAU?$hash@G@std@@U_One_then_variadic_args_t@1@AAU?$equal_to@G@1@M@?$_Compressed_pair@U?$hash@G@std@@V?$_Compressed_pair@U?$equal_to@G@std@@M$00@2@$00@std@@QAE@U_One_then_variadic_args_t@1@AAU?$hash@G@1@$$QAU21@AAU?$equal_to@G@1@$$QAM@Z ; std::_Compressed_pair<std::hash<unsigned short>,std::_Compressed_pair<std::equal_to<unsigned short>,float,1>,1>::_Compressed_pair<std::hash<unsigned short>,std::_Compressed_pair<std::equal_to<unsigned short>,float,1>,1><std::hash<unsigned short> &,std::_One_then_variadic_args_t,std::equal_to<unsigned short> &,float>
PUBLIC	??$?0ABU?$_Wrap_alloc@V?$allocator@V?$_List_unchecked_const_iterator@V?$_List_val@U?$_List_simple_types@G@std@@@std@@U_Iterator_base0@2@@std@@@std@@@std@@X@?$_Vector_alloc@U?$_Vec_base_types@V?$_List_unchecked_const_iterator@V?$_List_val@U?$_List_simple_types@G@std@@@std@@U_Iterator_base0@2@@std@@U?$_Wrap_alloc@V?$allocator@V?$_List_unchecked_const_iterator@V?$_List_val@U?$_List_simple_types@G@std@@@std@@U_Iterator_base0@2@@std@@@std@@@2@@std@@@std@@QAE@ABU?$_Wrap_alloc@V?$allocator@V?$_List_unchecked_const_iterator@V?$_List_val@U?$_List_simple_types@G@std@@@std@@U_Iterator_base0@2@@std@@@std@@@1@@Z ; std::_Vector_alloc<std::_Vec_base_types<std::_List_unchecked_const_iterator<std::_List_val<std::_List_simple_types<unsigned short> >,std::_Iterator_base0>,std::_Wrap_alloc<std::allocator<std::_List_unchecked_const_iterator<std::_List_val<std::_List_simple_types<unsigned short> >,std::_Iterator_base0> > > > >::_Vector_alloc<std::_Vec_base_types<std::_List_unchecked_const_iterator<std::_List_val<std::_List_simple_types<unsigned short> >,std::_Iterator_base0>,std::_Wrap_alloc<std::allocator<std::_List_unchecked_const_iterator<std::_List_val<std::_List_simple_types<unsigned short> >,std::_Iterator_base0> > > > ><std::_Wrap_alloc<std::allocator<std::_List_unchecked_const_iterator<std::_List_val<std::_List_simple_types<unsigned short> >,std::_Iterator_base0> > > const &,void>
PUBLIC	??$?0ABV?$allocator@G@std@@X@?$_List_buy@GV?$allocator@G@std@@@std@@QAE@ABV?$allocator@G@1@@Z ; std::_List_buy<unsigned short,std::allocator<unsigned short> >::_List_buy<unsigned short,std::allocator<unsigned short> ><std::allocator<unsigned short> const &,void>
PUBLIC	??0?$_List_iterator@V?$_List_val@U?$_List_simple_types@G@std@@@std@@@std@@QAE@PAU?$_List_node@GPAX@1@PBV?$_List_val@U?$_List_simple_types@G@std@@@1@@Z ; std::_List_iterator<std::_List_val<std::_List_simple_types<unsigned short> > >::_List_iterator<std::_List_val<std::_List_simple_types<unsigned short> > >
PUBLIC	??D?$_List_iterator@V?$_List_val@U?$_List_simple_types@G@std@@@std@@@std@@QBEAAGXZ ; std::_List_iterator<std::_List_val<std::_List_simple_types<unsigned short> > >::operator*
PUBLIC	??$_Destroy_range@U?$_Wrap_alloc@V?$allocator@V?$_List_unchecked_const_iterator@V?$_List_val@U?$_List_simple_types@G@std@@@std@@U_Iterator_base0@2@@std@@@std@@@std@@PAV?$_List_unchecked_const_iterator@V?$_List_val@U?$_List_simple_types@G@std@@@std@@U_Iterator_base0@2@@2@@std@@YAXPAV?$_List_unchecked_const_iterator@V?$_List_val@U?$_List_simple_types@G@std@@@std@@U_Iterator_base0@2@@0@0AAU?$_Wrap_alloc@U?$_Wrap_alloc@V?$allocator@V?$_List_unchecked_const_iterator@V?$_List_val@U?$_List_simple_types@G@std@@@std@@U_Iterator_base0@2@@std@@@std@@@std@@@0@@Z ; std::_Destroy_range<std::_Wrap_alloc<std::allocator<std::_List_unchecked_const_iterator<std::_List_val<std::_List_simple_types<unsigned short> >,std::_Iterator_base0> > >,std::_List_unchecked_const_iterator<std::_List_val<std::_List_simple_types<unsigned short> >,std::_Iterator_base0> *>
PUBLIC	??$_Fill_unchecked@PAV?$_List_unchecked_const_iterator@V?$_List_val@U?$_List_simple_types@G@std@@@std@@U_Iterator_base0@2@@std@@V12@@std@@YAXPAV?$_List_unchecked_const_iterator@V?$_List_val@U?$_List_simple_types@G@std@@@std@@U_Iterator_base0@2@@0@0ABV10@@Z ; std::_Fill_unchecked<std::_List_unchecked_const_iterator<std::_List_val<std::_List_simple_types<unsigned short> >,std::_Iterator_base0> *,std::_List_unchecked_const_iterator<std::_List_val<std::_List_simple_types<unsigned short> >,std::_Iterator_base0> >
PUBLIC	??$addressof@PAU?$_List_node@GPAX@std@@@std@@YAPAPAU?$_List_node@GPAX@0@AAPAU10@@Z ; std::addressof<std::_List_node<unsigned short,void *> *>
PUBLIC	??$destroy@PAU?$_List_node@GPAX@std@@@?$_Wrap_alloc@V?$allocator@U?$_List_node@GPAX@std@@@std@@@std@@QAEXPAPAU?$_List_node@GPAX@1@@Z ; std::_Wrap_alloc<std::allocator<std::_List_node<unsigned short,void *> > >::destroy<std::_List_node<unsigned short,void *> *>
PUBLIC	??$addressof@$$CBV?$_List_val@U?$_List_simple_types@G@std@@@std@@@std@@YAPBV?$_List_val@U?$_List_simple_types@G@std@@@0@ABV10@@Z ; std::addressof<std::_List_val<std::_List_simple_types<unsigned short> > const >
PUBLIC	??0?$_List_unchecked_iterator@V?$_List_val@U?$_List_simple_types@G@std@@@std@@@std@@QAE@PAU?$_List_node@GPAX@1@PBV?$_List_val@U?$_List_simple_types@G@std@@@1@@Z ; std::_List_unchecked_iterator<std::_List_val<std::_List_simple_types<unsigned short> > >::_List_unchecked_iterator<std::_List_val<std::_List_simple_types<unsigned short> > >
PUBLIC	??$_Uninitialized_fill_n@PAV?$_List_unchecked_const_iterator@V?$_List_val@U?$_List_simple_types@G@std@@@std@@U_Iterator_base0@2@@std@@IU?$_Wrap_alloc@V?$allocator@V?$_List_unchecked_const_iterator@V?$_List_val@U?$_List_simple_types@G@std@@@std@@U_Iterator_base0@2@@std@@@std@@@2@@std@@YAPAV?$_List_unchecked_const_iterator@V?$_List_val@U?$_List_simple_types@G@std@@@std@@U_Iterator_base0@2@@0@PAV10@IABV10@AAU?$_Wrap_alloc@U?$_Wrap_alloc@V?$allocator@V?$_List_unchecked_const_iterator@V?$_List_val@U?$_List_simple_types@G@std@@@std@@U_Iterator_base0@2@@std@@@std@@@std@@@0@@Z ; std::_Uninitialized_fill_n<std::_List_unchecked_const_iterator<std::_List_val<std::_List_simple_types<unsigned short> >,std::_Iterator_base0> *,unsigned int,std::_Wrap_alloc<std::allocator<std::_List_unchecked_const_iterator<std::_List_val<std::_List_simple_types<unsigned short> >,std::_Iterator_base0> > > >
PUBLIC	??$addressof@G@std@@YAPAGAAG@Z			; std::addressof<unsigned short>
PUBLIC	??$destroy@G@?$_Wrap_alloc@V?$allocator@U?$_List_node@GPAX@std@@@std@@@std@@QAEXPAG@Z ; std::_Wrap_alloc<std::allocator<std::_List_node<unsigned short,void *> > >::destroy<unsigned short>
PUBLIC	??$addressof@V?$_List_val@U?$_List_simple_types@G@std@@@std@@@std@@YAPAV?$_List_val@U?$_List_simple_types@G@std@@@0@AAV10@@Z ; std::addressof<std::_List_val<std::_List_simple_types<unsigned short> > >
PUBLIC	??$_Fn@U?$_Wrap_alloc@V?$allocator@V?$_List_unchecked_const_iterator@V?$_List_val@U?$_List_simple_types@G@std@@@std@@U_Iterator_base0@2@@std@@@std@@@std@@@_Alloc_max_size@std@@SAIHABU?$_Wrap_alloc@V?$allocator@V?$_List_unchecked_const_iterator@V?$_List_val@U?$_List_simple_types@G@std@@@std@@U_Iterator_base0@2@@std@@@std@@@1@@Z ; std::_Alloc_max_size::_Fn<std::_Wrap_alloc<std::allocator<std::_List_unchecked_const_iterator<std::_List_val<std::_List_simple_types<unsigned short> >,std::_Iterator_base0> > > >
PUBLIC	??$_Uninitialized_move@PAV?$_List_unchecked_const_iterator@V?$_List_val@U?$_List_simple_types@G@std@@@std@@U_Iterator_base0@2@@std@@PAV12@U?$_Wrap_alloc@V?$allocator@V?$_List_unchecked_const_iterator@V?$_List_val@U?$_List_simple_types@G@std@@@std@@U_Iterator_base0@2@@std@@@std@@@2@@std@@YAPAV?$_List_unchecked_const_iterator@V?$_List_val@U?$_List_simple_types@G@std@@@std@@U_Iterator_base0@2@@0@PAV10@00AAU?$_Wrap_alloc@U?$_Wrap_alloc@V?$allocator@V?$_List_unchecked_const_iterator@V?$_List_val@U?$_List_simple_types@G@std@@@std@@U_Iterator_base0@2@@std@@@std@@@std@@@0@@Z ; std::_Uninitialized_move<std::_List_unchecked_const_iterator<std::_List_val<std::_List_simple_types<unsigned short> >,std::_Iterator_base0> *,std::_List_unchecked_const_iterator<std::_List_val<std::_List_simple_types<unsigned short> >,std::_Iterator_base0> *,std::_Wrap_alloc<std::allocator<std::_List_unchecked_const_iterator<std::_List_val<std::_List_simple_types<unsigned short> >,std::_Iterator_base0> > > >
PUBLIC	??$forward@G@std@@YA$$QAGAAG@Z			; std::forward<unsigned short>
PUBLIC	??$emplace_front@G@?$list@GV?$allocator@G@std@@@std@@QAEX$$QAG@Z ; std::list<unsigned short,std::allocator<unsigned short> >::emplace_front<unsigned short>
PUBLIC	??$_Insert@AAGV?$_List_unchecked_const_iterator@V?$_List_val@U?$_List_simple_types@G@std@@@std@@U_Iterator_base0@2@@std@@@?$_Hash@V?$_Uset_traits@GV?$_Uhash_compare@GU?$hash@G@std@@U?$equal_to@G@2@@std@@V?$allocator@G@2@$0A@@std@@@std@@IAE?AU?$pair@V?$_List_const_iterator@V?$_List_val@U?$_List_simple_types@G@std@@@std@@@std@@_N@1@AAGV?$_List_unchecked_const_iterator@V?$_List_val@U?$_List_simple_types@G@std@@@std@@U_Iterator_base0@2@@1@@Z ; std::_Hash<std::_Uset_traits<unsigned short,std::_Uhash_compare<unsigned short,std::hash<unsigned short>,std::equal_to<unsigned short> >,std::allocator<unsigned short>,0> >::_Insert<unsigned short &,std::_List_unchecked_const_iterator<std::_List_val<std::_List_simple_types<unsigned short> >,std::_Iterator_base0> >
PUBLIC	??$_Distance1@V?$_List_const_iterator@V?$_List_val@U?$_List_simple_types@G@std@@@std@@@std@@@std@@YAHV?$_List_const_iterator@V?$_List_val@U?$_List_simple_types@G@std@@@std@@@0@0Uinput_iterator_tag@0@@Z ; std::_Distance1<std::_List_const_iterator<std::_List_val<std::_List_simple_types<unsigned short> > > >
PUBLIC	??$forward@V?$_List_const_iterator@V?$_List_val@U?$_List_simple_types@G@std@@@std@@@std@@@std@@YA$$QAV?$_List_const_iterator@V?$_List_val@U?$_List_simple_types@G@std@@@std@@@0@AAV10@@Z ; std::forward<std::_List_const_iterator<std::_List_val<std::_List_simple_types<unsigned short> > > >
PUBLIC	??$forward@ABV?$allocator@G@std@@@std@@YAABV?$allocator@G@0@ABV10@@Z ; std::forward<std::allocator<unsigned short> const &>
PUBLIC	??$?0G@?$allocator@V?$_List_unchecked_const_iterator@V?$_List_val@U?$_List_simple_types@G@std@@@std@@U_Iterator_base0@2@@std@@@std@@QAE@ABV?$allocator@G@1@@Z ; std::allocator<std::_List_unchecked_const_iterator<std::_List_val<std::_List_simple_types<unsigned short> >,std::_Iterator_base0> >::allocator<std::_List_unchecked_const_iterator<std::_List_val<std::_List_simple_types<unsigned short> >,std::_Iterator_base0> ><unsigned short>
PUBLIC	??$forward@AAU?$hash@G@std@@@std@@YAAAU?$hash@G@0@AAU10@@Z ; std::forward<std::hash<unsigned short> &>
PUBLIC	??$forward@U_One_then_variadic_args_t@std@@@std@@YA$$QAU_One_then_variadic_args_t@0@AAU10@@Z ; std::forward<std::_One_then_variadic_args_t>
PUBLIC	??$forward@AAU?$equal_to@G@std@@@std@@YAAAU?$equal_to@G@0@AAU10@@Z ; std::forward<std::equal_to<unsigned short> &>
PUBLIC	??$forward@M@std@@YA$$QAMAAM@Z			; std::forward<float>
PUBLIC	??$?0AAU?$equal_to@G@std@@M@?$_Compressed_pair@U?$equal_to@G@std@@M$00@std@@QAE@U_One_then_variadic_args_t@1@AAU?$equal_to@G@1@$$QAM@Z ; std::_Compressed_pair<std::equal_to<unsigned short>,float,1>::_Compressed_pair<std::equal_to<unsigned short>,float,1><std::equal_to<unsigned short> &,float>
PUBLIC	??$forward@ABU?$_Wrap_alloc@V?$allocator@V?$_List_unchecked_const_iterator@V?$_List_val@U?$_List_simple_types@G@std@@@std@@U_Iterator_base0@2@@std@@@std@@@std@@@std@@YAABU?$_Wrap_alloc@V?$allocator@V?$_List_unchecked_const_iterator@V?$_List_val@U?$_List_simple_types@G@std@@@std@@U_Iterator_base0@2@@std@@@std@@@0@ABU10@@Z ; std::forward<std::_Wrap_alloc<std::allocator<std::_List_unchecked_const_iterator<std::_List_val<std::_List_simple_types<unsigned short> >,std::_Iterator_base0> > > const &>
PUBLIC	??$?0ABU?$_Wrap_alloc@V?$allocator@V?$_List_unchecked_const_iterator@V?$_List_val@U?$_List_simple_types@G@std@@@std@@U_Iterator_base0@2@@std@@@std@@@std@@$$V@?$_Compressed_pair@U?$_Wrap_alloc@U?$_Wrap_alloc@V?$allocator@V?$_List_unchecked_const_iterator@V?$_List_val@U?$_List_simple_types@G@std@@@std@@U_Iterator_base0@2@@std@@@std@@@std@@@std@@V?$_Vector_val@U?$_Simple_types@V?$_List_unchecked_const_iterator@V?$_List_val@U?$_List_simple_types@G@std@@@std@@U_Iterator_base0@2@@std@@@std@@@2@$00@std@@QAE@U_One_then_variadic_args_t@1@ABU?$_Wrap_alloc@V?$allocator@V?$_List_unchecked_const_iterator@V?$_List_val@U?$_List_simple_types@G@std@@@std@@U_Iterator_base0@2@@std@@@std@@@1@@Z ; std::_Compressed_pair<std::_Wrap_alloc<std::_Wrap_alloc<std::allocator<std::_List_unchecked_const_iterator<std::_List_val<std::_List_simple_types<unsigned short> >,std::_Iterator_base0> > > >,std::_Vector_val<std::_Simple_types<std::_List_unchecked_const_iterator<std::_List_val<std::_List_simple_types<unsigned short> >,std::_Iterator_base0> > >,1>::_Compressed_pair<std::_Wrap_alloc<std::_Wrap_alloc<std::allocator<std::_List_unchecked_const_iterator<std::_List_val<std::_List_simple_types<unsigned short> >,std::_Iterator_base0> > > >,std::_Vector_val<std::_Simple_types<std::_List_unchecked_const_iterator<std::_List_val<std::_List_simple_types<unsigned short> >,std::_Iterator_base0> > >,1><std::_Wrap_alloc<std::allocator<std::_List_unchecked_const_iterator<std::_List_val<std::_List_simple_types<unsigned short> >,std::_Iterator_base0> > > const &>
PUBLIC	??$?0ABV?$allocator@G@std@@X@?$_List_alloc@U?$_List_base_types@GV?$allocator@G@std@@@std@@@std@@QAE@ABV?$allocator@G@1@@Z ; std::_List_alloc<std::_List_base_types<unsigned short,std::allocator<unsigned short> > >::_List_alloc<std::_List_base_types<unsigned short,std::allocator<unsigned short> > ><std::allocator<unsigned short> const &,void>
PUBLIC	??$_Destroy_range1@U?$_Wrap_alloc@V?$allocator@V?$_List_unchecked_const_iterator@V?$_List_val@U?$_List_simple_types@G@std@@@std@@U_Iterator_base0@2@@std@@@std@@@std@@PAV?$_List_unchecked_const_iterator@V?$_List_val@U?$_List_simple_types@G@std@@@std@@U_Iterator_base0@2@@2@@std@@YAXPAV?$_List_unchecked_const_iterator@V?$_List_val@U?$_List_simple_types@G@std@@@std@@U_Iterator_base0@2@@0@0AAU?$_Wrap_alloc@U?$_Wrap_alloc@V?$allocator@V?$_List_unchecked_const_iterator@V?$_List_val@U?$_List_simple_types@G@std@@@std@@U_Iterator_base0@2@@std@@@std@@@std@@@0@U?$integral_constant@_N$0A@@0@@Z ; std::_Destroy_range1<std::_Wrap_alloc<std::allocator<std::_List_unchecked_const_iterator<std::_List_val<std::_List_simple_types<unsigned short> >,std::_Iterator_base0> > >,std::_List_unchecked_const_iterator<std::_List_val<std::_List_simple_types<unsigned short> >,std::_Iterator_base0> *>
PUBLIC	??$_Fill_memset_is_safe@PAV?$_List_unchecked_const_iterator@V?$_List_val@U?$_List_simple_types@G@std@@@std@@U_Iterator_base0@2@@std@@V12@@std@@YA?AU?$integral_constant@_N$0A@@0@ABQAV?$_List_unchecked_const_iterator@V?$_List_val@U?$_List_simple_types@G@std@@@std@@U_Iterator_base0@2@@0@ABV20@@Z ; std::_Fill_memset_is_safe<std::_List_unchecked_const_iterator<std::_List_val<std::_List_simple_types<unsigned short> >,std::_Iterator_base0> *,std::_List_unchecked_const_iterator<std::_List_val<std::_List_simple_types<unsigned short> >,std::_Iterator_base0> >
PUBLIC	??$_Fill_unchecked1@PAV?$_List_unchecked_const_iterator@V?$_List_val@U?$_List_simple_types@G@std@@@std@@U_Iterator_base0@2@@std@@V12@@std@@YAXPAV?$_List_unchecked_const_iterator@V?$_List_val@U?$_List_simple_types@G@std@@@std@@U_Iterator_base0@2@@0@0ABV10@U?$integral_constant@_N$0A@@0@@Z ; std::_Fill_unchecked1<std::_List_unchecked_const_iterator<std::_List_val<std::_List_simple_types<unsigned short> >,std::_Iterator_base0> *,std::_List_unchecked_const_iterator<std::_List_val<std::_List_simple_types<unsigned short> >,std::_Iterator_base0> >
PUBLIC	??$destroy@PAU?$_List_node@GPAX@std@@@?$allocator_traits@V?$allocator@U?$_List_node@GPAX@std@@@std@@@std@@SAXAAV?$allocator@U?$_List_node@GPAX@std@@@1@PAPAU?$_List_node@GPAX@1@@Z ; std::allocator_traits<std::allocator<std::_List_node<unsigned short,void *> > >::destroy<std::_List_node<unsigned short,void *> *>
PUBLIC	??$_Unfancy@V?$_List_unchecked_const_iterator@V?$_List_val@U?$_List_simple_types@G@std@@@std@@U_Iterator_base0@2@@std@@@std@@YAPAV?$_List_unchecked_const_iterator@V?$_List_val@U?$_List_simple_types@G@std@@@std@@U_Iterator_base0@2@@0@PAV10@@Z ; std::_Unfancy<std::_List_unchecked_const_iterator<std::_List_val<std::_List_simple_types<unsigned short> >,std::_Iterator_base0> >
PUBLIC	??$_Uninit_alloc_fill_n1@PAV?$_List_unchecked_const_iterator@V?$_List_val@U?$_List_simple_types@G@std@@@std@@U_Iterator_base0@2@@std@@IU?$_Wrap_alloc@V?$allocator@V?$_List_unchecked_const_iterator@V?$_List_val@U?$_List_simple_types@G@std@@@std@@U_Iterator_base0@2@@std@@@std@@@2@@std@@YAPAV?$_List_unchecked_const_iterator@V?$_List_val@U?$_List_simple_types@G@std@@@std@@U_Iterator_base0@2@@0@PAV10@IABV10@AAU?$_Wrap_alloc@U?$_Wrap_alloc@V?$allocator@V?$_List_unchecked_const_iterator@V?$_List_val@U?$_List_simple_types@G@std@@@std@@U_Iterator_base0@2@@std@@@std@@@std@@@0@U?$integral_constant@_N$0A@@0@@Z ; std::_Uninit_alloc_fill_n1<std::_List_unchecked_const_iterator<std::_List_val<std::_List_simple_types<unsigned short> >,std::_Iterator_base0> *,unsigned int,std::_Wrap_alloc<std::allocator<std::_List_unchecked_const_iterator<std::_List_val<std::_List_simple_types<unsigned short> >,std::_Iterator_base0> > > >
PUBLIC	??$destroy@G@?$allocator_traits@V?$allocator@U?$_List_node@GPAX@std@@@std@@@std@@SAXAAV?$allocator@U?$_List_node@GPAX@std@@@1@PAG@Z ; std::allocator_traits<std::allocator<std::_List_node<unsigned short,void *> > >::destroy<unsigned short>
PUBLIC	??$_Unchecked@PAV?$_List_unchecked_const_iterator@V?$_List_val@U?$_List_simple_types@G@std@@@std@@U_Iterator_base0@2@@std@@@std@@YAPAV?$_List_unchecked_const_iterator@V?$_List_val@U?$_List_simple_types@G@std@@@std@@U_Iterator_base0@2@@0@PAV10@@Z ; std::_Unchecked<std::_List_unchecked_const_iterator<std::_List_val<std::_List_simple_types<unsigned short> >,std::_Iterator_base0> *>
PUBLIC	??$_Ptr_move_cat@V?$_List_unchecked_const_iterator@V?$_List_val@U?$_List_simple_types@G@std@@@std@@U_Iterator_base0@2@@std@@V12@@std@@YA?AU_Trivially_copyable_ptr_iterator_tag@0@ABQAV?$_List_unchecked_const_iterator@V?$_List_val@U?$_List_simple_types@G@std@@@std@@U_Iterator_base0@2@@0@0@Z ; std::_Ptr_move_cat<std::_List_unchecked_const_iterator<std::_List_val<std::_List_simple_types<unsigned short> >,std::_Iterator_base0>,std::_List_unchecked_const_iterator<std::_List_val<std::_List_simple_types<unsigned short> >,std::_Iterator_base0> >
PUBLIC	??$move@AAV?$_List_unchecked_const_iterator@V?$_List_val@U?$_List_simple_types@G@std@@@std@@U_Iterator_base0@2@@std@@@std@@YA$$QAV?$_List_unchecked_const_iterator@V?$_List_val@U?$_List_simple_types@G@std@@@std@@U_Iterator_base0@2@@0@AAV10@@Z ; std::move<std::_List_unchecked_const_iterator<std::_List_val<std::_List_simple_types<unsigned short> >,std::_Iterator_base0> &>
PUBLIC	??$_Uninitialized_move_al_unchecked@PAV?$_List_unchecked_const_iterator@V?$_List_val@U?$_List_simple_types@G@std@@@std@@U_Iterator_base0@2@@std@@PAV12@U?$_Wrap_alloc@V?$allocator@V?$_List_unchecked_const_iterator@V?$_List_val@U?$_List_simple_types@G@std@@@std@@U_Iterator_base0@2@@std@@@std@@@2@@std@@YAPAV?$_List_unchecked_const_iterator@V?$_List_val@U?$_List_simple_types@G@std@@@std@@U_Iterator_base0@2@@0@PAV10@00AAU?$_Wrap_alloc@U?$_Wrap_alloc@V?$allocator@V?$_List_unchecked_const_iterator@V?$_List_val@U?$_List_simple_types@G@std@@@std@@U_Iterator_base0@2@@std@@@std@@@std@@@0@U_General_ptr_iterator_tag@0@U_Any_tag@0@@Z ; std::_Uninitialized_move_al_unchecked<std::_List_unchecked_const_iterator<std::_List_val<std::_List_simple_types<unsigned short> >,std::_Iterator_base0> *,std::_List_unchecked_const_iterator<std::_List_val<std::_List_simple_types<unsigned short> >,std::_Iterator_base0> *,std::_Wrap_alloc<std::allocator<std::_List_unchecked_const_iterator<std::_List_val<std::_List_simple_types<unsigned short> >,std::_Iterator_base0> > > >
PUBLIC	??$?0U?$integral_constant@_N$0A@@std@@@_Any_tag@std@@QAE@$$QAU?$integral_constant@_N$0A@@1@@Z ; std::_Any_tag::_Any_tag<std::integral_constant<bool,0> >
PUBLIC	??$_Rechecked@PAV?$_List_unchecked_const_iterator@V?$_List_val@U?$_List_simple_types@G@std@@@std@@U_Iterator_base0@2@@std@@PAV12@@std@@YAAAPAV?$_List_unchecked_const_iterator@V?$_List_val@U?$_List_simple_types@G@std@@@std@@U_Iterator_base0@2@@0@AAPAV10@PAV10@@Z ; std::_Rechecked<std::_List_unchecked_const_iterator<std::_List_val<std::_List_simple_types<unsigned short> >,std::_Iterator_base0> *,std::_List_unchecked_const_iterator<std::_List_val<std::_List_simple_types<unsigned short> >,std::_Iterator_base0> *>
PUBLIC	??$_Insert@G@?$list@GV?$allocator@G@std@@@std@@QAEXV?$_List_unchecked_const_iterator@V?$_List_val@U?$_List_simple_types@G@std@@@std@@U_Iterator_base0@2@@1@$$QAG@Z ; std::list<unsigned short,std::allocator<unsigned short> >::_Insert<unsigned short>
PUBLIC	??$?0V?$_List_const_iterator@V?$_List_val@U?$_List_simple_types@G@std@@@std@@@std@@_NX$0A@@?$pair@V?$_List_const_iterator@V?$_List_val@U?$_List_simple_types@G@std@@@std@@@std@@_N@std@@QAE@$$QAV?$_List_const_iterator@V?$_List_val@U?$_List_simple_types@G@std@@@std@@@1@$$QA_N@Z ; std::pair<std::_List_const_iterator<std::_List_val<std::_List_simple_types<unsigned short> > >,bool>::pair<std::_List_const_iterator<std::_List_val<std::_List_simple_types<unsigned short> > >,bool><std::_List_const_iterator<std::_List_val<std::_List_simple_types<unsigned short> > >,bool,void,0>
PUBLIC	??$forward@AAG@std@@YAAAGAAG@Z			; std::forward<unsigned short &>
PUBLIC	??$_Buynode_if_nil@AAG@?$_Hash@V?$_Uset_traits@GV?$_Uhash_compare@GU?$hash@G@std@@U?$equal_to@G@2@@std@@V?$allocator@G@2@$0A@@std@@@std@@IAE?AV?$_List_unchecked_const_iterator@V?$_List_val@U?$_List_simple_types@G@std@@@std@@U_Iterator_base0@2@@1@AAGV21@@Z ; std::_Hash<std::_Uset_traits<unsigned short,std::_Uhash_compare<unsigned short,std::hash<unsigned short>,std::equal_to<unsigned short> >,std::allocator<unsigned short>,0> >::_Buynode_if_nil<unsigned short &>
PUBLIC	??$?0ABU?$_Wrap_alloc@V?$allocator@V?$_List_unchecked_const_iterator@V?$_List_val@U?$_List_simple_types@G@std@@@std@@U_Iterator_base0@2@@std@@@std@@@std@@@?$_Wrap_alloc@U?$_Wrap_alloc@V?$allocator@V?$_List_unchecked_const_iterator@V?$_List_val@U?$_List_simple_types@G@std@@@std@@U_Iterator_base0@2@@std@@@std@@@std@@@std@@QAE@ABU?$_Wrap_alloc@V?$allocator@V?$_List_unchecked_const_iterator@V?$_List_val@U?$_List_simple_types@G@std@@@std@@U_Iterator_base0@2@@std@@@std@@@1@@Z ; std::_Wrap_alloc<std::_Wrap_alloc<std::allocator<std::_List_unchecked_const_iterator<std::_List_val<std::_List_simple_types<unsigned short> >,std::_Iterator_base0> > > >::_Wrap_alloc<std::_Wrap_alloc<std::allocator<std::_List_unchecked_const_iterator<std::_List_val<std::_List_simple_types<unsigned short> >,std::_Iterator_base0> > > ><std::_Wrap_alloc<std::allocator<std::_List_unchecked_const_iterator<std::_List_val<std::_List_simple_types<unsigned short> >,std::_Iterator_base0> > > const &>
PUBLIC	??$?0ABV?$allocator@G@std@@$$V@?$_Compressed_pair@U?$_Wrap_alloc@V?$allocator@U?$_List_node@GPAX@std@@@std@@@std@@V?$_List_val@U?$_List_simple_types@G@std@@@2@$00@std@@QAE@U_One_then_variadic_args_t@1@ABV?$allocator@G@1@@Z ; std::_Compressed_pair<std::_Wrap_alloc<std::allocator<std::_List_node<unsigned short,void *> > >,std::_List_val<std::_List_simple_types<unsigned short> >,1>::_Compressed_pair<std::_Wrap_alloc<std::allocator<std::_List_node<unsigned short,void *> > >,std::_List_val<std::_List_simple_types<unsigned short> >,1><std::allocator<unsigned short> const &>
PUBLIC	??$destroy@V?$_List_unchecked_const_iterator@V?$_List_val@U?$_List_simple_types@G@std@@@std@@U_Iterator_base0@2@@std@@@?$_Wrap_alloc@U?$_Wrap_alloc@V?$allocator@V?$_List_unchecked_const_iterator@V?$_List_val@U?$_List_simple_types@G@std@@@std@@U_Iterator_base0@2@@std@@@std@@@std@@@std@@QAEXPAV?$_List_unchecked_const_iterator@V?$_List_val@U?$_List_simple_types@G@std@@@std@@U_Iterator_base0@2@@1@@Z ; std::_Wrap_alloc<std::_Wrap_alloc<std::allocator<std::_List_unchecked_const_iterator<std::_List_val<std::_List_simple_types<unsigned short> >,std::_Iterator_base0> > > >::destroy<std::_List_unchecked_const_iterator<std::_List_val<std::_List_simple_types<unsigned short> >,std::_Iterator_base0> >
PUBLIC	??$destroy@PAU?$_List_node@GPAX@std@@@?$allocator@U?$_List_node@GPAX@std@@@std@@QAEXPAPAU?$_List_node@GPAX@1@@Z ; std::allocator<std::_List_node<unsigned short,void *> >::destroy<std::_List_node<unsigned short,void *> *>
PUBLIC	??$construct@V?$_List_unchecked_const_iterator@V?$_List_val@U?$_List_simple_types@G@std@@@std@@U_Iterator_base0@2@@std@@ABV12@@?$_Wrap_alloc@U?$_Wrap_alloc@V?$allocator@V?$_List_unchecked_const_iterator@V?$_List_val@U?$_List_simple_types@G@std@@@std@@U_Iterator_base0@2@@std@@@std@@@std@@@std@@QAEXPAV?$_List_unchecked_const_iterator@V?$_List_val@U?$_List_simple_types@G@std@@@std@@U_Iterator_base0@2@@1@ABV21@@Z ; std::_Wrap_alloc<std::_Wrap_alloc<std::allocator<std::_List_unchecked_const_iterator<std::_List_val<std::_List_simple_types<unsigned short> >,std::_Iterator_base0> > > >::construct<std::_List_unchecked_const_iterator<std::_List_val<std::_List_simple_types<unsigned short> >,std::_Iterator_base0>,std::_List_unchecked_const_iterator<std::_List_val<std::_List_simple_types<unsigned short> >,std::_Iterator_base0> const &>
PUBLIC	??$destroy@G@?$allocator@U?$_List_node@GPAX@std@@@std@@QAEXPAG@Z ; std::allocator<std::_List_node<unsigned short,void *> >::destroy<unsigned short>
PUBLIC	??$construct@V?$_List_unchecked_const_iterator@V?$_List_val@U?$_List_simple_types@G@std@@@std@@U_Iterator_base0@2@@std@@V12@@?$_Wrap_alloc@U?$_Wrap_alloc@V?$allocator@V?$_List_unchecked_const_iterator@V?$_List_val@U?$_List_simple_types@G@std@@@std@@U_Iterator_base0@2@@std@@@std@@@std@@@std@@QAEXPAV?$_List_unchecked_const_iterator@V?$_List_val@U?$_List_simple_types@G@std@@@std@@U_Iterator_base0@2@@1@$$QAV21@@Z ; std::_Wrap_alloc<std::_Wrap_alloc<std::allocator<std::_List_unchecked_const_iterator<std::_List_val<std::_List_simple_types<unsigned short> >,std::_Iterator_base0> > > >::construct<std::_List_unchecked_const_iterator<std::_List_val<std::_List_simple_types<unsigned short> >,std::_Iterator_base0>,std::_List_unchecked_const_iterator<std::_List_val<std::_List_simple_types<unsigned short> >,std::_Iterator_base0> >
PUBLIC	??$construct@PAU?$_List_node@GPAX@std@@AAPAU12@@?$_Wrap_alloc@V?$allocator@U?$_List_node@GPAX@std@@@std@@@std@@QAEXPAPAU?$_List_node@GPAX@1@AAPAU21@@Z ; std::_Wrap_alloc<std::allocator<std::_List_node<unsigned short,void *> > >::construct<std::_List_node<unsigned short,void *> *,std::_List_node<unsigned short,void *> * &>
PUBLIC	??$_Insert@ABGV?$_List_unchecked_const_iterator@V?$_List_val@U?$_List_simple_types@G@std@@@std@@U_Iterator_base0@2@@std@@@?$_Hash@V?$_Uset_traits@GV?$_Uhash_compare@GU?$hash@G@std@@U?$equal_to@G@2@@std@@V?$allocator@G@2@$0A@@std@@@std@@IAE?AU?$pair@V?$_List_const_iterator@V?$_List_val@U?$_List_simple_types@G@std@@@std@@@std@@_N@1@ABGV?$_List_unchecked_const_iterator@V?$_List_val@U?$_List_simple_types@G@std@@@std@@U_Iterator_base0@2@@1@@Z ; std::_Hash<std::_Uset_traits<unsigned short,std::_Uhash_compare<unsigned short,std::hash<unsigned short>,std::equal_to<unsigned short> >,std::allocator<unsigned short>,0> >::_Insert<unsigned short const &,std::_List_unchecked_const_iterator<std::_List_val<std::_List_simple_types<unsigned short> >,std::_Iterator_base0> >
PUBLIC	??$_Buynode@G@?$_List_buy@GV?$allocator@G@std@@@std@@QAEPAU?$_List_node@GPAX@1@PAU21@0$$QAG@Z ; std::_List_buy<unsigned short,std::allocator<unsigned short> >::_Buynode<unsigned short>
PUBLIC	??$forward@_N@std@@YA$$QA_NAA_N@Z		; std::forward<bool>
PUBLIC	??$?0ABV?$allocator@G@std@@@?$_Wrap_alloc@V?$allocator@U?$_List_node@GPAX@std@@@std@@@std@@QAE@ABV?$allocator@G@1@@Z ; std::_Wrap_alloc<std::allocator<std::_List_node<unsigned short,void *> > >::_Wrap_alloc<std::allocator<std::_List_node<unsigned short,void *> > ><std::allocator<unsigned short> const &>
PUBLIC	??$destroy@V?$_List_unchecked_const_iterator@V?$_List_val@U?$_List_simple_types@G@std@@@std@@U_Iterator_base0@2@@std@@@?$allocator_traits@U?$_Wrap_alloc@V?$allocator@V?$_List_unchecked_const_iterator@V?$_List_val@U?$_List_simple_types@G@std@@@std@@U_Iterator_base0@2@@std@@@std@@@std@@@std@@SAXAAU?$_Wrap_alloc@V?$allocator@V?$_List_unchecked_const_iterator@V?$_List_val@U?$_List_simple_types@G@std@@@std@@U_Iterator_base0@2@@std@@@std@@@1@PAV?$_List_unchecked_const_iterator@V?$_List_val@U?$_List_simple_types@G@std@@@std@@U_Iterator_base0@2@@1@@Z ; std::allocator_traits<std::_Wrap_alloc<std::allocator<std::_List_unchecked_const_iterator<std::_List_val<std::_List_simple_types<unsigned short> >,std::_Iterator_base0> > > >::destroy<std::_List_unchecked_const_iterator<std::_List_val<std::_List_simple_types<unsigned short> >,std::_Iterator_base0> >
PUBLIC	??$forward@ABV?$_List_unchecked_const_iterator@V?$_List_val@U?$_List_simple_types@G@std@@@std@@U_Iterator_base0@2@@std@@@std@@YAABV?$_List_unchecked_const_iterator@V?$_List_val@U?$_List_simple_types@G@std@@@std@@U_Iterator_base0@2@@0@ABV10@@Z ; std::forward<std::_List_unchecked_const_iterator<std::_List_val<std::_List_simple_types<unsigned short> >,std::_Iterator_base0> const &>
PUBLIC	??$construct@V?$_List_unchecked_const_iterator@V?$_List_val@U?$_List_simple_types@G@std@@@std@@U_Iterator_base0@2@@std@@ABV12@@?$allocator_traits@U?$_Wrap_alloc@V?$allocator@V?$_List_unchecked_const_iterator@V?$_List_val@U?$_List_simple_types@G@std@@@std@@U_Iterator_base0@2@@std@@@std@@@std@@@std@@SAXAAU?$_Wrap_alloc@V?$allocator@V?$_List_unchecked_const_iterator@V?$_List_val@U?$_List_simple_types@G@std@@@std@@U_Iterator_base0@2@@std@@@std@@@1@PAV?$_List_unchecked_const_iterator@V?$_List_val@U?$_List_simple_types@G@std@@@std@@U_Iterator_base0@2@@1@ABV31@@Z ; std::allocator_traits<std::_Wrap_alloc<std::allocator<std::_List_unchecked_const_iterator<std::_List_val<std::_List_simple_types<unsigned short> >,std::_Iterator_base0> > > >::construct<std::_List_unchecked_const_iterator<std::_List_val<std::_List_simple_types<unsigned short> >,std::_Iterator_base0>,std::_List_unchecked_const_iterator<std::_List_val<std::_List_simple_types<unsigned short> >,std::_Iterator_base0> const &>
PUBLIC	??$forward@V?$_List_unchecked_const_iterator@V?$_List_val@U?$_List_simple_types@G@std@@@std@@U_Iterator_base0@2@@std@@@std@@YA$$QAV?$_List_unchecked_const_iterator@V?$_List_val@U?$_List_simple_types@G@std@@@std@@U_Iterator_base0@2@@0@AAV10@@Z ; std::forward<std::_List_unchecked_const_iterator<std::_List_val<std::_List_simple_types<unsigned short> >,std::_Iterator_base0> >
PUBLIC	??$construct@V?$_List_unchecked_const_iterator@V?$_List_val@U?$_List_simple_types@G@std@@@std@@U_Iterator_base0@2@@std@@V12@@?$allocator_traits@U?$_Wrap_alloc@V?$allocator@V?$_List_unchecked_const_iterator@V?$_List_val@U?$_List_simple_types@G@std@@@std@@U_Iterator_base0@2@@std@@@std@@@std@@@std@@SAXAAU?$_Wrap_alloc@V?$allocator@V?$_List_unchecked_const_iterator@V?$_List_val@U?$_List_simple_types@G@std@@@std@@U_Iterator_base0@2@@std@@@std@@@1@PAV?$_List_unchecked_const_iterator@V?$_List_val@U?$_List_simple_types@G@std@@@std@@U_Iterator_base0@2@@1@$$QAV31@@Z ; std::allocator_traits<std::_Wrap_alloc<std::allocator<std::_List_unchecked_const_iterator<std::_List_val<std::_List_simple_types<unsigned short> >,std::_Iterator_base0> > > >::construct<std::_List_unchecked_const_iterator<std::_List_val<std::_List_simple_types<unsigned short> >,std::_Iterator_base0>,std::_List_unchecked_const_iterator<std::_List_val<std::_List_simple_types<unsigned short> >,std::_Iterator_base0> >
PUBLIC	??$forward@AAPAU?$_List_node@GPAX@std@@@std@@YAAAPAU?$_List_node@GPAX@0@AAPAU10@@Z ; std::forward<std::_List_node<unsigned short,void *> * &>
PUBLIC	??$construct@PAU?$_List_node@GPAX@std@@AAPAU12@@?$allocator_traits@V?$allocator@U?$_List_node@GPAX@std@@@std@@@std@@SAXAAV?$allocator@U?$_List_node@GPAX@std@@@1@PAPAU?$_List_node@GPAX@1@AAPAU31@@Z ; std::allocator_traits<std::allocator<std::_List_node<unsigned short,void *> > >::construct<std::_List_node<unsigned short,void *> *,std::_List_node<unsigned short,void *> * &>
PUBLIC	??$forward@ABG@std@@YAABGABG@Z			; std::forward<unsigned short const &>
PUBLIC	??$_Buynode_if_nil@ABG@?$_Hash@V?$_Uset_traits@GV?$_Uhash_compare@GU?$hash@G@std@@U?$equal_to@G@2@@std@@V?$allocator@G@2@$0A@@std@@@std@@IAE?AV?$_List_unchecked_const_iterator@V?$_List_val@U?$_List_simple_types@G@std@@@std@@U_Iterator_base0@2@@1@ABGV21@@Z ; std::_Hash<std::_Uset_traits<unsigned short,std::_Uhash_compare<unsigned short,std::hash<unsigned short>,std::equal_to<unsigned short> >,std::allocator<unsigned short>,0> >::_Buynode_if_nil<unsigned short const &>
PUBLIC	??$construct@GG@?$_Wrap_alloc@V?$allocator@U?$_List_node@GPAX@std@@@std@@@std@@QAEXPAG$$QAG@Z ; std::_Wrap_alloc<std::allocator<std::_List_node<unsigned short,void *> > >::construct<unsigned short,unsigned short>
PUBLIC	??$?0G@?$allocator@U?$_List_node@GPAX@std@@@std@@QAE@ABV?$allocator@G@1@@Z ; std::allocator<std::_List_node<unsigned short,void *> >::allocator<std::_List_node<unsigned short,void *> ><unsigned short>
PUBLIC	??$_Destroy1@V?$_List_unchecked_const_iterator@V?$_List_val@U?$_List_simple_types@G@std@@@std@@U_Iterator_base0@2@@std@@@?$allocator_traits@U?$_Wrap_alloc@V?$allocator@V?$_List_unchecked_const_iterator@V?$_List_val@U?$_List_simple_types@G@std@@@std@@U_Iterator_base0@2@@std@@@std@@@std@@@std@@SAXAAU?$_Wrap_alloc@V?$allocator@V?$_List_unchecked_const_iterator@V?$_List_val@U?$_List_simple_types@G@std@@@std@@U_Iterator_base0@2@@std@@@std@@@1@PAV?$_List_unchecked_const_iterator@V?$_List_val@U?$_List_simple_types@G@std@@@std@@U_Iterator_base0@2@@1@U?$integral_constant@_N$00@1@@Z ; std::allocator_traits<std::_Wrap_alloc<std::allocator<std::_List_unchecked_const_iterator<std::_List_val<std::_List_simple_types<unsigned short> >,std::_Iterator_base0> > > >::_Destroy1<std::_List_unchecked_const_iterator<std::_List_val<std::_List_simple_types<unsigned short> >,std::_Iterator_base0> >
PUBLIC	??$_Construct1@V?$_List_unchecked_const_iterator@V?$_List_val@U?$_List_simple_types@G@std@@@std@@U_Iterator_base0@2@@std@@ABV12@@?$allocator_traits@U?$_Wrap_alloc@V?$allocator@V?$_List_unchecked_const_iterator@V?$_List_val@U?$_List_simple_types@G@std@@@std@@U_Iterator_base0@2@@std@@@std@@@std@@@std@@SAXU?$integral_constant@_N$00@1@AAU?$_Wrap_alloc@V?$allocator@V?$_List_unchecked_const_iterator@V?$_List_val@U?$_List_simple_types@G@std@@@std@@U_Iterator_base0@2@@std@@@std@@@1@PAV?$_List_unchecked_const_iterator@V?$_List_val@U?$_List_simple_types@G@std@@@std@@U_Iterator_base0@2@@1@ABV41@@Z ; std::allocator_traits<std::_Wrap_alloc<std::allocator<std::_List_unchecked_const_iterator<std::_List_val<std::_List_simple_types<unsigned short> >,std::_Iterator_base0> > > >::_Construct1<std::_List_unchecked_const_iterator<std::_List_val<std::_List_simple_types<unsigned short> >,std::_Iterator_base0>,std::_List_unchecked_const_iterator<std::_List_val<std::_List_simple_types<unsigned short> >,std::_Iterator_base0> const &>
PUBLIC	??$_Construct1@V?$_List_unchecked_const_iterator@V?$_List_val@U?$_List_simple_types@G@std@@@std@@U_Iterator_base0@2@@std@@V12@@?$allocator_traits@U?$_Wrap_alloc@V?$allocator@V?$_List_unchecked_const_iterator@V?$_List_val@U?$_List_simple_types@G@std@@@std@@U_Iterator_base0@2@@std@@@std@@@std@@@std@@SAXU?$integral_constant@_N$00@1@AAU?$_Wrap_alloc@V?$allocator@V?$_List_unchecked_const_iterator@V?$_List_val@U?$_List_simple_types@G@std@@@std@@U_Iterator_base0@2@@std@@@std@@@1@PAV?$_List_unchecked_const_iterator@V?$_List_val@U?$_List_simple_types@G@std@@@std@@U_Iterator_base0@2@@1@$$QAV41@@Z ; std::allocator_traits<std::_Wrap_alloc<std::allocator<std::_List_unchecked_const_iterator<std::_List_val<std::_List_simple_types<unsigned short> >,std::_Iterator_base0> > > >::_Construct1<std::_List_unchecked_const_iterator<std::_List_val<std::_List_simple_types<unsigned short> >,std::_Iterator_base0>,std::_List_unchecked_const_iterator<std::_List_val<std::_List_simple_types<unsigned short> >,std::_Iterator_base0> >
PUBLIC	??$construct@PAU?$_List_node@GPAX@std@@AAPAU12@@?$allocator@U?$_List_node@GPAX@std@@@std@@QAEXPAPAU?$_List_node@GPAX@1@AAPAU21@@Z ; std::allocator<std::_List_node<unsigned short,void *> >::construct<std::_List_node<unsigned short,void *> *,std::_List_node<unsigned short,void *> * &>
PUBLIC	??$construct@GG@?$allocator_traits@V?$allocator@U?$_List_node@GPAX@std@@@std@@@std@@SAXAAV?$allocator@U?$_List_node@GPAX@std@@@1@PAG$$QAG@Z ; std::allocator_traits<std::allocator<std::_List_node<unsigned short,void *> > >::construct<unsigned short,unsigned short>
PUBLIC	??$construct@GG@?$allocator@U?$_List_node@GPAX@std@@@std@@QAEXPAG$$QAG@Z ; std::allocator<std::_List_node<unsigned short,void *> >::construct<unsigned short,unsigned short>
PUBLIC	??_C@_0BD@OLBABOEK@vector?$DMT?$DO?5too?5long?$AA@ ; `string'
PUBLIC	??_C@_0BB@MOGOBHAF@list?$DMT?$DO?5too?5long?$AA@ ; `string'
PUBLIC	__real@00000000
PUBLIC	__real@358637bd
PUBLIC	__real@37800000
PUBLIC	__real@38800000
PUBLIC	__real@3e800000
PUBLIC	__real@3f000000
PUBLIC	__real@3f800000
PUBLIC	__real@3ff0000000000000
PUBLIC	__real@3ffeb852
PUBLIC	__real@40400000
PUBLIC	__real@40800000
PUBLIC	__real@40c90fdb
PUBLIC	__real@40e00000
PUBLIC	__real@41100000
PUBLIC	__real@41400000
PUBLIC	__real@41500000
PUBLIC	__real@41800000
PUBLIC	__real@41880000
PUBLIC	__real@41900000
PUBLIC	__real@41980000
PUBLIC	__real@41a80000
PUBLIC	__real@41b80000
PUBLIC	__real@41f80000
PUBLIC	__real@425c0000
PUBLIC	__real@42920000
PUBLIC	__real@42b60000
PUBLIC	__real@42c80000
PUBLIC	__real@4330000000000000
PUBLIC	__real@437f0000
PUBLIC	__real@8000000000000000
PUBLIC	__real@bf800000
PUBLIC	__xmm@00000000000000004198000041400000
PUBLIC	__xmm@00000003000000020000000100000000
PUBLIC	__xmm@00000008000000080000000800000008
PUBLIC	__xmm@3daaaaab3daaaaab3daaaaab3daaaaab
PUBLIC	__xmm@3f80000000000000000000003f800000
PUBLIC	__xmm@40000000400000004000000040000000
PUBLIC	__xmm@40490fdb40490fdb40490fdb40490fdb
PUBLIC	__xmm@40a00000413000004110000041b80000
PUBLIC	__xmm@41000000408000004180000040e00000
PUBLIC	__xmm@41100000411000004188000041880000
PUBLIC	__xmm@4130000040a0000041b8000041100000
PUBLIC	__xmm@413000004130000041b8000041b80000
PUBLIC	__xmm@41f00000000000000000000000000000
PUBLIC	__xmm@7fffffff7fffffff7fffffff7fffffff
PUBLIC	__xmm@7fffffffffffffff7fffffffffffffff
PUBLIC	__xmm@80000000800000008000000080000000
EXTRN	??2@YAPAXI@Z:PROC				; operator new
EXTRN	??3@YAXPAX@Z:PROC				; operator delete
EXTRN	??3@YAXPAXI@Z:PROC				; operator delete
EXTRN	_atexit:PROC
EXTRN	__Init_thread_header:PROC
EXTRN	__Init_thread_abort:PROC
EXTRN	__Init_thread_footer:PROC
EXTRN	___std_terminate:PROC
EXTRN	__imp___invalid_parameter_noinfo_noreturn:PROC
EXTRN	?MemAlloc@ImGui@@YAPAXI@Z:PROC			; ImGui::MemAlloc
EXTRN	?MemFree@ImGui@@YAXPAX@Z:PROC			; ImGui::MemFree
EXTRN	__snprintf:PROC
EXTRN	?ImTextCharFromUtf8@@YAHPAIPBD1@Z:PROC		; ImTextCharFromUtf8
EXTRN	?ImFileLoadToMemory@@YAPAXPBD0PAHH@Z:PROC	; ImFileLoadToMemory
EXTRN	__imp__malloc:PROC
EXTRN	__imp__qsort:PROC
EXTRN	__imp_?_Xbad_alloc@std@@YAXXZ:PROC
EXTRN	__imp_?_Xlength_error@std@@YAXPBD@Z:PROC
EXTRN	?Log@iSK_Logger@@UAAXQB_WZZ:PROC		; iSK_Logger::Log
EXTRN	__CxxThrowException@8:PROC
EXTRN	___CxxFrameHandler3:PROC
EXTRN	___libm_sse2_cosf:PROC
EXTRN	___libm_sse2_sinf:PROC
EXTRN	___vdecl_cosf4:PROC
EXTRN	___vdecl_sinf4:PROC
EXTRN	__alloca_probe_16:PROC
EXTRN	__ftol2_sse:PROC
EXTRN	_ceil:PROC
EXTRN	_memcpy:PROC
EXTRN	_memset:PROC
EXTRN	__Init_thread_epoch:DWORD
EXTRN	?GImGui@@3PAUImGuiContext@@A:DWORD		; GImGui
EXTRN	?dll_log@@3UiSK_Logger@@A:BYTE			; dll_log
EXTRN	__fltused:DWORD
EXTRN	__tls_array:DWORD
EXTRN	__tls_index:DWORD
;	COMDAT ?circle_vtx@?1??PathArcToFast@ImDrawList@@QAEXABUImVec2@@MHH@Z@4PAU3@A
_BSS	SEGMENT
?circle_vtx@?1??PathArcToFast@ImDrawList@@QAEXABUImVec2@@MHH@Z@4PAU3@A DQ 0cH DUP (?) ; `ImDrawList::PathArcToFast'::`2'::circle_vtx
_BSS	ENDS
;	COMDAT ?$TSS0@?1??PathArcToFast@ImDrawList@@QAEXABUImVec2@@MHH@Z@4HA
_BSS	SEGMENT
?$TSS0@?1??PathArcToFast@ImDrawList@@QAEXABUImVec2@@MHH@Z@4HA DD 01H DUP (?) ; TSS0<`template-parameter-2',ImDrawList::thArcToFast,unsigned char * const,void,ImVec2 const &,float,int,int>
_BSS	ENDS
;	COMDAT ?circle_vtx_builds@?1??PathArcToFast@ImDrawList@@QAEXABUImVec2@@MHH@Z@4_NA
_BSS	SEGMENT
?circle_vtx_builds@?1??PathArcToFast@ImDrawList@@QAEXABUImVec2@@MHH@Z@4_NA DB 01H DUP (?) ; `ImDrawList::PathArcToFast'::`2'::circle_vtx_builds
_BSS	ENDS
;	COMDAT ?full_ranges_unpacked@?1??GetGlyphRangesJapanese@ImFontAtlas@@QAEPBGXZ@4_NA
_BSS	SEGMENT
?full_ranges_unpacked@?1??GetGlyphRangesJapanese@ImFontAtlas@@QAEPBGXZ@4_NA DB 01H DUP (?) ; `ImFontAtlas::GetGlyphRangesJapanese'::`2'::full_ranges_unpacked
_BSS	ENDS
;	COMDAT ?full_ranges@?1??GetGlyphRangesJapanese@ImFontAtlas@@QAEPBGXZ@4PAGA
_BSS	SEGMENT
?full_ranges@?1??GetGlyphRangesJapanese@ImFontAtlas@@QAEPBGXZ@4PAGA DW 0f3dH DUP (?) ; `ImFontAtlas::GetGlyphRangesJapanese'::`2'::full_ranges
_BSS	ENDS
;	COMDAT ?unprintable_chars@?DL@??RenderText@ImFont@@QBEXPAUImDrawList@@MUImVec2@@IABUImVec4@@PBD3M_N@Z@4V?$unordered_set@GU?$hash@G@std@@U?$equal_to@G@2@V?$allocator@G@2@@std@@A
_BSS	SEGMENT
?unprintable_chars@?DL@??RenderText@ImFont@@QBEXPAUImDrawList@@MUImVec2@@IABUImVec4@@PBD3M_N@Z@4V?$unordered_set@GU?$hash@G@std@@U?$equal_to@G@2@V?$allocator@G@2@@std@@A DB 020H DUP (?) ; `ImFont::RenderText'::`59'::unprintable_chars
_BSS	ENDS
;	COMDAT ?$TSS0@?DL@??RenderText@ImFont@@QBEXPAUImDrawList@@MUImVec2@@IABUImVec4@@PBD3M_N@Z@4HA
_BSS	SEGMENT
?$TSS0@?DL@??RenderText@ImFont@@QBEXPAUImDrawList@@MUImVec2@@IABUImVec4@@PBD3M_N@Z@4HA DD 01H DUP (?) ; TSS0<`template-parameter-59',ImFont::derText,unsigned char const * const,void,ImDrawList *,float,ImVec2,unsigned int,ImVec4 const &,char const *,ImDrawList *,float,bool>
_BSS	ENDS
_BSS	SEGMENT
?stb__barrier@@3PAEA DD 01H DUP (?)			; stb__barrier
?stb__barrier2@@3PAEA DD 01H DUP (?)			; stb__barrier2
?stb__barrier3@@3PAEA DD 01H DUP (?)			; stb__barrier3
?stb__barrier4@@3PAEA DD 01H DUP (?)			; stb__barrier4
?stb__dout@@3PAEA DD 01H DUP (?)			; stb__dout
_BSS	ENDS
;	COMDAT __xmm@80000000800000008000000080000000
CONST	SEGMENT
__xmm@80000000800000008000000080000000 DB 00H, 00H, 00H, 080H, 00H, 00H, 00H
	DB	080H, 00H, 00H, 00H, 080H, 00H, 00H, 00H, 080H
CONST	ENDS
;	COMDAT __xmm@7fffffffffffffff7fffffffffffffff
CONST	SEGMENT
__xmm@7fffffffffffffff7fffffffffffffff DB 0ffH, 0ffH, 0ffH, 0ffH, 0ffH, 0ffH
	DB	0ffH, 07fH, 0ffH, 0ffH, 0ffH, 0ffH, 0ffH, 0ffH, 0ffH, 07fH
CONST	ENDS
;	COMDAT __xmm@7fffffff7fffffff7fffffff7fffffff
CONST	SEGMENT
__xmm@7fffffff7fffffff7fffffff7fffffff DB 0ffH, 0ffH, 0ffH, 07fH, 0ffH, 0ffH
	DB	0ffH, 07fH, 0ffH, 0ffH, 0ffH, 07fH, 0ffH, 0ffH, 0ffH, 07fH
CONST	ENDS
;	COMDAT __xmm@41f00000000000000000000000000000
CONST	SEGMENT
__xmm@41f00000000000000000000000000000 DB 00H, 00H, 00H, 00H, 00H, 00H, 00H
	DB	00H, 00H, 00H, 00H, 00H, 00H, 00H, 0f0H, 'A'
CONST	ENDS
;	COMDAT __xmm@413000004130000041b8000041b80000
CONST	SEGMENT
__xmm@413000004130000041b8000041b80000 DB 00H, 00H, 0b8H, 'A', 00H, 00H, 0b8H
	DB	'A', 00H, 00H, '0A', 00H, 00H, '0A'
CONST	ENDS
;	COMDAT __xmm@4130000040a0000041b8000041100000
CONST	SEGMENT
__xmm@4130000040a0000041b8000041100000 DB 00H, 00H, 010H, 'A', 00H, 00H, 0b8H
	DB	'A', 00H, 00H, 0a0H, '@', 00H, 00H, '0A'
CONST	ENDS
;	COMDAT __xmm@41100000411000004188000041880000
CONST	SEGMENT
__xmm@41100000411000004188000041880000 DB 00H, 00H, 088H, 'A', 00H, 00H, 088H
	DB	'A', 00H, 00H, 010H, 'A', 00H, 00H, 010H, 'A'
CONST	ENDS
;	COMDAT __xmm@41000000408000004180000040e00000
CONST	SEGMENT
__xmm@41000000408000004180000040e00000 DB 00H, 00H, 0e0H, '@', 00H, 00H, 080H
	DB	'A', 00H, 00H, 080H, '@', 00H, 00H, 00H, 'A'
CONST	ENDS
;	COMDAT __xmm@40a00000413000004110000041b80000
CONST	SEGMENT
__xmm@40a00000413000004110000041b80000 DB 00H, 00H, 0b8H, 'A', 00H, 00H, 010H
	DB	'A', 00H, 00H, '0A', 00H, 00H, 0a0H, '@'
CONST	ENDS
;	COMDAT __xmm@40490fdb40490fdb40490fdb40490fdb
CONST	SEGMENT
__xmm@40490fdb40490fdb40490fdb40490fdb DB 0dbH, 0fH, 'I@', 0dbH, 0fH, 'I@'
	DB	0dbH, 0fH, 'I@', 0dbH, 0fH, 'I@'
CONST	ENDS
;	COMDAT __xmm@40000000400000004000000040000000
CONST	SEGMENT
__xmm@40000000400000004000000040000000 DB 00H, 00H, 00H, '@', 00H, 00H, 00H
	DB	'@', 00H, 00H, 00H, '@', 00H, 00H, 00H, '@'
CONST	ENDS
;	COMDAT __xmm@3f80000000000000000000003f800000
CONST	SEGMENT
__xmm@3f80000000000000000000003f800000 DB 00H, 00H, 080H, '?', 00H, 00H, 00H
	DB	00H, 00H, 00H, 00H, 00H, 00H, 00H, 080H, '?'
CONST	ENDS
;	COMDAT __xmm@3daaaaab3daaaaab3daaaaab3daaaaab
CONST	SEGMENT
__xmm@3daaaaab3daaaaab3daaaaab3daaaaab DB 0abH, 0aaH, 0aaH, '=', 0abH, 0aaH
	DB	0aaH, '=', 0abH, 0aaH, 0aaH, '=', 0abH, 0aaH, 0aaH, '='
CONST	ENDS
;	COMDAT __xmm@00000008000000080000000800000008
CONST	SEGMENT
__xmm@00000008000000080000000800000008 DB 08H, 00H, 00H, 00H, 08H, 00H, 00H
	DB	00H, 08H, 00H, 00H, 00H, 08H, 00H, 00H, 00H
CONST	ENDS
;	COMDAT __xmm@00000003000000020000000100000000
CONST	SEGMENT
__xmm@00000003000000020000000100000000 DB 00H, 00H, 00H, 00H, 01H, 00H, 00H
	DB	00H, 02H, 00H, 00H, 00H, 03H, 00H, 00H, 00H
CONST	ENDS
;	COMDAT __xmm@00000000000000004198000041400000
CONST	SEGMENT
__xmm@00000000000000004198000041400000 DB 00H, 00H, '@A', 00H, 00H, 098H, 'A'
	DB	00H, 00H, 00H, 00H, 00H, 00H, 00H, 00H
CONST	ENDS
;	COMDAT __real@bf800000
CONST	SEGMENT
__real@bf800000 DD 0bf800000r			; -1
CONST	ENDS
;	COMDAT __real@8000000000000000
CONST	SEGMENT
__real@8000000000000000 DQ 08000000000000000r	; -0
CONST	ENDS
;	COMDAT __real@437f0000
CONST	SEGMENT
__real@437f0000 DD 0437f0000r			; 255
CONST	ENDS
;	COMDAT __real@4330000000000000
CONST	SEGMENT
__real@4330000000000000 DQ 04330000000000000r	; 4.5036e+15
CONST	ENDS
;	COMDAT __real@42c80000
CONST	SEGMENT
__real@42c80000 DD 042c80000r			; 100
CONST	ENDS
;	COMDAT __real@42b60000
CONST	SEGMENT
__real@42b60000 DD 042b60000r			; 91
CONST	ENDS
;	COMDAT __real@42920000
CONST	SEGMENT
__real@42920000 DD 042920000r			; 73
CONST	ENDS
;	COMDAT __real@425c0000
CONST	SEGMENT
__real@425c0000 DD 0425c0000r			; 55
CONST	ENDS
;	COMDAT __real@41f80000
CONST	SEGMENT
__real@41f80000 DD 041f80000r			; 31
CONST	ENDS
;	COMDAT __real@41b80000
CONST	SEGMENT
__real@41b80000 DD 041b80000r			; 23
CONST	ENDS
;	COMDAT __real@41a80000
CONST	SEGMENT
__real@41a80000 DD 041a80000r			; 21
CONST	ENDS
;	COMDAT __real@41980000
CONST	SEGMENT
__real@41980000 DD 041980000r			; 19
CONST	ENDS
;	COMDAT __real@41900000
CONST	SEGMENT
__real@41900000 DD 041900000r			; 18
CONST	ENDS
;	COMDAT __real@41880000
CONST	SEGMENT
__real@41880000 DD 041880000r			; 17
CONST	ENDS
;	COMDAT __real@41800000
CONST	SEGMENT
__real@41800000 DD 041800000r			; 16
CONST	ENDS
;	COMDAT __real@41500000
CONST	SEGMENT
__real@41500000 DD 041500000r			; 13
CONST	ENDS
;	COMDAT __real@41400000
CONST	SEGMENT
__real@41400000 DD 041400000r			; 12
CONST	ENDS
;	COMDAT __real@41100000
CONST	SEGMENT
__real@41100000 DD 041100000r			; 9
CONST	ENDS
;	COMDAT __real@40e00000
CONST	SEGMENT
__real@40e00000 DD 040e00000r			; 7
CONST	ENDS
;	COMDAT __real@40c90fdb
CONST	SEGMENT
__real@40c90fdb DD 040c90fdbr			; 6.28319
CONST	ENDS
;	COMDAT __real@40800000
CONST	SEGMENT
__real@40800000 DD 040800000r			; 4
CONST	ENDS
;	COMDAT __real@40400000
CONST	SEGMENT
__real@40400000 DD 040400000r			; 3
CONST	ENDS
;	COMDAT __real@3ffeb852
CONST	SEGMENT
__real@3ffeb852 DD 03ffeb852r			; 1.99
CONST	ENDS
;	COMDAT __real@3ff0000000000000
CONST	SEGMENT
__real@3ff0000000000000 DQ 03ff0000000000000r	; 1
CONST	ENDS
;	COMDAT __real@3f800000
CONST	SEGMENT
__real@3f800000 DD 03f800000r			; 1
CONST	ENDS
;	COMDAT __real@3f000000
CONST	SEGMENT
__real@3f000000 DD 03f000000r			; 0.5
CONST	ENDS
;	COMDAT __real@3e800000
CONST	SEGMENT
__real@3e800000 DD 03e800000r			; 0.25
CONST	ENDS
;	COMDAT __real@38800000
CONST	SEGMENT
__real@38800000 DD 038800000r			; 6.10352e-05
CONST	ENDS
;	COMDAT __real@37800000
CONST	SEGMENT
__real@37800000 DD 037800000r			; 1.52588e-05
CONST	ENDS
;	COMDAT __real@358637bd
CONST	SEGMENT
__real@358637bd DD 0358637bdr			; 1e-06
CONST	ENDS
;	COMDAT __real@00000000
CONST	SEGMENT
__real@00000000 DD 000000000r			; 0
CONST	ENDS
;	COMDAT ??_C@_0BB@MOGOBHAF@list?$DMT?$DO?5too?5long?$AA@
CONST	SEGMENT
??_C@_0BB@MOGOBHAF@list?$DMT?$DO?5too?5long?$AA@ DB 'list<T> too long', 00H ; `string'
CONST	ENDS
;	COMDAT ??_C@_0BD@OLBABOEK@vector?$DMT?$DO?5too?5long?$AA@
CONST	SEGMENT
??_C@_0BD@OLBABOEK@vector?$DMT?$DO?5too?5long?$AA@ DB 'vector<T> too long'
	DB	00H						; `string'
CONST	ENDS
;	COMDAT ?ranges@?1??GetGlyphRangesThai@ImFontAtlas@@QAEPBGXZ@4QBGB
CONST	SEGMENT
?ranges@?1??GetGlyphRangesThai@ImFontAtlas@@QAEPBGXZ@4QBGB DW 020H ; `ImFontAtlas::GetGlyphRangesThai'::`2'::ranges
	DW	0ffH
	DW	0e00H
	DW	0e7fH
	DW	00H
CONST	ENDS
;	COMDAT ?ranges@?1??GetGlyphRangesCyrillic@ImFontAtlas@@QAEPBGXZ@4QBGB
CONST	SEGMENT
?ranges@?1??GetGlyphRangesCyrillic@ImFontAtlas@@QAEPBGXZ@4QBGB DW 020H ; `ImFontAtlas::GetGlyphRangesCyrillic'::`2'::ranges
	DW	0ffH
	DW	0400H
	DW	052fH
	DW	02de0H
	DW	02dffH
	DW	0a640H
	DW	0a69fH
	DW	00H
CONST	ENDS
;	COMDAT ?base_ranges@?1??GetGlyphRangesJapanese@ImFontAtlas@@QAEPBGXZ@4PAGA
_DATA	SEGMENT
?base_ranges@?1??GetGlyphRangesJapanese@ImFontAtlas@@QAEPBGXZ@4PAGA DW 020H ; `ImFontAtlas::GetGlyphRangesJapanese'::`2'::base_ranges
	DW	0ffH
	DW	03000H
	DW	030ffH
	DW	031f0H
	DW	031ffH
	DW	0ff00H
	DW	0ffefH
_DATA	ENDS
;	COMDAT ?offsets_from_0x4E00@?1??GetGlyphRangesJapanese@ImFontAtlas@@QAEPBGXZ@4QBFB
CONST	SEGMENT
?offsets_from_0x4E00@?1??GetGlyphRangesJapanese@ImFontAtlas@@QAEPBGXZ@4QBFB DW 0ffffH ; `ImFontAtlas::GetGlyphRangesJapanese'::`2'::offsets_from_0x4E00
	DW	00H
	DW	01H
	DW	03H
	DW	00H
	DW	00H
	DW	00H
	DW	00H
	DW	01H
	DW	00H
	DW	05H
	DW	01H
	DW	01H
	DW	00H
	DW	07H
	DW	04H
	DW	06H
	DW	0aH
	DW	00H
	DW	01H
	DW	09H
	DW	09H
	DW	07H
	DW	01H
	DW	03H
	DW	013H
	DW	01H
	DW	0aH
	DW	07H
	DW	01H
	DW	00H
	DW	01H
	DW	00H
	DW	05H
	DW	01H
	DW	00H
	DW	06H
	DW	04H
	DW	02H
	DW	06H
	DW	00H
	DW	00H
	DW	0cH
	DW	06H
	DW	08H
	DW	00H
	DW	03H
	DW	05H
	DW	00H
	DW	01H
	DW	00H
	DW	09H
	DW	00H
	DW	00H
	DW	08H
	DW	01H
	DW	01H
	DW	03H
	DW	04H
	DW	05H
	DW	0dH
	DW	00H
	DW	00H
	DW	08H
	DW	02H
	DW	011H
	DW	04H
	DW	03H
	DW	01H
	DW	01H
	DW	09H
	DW	06H
	DW	00H
	DW	00H
	DW	00H
	DW	02H
	DW	01H
	DW	03H
	DW	02H
	DW	016H
	DW	01H
	DW	09H
	DW	0bH
	DW	01H
	DW	0dH
	DW	01H
	DW	03H
	DW	0cH
	DW	00H
	DW	05H
	DW	09H
	DW	02H
	DW	00H
	DW	06H
	DW	0cH
	DW	05H
	DW	03H
	DW	0cH
	DW	04H
	DW	01H
	DW	02H
	DW	010H
	DW	01H
	DW	01H
	DW	04H
	DW	06H
	DW	05H
	DW	03H
	DW	00H
	DW	06H
	DW	0dH
	DW	0fH
	DW	05H
	DW	0cH
	DW	08H
	DW	0eH
	DW	00H
	DW	00H
	DW	06H
	DW	0fH
	DW	03H
	DW	06H
	DW	00H
	DW	012H
	DW	08H
	DW	01H
	DW	06H
	DW	0eH
	DW	01H
	DW	05H
	DW	04H
	DW	0cH
	DW	018H
	DW	03H
	DW	0dH
	DW	0cH
	DW	0aH
	DW	018H
	DW	00H
	DW	00H
	DW	00H
	DW	01H
	DW	00H
	DW	01H
	DW	01H
	DW	02H
	DW	09H
	DW	0aH
	DW	02H
	DW	02H
	DW	00H
	DW	00H
	DW	03H
	DW	03H
	DW	01H
	DW	00H
	DW	03H
	DW	08H
	DW	00H
	DW	03H
	DW	02H
	DW	04H
	DW	04H
	DW	01H
	DW	06H
	DW	0bH
	DW	0aH
	DW	0eH
	DW	06H
	DW	0fH
	DW	03H
	DW	04H
	DW	0fH
	DW	01H
	DW	00H
	DW	00H
	DW	05H
	DW	02H
	DW	02H
	DW	00H
	DW	00H
	DW	01H
	DW	06H
	DW	05H
	DW	05H
	DW	06H
	DW	00H
	DW	03H
	DW	06H
	DW	05H
	DW	00H
	DW	00H
	DW	01H
	DW	00H
	DW	0bH
	DW	02H
	DW	02H
	DW	08H
	DW	04H
	DW	07H
	DW	00H
	DW	0aH
	DW	00H
	DW	01H
	DW	02H
	DW	011H
	DW	013H
	DW	03H
	DW	00H
	DW	02H
	DW	05H
	DW	00H
	DW	06H
	DW	02H
	DW	04H
	DW	04H
	DW	06H
	DW	01H
	DW	01H
	DW	0bH
	DW	02H
	DW	00H
	DW	03H
	DW	01H
	DW	02H
	DW	01H
	DW	02H
	DW	0aH
	DW	07H
	DW	06H
	DW	03H
	DW	010H
	DW	00H
	DW	08H
	DW	018H
	DW	00H
	DW	00H
	DW	03H
	DW	01H
	DW	01H
	DW	03H
	DW	00H
	DW	01H
	DW	06H
	DW	00H
	DW	00H
	DW	00H
	DW	02H
	DW	00H
	DW	01H
	DW	05H
	DW	0fH
	DW	00H
	DW	01H
	DW	00H
	DW	00H
	DW	02H
	DW	0bH
	DW	013H
	DW	01H
	DW	04H
	DW	013H
	DW	07H
	DW	06H
	DW	05H
	DW	01H
	DW	00H
	DW	00H
	DW	00H
	DW	00H
	DW	05H
	DW	01H
	DW	00H
	DW	01H
	DW	09H
	DW	00H
	DW	00H
	DW	05H
	DW	00H
	DW	02H
	DW	00H
	DW	01H
	DW	00H
	DW	03H
	DW	00H
	DW	0bH
	DW	03H
	DW	00H
	DW	02H
	DW	00H
	DW	00H
	DW	00H
	DW	00H
	DW	00H
	DW	09H
	DW	03H
	DW	06H
	DW	04H
	DW	0cH
	DW	00H
	DW	0eH
	DW	00H
	DW	00H
	DW	01dH
	DW	0aH
	DW	08H
	DW	00H
	DW	0eH
	DW	025H
	DW	0dH
	DW	00H
	DW	01fH
	DW	010H
	DW	013H
	DW	00H
	DW	08H
	DW	01eH
	DW	01H
	DW	014H
	DW	08H
	DW	03H
	DW	030H
	DW	015H
	DW	01H
	DW	00H
	DW	0cH
	DW	00H
	DW	0aH
	DW	02cH
	DW	022H
	DW	02aH
	DW	036H
	DW	0bH
	DW	012H
	DW	052H
	DW	00H
	DW	02H
	DW	01H
	DW	02H
	DW	0cH
	DW	01H
	DW	00H
	DW	06H
	DW	02H
	DW	011H
	DW	02H
	DW	0cH
	DW	07H
	DW	00H
	DW	07H
	DW	011H
	DW	04H
	DW	02H
	DW	06H
	DW	018H
	DW	017H
	DW	08H
	DW	017H
	DW	027H
	DW	02H
	DW	010H
	DW	017H
	DW	01H
	DW	00H
	DW	05H
	DW	01H
	DW	02H
	DW	0fH
	DW	0eH
	DW	05H
	DW	06H
	DW	02H
	DW	0bH
	DW	00H
	DW	08H
	DW	06H
	DW	02H
	DW	02H
	DW	02H
	DW	0eH
	DW	014H
	DW	04H
	DW	0fH
	DW	03H
	DW	04H
	DW	0bH
	DW	0aH
	DW	0aH
	DW	02H
	DW	05H
	DW	02H
	DW	01H
	DW	01eH
	DW	02H
	DW	01H
	DW	00H
	DW	00H
	DW	016H
	DW	05H
	DW	05H
	DW	00H
	DW	03H
	DW	01H
	DW	05H
	DW	04H
	DW	01H
	DW	00H
	DW	00H
	DW	02H
	DW	02H
	DW	015H
	DW	01H
	DW	05H
	DW	01H
	DW	02H
	DW	010H
	DW	02H
	DW	01H
	DW	03H
	DW	04H
	DW	00H
	DW	08H
	DW	04H
	DW	00H
	DW	00H
	DW	05H
	DW	0eH
	DW	0bH
	DW	02H
	DW	010H
	DW	01H
	DW	0dH
	DW	01H
	DW	07H
	DW	00H
	DW	016H
	DW	0fH
	DW	03H
	DW	01H
	DW	016H
	DW	07H
	DW	0eH
	DW	016H
	DW	013H
	DW	0bH
	DW	018H
	DW	012H
	DW	02eH
	DW	0aH
	DW	014H
	DW	040H
	DW	02dH
	DW	03H
	DW	02H
	DW	00H
	DW	04H
	DW	05H
	DW	00H
	DW	01H
	DW	04H
	DW	019H
	DW	01H
	DW	00H
	DW	00H
	DW	02H
	DW	0aH
	DW	00H
	DW	00H
	DW	00H
	DW	01H
	DW	00H
	DW	01H
	DW	02H
	DW	00H
	DW	00H
	DW	09H
	DW	01H
	DW	02H
	DW	00H
	DW	00H
	DW	00H
	DW	02H
	DW	05H
	DW	02H
	DW	01H
	DW	01H
	DW	05H
	DW	05H
	DW	08H
	DW	01H
	DW	01H
	DW	01H
	DW	05H
	DW	01H
	DW	04H
	DW	09H
	DW	01H
	DW	03H
	DW	00H
	DW	01H
	DW	00H
	DW	01H
	DW	01H
	DW	02H
	DW	00H
	DW	00H
	DW	02H
	DW	00H
	DW	01H
	DW	08H
	DW	016H
	DW	08H
	DW	01H
	DW	00H
	DW	00H
	DW	00H
	DW	00H
	DW	04H
	DW	02H
	DW	01H
	DW	00H
	DW	09H
	DW	08H
	DW	05H
	DW	00H
	DW	09H
	DW	01H
	DW	01eH
	DW	018H
	DW	02H
	DW	06H
	DW	04H
	DW	027H
	DW	00H
	DW	0eH
	DW	05H
	DW	010H
	DW	06H
	DW	01aH
	DW	0b3H
	DW	00H
	DW	02H
	DW	01H
	DW	01H
	DW	00H
	DW	00H
	DW	00H
	DW	05H
	DW	02H
	DW	09H
	DW	06H
	DW	00H
	DW	02H
	DW	05H
	DW	010H
	DW	07H
	DW	05H
	DW	01H
	DW	01H
	DW	00H
	DW	02H
	DW	04H
	DW	04H
	DW	07H
	DW	0fH
	DW	0dH
	DW	0eH
	DW	00H
	DW	00H
	DW	03H
	DW	00H
	DW	01H
	DW	00H
	DW	00H
	DW	00H
	DW	02H
	DW	01H
	DW	06H
	DW	04H
	DW	05H
	DW	01H
	DW	04H
	DW	09H
	DW	00H
	DW	03H
	DW	01H
	DW	08H
	DW	00H
	DW	00H
	DW	0aH
	DW	05H
	DW	00H
	DW	02bH
	DW	00H
	DW	02H
	DW	06H
	DW	08H
	DW	04H
	DW	00H
	DW	02H
	DW	00H
	DW	00H
	DW	09H
	DW	06H
	DW	00H
	DW	09H
	DW	03H
	DW	01H
	DW	06H
	DW	014H
	DW	0eH
	DW	06H
	DW	01H
	DW	04H
	DW	00H
	DW	07H
	DW	02H
	DW	03H
	DW	00H
	DW	02H
	DW	00H
	DW	05H
	DW	00H
	DW	03H
	DW	01H
	DW	00H
	DW	03H
	DW	09H
	DW	07H
	DW	00H
	DW	03H
	DW	04H
	DW	00H
	DW	04H
	DW	09H
	DW	01H
	DW	06H
	DW	00H
	DW	09H
	DW	00H
	DW	00H
	DW	02H
	DW	03H
	DW	0aH
	DW	09H
	DW	01cH
	DW	03H
	DW	06H
	DW	02H
	DW	04H
	DW	01H
	DW	02H
	DW	020H
	DW	04H
	DW	01H
	DW	012H
	DW	02H
	DW	00H
	DW	03H
	DW	01H
	DW	05H
	DW	01eH
	DW	0aH
	DW	00H
	DW	02H
	DW	02H
	DW	02H
	DW	00H
	DW	07H
	DW	09H
	DW	08H
	DW	0bH
	DW	0aH
	DW	0bH
	DW	07H
	DW	02H
	DW	0dH
	DW	07H
	DW	05H
	DW	0aH
	DW	00H
	DW	03H
	DW	028H
	DW	02H
	DW	00H
	DW	01H
	DW	06H
	DW	0cH
	DW	00H
	DW	04H
	DW	05H
	DW	01H
	DW	05H
	DW	0bH
	DW	0bH
	DW	015H
	DW	04H
	DW	08H
	DW	03H
	DW	07H
	DW	08H
	DW	08H
	DW	021H
	DW	05H
	DW	017H
	DW	00H
	DW	00H
	DW	013H
	DW	08H
	DW	08H
	DW	02H
	DW	03H
	DW	00H
	DW	06H
	DW	01H
	DW	01H
	DW	01H
	DW	05H
	DW	01H
	DW	01bH
	DW	04H
	DW	02H
	DW	05H
	DW	00H
	DW	03H
	DW	05H
	DW	06H
	DW	03H
	DW	01H
	DW	00H
	DW	03H
	DW	01H
	DW	0cH
	DW	05H
	DW	03H
	DW	03H
	DW	02H
	DW	00H
	DW	07H
	DW	07H
	DW	02H
	DW	01H
	DW	00H
	DW	04H
	DW	00H
	DW	01H
	DW	01H
	DW	02H
	DW	00H
	DW	0aH
	DW	0aH
	DW	06H
	DW	02H
	DW	05H
	DW	09H
	DW	07H
	DW	05H
	DW	0fH
	DW	0fH
	DW	015H
	DW	06H
	DW	0bH
	DW	05H
	DW	014H
	DW	04H
	DW	03H
	DW	05H
	DW	05H
	DW	02H
	DW	05H
	DW	00H
	DW	02H
	DW	01H
	DW	00H
	DW	01H
	DW	07H
	DW	01cH
	DW	00H
	DW	09H
	DW	00H
	DW	05H
	DW	0cH
	DW	05H
	DW	05H
	DW	012H
	DW	01eH
	DW	00H
	DW	0cH
	DW	03H
	DW	03H
	DW	015H
	DW	010H
	DW	019H
	DW	020H
	DW	09H
	DW	03H
	DW	0eH
	DW	0bH
	DW	018H
	DW	05H
	DW	042H
	DW	09H
	DW	01H
	DW	02H
	DW	00H
	DW	05H
	DW	09H
	DW	01H
	DW	05H
	DW	01H
	DW	08H
	DW	00H
	DW	08H
	DW	03H
	DW	03H
	DW	00H
	DW	01H
	DW	0fH
	DW	01H
	DW	04H
	DW	08H
	DW	01H
	DW	02H
	DW	07H
	DW	00H
	DW	07H
	DW	02H
	DW	08H
	DW	03H
	DW	07H
	DW	05H
	DW	03H
	DW	07H
	DW	0aH
	DW	02H
	DW	01H
	DW	00H
	DW	00H
	DW	02H
	DW	019H
	DW	00H
	DW	06H
	DW	04H
	DW	00H
	DW	0aH
	DW	00H
	DW	04H
	DW	02H
	DW	04H
	DW	01H
	DW	0cH
	DW	05H
	DW	026H
	DW	04H
	DW	00H
	DW	04H
	DW	01H
	DW	0aH
	DW	05H
	DW	09H
	DW	04H
	DW	00H
	DW	0eH
	DW	04H
	DW	02H
	DW	05H
	DW	012H
	DW	014H
	DW	015H
	DW	01H
	DW	03H
	DW	00H
	DW	05H
	DW	00H
	DW	07H
	DW	00H
	DW	03H
	DW	07H
	DW	01H
	DW	03H
	DW	01H
	DW	01H
	DW	08H
	DW	01H
	DW	00H
	DW	00H
	DW	00H
	DW	03H
	DW	02H
	DW	05H
	DW	02H
	DW	0bH
	DW	06H
	DW	00H
	DW	0dH
	DW	01H
	DW	03H
	DW	09H
	DW	01H
	DW	0cH
	DW	00H
	DW	010H
	DW	06H
	DW	02H
	DW	01H
	DW	00H
	DW	02H
	DW	01H
	DW	0cH
	DW	06H
	DW	0dH
	DW	0bH
	DW	02H
	DW	00H
	DW	01cH
	DW	01H
	DW	07H
	DW	08H
	DW	0eH
	DW	0dH
	DW	08H
	DW	0dH
	DW	00H
	DW	02H
	DW	00H
	DW	05H
	DW	04H
	DW	08H
	DW	0aH
	DW	02H
	DW	025H
	DW	02aH
	DW	013H
	DW	06H
	DW	06H
	DW	07H
	DW	04H
	DW	0eH
	DW	0bH
	DW	012H
	DW	0eH
	DW	050H
	DW	07H
	DW	06H
	DW	00H
	DW	04H
	DW	048H
	DW	0cH
	DW	024H
	DW	01bH
	DW	07H
	DW	07H
	DW	00H
	DW	0eH
	DW	011H
	DW	013H
	DW	0a4H
	DW	01bH
	DW	00H
	DW	05H
	DW	0aH
	DW	07H
	DW	03H
	DW	0dH
	DW	06H
	DW	0eH
	DW	00H
	DW	02H
	DW	02H
	DW	05H
	DW	03H
	DW	00H
	DW	06H
	DW	0dH
	DW	00H
	DW	00H
	DW	0aH
	DW	01dH
	DW	00H
	DW	04H
	DW	00H
	DW	03H
	DW	0dH
	DW	00H
	DW	03H
	DW	01H
	DW	06H
	DW	033H
	DW	01H
	DW	05H
	DW	01cH
	DW	02H
	DW	00H
	DW	08H
	DW	00H
	DW	014H
	DW	02H
	DW	04H
	DW	00H
	DW	019H
	DW	02H
	DW	0aH
	DW	0dH
	DW	0aH
	DW	00H
	DW	010H
	DW	04H
	DW	00H
	DW	01H
	DW	00H
	DW	02H
	DW	01H
	DW	07H
	DW	00H
	DW	01H
	DW	08H
	DW	0bH
	DW	00H
	DW	00H
	DW	01H
	DW	02H
	DW	07H
	DW	02H
	DW	017H
	DW	0bH
	DW	06H
	DW	06H
	DW	04H
	DW	010H
	DW	02H
	DW	02H
	DW	02H
	DW	00H
	DW	016H
	DW	09H
	DW	03H
	DW	03H
	DW	05H
	DW	02H
	DW	00H
	DW	0fH
	DW	010H
	DW	015H
	DW	02H
	DW	09H
	DW	014H
	DW	0fH
	DW	0fH
	DW	05H
	DW	03H
	DW	09H
	DW	01H
	DW	00H
	DW	00H
	DW	01H
	DW	07H
	DW	07H
	DW	05H
	DW	04H
	DW	02H
	DW	02H
	DW	02H
	DW	026H
	DW	018H
	DW	0eH
	DW	00H
	DW	00H
	DW	0fH
	DW	05H
	DW	06H
	DW	018H
	DW	0eH
	DW	05H
	DW	05H
	DW	0bH
	DW	00H
	DW	015H
	DW	0cH
	DW	00H
	DW	03H
	DW	08H
	DW	04H
	DW	0bH
	DW	01H
	DW	08H
	DW	00H
	DW	0bH
	DW	01bH
	DW	07H
	DW	02H
	DW	04H
	DW	09H
	DW	015H
	DW	03bH
	DW	00H
	DW	01H
	DW	027H
	DW	03H
	DW	03cH
	DW	03eH
	DW	03H
	DW	00H
	DW	0cH
	DW	0bH
	DW	00H
	DW	03H
	DW	01eH
	DW	0bH
	DW	00H
	DW	0dH
	DW	058H
	DW	04H
	DW	0fH
	DW	05H
	DW	01cH
	DW	0dH
	DW	01H
	DW	04H
	DW	030H
	DW	011H
	DW	011H
	DW	04H
	DW	01cH
	DW	020H
	DW	02eH
	DW	00H
	DW	010H
	DW	00H
	DW	012H
	DW	0bH
	DW	01H
	DW	08H
	DW	06H
	DW	026H
	DW	0bH
	DW	02H
	DW	06H
	DW	0bH
	DW	026H
	DW	02H
	DW	00H
	DW	02dH
	DW	03H
	DW	0bH
	DW	02H
	DW	07H
	DW	08H
	DW	04H
	DW	01eH
	DW	0eH
	DW	011H
	DW	02H
	DW	01H
	DW	01H
	DW	041H
	DW	012H
	DW	0cH
	DW	010H
	DW	04H
	DW	02H
	DW	02dH
	DW	07bH
	DW	0cH
	DW	038H
	DW	021H
	DW	01H
	DW	04H
	DW	03H
	DW	04H
	DW	07H
	DW	00H
	DW	00H
	DW	00H
	DW	03H
	DW	02H
	DW	00H
	DW	010H
	DW	04H
	DW	02H
	DW	04H
	DW	02H
	DW	00H
	DW	07H
	DW	04H
	DW	05H
	DW	02H
	DW	01aH
	DW	02H
	DW	019H
	DW	06H
	DW	0bH
	DW	06H
	DW	01H
	DW	010H
	DW	02H
	DW	06H
	DW	011H
	DW	04dH
	DW	0fH
	DW	03H
	DW	023H
	DW	00H
	DW	01H
	DW	00H
	DW	05H
	DW	01H
	DW	00H
	DW	026H
	DW	010H
	DW	06H
	DW	03H
	DW	0cH
	DW	03H
	DW	03H
	DW	03H
	DW	00H
	DW	09H
	DW	03H
	DW	01H
	DW	03H
	DW	05H
	DW	02H
	DW	09H
	DW	00H
	DW	012H
	DW	00H
	DW	019H
	DW	01H
	DW	03H
	DW	020H
	DW	01H
	DW	048H
	DW	02eH
	DW	06H
	DW	02H
	DW	07H
	DW	01H
	DW	03H
	DW	0eH
	DW	011H
	DW	00H
	DW	01cH
	DW	01H
	DW	028H
	DW	0dH
	DW	00H
	DW	014H
	DW	0fH
	DW	028H
	DW	06H
	DW	026H
	DW	018H
	DW	0cH
	DW	02bH
	DW	01H
	DW	01H
	DW	09H
	DW	00H
	DW	0cH
	DW	06H
	DW	00H
	DW	06H
	DW	02H
	DW	04H
	DW	013H
	DW	03H
	DW	07H
	DW	01H
	DW	030H
	DW	00H
	DW	09H
	DW	05H
	DW	00H
	DW	05H
	DW	06H
	DW	09H
	DW	06H
	DW	0aH
	DW	0fH
	DW	02H
	DW	0bH
	DW	013H
	DW	03H
	DW	09H
	DW	02H
	DW	00H
	DW	01H
	DW	0aH
	DW	01H
	DW	01bH
	DW	08H
	DW	01H
	DW	03H
	DW	06H
	DW	01H
	DW	0eH
	DW	00H
	DW	01aH
	DW	00H
	DW	01bH
	DW	010H
	DW	03H
	DW	04H
	DW	09H
	DW	06H
	DW	02H
	DW	017H
	DW	09H
	DW	0aH
	DW	05H
	DW	019H
	DW	02H
	DW	01H
	DW	06H
	DW	01H
	DW	01H
	DW	030H
	DW	0fH
	DW	09H
	DW	0fH
	DW	0eH
	DW	03H
	DW	04H
	DW	01aH
	DW	03cH
	DW	01dH
	DW	0dH
	DW	025H
	DW	015H
	DW	01H
	DW	06H
	DW	04H
	DW	00H
	DW	02H
	DW	0bH
	DW	016H
	DW	017H
	DW	010H
	DW	010H
	DW	02H
	DW	02H
	DW	01H
	DW	03H
	DW	00H
	DW	05H
	DW	01H
	DW	06H
	DW	04H
	DW	00H
	DW	00H
	DW	04H
	DW	00H
	DW	00H
	DW	08H
	DW	03H
	DW	00H
	DW	02H
	DW	05H
	DW	00H
	DW	07H
	DW	01H
	DW	07H
	DW	03H
	DW	0dH
	DW	02H
	DW	04H
	DW	0aH
	DW	03H
	DW	00H
	DW	02H
	DW	01fH
	DW	00H
	DW	012H
	DW	03H
	DW	00H
	DW	0cH
	DW	0aH
	DW	04H
	DW	01H
	DW	00H
	DW	07H
	DW	05H
	DW	07H
	DW	00H
	DW	05H
	DW	04H
	DW	0cH
	DW	02H
	DW	016H
	DW	0aH
	DW	04H
	DW	02H
	DW	0fH
	DW	02H
	DW	08H
	DW	09H
	DW	00H
	DW	017H
	DW	02H
	DW	0c5H
	DW	033H
	DW	03H
	DW	01H
	DW	01H
	DW	04H
	DW	0dH
	DW	04H
	DW	03H
	DW	015H
	DW	04H
	DW	013H
	DW	03H
	DW	0aH
	DW	05H
	DW	028H
	DW	00H
	DW	04H
	DW	01H
	DW	01H
	DW	0aH
	DW	04H
	DW	01H
	DW	01bH
	DW	022H
	DW	07H
	DW	015H
	DW	02H
	DW	011H
	DW	02H
	DW	09H
	DW	06H
	DW	04H
	DW	02H
	DW	03H
	DW	00H
	DW	04H
	DW	02H
	DW	07H
	DW	08H
	DW	02H
	DW	05H
	DW	01H
	DW	0fH
	DW	015H
	DW	03H
	DW	04H
	DW	04H
	DW	02H
	DW	02H
	DW	011H
	DW	016H
	DW	01H
	DW	05H
	DW	016H
	DW	04H
	DW	01aH
	DW	07H
	DW	00H
	DW	020H
	DW	01H
	DW	0bH
	DW	02aH
	DW	0fH
	DW	04H
	DW	01H
	DW	02H
	DW	05H
	DW	00H
	DW	013H
	DW	03H
	DW	01H
	DW	08H
	DW	06H
	DW	00H
	DW	0aH
	DW	01H
	DW	09H
	DW	02H
	DW	0dH
	DW	01eH
	DW	08H
	DW	02H
	DW	018H
	DW	011H
	DW	013H
	DW	01H
	DW	04H
	DW	04H
	DW	019H
	DW	0dH
	DW	00H
	DW	0aH
	DW	010H
	DW	0bH
	DW	027H
	DW	012H
	DW	08H
	DW	05H
	DW	01eH
	DW	052H
	DW	01H
	DW	06H
	DW	08H
	DW	012H
	DW	04dH
	DW	0bH
	DW	0dH
	DW	014H
	DW	04bH
	DW	0bH
	DW	070H
	DW	04eH
	DW	021H
	DW	03H
	DW	00H
	DW	00H
	DW	03cH
	DW	011H
	DW	054H
	DW	09H
	DW	01H
	DW	01H
	DW	0cH
	DW	01eH
	DW	0aH
	DW	031H
	DW	05H
	DW	020H
	DW	09eH
	DW	0b2H
	DW	05H
	DW	05H
	DW	06H
	DW	03H
	DW	03H
	DW	01H
	DW	03H
	DW	01H
	DW	04H
	DW	07H
	DW	06H
	DW	013H
	DW	01fH
	DW	015H
	DW	00H
	DW	02H
	DW	09H
	DW	05H
	DW	06H
	DW	01bH
	DW	04H
	DW	09H
	DW	08H
	DW	01H
	DW	04cH
	DW	012H
	DW	0cH
	DW	01H
	DW	04H
	DW	00H
	DW	03H
	DW	03H
	DW	06H
	DW	03H
	DW	0cH
	DW	02H
	DW	08H
	DW	01eH
	DW	010H
	DW	02H
	DW	019H
	DW	01H
	DW	05H
	DW	05H
	DW	04H
	DW	03H
	DW	00H
	DW	06H
	DW	0aH
	DW	02H
	DW	03H
	DW	01H
	DW	00H
	DW	05H
	DW	01H
	DW	013H
	DW	03H
	DW	00H
	DW	08H
	DW	01H
	DW	05H
	DW	02H
	DW	06H
	DW	00H
	DW	00H
	DW	00H
	DW	013H
	DW	01H
	DW	02H
	DW	00H
	DW	05H
	DW	01H
	DW	02H
	DW	05H
	DW	01H
	DW	03H
	DW	07H
	DW	00H
	DW	04H
	DW	0cH
	DW	07H
	DW	03H
	DW	0aH
	DW	016H
	DW	00H
	DW	09H
	DW	05H
	DW	01H
	DW	00H
	DW	02H
	DW	014H
	DW	01H
	DW	01H
	DW	03H
	DW	017H
	DW	01eH
	DW	03H
	DW	09H
	DW	09H
	DW	01H
	DW	04H
	DW	0bfH
	DW	0eH
	DW	03H
	DW	0fH
	DW	06H
	DW	08H
	DW	032H
	DW	00H
	DW	01H
	DW	00H
	DW	00H
	DW	04H
	DW	00H
	DW	00H
	DW	01H
	DW	00H
	DW	02H
	DW	04H
	DW	02H
	DW	00H
	DW	02H
	DW	03H
	DW	00H
	DW	02H
	DW	00H
	DW	02H
	DW	02H
	DW	08H
	DW	07H
	DW	00H
	DW	01H
	DW	01H
	DW	01H
	DW	03H
	DW	03H
	DW	011H
	DW	0bH
	DW	05bH
	DW	01H
	DW	09H
	DW	03H
	DW	02H
	DW	0dH
	DW	04H
	DW	018H
	DW	0fH
	DW	029H
	DW	03H
	DW	0dH
	DW	03H
	DW	01H
	DW	014H
	DW	04H
	DW	07dH
	DW	01dH
	DW	01eH
	DW	01H
	DW	00H
	DW	04H
	DW	0cH
	DW	02H
	DW	015H
	DW	04H
	DW	05H
	DW	05H
	DW	013H
	DW	0bH
	DW	00H
	DW	0dH
	DW	0bH
	DW	056H
	DW	02H
	DW	012H
	DW	00H
	DW	07H
	DW	01H
	DW	08H
	DW	08H
	DW	02H
	DW	02H
	DW	016H
	DW	01H
	DW	02H
	DW	06H
	DW	05H
	DW	02H
	DW	00H
	DW	01H
	DW	02H
	DW	08H
	DW	00H
	DW	02H
	DW	00H
	DW	05H
	DW	02H
	DW	01H
	DW	00H
	DW	02H
	DW	0aH
	DW	02H
	DW	00H
	DW	05H
	DW	09H
	DW	02H
	DW	01H
	DW	02H
	DW	00H
	DW	01H
	DW	00H
	DW	04H
	DW	00H
	DW	00H
	DW	0aH
	DW	02H
	DW	05H
	DW	03H
	DW	00H
	DW	06H
	DW	01H
	DW	00H
	DW	01H
	DW	04H
	DW	04H
	DW	021H
	DW	03H
	DW	0dH
	DW	011H
	DW	03H
	DW	012H
	DW	06H
	DW	04H
	DW	07H
	DW	01H
	DW	05H
	DW	04eH
	DW	00H
	DW	04H
	DW	01H
	DW	0dH
	DW	07H
	DW	01H
	DW	08H
	DW	01H
	DW	00H
	DW	023H
	DW	01bH
	DW	0fH
	DW	03H
	DW	00H
	DW	00H
	DW	00H
	DW	01H
	DW	0bH
	DW	05H
	DW	029H
	DW	026H
	DW	0fH
	DW	016H
	DW	06H
	DW	0eH
	DW	0eH
	DW	02H
	DW	01H
	DW	0bH
	DW	06H
	DW	014H
	DW	03fH
	DW	05H
	DW	08H
	DW	01bH
	DW	07H
	DW	0bH
	DW	02H
	DW	02H
	DW	028H
	DW	03aH
	DW	017H
	DW	032H
	DW	036H
	DW	038H
	DW	0125H
	DW	08H
	DW	08H
	DW	01H
	DW	05H
	DW	01H
	DW	0eH
	DW	00H
	DW	01H
	DW	0cH
	DW	025H
	DW	059H
	DW	08H
	DW	08H
	DW	08H
	DW	02H
	DW	0aH
	DW	06H
	DW	00H
	DW	00H
	DW	00H
	DW	04H
	DW	05H
	DW	02H
	DW	01H
	DW	00H
	DW	01H
	DW	01H
	DW	02H
	DW	07H
	DW	00H
	DW	03H
	DW	03H
	DW	00H
	DW	04H
	DW	06H
	DW	00H
	DW	03H
	DW	02H
	DW	013H
	DW	03H
	DW	08H
	DW	00H
	DW	00H
	DW	00H
	DW	04H
	DW	04H
	DW	010H
	DW	00H
	DW	04H
	DW	01H
	DW	05H
	DW	01H
	DW	03H
	DW	00H
	DW	03H
	DW	04H
	DW	06H
	DW	02H
	DW	011H
	DW	0aH
	DW	0aH
	DW	01fH
	DW	06H
	DW	04H
	DW	03H
	DW	06H
	DW	0aH
	DW	07eH
	DW	07H
	DW	03H
	DW	02H
	DW	02H
	DW	00H
	DW	09H
	DW	00H
	DW	00H
	DW	05H
	DW	014H
	DW	0dH
	DW	00H
	DW	0fH
	DW	00H
	DW	06H
	DW	00H
	DW	02H
	DW	05H
	DW	08H
	DW	040H
	DW	032H
	DW	03H
	DW	02H
	DW	0cH
	DW	02H
	DW	09H
	DW	00H
	DW	00H
	DW	0bH
	DW	08H
	DW	014H
	DW	06dH
	DW	02H
	DW	012H
	DW	017H
	DW	00H
	DW	00H
	DW	09H
	DW	03dH
	DW	03H
	DW	00H
	DW	01cH
	DW	029H
	DW	04dH
	DW	01bH
	DW	013H
	DW	011H
	DW	051H
	DW	05H
	DW	02H
	DW	0eH
	DW	05H
	DW	053H
	DW	039H
	DW	0fcH
	DW	0eH
	DW	09aH
	DW	0107H
	DW	0eH
	DW	014H
	DW	08H
	DW	0dH
	DW	06H
	DW	039H
	DW	027H
	DW	026H
CONST	ENDS
;	COMDAT ?ranges@?1??GetGlyphRangesChinese@ImFontAtlas@@QAEPBGXZ@4QBGB
CONST	SEGMENT
?ranges@?1??GetGlyphRangesChinese@ImFontAtlas@@QAEPBGXZ@4QBGB DW 020H ; `ImFontAtlas::GetGlyphRangesChinese'::`2'::ranges
	DW	0ffH
	DW	03000H
	DW	030ffH
	DW	031f0H
	DW	031ffH
	DW	0f900H
	DW	0faffH
	DW	0ff00H
	DW	0ffefH
	DW	00H
CONST	ENDS
;	COMDAT ?ranges@?1??GetGlyphRangesKorean@ImFontAtlas@@QAEPBGXZ@4QBGB
CONST	SEGMENT
?ranges@?1??GetGlyphRangesKorean@ImFontAtlas@@QAEPBGXZ@4QBGB DW 020H ; `ImFontAtlas::GetGlyphRangesKorean'::`2'::ranges
	DW	0ffH
	DW	03131H
	DW	03163H
	DW	0ac00H
	DW	0d79dH
	DW	00H
CONST	ENDS
;	COMDAT ?ranges@?1??GetGlyphRangesDefault@ImFontAtlas@@QAEPBGXZ@4QBGB
CONST	SEGMENT
?ranges@?1??GetGlyphRangesDefault@ImFontAtlas@@QAEPBGXZ@4QBGB DW 020H ; `ImFontAtlas::GetGlyphRangesDefault'::`2'::ranges
	DW	0ffH
	DW	00H
CONST	ENDS
_DATA	SEGMENT
?GNullClipRect@@3UImVec4@@B DD 0c6000000r	; -8192	; GNullClipRect
	DD	0c6000000r			; -8192
	DD	046000000r			; 8192
	DD	046000000r			; 8192
_DATA	ENDS
;	COMDAT xdata$x
xdata$x	SEGMENT
__catchsym$??$_Insert@ABGV?$_List_unchecked_const_iterator@V?$_List_val@U?$_List_simple_types@G@std@@@std@@U_Iterator_base0@2@@std@@@?$_Hash@V?$_Uset_traits@GV?$_Uhash_compare@GU?$hash@G@std@@U?$equal_to@G@2@@std@@V?$allocator@G@2@$0A@@std@@@std@@IAE?AU?$pair@V?$_List_const_iterator@V?$_List_val@U?$_List_simple_types@G@std@@@std@@@std@@_N@1@ABGV?$_List_unchecked_const_iterator@V?$_List_val@U?$_List_simple_types@G@std@@@std@@U_Iterator_base0@2@@1@@Z$91 DD 040H
	DD	00H
	DD	00H
	DD	FLAT:__catch$??$_Insert@ABGV?$_List_unchecked_const_iterator@V?$_List_val@U?$_List_simple_types@G@std@@@std@@U_Iterator_base0@2@@std@@@?$_Hash@V?$_Uset_traits@GV?$_Uhash_compare@GU?$hash@G@std@@U?$equal_to@G@2@@std@@V?$allocator@G@2@$0A@@std@@@std@@IAE?AU?$pair@V?$_List_const_iterator@V?$_List_val@U?$_List_simple_types@G@std@@@std@@@std@@_N@1@ABGV?$_List_unchecked_const_iterator@V?$_List_val@U?$_List_simple_types@G@std@@@std@@U_Iterator_base0@2@@1@@Z$2
__tryblocktable$??$_Insert@ABGV?$_List_unchecked_const_iterator@V?$_List_val@U?$_List_simple_types@G@std@@@std@@U_Iterator_base0@2@@std@@@?$_Hash@V?$_Uset_traits@GV?$_Uhash_compare@GU?$hash@G@std@@U?$equal_to@G@2@@std@@V?$allocator@G@2@$0A@@std@@@std@@IAE?AU?$pair@V?$_List_const_iterator@V?$_List_val@U?$_List_simple_types@G@std@@@std@@@std@@_N@1@ABGV?$_List_unchecked_const_iterator@V?$_List_val@U?$_List_simple_types@G@std@@@std@@U_Iterator_base0@2@@1@@Z DD 02H
	DD	02H
	DD	03H
	DD	01H
	DD	FLAT:__catchsym$??$_Insert@ABGV?$_List_unchecked_const_iterator@V?$_List_val@U?$_List_simple_types@G@std@@@std@@U_Iterator_base0@2@@std@@@?$_Hash@V?$_Uset_traits@GV?$_Uhash_compare@GU?$hash@G@std@@U?$equal_to@G@2@@std@@V?$allocator@G@2@$0A@@std@@@std@@IAE?AU?$pair@V?$_List_const_iterator@V?$_List_val@U?$_List_simple_types@G@std@@@std@@@std@@_N@1@ABGV?$_List_unchecked_const_iterator@V?$_List_val@U?$_List_simple_types@G@std@@@std@@U_Iterator_base0@2@@1@@Z$91
__unwindtable$??$_Insert@ABGV?$_List_unchecked_const_iterator@V?$_List_val@U?$_List_simple_types@G@std@@@std@@U_Iterator_base0@2@@std@@@?$_Hash@V?$_Uset_traits@GV?$_Uhash_compare@GU?$hash@G@std@@U?$equal_to@G@2@@std@@V?$allocator@G@2@$0A@@std@@@std@@IAE?AU?$pair@V?$_List_const_iterator@V?$_List_val@U?$_List_simple_types@G@std@@@std@@@std@@_N@1@ABGV?$_List_unchecked_const_iterator@V?$_List_val@U?$_List_simple_types@G@std@@@std@@U_Iterator_base0@2@@1@@Z DD 0ffffffffH
	DD	00H
	DD	0ffffffffH
	DD	00H
	DD	0ffffffffH
	DD	00H
	DD	0ffffffffH
	DD	00H
__ehfuncinfo$??$_Insert@ABGV?$_List_unchecked_const_iterator@V?$_List_val@U?$_List_simple_types@G@std@@@std@@U_Iterator_base0@2@@std@@@?$_Hash@V?$_Uset_traits@GV?$_Uhash_compare@GU?$hash@G@std@@U?$equal_to@G@2@@std@@V?$allocator@G@2@$0A@@std@@@std@@IAE?AU?$pair@V?$_List_const_iterator@V?$_List_val@U?$_List_simple_types@G@std@@@std@@@std@@_N@1@ABGV?$_List_unchecked_const_iterator@V?$_List_val@U?$_List_simple_types@G@std@@@std@@U_Iterator_base0@2@@1@@Z DD 019930522H
	DD	04H
	DD	FLAT:__unwindtable$??$_Insert@ABGV?$_List_unchecked_const_iterator@V?$_List_val@U?$_List_simple_types@G@std@@@std@@U_Iterator_base0@2@@std@@@?$_Hash@V?$_Uset_traits@GV?$_Uhash_compare@GU?$hash@G@std@@U?$equal_to@G@2@@std@@V?$allocator@G@2@$0A@@std@@@std@@IAE?AU?$pair@V?$_List_const_iterator@V?$_List_val@U?$_List_simple_types@G@std@@@std@@@std@@_N@1@ABGV?$_List_unchecked_const_iterator@V?$_List_val@U?$_List_simple_types@G@std@@@std@@U_Iterator_base0@2@@1@@Z
	DD	01H
	DD	FLAT:__tryblocktable$??$_Insert@ABGV?$_List_unchecked_const_iterator@V?$_List_val@U?$_List_simple_types@G@std@@@std@@U_Iterator_base0@2@@std@@@?$_Hash@V?$_Uset_traits@GV?$_Uhash_compare@GU?$hash@G@std@@U?$equal_to@G@2@@std@@V?$allocator@G@2@$0A@@std@@@std@@IAE?AU?$pair@V?$_List_const_iterator@V?$_List_val@U?$_List_simple_types@G@std@@@std@@@std@@_N@1@ABGV?$_List_unchecked_const_iterator@V?$_List_val@U?$_List_simple_types@G@std@@@std@@U_Iterator_base0@2@@1@@Z
	DD	2 DUP(00H)
	DD	00H
	DD	01H
xdata$x	ENDS
;	COMDAT xdata$x
xdata$x	SEGMENT
__catchsym$??$_Insert@AAGV?$_List_unchecked_const_iterator@V?$_List_val@U?$_List_simple_types@G@std@@@std@@U_Iterator_base0@2@@std@@@?$_Hash@V?$_Uset_traits@GV?$_Uhash_compare@GU?$hash@G@std@@U?$equal_to@G@2@@std@@V?$allocator@G@2@$0A@@std@@@std@@IAE?AU?$pair@V?$_List_const_iterator@V?$_List_val@U?$_List_simple_types@G@std@@@std@@@std@@_N@1@AAGV?$_List_unchecked_const_iterator@V?$_List_val@U?$_List_simple_types@G@std@@@std@@U_Iterator_base0@2@@1@@Z$91 DD 040H
	DD	00H
	DD	00H
	DD	FLAT:__catch$??$_Insert@AAGV?$_List_unchecked_const_iterator@V?$_List_val@U?$_List_simple_types@G@std@@@std@@U_Iterator_base0@2@@std@@@?$_Hash@V?$_Uset_traits@GV?$_Uhash_compare@GU?$hash@G@std@@U?$equal_to@G@2@@std@@V?$allocator@G@2@$0A@@std@@@std@@IAE?AU?$pair@V?$_List_const_iterator@V?$_List_val@U?$_List_simple_types@G@std@@@std@@@std@@_N@1@AAGV?$_List_unchecked_const_iterator@V?$_List_val@U?$_List_simple_types@G@std@@@std@@U_Iterator_base0@2@@1@@Z$2
__tryblocktable$??$_Insert@AAGV?$_List_unchecked_const_iterator@V?$_List_val@U?$_List_simple_types@G@std@@@std@@U_Iterator_base0@2@@std@@@?$_Hash@V?$_Uset_traits@GV?$_Uhash_compare@GU?$hash@G@std@@U?$equal_to@G@2@@std@@V?$allocator@G@2@$0A@@std@@@std@@IAE?AU?$pair@V?$_List_const_iterator@V?$_List_val@U?$_List_simple_types@G@std@@@std@@@std@@_N@1@AAGV?$_List_unchecked_const_iterator@V?$_List_val@U?$_List_simple_types@G@std@@@std@@U_Iterator_base0@2@@1@@Z DD 02H
	DD	02H
	DD	03H
	DD	01H
	DD	FLAT:__catchsym$??$_Insert@AAGV?$_List_unchecked_const_iterator@V?$_List_val@U?$_List_simple_types@G@std@@@std@@U_Iterator_base0@2@@std@@@?$_Hash@V?$_Uset_traits@GV?$_Uhash_compare@GU?$hash@G@std@@U?$equal_to@G@2@@std@@V?$allocator@G@2@$0A@@std@@@std@@IAE?AU?$pair@V?$_List_const_iterator@V?$_List_val@U?$_List_simple_types@G@std@@@std@@@std@@_N@1@AAGV?$_List_unchecked_const_iterator@V?$_List_val@U?$_List_simple_types@G@std@@@std@@U_Iterator_base0@2@@1@@Z$91
__unwindtable$??$_Insert@AAGV?$_List_unchecked_const_iterator@V?$_List_val@U?$_List_simple_types@G@std@@@std@@U_Iterator_base0@2@@std@@@?$_Hash@V?$_Uset_traits@GV?$_Uhash_compare@GU?$hash@G@std@@U?$equal_to@G@2@@std@@V?$allocator@G@2@$0A@@std@@@std@@IAE?AU?$pair@V?$_List_const_iterator@V?$_List_val@U?$_List_simple_types@G@std@@@std@@@std@@_N@1@AAGV?$_List_unchecked_const_iterator@V?$_List_val@U?$_List_simple_types@G@std@@@std@@U_Iterator_base0@2@@1@@Z DD 0ffffffffH
	DD	00H
	DD	0ffffffffH
	DD	00H
	DD	0ffffffffH
	DD	00H
	DD	0ffffffffH
	DD	00H
__ehfuncinfo$??$_Insert@AAGV?$_List_unchecked_const_iterator@V?$_List_val@U?$_List_simple_types@G@std@@@std@@U_Iterator_base0@2@@std@@@?$_Hash@V?$_Uset_traits@GV?$_Uhash_compare@GU?$hash@G@std@@U?$equal_to@G@2@@std@@V?$allocator@G@2@$0A@@std@@@std@@IAE?AU?$pair@V?$_List_const_iterator@V?$_List_val@U?$_List_simple_types@G@std@@@std@@@std@@_N@1@AAGV?$_List_unchecked_const_iterator@V?$_List_val@U?$_List_simple_types@G@std@@@std@@U_Iterator_base0@2@@1@@Z DD 019930522H
	DD	04H
	DD	FLAT:__unwindtable$??$_Insert@AAGV?$_List_unchecked_const_iterator@V?$_List_val@U?$_List_simple_types@G@std@@@std@@U_Iterator_base0@2@@std@@@?$_Hash@V?$_Uset_traits@GV?$_Uhash_compare@GU?$hash@G@std@@U?$equal_to@G@2@@std@@V?$allocator@G@2@$0A@@std@@@std@@IAE?AU?$pair@V?$_List_const_iterator@V?$_List_val@U?$_List_simple_types@G@std@@@std@@@std@@_N@1@AAGV?$_List_unchecked_const_iterator@V?$_List_val@U?$_List_simple_types@G@std@@@std@@U_Iterator_base0@2@@1@@Z
	DD	01H
	DD	FLAT:__tryblocktable$??$_Insert@AAGV?$_List_unchecked_const_iterator@V?$_List_val@U?$_List_simple_types@G@std@@@std@@U_Iterator_base0@2@@std@@@?$_Hash@V?$_Uset_traits@GV?$_Uhash_compare@GU?$hash@G@std@@U?$equal_to@G@2@@std@@V?$allocator@G@2@$0A@@std@@@std@@IAE?AU?$pair@V?$_List_const_iterator@V?$_List_val@U?$_List_simple_types@G@std@@@std@@@std@@_N@1@AAGV?$_List_unchecked_const_iterator@V?$_List_val@U?$_List_simple_types@G@std@@@std@@U_Iterator_base0@2@@1@@Z
	DD	2 DUP(00H)
	DD	00H
	DD	01H
xdata$x	ENDS
;	COMDAT xdata$x
xdata$x	SEGMENT
__catchsym$?_Reallocate_exactly@?$vector@V?$_List_unchecked_const_iterator@V?$_List_val@U?$_List_simple_types@G@std@@@std@@U_Iterator_base0@2@@std@@U?$_Wrap_alloc@V?$allocator@V?$_List_unchecked_const_iterator@V?$_List_val@U?$_List_simple_types@G@std@@@std@@U_Iterator_base0@2@@std@@@std@@@2@@std@@AAEXI@Z$49 DD 040H
	DD	00H
	DD	00H
	DD	FLAT:__catch$?_Reallocate_exactly@?$vector@V?$_List_unchecked_const_iterator@V?$_List_val@U?$_List_simple_types@G@std@@@std@@U_Iterator_base0@2@@std@@U?$_Wrap_alloc@V?$allocator@V?$_List_unchecked_const_iterator@V?$_List_val@U?$_List_simple_types@G@std@@@std@@U_Iterator_base0@2@@std@@@std@@@2@@std@@AAEXI@Z$0
__unwindtable$?_Reallocate_exactly@?$vector@V?$_List_unchecked_const_iterator@V?$_List_val@U?$_List_simple_types@G@std@@@std@@U_Iterator_base0@2@@std@@U?$_Wrap_alloc@V?$allocator@V?$_List_unchecked_const_iterator@V?$_List_val@U?$_List_simple_types@G@std@@@std@@U_Iterator_base0@2@@std@@@std@@@2@@std@@AAEXI@Z DD 0ffffffffH
	DD	00H
	DD	0ffffffffH
	DD	00H
__tryblocktable$?_Reallocate_exactly@?$vector@V?$_List_unchecked_const_iterator@V?$_List_val@U?$_List_simple_types@G@std@@@std@@U_Iterator_base0@2@@std@@U?$_Wrap_alloc@V?$allocator@V?$_List_unchecked_const_iterator@V?$_List_val@U?$_List_simple_types@G@std@@@std@@U_Iterator_base0@2@@std@@@std@@@2@@std@@AAEXI@Z DD 00H
	DD	00H
	DD	01H
	DD	01H
	DD	FLAT:__catchsym$?_Reallocate_exactly@?$vector@V?$_List_unchecked_const_iterator@V?$_List_val@U?$_List_simple_types@G@std@@@std@@U_Iterator_base0@2@@std@@U?$_Wrap_alloc@V?$allocator@V?$_List_unchecked_const_iterator@V?$_List_val@U?$_List_simple_types@G@std@@@std@@U_Iterator_base0@2@@std@@@std@@@2@@std@@AAEXI@Z$49
__ehfuncinfo$?_Reallocate_exactly@?$vector@V?$_List_unchecked_const_iterator@V?$_List_val@U?$_List_simple_types@G@std@@@std@@U_Iterator_base0@2@@std@@U?$_Wrap_alloc@V?$allocator@V?$_List_unchecked_const_iterator@V?$_List_val@U?$_List_simple_types@G@std@@@std@@U_Iterator_base0@2@@std@@@std@@@2@@std@@AAEXI@Z DD 019930522H
	DD	02H
	DD	FLAT:__unwindtable$?_Reallocate_exactly@?$vector@V?$_List_unchecked_const_iterator@V?$_List_val@U?$_List_simple_types@G@std@@@std@@U_Iterator_base0@2@@std@@U?$_Wrap_alloc@V?$allocator@V?$_List_unchecked_const_iterator@V?$_List_val@U?$_List_simple_types@G@std@@@std@@U_Iterator_base0@2@@std@@@std@@@2@@std@@AAEXI@Z
	DD	01H
	DD	FLAT:__tryblocktable$?_Reallocate_exactly@?$vector@V?$_List_unchecked_const_iterator@V?$_List_val@U?$_List_simple_types@G@std@@@std@@U_Iterator_base0@2@@std@@U?$_Wrap_alloc@V?$allocator@V?$_List_unchecked_const_iterator@V?$_List_val@U?$_List_simple_types@G@std@@@std@@U_Iterator_base0@2@@std@@@std@@@2@@std@@AAEXI@Z
	DD	2 DUP(00H)
	DD	00H
	DD	01H
xdata$x	ENDS
;	COMDAT xdata$x
xdata$x	SEGMENT
__unwindtable$??0?$_Hash@V?$_Uset_traits@GV?$_Uhash_compare@GU?$hash@G@std@@U?$equal_to@G@2@@std@@V?$allocator@G@2@$0A@@std@@@std@@QAE@ABV?$_Uhash_compare@GU?$hash@G@std@@U?$equal_to@G@2@@1@ABV?$allocator@G@1@@Z DD 0ffffffffH
	DD	FLAT:__unwindfunclet$??0?$_Hash@V?$_Uset_traits@GV?$_Uhash_compare@GU?$hash@G@std@@U?$equal_to@G@2@@std@@V?$allocator@G@2@$0A@@std@@@std@@QAE@ABV?$_Uhash_compare@GU?$hash@G@std@@U?$equal_to@G@2@@1@ABV?$allocator@G@1@@Z$0
	DD	00H
	DD	FLAT:__unwindfunclet$??0?$_Hash@V?$_Uset_traits@GV?$_Uhash_compare@GU?$hash@G@std@@U?$equal_to@G@2@@std@@V?$allocator@G@2@$0A@@std@@@std@@QAE@ABV?$_Uhash_compare@GU?$hash@G@std@@U?$equal_to@G@2@@1@ABV?$allocator@G@1@@Z$1
__ehfuncinfo$??0?$_Hash@V?$_Uset_traits@GV?$_Uhash_compare@GU?$hash@G@std@@U?$equal_to@G@2@@std@@V?$allocator@G@2@$0A@@std@@@std@@QAE@ABV?$_Uhash_compare@GU?$hash@G@std@@U?$equal_to@G@2@@1@ABV?$allocator@G@1@@Z DD 019930522H
	DD	02H
	DD	FLAT:__unwindtable$??0?$_Hash@V?$_Uset_traits@GV?$_Uhash_compare@GU?$hash@G@std@@U?$equal_to@G@2@@std@@V?$allocator@G@2@$0A@@std@@@std@@QAE@ABV?$_Uhash_compare@GU?$hash@G@std@@U?$equal_to@G@2@@1@ABV?$allocator@G@1@@Z
	DD	2 DUP(00H)
	DD	2 DUP(00H)
	DD	00H
	DD	01H
xdata$x	ENDS
;	COMDAT xdata$x
xdata$x	SEGMENT
__ehfuncinfo$??1?$ImVector@Ustbrp_rect@@@@QAE@XZ DD 019930522H
	DD	00H
	DD	00H
	DD	2 DUP(00H)
	DD	2 DUP(00H)
	DD	00H
	DD	05H
xdata$x	ENDS
;	COMDAT xdata$x
xdata$x	SEGMENT
__ehfuncinfo$??1ImGuiDrawContext@@QAE@XZ DD 019930522H
	DD	06H
	DD	FLAT:__unwindtable$??1ImGuiDrawContext@@QAE@XZ
	DD	2 DUP(00H)
	DD	2 DUP(00H)
	DD	00H
	DD	05H
__unwindtable$??1ImGuiDrawContext@@QAE@XZ DD 0ffffffffH
	DD	FLAT:___std_terminate
	DD	0ffffffffH
	DD	FLAT:___std_terminate
	DD	0ffffffffH
	DD	FLAT:___std_terminate
	DD	0ffffffffH
	DD	FLAT:___std_terminate
	DD	0ffffffffH
	DD	FLAT:___std_terminate
	DD	0ffffffffH
	DD	FLAT:___std_terminate
xdata$x	ENDS
;	COMDAT xdata$x
xdata$x	SEGMENT
__ehfuncinfo$??1?$ImVector@UImGuiColumnData@@@@QAE@XZ DD 019930522H
	DD	00H
	DD	00H
	DD	2 DUP(00H)
	DD	2 DUP(00H)
	DD	00H
	DD	05H
xdata$x	ENDS
;	COMDAT xdata$x
xdata$x	SEGMENT
__ehfuncinfo$??1?$ImVector@UImGuiGroupData@@@@QAE@XZ DD 019930522H
	DD	00H
	DD	00H
	DD	2 DUP(00H)
	DD	2 DUP(00H)
	DD	00H
	DD	05H
xdata$x	ENDS
;	COMDAT xdata$x
xdata$x	SEGMENT
__ehfuncinfo$??1?$ImVector@H@@QAE@XZ DD 019930522H
	DD	00H
	DD	00H
	DD	2 DUP(00H)
	DD	2 DUP(00H)
	DD	00H
	DD	05H
xdata$x	ENDS
;	COMDAT xdata$x
xdata$x	SEGMENT
__ehfuncinfo$??1?$ImVector@PAUImGuiWindow@@@@QAE@XZ DD 019930522H
	DD	00H
	DD	00H
	DD	2 DUP(00H)
	DD	2 DUP(00H)
	DD	00H
	DD	05H
xdata$x	ENDS
;	COMDAT xdata$x
xdata$x	SEGMENT
__unwindtable$??1ImGuiTextEditState@@QAE@XZ DD 0ffffffffH
	DD	FLAT:___std_terminate
	DD	0ffffffffH
	DD	FLAT:___std_terminate
	DD	0ffffffffH
	DD	FLAT:___std_terminate
__ehfuncinfo$??1ImGuiTextEditState@@QAE@XZ DD 019930522H
	DD	03H
	DD	FLAT:__unwindtable$??1ImGuiTextEditState@@QAE@XZ
	DD	2 DUP(00H)
	DD	2 DUP(00H)
	DD	00H
	DD	05H
xdata$x	ENDS
;	COMDAT xdata$x
xdata$x	SEGMENT
__ehfuncinfo$??1?$ImVector@M@@QAE@XZ DD 019930522H
	DD	00H
	DD	00H
	DD	2 DUP(00H)
	DD	2 DUP(00H)
	DD	00H
	DD	05H
xdata$x	ENDS
;	COMDAT xdata$x
xdata$x	SEGMENT
__ehfuncinfo$??1?$ImVector@UGlyph@ImFont@@@@QAE@XZ DD 019930522H
	DD	00H
	DD	00H
	DD	2 DUP(00H)
	DD	2 DUP(00H)
	DD	00H
	DD	05H
xdata$x	ENDS
;	COMDAT xdata$x
xdata$x	SEGMENT
__ehfuncinfo$??1?$ImVector@UImFontConfig@@@@QAE@XZ DD 019930522H
	DD	00H
	DD	00H
	DD	2 DUP(00H)
	DD	2 DUP(00H)
	DD	00H
	DD	05H
xdata$x	ENDS
;	COMDAT xdata$x
xdata$x	SEGMENT
__ehfuncinfo$??1?$ImVector@PAUImFont@@@@QAE@XZ DD 019930522H
	DD	00H
	DD	00H
	DD	2 DUP(00H)
	DD	2 DUP(00H)
	DD	00H
	DD	05H
xdata$x	ENDS
xdata$x	SEGMENT
__unwindtable$?RenderText@ImFont@@QBEXPAUImDrawList@@MUImVec2@@IABUImVec4@@PBD3M_N@Z DD 0ffffffffH
	DD	FLAT:__unwindfunclet$?RenderText@ImFont@@QBEXPAUImDrawList@@MUImVec2@@IABUImVec4@@PBD3M_N@Z$0
__unwindtable$?AddFont@ImFontAtlas@@QAEPAUImFont@@PBUImFontConfig@@@Z DD 0ffffffffH
	DD	FLAT:__unwindfunclet$?AddFont@ImFontAtlas@@QAEPAUImFont@@PBUImFontConfig@@@Z$0
__unwindtable$?Build@ImFontAtlas@@QAE_NXZ DD 0ffffffffH
	DD	FLAT:__unwindfunclet$?Build@ImFontAtlas@@QAE_NXZ$0
	DD	0ffffffffH
	DD	FLAT:___std_terminate
__unwindtable$??1ImFontAtlas@@QAE@XZ DD 0ffffffffH
	DD	FLAT:___std_terminate
	DD	0ffffffffH
	DD	FLAT:___std_terminate
__unwindtable$?DeIndexAllBuffers@ImDrawData@@QAEXXZ DD 0ffffffffH
	DD	FLAT:__unwindfunclet$?DeIndexAllBuffers@ImDrawData@@QAEXXZ$0
	DD	0ffffffffH
	DD	FLAT:___std_terminate
__unwindtable$??1ImFont@@QAE@XZ DD 0ffffffffH
	DD	FLAT:___std_terminate
	DD	0ffffffffH
	DD	FLAT:___std_terminate
	DD	0ffffffffH
	DD	FLAT:___std_terminate
__unwindtable$??0ImFont@@QAE@XZ DD 0ffffffffH
	DD	FLAT:__unwindfunclet$??0ImFont@@QAE@XZ$0
	DD	00H
	DD	FLAT:__unwindfunclet$??0ImFont@@QAE@XZ$1
	DD	01H
	DD	FLAT:__unwindfunclet$??0ImFont@@QAE@XZ$2
__ehfuncinfo$?RenderText@ImFont@@QBEXPAUImDrawList@@MUImVec2@@IABUImVec4@@PBD3M_N@Z DD 019930522H
	DD	01H
	DD	FLAT:__unwindtable$?RenderText@ImFont@@QBEXPAUImDrawList@@MUImVec2@@IABUImVec4@@PBD3M_N@Z
	DD	2 DUP(00H)
	DD	2 DUP(00H)
	DD	00H
	DD	01H
__ehfuncinfo$??1ImFont@@QAE@XZ DD 019930522H
	DD	03H
	DD	FLAT:__unwindtable$??1ImFont@@QAE@XZ
	DD	2 DUP(00H)
	DD	2 DUP(00H)
	DD	00H
	DD	05H
__ehfuncinfo$??0ImFont@@QAE@XZ DD 019930522H
	DD	03H
	DD	FLAT:__unwindtable$??0ImFont@@QAE@XZ
	DD	2 DUP(00H)
	DD	2 DUP(00H)
	DD	00H
	DD	01H
__ehfuncinfo$?Build@ImFontAtlas@@QAE_NXZ DD 019930522H
	DD	02H
	DD	FLAT:__unwindtable$?Build@ImFontAtlas@@QAE_NXZ
	DD	2 DUP(00H)
	DD	2 DUP(00H)
	DD	00H
	DD	01H
__ehfuncinfo$?AddFont@ImFontAtlas@@QAEPAUImFont@@PBUImFontConfig@@@Z DD 019930522H
	DD	01H
	DD	FLAT:__unwindtable$?AddFont@ImFontAtlas@@QAEPAUImFont@@PBUImFontConfig@@@Z
	DD	2 DUP(00H)
	DD	2 DUP(00H)
	DD	00H
	DD	01H
__ehfuncinfo$??1ImFontAtlas@@QAE@XZ DD 019930522H
	DD	02H
	DD	FLAT:__unwindtable$??1ImFontAtlas@@QAE@XZ
	DD	2 DUP(00H)
	DD	2 DUP(00H)
	DD	00H
	DD	05H
__ehfuncinfo$?DeIndexAllBuffers@ImDrawData@@QAEXXZ DD 019930522H
	DD	02H
	DD	FLAT:__unwindtable$?DeIndexAllBuffers@ImDrawData@@QAEXXZ
	DD	2 DUP(00H)
	DD	2 DUP(00H)
	DD	00H
	DD	01H
xdata$x	ENDS
;	COMDAT xdata$x
xdata$x	SEGMENT
__ehfuncinfo$??1?$ImVector@UImDrawVert@@@@QAE@XZ DD 019930522H
	DD	00H
	DD	00H
	DD	2 DUP(00H)
	DD	2 DUP(00H)
	DD	00H
	DD	05H
xdata$x	ENDS
;	COMDAT xdata$x
xdata$x	SEGMENT
__ehfuncinfo$??1?$ImVector@G@@QAE@XZ DD 019930522H
	DD	00H
	DD	00H
	DD	2 DUP(00H)
	DD	2 DUP(00H)
	DD	00H
	DD	05H
xdata$x	ENDS
;	COMDAT xdata$x
xdata$x	SEGMENT
__ehfuncinfo$??1?$ImVector@UImDrawCmd@@@@QAE@XZ DD 019930522H
	DD	00H
	DD	00H
	DD	2 DUP(00H)
	DD	2 DUP(00H)
	DD	00H
	DD	05H
xdata$x	ENDS
;	COMDAT xdata$x
xdata$x	SEGMENT
__ehfuncinfo$??1?$ImVector@D@@QAE@XZ DD 019930522H
	DD	00H
	DD	00H
	DD	2 DUP(00H)
	DD	2 DUP(00H)
	DD	00H
	DD	05H
xdata$x	ENDS
; Function compile flags: /Ogtp
; File c:\program files (x86)\microsoft visual studio\2017\community\vc\tools\msvc\14.10.25017\include\xmemory0
;	COMDAT ??$construct@GG@?$allocator@U?$_List_node@GPAX@std@@@std@@QAEXPAG$$QAG@Z
_TEXT	SEGMENT
__Ptr$ = 8						; size = 4
_<_Args_0>$ = 12					; size = 4
??$construct@GG@?$allocator@U?$_List_node@GPAX@std@@@std@@QAEXPAG$$QAG@Z PROC ; std::allocator<std::_List_node<unsigned short,void *> >::construct<unsigned short,unsigned short>, COMDAT
; _this$ = ecx

; 839  : 		{	// construct _Objty(_Types...) at _Ptr

	npad	2
	push	ebp
	mov	ebp, esp

; 840  : 		::new ((void *)_Ptr) _Objty(_STD forward<_Types>(_Args)...);

	mov	ecx, DWORD PTR __Ptr$[ebp]
	test	ecx, ecx
	je	SHORT $LN3@construct
	mov	eax, DWORD PTR _<_Args_0>$[ebp]
	mov	ax, WORD PTR [eax]
	mov	WORD PTR [ecx], ax
$LN3@construct:

; 841  : 		}

	pop	ebp
	ret	8
??$construct@GG@?$allocator@U?$_List_node@GPAX@std@@@std@@QAEXPAG$$QAG@Z ENDP ; std::allocator<std::_List_node<unsigned short,void *> >::construct<unsigned short,unsigned short>
_TEXT	ENDS
; Function compile flags: /Ogtp
; File c:\program files (x86)\microsoft visual studio\2017\community\vc\tools\msvc\14.10.25017\include\xmemory0
;	COMDAT ??$construct@GG@?$allocator_traits@V?$allocator@U?$_List_node@GPAX@std@@@std@@@std@@SAXAAV?$allocator@U?$_List_node@GPAX@std@@@1@PAG$$QAG@Z
_TEXT	SEGMENT
__Al$ = 8						; size = 4
__Ptr$ = 12						; size = 4
_<_Args_0>$ = 16					; size = 4
??$construct@GG@?$allocator_traits@V?$allocator@U?$_List_node@GPAX@std@@@std@@@std@@SAXAAV?$allocator@U?$_List_node@GPAX@std@@@1@PAG$$QAG@Z PROC ; std::allocator_traits<std::allocator<std::_List_node<unsigned short,void *> > >::construct<unsigned short,unsigned short>, COMDAT

; 958  : 		{	// construct _Objty(_Types...) at _Ptr

	npad	2
	push	ebp
	mov	ebp, esp

; 840  : 		::new ((void *)_Ptr) _Objty(_STD forward<_Types>(_Args)...);

	mov	ecx, DWORD PTR __Ptr$[ebp]
	test	ecx, ecx
	je	SHORT $LN8@construct
	mov	eax, DWORD PTR _<_Args_0>$[ebp]
	mov	ax, WORD PTR [eax]
	mov	WORD PTR [ecx], ax
$LN8@construct:

; 959  : 		_Al.construct(_Ptr, _STD forward<_Types>(_Args)...);
; 960  : 		}

	pop	ebp
	ret	0
??$construct@GG@?$allocator_traits@V?$allocator@U?$_List_node@GPAX@std@@@std@@@std@@SAXAAV?$allocator@U?$_List_node@GPAX@std@@@1@PAG$$QAG@Z ENDP ; std::allocator_traits<std::allocator<std::_List_node<unsigned short,void *> > >::construct<unsigned short,unsigned short>
_TEXT	ENDS
; Function compile flags: /Ogtp
; File c:\program files (x86)\microsoft visual studio\2017\community\vc\tools\msvc\14.10.25017\include\xmemory0
;	COMDAT ??$construct@PAU?$_List_node@GPAX@std@@AAPAU12@@?$allocator@U?$_List_node@GPAX@std@@@std@@QAEXPAPAU?$_List_node@GPAX@1@AAPAU21@@Z
_TEXT	SEGMENT
__Ptr$ = 8						; size = 4
_<_Args_0>$ = 12					; size = 4
??$construct@PAU?$_List_node@GPAX@std@@AAPAU12@@?$allocator@U?$_List_node@GPAX@std@@@std@@QAEXPAPAU?$_List_node@GPAX@1@AAPAU21@@Z PROC ; std::allocator<std::_List_node<unsigned short,void *> >::construct<std::_List_node<unsigned short,void *> *,std::_List_node<unsigned short,void *> * &>, COMDAT
; _this$ = ecx

; 839  : 		{	// construct _Objty(_Types...) at _Ptr

	npad	2
	push	ebp
	mov	ebp, esp

; 840  : 		::new ((void *)_Ptr) _Objty(_STD forward<_Types>(_Args)...);

	mov	ecx, DWORD PTR __Ptr$[ebp]
	test	ecx, ecx
	je	SHORT $LN3@construct
	mov	eax, DWORD PTR _<_Args_0>$[ebp]
	mov	eax, DWORD PTR [eax]
	mov	DWORD PTR [ecx], eax
$LN3@construct:

; 841  : 		}

	pop	ebp
	ret	8
??$construct@PAU?$_List_node@GPAX@std@@AAPAU12@@?$allocator@U?$_List_node@GPAX@std@@@std@@QAEXPAPAU?$_List_node@GPAX@1@AAPAU21@@Z ENDP ; std::allocator<std::_List_node<unsigned short,void *> >::construct<std::_List_node<unsigned short,void *> *,std::_List_node<unsigned short,void *> * &>
_TEXT	ENDS
; Function compile flags: /Ogtp
; File c:\program files (x86)\microsoft visual studio\2017\community\vc\tools\msvc\14.10.25017\include\xmemory0
;	COMDAT ??$_Construct1@V?$_List_unchecked_const_iterator@V?$_List_val@U?$_List_simple_types@G@std@@@std@@U_Iterator_base0@2@@std@@V12@@?$allocator_traits@U?$_Wrap_alloc@V?$allocator@V?$_List_unchecked_const_iterator@V?$_List_val@U?$_List_simple_types@G@std@@@std@@U_Iterator_base0@2@@std@@@std@@@std@@@std@@SAXU?$integral_constant@_N$00@1@AAU?$_Wrap_alloc@V?$allocator@V?$_List_unchecked_const_iterator@V?$_List_val@U?$_List_simple_types@G@std@@@std@@U_Iterator_base0@2@@std@@@std@@@1@PAV?$_List_unchecked_const_iterator@V?$_List_val@U?$_List_simple_types@G@std@@@std@@U_Iterator_base0@2@@1@$$QAV41@@Z
_TEXT	SEGMENT
___formal$ = 8						; size = 1
___formal$ = 12						; size = 4
__Ptr$ = 16						; size = 4
_<_Args_0>$ = 20					; size = 4
??$_Construct1@V?$_List_unchecked_const_iterator@V?$_List_val@U?$_List_simple_types@G@std@@@std@@U_Iterator_base0@2@@std@@V12@@?$allocator_traits@U?$_Wrap_alloc@V?$allocator@V?$_List_unchecked_const_iterator@V?$_List_val@U?$_List_simple_types@G@std@@@std@@U_Iterator_base0@2@@std@@@std@@@std@@@std@@SAXU?$integral_constant@_N$00@1@AAU?$_Wrap_alloc@V?$allocator@V?$_List_unchecked_const_iterator@V?$_List_val@U?$_List_simple_types@G@std@@@std@@U_Iterator_base0@2@@std@@@std@@@1@PAV?$_List_unchecked_const_iterator@V?$_List_val@U?$_List_simple_types@G@std@@@std@@U_Iterator_base0@2@@1@$$QAV41@@Z PROC ; std::allocator_traits<std::_Wrap_alloc<std::allocator<std::_List_unchecked_const_iterator<std::_List_val<std::_List_simple_types<unsigned short> >,std::_Iterator_base0> > > >::_Construct1<std::_List_unchecked_const_iterator<std::_List_val<std::_List_simple_types<unsigned short> >,std::_Iterator_base0>,std::_List_unchecked_const_iterator<std::_List_val<std::_List_simple_types<unsigned short> >,std::_Iterator_base0> >, COMDAT

; 709  : 		{	// construct _Ty(_Types...) at _Ptr, default version

	npad	2
	push	ebp
	mov	ebp, esp

; 710  : 		::new (static_cast<void *>(_Ptr))

	mov	ecx, DWORD PTR __Ptr$[ebp]
	test	ecx, ecx
	je	SHORT $LN3@Construct1
	mov	eax, DWORD PTR _<_Args_0>$[ebp]
	mov	eax, DWORD PTR [eax]
	mov	DWORD PTR [ecx], eax
$LN3@Construct1:

; 711  : 			_Ty(_STD forward<_Types>(_Args)...);
; 712  : 		}

	pop	ebp
	ret	0
??$_Construct1@V?$_List_unchecked_const_iterator@V?$_List_val@U?$_List_simple_types@G@std@@@std@@U_Iterator_base0@2@@std@@V12@@?$allocator_traits@U?$_Wrap_alloc@V?$allocator@V?$_List_unchecked_const_iterator@V?$_List_val@U?$_List_simple_types@G@std@@@std@@U_Iterator_base0@2@@std@@@std@@@std@@@std@@SAXU?$integral_constant@_N$00@1@AAU?$_Wrap_alloc@V?$allocator@V?$_List_unchecked_const_iterator@V?$_List_val@U?$_List_simple_types@G@std@@@std@@U_Iterator_base0@2@@std@@@std@@@1@PAV?$_List_unchecked_const_iterator@V?$_List_val@U?$_List_simple_types@G@std@@@std@@U_Iterator_base0@2@@1@$$QAV41@@Z ENDP ; std::allocator_traits<std::_Wrap_alloc<std::allocator<std::_List_unchecked_const_iterator<std::_List_val<std::_List_simple_types<unsigned short> >,std::_Iterator_base0> > > >::_Construct1<std::_List_unchecked_const_iterator<std::_List_val<std::_List_simple_types<unsigned short> >,std::_Iterator_base0>,std::_List_unchecked_const_iterator<std::_List_val<std::_List_simple_types<unsigned short> >,std::_Iterator_base0> >
_TEXT	ENDS
; Function compile flags: /Ogtp
; File c:\program files (x86)\microsoft visual studio\2017\community\vc\tools\msvc\14.10.25017\include\xmemory0
;	COMDAT ??$_Construct1@V?$_List_unchecked_const_iterator@V?$_List_val@U?$_List_simple_types@G@std@@@std@@U_Iterator_base0@2@@std@@ABV12@@?$allocator_traits@U?$_Wrap_alloc@V?$allocator@V?$_List_unchecked_const_iterator@V?$_List_val@U?$_List_simple_types@G@std@@@std@@U_Iterator_base0@2@@std@@@std@@@std@@@std@@SAXU?$integral_constant@_N$00@1@AAU?$_Wrap_alloc@V?$allocator@V?$_List_unchecked_const_iterator@V?$_List_val@U?$_List_simple_types@G@std@@@std@@U_Iterator_base0@2@@std@@@std@@@1@PAV?$_List_unchecked_const_iterator@V?$_List_val@U?$_List_simple_types@G@std@@@std@@U_Iterator_base0@2@@1@ABV41@@Z
_TEXT	SEGMENT
___formal$ = 8						; size = 1
___formal$ = 12						; size = 4
__Ptr$ = 16						; size = 4
_<_Args_0>$ = 20					; size = 4
??$_Construct1@V?$_List_unchecked_const_iterator@V?$_List_val@U?$_List_simple_types@G@std@@@std@@U_Iterator_base0@2@@std@@ABV12@@?$allocator_traits@U?$_Wrap_alloc@V?$allocator@V?$_List_unchecked_const_iterator@V?$_List_val@U?$_List_simple_types@G@std@@@std@@U_Iterator_base0@2@@std@@@std@@@std@@@std@@SAXU?$integral_constant@_N$00@1@AAU?$_Wrap_alloc@V?$allocator@V?$_List_unchecked_const_iterator@V?$_List_val@U?$_List_simple_types@G@std@@@std@@U_Iterator_base0@2@@std@@@std@@@1@PAV?$_List_unchecked_const_iterator@V?$_List_val@U?$_List_simple_types@G@std@@@std@@U_Iterator_base0@2@@1@ABV41@@Z PROC ; std::allocator_traits<std::_Wrap_alloc<std::allocator<std::_List_unchecked_const_iterator<std::_List_val<std::_List_simple_types<unsigned short> >,std::_Iterator_base0> > > >::_Construct1<std::_List_unchecked_const_iterator<std::_List_val<std::_List_simple_types<unsigned short> >,std::_Iterator_base0>,std::_List_unchecked_const_iterator<std::_List_val<std::_List_simple_types<unsigned short> >,std::_Iterator_base0> const &>, COMDAT

; 709  : 		{	// construct _Ty(_Types...) at _Ptr, default version

	npad	2
	push	ebp
	mov	ebp, esp

; 710  : 		::new (static_cast<void *>(_Ptr))

	mov	ecx, DWORD PTR __Ptr$[ebp]
	test	ecx, ecx
	je	SHORT $LN3@Construct1
	mov	eax, DWORD PTR _<_Args_0>$[ebp]
	mov	eax, DWORD PTR [eax]
	mov	DWORD PTR [ecx], eax
$LN3@Construct1:

; 711  : 			_Ty(_STD forward<_Types>(_Args)...);
; 712  : 		}

	pop	ebp
	ret	0
??$_Construct1@V?$_List_unchecked_const_iterator@V?$_List_val@U?$_List_simple_types@G@std@@@std@@U_Iterator_base0@2@@std@@ABV12@@?$allocator_traits@U?$_Wrap_alloc@V?$allocator@V?$_List_unchecked_const_iterator@V?$_List_val@U?$_List_simple_types@G@std@@@std@@U_Iterator_base0@2@@std@@@std@@@std@@@std@@SAXU?$integral_constant@_N$00@1@AAU?$_Wrap_alloc@V?$allocator@V?$_List_unchecked_const_iterator@V?$_List_val@U?$_List_simple_types@G@std@@@std@@U_Iterator_base0@2@@std@@@std@@@1@PAV?$_List_unchecked_const_iterator@V?$_List_val@U?$_List_simple_types@G@std@@@std@@U_Iterator_base0@2@@1@ABV41@@Z ENDP ; std::allocator_traits<std::_Wrap_alloc<std::allocator<std::_List_unchecked_const_iterator<std::_List_val<std::_List_simple_types<unsigned short> >,std::_Iterator_base0> > > >::_Construct1<std::_List_unchecked_const_iterator<std::_List_val<std::_List_simple_types<unsigned short> >,std::_Iterator_base0>,std::_List_unchecked_const_iterator<std::_List_val<std::_List_simple_types<unsigned short> >,std::_Iterator_base0> const &>
_TEXT	ENDS
; Function compile flags: /Ogtp
; File c:\program files (x86)\microsoft visual studio\2017\community\vc\tools\msvc\14.10.25017\include\xmemory0
;	COMDAT ??$_Destroy1@V?$_List_unchecked_const_iterator@V?$_List_val@U?$_List_simple_types@G@std@@@std@@U_Iterator_base0@2@@std@@@?$allocator_traits@U?$_Wrap_alloc@V?$allocator@V?$_List_unchecked_const_iterator@V?$_List_val@U?$_List_simple_types@G@std@@@std@@U_Iterator_base0@2@@std@@@std@@@std@@@std@@SAXAAU?$_Wrap_alloc@V?$allocator@V?$_List_unchecked_const_iterator@V?$_List_val@U?$_List_simple_types@G@std@@@std@@U_Iterator_base0@2@@std@@@std@@@1@PAV?$_List_unchecked_const_iterator@V?$_List_val@U?$_List_simple_types@G@std@@@std@@U_Iterator_base0@2@@1@U?$integral_constant@_N$00@1@@Z
_TEXT	SEGMENT
___formal$ = 8						; size = 4
__Ptr$ = 12						; size = 4
___formal$ = 16						; size = 1
??$_Destroy1@V?$_List_unchecked_const_iterator@V?$_List_val@U?$_List_simple_types@G@std@@@std@@U_Iterator_base0@2@@std@@@?$allocator_traits@U?$_Wrap_alloc@V?$allocator@V?$_List_unchecked_const_iterator@V?$_List_val@U?$_List_simple_types@G@std@@@std@@U_Iterator_base0@2@@std@@@std@@@std@@@std@@SAXAAU?$_Wrap_alloc@V?$allocator@V?$_List_unchecked_const_iterator@V?$_List_val@U?$_List_simple_types@G@std@@@std@@U_Iterator_base0@2@@std@@@std@@@1@PAV?$_List_unchecked_const_iterator@V?$_List_val@U?$_List_simple_types@G@std@@@std@@U_Iterator_base0@2@@1@U?$integral_constant@_N$00@1@@Z PROC ; std::allocator_traits<std::_Wrap_alloc<std::allocator<std::_List_unchecked_const_iterator<std::_List_val<std::_List_simple_types<unsigned short> >,std::_Iterator_base0> > > >::_Destroy1<std::_List_unchecked_const_iterator<std::_List_val<std::_List_simple_types<unsigned short> >,std::_Iterator_base0> >, COMDAT

; 734  : 		_Ptr->~_Ty();
; 735  : 		}

	ret	0
??$_Destroy1@V?$_List_unchecked_const_iterator@V?$_List_val@U?$_List_simple_types@G@std@@@std@@U_Iterator_base0@2@@std@@@?$allocator_traits@U?$_Wrap_alloc@V?$allocator@V?$_List_unchecked_const_iterator@V?$_List_val@U?$_List_simple_types@G@std@@@std@@U_Iterator_base0@2@@std@@@std@@@std@@@std@@SAXAAU?$_Wrap_alloc@V?$allocator@V?$_List_unchecked_const_iterator@V?$_List_val@U?$_List_simple_types@G@std@@@std@@U_Iterator_base0@2@@std@@@std@@@1@PAV?$_List_unchecked_const_iterator@V?$_List_val@U?$_List_simple_types@G@std@@@std@@U_Iterator_base0@2@@1@U?$integral_constant@_N$00@1@@Z ENDP ; std::allocator_traits<std::_Wrap_alloc<std::allocator<std::_List_unchecked_const_iterator<std::_List_val<std::_List_simple_types<unsigned short> >,std::_Iterator_base0> > > >::_Destroy1<std::_List_unchecked_const_iterator<std::_List_val<std::_List_simple_types<unsigned short> >,std::_Iterator_base0> >
_TEXT	ENDS
; Function compile flags: /Ogtp
; File c:\program files (x86)\microsoft visual studio\2017\community\vc\tools\msvc\14.10.25017\include\xmemory0
;	COMDAT ??$?0G@?$allocator@U?$_List_node@GPAX@std@@@std@@QAE@ABV?$allocator@G@1@@Z
_TEXT	SEGMENT
___formal$ = 8						; size = 4
??$?0G@?$allocator@U?$_List_node@GPAX@std@@@std@@QAE@ABV?$allocator@G@1@@Z PROC ; std::allocator<std::_List_node<unsigned short,void *> >::allocator<std::_List_node<unsigned short,void *> ><unsigned short>, COMDAT
; _this$ = ecx

; 813  : 		}

	mov	eax, ecx
	ret	4
??$?0G@?$allocator@U?$_List_node@GPAX@std@@@std@@QAE@ABV?$allocator@G@1@@Z ENDP ; std::allocator<std::_List_node<unsigned short,void *> >::allocator<std::_List_node<unsigned short,void *> ><unsigned short>
_TEXT	ENDS
; Function compile flags: /Ogtp
; File c:\program files (x86)\microsoft visual studio\2017\community\vc\tools\msvc\14.10.25017\include\xmemory0
;	COMDAT ??$construct@GG@?$_Wrap_alloc@V?$allocator@U?$_List_node@GPAX@std@@@std@@@std@@QAEXPAG$$QAG@Z
_TEXT	SEGMENT
__Ptr$ = 8						; size = 4
_<_Args_0>$ = 12					; size = 4
??$construct@GG@?$_Wrap_alloc@V?$allocator@U?$_List_node@GPAX@std@@@std@@@std@@QAEXPAG$$QAG@Z PROC ; std::_Wrap_alloc<std::allocator<std::_List_node<unsigned short,void *> > >::construct<unsigned short,unsigned short>, COMDAT
; _this$ = ecx

; 1095 : 		{	// construct _Ty(_Types...) at _Ptr

	npad	2
	push	ebp
	mov	ebp, esp

; 840  : 		::new ((void *)_Ptr) _Objty(_STD forward<_Types>(_Args)...);

	mov	ecx, DWORD PTR __Ptr$[ebp]
	test	ecx, ecx
	je	SHORT $LN13@construct
	mov	eax, DWORD PTR _<_Args_0>$[ebp]
	mov	ax, WORD PTR [eax]
	mov	WORD PTR [ecx], ax
$LN13@construct:

; 1096 : 		_Mytraits::construct(*this, _Ptr,
; 1097 : 			_STD forward<_Types>(_Args)...);
; 1098 : 		}

	pop	ebp
	ret	8
??$construct@GG@?$_Wrap_alloc@V?$allocator@U?$_List_node@GPAX@std@@@std@@@std@@QAEXPAG$$QAG@Z ENDP ; std::_Wrap_alloc<std::allocator<std::_List_node<unsigned short,void *> > >::construct<unsigned short,unsigned short>
_TEXT	ENDS
; Function compile flags: /Ogtp
; File c:\program files (x86)\microsoft visual studio\2017\community\vc\tools\msvc\14.10.25017\include\xhash
;	COMDAT ??$_Buynode_if_nil@ABG@?$_Hash@V?$_Uset_traits@GV?$_Uhash_compare@GU?$hash@G@std@@U?$equal_to@G@2@@std@@V?$allocator@G@2@$0A@@std@@@std@@IAE?AV?$_List_unchecked_const_iterator@V?$_List_val@U?$_List_simple_types@G@std@@@std@@U_Iterator_base0@2@@1@ABGV21@@Z
_TEXT	SEGMENT
___$ReturnUdt$ = 8					; size = 4
___formal$ = 12						; size = 4
__Plist$ = 16						; size = 4
??$_Buynode_if_nil@ABG@?$_Hash@V?$_Uset_traits@GV?$_Uhash_compare@GU?$hash@G@std@@U?$equal_to@G@2@@std@@V?$allocator@G@2@$0A@@std@@@std@@IAE?AV?$_List_unchecked_const_iterator@V?$_List_val@U?$_List_simple_types@G@std@@@std@@U_Iterator_base0@2@@1@ABGV21@@Z PROC ; std::_Hash<std::_Uset_traits<unsigned short,std::_Uhash_compare<unsigned short,std::hash<unsigned short>,std::equal_to<unsigned short> >,std::allocator<unsigned short>,0> >::_Buynode_if_nil<unsigned short const &>, COMDAT
; _this$ = ecx

; 738  : 		{	// node exists, just return it

	npad	2
	push	ebp
	mov	ebp, esp

; 739  : 		return (_Plist);

	mov	eax, DWORD PTR ___$ReturnUdt$[ebp]
	mov	ecx, DWORD PTR __Plist$[ebp]
	mov	DWORD PTR [eax], ecx

; 740  : 		}

	pop	ebp
	ret	12					; 0000000cH
??$_Buynode_if_nil@ABG@?$_Hash@V?$_Uset_traits@GV?$_Uhash_compare@GU?$hash@G@std@@U?$equal_to@G@2@@std@@V?$allocator@G@2@$0A@@std@@@std@@IAE?AV?$_List_unchecked_const_iterator@V?$_List_val@U?$_List_simple_types@G@std@@@std@@U_Iterator_base0@2@@1@ABGV21@@Z ENDP ; std::_Hash<std::_Uset_traits<unsigned short,std::_Uhash_compare<unsigned short,std::hash<unsigned short>,std::equal_to<unsigned short> >,std::allocator<unsigned short>,0> >::_Buynode_if_nil<unsigned short const &>
_TEXT	ENDS
; Function compile flags: /Ogtp
; File c:\program files (x86)\microsoft visual studio\2017\community\vc\tools\msvc\14.10.25017\include\type_traits
;	COMDAT ??$forward@ABG@std@@YAABGABG@Z
_TEXT	SEGMENT
__Arg$ = 8						; size = 4
??$forward@ABG@std@@YAABGABG@Z PROC			; std::forward<unsigned short const &>, COMDAT

; 1334 : 	{	// forward an lvalue as either an lvalue or an rvalue

	npad	2
	push	ebp
	mov	ebp, esp

; 1335 : 	return (static_cast<_Ty&&>(_Arg));

	mov	eax, DWORD PTR __Arg$[ebp]

; 1336 : 	}

	pop	ebp
	ret	0
??$forward@ABG@std@@YAABGABG@Z ENDP			; std::forward<unsigned short const &>
_TEXT	ENDS
; Function compile flags: /Ogtp
; File c:\program files (x86)\microsoft visual studio\2017\community\vc\tools\msvc\14.10.25017\include\xmemory0
;	COMDAT ??$construct@PAU?$_List_node@GPAX@std@@AAPAU12@@?$allocator_traits@V?$allocator@U?$_List_node@GPAX@std@@@std@@@std@@SAXAAV?$allocator@U?$_List_node@GPAX@std@@@1@PAPAU?$_List_node@GPAX@1@AAPAU31@@Z
_TEXT	SEGMENT
__Al$ = 8						; size = 4
__Ptr$ = 12						; size = 4
_<_Args_0>$ = 16					; size = 4
??$construct@PAU?$_List_node@GPAX@std@@AAPAU12@@?$allocator_traits@V?$allocator@U?$_List_node@GPAX@std@@@std@@@std@@SAXAAV?$allocator@U?$_List_node@GPAX@std@@@1@PAPAU?$_List_node@GPAX@1@AAPAU31@@Z PROC ; std::allocator_traits<std::allocator<std::_List_node<unsigned short,void *> > >::construct<std::_List_node<unsigned short,void *> *,std::_List_node<unsigned short,void *> * &>, COMDAT

; 958  : 		{	// construct _Objty(_Types...) at _Ptr

	npad	2
	push	ebp
	mov	ebp, esp

; 840  : 		::new ((void *)_Ptr) _Objty(_STD forward<_Types>(_Args)...);

	mov	ecx, DWORD PTR __Ptr$[ebp]
	test	ecx, ecx
	je	SHORT $LN8@construct
	mov	eax, DWORD PTR _<_Args_0>$[ebp]
	mov	eax, DWORD PTR [eax]
	mov	DWORD PTR [ecx], eax
$LN8@construct:

; 959  : 		_Al.construct(_Ptr, _STD forward<_Types>(_Args)...);
; 960  : 		}

	pop	ebp
	ret	0
??$construct@PAU?$_List_node@GPAX@std@@AAPAU12@@?$allocator_traits@V?$allocator@U?$_List_node@GPAX@std@@@std@@@std@@SAXAAV?$allocator@U?$_List_node@GPAX@std@@@1@PAPAU?$_List_node@GPAX@1@AAPAU31@@Z ENDP ; std::allocator_traits<std::allocator<std::_List_node<unsigned short,void *> > >::construct<std::_List_node<unsigned short,void *> *,std::_List_node<unsigned short,void *> * &>
_TEXT	ENDS
; Function compile flags: /Ogtp
; File c:\program files (x86)\microsoft visual studio\2017\community\vc\tools\msvc\14.10.25017\include\type_traits
;	COMDAT ??$forward@AAPAU?$_List_node@GPAX@std@@@std@@YAAAPAU?$_List_node@GPAX@0@AAPAU10@@Z
_TEXT	SEGMENT
__Arg$ = 8						; size = 4
??$forward@AAPAU?$_List_node@GPAX@std@@@std@@YAAAPAU?$_List_node@GPAX@0@AAPAU10@@Z PROC ; std::forward<std::_List_node<unsigned short,void *> * &>, COMDAT

; 1334 : 	{	// forward an lvalue as either an lvalue or an rvalue

	npad	2
	push	ebp
	mov	ebp, esp

; 1335 : 	return (static_cast<_Ty&&>(_Arg));

	mov	eax, DWORD PTR __Arg$[ebp]

; 1336 : 	}

	pop	ebp
	ret	0
??$forward@AAPAU?$_List_node@GPAX@std@@@std@@YAAAPAU?$_List_node@GPAX@0@AAPAU10@@Z ENDP ; std::forward<std::_List_node<unsigned short,void *> * &>
_TEXT	ENDS
; Function compile flags: /Ogtp
; File c:\program files (x86)\microsoft visual studio\2017\community\vc\tools\msvc\14.10.25017\include\xmemory0
;	COMDAT ??$construct@V?$_List_unchecked_const_iterator@V?$_List_val@U?$_List_simple_types@G@std@@@std@@U_Iterator_base0@2@@std@@V12@@?$allocator_traits@U?$_Wrap_alloc@V?$allocator@V?$_List_unchecked_const_iterator@V?$_List_val@U?$_List_simple_types@G@std@@@std@@U_Iterator_base0@2@@std@@@std@@@std@@@std@@SAXAAU?$_Wrap_alloc@V?$allocator@V?$_List_unchecked_const_iterator@V?$_List_val@U?$_List_simple_types@G@std@@@std@@U_Iterator_base0@2@@std@@@std@@@1@PAV?$_List_unchecked_const_iterator@V?$_List_val@U?$_List_simple_types@G@std@@@std@@U_Iterator_base0@2@@1@$$QAV31@@Z
_TEXT	SEGMENT
__Al$ = 8						; size = 4
__Ptr$ = 12						; size = 4
_<_Args_0>$ = 16					; size = 4
??$construct@V?$_List_unchecked_const_iterator@V?$_List_val@U?$_List_simple_types@G@std@@@std@@U_Iterator_base0@2@@std@@V12@@?$allocator_traits@U?$_Wrap_alloc@V?$allocator@V?$_List_unchecked_const_iterator@V?$_List_val@U?$_List_simple_types@G@std@@@std@@U_Iterator_base0@2@@std@@@std@@@std@@@std@@SAXAAU?$_Wrap_alloc@V?$allocator@V?$_List_unchecked_const_iterator@V?$_List_val@U?$_List_simple_types@G@std@@@std@@U_Iterator_base0@2@@std@@@std@@@1@PAV?$_List_unchecked_const_iterator@V?$_List_val@U?$_List_simple_types@G@std@@@std@@U_Iterator_base0@2@@1@$$QAV31@@Z PROC ; std::allocator_traits<std::_Wrap_alloc<std::allocator<std::_List_unchecked_const_iterator<std::_List_val<std::_List_simple_types<unsigned short> >,std::_Iterator_base0> > > >::construct<std::_List_unchecked_const_iterator<std::_List_val<std::_List_simple_types<unsigned short> >,std::_Iterator_base0>,std::_List_unchecked_const_iterator<std::_List_val<std::_List_simple_types<unsigned short> >,std::_Iterator_base0> >, COMDAT

; 726  : 		{	// construct _Ty(_Types...) at _Ptr

	npad	2
	push	ebp
	mov	ebp, esp

; 710  : 		::new (static_cast<void *>(_Ptr))

	mov	ecx, DWORD PTR __Ptr$[ebp]
	test	ecx, ecx
	je	SHORT $LN8@construct
	mov	eax, DWORD PTR _<_Args_0>$[ebp]
	mov	eax, DWORD PTR [eax]
	mov	DWORD PTR [ecx], eax
$LN8@construct:

; 727  : 		_Construct1(_Uses_default_construct_t<_Unwrap_alloc_t<_Alloc>, _Ty *, _Types...>(),
; 728  : 			_Al, _Ptr, _STD forward<_Types>(_Args)...);
; 729  : 		}

	pop	ebp
	ret	0
??$construct@V?$_List_unchecked_const_iterator@V?$_List_val@U?$_List_simple_types@G@std@@@std@@U_Iterator_base0@2@@std@@V12@@?$allocator_traits@U?$_Wrap_alloc@V?$allocator@V?$_List_unchecked_const_iterator@V?$_List_val@U?$_List_simple_types@G@std@@@std@@U_Iterator_base0@2@@std@@@std@@@std@@@std@@SAXAAU?$_Wrap_alloc@V?$allocator@V?$_List_unchecked_const_iterator@V?$_List_val@U?$_List_simple_types@G@std@@@std@@U_Iterator_base0@2@@std@@@std@@@1@PAV?$_List_unchecked_const_iterator@V?$_List_val@U?$_List_simple_types@G@std@@@std@@U_Iterator_base0@2@@1@$$QAV31@@Z ENDP ; std::allocator_traits<std::_Wrap_alloc<std::allocator<std::_List_unchecked_const_iterator<std::_List_val<std::_List_simple_types<unsigned short> >,std::_Iterator_base0> > > >::construct<std::_List_unchecked_const_iterator<std::_List_val<std::_List_simple_types<unsigned short> >,std::_Iterator_base0>,std::_List_unchecked_const_iterator<std::_List_val<std::_List_simple_types<unsigned short> >,std::_Iterator_base0> >
_TEXT	ENDS
; Function compile flags: /Ogtp
; File c:\program files (x86)\microsoft visual studio\2017\community\vc\tools\msvc\14.10.25017\include\type_traits
;	COMDAT ??$forward@V?$_List_unchecked_const_iterator@V?$_List_val@U?$_List_simple_types@G@std@@@std@@U_Iterator_base0@2@@std@@@std@@YA$$QAV?$_List_unchecked_const_iterator@V?$_List_val@U?$_List_simple_types@G@std@@@std@@U_Iterator_base0@2@@0@AAV10@@Z
_TEXT	SEGMENT
__Arg$ = 8						; size = 4
??$forward@V?$_List_unchecked_const_iterator@V?$_List_val@U?$_List_simple_types@G@std@@@std@@U_Iterator_base0@2@@std@@@std@@YA$$QAV?$_List_unchecked_const_iterator@V?$_List_val@U?$_List_simple_types@G@std@@@std@@U_Iterator_base0@2@@0@AAV10@@Z PROC ; std::forward<std::_List_unchecked_const_iterator<std::_List_val<std::_List_simple_types<unsigned short> >,std::_Iterator_base0> >, COMDAT

; 1334 : 	{	// forward an lvalue as either an lvalue or an rvalue

	npad	2
	push	ebp
	mov	ebp, esp

; 1335 : 	return (static_cast<_Ty&&>(_Arg));

	mov	eax, DWORD PTR __Arg$[ebp]

; 1336 : 	}

	pop	ebp
	ret	0
??$forward@V?$_List_unchecked_const_iterator@V?$_List_val@U?$_List_simple_types@G@std@@@std@@U_Iterator_base0@2@@std@@@std@@YA$$QAV?$_List_unchecked_const_iterator@V?$_List_val@U?$_List_simple_types@G@std@@@std@@U_Iterator_base0@2@@0@AAV10@@Z ENDP ; std::forward<std::_List_unchecked_const_iterator<std::_List_val<std::_List_simple_types<unsigned short> >,std::_Iterator_base0> >
_TEXT	ENDS
; Function compile flags: /Ogtp
; File c:\program files (x86)\microsoft visual studio\2017\community\vc\tools\msvc\14.10.25017\include\xmemory0
;	COMDAT ??$construct@V?$_List_unchecked_const_iterator@V?$_List_val@U?$_List_simple_types@G@std@@@std@@U_Iterator_base0@2@@std@@ABV12@@?$allocator_traits@U?$_Wrap_alloc@V?$allocator@V?$_List_unchecked_const_iterator@V?$_List_val@U?$_List_simple_types@G@std@@@std@@U_Iterator_base0@2@@std@@@std@@@std@@@std@@SAXAAU?$_Wrap_alloc@V?$allocator@V?$_List_unchecked_const_iterator@V?$_List_val@U?$_List_simple_types@G@std@@@std@@U_Iterator_base0@2@@std@@@std@@@1@PAV?$_List_unchecked_const_iterator@V?$_List_val@U?$_List_simple_types@G@std@@@std@@U_Iterator_base0@2@@1@ABV31@@Z
_TEXT	SEGMENT
__Al$ = 8						; size = 4
__Ptr$ = 12						; size = 4
_<_Args_0>$ = 16					; size = 4
??$construct@V?$_List_unchecked_const_iterator@V?$_List_val@U?$_List_simple_types@G@std@@@std@@U_Iterator_base0@2@@std@@ABV12@@?$allocator_traits@U?$_Wrap_alloc@V?$allocator@V?$_List_unchecked_const_iterator@V?$_List_val@U?$_List_simple_types@G@std@@@std@@U_Iterator_base0@2@@std@@@std@@@std@@@std@@SAXAAU?$_Wrap_alloc@V?$allocator@V?$_List_unchecked_const_iterator@V?$_List_val@U?$_List_simple_types@G@std@@@std@@U_Iterator_base0@2@@std@@@std@@@1@PAV?$_List_unchecked_const_iterator@V?$_List_val@U?$_List_simple_types@G@std@@@std@@U_Iterator_base0@2@@1@ABV31@@Z PROC ; std::allocator_traits<std::_Wrap_alloc<std::allocator<std::_List_unchecked_const_iterator<std::_List_val<std::_List_simple_types<unsigned short> >,std::_Iterator_base0> > > >::construct<std::_List_unchecked_const_iterator<std::_List_val<std::_List_simple_types<unsigned short> >,std::_Iterator_base0>,std::_List_unchecked_const_iterator<std::_List_val<std::_List_simple_types<unsigned short> >,std::_Iterator_base0> const &>, COMDAT

; 726  : 		{	// construct _Ty(_Types...) at _Ptr

	npad	2
	push	ebp
	mov	ebp, esp

; 710  : 		::new (static_cast<void *>(_Ptr))

	mov	ecx, DWORD PTR __Ptr$[ebp]
	test	ecx, ecx
	je	SHORT $LN8@construct
	mov	eax, DWORD PTR _<_Args_0>$[ebp]
	mov	eax, DWORD PTR [eax]
	mov	DWORD PTR [ecx], eax
$LN8@construct:

; 727  : 		_Construct1(_Uses_default_construct_t<_Unwrap_alloc_t<_Alloc>, _Ty *, _Types...>(),
; 728  : 			_Al, _Ptr, _STD forward<_Types>(_Args)...);
; 729  : 		}

	pop	ebp
	ret	0
??$construct@V?$_List_unchecked_const_iterator@V?$_List_val@U?$_List_simple_types@G@std@@@std@@U_Iterator_base0@2@@std@@ABV12@@?$allocator_traits@U?$_Wrap_alloc@V?$allocator@V?$_List_unchecked_const_iterator@V?$_List_val@U?$_List_simple_types@G@std@@@std@@U_Iterator_base0@2@@std@@@std@@@std@@@std@@SAXAAU?$_Wrap_alloc@V?$allocator@V?$_List_unchecked_const_iterator@V?$_List_val@U?$_List_simple_types@G@std@@@std@@U_Iterator_base0@2@@std@@@std@@@1@PAV?$_List_unchecked_const_iterator@V?$_List_val@U?$_List_simple_types@G@std@@@std@@U_Iterator_base0@2@@1@ABV31@@Z ENDP ; std::allocator_traits<std::_Wrap_alloc<std::allocator<std::_List_unchecked_const_iterator<std::_List_val<std::_List_simple_types<unsigned short> >,std::_Iterator_base0> > > >::construct<std::_List_unchecked_const_iterator<std::_List_val<std::_List_simple_types<unsigned short> >,std::_Iterator_base0>,std::_List_unchecked_const_iterator<std::_List_val<std::_List_simple_types<unsigned short> >,std::_Iterator_base0> const &>
_TEXT	ENDS
; Function compile flags: /Ogtp
; File c:\program files (x86)\microsoft visual studio\2017\community\vc\tools\msvc\14.10.25017\include\type_traits
;	COMDAT ??$forward@ABV?$_List_unchecked_const_iterator@V?$_List_val@U?$_List_simple_types@G@std@@@std@@U_Iterator_base0@2@@std@@@std@@YAABV?$_List_unchecked_const_iterator@V?$_List_val@U?$_List_simple_types@G@std@@@std@@U_Iterator_base0@2@@0@ABV10@@Z
_TEXT	SEGMENT
__Arg$ = 8						; size = 4
??$forward@ABV?$_List_unchecked_const_iterator@V?$_List_val@U?$_List_simple_types@G@std@@@std@@U_Iterator_base0@2@@std@@@std@@YAABV?$_List_unchecked_const_iterator@V?$_List_val@U?$_List_simple_types@G@std@@@std@@U_Iterator_base0@2@@0@ABV10@@Z PROC ; std::forward<std::_List_unchecked_const_iterator<std::_List_val<std::_List_simple_types<unsigned short> >,std::_Iterator_base0> const &>, COMDAT

; 1334 : 	{	// forward an lvalue as either an lvalue or an rvalue

	npad	2
	push	ebp
	mov	ebp, esp

; 1335 : 	return (static_cast<_Ty&&>(_Arg));

	mov	eax, DWORD PTR __Arg$[ebp]

; 1336 : 	}

	pop	ebp
	ret	0
??$forward@ABV?$_List_unchecked_const_iterator@V?$_List_val@U?$_List_simple_types@G@std@@@std@@U_Iterator_base0@2@@std@@@std@@YAABV?$_List_unchecked_const_iterator@V?$_List_val@U?$_List_simple_types@G@std@@@std@@U_Iterator_base0@2@@0@ABV10@@Z ENDP ; std::forward<std::_List_unchecked_const_iterator<std::_List_val<std::_List_simple_types<unsigned short> >,std::_Iterator_base0> const &>
_TEXT	ENDS
; Function compile flags: /Ogtp
; File c:\program files (x86)\microsoft visual studio\2017\community\vc\tools\msvc\14.10.25017\include\xmemory0
;	COMDAT ??$destroy@V?$_List_unchecked_const_iterator@V?$_List_val@U?$_List_simple_types@G@std@@@std@@U_Iterator_base0@2@@std@@@?$allocator_traits@U?$_Wrap_alloc@V?$allocator@V?$_List_unchecked_const_iterator@V?$_List_val@U?$_List_simple_types@G@std@@@std@@U_Iterator_base0@2@@std@@@std@@@std@@@std@@SAXAAU?$_Wrap_alloc@V?$allocator@V?$_List_unchecked_const_iterator@V?$_List_val@U?$_List_simple_types@G@std@@@std@@U_Iterator_base0@2@@std@@@std@@@1@PAV?$_List_unchecked_const_iterator@V?$_List_val@U?$_List_simple_types@G@std@@@std@@U_Iterator_base0@2@@1@@Z
_TEXT	SEGMENT
__Al$ = 8						; size = 4
__Ptr$ = 12						; size = 4
??$destroy@V?$_List_unchecked_const_iterator@V?$_List_val@U?$_List_simple_types@G@std@@@std@@U_Iterator_base0@2@@std@@@?$allocator_traits@U?$_Wrap_alloc@V?$allocator@V?$_List_unchecked_const_iterator@V?$_List_val@U?$_List_simple_types@G@std@@@std@@U_Iterator_base0@2@@std@@@std@@@std@@@std@@SAXAAU?$_Wrap_alloc@V?$allocator@V?$_List_unchecked_const_iterator@V?$_List_val@U?$_List_simple_types@G@std@@@std@@U_Iterator_base0@2@@std@@@std@@@1@PAV?$_List_unchecked_const_iterator@V?$_List_val@U?$_List_simple_types@G@std@@@std@@U_Iterator_base0@2@@1@@Z PROC ; std::allocator_traits<std::_Wrap_alloc<std::allocator<std::_List_unchecked_const_iterator<std::_List_val<std::_List_simple_types<unsigned short> >,std::_Iterator_base0> > > >::destroy<std::_List_unchecked_const_iterator<std::_List_val<std::_List_simple_types<unsigned short> >,std::_Iterator_base0> >, COMDAT

; 746  : 		_Destroy1(_Al, _Ptr, _Uses_default_destroy_t<_Unwrap_alloc_t<_Alloc>, _Ty *>());
; 747  : 		}

	ret	0
??$destroy@V?$_List_unchecked_const_iterator@V?$_List_val@U?$_List_simple_types@G@std@@@std@@U_Iterator_base0@2@@std@@@?$allocator_traits@U?$_Wrap_alloc@V?$allocator@V?$_List_unchecked_const_iterator@V?$_List_val@U?$_List_simple_types@G@std@@@std@@U_Iterator_base0@2@@std@@@std@@@std@@@std@@SAXAAU?$_Wrap_alloc@V?$allocator@V?$_List_unchecked_const_iterator@V?$_List_val@U?$_List_simple_types@G@std@@@std@@U_Iterator_base0@2@@std@@@std@@@1@PAV?$_List_unchecked_const_iterator@V?$_List_val@U?$_List_simple_types@G@std@@@std@@U_Iterator_base0@2@@1@@Z ENDP ; std::allocator_traits<std::_Wrap_alloc<std::allocator<std::_List_unchecked_const_iterator<std::_List_val<std::_List_simple_types<unsigned short> >,std::_Iterator_base0> > > >::destroy<std::_List_unchecked_const_iterator<std::_List_val<std::_List_simple_types<unsigned short> >,std::_Iterator_base0> >
_TEXT	ENDS
; Function compile flags: /Ogtp
; File c:\program files (x86)\microsoft visual studio\2017\community\vc\tools\msvc\14.10.25017\include\xmemory0
;	COMDAT ??$?0ABV?$allocator@G@std@@@?$_Wrap_alloc@V?$allocator@U?$_List_node@GPAX@std@@@std@@@std@@QAE@ABV?$allocator@G@1@@Z
_TEXT	SEGMENT
__Right$ = 8						; size = 4
??$?0ABV?$allocator@G@std@@@?$_Wrap_alloc@V?$allocator@U?$_List_node@GPAX@std@@@std@@@std@@QAE@ABV?$allocator@G@1@@Z PROC ; std::_Wrap_alloc<std::allocator<std::_List_node<unsigned short,void *> > >::_Wrap_alloc<std::allocator<std::_List_node<unsigned short,void *> > ><std::allocator<unsigned short> const &>, COMDAT
; _this$ = ecx

; 1054 : 		}

	mov	eax, ecx
	ret	4
??$?0ABV?$allocator@G@std@@@?$_Wrap_alloc@V?$allocator@U?$_List_node@GPAX@std@@@std@@@std@@QAE@ABV?$allocator@G@1@@Z ENDP ; std::_Wrap_alloc<std::allocator<std::_List_node<unsigned short,void *> > >::_Wrap_alloc<std::allocator<std::_List_node<unsigned short,void *> > ><std::allocator<unsigned short> const &>
_TEXT	ENDS
; Function compile flags: /Ogtp
; File c:\program files (x86)\microsoft visual studio\2017\community\vc\tools\msvc\14.10.25017\include\type_traits
;	COMDAT ??$forward@_N@std@@YA$$QA_NAA_N@Z
_TEXT	SEGMENT
__Arg$ = 8						; size = 4
??$forward@_N@std@@YA$$QA_NAA_N@Z PROC			; std::forward<bool>, COMDAT

; 1334 : 	{	// forward an lvalue as either an lvalue or an rvalue

	npad	2
	push	ebp
	mov	ebp, esp

; 1335 : 	return (static_cast<_Ty&&>(_Arg));

	mov	eax, DWORD PTR __Arg$[ebp]

; 1336 : 	}

	pop	ebp
	ret	0
??$forward@_N@std@@YA$$QA_NAA_N@Z ENDP			; std::forward<bool>
_TEXT	ENDS
; Function compile flags: /Ogtp
; File c:\program files (x86)\microsoft visual studio\2017\community\vc\tools\msvc\14.10.25017\include\list
; File c:\program files (x86)\microsoft visual studio\2017\community\vc\tools\msvc\14.10.25017\include\xmemory0
; File c:\program files (x86)\microsoft visual studio\2017\community\vc\tools\msvc\14.10.25017\include\list
;	COMDAT ??$_Buynode@G@?$_List_buy@GV?$allocator@G@std@@@std@@QAEPAU?$_List_node@GPAX@1@PAU21@0$$QAG@Z
_TEXT	SEGMENT
__Next$ = 8						; size = 4
__Prev$ = 12						; size = 4
_<_Val_0>$ = 16						; size = 4
??$_Buynode@G@?$_List_buy@GV?$allocator@G@std@@@std@@QAEPAU?$_List_node@GPAX@1@PAU21@0$$QAG@Z PROC ; std::_List_buy<unsigned short,std::allocator<unsigned short> >::_Buynode<unsigned short>, COMDAT
; _this$ = ecx

; 847  : 		{	// allocate a node and set links and value

	npad	2
	push	ebp
	mov	ebp, esp

; 848  : 		_Nodeptr _Pnode = this->_Buynode0(_Next, _Prev);

	push	DWORD PTR __Prev$[ebp]
	push	DWORD PTR __Next$[ebp]
	call	?_Buynode0@?$_List_alloc@U?$_List_base_types@GV?$allocator@G@std@@@std@@@std@@QAEPAU?$_List_node@GPAX@2@PAU32@0@Z ; std::_List_alloc<std::_List_base_types<unsigned short,std::allocator<unsigned short> > >::_Buynode0

; 540  : 		return ((reference)_Pnode->_Myval);

	lea	edx, DWORD PTR [eax+8]
; File c:\program files (x86)\microsoft visual studio\2017\community\vc\tools\msvc\14.10.25017\include\xmemory0

; 840  : 		::new ((void *)_Ptr) _Objty(_STD forward<_Types>(_Args)...);

	test	edx, edx
	je	SHORT $LN36@Buynode
	mov	ecx, DWORD PTR _<_Val_0>$[ebp]
	mov	cx, WORD PTR [ecx]
	mov	WORD PTR [edx], cx
$LN36@Buynode:
; File c:\program files (x86)\microsoft visual studio\2017\community\vc\tools\msvc\14.10.25017\include\list

; 860  : 		}

	pop	ebp
	ret	12					; 0000000cH
??$_Buynode@G@?$_List_buy@GV?$allocator@G@std@@@std@@QAEPAU?$_List_node@GPAX@1@PAU21@0$$QAG@Z ENDP ; std::_List_buy<unsigned short,std::allocator<unsigned short> >::_Buynode<unsigned short>
_TEXT	ENDS
; Function compile flags: /Ogtp
; File c:\program files (x86)\microsoft visual studio\2017\community\vc\tools\msvc\14.10.25017\include\xhash
; File c:\program files (x86)\microsoft visual studio\2017\community\vc\tools\msvc\14.10.25017\include\xstddef
; File c:\program files (x86)\microsoft visual studio\2017\community\vc\tools\msvc\14.10.25017\include\xhash
; File c:\program files (x86)\microsoft visual studio\2017\community\vc\tools\msvc\14.10.25017\include\xstddef
; File c:\program files (x86)\microsoft visual studio\2017\community\vc\tools\msvc\14.10.25017\include\xhash
; File c:\program files (x86)\microsoft visual studio\2017\community\vc\tools\msvc\14.10.25017\include\xstddef
; File c:\program files (x86)\microsoft visual studio\2017\community\vc\tools\msvc\14.10.25017\include\list
; File c:\program files (x86)\microsoft visual studio\2017\community\vc\tools\msvc\14.10.25017\include\xstddef
; File c:\program files (x86)\microsoft visual studio\2017\community\vc\tools\msvc\14.10.25017\include\xhash
; File c:\program files (x86)\microsoft visual studio\2017\community\vc\tools\msvc\14.10.25017\include\list
; File c:\program files (x86)\microsoft visual studio\2017\community\vc\tools\msvc\14.10.25017\include\vector
; File c:\program files (x86)\microsoft visual studio\2017\community\vc\tools\msvc\14.10.25017\include\list
; File c:\program files (x86)\microsoft visual studio\2017\community\vc\tools\msvc\14.10.25017\include\xhash
; File c:\program files (x86)\microsoft visual studio\2017\community\vc\tools\msvc\14.10.25017\include\list
; File c:\program files (x86)\microsoft visual studio\2017\community\vc\tools\msvc\14.10.25017\include\xhash
; File c:\program files (x86)\microsoft visual studio\2017\community\vc\tools\msvc\14.10.25017\include\list
; File c:\program files (x86)\microsoft visual studio\2017\community\vc\tools\msvc\14.10.25017\include\xhash
; File c:\program files (x86)\microsoft visual studio\2017\community\vc\tools\msvc\14.10.25017\include\xstddef
; File c:\program files (x86)\microsoft visual studio\2017\community\vc\tools\msvc\14.10.25017\include\list
; File c:\program files (x86)\microsoft visual studio\2017\community\vc\tools\msvc\14.10.25017\include\xstddef
; File c:\program files (x86)\microsoft visual studio\2017\community\vc\tools\msvc\14.10.25017\include\xhash
; File c:\program files (x86)\microsoft visual studio\2017\community\vc\tools\msvc\14.10.25017\include\list
; File c:\program files (x86)\microsoft visual studio\2017\community\vc\tools\msvc\14.10.25017\include\xhash
; File c:\program files (x86)\microsoft visual studio\2017\community\vc\tools\msvc\14.10.25017\include\list
; File c:\program files (x86)\microsoft visual studio\2017\community\vc\tools\msvc\14.10.25017\include\xhash
; File c:\program files (x86)\microsoft visual studio\2017\community\vc\tools\msvc\14.10.25017\include\list
; File c:\program files (x86)\microsoft visual studio\2017\community\vc\tools\msvc\14.10.25017\include\xhash
; File c:\program files (x86)\microsoft visual studio\2017\community\vc\tools\msvc\14.10.25017\include\list
; File c:\program files (x86)\microsoft visual studio\2017\community\vc\tools\msvc\14.10.25017\include\xmemory0
; File c:\program files (x86)\microsoft visual studio\2017\community\vc\tools\msvc\14.10.25017\include\list
; File c:\program files (x86)\microsoft visual studio\2017\community\vc\tools\msvc\14.10.25017\include\xmemory0
; File c:\program files (x86)\microsoft visual studio\2017\community\vc\tools\msvc\14.10.25017\include\utility
; File c:\program files (x86)\microsoft visual studio\2017\community\vc\tools\msvc\14.10.25017\include\xmemory0
; File c:\program files (x86)\microsoft visual studio\2017\community\vc\tools\msvc\14.10.25017\include\utility
; File c:\program files (x86)\microsoft visual studio\2017\community\vc\tools\msvc\14.10.25017\include\xhash
; File c:\program files (x86)\microsoft visual studio\2017\community\vc\tools\msvc\14.10.25017\include\list
; File c:\program files (x86)\microsoft visual studio\2017\community\vc\tools\msvc\14.10.25017\include\xhash
; File c:\program files (x86)\microsoft visual studio\2017\community\vc\tools\msvc\14.10.25017\include\list
; File c:\program files (x86)\microsoft visual studio\2017\community\vc\tools\msvc\14.10.25017\include\xhash
; File c:\program files (x86)\microsoft visual studio\2017\community\vc\tools\msvc\14.10.25017\include\vector
; File c:\program files (x86)\microsoft visual studio\2017\community\vc\tools\msvc\14.10.25017\include\list
; File c:\program files (x86)\microsoft visual studio\2017\community\vc\tools\msvc\14.10.25017\include\xhash
; File c:\program files (x86)\microsoft visual studio\2017\community\vc\tools\msvc\14.10.25017\include\utility
; File c:\program files (x86)\microsoft visual studio\2017\community\vc\tools\msvc\14.10.25017\include\xhash
; File c:\program files (x86)\microsoft visual studio\2017\community\vc\tools\msvc\14.10.25017\include\utility
; File c:\program files (x86)\microsoft visual studio\2017\community\vc\tools\msvc\14.10.25017\include\xhash
; File c:\program files (x86)\microsoft visual studio\2017\community\vc\tools\msvc\14.10.25017\include\utility
; File c:\program files (x86)\microsoft visual studio\2017\community\vc\tools\msvc\14.10.25017\include\xhash
;	COMDAT ??$_Insert@ABGV?$_List_unchecked_const_iterator@V?$_List_val@U?$_List_simple_types@G@std@@@std@@U_Iterator_base0@2@@std@@@?$_Hash@V?$_Uset_traits@GV?$_Uhash_compare@GU?$hash@G@std@@U?$equal_to@G@2@@std@@V?$allocator@G@2@$0A@@std@@@std@@IAE?AU?$pair@V?$_List_const_iterator@V?$_List_val@U?$_List_simple_types@G@std@@@std@@@std@@_N@1@ABGV?$_List_unchecked_const_iterator@V?$_List_val@U?$_List_simple_types@G@std@@@std@@U_Iterator_base0@2@@1@@Z
_TEXT	SEGMENT
_this$ = -24						; size = 4
__Plist$ = -20						; size = 4
__$EHRec$ = -16						; size = 16
$T2 = 8							; size = 4
___$ReturnUdt$ = 8					; size = 4
tv1477 = 12						; size = 4
$T3 = 12						; size = 4
__Val$ = 12						; size = 4
__Pnode$ = 16						; size = 4
??$_Insert@ABGV?$_List_unchecked_const_iterator@V?$_List_val@U?$_List_simple_types@G@std@@@std@@U_Iterator_base0@2@@std@@@?$_Hash@V?$_Uset_traits@GV?$_Uhash_compare@GU?$hash@G@std@@U?$equal_to@G@2@@std@@V?$allocator@G@2@$0A@@std@@@std@@IAE?AU?$pair@V?$_List_const_iterator@V?$_List_val@U?$_List_simple_types@G@std@@@std@@@std@@_N@1@ABGV?$_List_unchecked_const_iterator@V?$_List_val@U?$_List_simple_types@G@std@@@std@@U_Iterator_base0@2@@1@@Z PROC ; std::_Hash<std::_Uset_traits<unsigned short,std::_Uhash_compare<unsigned short,std::hash<unsigned short>,std::equal_to<unsigned short> >,std::allocator<unsigned short>,0> >::_Insert<unsigned short const &,std::_List_unchecked_const_iterator<std::_List_val<std::_List_simple_types<unsigned short> >,std::_Iterator_base0> >, COMDAT
; _this$ = ecx

; 761  : 		{	// try to insert existing node with value _Val

	npad	2
	push	ebp
	mov	ebp, esp
	push	-1
	push	__ehhandler$??$_Insert@ABGV?$_List_unchecked_const_iterator@V?$_List_val@U?$_List_simple_types@G@std@@@std@@U_Iterator_base0@2@@std@@@?$_Hash@V?$_Uset_traits@GV?$_Uhash_compare@GU?$hash@G@std@@U?$equal_to@G@2@@std@@V?$allocator@G@2@$0A@@std@@@std@@IAE?AU?$pair@V?$_List_const_iterator@V?$_List_val@U?$_List_simple_types@G@std@@@std@@@std@@_N@1@ABGV?$_List_unchecked_const_iterator@V?$_List_val@U?$_List_simple_types@G@std@@@std@@U_Iterator_base0@2@@1@@Z
	mov	eax, DWORD PTR fs:0
	push	eax
	mov	DWORD PTR fs:0, esp
	sub	esp, 12					; 0000000cH
	push	ebx
	push	esi
	push	edi
; File c:\program files (x86)\microsoft visual studio\2017\community\vc\tools\msvc\14.10.25017\include\xstddef

; 346  : 		_Val ^= (size_t)_First[_Next];

	mov	edi, DWORD PTR __Val$[ebp]
; File c:\program files (x86)\microsoft visual studio\2017\community\vc\tools\msvc\14.10.25017\include\xhash

; 761  : 		{	// try to insert existing node with value _Val

	mov	ebx, ecx
	mov	DWORD PTR __$EHRec$[ebp], esp
	mov	DWORD PTR _this$[ebp], ebx

; 762  : 		size_type _Bucket;
; 763  : 		_Unchecked_iterator _Where;
; 764  : 
; 765  : 		_TRY_BEGIN

	mov	DWORD PTR __$EHRec$[ebp+12], 0
; File c:\program files (x86)\microsoft visual studio\2017\community\vc\tools\msvc\14.10.25017\include\xstddef

; 346  : 		_Val ^= (size_t)_First[_Next];

	movzx	eax, BYTE PTR [edi]
; File c:\program files (x86)\microsoft visual studio\2017\community\vc\tools\msvc\14.10.25017\include\xhash

; 912  : 		return (_Traitsobj(_Keyval) & _Mask);

	mov	ecx, DWORD PTR [ebx+24]
; File c:\program files (x86)\microsoft visual studio\2017\community\vc\tools\msvc\14.10.25017\include\xstddef

; 346  : 		_Val ^= (size_t)_First[_Next];

	xor	eax, -2128831035			; 811c9dc5H
; File c:\program files (x86)\microsoft visual studio\2017\community\vc\tools\msvc\14.10.25017\include\list

; 86   : 		return (_Ptr == _Right._Ptr);

	mov	esi, DWORD PTR [ebx+12]
; File c:\program files (x86)\microsoft visual studio\2017\community\vc\tools\msvc\14.10.25017\include\xstddef

; 347  : 		_Val *= _FNV_prime;

	imul	edx, eax, 16777619
	movzx	eax, BYTE PTR [edi+1]
	xor	edx, eax
	imul	eax, edx, 16777619
; File c:\program files (x86)\microsoft visual studio\2017\community\vc\tools\msvc\14.10.25017\include\xhash

; 912  : 		return (_Traitsobj(_Keyval) & _Mask);

	and	ecx, eax
; File c:\program files (x86)\microsoft visual studio\2017\community\vc\tools\msvc\14.10.25017\include\list

; 86   : 		return (_Ptr == _Right._Ptr);

	mov	eax, DWORD PTR [esi+ecx*8]
; File c:\program files (x86)\microsoft visual studio\2017\community\vc\tools\msvc\14.10.25017\include\vector

; 1746 : 		return (this->_Myfirst()[_Pos]);

	lea	edx, DWORD PTR [ecx*8]
	mov	DWORD PTR tv1477[ebp], edx
; File c:\program files (x86)\microsoft visual studio\2017\community\vc\tools\msvc\14.10.25017\include\list

; 86   : 		return (_Ptr == _Right._Ptr);

	cmp	eax, DWORD PTR [ebx+4]
; File c:\program files (x86)\microsoft visual studio\2017\community\vc\tools\msvc\14.10.25017\include\xhash

; 846  : 		if (_Vec_lo(_Bucket) == _Unchecked_end())

	jne	SHORT $LN43@Insert

; 847  : 			return (_Unchecked_end());

	mov	esi, DWORD PTR [ebx+4]
	jmp	SHORT $LN44@Insert
$LN43@Insert:
; File c:\program files (x86)\microsoft visual studio\2017\community\vc\tools\msvc\14.10.25017\include\list

; 530  : 		return ((_Nodepref)_Pnode->_Next);

	mov	esi, DWORD PTR [esi+edx+4]
; File c:\program files (x86)\microsoft visual studio\2017\community\vc\tools\msvc\14.10.25017\include\xhash

; 851  : 			return (++_Ans);

	mov	esi, DWORD PTR [esi]
$LN44@Insert:
; File c:\program files (x86)\microsoft visual studio\2017\community\vc\tools\msvc\14.10.25017\include\list

; 86   : 		return (_Ptr == _Right._Ptr);

	cmp	esi, eax
; File c:\program files (x86)\microsoft visual studio\2017\community\vc\tools\msvc\14.10.25017\include\xhash

; 768  : 		for (; _Where != _Begin(_Bucket); )

	je	SHORT $LN3@Insert
; File c:\program files (x86)\microsoft visual studio\2017\community\vc\tools\msvc\14.10.25017\include\xstddef

; 220  : 		return (_Left == _Right);

	movzx	ecx, WORD PTR [edi]
	npad	8
$LL2@Insert:
; File c:\program files (x86)\microsoft visual studio\2017\community\vc\tools\msvc\14.10.25017\include\list

; 73   : 		_Ptr = _Mylist::_Prevnode(_Ptr);

	mov	esi, DWORD PTR [esi+4]
; File c:\program files (x86)\microsoft visual studio\2017\community\vc\tools\msvc\14.10.25017\include\xstddef

; 220  : 		return (_Left == _Right);

	cmp	cx, WORD PTR [esi+8]
; File c:\program files (x86)\microsoft visual studio\2017\community\vc\tools\msvc\14.10.25017\include\xhash

; 772  : 			if (_Traitsobj(_Traits::_Kfn(_Val),

	je	SHORT $LN6@Insert
; File c:\program files (x86)\microsoft visual studio\2017\community\vc\tools\msvc\14.10.25017\include\list

; 86   : 		return (_Ptr == _Right._Ptr);

	cmp	esi, eax
; File c:\program files (x86)\microsoft visual studio\2017\community\vc\tools\msvc\14.10.25017\include\xhash

; 768  : 		for (; _Where != _Begin(_Bucket); )

	jne	SHORT $LL2@Insert
$LN3@Insert:

; 739  : 		return (_Plist);

	mov	edi, DWORD PTR __Pnode$[ebp]
	mov	DWORD PTR __Plist$[ebp], edi
; File c:\program files (x86)\microsoft visual studio\2017\community\vc\tools\msvc\14.10.25017\include\list

; 60   : 		_Ptr = _Mylist::_Nextnode(_Ptr);

	mov	eax, DWORD PTR [edi]

; 86   : 		return (_Ptr == _Right._Ptr);

	cmp	esi, eax
; File c:\program files (x86)\microsoft visual studio\2017\community\vc\tools\msvc\14.10.25017\include\xhash

; 799  : 		if (_Where != ++_Next)	// move element into place

	je	SHORT $LN10@Insert
; File c:\program files (x86)\microsoft visual studio\2017\community\vc\tools\msvc\14.10.25017\include\list

; 530  : 		return ((_Nodepref)_Pnode->_Next);

	mov	ecx, DWORD PTR [edi+4]

; 1910 : 		this->_Nextnode(this->_Prevnode(_First._Mynode())) =

	mov	DWORD PTR [ecx], eax

; 530  : 		return ((_Nodepref)_Pnode->_Next);

	mov	ecx, DWORD PTR [eax+4]

; 1912 : 		this->_Nextnode(this->_Prevnode(_Last._Mynode())) =

	mov	DWORD PTR [ecx], esi

; 530  : 		return ((_Nodepref)_Pnode->_Next);

	mov	ecx, DWORD PTR [esi+4]

; 1914 : 		this->_Nextnode(this->_Prevnode(_Where._Mynode())) =

	mov	DWORD PTR [ecx], edi

; 1915 : 			_First._Mynode();
; 1916 : 
; 1917 : 		_Nodeptr _Pnode = this->_Prevnode(_Where._Mynode());

	mov	edx, DWORD PTR [esi+4]

; 1918 : 		this->_Prevnode(_Where._Mynode()) =

	mov	ecx, DWORD PTR [eax+4]
	mov	DWORD PTR [esi+4], ecx

; 1919 : 			this->_Prevnode(_Last._Mynode());
; 1920 : 		this->_Prevnode(_Last._Mynode()) =

	mov	ecx, DWORD PTR [edi+4]
	mov	DWORD PTR [eax+4], ecx

; 1921 : 			this->_Prevnode(_First._Mynode());
; 1922 : 		this->_Prevnode(_First._Mynode()) = _Pnode;

	mov	DWORD PTR [edi+4], edx
	mov	edx, DWORD PTR tv1477[ebp]
$LN10@Insert:

; 86   : 		return (_Ptr == _Right._Ptr);

	mov	ecx, DWORD PTR [ebx+12]
	add	ecx, edx
	mov	eax, DWORD PTR [ecx]
	cmp	eax, DWORD PTR [ebx+4]
; File c:\program files (x86)\microsoft visual studio\2017\community\vc\tools\msvc\14.10.25017\include\xhash

; 883  : 		if (_Vec_lo(_Bucket) == _Unchecked_end())

	jne	SHORT $LN453@Insert

; 884  : 			{	// make bucket non-empty
; 885  : 			_Vec_lo(_Bucket) = _Plist;

	mov	DWORD PTR [ecx], edi

; 886  : 			_Vec_hi(_Bucket) = _Plist;

	mov	eax, DWORD PTR [ebx+12]
	mov	DWORD PTR [eax+edx+4], edi

; 888  : 		else if (_Vec_lo(_Bucket) == _Where)

	jmp	SHORT $LN457@Insert
$LN6@Insert:
; File c:\program files (x86)\microsoft visual studio\2017\community\vc\tools\msvc\14.10.25017\include\list

; 96   : 		return (_Ptr);

	mov	edx, DWORD PTR __Pnode$[ebp]
; File c:\program files (x86)\microsoft visual studio\2017\community\vc\tools\msvc\14.10.25017\include\xmemory0

; 140  : 	::operator delete(_Ptr);

	push	edx
; File c:\program files (x86)\microsoft visual studio\2017\community\vc\tools\msvc\14.10.25017\include\list

; 530  : 		return ((_Nodepref)_Pnode->_Next);

	mov	ecx, DWORD PTR [edx+4]

; 1490 : 		this->_Nextnode(this->_Prevnode(_Pnode)) =

	mov	eax, DWORD PTR [edx]
	mov	DWORD PTR [ecx], eax

; 1491 : 			this->_Nextnode(_Pnode);
; 1492 : 		this->_Prevnode(this->_Nextnode(_Pnode)) =

	mov	ecx, DWORD PTR [edx]
	mov	eax, DWORD PTR [edx+4]
	mov	DWORD PTR [ecx+4], eax

; 1493 : 			this->_Prevnode(_Pnode);
; 1494 : 
; 1495 : 		--this->_Mysize();

	dec	DWORD PTR [ebx+8]
; File c:\program files (x86)\microsoft visual studio\2017\community\vc\tools\msvc\14.10.25017\include\xmemory0

; 140  : 	::operator delete(_Ptr);

	call	??3@YAXPAX@Z				; operator delete
; File c:\program files (x86)\microsoft visual studio\2017\community\vc\tools\msvc\14.10.25017\include\utility

; 187  : 		: first(_STD forward<_Other1>(_Val1)),

	mov	eax, DWORD PTR ___$ReturnUdt$[ebp]
; File c:\program files (x86)\microsoft visual studio\2017\community\vc\tools\msvc\14.10.25017\include\xmemory0

; 140  : 	::operator delete(_Ptr);

	add	esp, 4
; File c:\program files (x86)\microsoft visual studio\2017\community\vc\tools\msvc\14.10.25017\include\utility

; 187  : 		: first(_STD forward<_Other1>(_Val1)),

	mov	DWORD PTR [eax], esi

; 188  : 				second(_STD forward<_Other2>(_Val2))

	mov	BYTE PTR [eax+4], 0
; File c:\program files (x86)\microsoft visual studio\2017\community\vc\tools\msvc\14.10.25017\include\xhash

; 812  : 		}

	mov	ecx, DWORD PTR __$EHRec$[ebp+4]
	mov	DWORD PTR fs:0, ecx
	pop	edi
	pop	esi
	pop	ebx
	mov	esp, ebp
	pop	ebp
	ret	12					; 0000000cH
$LN453@Insert:
; File c:\program files (x86)\microsoft visual studio\2017\community\vc\tools\msvc\14.10.25017\include\list

; 86   : 		return (_Ptr == _Right._Ptr);

	cmp	eax, esi
; File c:\program files (x86)\microsoft visual studio\2017\community\vc\tools\msvc\14.10.25017\include\xhash

; 888  : 		else if (_Vec_lo(_Bucket) == _Where)

	jne	SHORT $LN455@Insert

; 889  : 			_Vec_lo(_Bucket) = _Plist;	// move beginning back one element

	mov	DWORD PTR [ecx], edi

; 890  : 		else if (++_Vec_hi(_Bucket) != _Plist)	// move end up one element

	jmp	SHORT $LN457@Insert
$LN455@Insert:
; File c:\program files (x86)\microsoft visual studio\2017\community\vc\tools\msvc\14.10.25017\include\list

; 530  : 		return ((_Nodepref)_Pnode->_Next);

	mov	eax, DWORD PTR [ecx+4]

; 60   : 		_Ptr = _Mylist::_Nextnode(_Ptr);

	mov	eax, DWORD PTR [eax]
	mov	DWORD PTR [ecx+4], eax

; 86   : 		return (_Ptr == _Right._Ptr);

	cmp	eax, edi
; File c:\program files (x86)\microsoft visual studio\2017\community\vc\tools\msvc\14.10.25017\include\xhash

; 890  : 		else if (++_Vec_hi(_Bucket) != _Plist)	// move end up one element

	je	SHORT $LN457@Insert
; File c:\program files (x86)\microsoft visual studio\2017\community\vc\tools\msvc\14.10.25017\include\vector

; 1746 : 		return (this->_Myfirst()[_Pos]);

	mov	ecx, DWORD PTR [ebx+12]
; File c:\program files (x86)\microsoft visual studio\2017\community\vc\tools\msvc\14.10.25017\include\list

; 73   : 		_Ptr = _Mylist::_Prevnode(_Ptr);

	mov	eax, DWORD PTR [ecx+edx+4]
	mov	eax, DWORD PTR [eax+4]
	mov	DWORD PTR [ecx+edx+4], eax
$LN457@Insert:
; File c:\program files (x86)\microsoft visual studio\2017\community\vc\tools\msvc\14.10.25017\include\xhash

; 805  : 		_Check_size();

	mov	ecx, ebx
	mov	DWORD PTR __$EHRec$[ebp+12], 2
	call	?_Check_size@?$_Hash@V?$_Uset_traits@GV?$_Uhash_compare@GU?$hash@G@std@@U?$equal_to@G@2@@std@@V?$allocator@G@2@$0A@@std@@@std@@IAEXXZ ; std::_Hash<std::_Uset_traits<unsigned short,std::_Uhash_compare<unsigned short,std::hash<unsigned short>,std::equal_to<unsigned short> >,std::allocator<unsigned short>,0> >::_Check_size
; File c:\program files (x86)\microsoft visual studio\2017\community\vc\tools\msvc\14.10.25017\include\utility

; 187  : 		: first(_STD forward<_Other1>(_Val1)),

	mov	eax, DWORD PTR ___$ReturnUdt$[ebp]
; File c:\program files (x86)\microsoft visual studio\2017\community\vc\tools\msvc\14.10.25017\include\xhash

; 812  : 		}

	mov	ecx, DWORD PTR __$EHRec$[ebp+4]
; File c:\program files (x86)\microsoft visual studio\2017\community\vc\tools\msvc\14.10.25017\include\utility

; 187  : 		: first(_STD forward<_Other1>(_Val1)),

	mov	DWORD PTR [eax], edi
; File c:\program files (x86)\microsoft visual studio\2017\community\vc\tools\msvc\14.10.25017\include\xhash

; 812  : 		}

	pop	edi
	pop	esi
; File c:\program files (x86)\microsoft visual studio\2017\community\vc\tools\msvc\14.10.25017\include\utility

; 188  : 				second(_STD forward<_Other2>(_Val2))

	mov	BYTE PTR [eax+4], 1
; File c:\program files (x86)\microsoft visual studio\2017\community\vc\tools\msvc\14.10.25017\include\xhash

; 812  : 		}

	mov	DWORD PTR fs:0, ecx
	pop	ebx
	mov	esp, ebp
	pop	ebp
	ret	12					; 0000000cH
__catch$??$_Insert@ABGV?$_List_unchecked_const_iterator@V?$_List_val@U?$_List_simple_types@G@std@@@std@@U_Iterator_base0@2@@std@@@?$_Hash@V?$_Uset_traits@GV?$_Uhash_compare@GU?$hash@G@std@@U?$equal_to@G@2@@std@@V?$allocator@G@2@$0A@@std@@@std@@IAE?AU?$pair@V?$_List_const_iterator@V?$_List_val@U?$_List_simple_types@G@std@@@std@@@std@@_N@1@ABGV?$_List_unchecked_const_iterator@V?$_List_val@U?$_List_simple_types@G@std@@@std@@U_Iterator_base0@2@@1@@Z$2:

; 806  : 		_CATCH_ALL
; 807  : 		erase(_Make_iter(_Plist));

	push	DWORD PTR __Plist$[ebp]
	mov	ecx, DWORD PTR _this$[ebp]
	lea	eax, DWORD PTR $T2[ebp]
	push	eax
	call	?_Make_iter@?$_Hash@V?$_Uset_traits@GV?$_Uhash_compare@GU?$hash@G@std@@U?$equal_to@G@2@@std@@V?$allocator@G@2@$0A@@std@@@std@@QBE?AV?$_List_const_iterator@V?$_List_val@U?$_List_simple_types@G@std@@@std@@@2@V?$_List_unchecked_const_iterator@V?$_List_val@U?$_List_simple_types@G@std@@@std@@U_Iterator_base0@2@@2@@Z ; std::_Hash<std::_Uset_traits<unsigned short,std::_Uhash_compare<unsigned short,std::hash<unsigned short>,std::equal_to<unsigned short> >,std::allocator<unsigned short>,0> >::_Make_iter
	mov	ecx, DWORD PTR _this$[ebp]
	push	DWORD PTR [eax]
	lea	eax, DWORD PTR $T3[ebp]
	push	eax
	call	?erase@?$_Hash@V?$_Uset_traits@GV?$_Uhash_compare@GU?$hash@G@std@@U?$equal_to@G@2@@std@@V?$allocator@G@2@$0A@@std@@@std@@QAE?AV?$_List_const_iterator@V?$_List_val@U?$_List_simple_types@G@std@@@std@@@2@V32@@Z ; std::_Hash<std::_Uset_traits<unsigned short,std::_Uhash_compare<unsigned short,std::hash<unsigned short>,std::equal_to<unsigned short> >,std::allocator<unsigned short>,0> >::erase

; 808  : 		_RERAISE;

	push	0
	push	0
	call	__CxxThrowException@8
$LN635@Insert:
$LN634@Insert:
	int	3
_TEXT	ENDS
;	COMDAT text$x
text$x	SEGMENT
__ehhandler$??$_Insert@ABGV?$_List_unchecked_const_iterator@V?$_List_val@U?$_List_simple_types@G@std@@@std@@U_Iterator_base0@2@@std@@@?$_Hash@V?$_Uset_traits@GV?$_Uhash_compare@GU?$hash@G@std@@U?$equal_to@G@2@@std@@V?$allocator@G@2@$0A@@std@@@std@@IAE?AU?$pair@V?$_List_const_iterator@V?$_List_val@U?$_List_simple_types@G@std@@@std@@@std@@_N@1@ABGV?$_List_unchecked_const_iterator@V?$_List_val@U?$_List_simple_types@G@std@@@std@@U_Iterator_base0@2@@1@@Z:
	mov	eax, OFFSET __ehfuncinfo$??$_Insert@ABGV?$_List_unchecked_const_iterator@V?$_List_val@U?$_List_simple_types@G@std@@@std@@U_Iterator_base0@2@@std@@@?$_Hash@V?$_Uset_traits@GV?$_Uhash_compare@GU?$hash@G@std@@U?$equal_to@G@2@@std@@V?$allocator@G@2@$0A@@std@@@std@@IAE?AU?$pair@V?$_List_const_iterator@V?$_List_val@U?$_List_simple_types@G@std@@@std@@@std@@_N@1@ABGV?$_List_unchecked_const_iterator@V?$_List_val@U?$_List_simple_types@G@std@@@std@@U_Iterator_base0@2@@1@@Z
	jmp	___CxxFrameHandler3
text$x	ENDS
??$_Insert@ABGV?$_List_unchecked_const_iterator@V?$_List_val@U?$_List_simple_types@G@std@@@std@@U_Iterator_base0@2@@std@@@?$_Hash@V?$_Uset_traits@GV?$_Uhash_compare@GU?$hash@G@std@@U?$equal_to@G@2@@std@@V?$allocator@G@2@$0A@@std@@@std@@IAE?AU?$pair@V?$_List_const_iterator@V?$_List_val@U?$_List_simple_types@G@std@@@std@@@std@@_N@1@ABGV?$_List_unchecked_const_iterator@V?$_List_val@U?$_List_simple_types@G@std@@@std@@U_Iterator_base0@2@@1@@Z ENDP ; std::_Hash<std::_Uset_traits<unsigned short,std::_Uhash_compare<unsigned short,std::hash<unsigned short>,std::equal_to<unsigned short> >,std::allocator<unsigned short>,0> >::_Insert<unsigned short const &,std::_List_unchecked_const_iterator<std::_List_val<std::_List_simple_types<unsigned short> >,std::_Iterator_base0> >
; Function compile flags: /Ogtp
; File c:\program files (x86)\microsoft visual studio\2017\community\vc\tools\msvc\14.10.25017\include\xmemory0
;	COMDAT ??$construct@PAU?$_List_node@GPAX@std@@AAPAU12@@?$_Wrap_alloc@V?$allocator@U?$_List_node@GPAX@std@@@std@@@std@@QAEXPAPAU?$_List_node@GPAX@1@AAPAU21@@Z
_TEXT	SEGMENT
__Ptr$ = 8						; size = 4
_<_Args_0>$ = 12					; size = 4
??$construct@PAU?$_List_node@GPAX@std@@AAPAU12@@?$_Wrap_alloc@V?$allocator@U?$_List_node@GPAX@std@@@std@@@std@@QAEXPAPAU?$_List_node@GPAX@1@AAPAU21@@Z PROC ; std::_Wrap_alloc<std::allocator<std::_List_node<unsigned short,void *> > >::construct<std::_List_node<unsigned short,void *> *,std::_List_node<unsigned short,void *> * &>, COMDAT
; _this$ = ecx

; 1095 : 		{	// construct _Ty(_Types...) at _Ptr

	npad	2
	push	ebp
	mov	ebp, esp

; 840  : 		::new ((void *)_Ptr) _Objty(_STD forward<_Types>(_Args)...);

	mov	ecx, DWORD PTR __Ptr$[ebp]
	test	ecx, ecx
	je	SHORT $LN13@construct
	mov	eax, DWORD PTR _<_Args_0>$[ebp]
	mov	eax, DWORD PTR [eax]
	mov	DWORD PTR [ecx], eax
$LN13@construct:

; 1096 : 		_Mytraits::construct(*this, _Ptr,
; 1097 : 			_STD forward<_Types>(_Args)...);
; 1098 : 		}

	pop	ebp
	ret	8
??$construct@PAU?$_List_node@GPAX@std@@AAPAU12@@?$_Wrap_alloc@V?$allocator@U?$_List_node@GPAX@std@@@std@@@std@@QAEXPAPAU?$_List_node@GPAX@1@AAPAU21@@Z ENDP ; std::_Wrap_alloc<std::allocator<std::_List_node<unsigned short,void *> > >::construct<std::_List_node<unsigned short,void *> *,std::_List_node<unsigned short,void *> * &>
_TEXT	ENDS
; Function compile flags: /Ogtp
; File c:\program files (x86)\microsoft visual studio\2017\community\vc\tools\msvc\14.10.25017\include\xmemory0
;	COMDAT ??$construct@V?$_List_unchecked_const_iterator@V?$_List_val@U?$_List_simple_types@G@std@@@std@@U_Iterator_base0@2@@std@@V12@@?$_Wrap_alloc@U?$_Wrap_alloc@V?$allocator@V?$_List_unchecked_const_iterator@V?$_List_val@U?$_List_simple_types@G@std@@@std@@U_Iterator_base0@2@@std@@@std@@@std@@@std@@QAEXPAV?$_List_unchecked_const_iterator@V?$_List_val@U?$_List_simple_types@G@std@@@std@@U_Iterator_base0@2@@1@$$QAV21@@Z
_TEXT	SEGMENT
__Ptr$ = 8						; size = 4
_<_Args_0>$ = 12					; size = 4
??$construct@V?$_List_unchecked_const_iterator@V?$_List_val@U?$_List_simple_types@G@std@@@std@@U_Iterator_base0@2@@std@@V12@@?$_Wrap_alloc@U?$_Wrap_alloc@V?$allocator@V?$_List_unchecked_const_iterator@V?$_List_val@U?$_List_simple_types@G@std@@@std@@U_Iterator_base0@2@@std@@@std@@@std@@@std@@QAEXPAV?$_List_unchecked_const_iterator@V?$_List_val@U?$_List_simple_types@G@std@@@std@@U_Iterator_base0@2@@1@$$QAV21@@Z PROC ; std::_Wrap_alloc<std::_Wrap_alloc<std::allocator<std::_List_unchecked_const_iterator<std::_List_val<std::_List_simple_types<unsigned short> >,std::_Iterator_base0> > > >::construct<std::_List_unchecked_const_iterator<std::_List_val<std::_List_simple_types<unsigned short> >,std::_Iterator_base0>,std::_List_unchecked_const_iterator<std::_List_val<std::_List_simple_types<unsigned short> >,std::_Iterator_base0> >, COMDAT
; _this$ = ecx

; 1095 : 		{	// construct _Ty(_Types...) at _Ptr

	npad	2
	push	ebp
	mov	ebp, esp

; 710  : 		::new (static_cast<void *>(_Ptr))

	mov	ecx, DWORD PTR __Ptr$[ebp]
	test	ecx, ecx
	je	SHORT $LN13@construct
	mov	eax, DWORD PTR _<_Args_0>$[ebp]
	mov	eax, DWORD PTR [eax]
	mov	DWORD PTR [ecx], eax
$LN13@construct:

; 1096 : 		_Mytraits::construct(*this, _Ptr,
; 1097 : 			_STD forward<_Types>(_Args)...);
; 1098 : 		}

	pop	ebp
	ret	8
??$construct@V?$_List_unchecked_const_iterator@V?$_List_val@U?$_List_simple_types@G@std@@@std@@U_Iterator_base0@2@@std@@V12@@?$_Wrap_alloc@U?$_Wrap_alloc@V?$allocator@V?$_List_unchecked_const_iterator@V?$_List_val@U?$_List_simple_types@G@std@@@std@@U_Iterator_base0@2@@std@@@std@@@std@@@std@@QAEXPAV?$_List_unchecked_const_iterator@V?$_List_val@U?$_List_simple_types@G@std@@@std@@U_Iterator_base0@2@@1@$$QAV21@@Z ENDP ; std::_Wrap_alloc<std::_Wrap_alloc<std::allocator<std::_List_unchecked_const_iterator<std::_List_val<std::_List_simple_types<unsigned short> >,std::_Iterator_base0> > > >::construct<std::_List_unchecked_const_iterator<std::_List_val<std::_List_simple_types<unsigned short> >,std::_Iterator_base0>,std::_List_unchecked_const_iterator<std::_List_val<std::_List_simple_types<unsigned short> >,std::_Iterator_base0> >
_TEXT	ENDS
; Function compile flags: /Ogtp
; File c:\program files (x86)\microsoft visual studio\2017\community\vc\tools\msvc\14.10.25017\include\xmemory0
;	COMDAT ??$destroy@G@?$allocator@U?$_List_node@GPAX@std@@@std@@QAEXPAG@Z
_TEXT	SEGMENT
__Ptr$ = 8						; size = 4
??$destroy@G@?$allocator@U?$_List_node@GPAX@std@@@std@@QAEXPAG@Z PROC ; std::allocator<std::_List_node<unsigned short,void *> >::destroy<unsigned short>, COMDAT
; _this$ = ecx

; 846  : 		_Ptr->~_Uty();
; 847  : 		}

	ret	4
??$destroy@G@?$allocator@U?$_List_node@GPAX@std@@@std@@QAEXPAG@Z ENDP ; std::allocator<std::_List_node<unsigned short,void *> >::destroy<unsigned short>
_TEXT	ENDS
; Function compile flags: /Ogtp
; File c:\program files (x86)\microsoft visual studio\2017\community\vc\tools\msvc\14.10.25017\include\xmemory0
;	COMDAT ??$construct@V?$_List_unchecked_const_iterator@V?$_List_val@U?$_List_simple_types@G@std@@@std@@U_Iterator_base0@2@@std@@ABV12@@?$_Wrap_alloc@U?$_Wrap_alloc@V?$allocator@V?$_List_unchecked_const_iterator@V?$_List_val@U?$_List_simple_types@G@std@@@std@@U_Iterator_base0@2@@std@@@std@@@std@@@std@@QAEXPAV?$_List_unchecked_const_iterator@V?$_List_val@U?$_List_simple_types@G@std@@@std@@U_Iterator_base0@2@@1@ABV21@@Z
_TEXT	SEGMENT
__Ptr$ = 8						; size = 4
_<_Args_0>$ = 12					; size = 4
