; Listing generated by Microsoft (R) Optimizing Compiler Version 19.10.25019.0 

	TITLE	C:\Users\andon\Source\Repos\SpecialK\src\imgui\backends\imgui_d3d11.cpp
	.686P
	.XMM
	include listing.inc
	.model	flat

INCLUDELIB MSVCRT
INCLUDELIB OLDNAMES

PUBLIC	?chDirSep@ATL@@3_WB				; ATL::chDirSep
PUBLIC	?chRightBracket@ATL@@3_WB			; ATL::chRightBracket
PUBLIC	?chLeftBracket@ATL@@3_WB			; ATL::chLeftBracket
PUBLIC	?chQuote@ATL@@3_WB				; ATL::chQuote
PUBLIC	?chEquals@ATL@@3_WB				; ATL::chEquals
PUBLIC	?szStringVal@ATL@@3QB_WB			; ATL::szStringVal
PUBLIC	?multiszStringVal@ATL@@3QB_WB			; ATL::multiszStringVal
PUBLIC	?szDwordVal@ATL@@3QB_WB				; ATL::szDwordVal
PUBLIC	?szBinaryVal@ATL@@3QB_WB			; ATL::szBinaryVal
PUBLIC	?szValToken@ATL@@3QB_WB				; ATL::szValToken
PUBLIC	?szForceRemove@ATL@@3QB_WB			; ATL::szForceRemove
PUBLIC	?szNoRemove@ATL@@3QB_WB				; ATL::szNoRemove
PUBLIC	?szDelete@ATL@@3QB_WB				; ATL::szDelete
PUBLIC	_IID_IDocHostUIHandlerDispatch
PUBLIC	?_pAtlAutoThreadModule@ATL@@3PAUIAtlAutoThreadModule@1@A ; ATL::_pAtlAutoThreadModule
PUBLIC	_IID_IAxWinHostWindow
PUBLIC	_IID_IAxWinHostWindowLic
PUBLIC	_IID_IAxWinAmbientDispatch
PUBLIC	?_pAtlModule@ATL@@3PAVCAtlModule@1@A		; ATL::_pAtlModule
PUBLIC	_LIBID_ATLLib
PUBLIC	_IID_IAxWinAmbientDispatchEx
PUBLIC	_IID_IInternalConnection
PUBLIC	___pobjMapEntryFirst
PUBLIC	___pobjMapEntryLast
PUBLIC	?_pPerfRegFunc@ATL@@3P6AJPAUHINSTANCE__@@@ZA	; ATL::_pPerfRegFunc
PUBLIC	?_pPerfUnRegFunc@ATL@@3P6AJXZA			; ATL::_pPerfUnRegFunc
PUBLIC	?_AtlRegisterPerUser@ATL@@3_NA			; ATL::_AtlRegisterPerUser
PUBLIC	?_pModule@ATL@@3PAVCComModule@1@A		; ATL::_pModule
PUBLIC	_CLSID_Registrar
PUBLIC	_IID_IRegistrar
;	COMDAT ?_pAtlAutoThreadModule@ATL@@3PAUIAtlAutoThreadModule@1@A
_BSS	SEGMENT
?_pAtlAutoThreadModule@ATL@@3PAUIAtlAutoThreadModule@1@A DD 01H DUP (?) ; ATL::_pAtlAutoThreadModule
_BSS	ENDS
;	COMDAT ?_pAtlModule@ATL@@3PAVCAtlModule@1@A
_BSS	SEGMENT
?_pAtlModule@ATL@@3PAVCAtlModule@1@A DD 01H DUP (?)	; ATL::_pAtlModule
_BSS	ENDS
_BSS	SEGMENT
?g_Time@@3_JA DQ 01H DUP (?)				; g_Time
?g_TicksPerSecond@@3_JA DQ 01H DUP (?)			; g_TicksPerSecond
?g_hWnd@@3PAUHWND__@@A DD 01H DUP (?)			; g_hWnd
?g_pVB@@3PAUID3D11Buffer@@A DD 01H DUP (?)		; g_pVB
?g_pIB@@3PAUID3D11Buffer@@A DD 01H DUP (?)		; g_pIB
?g_pVertexShaderBlob@@3PAUID3D10Blob@@A DD 01H DUP (?)	; g_pVertexShaderBlob
?g_pVertexShader@@3PAUID3D11VertexShader@@A DD 01H DUP (?) ; g_pVertexShader
?g_pInputLayout@@3PAUID3D11InputLayout@@A DD 01H DUP (?) ; g_pInputLayout
?g_pVertexConstantBuffer@@3PAUID3D11Buffer@@A DD 01H DUP (?) ; g_pVertexConstantBuffer
?g_pPixelShaderBlob@@3PAUID3D10Blob@@A DD 01H DUP (?)	; g_pPixelShaderBlob
?g_pPixelShader@@3PAUID3D11PixelShader@@A DD 01H DUP (?) ; g_pPixelShader
?g_pFontSampler@@3PAUID3D11SamplerState@@A DD 01H DUP (?) ; g_pFontSampler
?g_pFontTextureView@@3PAUID3D11ShaderResourceView@@A DD 01H DUP (?) ; g_pFontTextureView
?g_pRasterizerState@@3PAUID3D11RasterizerState@@A DD 01H DUP (?) ; g_pRasterizerState
?g_pBlendState@@3PAUID3D11BlendState@@A DD 01H DUP (?)	; g_pBlendState
?g_pDepthStencilState@@3PAUID3D11DepthStencilState@@A DD 01H DUP (?) ; g_pDepthStencilState
?g_frameBufferWidth@@3IA DD 01H DUP (?)			; g_frameBufferWidth
?g_frameBufferHeight@@3IA DD 01H DUP (?)		; g_frameBufferHeight
_BSS	ENDS
;	COMDAT ?_pPerfRegFunc@ATL@@3P6AJPAUHINSTANCE__@@@ZA
_BSS	SEGMENT
?_pPerfRegFunc@ATL@@3P6AJPAUHINSTANCE__@@@ZA DD 01H DUP (?) ; ATL::_pPerfRegFunc
_BSS	ENDS
;	COMDAT ?_pPerfUnRegFunc@ATL@@3P6AJXZA
_BSS	SEGMENT
?_pPerfUnRegFunc@ATL@@3P6AJXZA DD 01H DUP (?)		; ATL::_pPerfUnRegFunc
_BSS	ENDS
;	COMDAT ?_AtlRegisterPerUser@ATL@@3_NA
_BSS	SEGMENT
?_AtlRegisterPerUser@ATL@@3_NA DB 01H DUP (?)		; ATL::_AtlRegisterPerUser
_BSS	ENDS
;	COMDAT ?_pModule@ATL@@3PAVCComModule@1@A
_BSS	SEGMENT
?_pModule@ATL@@3PAVCComModule@1@A DD 01H DUP (?)	; ATL::_pModule
_BSS	ENDS
;	COMDAT _IID_IRegistrar
CONST	SEGMENT
_IID_IRegistrar DD 044ec053bH
	DW	0400fH
	DW	011d0H
	DB	09dH
	DB	0cdH
	DB	00H
	DB	0a0H
	DB	0c9H
	DB	03H
	DB	091H
	DB	0d3H
CONST	ENDS
;	COMDAT _CLSID_Registrar
CONST	SEGMENT
_CLSID_Registrar DD 044ec053aH
	DW	0400fH
	DW	011d0H
	DB	09dH
	DB	0cdH
	DB	00H
	DB	0a0H
	DB	0c9H
	DB	03H
	DB	091H
	DB	0d3H
CONST	ENDS
;	COMDAT ___pobjMapEntryLast
ATL$__z	SEGMENT
___pobjMapEntryLast DD 00H
ATL$__z	ENDS
;	COMDAT ___pobjMapEntryFirst
ATL$__a	SEGMENT
___pobjMapEntryFirst DD 00H
ATL$__a	ENDS
;	COMDAT _IID_IInternalConnection
CONST	SEGMENT
_IID_IInternalConnection DD 072ad0770H
	DW	06a9fH
	DW	011d1H
	DB	0bcH
	DB	0ecH
	DB	00H
	DB	060H
	DB	08H
	DB	08fH
	DB	044H
	DB	04eH
CONST	ENDS
;	COMDAT _IID_IAxWinAmbientDispatchEx
CONST	SEGMENT
_IID_IAxWinAmbientDispatchEx DD 0b2d0778bH
	DW	0ac99H
	DW	04c58H
	DB	0a5H
	DB	0c8H
	DB	0e7H
	DB	072H
	DB	04eH
	DB	053H
	DB	016H
	DB	0b5H
CONST	ENDS
_DATA	SEGMENT
?g_VertexBufferSize@@3HA DD 01388H			; g_VertexBufferSize
?g_IndexBufferSize@@3HA DD 02710H			; g_IndexBufferSize
_DATA	ENDS
;	COMDAT _LIBID_ATLLib
CONST	SEGMENT
_LIBID_ATLLib DD 044ec0535H
	DW	0400fH
	DW	011d0H
	DB	09dH
	DB	0cdH
	DB	00H
	DB	0a0H
	DB	0c9H
	DB	03H
	DB	091H
	DB	0d3H
CONST	ENDS
;	COMDAT _IID_IAxWinAmbientDispatch
CONST	SEGMENT
_IID_IAxWinAmbientDispatch DD 0b6ea2051H
	DW	048aH
	DW	011d1H
	DB	082H
	DB	0b9H
	DB	00H
	DB	0c0H
	DB	04fH
	DB	0b9H
	DB	094H
	DB	02eH
CONST	ENDS
;	COMDAT _IID_IAxWinHostWindowLic
CONST	SEGMENT
_IID_IAxWinHostWindowLic DD 03935bda8H
	DW	04ed9H
	DW	0495cH
	DB	086H
	DB	050H
	DB	0e0H
	DB	01fH
	DB	0c1H
	DB	0e3H
	DB	08aH
	DB	04bH
CONST	ENDS
;	COMDAT _IID_IAxWinHostWindow
CONST	SEGMENT
_IID_IAxWinHostWindow DD 0b6ea2050H
	DW	048aH
	DW	011d1H
	DB	082H
	DB	0b9H
	DB	00H
	DB	0c0H
	DB	04fH
	DB	0b9H
	DB	094H
	DB	02eH
CONST	ENDS
;	COMDAT _IID_IDocHostUIHandlerDispatch
CONST	SEGMENT
_IID_IDocHostUIHandlerDispatch DD 0425b5af0H
	DW	065f1H
	DW	011d1H
	DB	096H
	DB	011H
	DB	00H
	DB	00H
	DB	0f8H
	DB	01eH
	DB	0dH
	DB	0dH
CONST	ENDS
;	COMDAT ?szDelete@ATL@@3QB_WB
CONST	SEGMENT
?szDelete@ATL@@3QB_WB DD FLAT:$SG236572			; ATL::szDelete
CONST	ENDS
;	COMDAT ?szNoRemove@ATL@@3QB_WB
CONST	SEGMENT
?szNoRemove@ATL@@3QB_WB DD FLAT:$SG236570		; ATL::szNoRemove
CONST	ENDS
;	COMDAT ?szForceRemove@ATL@@3QB_WB
CONST	SEGMENT
?szForceRemove@ATL@@3QB_WB DD FLAT:$SG236568		; ATL::szForceRemove
CONST	ENDS
;	COMDAT ?szValToken@ATL@@3QB_WB
CONST	SEGMENT
?szValToken@ATL@@3QB_WB DD FLAT:$SG236566		; ATL::szValToken
CONST	ENDS
;	COMDAT ?szBinaryVal@ATL@@3QB_WB
CONST	SEGMENT
?szBinaryVal@ATL@@3QB_WB DD FLAT:$SG236564		; ATL::szBinaryVal
CONST	ENDS
;	COMDAT ?szDwordVal@ATL@@3QB_WB
CONST	SEGMENT
?szDwordVal@ATL@@3QB_WB DD FLAT:$SG236562		; ATL::szDwordVal
CONST	ENDS
;	COMDAT ?multiszStringVal@ATL@@3QB_WB
CONST	SEGMENT
?multiszStringVal@ATL@@3QB_WB DD FLAT:$SG236560		; ATL::multiszStringVal
CONST	ENDS
CONST	SEGMENT
$SG236558 DB	'S', 00H, 00H, 00H
$SG236560 DB	'M', 00H, 00H, 00H
$SG236562 DB	'D', 00H, 00H, 00H
$SG236564 DB	'B', 00H, 00H, 00H
$SG236566 DB	'V', 00H, 'a', 00H, 'l', 00H, 00H, 00H
$SG236568 DB	'F', 00H, 'o', 00H, 'r', 00H, 'c', 00H, 'e', 00H, 'R', 00H
	DB	'e', 00H, 'm', 00H, 'o', 00H, 'v', 00H, 'e', 00H, 00H, 00H
$SG236570 DB	'N', 00H, 'o', 00H, 'R', 00H, 'e', 00H, 'm', 00H, 'o', 00H
	DB	'v', 00H, 'e', 00H, 00H, 00H
?piecewise_construct@std@@3Upiecewise_construct_t@1@B	ORG $+1 ; std::piecewise_construct
	ORG $+1
$SG236572 DB	'D', 00H, 'e', 00H, 'l', 00H, 'e', 00H, 't', 00H, 'e', 00H
	DB	00H, 00H
	ORG $+2
$SG225310 DB	'a', 00H, 't', 00H, 'l', 00H, 'T', 00H, 'r', 00H, 'a', 00H
	DB	'c', 00H, 'e', 00H, 'E', 00H, 'x', 00H, 'c', 00H, 'e', 00H, 'p'
	DB	00H, 't', 00H, 'i', 00H, 'o', 00H, 'n', 00H, 00H, 00H
$SG225357 DB	'a', 00H, 't', 00H, 'l', 00H, 'T', 00H, 'r', 00H, 'a', 00H
	DB	'c', 00H, 'e', 00H, 'T', 00H, 'i', 00H, 'm', 00H, 'e', 00H, 00H
	DB	00H
	ORG $+2
$SG225404 DB	'a', 00H, 't', 00H, 'l', 00H, 'T', 00H, 'r', 00H, 'a', 00H
	DB	'c', 00H, 'e', 00H, 'C', 00H, 'a', 00H, 'c', 00H, 'h', 00H, 'e'
	DB	00H, 00H, 00H
$SG225451 DB	'a', 00H, 't', 00H, 'l', 00H, 'T', 00H, 'r', 00H, 'a', 00H
	DB	'c', 00H, 'e', 00H, 'S', 00H, 't', 00H, 'e', 00H, 'n', 00H, 'c'
	DB	00H, 'i', 00H, 'l', 00H, 00H, 00H
$SG225498 DB	'a', 00H, 't', 00H, 'l', 00H, 'T', 00H, 'r', 00H, 'a', 00H
	DB	'c', 00H, 'e', 00H, 'S', 00H, 't', 00H, 'r', 00H, 'i', 00H, 'n'
	DB	00H, 'g', 00H, 00H, 00H
	ORG $+2
$SG225545 DB	'a', 00H, 't', 00H, 'l', 00H, 'T', 00H, 'r', 00H, 'a', 00H
	DB	'c', 00H, 'e', 00H, 'M', 00H, 'a', 00H, 'p', 00H, 00H, 00H
$SG225550 DB	'a', 00H, 't', 00H, 'l', 00H, 'T', 00H, 'r', 00H, 'a', 00H
	DB	'c', 00H, 'e', 00H, 'U', 00H, 't', 00H, 'i', 00H, 'l', 00H, 00H
	DB	00H
	ORG $+2
$SG225597 DB	'a', 00H, 't', 00H, 'l', 00H, 'T', 00H, 'r', 00H, 'a', 00H
	DB	'c', 00H, 'e', 00H, 'S', 00H, 'e', 00H, 'c', 00H, 'u', 00H, 'r'
	DB	00H, 'i', 00H, 't', 00H, 'y', 00H, 00H, 00H
	ORG $+2
$SG244072 DB	'cbuffer vertexBuffer : register(b0)       {      float4x'
	DB	'4 ProjectionMatrix;       };      struct VS_INPUT      {     '
	DB	' float2 pos : POSITION;      float4 col : COLOR0;      float2'
	DB	' uv  : TEXCOORD0;      };            struct PS_INPUT      {  '
	DB	'    float4 pos : SV_POSITION;      float4 col : COLOR0;      '
	DB	'float2 uv  : TEXCOORD0;      };            PS_INPUT main(VS_I'
	DB	'NPUT input)      {      PS_INPUT output;      output.pos = mu'
	DB	'l( ProjectionMatrix, float4(input.pos.xy, 0.f, 1.f));      ou'
	DB	'tput.col = input.col;      output.uv  = input.uv;      return'
	DB	' output;      }', 00H
$SG225644 DB	'a', 00H, 't', 00H, 'l', 00H, 'T', 00H, 'r', 00H, 'a', 00H
	DB	'c', 00H, 'e', 00H, 'S', 00H, 'y', 00H, 'n', 00H, 'c', 00H, 00H
	DB	00H
	ORG $+6
$SG244087 DB	'struct PS_INPUT      {      float4 pos : SV_POSITION;   '
	DB	'   float4 col : COLOR0;      float2 uv  : TEXCOORD0;      }; '
	DB	'     sampler sampler0;      Texture2D texture0;            fl'
	DB	'oat4 main(PS_INPUT input) : SV_Target      {      float4 out_'
	DB	'col = input.col * texture0.Sample(sampler0, input.uv);       '
	DB	'return out_col;       }', 00H
$SG244100 DB	'vs_4_0', 00H
	ORG $+1
$SG244101 DB	'main', 00H
	ORG $+3
$SG244106 DB	'POSITION', 00H
	ORG $+3
$SG244107 DB	'TEXCOORD', 00H
	ORG $+3
$SG244108 DB	'COLOR', 00H
	ORG $+2
$SG244111 DB	'ps_4_0', 00H
	ORG $+1
$SG244112 DB	'main', 00H
	ORG $+3
$SG225691 DB	'a', 00H, 't', 00H, 'l', 00H, 'T', 00H, 'r', 00H, 'a', 00H
	DB	'c', 00H, 'e', 00H, 'I', 00H, 'S', 00H, 'A', 00H, 'P', 00H, 'I'
	DB	00H, 00H, 00H
$SG224675 DB	'a', 00H, 't', 00H, 'l', 00H, 'T', 00H, 'r', 00H, 'a', 00H
	DB	'c', 00H, 'e', 00H, 'G', 00H, 'e', 00H, 'n', 00H, 'e', 00H, 'r'
	DB	00H, 'a', 00H, 'l', 00H, 00H, 00H
$SG224746 DB	'a', 00H, 't', 00H, 'l', 00H, 'T', 00H, 'r', 00H, 'a', 00H
	DB	'c', 00H, 'e', 00H, 'C', 00H, 'O', 00H, 'M', 00H, 00H, 00H
$SG224793 DB	'a', 00H, 't', 00H, 'l', 00H, 'T', 00H, 'r', 00H, 'a', 00H
	DB	'c', 00H, 'e', 00H, 'Q', 00H, 'I', 00H, 00H, 00H
	ORG $+2
$SG224840 DB	'a', 00H, 't', 00H, 'l', 00H, 'T', 00H, 'r', 00H, 'a', 00H
	DB	'c', 00H, 'e', 00H, 'R', 00H, 'e', 00H, 'g', 00H, 'i', 00H, 's'
	DB	00H, 't', 00H, 'r', 00H, 'a', 00H, 'r', 00H, 00H, 00H
$SG224887 DB	'a', 00H, 't', 00H, 'l', 00H, 'T', 00H, 'r', 00H, 'a', 00H
	DB	'c', 00H, 'e', 00H, 'R', 00H, 'e', 00H, 'f', 00H, 'c', 00H, 'o'
	DB	00H, 'u', 00H, 'n', 00H, 't', 00H, 00H, 00H
	ORG $+2
$SG224934 DB	'a', 00H, 't', 00H, 'l', 00H, 'T', 00H, 'r', 00H, 'a', 00H
	DB	'c', 00H, 'e', 00H, 'W', 00H, 'i', 00H, 'n', 00H, 'd', 00H, 'o'
	DB	00H, 'w', 00H, 'i', 00H, 'n', 00H, 'g', 00H, 00H, 00H
$SG237248 DB	'A', 00H, 'p', 00H, 'p', 00H, 'I', 00H, 'D', 00H, 00H, 00H
$SG237249 DB	'C', 00H, 'L', 00H, 'S', 00H, 'I', 00H, 'D', 00H, 00H, 00H
$SG237250 DB	'C', 00H, 'o', 00H, 'm', 00H, 'p', 00H, 'o', 00H, 'n', 00H
	DB	'e', 00H, 'n', 00H, 't', 00H, ' ', 00H, 'C', 00H, 'a', 00H, 't'
	DB	00H, 'e', 00H, 'g', 00H, 'o', 00H, 'r', 00H, 'i', 00H, 'e', 00H
	DB	's', 00H, 00H, 00H
	ORG $+2
$SG237251 DB	'F', 00H, 'i', 00H, 'l', 00H, 'e', 00H, 'T', 00H, 'y', 00H
	DB	'p', 00H, 'e', 00H, 00H, 00H
	ORG $+2
$SG237252 DB	'I', 00H, 'n', 00H, 't', 00H, 'e', 00H, 'r', 00H, 'f', 00H
	DB	'a', 00H, 'c', 00H, 'e', 00H, 00H, 00H
$SG237253 DB	'H', 00H, 'a', 00H, 'r', 00H, 'd', 00H, 'w', 00H, 'a', 00H
	DB	'r', 00H, 'e', 00H, 00H, 00H
	ORG $+2
$SG237254 DB	'M', 00H, 'i', 00H, 'm', 00H, 'e', 00H, 00H, 00H
	ORG $+2
$SG237255 DB	'S', 00H, 'A', 00H, 'M', 00H, 00H, 00H
$SG237256 DB	'S', 00H, 'E', 00H, 'C', 00H, 'U', 00H, 'R', 00H, 'I', 00H
	DB	'T', 00H, 'Y', 00H, 00H, 00H
	ORG $+2
$SG237257 DB	'S', 00H, 'Y', 00H, 'S', 00H, 'T', 00H, 'E', 00H, 'M', 00H
	DB	00H, 00H
	ORG $+2
$SG237258 DB	'S', 00H, 'o', 00H, 'f', 00H, 't', 00H, 'w', 00H, 'a', 00H
	DB	'r', 00H, 'e', 00H, 00H, 00H
	ORG $+2
$SG237259 DB	'T', 00H, 'y', 00H, 'p', 00H, 'e', 00H, 'L', 00H, 'i', 00H
	DB	'b', 00H, 00H, 00H
$SG224981 DB	'a', 00H, 't', 00H, 'l', 00H, 'T', 00H, 'r', 00H, 'a', 00H
	DB	'c', 00H, 'e', 00H, 'C', 00H, 'o', 00H, 'n', 00H, 't', 00H, 'r'
	DB	00H, 'o', 00H, 'l', 00H, 's', 00H, 00H, 00H
	ORG $+2
$SG225028 DB	'a', 00H, 't', 00H, 'l', 00H, 'T', 00H, 'r', 00H, 'a', 00H
	DB	'c', 00H, 'e', 00H, 'H', 00H, 'o', 00H, 's', 00H, 't', 00H, 'i'
	DB	00H, 'n', 00H, 'g', 00H, 00H, 00H
$SG225075 DB	'a', 00H, 't', 00H, 'l', 00H, 'T', 00H, 'r', 00H, 'a', 00H
	DB	'c', 00H, 'e', 00H, 'D', 00H, 'B', 00H, 'C', 00H, 'l', 00H, 'i'
	DB	00H, 'e', 00H, 'n', 00H, 't', 00H, 00H, 00H
	ORG $+2
$SG225122 DB	'a', 00H, 't', 00H, 'l', 00H, 'T', 00H, 'r', 00H, 'a', 00H
	DB	'c', 00H, 'e', 00H, 'D', 00H, 'B', 00H, 'P', 00H, 'r', 00H, 'o'
	DB	00H, 'v', 00H, 'i', 00H, 'd', 00H, 'e', 00H, 'r', 00H, 00H, 00H
	ORG $+2
$SG225169 DB	'a', 00H, 't', 00H, 'l', 00H, 'T', 00H, 'r', 00H, 'a', 00H
	DB	'c', 00H, 'e', 00H, 'S', 00H, 'n', 00H, 'a', 00H, 'p', 00H, 'i'
	DB	00H, 'n', 00H, 00H, 00H
	ORG $+2
$SG225216 DB	'a', 00H, 't', 00H, 'l', 00H, 'T', 00H, 'r', 00H, 'a', 00H
	DB	'c', 00H, 'e', 00H, 'N', 00H, 'o', 00H, 't', 00H, 'I', 00H, 'm'
	DB	00H, 'p', 00H, 'l', 00H, 00H, 00H
$SG225263 DB	'a', 00H, 't', 00H, 'l', 00H, 'T', 00H, 'r', 00H, 'a', 00H
	DB	'c', 00H, 'e', 00H, 'A', 00H, 'l', 00H, 'l', 00H, 'o', 00H, 'c'
	DB	00H, 'a', 00H, 't', 00H, 'i', 00H, 'o', 00H, 'n', 00H, 00H, 00H
CONST	ENDS
;	COMDAT ?szStringVal@ATL@@3QB_WB
CONST	SEGMENT
?szStringVal@ATL@@3QB_WB DD FLAT:$SG236558		; ATL::szStringVal
CONST	ENDS
;	COMDAT ?chEquals@ATL@@3_WB
CONST	SEGMENT
?chEquals@ATL@@3_WB DW 03dH				; ATL::chEquals
CONST	ENDS
;	COMDAT ?chQuote@ATL@@3_WB
CONST	SEGMENT
?chQuote@ATL@@3_WB DW 027H				; ATL::chQuote
CONST	ENDS
;	COMDAT ?chLeftBracket@ATL@@3_WB
CONST	SEGMENT
?chLeftBracket@ATL@@3_WB DW 07bH			; ATL::chLeftBracket
CONST	ENDS
;	COMDAT ?chRightBracket@ATL@@3_WB
CONST	SEGMENT
?chRightBracket@ATL@@3_WB DW 07dH			; ATL::chRightBracket
CONST	ENDS
;	COMDAT ?chDirSep@ATL@@3_WB
CONST	SEGMENT
?chDirSep@ATL@@3_WB DW 05cH				; ATL::chDirSep
CONST	ENDS
PUBLIC	??_H@YGXPAXIIP6EPAX0@Z@Z			; `vector constructor iterator'
PUBLIC	?__empty_global_delete@@YAXPAX@Z		; __empty_global_delete
PUBLIC	?__empty_global_delete@@YAXPAXI@Z		; __empty_global_delete
PUBLIC	??A?$ImVector@UImDrawCmd@@@@QBEABUImDrawCmd@@H@Z ; ImVector<ImDrawCmd>::operator[]
PUBLIC	?ImGui_ImplDX11_Init@@YA_NPAUIDXGISwapChain@@PAUID3D11Device@@PAUID3D11DeviceContext@@@Z ; ImGui_ImplDX11_Init
PUBLIC	?ImGui_ImplDX11_Shutdown@@YAXXZ			; ImGui_ImplDX11_Shutdown
PUBLIC	?ImGui_ImplDX11_NewFrame@@YAXXZ			; ImGui_ImplDX11_NewFrame
PUBLIC	?ImGui_ImplDX11_InvalidateDeviceObjects@@YAXXZ	; ImGui_ImplDX11_InvalidateDeviceObjects
PUBLIC	?ImGui_ImplDX11_CreateDeviceObjects@@YA_NXZ	; ImGui_ImplDX11_CreateDeviceObjects
PUBLIC	_HRESULT_FROM_WIN32
PUBLIC	??2@YAPAXIPAX@Z					; operator new
PUBLIC	?_Orphan_all@_Container_base0@std@@QAEXXZ	; std::_Container_base0::_Orphan_all
PUBLIC	?_Adopt@_Iterator_base0@std@@QAEXPBX@Z		; std::_Iterator_base0::_Adopt
PUBLIC	?_Allocate@std@@YAPAXII_N@Z			; std::_Allocate
PUBLIC	?_Deallocate@std@@YAXPAXII@Z			; std::_Deallocate
PUBLIC	??0?$CTraceCategoryEx@$0IAAAA@$0A@@ATL@@QAE@PB_W@Z ; ATL::CTraceCategoryEx<524288,0>::CTraceCategoryEx<524288,0>
PUBLIC	??0?$CTraceCategoryEx@$00$0A@@ATL@@QAE@PB_W@Z	; ATL::CTraceCategoryEx<1,0>::CTraceCategoryEx<1,0>
PUBLIC	??0?$CTraceCategoryEx@$01$0A@@ATL@@QAE@PB_W@Z	; ATL::CTraceCategoryEx<2,0>::CTraceCategoryEx<2,0>
PUBLIC	??0?$CTraceCategoryEx@$03$0A@@ATL@@QAE@PB_W@Z	; ATL::CTraceCategoryEx<4,0>::CTraceCategoryEx<4,0>
PUBLIC	??0?$CTraceCategoryEx@$07$0A@@ATL@@QAE@PB_W@Z	; ATL::CTraceCategoryEx<8,0>::CTraceCategoryEx<8,0>
PUBLIC	??0?$CTraceCategoryEx@$0BA@$0A@@ATL@@QAE@PB_W@Z	; ATL::CTraceCategoryEx<16,0>::CTraceCategoryEx<16,0>
PUBLIC	??0?$CTraceCategoryEx@$0CA@$0A@@ATL@@QAE@PB_W@Z	; ATL::CTraceCategoryEx<32,0>::CTraceCategoryEx<32,0>
PUBLIC	??0?$CTraceCategoryEx@$0EA@$0A@@ATL@@QAE@PB_W@Z	; ATL::CTraceCategoryEx<64,0>::CTraceCategoryEx<64,0>
PUBLIC	??0?$CTraceCategoryEx@$0IA@$0A@@ATL@@QAE@PB_W@Z	; ATL::CTraceCategoryEx<128,0>::CTraceCategoryEx<128,0>
PUBLIC	??0?$CTraceCategoryEx@$0BAA@$0A@@ATL@@QAE@PB_W@Z ; ATL::CTraceCategoryEx<256,0>::CTraceCategoryEx<256,0>
PUBLIC	??0?$CTraceCategoryEx@$0CAA@$0A@@ATL@@QAE@PB_W@Z ; ATL::CTraceCategoryEx<512,0>::CTraceCategoryEx<512,0>
PUBLIC	??0?$CTraceCategoryEx@$0EAA@$0A@@ATL@@QAE@PB_W@Z ; ATL::CTraceCategoryEx<1024,0>::CTraceCategoryEx<1024,0>
PUBLIC	??0?$CTraceCategoryEx@$0IAA@$0A@@ATL@@QAE@PB_W@Z ; ATL::CTraceCategoryEx<2048,0>::CTraceCategoryEx<2048,0>
PUBLIC	??0?$CTraceCategoryEx@$0BAAA@$0A@@ATL@@QAE@PB_W@Z ; ATL::CTraceCategoryEx<4096,0>::CTraceCategoryEx<4096,0>
PUBLIC	??0?$CTraceCategoryEx@$0CAAA@$0A@@ATL@@QAE@PB_W@Z ; ATL::CTraceCategoryEx<8192,0>::CTraceCategoryEx<8192,0>
PUBLIC	??0?$CTraceCategoryEx@$0EAAA@$0A@@ATL@@QAE@PB_W@Z ; ATL::CTraceCategoryEx<16384,0>::CTraceCategoryEx<16384,0>
PUBLIC	??0?$CTraceCategoryEx@$0IAAA@$0A@@ATL@@QAE@PB_W@Z ; ATL::CTraceCategoryEx<32768,0>::CTraceCategoryEx<32768,0>
PUBLIC	??0?$CTraceCategoryEx@$0BAAAA@$0A@@ATL@@QAE@PB_W@Z ; ATL::CTraceCategoryEx<65536,0>::CTraceCategoryEx<65536,0>
PUBLIC	??0?$CTraceCategoryEx@$0CAAAA@$0A@@ATL@@QAE@PB_W@Z ; ATL::CTraceCategoryEx<131072,0>::CTraceCategoryEx<131072,0>
PUBLIC	??0?$CTraceCategoryEx@$0EAAAA@$0A@@ATL@@QAE@PB_W@Z ; ATL::CTraceCategoryEx<262144,0>::CTraceCategoryEx<262144,0>
PUBLIC	??0?$CTraceCategoryEx@$0BAAAAA@$0A@@ATL@@QAE@PB_W@Z ; ATL::CTraceCategoryEx<1048576,0>::CTraceCategoryEx<1048576,0>
PUBLIC	??0?$CTraceCategoryEx@$0CAAAAA@$0A@@ATL@@QAE@PB_W@Z ; ATL::CTraceCategoryEx<2097152,0>::CTraceCategoryEx<2097152,0>
PUBLIC	??0?$CTraceCategoryEx@$0EAAAAA@$0A@@ATL@@QAE@PB_W@Z ; ATL::CTraceCategoryEx<4194304,0>::CTraceCategoryEx<4194304,0>
PUBLIC	?_AtlRaiseException@ATL@@YAXKK@Z		; ATL::_AtlRaiseException
PUBLIC	?_AtlInitializeCriticalSectionEx@ATL@@YAHPAU_RTL_CRITICAL_SECTION@@KK@Z ; ATL::_AtlInitializeCriticalSectionEx
PUBLIC	??0CComCriticalSection@ATL@@QAE@XZ		; ATL::CComCriticalSection::CComCriticalSection
PUBLIC	??1CComCriticalSection@ATL@@QAE@XZ		; ATL::CComCriticalSection::~CComCriticalSection
PUBLIC	?Init@CComCriticalSection@ATL@@QAEJXZ		; ATL::CComCriticalSection::Init
PUBLIC	?Term@CComCriticalSection@ATL@@QAEJXZ		; ATL::CComCriticalSection::Term
PUBLIC	?GetModuleInstance@CAtlBaseModule@ATL@@QAEPAUHINSTANCE__@@XZ ; ATL::CAtlBaseModule::GetModuleInstance
PUBLIC	??0_ATL_COM_MODULE70@ATL@@QAE@XZ		; ATL::_ATL_COM_MODULE70::_ATL_COM_MODULE70
PUBLIC	??1_ATL_COM_MODULE70@ATL@@QAE@XZ		; ATL::_ATL_COM_MODULE70::~_ATL_COM_MODULE70
PUBLIC	??0?$CSimpleArray@GV?$CSimpleArrayEqualHelper@G@ATL@@@ATL@@QAE@XZ ; ATL::CSimpleArray<unsigned short,ATL::CSimpleArrayEqualHelper<unsigned short> >::CSimpleArray<unsigned short,ATL::CSimpleArrayEqualHelper<unsigned short> >
PUBLIC	??1?$CSimpleArray@GV?$CSimpleArrayEqualHelper@G@ATL@@@ATL@@QAE@XZ ; ATL::CSimpleArray<unsigned short,ATL::CSimpleArrayEqualHelper<unsigned short> >::~CSimpleArray<unsigned short,ATL::CSimpleArrayEqualHelper<unsigned short> >
PUBLIC	?GetSize@?$CSimpleArray@GV?$CSimpleArrayEqualHelper@G@ATL@@@ATL@@QBEHXZ ; ATL::CSimpleArray<unsigned short,ATL::CSimpleArrayEqualHelper<unsigned short> >::GetSize
PUBLIC	?RemoveAll@?$CSimpleArray@GV?$CSimpleArrayEqualHelper@G@ATL@@@ATL@@QAEXXZ ; ATL::CSimpleArray<unsigned short,ATL::CSimpleArrayEqualHelper<unsigned short> >::RemoveAll
PUBLIC	??A?$CSimpleArray@GV?$CSimpleArrayEqualHelper@G@ATL@@@ATL@@QAEAAGH@Z ; ATL::CSimpleArray<unsigned short,ATL::CSimpleArrayEqualHelper<unsigned short> >::operator[]
PUBLIC	??0_ATL_WIN_MODULE70@ATL@@QAE@XZ		; ATL::_ATL_WIN_MODULE70::_ATL_WIN_MODULE70
PUBLIC	??1_ATL_WIN_MODULE70@ATL@@QAE@XZ		; ATL::_ATL_WIN_MODULE70::~_ATL_WIN_MODULE70
PUBLIC	?AtlWinModuleInit@ATL@@YGJPAU_ATL_WIN_MODULE70@1@@Z ; ATL::AtlWinModuleInit
PUBLIC	?AtlWinModuleTerm@ATL@@YGJPAU_ATL_WIN_MODULE70@1@PAUHINSTANCE__@@@Z ; ATL::AtlWinModuleTerm
PUBLIC	??0CAtlComModule@ATL@@QAE@XZ			; ATL::CAtlComModule::CAtlComModule
PUBLIC	??1CAtlComModule@ATL@@QAE@XZ			; ATL::CAtlComModule::~CAtlComModule
PUBLIC	?Term@CAtlComModule@ATL@@QAEXXZ			; ATL::CAtlComModule::Term
PUBLIC	??0CAtlWinModule@ATL@@QAE@XZ			; ATL::CAtlWinModule::CAtlWinModule
PUBLIC	??1CAtlWinModule@ATL@@QAE@XZ			; ATL::CAtlWinModule::~CAtlWinModule
PUBLIC	?Term@CAtlWinModule@ATL@@QAEXXZ			; ATL::CAtlWinModule::Term
PUBLIC	??0SK_ScopedBool@@QAE@PAH@Z			; SK_ScopedBool::SK_ScopedBool
PUBLIC	??1SK_ScopedBool@@QAE@XZ			; SK_ScopedBool::~SK_ScopedBool
PUBLIC	?ImGui_ImplDX11_RenderDrawLists@@YAXPAUImDrawData@@@Z ; ImGui_ImplDX11_RenderDrawLists
PUBLIC	??0?$CComPtrBase@UIDXGISwapChain@@@ATL@@IAE@PAUIDXGISwapChain@@@Z ; ATL::CComPtrBase<IDXGISwapChain>::CComPtrBase<IDXGISwapChain>
PUBLIC	??1?$CComPtrBase@UIDXGISwapChain@@@ATL@@QAE@XZ	; ATL::CComPtrBase<IDXGISwapChain>::~CComPtrBase<IDXGISwapChain>
PUBLIC	??I?$CComPtrBase@UIDXGISwapChain@@@ATL@@QAEPAPAUIDXGISwapChain@@XZ ; ATL::CComPtrBase<IDXGISwapChain>::operator&
PUBLIC	??C?$CComPtrBase@UIDXGISwapChain@@@ATL@@QBEPAV?$_NoAddRefReleaseOnCComPtr@UIDXGISwapChain@@@1@XZ ; ATL::CComPtrBase<IDXGISwapChain>::operator->
PUBLIC	??0?$CComPtr@UIDXGISwapChain@@@ATL@@QAE@PAUIDXGISwapChain@@@Z ; ATL::CComPtr<IDXGISwapChain>::CComPtr<IDXGISwapChain>
PUBLIC	??1?$CComPtr@UIDXGISwapChain@@@ATL@@QAE@XZ	; ATL::CComPtr<IDXGISwapChain>::~CComPtr<IDXGISwapChain>
PUBLIC	??$QueryInterface@UIDXGISwapChain@@@IUnknown@@QAGJPAPAUIDXGISwapChain@@@Z ; IUnknown::QueryInterface<IDXGISwapChain>
PUBLIC	??0?$CComPtrBase@UID3D11Device@@@ATL@@IAE@PAUID3D11Device@@@Z ; ATL::CComPtrBase<ID3D11Device>::CComPtrBase<ID3D11Device>
PUBLIC	??1?$CComPtrBase@UID3D11Device@@@ATL@@QAE@XZ	; ATL::CComPtrBase<ID3D11Device>::~CComPtrBase<ID3D11Device>
PUBLIC	??I?$CComPtrBase@UID3D11Device@@@ATL@@QAEPAPAUID3D11Device@@XZ ; ATL::CComPtrBase<ID3D11Device>::operator&
PUBLIC	??C?$CComPtrBase@UID3D11Device@@@ATL@@QBEPAV?$_NoAddRefReleaseOnCComPtr@UID3D11Device@@@1@XZ ; ATL::CComPtrBase<ID3D11Device>::operator->
PUBLIC	??0?$CComPtr@UID3D11Device@@@ATL@@QAE@PAUID3D11Device@@@Z ; ATL::CComPtr<ID3D11Device>::CComPtr<ID3D11Device>
PUBLIC	??1?$CComPtr@UID3D11Device@@@ATL@@QAE@XZ	; ATL::CComPtr<ID3D11Device>::~CComPtr<ID3D11Device>
PUBLIC	??$QueryInterface@UID3D11Device@@@IUnknown@@QAGJPAPAUID3D11Device@@@Z ; IUnknown::QueryInterface<ID3D11Device>
PUBLIC	??0?$CComPtrBase@UID3D11DeviceContext@@@ATL@@IAE@PAUID3D11DeviceContext@@@Z ; ATL::CComPtrBase<ID3D11DeviceContext>::CComPtrBase<ID3D11DeviceContext>
PUBLIC	??1?$CComPtrBase@UID3D11DeviceContext@@@ATL@@QAE@XZ ; ATL::CComPtrBase<ID3D11DeviceContext>::~CComPtrBase<ID3D11DeviceContext>
PUBLIC	??I?$CComPtrBase@UID3D11DeviceContext@@@ATL@@QAEPAPAUID3D11DeviceContext@@XZ ; ATL::CComPtrBase<ID3D11DeviceContext>::operator&
PUBLIC	??C?$CComPtrBase@UID3D11DeviceContext@@@ATL@@QBEPAV?$_NoAddRefReleaseOnCComPtr@UID3D11DeviceContext@@@1@XZ ; ATL::CComPtrBase<ID3D11DeviceContext>::operator->
PUBLIC	??0?$CComPtr@UID3D11DeviceContext@@@ATL@@QAE@PAUID3D11DeviceContext@@@Z ; ATL::CComPtr<ID3D11DeviceContext>::CComPtr<ID3D11DeviceContext>
PUBLIC	??1?$CComPtr@UID3D11DeviceContext@@@ATL@@QAE@XZ	; ATL::CComPtr<ID3D11DeviceContext>::~CComPtr<ID3D11DeviceContext>
PUBLIC	??$QueryInterface@UID3D11DeviceContext@@@IUnknown@@QAGJPAPAUID3D11DeviceContext@@@Z ; IUnknown::QueryInterface<ID3D11DeviceContext>
PUBLIC	??0?$CComPtrBase@UID3D11Texture2D@@@ATL@@IAE@PAUID3D11Texture2D@@@Z ; ATL::CComPtrBase<ID3D11Texture2D>::CComPtrBase<ID3D11Texture2D>
PUBLIC	??1?$CComPtrBase@UID3D11Texture2D@@@ATL@@QAE@XZ	; ATL::CComPtrBase<ID3D11Texture2D>::~CComPtrBase<ID3D11Texture2D>
PUBLIC	??B?$CComPtrBase@UID3D11Texture2D@@@ATL@@QBEPAUID3D11Texture2D@@XZ ; ATL::CComPtrBase<ID3D11Texture2D>::operator ID3D11Texture2D *
PUBLIC	??I?$CComPtrBase@UID3D11Texture2D@@@ATL@@QAEPAPAUID3D11Texture2D@@XZ ; ATL::CComPtrBase<ID3D11Texture2D>::operator&
PUBLIC	??C?$CComPtrBase@UID3D11Texture2D@@@ATL@@QBEPAV?$_NoAddRefReleaseOnCComPtr@UID3D11Texture2D@@@1@XZ ; ATL::CComPtrBase<ID3D11Texture2D>::operator->
PUBLIC	??0?$CComPtr@UID3D11Texture2D@@@ATL@@QAE@PAUID3D11Texture2D@@@Z ; ATL::CComPtr<ID3D11Texture2D>::CComPtr<ID3D11Texture2D>
PUBLIC	??1?$CComPtr@UID3D11Texture2D@@@ATL@@QAE@XZ	; ATL::CComPtr<ID3D11Texture2D>::~CComPtr<ID3D11Texture2D>
PUBLIC	??$IID_PPV_ARGS_Helper@UID3D11Texture2D@@@@YAPAPAXPAPAUID3D11Texture2D@@@Z ; IID_PPV_ARGS_Helper<ID3D11Texture2D>
PUBLIC	??0?$CComPtrBase@UID3D11RenderTargetView@@@ATL@@IAE@PAUID3D11RenderTargetView@@@Z ; ATL::CComPtrBase<ID3D11RenderTargetView>::CComPtrBase<ID3D11RenderTargetView>
PUBLIC	??1?$CComPtrBase@UID3D11RenderTargetView@@@ATL@@QAE@XZ ; ATL::CComPtrBase<ID3D11RenderTargetView>::~CComPtrBase<ID3D11RenderTargetView>
PUBLIC	??I?$CComPtrBase@UID3D11RenderTargetView@@@ATL@@QAEPAPAUID3D11RenderTargetView@@XZ ; ATL::CComPtrBase<ID3D11RenderTargetView>::operator&
PUBLIC	??0?$CComPtr@UID3D11RenderTargetView@@@ATL@@QAE@PAUID3D11RenderTargetView@@@Z ; ATL::CComPtr<ID3D11RenderTargetView>::CComPtr<ID3D11RenderTargetView>
PUBLIC	??1?$CComPtr@UID3D11RenderTargetView@@@ATL@@QAE@XZ ; ATL::CComPtr<ID3D11RenderTargetView>::~CComPtr<ID3D11RenderTargetView>
PUBLIC	??0?$allocator@PAUIUnknown@@@std@@QAE@XZ	; std::allocator<IUnknown *>::allocator<IUnknown *>
PUBLIC	?deallocate@?$allocator@PAUIUnknown@@@std@@QAEXPAPAUIUnknown@@I@Z ; std::allocator<IUnknown *>::deallocate
PUBLIC	?allocate@?$allocator@PAUIUnknown@@@std@@QAEPAPAUIUnknown@@I@Z ; std::allocator<IUnknown *>::allocate
PUBLIC	?max_size@?$allocator@PAUIUnknown@@@std@@QBEIXZ	; std::allocator<IUnknown *>::max_size
PUBLIC	?max_size@?$allocator_traits@V?$allocator@PAUIUnknown@@@std@@@std@@SAIABV?$allocator@PAUIUnknown@@@2@@Z ; std::allocator_traits<std::allocator<IUnknown *> >::max_size
PUBLIC	??0?$_Wrap_alloc@V?$allocator@PAUIUnknown@@@std@@@std@@QAE@XZ ; std::_Wrap_alloc<std::allocator<IUnknown *> >::_Wrap_alloc<std::allocator<IUnknown *> >
PUBLIC	?allocate@?$_Wrap_alloc@V?$allocator@PAUIUnknown@@@std@@@std@@QAEPAPAUIUnknown@@I@Z ; std::_Wrap_alloc<std::allocator<IUnknown *> >::allocate
PUBLIC	?deallocate@?$_Wrap_alloc@V?$allocator@PAUIUnknown@@@std@@@std@@QAEXPAPAUIUnknown@@I@Z ; std::_Wrap_alloc<std::allocator<IUnknown *> >::deallocate
PUBLIC	?max_size@?$_Wrap_alloc@V?$allocator@PAUIUnknown@@@std@@@std@@QBEIU_Nil@2@@Z ; std::_Wrap_alloc<std::allocator<IUnknown *> >::max_size
PUBLIC	??0?$_Vector_alloc@U?$_Vec_base_types@PAUIUnknown@@V?$allocator@PAUIUnknown@@@std@@@std@@@std@@QAE@XZ ; std::_Vector_alloc<std::_Vec_base_types<IUnknown *,std::allocator<IUnknown *> > >::_Vector_alloc<std::_Vec_base_types<IUnknown *,std::allocator<IUnknown *> > >
PUBLIC	?_Orphan_all@?$_Vector_alloc@U?$_Vec_base_types@PAUIUnknown@@V?$allocator@PAUIUnknown@@@std@@@std@@@std@@QAEXXZ ; std::_Vector_alloc<std::_Vec_base_types<IUnknown *,std::allocator<IUnknown *> > >::_Orphan_all
PUBLIC	?_Getal@?$_Vector_alloc@U?$_Vec_base_types@PAUIUnknown@@V?$allocator@PAUIUnknown@@@std@@@std@@@std@@QAEAAU?$_Wrap_alloc@V?$allocator@PAUIUnknown@@@std@@@2@XZ ; std::_Vector_alloc<std::_Vec_base_types<IUnknown *,std::allocator<IUnknown *> > >::_Getal
PUBLIC	?_Getal@?$_Vector_alloc@U?$_Vec_base_types@PAUIUnknown@@V?$allocator@PAUIUnknown@@@std@@@std@@@std@@QBEABU?$_Wrap_alloc@V?$allocator@PAUIUnknown@@@std@@@2@XZ ; std::_Vector_alloc<std::_Vec_base_types<IUnknown *,std::allocator<IUnknown *> > >::_Getal
PUBLIC	?_Get_data@?$_Vector_alloc@U?$_Vec_base_types@PAUIUnknown@@V?$allocator@PAUIUnknown@@@std@@@std@@@std@@QAEAAV?$_Vector_val@U?$_Simple_types@PAUIUnknown@@@std@@@2@XZ ; std::_Vector_alloc<std::_Vec_base_types<IUnknown *,std::allocator<IUnknown *> > >::_Get_data
PUBLIC	?_Get_data@?$_Vector_alloc@U?$_Vec_base_types@PAUIUnknown@@V?$allocator@PAUIUnknown@@@std@@@std@@@std@@QBEABV?$_Vector_val@U?$_Simple_types@PAUIUnknown@@@std@@@2@XZ ; std::_Vector_alloc<std::_Vec_base_types<IUnknown *,std::allocator<IUnknown *> > >::_Get_data
PUBLIC	?_Myfirst@?$_Vector_alloc@U?$_Vec_base_types@PAUIUnknown@@V?$allocator@PAUIUnknown@@@std@@@std@@@std@@QAEAAPAPAUIUnknown@@XZ ; std::_Vector_alloc<std::_Vec_base_types<IUnknown *,std::allocator<IUnknown *> > >::_Myfirst
PUBLIC	?_Myfirst@?$_Vector_alloc@U?$_Vec_base_types@PAUIUnknown@@V?$allocator@PAUIUnknown@@@std@@@std@@@std@@QBEABQAPAUIUnknown@@XZ ; std::_Vector_alloc<std::_Vec_base_types<IUnknown *,std::allocator<IUnknown *> > >::_Myfirst
PUBLIC	?_Mylast@?$_Vector_alloc@U?$_Vec_base_types@PAUIUnknown@@V?$allocator@PAUIUnknown@@@std@@@std@@@std@@QAEAAPAPAUIUnknown@@XZ ; std::_Vector_alloc<std::_Vec_base_types<IUnknown *,std::allocator<IUnknown *> > >::_Mylast
PUBLIC	?_Mylast@?$_Vector_alloc@U?$_Vec_base_types@PAUIUnknown@@V?$allocator@PAUIUnknown@@@std@@@std@@@std@@QBEABQAPAUIUnknown@@XZ ; std::_Vector_alloc<std::_Vec_base_types<IUnknown *,std::allocator<IUnknown *> > >::_Mylast
PUBLIC	?_Myend@?$_Vector_alloc@U?$_Vec_base_types@PAUIUnknown@@V?$allocator@PAUIUnknown@@@std@@@std@@@std@@QAEAAPAPAUIUnknown@@XZ ; std::_Vector_alloc<std::_Vec_base_types<IUnknown *,std::allocator<IUnknown *> > >::_Myend
PUBLIC	?_Myend@?$_Vector_alloc@U?$_Vec_base_types@PAUIUnknown@@V?$allocator@PAUIUnknown@@@std@@@std@@@std@@QBEABQAPAUIUnknown@@XZ ; std::_Vector_alloc<std::_Vec_base_types<IUnknown *,std::allocator<IUnknown *> > >::_Myend
PUBLIC	??0?$_Vector_val@U?$_Simple_types@PAUIUnknown@@@std@@@std@@QAE@XZ ; std::_Vector_val<std::_Simple_types<IUnknown *> >::_Vector_val<std::_Simple_types<IUnknown *> >
PUBLIC	?_Get_first@?$_Compressed_pair@U?$_Wrap_alloc@V?$allocator@PAUIUnknown@@@std@@@std@@V?$_Vector_val@U?$_Simple_types@PAUIUnknown@@@std@@@2@$00@std@@QAEAAU?$_Wrap_alloc@V?$allocator@PAUIUnknown@@@std@@@2@XZ ; std::_Compressed_pair<std::_Wrap_alloc<std::allocator<IUnknown *> >,std::_Vector_val<std::_Simple_types<IUnknown *> >,1>::_Get_first
PUBLIC	?_Get_first@?$_Compressed_pair@U?$_Wrap_alloc@V?$allocator@PAUIUnknown@@@std@@@std@@V?$_Vector_val@U?$_Simple_types@PAUIUnknown@@@std@@@2@$00@std@@QBEABU?$_Wrap_alloc@V?$allocator@PAUIUnknown@@@std@@@2@XZ ; std::_Compressed_pair<std::_Wrap_alloc<std::allocator<IUnknown *> >,std::_Vector_val<std::_Simple_types<IUnknown *> >,1>::_Get_first
PUBLIC	?_Get_second@?$_Compressed_pair@U?$_Wrap_alloc@V?$allocator@PAUIUnknown@@@std@@@std@@V?$_Vector_val@U?$_Simple_types@PAUIUnknown@@@std@@@2@$00@std@@QAEAAV?$_Vector_val@U?$_Simple_types@PAUIUnknown@@@std@@@2@XZ ; std::_Compressed_pair<std::_Wrap_alloc<std::allocator<IUnknown *> >,std::_Vector_val<std::_Simple_types<IUnknown *> >,1>::_Get_second
PUBLIC	?_Get_second@?$_Compressed_pair@U?$_Wrap_alloc@V?$allocator@PAUIUnknown@@@std@@@std@@V?$_Vector_val@U?$_Simple_types@PAUIUnknown@@@std@@@2@$00@std@@QBEABV?$_Vector_val@U?$_Simple_types@PAUIUnknown@@@std@@@2@XZ ; std::_Compressed_pair<std::_Wrap_alloc<std::allocator<IUnknown *> >,std::_Vector_val<std::_Simple_types<IUnknown *> >,1>::_Get_second
PUBLIC	??0?$vector@PAUIUnknown@@V?$allocator@PAUIUnknown@@@std@@@std@@QAE@XZ ; std::vector<IUnknown *,std::allocator<IUnknown *> >::vector<IUnknown *,std::allocator<IUnknown *> >
PUBLIC	??1?$vector@PAUIUnknown@@V?$allocator@PAUIUnknown@@@std@@@std@@QAE@XZ ; std::vector<IUnknown *,std::allocator<IUnknown *> >::~vector<IUnknown *,std::allocator<IUnknown *> >
PUBLIC	?push_back@?$vector@PAUIUnknown@@V?$allocator@PAUIUnknown@@@std@@@std@@QAEXABQAUIUnknown@@@Z ; std::vector<IUnknown *,std::allocator<IUnknown *> >::push_back
PUBLIC	?clear@?$vector@PAUIUnknown@@V?$allocator@PAUIUnknown@@@std@@@std@@QAEXXZ ; std::vector<IUnknown *,std::allocator<IUnknown *> >::clear
PUBLIC	?begin@?$vector@PAUIUnknown@@V?$allocator@PAUIUnknown@@@std@@@std@@QAE?AV?$_Vector_iterator@V?$_Vector_val@U?$_Simple_types@PAUIUnknown@@@std@@@std@@@2@XZ ; std::vector<IUnknown *,std::allocator<IUnknown *> >::begin
PUBLIC	?end@?$vector@PAUIUnknown@@V?$allocator@PAUIUnknown@@@std@@@std@@QAE?AV?$_Vector_iterator@V?$_Vector_val@U?$_Simple_types@PAUIUnknown@@@std@@@std@@@2@XZ ; std::vector<IUnknown *,std::allocator<IUnknown *> >::end
PUBLIC	?size@?$vector@PAUIUnknown@@V?$allocator@PAUIUnknown@@@std@@@std@@QBEIXZ ; std::vector<IUnknown *,std::allocator<IUnknown *> >::size
PUBLIC	?max_size@?$vector@PAUIUnknown@@V?$allocator@PAUIUnknown@@@std@@@std@@QBEIXZ ; std::vector<IUnknown *,std::allocator<IUnknown *> >::max_size
PUBLIC	?capacity@?$vector@PAUIUnknown@@V?$allocator@PAUIUnknown@@@std@@@std@@QBEIXZ ; std::vector<IUnknown *,std::allocator<IUnknown *> >::capacity
PUBLIC	?_Has_unused_capacity@?$vector@PAUIUnknown@@V?$allocator@PAUIUnknown@@@std@@@std@@ABE_NXZ ; std::vector<IUnknown *,std::allocator<IUnknown *> >::_Has_unused_capacity
PUBLIC	?_Umove_if_noexcept1@?$vector@PAUIUnknown@@V?$allocator@PAUIUnknown@@@std@@@std@@AAEXPAPAUIUnknown@@00U?$integral_constant@_N$00@2@@Z ; std::vector<IUnknown *,std::allocator<IUnknown *> >::_Umove_if_noexcept1
PUBLIC	?_Umove_if_noexcept@?$vector@PAUIUnknown@@V?$allocator@PAUIUnknown@@@std@@@std@@AAEXPAPAUIUnknown@@00@Z ; std::vector<IUnknown *,std::allocator<IUnknown *> >::_Umove_if_noexcept
PUBLIC	?_Destroy@?$vector@PAUIUnknown@@V?$allocator@PAUIUnknown@@@std@@@std@@AAEXPAPAUIUnknown@@0@Z ; std::vector<IUnknown *,std::allocator<IUnknown *> >::_Destroy
PUBLIC	?_Calculate_growth@?$vector@PAUIUnknown@@V?$allocator@PAUIUnknown@@@std@@@std@@ABEII@Z ; std::vector<IUnknown *,std::allocator<IUnknown *> >::_Calculate_growth
PUBLIC	?_Change_array@?$vector@PAUIUnknown@@V?$allocator@PAUIUnknown@@@std@@@std@@AAEXQAPAUIUnknown@@II@Z ; std::vector<IUnknown *,std::allocator<IUnknown *> >::_Change_array
PUBLIC	?_Tidy@?$vector@PAUIUnknown@@V?$allocator@PAUIUnknown@@@std@@@std@@AAEXXZ ; std::vector<IUnknown *,std::allocator<IUnknown *> >::_Tidy
PUBLIC	?_Xlength@?$vector@PAUIUnknown@@V?$allocator@PAUIUnknown@@@std@@@std@@CAXXZ ; std::vector<IUnknown *,std::allocator<IUnknown *> >::_Xlength
PUBLIC	?_Orphan_range@?$vector@PAUIUnknown@@V?$allocator@PAUIUnknown@@@std@@@std@@ABEXPAPAUIUnknown@@0@Z ; std::vector<IUnknown *,std::allocator<IUnknown *> >::_Orphan_range
PUBLIC	?_Kfn@?$_Tset_traits@P6GXXZU?$less@P6GXXZ@std@@V?$allocator@P6GXXZ@2@$0A@@std@@SAABQ6GXXZABQ6GXXZ@Z ; std::_Tset_traits<void (__stdcall*)(void),std::less<void (__stdcall*)(void)>,std::allocator<void (__stdcall*)(void)>,0>::_Kfn
PUBLIC	??0?$allocator@U?$_Tree_node@P6GXXZPAX@std@@@std@@QAE@XZ ; std::allocator<std::_Tree_node<void (__stdcall*)(void),void *> >::allocator<std::_Tree_node<void (__stdcall*)(void),void *> >
PUBLIC	?deallocate@?$allocator@U?$_Tree_node@P6GXXZPAX@std@@@std@@QAEXPAU?$_Tree_node@P6GXXZPAX@2@I@Z ; std::allocator<std::_Tree_node<void (__stdcall*)(void),void *> >::deallocate
PUBLIC	?allocate@?$allocator@U?$_Tree_node@P6GXXZPAX@std@@@std@@QAEPAU?$_Tree_node@P6GXXZPAX@2@I@Z ; std::allocator<std::_Tree_node<void (__stdcall*)(void),void *> >::allocate
PUBLIC	?max_size@?$allocator@U?$_Tree_node@P6GXXZPAX@std@@@std@@QBEIXZ ; std::allocator<std::_Tree_node<void (__stdcall*)(void),void *> >::max_size
PUBLIC	?max_size@?$allocator_traits@V?$allocator@U?$_Tree_node@P6GXXZPAX@std@@@std@@@std@@SAIABV?$allocator@U?$_Tree_node@P6GXXZPAX@std@@@2@@Z ; std::allocator_traits<std::allocator<std::_Tree_node<void (__stdcall*)(void),void *> > >::max_size
PUBLIC	??0?$_Wrap_alloc@V?$allocator@U?$_Tree_node@P6GXXZPAX@std@@@std@@@std@@QAE@XZ ; std::_Wrap_alloc<std::allocator<std::_Tree_node<void (__stdcall*)(void),void *> > >::_Wrap_alloc<std::allocator<std::_Tree_node<void (__stdcall*)(void),void *> > >
PUBLIC	?allocate@?$_Wrap_alloc@V?$allocator@U?$_Tree_node@P6GXXZPAX@std@@@std@@@std@@QAEPAU?$_Tree_node@P6GXXZPAX@2@I@Z ; std::_Wrap_alloc<std::allocator<std::_Tree_node<void (__stdcall*)(void),void *> > >::allocate
PUBLIC	?deallocate@?$_Wrap_alloc@V?$allocator@U?$_Tree_node@P6GXXZPAX@std@@@std@@@std@@QAEXPAU?$_Tree_node@P6GXXZPAX@2@I@Z ; std::_Wrap_alloc<std::allocator<std::_Tree_node<void (__stdcall*)(void),void *> > >::deallocate
PUBLIC	?max_size@?$_Wrap_alloc@V?$allocator@U?$_Tree_node@P6GXXZPAX@std@@@std@@@std@@QBEIU_Nil@2@@Z ; std::_Wrap_alloc<std::allocator<std::_Tree_node<void (__stdcall*)(void),void *> > >::max_size
PUBLIC	?_Color@?$_Tree_comp_alloc@V?$_Tset_traits@P6GXXZU?$less@P6GXXZ@std@@V?$allocator@P6GXXZ@2@$0A@@std@@@std@@SAAADPAU?$_Tree_node@P6GXXZPAX@2@@Z ; std::_Tree_comp_alloc<std::_Tset_traits<void (__stdcall*)(void),std::less<void (__stdcall*)(void)>,std::allocator<void (__stdcall*)(void)>,0> >::_Color
PUBLIC	?_Isnil@?$_Tree_comp_alloc@V?$_Tset_traits@P6GXXZU?$less@P6GXXZ@std@@V?$allocator@P6GXXZ@2@$0A@@std@@@std@@SAAADPAU?$_Tree_node@P6GXXZPAX@2@@Z ; std::_Tree_comp_alloc<std::_Tset_traits<void (__stdcall*)(void),std::less<void (__stdcall*)(void)>,std::allocator<void (__stdcall*)(void)>,0> >::_Isnil
PUBLIC	?_Left@?$_Tree_comp_alloc@V?$_Tset_traits@P6GXXZU?$less@P6GXXZ@std@@V?$allocator@P6GXXZ@2@$0A@@std@@@std@@SAAAPAU?$_Tree_node@P6GXXZPAX@2@PAU32@@Z ; std::_Tree_comp_alloc<std::_Tset_traits<void (__stdcall*)(void),std::less<void (__stdcall*)(void)>,std::allocator<void (__stdcall*)(void)>,0> >::_Left
PUBLIC	?_Parent@?$_Tree_comp_alloc@V?$_Tset_traits@P6GXXZU?$less@P6GXXZ@std@@V?$allocator@P6GXXZ@2@$0A@@std@@@std@@SAAAPAU?$_Tree_node@P6GXXZPAX@2@PAU32@@Z ; std::_Tree_comp_alloc<std::_Tset_traits<void (__stdcall*)(void),std::less<void (__stdcall*)(void)>,std::allocator<void (__stdcall*)(void)>,0> >::_Parent
PUBLIC	?_Right@?$_Tree_comp_alloc@V?$_Tset_traits@P6GXXZU?$less@P6GXXZ@std@@V?$allocator@P6GXXZ@2@$0A@@std@@@std@@SAAAPAU?$_Tree_node@P6GXXZPAX@2@PAU32@@Z ; std::_Tree_comp_alloc<std::_Tset_traits<void (__stdcall*)(void),std::less<void (__stdcall*)(void)>,std::allocator<void (__stdcall*)(void)>,0> >::_Right
PUBLIC	?_Myval@?$_Tree_comp_alloc@V?$_Tset_traits@P6GXXZU?$less@P6GXXZ@std@@V?$allocator@P6GXXZ@2@$0A@@std@@@std@@SAAAP6GXXZPAU?$_Tree_node@P6GXXZPAX@2@@Z ; std::_Tree_comp_alloc<std::_Tset_traits<void (__stdcall*)(void),std::less<void (__stdcall*)(void)>,std::allocator<void (__stdcall*)(void)>,0> >::_Myval
PUBLIC	?_Max@?$_Tree_comp_alloc@V?$_Tset_traits@P6GXXZU?$less@P6GXXZ@std@@V?$allocator@P6GXXZ@2@$0A@@std@@@std@@SAPAU?$_Tree_node@P6GXXZPAX@2@PAU32@@Z ; std::_Tree_comp_alloc<std::_Tset_traits<void (__stdcall*)(void),std::less<void (__stdcall*)(void)>,std::allocator<void (__stdcall*)(void)>,0> >::_Max
PUBLIC	?_Min@?$_Tree_comp_alloc@V?$_Tset_traits@P6GXXZU?$less@P6GXXZ@std@@V?$allocator@P6GXXZ@2@$0A@@std@@@std@@SAPAU?$_Tree_node@P6GXXZPAX@2@PAU32@@Z ; std::_Tree_comp_alloc<std::_Tset_traits<void (__stdcall*)(void),std::less<void (__stdcall*)(void)>,std::allocator<void (__stdcall*)(void)>,0> >::_Min
PUBLIC	??0?$_Tree_comp_alloc@V?$_Tset_traits@P6GXXZU?$less@P6GXXZ@std@@V?$allocator@P6GXXZ@2@$0A@@std@@@std@@QAE@ABU?$less@P6GXXZ@1@@Z ; std::_Tree_comp_alloc<std::_Tset_traits<void (__stdcall*)(void),std::less<void (__stdcall*)(void)>,std::allocator<void (__stdcall*)(void)>,0> >::_Tree_comp_alloc<std::_Tset_traits<void (__stdcall*)(void),std::less<void (__stdcall*)(void)>,std::allocator<void (__stdcall*)(void)>,0> >
PUBLIC	?_Construct@?$_Tree_comp_alloc@V?$_Tset_traits@P6GXXZU?$less@P6GXXZ@std@@V?$allocator@P6GXXZ@2@$0A@@std@@@std@@QAEXXZ ; std::_Tree_comp_alloc<std::_Tset_traits<void (__stdcall*)(void),std::less<void (__stdcall*)(void)>,std::allocator<void (__stdcall*)(void)>,0> >::_Construct
PUBLIC	??1?$_Tree_comp_alloc@V?$_Tset_traits@P6GXXZU?$less@P6GXXZ@std@@V?$allocator@P6GXXZ@2@$0A@@std@@@std@@QAE@XZ ; std::_Tree_comp_alloc<std::_Tset_traits<void (__stdcall*)(void),std::less<void (__stdcall*)(void)>,std::allocator<void (__stdcall*)(void)>,0> >::~_Tree_comp_alloc<std::_Tset_traits<void (__stdcall*)(void),std::less<void (__stdcall*)(void)>,std::allocator<void (__stdcall*)(void)>,0> >
PUBLIC	?_Buyheadnode@?$_Tree_comp_alloc@V?$_Tset_traits@P6GXXZU?$less@P6GXXZ@std@@V?$allocator@P6GXXZ@2@$0A@@std@@@std@@QAEPAU?$_Tree_node@P6GXXZPAX@2@XZ ; std::_Tree_comp_alloc<std::_Tset_traits<void (__stdcall*)(void),std::less<void (__stdcall*)(void)>,std::allocator<void (__stdcall*)(void)>,0> >::_Buyheadnode
PUBLIC	?_Freeheadnode@?$_Tree_comp_alloc@V?$_Tset_traits@P6GXXZU?$less@P6GXXZ@std@@V?$allocator@P6GXXZ@2@$0A@@std@@@std@@QAEXPAU?$_Tree_node@P6GXXZPAX@2@@Z ; std::_Tree_comp_alloc<std::_Tset_traits<void (__stdcall*)(void),std::less<void (__stdcall*)(void)>,std::allocator<void (__stdcall*)(void)>,0> >::_Freeheadnode
PUBLIC	?_Buynode0@?$_Tree_comp_alloc@V?$_Tset_traits@P6GXXZU?$less@P6GXXZ@std@@V?$allocator@P6GXXZ@2@$0A@@std@@@std@@QAEPAU?$_Tree_node@P6GXXZPAX@2@XZ ; std::_Tree_comp_alloc<std::_Tset_traits<void (__stdcall*)(void),std::less<void (__stdcall*)(void)>,std::allocator<void (__stdcall*)(void)>,0> >::_Buynode0
PUBLIC	?_Freenode0@?$_Tree_comp_alloc@V?$_Tset_traits@P6GXXZU?$less@P6GXXZ@std@@V?$allocator@P6GXXZ@2@$0A@@std@@@std@@QAEXPAU?$_Tree_node@P6GXXZPAX@2@@Z ; std::_Tree_comp_alloc<std::_Tset_traits<void (__stdcall*)(void),std::less<void (__stdcall*)(void)>,std::allocator<void (__stdcall*)(void)>,0> >::_Freenode0
PUBLIC	?_Getcomp@?$_Tree_comp_alloc@V?$_Tset_traits@P6GXXZU?$less@P6GXXZ@std@@V?$allocator@P6GXXZ@2@$0A@@std@@@std@@QAEAAU?$less@P6GXXZ@2@XZ ; std::_Tree_comp_alloc<std::_Tset_traits<void (__stdcall*)(void),std::less<void (__stdcall*)(void)>,std::allocator<void (__stdcall*)(void)>,0> >::_Getcomp
PUBLIC	?_Getcomp@?$_Tree_comp_alloc@V?$_Tset_traits@P6GXXZU?$less@P6GXXZ@std@@V?$allocator@P6GXXZ@2@$0A@@std@@@std@@QBEABU?$less@P6GXXZ@2@XZ ; std::_Tree_comp_alloc<std::_Tset_traits<void (__stdcall*)(void),std::less<void (__stdcall*)(void)>,std::allocator<void (__stdcall*)(void)>,0> >::_Getcomp
PUBLIC	?_Getal@?$_Tree_comp_alloc@V?$_Tset_traits@P6GXXZU?$less@P6GXXZ@std@@V?$allocator@P6GXXZ@2@$0A@@std@@@std@@QAEAAU?$_Wrap_alloc@V?$allocator@U?$_Tree_node@P6GXXZPAX@std@@@std@@@2@XZ ; std::_Tree_comp_alloc<std::_Tset_traits<void (__stdcall*)(void),std::less<void (__stdcall*)(void)>,std::allocator<void (__stdcall*)(void)>,0> >::_Getal
PUBLIC	?_Getal@?$_Tree_comp_alloc@V?$_Tset_traits@P6GXXZU?$less@P6GXXZ@std@@V?$allocator@P6GXXZ@2@$0A@@std@@@std@@QBEABU?$_Wrap_alloc@V?$allocator@U?$_Tree_node@P6GXXZPAX@std@@@std@@@2@XZ ; std::_Tree_comp_alloc<std::_Tset_traits<void (__stdcall*)(void),std::less<void (__stdcall*)(void)>,std::allocator<void (__stdcall*)(void)>,0> >::_Getal
PUBLIC	?_Get_data@?$_Tree_comp_alloc@V?$_Tset_traits@P6GXXZU?$less@P6GXXZ@std@@V?$allocator@P6GXXZ@2@$0A@@std@@@std@@QAEAAV?$_Tree_val@U?$_Tree_simple_types@P6GXXZ@std@@@2@XZ ; std::_Tree_comp_alloc<std::_Tset_traits<void (__stdcall*)(void),std::less<void (__stdcall*)(void)>,std::allocator<void (__stdcall*)(void)>,0> >::_Get_data
PUBLIC	?_Get_data@?$_Tree_comp_alloc@V?$_Tset_traits@P6GXXZU?$less@P6GXXZ@std@@V?$allocator@P6GXXZ@2@$0A@@std@@@std@@QBEABV?$_Tree_val@U?$_Tree_simple_types@P6GXXZ@std@@@2@XZ ; std::_Tree_comp_alloc<std::_Tset_traits<void (__stdcall*)(void),std::less<void (__stdcall*)(void)>,std::allocator<void (__stdcall*)(void)>,0> >::_Get_data
PUBLIC	?_Myhead@?$_Tree_comp_alloc@V?$_Tset_traits@P6GXXZU?$less@P6GXXZ@std@@V?$allocator@P6GXXZ@2@$0A@@std@@@std@@QAEAAPAU?$_Tree_node@P6GXXZPAX@2@XZ ; std::_Tree_comp_alloc<std::_Tset_traits<void (__stdcall*)(void),std::less<void (__stdcall*)(void)>,std::allocator<void (__stdcall*)(void)>,0> >::_Myhead
PUBLIC	?_Myhead@?$_Tree_comp_alloc@V?$_Tset_traits@P6GXXZU?$less@P6GXXZ@std@@V?$allocator@P6GXXZ@2@$0A@@std@@@std@@QBEABQAU?$_Tree_node@P6GXXZPAX@2@XZ ; std::_Tree_comp_alloc<std::_Tset_traits<void (__stdcall*)(void),std::less<void (__stdcall*)(void)>,std::allocator<void (__stdcall*)(void)>,0> >::_Myhead
PUBLIC	?_Mysize@?$_Tree_comp_alloc@V?$_Tset_traits@P6GXXZU?$less@P6GXXZ@std@@V?$allocator@P6GXXZ@2@$0A@@std@@@std@@QAEAAIXZ ; std::_Tree_comp_alloc<std::_Tset_traits<void (__stdcall*)(void),std::less<void (__stdcall*)(void)>,std::allocator<void (__stdcall*)(void)>,0> >::_Mysize
PUBLIC	??R?$less@P6GXXZ@std@@QBE_NABQ6GXXZ0@Z		; std::less<void (__stdcall*)(void)>::operator()
PUBLIC	??0?$_Tree_val@U?$_Tree_simple_types@P6GXXZ@std@@@std@@QAE@XZ ; std::_Tree_val<std::_Tree_simple_types<void (__stdcall*)(void)> >::_Tree_val<std::_Tree_simple_types<void (__stdcall*)(void)> >
PUBLIC	?_Color@?$_Tree_val@U?$_Tree_simple_types@P6GXXZ@std@@@std@@SAAADPAU?$_Tree_node@P6GXXZPAX@2@@Z ; std::_Tree_val<std::_Tree_simple_types<void (__stdcall*)(void)> >::_Color
PUBLIC	?_Isnil@?$_Tree_val@U?$_Tree_simple_types@P6GXXZ@std@@@std@@SAAADPAU?$_Tree_node@P6GXXZPAX@2@@Z ; std::_Tree_val<std::_Tree_simple_types<void (__stdcall*)(void)> >::_Isnil
PUBLIC	?_Left@?$_Tree_val@U?$_Tree_simple_types@P6GXXZ@std@@@std@@SAAAPAU?$_Tree_node@P6GXXZPAX@2@PAU32@@Z ; std::_Tree_val<std::_Tree_simple_types<void (__stdcall*)(void)> >::_Left
PUBLIC	?_Parent@?$_Tree_val@U?$_Tree_simple_types@P6GXXZ@std@@@std@@SAAAPAU?$_Tree_node@P6GXXZPAX@2@PAU32@@Z ; std::_Tree_val<std::_Tree_simple_types<void (__stdcall*)(void)> >::_Parent
PUBLIC	?_Right@?$_Tree_val@U?$_Tree_simple_types@P6GXXZ@std@@@std@@SAAAPAU?$_Tree_node@P6GXXZPAX@2@PAU32@@Z ; std::_Tree_val<std::_Tree_simple_types<void (__stdcall*)(void)> >::_Right
PUBLIC	?_Myval@?$_Tree_val@U?$_Tree_simple_types@P6GXXZ@std@@@std@@SAAAP6GXXZPAU?$_Tree_node@P6GXXZPAX@2@@Z ; std::_Tree_val<std::_Tree_simple_types<void (__stdcall*)(void)> >::_Myval
PUBLIC	?_Max@?$_Tree_val@U?$_Tree_simple_types@P6GXXZ@std@@@std@@SAPAU?$_Tree_node@P6GXXZPAX@2@PAU32@@Z ; std::_Tree_val<std::_Tree_simple_types<void (__stdcall*)(void)> >::_Max
PUBLIC	?_Min@?$_Tree_val@U?$_Tree_simple_types@P6GXXZ@std@@@std@@SAPAU?$_Tree_node@P6GXXZPAX@2@PAU32@@Z ; std::_Tree_val<std::_Tree_simple_types<void (__stdcall*)(void)> >::_Min
PUBLIC	?_Get_first@?$_Compressed_pair@U?$_Wrap_alloc@V?$allocator@U?$_Tree_node@P6GXXZPAX@std@@@std@@@std@@V?$_Tree_val@U?$_Tree_simple_types@P6GXXZ@std@@@2@$00@std@@QAEAAU?$_Wrap_alloc@V?$allocator@U?$_Tree_node@P6GXXZPAX@std@@@std@@@2@XZ ; std::_Compressed_pair<std::_Wrap_alloc<std::allocator<std::_Tree_node<void (__stdcall*)(void),void *> > >,std::_Tree_val<std::_Tree_simple_types<void (__stdcall*)(void)> >,1>::_Get_first
PUBLIC	?_Get_first@?$_Compressed_pair@U?$_Wrap_alloc@V?$allocator@U?$_Tree_node@P6GXXZPAX@std@@@std@@@std@@V?$_Tree_val@U?$_Tree_simple_types@P6GXXZ@std@@@2@$00@std@@QBEABU?$_Wrap_alloc@V?$allocator@U?$_Tree_node@P6GXXZPAX@std@@@std@@@2@XZ ; std::_Compressed_pair<std::_Wrap_alloc<std::allocator<std::_Tree_node<void (__stdcall*)(void),void *> > >,std::_Tree_val<std::_Tree_simple_types<void (__stdcall*)(void)> >,1>::_Get_first
PUBLIC	?_Get_second@?$_Compressed_pair@U?$_Wrap_alloc@V?$allocator@U?$_Tree_node@P6GXXZPAX@std@@@std@@@std@@V?$_Tree_val@U?$_Tree_simple_types@P6GXXZ@std@@@2@$00@std@@QAEAAV?$_Tree_val@U?$_Tree_simple_types@P6GXXZ@std@@@2@XZ ; std::_Compressed_pair<std::_Wrap_alloc<std::allocator<std::_Tree_node<void (__stdcall*)(void),void *> > >,std::_Tree_val<std::_Tree_simple_types<void (__stdcall*)(void)> >,1>::_Get_second
PUBLIC	?_Get_second@?$_Compressed_pair@U?$_Wrap_alloc@V?$allocator@U?$_Tree_node@P6GXXZPAX@std@@@std@@@std@@V?$_Tree_val@U?$_Tree_simple_types@P6GXXZ@std@@@2@$00@std@@QBEABV?$_Tree_val@U?$_Tree_simple_types@P6GXXZ@std@@@2@XZ ; std::_Compressed_pair<std::_Wrap_alloc<std::allocator<std::_Tree_node<void (__stdcall*)(void),void *> > >,std::_Tree_val<std::_Tree_simple_types<void (__stdcall*)(void)> >,1>::_Get_second
PUBLIC	?_Get_first@?$_Compressed_pair@U?$less@P6GXXZ@std@@V?$_Compressed_pair@U?$_Wrap_alloc@V?$allocator@U?$_Tree_node@P6GXXZPAX@std@@@std@@@std@@V?$_Tree_val@U?$_Tree_simple_types@P6GXXZ@std@@@2@$00@2@$00@std@@QAEAAU?$less@P6GXXZ@2@XZ ; std::_Compressed_pair<std::less<void (__stdcall*)(void)>,std::_Compressed_pair<std::_Wrap_alloc<std::allocator<std::_Tree_node<void (__stdcall*)(void),void *> > >,std::_Tree_val<std::_Tree_simple_types<void (__stdcall*)(void)> >,1>,1>::_Get_first
PUBLIC	?_Get_first@?$_Compressed_pair@U?$less@P6GXXZ@std@@V?$_Compressed_pair@U?$_Wrap_alloc@V?$allocator@U?$_Tree_node@P6GXXZPAX@std@@@std@@@std@@V?$_Tree_val@U?$_Tree_simple_types@P6GXXZ@std@@@2@$00@2@$00@std@@QBEABU?$less@P6GXXZ@2@XZ ; std::_Compressed_pair<std::less<void (__stdcall*)(void)>,std::_Compressed_pair<std::_Wrap_alloc<std::allocator<std::_Tree_node<void (__stdcall*)(void),void *> > >,std::_Tree_val<std::_Tree_simple_types<void (__stdcall*)(void)> >,1>,1>::_Get_first
PUBLIC	?_Get_second@?$_Compressed_pair@U?$less@P6GXXZ@std@@V?$_Compressed_pair@U?$_Wrap_alloc@V?$allocator@U?$_Tree_node@P6GXXZPAX@std@@@std@@@std@@V?$_Tree_val@U?$_Tree_simple_types@P6GXXZ@std@@@2@$00@2@$00@std@@QAEAAV?$_Compressed_pair@U?$_Wrap_alloc@V?$allocator@U?$_Tree_node@P6GXXZPAX@std@@@std@@@std@@V?$_Tree_val@U?$_Tree_simple_types@P6GXXZ@std@@@2@$00@2@XZ ; std::_Compressed_pair<std::less<void (__stdcall*)(void)>,std::_Compressed_pair<std::_Wrap_alloc<std::allocator<std::_Tree_node<void (__stdcall*)(void),void *> > >,std::_Tree_val<std::_Tree_simple_types<void (__stdcall*)(void)> >,1>,1>::_Get_second
PUBLIC	?_Get_second@?$_Compressed_pair@U?$less@P6GXXZ@std@@V?$_Compressed_pair@U?$_Wrap_alloc@V?$allocator@U?$_Tree_node@P6GXXZPAX@std@@@std@@@std@@V?$_Tree_val@U?$_Tree_simple_types@P6GXXZ@std@@@2@$00@2@$00@std@@QBEABV?$_Compressed_pair@U?$_Wrap_alloc@V?$allocator@U?$_Tree_node@P6GXXZPAX@std@@@std@@@std@@V?$_Tree_val@U?$_Tree_simple_types@P6GXXZ@std@@@2@$00@2@XZ ; std::_Compressed_pair<std::less<void (__stdcall*)(void)>,std::_Compressed_pair<std::_Wrap_alloc<std::allocator<std::_Tree_node<void (__stdcall*)(void),void *> > >,std::_Tree_val<std::_Tree_simple_types<void (__stdcall*)(void)> >,1>,1>::_Get_second
PUBLIC	??0?$_Tree@V?$_Tset_traits@P6GXXZU?$less@P6GXXZ@std@@V?$allocator@P6GXXZ@2@$0A@@std@@@std@@QAE@ABU?$less@P6GXXZ@1@@Z ; std::_Tree<std::_Tset_traits<void (__stdcall*)(void),std::less<void (__stdcall*)(void)>,std::allocator<void (__stdcall*)(void)>,0> >::_Tree<std::_Tset_traits<void (__stdcall*)(void),std::less<void (__stdcall*)(void)>,std::allocator<void (__stdcall*)(void)>,0> >
PUBLIC	??1?$_Tree@V?$_Tset_traits@P6GXXZU?$less@P6GXXZ@std@@V?$allocator@P6GXXZ@2@$0A@@std@@@std@@QAE@XZ ; std::_Tree<std::_Tset_traits<void (__stdcall*)(void),std::less<void (__stdcall*)(void)>,std::allocator<void (__stdcall*)(void)>,0> >::~_Tree<std::_Tset_traits<void (__stdcall*)(void),std::less<void (__stdcall*)(void)>,std::allocator<void (__stdcall*)(void)>,0> >
PUBLIC	?begin@?$_Tree@V?$_Tset_traits@P6GXXZU?$less@P6GXXZ@std@@V?$allocator@P6GXXZ@2@$0A@@std@@@std@@QAE?AV?$_Tree_const_iterator@V?$_Tree_val@U?$_Tree_simple_types@P6GXXZ@std@@@std@@@2@XZ ; std::_Tree<std::_Tset_traits<void (__stdcall*)(void),std::less<void (__stdcall*)(void)>,std::allocator<void (__stdcall*)(void)>,0> >::begin
PUBLIC	?end@?$_Tree@V?$_Tset_traits@P6GXXZU?$less@P6GXXZ@std@@V?$allocator@P6GXXZ@2@$0A@@std@@@std@@QAE?AV?$_Tree_const_iterator@V?$_Tree_val@U?$_Tree_simple_types@P6GXXZ@std@@@std@@@2@XZ ; std::_Tree<std::_Tset_traits<void (__stdcall*)(void),std::less<void (__stdcall*)(void)>,std::allocator<void (__stdcall*)(void)>,0> >::end
PUBLIC	?max_size@?$_Tree@V?$_Tset_traits@P6GXXZU?$less@P6GXXZ@std@@V?$allocator@P6GXXZ@2@$0A@@std@@@std@@QBEIXZ ; std::_Tree<std::_Tset_traits<void (__stdcall*)(void),std::less<void (__stdcall*)(void)>,std::allocator<void (__stdcall*)(void)>,0> >::max_size
PUBLIC	?erase@?$_Tree@V?$_Tset_traits@P6GXXZU?$less@P6GXXZ@std@@V?$allocator@P6GXXZ@2@$0A@@std@@@std@@QAE?AV?$_Tree_const_iterator@V?$_Tree_val@U?$_Tree_simple_types@P6GXXZ@std@@@std@@@2@V32@@Z ; std::_Tree<std::_Tset_traits<void (__stdcall*)(void),std::less<void (__stdcall*)(void)>,std::allocator<void (__stdcall*)(void)>,0> >::erase
PUBLIC	?erase@?$_Tree@V?$_Tset_traits@P6GXXZU?$less@P6GXXZ@std@@V?$allocator@P6GXXZ@2@$0A@@std@@@std@@QAE?AV?$_Tree_const_iterator@V?$_Tree_val@U?$_Tree_simple_types@P6GXXZ@std@@@std@@@2@V32@0@Z ; std::_Tree<std::_Tset_traits<void (__stdcall*)(void),std::less<void (__stdcall*)(void)>,std::allocator<void (__stdcall*)(void)>,0> >::erase
PUBLIC	?erase@?$_Tree@V?$_Tset_traits@P6GXXZU?$less@P6GXXZ@std@@V?$allocator@P6GXXZ@2@$0A@@std@@@std@@QAEIABQ6GXXZ@Z ; std::_Tree<std::_Tset_traits<void (__stdcall*)(void),std::less<void (__stdcall*)(void)>,std::allocator<void (__stdcall*)(void)>,0> >::erase
PUBLIC	?clear@?$_Tree@V?$_Tset_traits@P6GXXZU?$less@P6GXXZ@std@@V?$allocator@P6GXXZ@2@$0A@@std@@@std@@QAEXXZ ; std::_Tree<std::_Tset_traits<void (__stdcall*)(void),std::less<void (__stdcall*)(void)>,std::allocator<void (__stdcall*)(void)>,0> >::clear
PUBLIC	?count@?$_Tree@V?$_Tset_traits@P6GXXZU?$less@P6GXXZ@std@@V?$allocator@P6GXXZ@2@$0A@@std@@@std@@QBEIABQ6GXXZ@Z ; std::_Tree<std::_Tset_traits<void (__stdcall*)(void),std::less<void (__stdcall*)(void)>,std::allocator<void (__stdcall*)(void)>,0> >::count
PUBLIC	?equal_range@?$_Tree@V?$_Tset_traits@P6GXXZU?$less@P6GXXZ@std@@V?$allocator@P6GXXZ@2@$0A@@std@@@std@@QAE?AU?$pair@V?$_Tree_const_iterator@V?$_Tree_val@U?$_Tree_simple_types@P6GXXZ@std@@@std@@@std@@V12@@2@ABQ6GXXZ@Z ; std::_Tree<std::_Tset_traits<void (__stdcall*)(void),std::less<void (__stdcall*)(void)>,std::allocator<void (__stdcall*)(void)>,0> >::equal_range
PUBLIC	?equal_range@?$_Tree@V?$_Tset_traits@P6GXXZU?$less@P6GXXZ@std@@V?$allocator@P6GXXZ@2@$0A@@std@@@std@@QBE?AU?$pair@V?$_Tree_const_iterator@V?$_Tree_val@U?$_Tree_simple_types@P6GXXZ@std@@@std@@@std@@V12@@2@ABQ6GXXZ@Z ; std::_Tree<std::_Tset_traits<void (__stdcall*)(void),std::less<void (__stdcall*)(void)>,std::allocator<void (__stdcall*)(void)>,0> >::equal_range
PUBLIC	?_Destroy_if_not_nil@?$_Tree@V?$_Tset_traits@P6GXXZU?$less@P6GXXZ@std@@V?$allocator@P6GXXZ@2@$0A@@std@@@std@@IAEXPAU?$_Tree_node@P6GXXZPAX@2@@Z ; std::_Tree<std::_Tset_traits<void (__stdcall*)(void),std::less<void (__stdcall*)(void)>,std::allocator<void (__stdcall*)(void)>,0> >::_Destroy_if_not_nil
PUBLIC	?_Erase@?$_Tree@V?$_Tset_traits@P6GXXZU?$less@P6GXXZ@std@@V?$allocator@P6GXXZ@2@$0A@@std@@@std@@IAEXPAU?$_Tree_node@P6GXXZPAX@2@@Z ; std::_Tree<std::_Tset_traits<void (__stdcall*)(void),std::less<void (__stdcall*)(void)>,std::allocator<void (__stdcall*)(void)>,0> >::_Erase
PUBLIC	?_Lmost@?$_Tree@V?$_Tset_traits@P6GXXZU?$less@P6GXXZ@std@@V?$allocator@P6GXXZ@2@$0A@@std@@@std@@IBEAAPAU?$_Tree_node@P6GXXZPAX@2@XZ ; std::_Tree<std::_Tset_traits<void (__stdcall*)(void),std::less<void (__stdcall*)(void)>,std::allocator<void (__stdcall*)(void)>,0> >::_Lmost
PUBLIC	?_Lrotate@?$_Tree@V?$_Tset_traits@P6GXXZU?$less@P6GXXZ@std@@V?$allocator@P6GXXZ@2@$0A@@std@@@std@@IAEXPAU?$_Tree_node@P6GXXZPAX@2@@Z ; std::_Tree<std::_Tset_traits<void (__stdcall*)(void),std::less<void (__stdcall*)(void)>,std::allocator<void (__stdcall*)(void)>,0> >::_Lrotate
PUBLIC	?_Rmost@?$_Tree@V?$_Tset_traits@P6GXXZU?$less@P6GXXZ@std@@V?$allocator@P6GXXZ@2@$0A@@std@@@std@@IBEAAPAU?$_Tree_node@P6GXXZPAX@2@XZ ; std::_Tree<std::_Tset_traits<void (__stdcall*)(void),std::less<void (__stdcall*)(void)>,std::allocator<void (__stdcall*)(void)>,0> >::_Rmost
PUBLIC	?_Root@?$_Tree@V?$_Tset_traits@P6GXXZU?$less@P6GXXZ@std@@V?$allocator@P6GXXZ@2@$0A@@std@@@std@@IBEAAPAU?$_Tree_node@P6GXXZPAX@2@XZ ; std::_Tree<std::_Tset_traits<void (__stdcall*)(void),std::less<void (__stdcall*)(void)>,std::allocator<void (__stdcall*)(void)>,0> >::_Root
PUBLIC	?_Rrotate@?$_Tree@V?$_Tset_traits@P6GXXZU?$less@P6GXXZ@std@@V?$allocator@P6GXXZ@2@$0A@@std@@@std@@IAEXPAU?$_Tree_node@P6GXXZPAX@2@@Z ; std::_Tree<std::_Tset_traits<void (__stdcall*)(void),std::less<void (__stdcall*)(void)>,std::allocator<void (__stdcall*)(void)>,0> >::_Rrotate
PUBLIC	?_Tidy@?$_Tree@V?$_Tset_traits@P6GXXZU?$less@P6GXXZ@std@@V?$allocator@P6GXXZ@2@$0A@@std@@@std@@IAEXXZ ; std::_Tree<std::_Tset_traits<void (__stdcall*)(void),std::less<void (__stdcall*)(void)>,std::allocator<void (__stdcall*)(void)>,0> >::_Tidy
PUBLIC	?_Kfn@?$_Tree@V?$_Tset_traits@P6GXXZU?$less@P6GXXZ@std@@V?$allocator@P6GXXZ@2@$0A@@std@@@std@@IBEABQ6GXXZABQ6GXXZ@Z ; std::_Tree<std::_Tset_traits<void (__stdcall*)(void),std::less<void (__stdcall*)(void)>,std::allocator<void (__stdcall*)(void)>,0> >::_Kfn
PUBLIC	?_Key@?$_Tree@V?$_Tset_traits@P6GXXZU?$less@P6GXXZ@std@@V?$allocator@P6GXXZ@2@$0A@@std@@@std@@IBEABQ6GXXZPAU?$_Tree_node@P6GXXZPAX@2@@Z ; std::_Tree<std::_Tset_traits<void (__stdcall*)(void),std::less<void (__stdcall*)(void)>,std::allocator<void (__stdcall*)(void)>,0> >::_Key
PUBLIC	??0?$set@P6GXXZU?$less@P6GXXZ@std@@V?$allocator@P6GXXZ@2@@std@@QAE@XZ ; std::set<void (__stdcall*)(void),std::less<void (__stdcall*)(void)>,std::allocator<void (__stdcall*)(void)> >::set<void (__stdcall*)(void),std::less<void (__stdcall*)(void)>,std::allocator<void (__stdcall*)(void)> >
PUBLIC	??1?$set@P6GXXZU?$less@P6GXXZ@std@@V?$allocator@P6GXXZ@2@@std@@QAE@XZ ; std::set<void (__stdcall*)(void),std::less<void (__stdcall*)(void)>,std::allocator<void (__stdcall*)(void)> >::~set<void (__stdcall*)(void),std::less<void (__stdcall*)(void)>,std::allocator<void (__stdcall*)(void)> >
PUBLIC	?SKX_ImGui_RegisterResource@@YGXPAUIUnknown@@@Z	; SKX_ImGui_RegisterResource
PUBLIC	?SKX_ImGui_RegisterResetCallback@@YGXP6GXXZ@Z	; SKX_ImGui_RegisterResetCallback
PUBLIC	??$emplace@AAP6GXXZ@?$_Tree@V?$_Tset_traits@P6GXXZU?$less@P6GXXZ@std@@V?$allocator@P6GXXZ@2@$0A@@std@@@std@@QAE?AU?$pair@V?$_Tree_const_iterator@V?$_Tree_val@U?$_Tree_simple_types@P6GXXZ@std@@@std@@@std@@_N@1@AAP6GXXZ@Z ; std::_Tree<std::_Tset_traits<void (__stdcall*)(void),std::less<void (__stdcall*)(void)>,std::allocator<void (__stdcall*)(void)>,0> >::emplace<void (__stdcall*&)(void)>
PUBLIC	??0?$_Tree_unchecked_const_iterator@V?$_Tree_val@U?$_Tree_simple_types@P6GXXZ@std@@@std@@U_Iterator_base0@2@@std@@QAE@PAU?$_Tree_node@P6GXXZPAX@1@PBV?$_Tree_val@U?$_Tree_simple_types@P6GXXZ@std@@@1@@Z ; std::_Tree_unchecked_const_iterator<std::_Tree_val<std::_Tree_simple_types<void (__stdcall*)(void)> >,std::_Iterator_base0>::_Tree_unchecked_const_iterator<std::_Tree_val<std::_Tree_simple_types<void (__stdcall*)(void)> >,std::_Iterator_base0>
PUBLIC	??E?$_Tree_unchecked_const_iterator@V?$_Tree_val@U?$_Tree_simple_types@P6GXXZ@std@@@std@@U_Iterator_base0@2@@std@@QAEAAV01@XZ ; std::_Tree_unchecked_const_iterator<std::_Tree_val<std::_Tree_simple_types<void (__stdcall*)(void)> >,std::_Iterator_base0>::operator++
PUBLIC	??F?$_Tree_unchecked_const_iterator@V?$_Tree_val@U?$_Tree_simple_types@P6GXXZ@std@@@std@@U_Iterator_base0@2@@std@@QAEAAV01@XZ ; std::_Tree_unchecked_const_iterator<std::_Tree_val<std::_Tree_simple_types<void (__stdcall*)(void)> >,std::_Iterator_base0>::operator--
PUBLIC	?_Mynode@?$_Tree_unchecked_const_iterator@V?$_Tree_val@U?$_Tree_simple_types@P6GXXZ@std@@@std@@U_Iterator_base0@2@@std@@QBEPAU?$_Tree_node@P6GXXZPAX@2@XZ ; std::_Tree_unchecked_const_iterator<std::_Tree_val<std::_Tree_simple_types<void (__stdcall*)(void)> >,std::_Iterator_base0>::_Mynode
PUBLIC	??0?$_Tree_const_iterator@V?$_Tree_val@U?$_Tree_simple_types@P6GXXZ@std@@@std@@@std@@QAE@PAU?$_Tree_node@P6GXXZPAX@1@PBV?$_Tree_val@U?$_Tree_simple_types@P6GXXZ@std@@@1@@Z ; std::_Tree_const_iterator<std::_Tree_val<std::_Tree_simple_types<void (__stdcall*)(void)> > >::_Tree_const_iterator<std::_Tree_val<std::_Tree_simple_types<void (__stdcall*)(void)> > >
PUBLIC	??D?$_Tree_const_iterator@V?$_Tree_val@U?$_Tree_simple_types@P6GXXZ@std@@@std@@@std@@QBEABQ6GXXZXZ ; std::_Tree_const_iterator<std::_Tree_val<std::_Tree_simple_types<void (__stdcall*)(void)> > >::operator*
PUBLIC	??E?$_Tree_const_iterator@V?$_Tree_val@U?$_Tree_simple_types@P6GXXZ@std@@@std@@@std@@QAEAAV01@XZ ; std::_Tree_const_iterator<std::_Tree_val<std::_Tree_simple_types<void (__stdcall*)(void)> > >::operator++
PUBLIC	??E?$_Tree_const_iterator@V?$_Tree_val@U?$_Tree_simple_types@P6GXXZ@std@@@std@@@std@@QAE?AV01@H@Z ; std::_Tree_const_iterator<std::_Tree_val<std::_Tree_simple_types<void (__stdcall*)(void)> > >::operator++
PUBLIC	??F?$_Tree_const_iterator@V?$_Tree_val@U?$_Tree_simple_types@P6GXXZ@std@@@std@@@std@@QAEAAV01@XZ ; std::_Tree_const_iterator<std::_Tree_val<std::_Tree_simple_types<void (__stdcall*)(void)> > >::operator--
PUBLIC	??8?$_Tree_const_iterator@V?$_Tree_val@U?$_Tree_simple_types@P6GXXZ@std@@@std@@@std@@QBE_NABV01@@Z ; std::_Tree_const_iterator<std::_Tree_val<std::_Tree_simple_types<void (__stdcall*)(void)> > >::operator==
PUBLIC	??9?$_Tree_const_iterator@V?$_Tree_val@U?$_Tree_simple_types@P6GXXZ@std@@@std@@@std@@QBE_NABV01@@Z ; std::_Tree_const_iterator<std::_Tree_val<std::_Tree_simple_types<void (__stdcall*)(void)> > >::operator!=
PUBLIC	?SKX_ImGui_UnregisterResetCallback@@YGXP6GXXZ@Z	; SKX_ImGui_UnregisterResetCallback
PUBLIC	?SK_ImGui_ResetExternal@@YAXXZ			; SK_ImGui_ResetExternal
PUBLIC	??0?$_Vector_const_iterator@V?$_Vector_val@U?$_Simple_types@PAUIUnknown@@@std@@@std@@@std@@QAE@PAPAUIUnknown@@PBU_Container_base0@1@@Z ; std::_Vector_const_iterator<std::_Vector_val<std::_Simple_types<IUnknown *> > >::_Vector_const_iterator<std::_Vector_val<std::_Simple_types<IUnknown *> > >
PUBLIC	??D?$_Vector_const_iterator@V?$_Vector_val@U?$_Simple_types@PAUIUnknown@@@std@@@std@@@std@@QBEABQAUIUnknown@@XZ ; std::_Vector_const_iterator<std::_Vector_val<std::_Simple_types<IUnknown *> > >::operator*
PUBLIC	??E?$_Vector_const_iterator@V?$_Vector_val@U?$_Simple_types@PAUIUnknown@@@std@@@std@@@std@@QAEAAV01@XZ ; std::_Vector_const_iterator<std::_Vector_val<std::_Simple_types<IUnknown *> > >::operator++
PUBLIC	??8?$_Vector_const_iterator@V?$_Vector_val@U?$_Simple_types@PAUIUnknown@@@std@@@std@@@std@@QBE_NABV01@@Z ; std::_Vector_const_iterator<std::_Vector_val<std::_Simple_types<IUnknown *> > >::operator==
PUBLIC	??9?$_Vector_const_iterator@V?$_Vector_val@U?$_Simple_types@PAUIUnknown@@@std@@@std@@@std@@QBE_NABV01@@Z ; std::_Vector_const_iterator<std::_Vector_val<std::_Simple_types<IUnknown *> > >::operator!=
PUBLIC	?_Compat@?$_Vector_const_iterator@V?$_Vector_val@U?$_Simple_types@PAUIUnknown@@@std@@@std@@@std@@QBEXABV12@@Z ; std::_Vector_const_iterator<std::_Vector_val<std::_Simple_types<IUnknown *> > >::_Compat
PUBLIC	??0?$_Vector_iterator@V?$_Vector_val@U?$_Simple_types@PAUIUnknown@@@std@@@std@@@std@@QAE@PAPAUIUnknown@@PBU_Container_base0@1@@Z ; std::_Vector_iterator<std::_Vector_val<std::_Simple_types<IUnknown *> > >::_Vector_iterator<std::_Vector_val<std::_Simple_types<IUnknown *> > >
PUBLIC	??D?$_Vector_iterator@V?$_Vector_val@U?$_Simple_types@PAUIUnknown@@@std@@@std@@@std@@QBEAAPAUIUnknown@@XZ ; std::_Vector_iterator<std::_Vector_val<std::_Simple_types<IUnknown *> > >::operator*
PUBLIC	??E?$_Vector_iterator@V?$_Vector_val@U?$_Simple_types@PAUIUnknown@@@std@@@std@@@std@@QAEAAV01@XZ ; std::_Vector_iterator<std::_Vector_val<std::_Simple_types<IUnknown *> > >::operator++
PUBLIC	?ImGui_ImplDX11_Resize@@YAXPAUIDXGISwapChain@@IIIW4DXGI_FORMAT@@I@Z ; ImGui_ImplDX11_Resize
PUBLIC	??$distance@V?$_Tree_const_iterator@V?$_Tree_val@U?$_Tree_simple_types@P6GXXZ@std@@@std@@@std@@@std@@YAHV?$_Tree_const_iterator@V?$_Tree_val@U?$_Tree_simple_types@P6GXXZ@std@@@std@@@0@0@Z ; std::distance<std::_Tree_const_iterator<std::_Tree_val<std::_Tree_simple_types<void (__stdcall*)(void)> > > >
PUBLIC	??$addressof@V?$_Tree_val@U?$_Tree_simple_types@P6GXXZ@std@@@std@@@std@@YAPAV?$_Tree_val@U?$_Tree_simple_types@P6GXXZ@std@@@0@AAV10@@Z ; std::addressof<std::_Tree_val<std::_Tree_simple_types<void (__stdcall*)(void)> > >
PUBLIC	??$addressof@V?$_Vector_val@U?$_Simple_types@PAUIUnknown@@@std@@@std@@@std@@YAPAV?$_Vector_val@U?$_Simple_types@PAUIUnknown@@@std@@@0@AAV10@@Z ; std::addressof<std::_Vector_val<std::_Simple_types<IUnknown *> > >
PUBLIC	??$emplace_back@ABQAUIUnknown@@@?$vector@PAUIUnknown@@V?$allocator@PAUIUnknown@@@std@@@std@@QAEXABQAUIUnknown@@@Z ; std::vector<IUnknown *,std::allocator<IUnknown *> >::emplace_back<IUnknown * const &>
PUBLIC	??$_Eqrange@P6GXXZ@?$_Tree@V?$_Tset_traits@P6GXXZU?$less@P6GXXZ@std@@V?$allocator@P6GXXZ@2@$0A@@std@@@std@@IAE?AU?$pair@V?$_Tree_const_iterator@V?$_Tree_val@U?$_Tree_simple_types@P6GXXZ@std@@@std@@@std@@V12@@1@ABQ6GXXZ@Z ; std::_Tree<std::_Tset_traits<void (__stdcall*)(void),std::less<void (__stdcall*)(void)>,std::allocator<void (__stdcall*)(void)>,0> >::_Eqrange<void (__stdcall*)(void)>
PUBLIC	??$_Eqrange@P6GXXZ@?$_Tree@V?$_Tset_traits@P6GXXZU?$less@P6GXXZ@std@@V?$allocator@P6GXXZ@2@$0A@@std@@@std@@IBE?AU?$pair@V?$_Tree_const_iterator@V?$_Tree_val@U?$_Tree_simple_types@P6GXXZ@std@@@std@@@std@@V12@@1@ABQ6GXXZ@Z ; std::_Tree<std::_Tset_traits<void (__stdcall*)(void),std::less<void (__stdcall*)(void)>,std::allocator<void (__stdcall*)(void)>,0> >::_Eqrange<void (__stdcall*)(void)>
PUBLIC	??$?0$$V@?$_Compressed_pair@U?$_Wrap_alloc@V?$allocator@PAUIUnknown@@@std@@@std@@V?$_Vector_val@U?$_Simple_types@PAUIUnknown@@@std@@@2@$00@std@@QAE@U_Zero_then_variadic_args_t@1@@Z ; std::_Compressed_pair<std::_Wrap_alloc<std::allocator<IUnknown *> >,std::_Vector_val<std::_Simple_types<IUnknown *> >,1>::_Compressed_pair<std::_Wrap_alloc<std::allocator<IUnknown *> >,std::_Vector_val<std::_Simple_types<IUnknown *> >,1><>
PUBLIC	??$_Destroy_range@V?$allocator@PAUIUnknown@@@std@@PAPAUIUnknown@@@std@@YAXPAPAUIUnknown@@0AAU?$_Wrap_alloc@V?$allocator@PAUIUnknown@@@std@@@0@@Z ; std::_Destroy_range<std::allocator<IUnknown *>,IUnknown * *>
PUBLIC	??$addressof@PAU?$_Tree_node@P6GXXZPAX@std@@@std@@YAPAPAU?$_Tree_node@P6GXXZPAX@0@AAPAU10@@Z ; std::addressof<std::_Tree_node<void (__stdcall*)(void),void *> *>
PUBLIC	??$destroy@PAU?$_Tree_node@P6GXXZPAX@std@@@?$_Wrap_alloc@V?$allocator@U?$_Tree_node@P6GXXZPAX@std@@@std@@@std@@QAEXPAPAU?$_Tree_node@P6GXXZPAX@1@@Z ; std::_Wrap_alloc<std::allocator<std::_Tree_node<void (__stdcall*)(void),void *> > >::destroy<std::_Tree_node<void (__stdcall*)(void),void *> *>
PUBLIC	??$?0ABU?$less@P6GXXZ@std@@U_Zero_then_variadic_args_t@1@@?$_Compressed_pair@U?$less@P6GXXZ@std@@V?$_Compressed_pair@U?$_Wrap_alloc@V?$allocator@U?$_Tree_node@P6GXXZPAX@std@@@std@@@std@@V?$_Tree_val@U?$_Tree_simple_types@P6GXXZ@std@@@2@$00@2@$00@std@@QAE@U_One_then_variadic_args_t@1@ABU?$less@P6GXXZ@1@$$QAU_Zero_then_variadic_args_t@1@@Z ; std::_Compressed_pair<std::less<void (__stdcall*)(void)>,std::_Compressed_pair<std::_Wrap_alloc<std::allocator<std::_Tree_node<void (__stdcall*)(void),void *> > >,std::_Tree_val<std::_Tree_simple_types<void (__stdcall*)(void)> >,1>,1>::_Compressed_pair<std::less<void (__stdcall*)(void)>,std::_Compressed_pair<std::_Wrap_alloc<std::allocator<std::_Tree_node<void (__stdcall*)(void),void *> > >,std::_Tree_val<std::_Tree_simple_types<void (__stdcall*)(void)> >,1>,1><std::less<void (__stdcall*)(void)> const &,std::_Zero_then_variadic_args_t>
PUBLIC	??$swap@DX@std@@YAXAAD0@Z			; std::swap<char,void>
PUBLIC	??$addressof@P6GXXZ@std@@YAPAP6GXXZAAP6GXXZ@Z	; std::addressof<void (__stdcall*)(void)>
PUBLIC	??$destroy@P6GXXZ@?$_Wrap_alloc@V?$allocator@U?$_Tree_node@P6GXXZPAX@std@@@std@@@std@@QAEXPAP6GXXZ@Z ; std::_Wrap_alloc<std::allocator<std::_Tree_node<void (__stdcall*)(void),void *> > >::destroy<void (__stdcall*)(void)>
PUBLIC	??$construct@PAU?$_Tree_node@P6GXXZPAX@std@@AAPAU12@@?$_Wrap_alloc@V?$allocator@U?$_Tree_node@P6GXXZPAX@std@@@std@@@std@@QAEXPAPAU?$_Tree_node@P6GXXZPAX@1@AAPAU21@@Z ; std::_Wrap_alloc<std::allocator<std::_Tree_node<void (__stdcall*)(void),void *> > >::construct<std::_Tree_node<void (__stdcall*)(void),void *> *,std::_Tree_node<void (__stdcall*)(void),void *> * &>
PUBLIC	??$forward@AAP6GXXZ@std@@YAAAP6GXXZAAP6GXXZ@Z	; std::forward<void (__stdcall*&)(void)>
PUBLIC	??$_Buynode@AAP6GXXZ@?$_Tree_comp_alloc@V?$_Tset_traits@P6GXXZU?$less@P6GXXZ@std@@V?$allocator@P6GXXZ@2@$0A@@std@@@std@@QAEPAU?$_Tree_node@P6GXXZPAX@1@AAP6GXXZ@Z ; std::_Tree_comp_alloc<std::_Tset_traits<void (__stdcall*)(void),std::less<void (__stdcall*)(void)>,std::allocator<void (__stdcall*)(void)>,0> >::_Buynode<void (__stdcall*&)(void)>
PUBLIC	??$_Insert_nohint@AAP6GXXZPAU?$_Tree_node@P6GXXZPAX@std@@@?$_Tree@V?$_Tset_traits@P6GXXZU?$less@P6GXXZ@std@@V?$allocator@P6GXXZ@2@$0A@@std@@@std@@IAE?AU?$pair@V?$_Tree_const_iterator@V?$_Tree_val@U?$_Tree_simple_types@P6GXXZ@std@@@std@@@std@@_N@1@_NAAP6GXXZPAU?$_Tree_node@P6GXXZPAX@1@@Z ; std::_Tree<std::_Tset_traits<void (__stdcall*)(void),std::less<void (__stdcall*)(void)>,std::allocator<void (__stdcall*)(void)>,0> >::_Insert_nohint<void (__stdcall*&)(void),std::_Tree_node<void (__stdcall*)(void),void *> *>
PUBLIC	??$_Distance1@V?$_Tree_const_iterator@V?$_Tree_val@U?$_Tree_simple_types@P6GXXZ@std@@@std@@@std@@@std@@YAHV?$_Tree_const_iterator@V?$_Tree_val@U?$_Tree_simple_types@P6GXXZ@std@@@std@@@0@0Uinput_iterator_tag@0@@Z ; std::_Distance1<std::_Tree_const_iterator<std::_Tree_val<std::_Tree_simple_types<void (__stdcall*)(void)> > > >
PUBLIC	??$forward@ABQAUIUnknown@@@std@@YAABQAUIUnknown@@ABQAU1@@Z ; std::forward<IUnknown * const &>
PUBLIC	??$_Emplace_back_with_unused_capacity@ABQAUIUnknown@@@?$vector@PAUIUnknown@@V?$allocator@PAUIUnknown@@@std@@@std@@AAEXABQAUIUnknown@@@Z ; std::vector<IUnknown *,std::allocator<IUnknown *> >::_Emplace_back_with_unused_capacity<IUnknown * const &>
PUBLIC	??$_Unfancy@PAUIUnknown@@@std@@YAPAPAUIUnknown@@PAPAU1@@Z ; std::_Unfancy<IUnknown *>
PUBLIC	??$construct@PAUIUnknown@@ABQAU1@@?$_Wrap_alloc@V?$allocator@PAUIUnknown@@@std@@@std@@QAEXPAPAUIUnknown@@ABQAU2@@Z ; std::_Wrap_alloc<std::allocator<IUnknown *> >::construct<IUnknown *,IUnknown * const &>
PUBLIC	??$destroy@PAUIUnknown@@@?$_Wrap_alloc@V?$allocator@PAUIUnknown@@@std@@@std@@QAEXPAPAUIUnknown@@@Z ; std::_Wrap_alloc<std::allocator<IUnknown *> >::destroy<IUnknown *>
PUBLIC	??$?0AAV?$_Tree_const_iterator@V?$_Tree_val@U?$_Tree_simple_types@P6GXXZ@std@@@std@@@std@@AAV01@X$0A@@?$pair@V?$_Tree_const_iterator@V?$_Tree_val@U?$_Tree_simple_types@P6GXXZ@std@@@std@@@std@@V12@@std@@QAE@AAV?$_Tree_const_iterator@V?$_Tree_val@U?$_Tree_simple_types@P6GXXZ@std@@@std@@@1@0@Z ; std::pair<std::_Tree_const_iterator<std::_Tree_val<std::_Tree_simple_types<void (__stdcall*)(void)> > >,std::_Tree_const_iterator<std::_Tree_val<std::_Tree_simple_types<void (__stdcall*)(void)> > > >::pair<std::_Tree_const_iterator<std::_Tree_val<std::_Tree_simple_types<void (__stdcall*)(void)> > >,std::_Tree_const_iterator<std::_Tree_val<std::_Tree_simple_types<void (__stdcall*)(void)> > > ><std::_Tree_const_iterator<std::_Tree_val<std::_Tree_simple_types<void (__stdcall*)(void)> > > &,std::_Tree_const_iterator<std::_Tree_val<std::_Tree_simple_types<void (__stdcall*)(void)> > > &,void,0>
PUBLIC	??$addressof@$$CBV?$_Tree_val@U?$_Tree_simple_types@P6GXXZ@std@@@std@@@std@@YAPBV?$_Tree_val@U?$_Tree_simple_types@P6GXXZ@std@@@0@ABV10@@Z ; std::addressof<std::_Tree_val<std::_Tree_simple_types<void (__stdcall*)(void)> > const >
PUBLIC	??$_Destroy_range1@V?$allocator@PAUIUnknown@@@std@@PAPAUIUnknown@@@std@@YAXPAPAUIUnknown@@0AAU?$_Wrap_alloc@V?$allocator@PAUIUnknown@@@std@@@0@U?$integral_constant@_N$00@0@@Z ; std::_Destroy_range1<std::allocator<IUnknown *>,IUnknown * *>
PUBLIC	??$destroy@PAU?$_Tree_node@P6GXXZPAX@std@@@?$allocator_traits@V?$allocator@U?$_Tree_node@P6GXXZPAX@std@@@std@@@std@@SAXAAV?$allocator@U?$_Tree_node@P6GXXZPAX@std@@@1@PAPAU?$_Tree_node@P6GXXZPAX@1@@Z ; std::allocator_traits<std::allocator<std::_Tree_node<void (__stdcall*)(void),void *> > >::destroy<std::_Tree_node<void (__stdcall*)(void),void *> *>
PUBLIC	??$forward@ABU?$less@P6GXXZ@std@@@std@@YAABU?$less@P6GXXZ@0@ABU10@@Z ; std::forward<std::less<void (__stdcall*)(void)> const &>
PUBLIC	??$forward@U_Zero_then_variadic_args_t@std@@@std@@YA$$QAU_Zero_then_variadic_args_t@0@AAU10@@Z ; std::forward<std::_Zero_then_variadic_args_t>
PUBLIC	??$?0$$V@?$_Compressed_pair@U?$_Wrap_alloc@V?$allocator@U?$_Tree_node@P6GXXZPAX@std@@@std@@@std@@V?$_Tree_val@U?$_Tree_simple_types@P6GXXZ@std@@@2@$00@std@@QAE@U_Zero_then_variadic_args_t@1@@Z ; std::_Compressed_pair<std::_Wrap_alloc<std::allocator<std::_Tree_node<void (__stdcall*)(void),void *> > >,std::_Tree_val<std::_Tree_simple_types<void (__stdcall*)(void)> >,1>::_Compressed_pair<std::_Wrap_alloc<std::allocator<std::_Tree_node<void (__stdcall*)(void),void *> > >,std::_Tree_val<std::_Tree_simple_types<void (__stdcall*)(void)> >,1><>
PUBLIC	??$move@AAD@std@@YA$$QADAAD@Z			; std::move<char &>
PUBLIC	??$destroy@P6GXXZ@?$allocator_traits@V?$allocator@U?$_Tree_node@P6GXXZPAX@std@@@std@@@std@@SAXAAV?$allocator@U?$_Tree_node@P6GXXZPAX@std@@@1@PAP6GXXZ@Z ; std::allocator_traits<std::allocator<std::_Tree_node<void (__stdcall*)(void),void *> > >::destroy<void (__stdcall*)(void)>
PUBLIC	??$forward@AAPAU?$_Tree_node@P6GXXZPAX@std@@@std@@YAAAPAU?$_Tree_node@P6GXXZPAX@0@AAPAU10@@Z ; std::forward<std::_Tree_node<void (__stdcall*)(void),void *> * &>
PUBLIC	??$construct@PAU?$_Tree_node@P6GXXZPAX@std@@AAPAU12@@?$allocator_traits@V?$allocator@U?$_Tree_node@P6GXXZPAX@std@@@std@@@std@@SAXAAV?$allocator@U?$_Tree_node@P6GXXZPAX@std@@@1@PAPAU?$_Tree_node@P6GXXZPAX@1@AAPAU31@@Z ; std::allocator_traits<std::allocator<std::_Tree_node<void (__stdcall*)(void),void *> > >::construct<std::_Tree_node<void (__stdcall*)(void),void *> *,std::_Tree_node<void (__stdcall*)(void),void *> * &>
PUBLIC	??$_Uninitialized_move@PAPAUIUnknown@@PAPAU1@V?$allocator@PAUIUnknown@@@std@@@std@@YAPAPAUIUnknown@@PAPAU1@00AAU?$_Wrap_alloc@V?$allocator@PAUIUnknown@@@std@@@0@@Z ; std::_Uninitialized_move<IUnknown * *,IUnknown * *,std::allocator<IUnknown *> >
PUBLIC	??$construct@P6GXXZAAP6GXXZ@?$_Wrap_alloc@V?$allocator@U?$_Tree_node@P6GXXZPAX@std@@@std@@@std@@QAEXPAP6GXXZAAP6GXXZ@Z ; std::_Wrap_alloc<std::allocator<std::_Tree_node<void (__stdcall*)(void),void *> > >::construct<void (__stdcall*)(void),void (__stdcall*&)(void)>
PUBLIC	??$_Insert_at@AAP6GXXZPAU?$_Tree_node@P6GXXZPAX@std@@@?$_Tree@V?$_Tset_traits@P6GXXZU?$less@P6GXXZ@std@@V?$allocator@P6GXXZ@2@$0A@@std@@@std@@IAE?AV?$_Tree_const_iterator@V?$_Tree_val@U?$_Tree_simple_types@P6GXXZ@std@@@std@@@1@_NPAU?$_Tree_node@P6GXXZPAX@1@AAP6GXXZ1@Z ; std::_Tree<std::_Tset_traits<void (__stdcall*)(void),std::less<void (__stdcall*)(void)>,std::allocator<void (__stdcall*)(void)>,0> >::_Insert_at<void (__stdcall*&)(void),std::_Tree_node<void (__stdcall*)(void),void *> *>
PUBLIC	??$?0V?$_Tree_const_iterator@V?$_Tree_val@U?$_Tree_simple_types@P6GXXZ@std@@@std@@@std@@_NX$0A@@?$pair@V?$_Tree_const_iterator@V?$_Tree_val@U?$_Tree_simple_types@P6GXXZ@std@@@std@@@std@@_N@std@@QAE@$$QAV?$_Tree_const_iterator@V?$_Tree_val@U?$_Tree_simple_types@P6GXXZ@std@@@std@@@1@$$QA_N@Z ; std::pair<std::_Tree_const_iterator<std::_Tree_val<std::_Tree_simple_types<void (__stdcall*)(void)> > >,bool>::pair<std::_Tree_const_iterator<std::_Tree_val<std::_Tree_simple_types<void (__stdcall*)(void)> > >,bool><std::_Tree_const_iterator<std::_Tree_val<std::_Tree_simple_types<void (__stdcall*)(void)> > >,bool,void,0>
PUBLIC	??$?0AAV?$_Tree_const_iterator@V?$_Tree_val@U?$_Tree_simple_types@P6GXXZ@std@@@std@@@std@@_NX$0A@@?$pair@V?$_Tree_const_iterator@V?$_Tree_val@U?$_Tree_simple_types@P6GXXZ@std@@@std@@@std@@_N@std@@QAE@AAV?$_Tree_const_iterator@V?$_Tree_val@U?$_Tree_simple_types@P6GXXZ@std@@@std@@@1@$$QA_N@Z ; std::pair<std::_Tree_const_iterator<std::_Tree_val<std::_Tree_simple_types<void (__stdcall*)(void)> > >,bool>::pair<std::_Tree_const_iterator<std::_Tree_val<std::_Tree_simple_types<void (__stdcall*)(void)> > >,bool><std::_Tree_const_iterator<std::_Tree_val<std::_Tree_simple_types<void (__stdcall*)(void)> > > &,bool,void,0>
PUBLIC	??$construct@PAUIUnknown@@ABQAU1@@?$allocator_traits@V?$allocator@PAUIUnknown@@@std@@@std@@SAXAAV?$allocator@PAUIUnknown@@@1@PAPAUIUnknown@@ABQAU3@@Z ; std::allocator_traits<std::allocator<IUnknown *> >::construct<IUnknown *,IUnknown * const &>
PUBLIC	??$destroy@PAUIUnknown@@@?$allocator_traits@V?$allocator@PAUIUnknown@@@std@@@std@@SAXAAV?$allocator@PAUIUnknown@@@1@PAPAUIUnknown@@@Z ; std::allocator_traits<std::allocator<IUnknown *> >::destroy<IUnknown *>
PUBLIC	??$forward@AAV?$_Tree_const_iterator@V?$_Tree_val@U?$_Tree_simple_types@P6GXXZ@std@@@std@@@std@@@std@@YAAAV?$_Tree_const_iterator@V?$_Tree_val@U?$_Tree_simple_types@P6GXXZ@std@@@std@@@0@AAV10@@Z ; std::forward<std::_Tree_const_iterator<std::_Tree_val<std::_Tree_simple_types<void (__stdcall*)(void)> > > &>
PUBLIC	??$destroy@PAU?$_Tree_node@P6GXXZPAX@std@@@?$allocator@U?$_Tree_node@P6GXXZPAX@std@@@std@@QAEXPAPAU?$_Tree_node@P6GXXZPAX@1@@Z ; std::allocator<std::_Tree_node<void (__stdcall*)(void),void *> >::destroy<std::_Tree_node<void (__stdcall*)(void),void *> *>
PUBLIC	??$destroy@P6GXXZ@?$allocator@U?$_Tree_node@P6GXXZPAX@std@@@std@@QAEXPAP6GXXZ@Z ; std::allocator<std::_Tree_node<void (__stdcall*)(void),void *> >::destroy<void (__stdcall*)(void)>
PUBLIC	??$forward@_N@std@@YA$$QA_NAA_N@Z		; std::forward<bool>
PUBLIC	??$construct@PAU?$_Tree_node@P6GXXZPAX@std@@AAPAU12@@?$allocator@U?$_Tree_node@P6GXXZPAX@std@@@std@@QAEXPAPAU?$_Tree_node@P6GXXZPAX@1@AAPAU21@@Z ; std::allocator<std::_Tree_node<void (__stdcall*)(void),void *> >::construct<std::_Tree_node<void (__stdcall*)(void),void *> *,std::_Tree_node<void (__stdcall*)(void),void *> * &>
PUBLIC	??$_Unchecked@PAPAUIUnknown@@@std@@YAPAPAUIUnknown@@PAPAU1@@Z ; std::_Unchecked<IUnknown * *>
PUBLIC	??$_Ptr_move_cat@PAUIUnknown@@PAU1@@std@@YA?AU_Really_trivial_ptr_iterator_tag@0@ABQAPAUIUnknown@@0@Z ; std::_Ptr_move_cat<IUnknown *,IUnknown *>
PUBLIC	??$_Uninitialized_move_al_unchecked@PAUIUnknown@@PAU1@V?$allocator@PAUIUnknown@@@std@@@std@@YAPAPAUIUnknown@@PAPAU1@00AAU?$_Wrap_alloc@V?$allocator@PAUIUnknown@@@std@@@0@U_Really_trivial_ptr_iterator_tag@0@U?$integral_constant@_N$00@0@@Z ; std::_Uninitialized_move_al_unchecked<IUnknown *,IUnknown *,std::allocator<IUnknown *> >
PUBLIC	??$_Rechecked@PAPAUIUnknown@@PAPAU1@@std@@YAAAPAPAUIUnknown@@AAPAPAU1@PAPAU1@@Z ; std::_Rechecked<IUnknown * *,IUnknown * *>
PUBLIC	??$construct@P6GXXZAAP6GXXZ@?$allocator_traits@V?$allocator@U?$_Tree_node@P6GXXZPAX@std@@@std@@@std@@SAXAAV?$allocator@U?$_Tree_node@P6GXXZPAX@std@@@1@PAP6GXXZAAP6GXXZ@Z ; std::allocator_traits<std::allocator<std::_Tree_node<void (__stdcall*)(void),void *> > >::construct<void (__stdcall*)(void),void (__stdcall*&)(void)>
PUBLIC	??$_Buynode_if_nil@AAP6GXXZ@?$_Tree@V?$_Tset_traits@P6GXXZU?$less@P6GXXZ@std@@V?$allocator@P6GXXZ@2@$0A@@std@@@std@@IAEPAU?$_Tree_node@P6GXXZPAX@1@PAU21@AAP6GXXZ@Z ; std::_Tree<std::_Tset_traits<void (__stdcall*)(void),std::less<void (__stdcall*)(void)>,std::allocator<void (__stdcall*)(void)>,0> >::_Buynode_if_nil<void (__stdcall*&)(void)>
PUBLIC	??$forward@V?$_Tree_const_iterator@V?$_Tree_val@U?$_Tree_simple_types@P6GXXZ@std@@@std@@@std@@@std@@YA$$QAV?$_Tree_const_iterator@V?$_Tree_val@U?$_Tree_simple_types@P6GXXZ@std@@@std@@@0@AAV10@@Z ; std::forward<std::_Tree_const_iterator<std::_Tree_val<std::_Tree_simple_types<void (__stdcall*)(void)> > > >
PUBLIC	??$construct@PAUIUnknown@@ABQAU1@@?$allocator@PAUIUnknown@@@std@@QAEXPAPAUIUnknown@@ABQAU2@@Z ; std::allocator<IUnknown *>::construct<IUnknown *,IUnknown * const &>
PUBLIC	??$destroy@PAUIUnknown@@@?$allocator@PAUIUnknown@@@std@@QAEXPAPAUIUnknown@@@Z ; std::allocator<IUnknown *>::destroy<IUnknown *>
PUBLIC	??$_Copy_memmove@PAPAUIUnknown@@PAPAU1@@std@@YAPAPAUIUnknown@@PAPAU1@00@Z ; std::_Copy_memmove<IUnknown * *,IUnknown * *>
PUBLIC	??$construct@P6GXXZAAP6GXXZ@?$allocator@U?$_Tree_node@P6GXXZPAX@std@@@std@@QAEXPAP6GXXZAAP6GXXZ@Z ; std::allocator<std::_Tree_node<void (__stdcall*)(void),void *> >::construct<void (__stdcall*)(void),void (__stdcall*&)(void)>
PUBLIC	?atlTraceGeneral@ATL@@3V?$CTraceCategoryEx@$00$0A@@1@A ; ATL::atlTraceGeneral
PUBLIC	?atlTraceCOM@ATL@@3V?$CTraceCategoryEx@$01$0A@@1@A ; ATL::atlTraceCOM
PUBLIC	?atlTraceQI@ATL@@3V?$CTraceCategoryEx@$03$0A@@1@A ; ATL::atlTraceQI
PUBLIC	?atlTraceRegistrar@ATL@@3V?$CTraceCategoryEx@$07$0A@@1@A ; ATL::atlTraceRegistrar
PUBLIC	?atlTraceRefcount@ATL@@3V?$CTraceCategoryEx@$0BA@$0A@@1@A ; ATL::atlTraceRefcount
PUBLIC	?atlTraceWindowing@ATL@@3V?$CTraceCategoryEx@$0CA@$0A@@1@A ; ATL::atlTraceWindowing
PUBLIC	?atlTraceControls@ATL@@3V?$CTraceCategoryEx@$0EA@$0A@@1@A ; ATL::atlTraceControls
PUBLIC	?atlTraceHosting@ATL@@3V?$CTraceCategoryEx@$0IA@$0A@@1@A ; ATL::atlTraceHosting
PUBLIC	?atlTraceDBClient@ATL@@3V?$CTraceCategoryEx@$0BAA@$0A@@1@A ; ATL::atlTraceDBClient
PUBLIC	?atlTraceDBProvider@ATL@@3V?$CTraceCategoryEx@$0CAA@$0A@@1@A ; ATL::atlTraceDBProvider
PUBLIC	?atlTraceSnapin@ATL@@3V?$CTraceCategoryEx@$0EAA@$0A@@1@A ; ATL::atlTraceSnapin
PUBLIC	?atlTraceNotImpl@ATL@@3V?$CTraceCategoryEx@$0IAA@$0A@@1@A ; ATL::atlTraceNotImpl
PUBLIC	?atlTraceAllocation@ATL@@3V?$CTraceCategoryEx@$0BAAA@$0A@@1@A ; ATL::atlTraceAllocation
PUBLIC	?atlTraceException@ATL@@3V?$CTraceCategoryEx@$0CAAA@$0A@@1@A ; ATL::atlTraceException
PUBLIC	?atlTraceTime@ATL@@3V?$CTraceCategoryEx@$0EAAA@$0A@@1@A ; ATL::atlTraceTime
PUBLIC	?atlTraceCache@ATL@@3V?$CTraceCategoryEx@$0IAAA@$0A@@1@A ; ATL::atlTraceCache
PUBLIC	?atlTraceStencil@ATL@@3V?$CTraceCategoryEx@$0BAAAA@$0A@@1@A ; ATL::atlTraceStencil
PUBLIC	?atlTraceString@ATL@@3V?$CTraceCategoryEx@$0CAAAA@$0A@@1@A ; ATL::atlTraceString
PUBLIC	?atlTraceMap@ATL@@3V?$CTraceCategoryEx@$0EAAAA@$0A@@1@A ; ATL::atlTraceMap
PUBLIC	?atlTraceUtil@ATL@@3V?$CTraceCategoryEx@$0IAAAA@$0A@@1@A ; ATL::atlTraceUtil
PUBLIC	?atlTraceSecurity@ATL@@3V?$CTraceCategoryEx@$0BAAAAA@$0A@@1@A ; ATL::atlTraceSecurity
PUBLIC	?atlTraceSync@ATL@@3V?$CTraceCategoryEx@$0CAAAAA@$0A@@1@A ; ATL::atlTraceSync
PUBLIC	?atlTraceISAPI@ATL@@3V?$CTraceCategoryEx@$0EAAAAA@$0A@@1@A ; ATL::atlTraceISAPI
PUBLIC	?m_bInitFailed@CAtlBaseModule@ATL@@2_NA		; ATL::CAtlBaseModule::m_bInitFailed
PUBLIC	?_AtlComModule@ATL@@3VCAtlComModule@1@A		; ATL::_AtlComModule
PUBLIC	?_AtlWinModule@ATL@@3VCAtlWinModule@1@A		; ATL::_AtlWinModule
PUBLIC	__GUID_6f15aaf2_d208_4e89_9ab4_489535d34f9c
PUBLIC	?external_resources@@3V?$vector@PAUIUnknown@@V?$allocator@PAUIUnknown@@@std@@@std@@A ; external_resources
PUBLIC	?reset_callbacks@@3V?$set@P6GXXZU?$less@P6GXXZ@std@@V?$allocator@P6GXXZ@2@@std@@A ; reset_callbacks
PUBLIC	??_C@_0BD@OLBABOEK@vector?$DMT?$DO?5too?5long?$AA@ ; `string'
PUBLIC	__GUID_310d36a0_d2e7_4c0a_aa04_6a9d23b8886a
PUBLIC	__GUID_db6f6ddb_ac77_4e88_8253_819df9bbf140
PUBLIC	__GUID_c0bfa96c_e089_44fb_8eaf_26f8796190da
PUBLIC	??_C@_0BE@JONHPENG@map?1set?$DMT?$DO?5too?5long?$AA@ ; `string'
PUBLIC	__real@3b808081
PUBLIC	__real@3f800000
PUBLIC	__real@bf800000
PUBLIC	__xmm@00000000000000080000000100000000
PUBLIC	__xmm@00000001000000060000000500000001
PUBLIC	__xmm@00000003000000030000000300000015
PUBLIC	__xmm@41f00000000000000000000000000000
EXTRN	??2@YAPAXI@Z:PROC				; operator new
EXTRN	??3@YAXPAX@Z:PROC				; operator delete
EXTRN	_atexit:PROC
EXTRN	___std_terminate:PROC
EXTRN	__imp___invalid_parameter_noinfo_noreturn:PROC
EXTRN	__imp__memmove:PROC
EXTRN	?GetIO@ImGui@@YAAAUImGuiIO@@XZ:PROC		; ImGui::GetIO
EXTRN	?NewFrame@ImGui@@YAXXZ:PROC			; ImGui::NewFrame
EXTRN	?Shutdown@ImGui@@YAXXZ:PROC			; ImGui::Shutdown
EXTRN	?GetTexDataAsRGBA32@ImFontAtlas@@QAEXPAPAEPAH11@Z:PROC ; ImFontAtlas::GetTexDataAsRGBA32
EXTRN	__imp__DecodePointer@4:PROC
EXTRN	__imp__RaiseException@16:PROC
EXTRN	__imp__GetLastError@0:PROC
EXTRN	__imp__QueryPerformanceFrequency@4:PROC
EXTRN	__imp__InitializeCriticalSectionEx@12:PROC
EXTRN	__imp__DeleteCriticalSection@4:PROC
EXTRN	__imp__UnregisterClassW@8:PROC
EXTRN	__imp__free:PROC
EXTRN	?SK_GetCurrentRenderBackend@@YGAAVSK_RenderBackend_V2@@XZ:PROC ; SK_GetCurrentRenderBackend
EXTRN	?SK_COM_ValidateRelease@@YAPAUIUnknown@@PAPAU1@@Z:PROC ; SK_COM_ValidateRelease
EXTRN	__imp_?_Xbad_alloc@std@@YAXXZ:PROC
EXTRN	__imp_?_Xlength_error@std@@YAXPBD@Z:PROC
EXTRN	_D3DCompile@44:PROC
EXTRN	?SK_ImGui_LoadFonts@@YAXXZ:PROC			; SK_ImGui_LoadFonts
EXTRN	?SK_TLS_Bottom@@YGPAUSK_TLS@@XZ:PROC		; SK_TLS_Bottom
EXTRN	?SK_ImGui_PollGamepad@@YAXXZ:PROC		; SK_ImGui_PollGamepad
EXTRN	__CxxThrowException@8:PROC
EXTRN	___CxxFrameHandler3:PROC
EXTRN	__ftoui3:PROC
EXTRN	__ltod3:PROC
EXTRN	_memcpy:PROC
EXTRN	_memset:PROC
EXTRN	?QueryPerformanceCounter_Original@@3P6GHPAT_LARGE_INTEGER@@@ZA:DWORD ; QueryPerformanceCounter_Original
EXTRN	?config@@3Usk_config_t@@A:BYTE			; config
EXTRN	?_AtlBaseModule@ATL@@3VCAtlBaseModule@1@A:BYTE	; ATL::_AtlBaseModule
EXTRN	___ImageBase:BYTE
EXTRN	__fltused:DWORD
;	COMDAT ?atlTraceGeneral@ATL@@3V?$CTraceCategoryEx@$00$0A@@1@A
_BSS	SEGMENT
?atlTraceGeneral@ATL@@3V?$CTraceCategoryEx@$00$0A@@1@A DD 01H DUP (?) ; ATL::atlTraceGeneral
_BSS	ENDS
;	COMDAT ?atlTraceCOM@ATL@@3V?$CTraceCategoryEx@$01$0A@@1@A
_BSS	SEGMENT
?atlTraceCOM@ATL@@3V?$CTraceCategoryEx@$01$0A@@1@A DD 01H DUP (?) ; ATL::atlTraceCOM
_BSS	ENDS
;	COMDAT ?atlTraceQI@ATL@@3V?$CTraceCategoryEx@$03$0A@@1@A
_BSS	SEGMENT
?atlTraceQI@ATL@@3V?$CTraceCategoryEx@$03$0A@@1@A DD 01H DUP (?) ; ATL::atlTraceQI
_BSS	ENDS
;	COMDAT ?atlTraceRegistrar@ATL@@3V?$CTraceCategoryEx@$07$0A@@1@A
_BSS	SEGMENT
?atlTraceRegistrar@ATL@@3V?$CTraceCategoryEx@$07$0A@@1@A DD 01H DUP (?) ; ATL::atlTraceRegistrar
_BSS	ENDS
;	COMDAT ?atlTraceRefcount@ATL@@3V?$CTraceCategoryEx@$0BA@$0A@@1@A
_BSS	SEGMENT
?atlTraceRefcount@ATL@@3V?$CTraceCategoryEx@$0BA@$0A@@1@A DD 01H DUP (?) ; ATL::atlTraceRefcount
_BSS	ENDS
;	COMDAT ?atlTraceWindowing@ATL@@3V?$CTraceCategoryEx@$0CA@$0A@@1@A
_BSS	SEGMENT
?atlTraceWindowing@ATL@@3V?$CTraceCategoryEx@$0CA@$0A@@1@A DD 01H DUP (?) ; ATL::atlTraceWindowing
_BSS	ENDS
;	COMDAT ?atlTraceControls@ATL@@3V?$CTraceCategoryEx@$0EA@$0A@@1@A
_BSS	SEGMENT
?atlTraceControls@ATL@@3V?$CTraceCategoryEx@$0EA@$0A@@1@A DD 01H DUP (?) ; ATL::atlTraceControls
_BSS	ENDS
;	COMDAT ?atlTraceHosting@ATL@@3V?$CTraceCategoryEx@$0IA@$0A@@1@A
_BSS	SEGMENT
?atlTraceHosting@ATL@@3V?$CTraceCategoryEx@$0IA@$0A@@1@A DD 01H DUP (?) ; ATL::atlTraceHosting
_BSS	ENDS
;	COMDAT ?atlTraceDBClient@ATL@@3V?$CTraceCategoryEx@$0BAA@$0A@@1@A
_BSS	SEGMENT
?atlTraceDBClient@ATL@@3V?$CTraceCategoryEx@$0BAA@$0A@@1@A DD 01H DUP (?) ; ATL::atlTraceDBClient
_BSS	ENDS
;	COMDAT ?atlTraceDBProvider@ATL@@3V?$CTraceCategoryEx@$0CAA@$0A@@1@A
_BSS	SEGMENT
?atlTraceDBProvider@ATL@@3V?$CTraceCategoryEx@$0CAA@$0A@@1@A DD 01H DUP (?) ; ATL::atlTraceDBProvider
_BSS	ENDS
;	COMDAT ?atlTraceSnapin@ATL@@3V?$CTraceCategoryEx@$0EAA@$0A@@1@A
_BSS	SEGMENT
?atlTraceSnapin@ATL@@3V?$CTraceCategoryEx@$0EAA@$0A@@1@A DD 01H DUP (?) ; ATL::atlTraceSnapin
_BSS	ENDS
;	COMDAT ?atlTraceNotImpl@ATL@@3V?$CTraceCategoryEx@$0IAA@$0A@@1@A
_BSS	SEGMENT
?atlTraceNotImpl@ATL@@3V?$CTraceCategoryEx@$0IAA@$0A@@1@A DD 01H DUP (?) ; ATL::atlTraceNotImpl
_BSS	ENDS
;	COMDAT ?atlTraceAllocation@ATL@@3V?$CTraceCategoryEx@$0BAAA@$0A@@1@A
_BSS	SEGMENT
?atlTraceAllocation@ATL@@3V?$CTraceCategoryEx@$0BAAA@$0A@@1@A DD 01H DUP (?) ; ATL::atlTraceAllocation
_BSS	ENDS
;	COMDAT ?atlTraceException@ATL@@3V?$CTraceCategoryEx@$0CAAA@$0A@@1@A
_BSS	SEGMENT
?atlTraceException@ATL@@3V?$CTraceCategoryEx@$0CAAA@$0A@@1@A DD 01H DUP (?) ; ATL::atlTraceException
_BSS	ENDS
;	COMDAT ?atlTraceTime@ATL@@3V?$CTraceCategoryEx@$0EAAA@$0A@@1@A
_BSS	SEGMENT
?atlTraceTime@ATL@@3V?$CTraceCategoryEx@$0EAAA@$0A@@1@A DD 01H DUP (?) ; ATL::atlTraceTime
_BSS	ENDS
;	COMDAT ?atlTraceCache@ATL@@3V?$CTraceCategoryEx@$0IAAA@$0A@@1@A
_BSS	SEGMENT
?atlTraceCache@ATL@@3V?$CTraceCategoryEx@$0IAAA@$0A@@1@A DD 01H DUP (?) ; ATL::atlTraceCache
_BSS	ENDS
;	COMDAT ?atlTraceStencil@ATL@@3V?$CTraceCategoryEx@$0BAAAA@$0A@@1@A
_BSS	SEGMENT
?atlTraceStencil@ATL@@3V?$CTraceCategoryEx@$0BAAAA@$0A@@1@A DD 01H DUP (?) ; ATL::atlTraceStencil
_BSS	ENDS
;	COMDAT ?atlTraceString@ATL@@3V?$CTraceCategoryEx@$0CAAAA@$0A@@1@A
_BSS	SEGMENT
?atlTraceString@ATL@@3V?$CTraceCategoryEx@$0CAAAA@$0A@@1@A DD 01H DUP (?) ; ATL::atlTraceString
_BSS	ENDS
;	COMDAT ?atlTraceMap@ATL@@3V?$CTraceCategoryEx@$0EAAAA@$0A@@1@A
_BSS	SEGMENT
?atlTraceMap@ATL@@3V?$CTraceCategoryEx@$0EAAAA@$0A@@1@A DD 01H DUP (?) ; ATL::atlTraceMap
_BSS	ENDS
;	COMDAT ?atlTraceUtil@ATL@@3V?$CTraceCategoryEx@$0IAAAA@$0A@@1@A
_BSS	SEGMENT
?atlTraceUtil@ATL@@3V?$CTraceCategoryEx@$0IAAAA@$0A@@1@A DD 01H DUP (?) ; ATL::atlTraceUtil
_BSS	ENDS
;	COMDAT ?atlTraceSecurity@ATL@@3V?$CTraceCategoryEx@$0BAAAAA@$0A@@1@A
_BSS	SEGMENT
?atlTraceSecurity@ATL@@3V?$CTraceCategoryEx@$0BAAAAA@$0A@@1@A DD 01H DUP (?) ; ATL::atlTraceSecurity
_BSS	ENDS
;	COMDAT ?atlTraceSync@ATL@@3V?$CTraceCategoryEx@$0CAAAAA@$0A@@1@A
_BSS	SEGMENT
?atlTraceSync@ATL@@3V?$CTraceCategoryEx@$0CAAAAA@$0A@@1@A DD 01H DUP (?) ; ATL::atlTraceSync
_BSS	ENDS
;	COMDAT ?atlTraceISAPI@ATL@@3V?$CTraceCategoryEx@$0EAAAAA@$0A@@1@A
_BSS	SEGMENT
?atlTraceISAPI@ATL@@3V?$CTraceCategoryEx@$0EAAAAA@$0A@@1@A DD 01H DUP (?) ; ATL::atlTraceISAPI
_BSS	ENDS
;	COMDAT ?m_bInitFailed@CAtlBaseModule@ATL@@2_NA
_BSS	SEGMENT
?m_bInitFailed@CAtlBaseModule@ATL@@2_NA DB 01H DUP (?)	; ATL::CAtlBaseModule::m_bInitFailed
_BSS	ENDS
;	COMDAT ?_AtlWinModule@ATL@@3VCAtlWinModule@1@A
_BSS	SEGMENT
?_AtlWinModule@ATL@@3VCAtlWinModule@1@A DB 02cH DUP (?)	; ATL::_AtlWinModule
_BSS	ENDS
;	COMDAT ?init@?1??ImGui_ImplDX11_CreateFontsTexture@@YAXXZ@4_NA
_BSS	SEGMENT
?init@?1??ImGui_ImplDX11_CreateFontsTexture@@YAXXZ@4_NA DB 01H DUP (?) ; `ImGui_ImplDX11_CreateFontsTexture'::`2'::init
_BSS	ENDS
;	COMDAT ?pixels@?1??ImGui_ImplDX11_CreateFontsTexture@@YAXXZ@4PAEA
_BSS	SEGMENT
?pixels@?1??ImGui_ImplDX11_CreateFontsTexture@@YAXXZ@4PAEA DD 01H DUP (?) ; `ImGui_ImplDX11_CreateFontsTexture'::`2'::pixels
_BSS	ENDS
;	COMDAT ?width@?1??ImGui_ImplDX11_CreateFontsTexture@@YAXXZ@4HA
_BSS	SEGMENT
?width@?1??ImGui_ImplDX11_CreateFontsTexture@@YAXXZ@4HA DD 01H DUP (?) ; `ImGui_ImplDX11_CreateFontsTexture'::`2'::width
_BSS	ENDS
;	COMDAT ?height@?1??ImGui_ImplDX11_CreateFontsTexture@@YAXXZ@4HA
_BSS	SEGMENT
?height@?1??ImGui_ImplDX11_CreateFontsTexture@@YAXXZ@4HA DD 01H DUP (?) ; `ImGui_ImplDX11_CreateFontsTexture'::`2'::height
_BSS	ENDS
_BSS	SEGMENT
?external_resources@@3V?$vector@PAUIUnknown@@V?$allocator@PAUIUnknown@@@std@@@std@@A DB 0cH DUP (?) ; external_resources
	ALIGN	8

?reset_callbacks@@3V?$set@P6GXXZU?$less@P6GXXZ@std@@V?$allocator@P6GXXZ@2@@std@@A DQ 01H DUP (?) ; reset_callbacks
_BSS	ENDS
;	COMDAT CRT$XCU
CRT$XCU	SEGMENT
?_AtlComModule$initializer$@ATL@@3P6AXXZA DD FLAT:??__E_AtlComModule@ATL@@YAXXZ ; ATL::_AtlComModule$initializer$
CRT$XCU	ENDS
;	COMDAT __xmm@41f00000000000000000000000000000
CONST	SEGMENT
__xmm@41f00000000000000000000000000000 DB 00H, 00H, 00H, 00H, 00H, 00H, 00H
	DB	00H, 00H, 00H, 00H, 00H, 00H, 00H, 0f0H, 'A'
CONST	ENDS
;	COMDAT __xmm@00000003000000030000000300000015
CONST	SEGMENT
__xmm@00000003000000030000000300000015 DB 015H, 00H, 00H, 00H, 03H, 00H, 00H
	DB	00H, 03H, 00H, 00H, 00H, 03H, 00H, 00H, 00H
CONST	ENDS
;	COMDAT __xmm@00000001000000060000000500000001
CONST	SEGMENT
__xmm@00000001000000060000000500000001 DB 01H, 00H, 00H, 00H, 05H, 00H, 00H
	DB	00H, 06H, 00H, 00H, 00H, 01H, 00H, 00H, 00H
CONST	ENDS
;	COMDAT __xmm@00000000000000080000000100000000
CONST	SEGMENT
__xmm@00000000000000080000000100000000 DB 00H, 00H, 00H, 00H, 01H, 00H, 00H
	DB	00H, 08H, 00H, 00H, 00H, 00H, 00H, 00H, 00H
CONST	ENDS
;	COMDAT __real@bf800000
CONST	SEGMENT
__real@bf800000 DD 0bf800000r			; -1
CONST	ENDS
;	COMDAT __real@3f800000
CONST	SEGMENT
__real@3f800000 DD 03f800000r			; 1
CONST	ENDS
;	COMDAT __real@3b808081
CONST	SEGMENT
__real@3b808081 DD 03b808081r			; 0.00392157
CONST	ENDS
;	COMDAT ??_C@_0BE@JONHPENG@map?1set?$DMT?$DO?5too?5long?$AA@
CONST	SEGMENT
??_C@_0BE@JONHPENG@map?1set?$DMT?$DO?5too?5long?$AA@ DB 'map/set<T> too l'
	DB	'ong', 00H					; `string'
CONST	ENDS
;	COMDAT __GUID_c0bfa96c_e089_44fb_8eaf_26f8796190da
CONST	SEGMENT
__GUID_c0bfa96c_e089_44fb_8eaf_26f8796190da DD 0c0bfa96cH
	DW	0e089H
	DW	044fbH
	DB	08eH
	DB	0afH
	DB	026H
	DB	0f8H
	DB	079H
	DB	061H
	DB	090H
	DB	0daH
CONST	ENDS
;	COMDAT __GUID_db6f6ddb_ac77_4e88_8253_819df9bbf140
CONST	SEGMENT
__GUID_db6f6ddb_ac77_4e88_8253_819df9bbf140 DD 0db6f6ddbH
	DW	0ac77H
	DW	04e88H
	DB	082H
	DB	053H
	DB	081H
	DB	09dH
	DB	0f9H
	DB	0bbH
	DB	0f1H
	DB	040H
CONST	ENDS
;	COMDAT __GUID_310d36a0_d2e7_4c0a_aa04_6a9d23b8886a
CONST	SEGMENT
__GUID_310d36a0_d2e7_4c0a_aa04_6a9d23b8886a DD 0310d36a0H
	DW	0d2e7H
	DW	04c0aH
	DB	0aaH
	DB	04H
	DB	06aH
	DB	09dH
	DB	023H
	DB	0b8H
	DB	088H
	DB	06aH
CONST	ENDS
;	COMDAT ??_C@_0BD@OLBABOEK@vector?$DMT?$DO?5too?5long?$AA@
CONST	SEGMENT
??_C@_0BD@OLBABOEK@vector?$DMT?$DO?5too?5long?$AA@ DB 'vector<T> too long'
	DB	00H						; `string'
CONST	ENDS
;	COMDAT ?first@?1??ImGui_ImplDX11_Init@@YA_NPAUIDXGISwapChain@@PAUID3D11Device@@PAUID3D11DeviceContext@@@Z@4_NA
_DATA	SEGMENT
?first@?1??ImGui_ImplDX11_Init@@YA_NPAUIDXGISwapChain@@PAUID3D11Device@@PAUID3D11DeviceContext@@@Z@4_NA DB 01H ; `ImGui_ImplDX11_Init'::`2'::first
_DATA	ENDS
;	COMDAT ?pixelShader@?BE@??ImGui_ImplDX11_CreateDeviceObjects@@YA_NXZ@4PBDB
_DATA	SEGMENT
?pixelShader@?BE@??ImGui_ImplDX11_CreateDeviceObjects@@YA_NXZ@4PBDB DD FLAT:$SG244087 ; `ImGui_ImplDX11_CreateDeviceObjects'::`20'::pixelShader
_DATA	ENDS
;	COMDAT ?vertexShader@?L@??ImGui_ImplDX11_CreateDeviceObjects@@YA_NXZ@4PBDB
_DATA	SEGMENT
?vertexShader@?L@??ImGui_ImplDX11_CreateDeviceObjects@@YA_NXZ@4PBDB DD FLAT:$SG244072 ; `ImGui_ImplDX11_CreateDeviceObjects'::`11'::vertexShader
_DATA	ENDS
;	COMDAT __GUID_6f15aaf2_d208_4e89_9ab4_489535d34f9c
CONST	SEGMENT
__GUID_6f15aaf2_d208_4e89_9ab4_489535d34f9c DD 06f15aaf2H
	DW	0d208H
	DW	04e89H
	DB	09aH
	DB	0b4H
	DB	048H
	DB	095H
	DB	035H
	DB	0d3H
	DB	04fH
	DB	09cH
CONST	ENDS
;	COMDAT ?_AtlComModule@ATL@@3VCAtlComModule@1@A
_DATA	SEGMENT
?_AtlComModule@ATL@@3VCAtlComModule@1@A DB 04H DUP (?)
	DD	FLAT:___ImageBase			; ATL::_AtlComModule
	DD	FLAT:___pobjMapEntryFirst+4
	DD	FLAT:___pobjMapEntryLast
_DATA	ENDS
;	COMDAT xdata$x
xdata$x	SEGMENT
__catchsym$??$_Insert_nohint@AAP6GXXZPAU?$_Tree_node@P6GXXZPAX@std@@@?$_Tree@V?$_Tset_traits@P6GXXZU?$less@P6GXXZ@std@@V?$allocator@P6GXXZ@2@$0A@@std@@@std@@IAE?AU?$pair@V?$_Tree_const_iterator@V?$_Tree_val@U?$_Tree_simple_types@P6GXXZ@std@@@std@@@std@@_N@1@_NAAP6GXXZPAU?$_Tree_node@P6GXXZPAX@1@@Z$51 DD 040H
	DD	00H
	DD	00H
	DD	FLAT:__catch$??$_Insert_nohint@AAP6GXXZPAU?$_Tree_node@P6GXXZPAX@std@@@?$_Tree@V?$_Tset_traits@P6GXXZU?$less@P6GXXZ@std@@V?$allocator@P6GXXZ@2@$0A@@std@@@std@@IAE?AU?$pair@V?$_Tree_const_iterator@V?$_Tree_val@U?$_Tree_simple_types@P6GXXZ@std@@@std@@@std@@_N@1@_NAAP6GXXZPAU?$_Tree_node@P6GXXZPAX@1@@Z$0
__unwindtable$??$_Insert_nohint@AAP6GXXZPAU?$_Tree_node@P6GXXZPAX@std@@@?$_Tree@V?$_Tset_traits@P6GXXZU?$less@P6GXXZ@std@@V?$allocator@P6GXXZ@2@$0A@@std@@@std@@IAE?AU?$pair@V?$_Tree_const_iterator@V?$_Tree_val@U?$_Tree_simple_types@P6GXXZ@std@@@std@@@std@@_N@1@_NAAP6GXXZPAU?$_Tree_node@P6GXXZPAX@1@@Z DD 0ffffffffH
	DD	00H
	DD	0ffffffffH
	DD	00H
__tryblocktable$??$_Insert_nohint@AAP6GXXZPAU?$_Tree_node@P6GXXZPAX@std@@@?$_Tree@V?$_Tset_traits@P6GXXZU?$less@P6GXXZ@std@@V?$allocator@P6GXXZ@2@$0A@@std@@@std@@IAE?AU?$pair@V?$_Tree_const_iterator@V?$_Tree_val@U?$_Tree_simple_types@P6GXXZ@std@@@std@@@std@@_N@1@_NAAP6GXXZPAU?$_Tree_node@P6GXXZPAX@1@@Z DD 00H
	DD	00H
	DD	01H
	DD	01H
	DD	FLAT:__catchsym$??$_Insert_nohint@AAP6GXXZPAU?$_Tree_node@P6GXXZPAX@std@@@?$_Tree@V?$_Tset_traits@P6GXXZU?$less@P6GXXZ@std@@V?$allocator@P6GXXZ@2@$0A@@std@@@std@@IAE?AU?$pair@V?$_Tree_const_iterator@V?$_Tree_val@U?$_Tree_simple_types@P6GXXZ@std@@@std@@@std@@_N@1@_NAAP6GXXZPAU?$_Tree_node@P6GXXZPAX@1@@Z$51
__ehfuncinfo$??$_Insert_nohint@AAP6GXXZPAU?$_Tree_node@P6GXXZPAX@std@@@?$_Tree@V?$_Tset_traits@P6GXXZU?$less@P6GXXZ@std@@V?$allocator@P6GXXZ@2@$0A@@std@@@std@@IAE?AU?$pair@V?$_Tree_const_iterator@V?$_Tree_val@U?$_Tree_simple_types@P6GXXZ@std@@@std@@@std@@_N@1@_NAAP6GXXZPAU?$_Tree_node@P6GXXZPAX@1@@Z DD 019930522H
	DD	02H
	DD	FLAT:__unwindtable$??$_Insert_nohint@AAP6GXXZPAU?$_Tree_node@P6GXXZPAX@std@@@?$_Tree@V?$_Tset_traits@P6GXXZU?$less@P6GXXZ@std@@V?$allocator@P6GXXZ@2@$0A@@std@@@std@@IAE?AU?$pair@V?$_Tree_const_iterator@V?$_Tree_val@U?$_Tree_simple_types@P6GXXZ@std@@@std@@@std@@_N@1@_NAAP6GXXZPAU?$_Tree_node@P6GXXZPAX@1@@Z
	DD	01H
	DD	FLAT:__tryblocktable$??$_Insert_nohint@AAP6GXXZPAU?$_Tree_node@P6GXXZPAX@std@@@?$_Tree@V?$_Tset_traits@P6GXXZU?$less@P6GXXZ@std@@V?$allocator@P6GXXZ@2@$0A@@std@@@std@@IAE?AU?$pair@V?$_Tree_const_iterator@V?$_Tree_val@U?$_Tree_simple_types@P6GXXZ@std@@@std@@@std@@_N@1@_NAAP6GXXZPAU?$_Tree_node@P6GXXZPAX@1@@Z
	DD	2 DUP(00H)
	DD	00H
	DD	01H
xdata$x	ENDS
;	COMDAT xdata$x
xdata$x	SEGMENT
__ehfuncinfo$?clear@?$_Tree@V?$_Tset_traits@P6GXXZU?$less@P6GXXZ@std@@V?$allocator@P6GXXZ@2@$0A@@std@@@std@@QAEXXZ DD 019930522H
	DD	00H
	DD	00H
	DD	2 DUP(00H)
	DD	2 DUP(00H)
	DD	00H
	DD	05H
xdata$x	ENDS
;	COMDAT xdata$x
xdata$x	SEGMENT
__ehfuncinfo$??1?$CComPtr@UID3D11RenderTargetView@@@ATL@@QAE@XZ DD 019930522H
	DD	00H
	DD	00H
	DD	2 DUP(00H)
	DD	2 DUP(00H)
	DD	00H
	DD	05H
xdata$x	ENDS
;	COMDAT xdata$x
xdata$x	SEGMENT
__ehfuncinfo$??1?$CComPtr@UID3D11Texture2D@@@ATL@@QAE@XZ DD 019930522H
	DD	00H
	DD	00H
	DD	2 DUP(00H)
	DD	2 DUP(00H)
	DD	00H
	DD	05H
xdata$x	ENDS
;	COMDAT xdata$x
xdata$x	SEGMENT
__ehfuncinfo$??1?$CComPtr@UID3D11DeviceContext@@@ATL@@QAE@XZ DD 019930522H
	DD	00H
	DD	00H
	DD	2 DUP(00H)
	DD	2 DUP(00H)
	DD	00H
	DD	05H
xdata$x	ENDS
;	COMDAT xdata$x
xdata$x	SEGMENT
__ehfuncinfo$??1?$CComPtr@UID3D11Device@@@ATL@@QAE@XZ DD 019930522H
	DD	00H
	DD	00H
	DD	2 DUP(00H)
	DD	2 DUP(00H)
	DD	00H
	DD	05H
xdata$x	ENDS
;	COMDAT xdata$x
xdata$x	SEGMENT
__ehfuncinfo$??1?$CComPtr@UIDXGISwapChain@@@ATL@@QAE@XZ DD 019930522H
	DD	00H
	DD	00H
	DD	2 DUP(00H)
	DD	2 DUP(00H)
	DD	00H
	DD	05H
xdata$x	ENDS
;	COMDAT xdata$x
xdata$x	SEGMENT
__unwindtable$??__F_AtlComModule@ATL@@YAXXZ DD 0ffffffffH
	DD	FLAT:___std_terminate
__ehfuncinfo$??__F_AtlComModule@ATL@@YAXXZ DD 019930522H
	DD	01H
	DD	FLAT:__unwindtable$??__F_AtlComModule@ATL@@YAXXZ
	DD	2 DUP(00H)
	DD	2 DUP(00H)
	DD	00H
	DD	01H
xdata$x	ENDS
;	COMDAT xdata$x
xdata$x	SEGMENT
__ehfuncinfo$??1CAtlComModule@ATL@@QAE@XZ DD 019930522H
	DD	00H
	DD	00H
	DD	2 DUP(00H)
	DD	2 DUP(00H)
	DD	00H
	DD	05H
xdata$x	ENDS
xdata$x	SEGMENT
__unwindtable$?ImGui_ImplDX11_InvalidateDeviceObjects@@YAXXZ DD 0ffffffffH
	DD	FLAT:__unwindfunclet$?ImGui_ImplDX11_InvalidateDeviceObjects@@YAXXZ$0
__unwindtable$?ImGui_ImplDX11_Shutdown@@YAXXZ DD 0ffffffffH
	DD	FLAT:__unwindfunclet$?ImGui_ImplDX11_Shutdown@@YAXXZ$0
__unwindtable$?ImGui_ImplDX11_CreateDeviceObjects@@YA_NXZ DD 0ffffffffH
	DD	FLAT:__unwindfunclet$?ImGui_ImplDX11_CreateDeviceObjects@@YA_NXZ$0
	DD	00H
	DD	FLAT:__unwindfunclet$?ImGui_ImplDX11_CreateDeviceObjects@@YA_NXZ$1
__unwindtable$?ImGui_ImplDX11_Resize@@YAXPAUIDXGISwapChain@@IIIW4DXGI_FORMAT@@I@Z DD 0ffffffffH
	DD	FLAT:__unwindfunclet$?ImGui_ImplDX11_Resize@@YAXPAUIDXGISwapChain@@IIIW4DXGI_FORMAT@@I@Z$0
	DD	00H
	DD	FLAT:__unwindfunclet$?ImGui_ImplDX11_Resize@@YAXPAUIDXGISwapChain@@IIIW4DXGI_FORMAT@@I@Z$1
	DD	01H
	DD	FLAT:__unwindfunclet$?ImGui_ImplDX11_Resize@@YAXPAUIDXGISwapChain@@IIIW4DXGI_FORMAT@@I@Z$2
__unwindtable$?ImGui_ImplDX11_CreateFontsTexture@@YAXXZ DD 0ffffffffH
	DD	FLAT:__unwindfunclet$?ImGui_ImplDX11_CreateFontsTexture@@YAXXZ$0
	DD	00H
	DD	FLAT:__unwindfunclet$?ImGui_ImplDX11_CreateFontsTexture@@YAXXZ$1
	DD	01H
	DD	FLAT:__unwindfunclet$?ImGui_ImplDX11_CreateFontsTexture@@YAXXZ$2
__ehfuncinfo$?ImGui_ImplDX11_Resize@@YAXPAUIDXGISwapChain@@IIIW4DXGI_FORMAT@@I@Z DD 019930522H
	DD	03H
	DD	FLAT:__unwindtable$?ImGui_ImplDX11_Resize@@YAXPAUIDXGISwapChain@@IIIW4DXGI_FORMAT@@I@Z
	DD	2 DUP(00H)
	DD	2 DUP(00H)
	DD	00H
	DD	01H
__ehfuncinfo$?ImGui_ImplDX11_CreateFontsTexture@@YAXXZ DD 019930522H
	DD	03H
	DD	FLAT:__unwindtable$?ImGui_ImplDX11_CreateFontsTexture@@YAXXZ
	DD	2 DUP(00H)
	DD	2 DUP(00H)
	DD	00H
	DD	01H
__ehfuncinfo$?ImGui_ImplDX11_RenderDrawLists@@YAXPAUImDrawData@@@Z DD 019930522H
	DD	06H
	DD	FLAT:__unwindtable$?ImGui_ImplDX11_RenderDrawLists@@YAXPAUImDrawData@@@Z
	DD	2 DUP(00H)
	DD	2 DUP(00H)
	DD	00H
	DD	01H
__ehfuncinfo$?ImGui_ImplDX11_CreateDeviceObjects@@YA_NXZ DD 019930522H
	DD	02H
	DD	FLAT:__unwindtable$?ImGui_ImplDX11_CreateDeviceObjects@@YA_NXZ
	DD	2 DUP(00H)
	DD	2 DUP(00H)
	DD	00H
	DD	01H
__ehfuncinfo$?ImGui_ImplDX11_InvalidateDeviceObjects@@YAXXZ DD 019930522H
	DD	01H
	DD	FLAT:__unwindtable$?ImGui_ImplDX11_InvalidateDeviceObjects@@YAXXZ
	DD	2 DUP(00H)
	DD	2 DUP(00H)
	DD	00H
	DD	01H
__ehfuncinfo$?ImGui_ImplDX11_Shutdown@@YAXXZ DD 019930522H
	DD	01H
	DD	FLAT:__unwindtable$?ImGui_ImplDX11_Shutdown@@YAXXZ
	DD	2 DUP(00H)
	DD	2 DUP(00H)
	DD	00H
	DD	01H
__unwindtable$?ImGui_ImplDX11_RenderDrawLists@@YAXPAUImDrawData@@@Z DD 0ffffffffH
	DD	FLAT:__unwindfunclet$?ImGui_ImplDX11_RenderDrawLists@@YAXPAUImDrawData@@@Z$0
	DD	00H
	DD	FLAT:__unwindfunclet$?ImGui_ImplDX11_RenderDrawLists@@YAXPAUImDrawData@@@Z$1
	DD	01H
	DD	FLAT:__unwindfunclet$?ImGui_ImplDX11_RenderDrawLists@@YAXPAUImDrawData@@@Z$2
	DD	02H
	DD	FLAT:__unwindfunclet$?ImGui_ImplDX11_RenderDrawLists@@YAXPAUImDrawData@@@Z$3
	DD	03H
	DD	FLAT:__unwindfunclet$?ImGui_ImplDX11_RenderDrawLists@@YAXPAUImDrawData@@@Z$4
	DD	04H
	DD	FLAT:__unwindfunclet$?ImGui_ImplDX11_RenderDrawLists@@YAXPAUImDrawData@@@Z$5
xdata$x	ENDS
;	COMDAT CRT$XCU
CRT$XCU	SEGMENT
?_AtlWinModule$initializer$@ATL@@3P6AXXZA DD FLAT:??__E_AtlWinModule@ATL@@YAXXZ ; ATL::_AtlWinModule$initializer$
CRT$XCU	ENDS
CRT$XCU	SEGMENT
?external_resources$initializer$@@3P6AXXZA DD FLAT:??__Eexternal_resources@@YAXXZ ; external_resources$initializer$
CRT$XCU	ENDS
CRT$XCU	SEGMENT
?reset_callbacks$initializer$@@3P6AXXZA DD FLAT:??__Ereset_callbacks@@YAXXZ ; reset_callbacks$initializer$
CRT$XCU	ENDS
; Function compile flags: /Ogtp
; File c:\program files (x86)\microsoft visual studio\2017\community\vc\tools\msvc\14.10.25017\include\xmemory0
;	COMDAT ??$construct@P6GXXZAAP6GXXZ@?$allocator@U?$_Tree_node@P6GXXZPAX@std@@@std@@QAEXPAP6GXXZAAP6GXXZ@Z
_TEXT	SEGMENT
__Ptr$ = 8						; size = 4
_<_Args_0>$ = 12					; size = 4
??$construct@P6GXXZAAP6GXXZ@?$allocator@U?$_Tree_node@P6GXXZPAX@std@@@std@@QAEXPAP6GXXZAAP6GXXZ@Z PROC ; std::allocator<std::_Tree_node<void (__stdcall*)(void),void *> >::construct<void (__stdcall*)(void),void (__stdcall*&)(void)>, COMDAT
; _this$ = ecx

; 839  : 		{	// construct _Objty(_Types...) at _Ptr

	npad	2
	push	ebp
	mov	ebp, esp

; 840  : 		::new ((void *)_Ptr) _Objty(_STD forward<_Types>(_Args)...);

	mov	ecx, DWORD PTR __Ptr$[ebp]
	test	ecx, ecx
	je	SHORT $LN3@construct
	mov	eax, DWORD PTR _<_Args_0>$[ebp]
	mov	eax, DWORD PTR [eax]
	mov	DWORD PTR [ecx], eax
$LN3@construct:

; 841  : 		}

	pop	ebp
	ret	8
??$construct@P6GXXZAAP6GXXZ@?$allocator@U?$_Tree_node@P6GXXZPAX@std@@@std@@QAEXPAP6GXXZAAP6GXXZ@Z ENDP ; std::allocator<std::_Tree_node<void (__stdcall*)(void),void *> >::construct<void (__stdcall*)(void),void (__stdcall*&)(void)>
_TEXT	ENDS
; Function compile flags: /Ogtp
; File c:\program files (x86)\microsoft visual studio\2017\community\vc\tools\msvc\14.10.25017\include\xutility
;	COMDAT ??$_Copy_memmove@PAPAUIUnknown@@PAPAU1@@std@@YAPAPAUIUnknown@@PAPAU1@00@Z
_TEXT	SEGMENT
__First$ = 8						; size = 4
__Last$ = 12						; size = 4
__Dest$ = 16						; size = 4
??$_Copy_memmove@PAPAUIUnknown@@PAPAU1@@std@@YAPAPAUIUnknown@@PAPAU1@00@Z PROC ; std::_Copy_memmove<IUnknown * *,IUnknown * *>, COMDAT

; 2295 : 	{	// implement copy-like function as memmove

	npad	2
	push	ebp
	mov	ebp, esp

; 2296 : 	const char * const _First_ch = reinterpret_cast<const char *>(_First);
; 2297 : 	const char * const _Last_ch = reinterpret_cast<const char *>(_Last);
; 2298 : 	char * const _Dest_ch = reinterpret_cast<char *>(_Dest);
; 2299 : 	const size_t _Count = _Last_ch - _First_ch;

	mov	eax, DWORD PTR __First$[ebp]
	push	esi

; 2300 : 	_CSTD memmove(_Dest_ch, _First_ch, _Count);

	mov	esi, DWORD PTR __Dest$[ebp]
	push	edi
	mov	edi, DWORD PTR __Last$[ebp]
	sub	edi, eax
	push	edi
	push	eax
	push	esi
	call	DWORD PTR __imp__memmove
	add	esp, 12					; 0000000cH

; 2301 : 	return (reinterpret_cast<_OutIt>(_Dest_ch + _Count));

	lea	eax, DWORD PTR [edi+esi]
	pop	edi
	pop	esi

; 2302 : 	}

	pop	ebp
	ret	0
??$_Copy_memmove@PAPAUIUnknown@@PAPAU1@@std@@YAPAPAUIUnknown@@PAPAU1@00@Z ENDP ; std::_Copy_memmove<IUnknown * *,IUnknown * *>
_TEXT	ENDS
; Function compile flags: /Ogtp
; File c:\program files (x86)\microsoft visual studio\2017\community\vc\tools\msvc\14.10.25017\include\xmemory0
;	COMDAT ??$destroy@PAUIUnknown@@@?$allocator@PAUIUnknown@@@std@@QAEXPAPAUIUnknown@@@Z
_TEXT	SEGMENT
__Ptr$ = 8						; size = 4
??$destroy@PAUIUnknown@@@?$allocator@PAUIUnknown@@@std@@QAEXPAPAUIUnknown@@@Z PROC ; std::allocator<IUnknown *>::destroy<IUnknown *>, COMDAT
; _this$ = ecx

; 846  : 		_Ptr->~_Uty();
; 847  : 		}

	ret	4
??$destroy@PAUIUnknown@@@?$allocator@PAUIUnknown@@@std@@QAEXPAPAUIUnknown@@@Z ENDP ; std::allocator<IUnknown *>::destroy<IUnknown *>
_TEXT	ENDS
; Function compile flags: /Ogtp
; File c:\program files (x86)\microsoft visual studio\2017\community\vc\tools\msvc\14.10.25017\include\xmemory0
;	COMDAT ??$construct@PAUIUnknown@@ABQAU1@@?$allocator@PAUIUnknown@@@std@@QAEXPAPAUIUnknown@@ABQAU2@@Z
_TEXT	SEGMENT
__Ptr$ = 8						; size = 4
_<_Args_0>$ = 12					; size = 4
??$construct@PAUIUnknown@@ABQAU1@@?$allocator@PAUIUnknown@@@std@@QAEXPAPAUIUnknown@@ABQAU2@@Z PROC ; std::allocator<IUnknown *>::construct<IUnknown *,IUnknown * const &>, COMDAT
; _this$ = ecx

; 839  : 		{	// construct _Objty(_Types...) at _Ptr

	npad	2
	push	ebp
	mov	ebp, esp

; 840  : 		::new ((void *)_Ptr) _Objty(_STD forward<_Types>(_Args)...);

	mov	ecx, DWORD PTR __Ptr$[ebp]
	test	ecx, ecx
	je	SHORT $LN3@construct
	mov	eax, DWORD PTR _<_Args_0>$[ebp]
	mov	eax, DWORD PTR [eax]
	mov	DWORD PTR [ecx], eax
$LN3@construct:

; 841  : 		}

	pop	ebp
	ret	8
??$construct@PAUIUnknown@@ABQAU1@@?$allocator@PAUIUnknown@@@std@@QAEXPAPAUIUnknown@@ABQAU2@@Z ENDP ; std::allocator<IUnknown *>::construct<IUnknown *,IUnknown * const &>
_TEXT	ENDS
; Function compile flags: /Ogtp
; File c:\program files (x86)\microsoft visual studio\2017\community\vc\tools\msvc\14.10.25017\include\type_traits
;	COMDAT ??$forward@V?$_Tree_const_iterator@V?$_Tree_val@U?$_Tree_simple_types@P6GXXZ@std@@@std@@@std@@@std@@YA$$QAV?$_Tree_const_iterator@V?$_Tree_val@U?$_Tree_simple_types@P6GXXZ@std@@@std@@@0@AAV10@@Z
_TEXT	SEGMENT
__Arg$ = 8						; size = 4
??$forward@V?$_Tree_const_iterator@V?$_Tree_val@U?$_Tree_simple_types@P6GXXZ@std@@@std@@@std@@@std@@YA$$QAV?$_Tree_const_iterator@V?$_Tree_val@U?$_Tree_simple_types@P6GXXZ@std@@@std@@@0@AAV10@@Z PROC ; std::forward<std::_Tree_const_iterator<std::_Tree_val<std::_Tree_simple_types<void (__stdcall*)(void)> > > >, COMDAT

; 1334 : 	{	// forward an lvalue as either an lvalue or an rvalue

	npad	2
	push	ebp
	mov	ebp, esp

; 1335 : 	return (static_cast<_Ty&&>(_Arg));

	mov	eax, DWORD PTR __Arg$[ebp]

; 1336 : 	}

	pop	ebp
	ret	0
??$forward@V?$_Tree_const_iterator@V?$_Tree_val@U?$_Tree_simple_types@P6GXXZ@std@@@std@@@std@@@std@@YA$$QAV?$_Tree_const_iterator@V?$_Tree_val@U?$_Tree_simple_types@P6GXXZ@std@@@std@@@0@AAV10@@Z ENDP ; std::forward<std::_Tree_const_iterator<std::_Tree_val<std::_Tree_simple_types<void (__stdcall*)(void)> > > >
_TEXT	ENDS
; Function compile flags: /Ogtp
; File c:\program files (x86)\microsoft visual studio\2017\community\vc\tools\msvc\14.10.25017\include\xtree
;	COMDAT ??$_Buynode_if_nil@AAP6GXXZ@?$_Tree@V?$_Tset_traits@P6GXXZU?$less@P6GXXZ@std@@V?$allocator@P6GXXZ@2@$0A@@std@@@std@@IAEPAU?$_Tree_node@P6GXXZPAX@1@PAU21@AAP6GXXZ@Z
_TEXT	SEGMENT
__Node$ = 8						; size = 4
___formal$ = 12						; size = 4
??$_Buynode_if_nil@AAP6GXXZ@?$_Tree@V?$_Tset_traits@P6GXXZU?$less@P6GXXZ@std@@V?$allocator@P6GXXZ@2@$0A@@std@@@std@@IAEPAU?$_Tree_node@P6GXXZPAX@1@PAU21@AAP6GXXZ@Z PROC ; std::_Tree<std::_Tset_traits<void (__stdcall*)(void),std::less<void (__stdcall*)(void)>,std::allocator<void (__stdcall*)(void)>,0> >::_Buynode_if_nil<void (__stdcall*&)(void)>, COMDAT
; _this$ = ecx

; 1637 : 		{	// node exists, just return it

	npad	2
	push	ebp
	mov	ebp, esp

; 1638 : 		return (_Node);

	mov	eax, DWORD PTR __Node$[ebp]

; 1639 : 		}

	pop	ebp
	ret	8
??$_Buynode_if_nil@AAP6GXXZ@?$_Tree@V?$_Tset_traits@P6GXXZU?$less@P6GXXZ@std@@V?$allocator@P6GXXZ@2@$0A@@std@@@std@@IAEPAU?$_Tree_node@P6GXXZPAX@1@PAU21@AAP6GXXZ@Z ENDP ; std::_Tree<std::_Tset_traits<void (__stdcall*)(void),std::less<void (__stdcall*)(void)>,std::allocator<void (__stdcall*)(void)>,0> >::_Buynode_if_nil<void (__stdcall*&)(void)>
_TEXT	ENDS
; Function compile flags: /Ogtp
; File c:\program files (x86)\microsoft visual studio\2017\community\vc\tools\msvc\14.10.25017\include\xmemory0
;	COMDAT ??$construct@P6GXXZAAP6GXXZ@?$allocator_traits@V?$allocator@U?$_Tree_node@P6GXXZPAX@std@@@std@@@std@@SAXAAV?$allocator@U?$_Tree_node@P6GXXZPAX@std@@@1@PAP6GXXZAAP6GXXZ@Z
_TEXT	SEGMENT
__Al$ = 8						; size = 4
__Ptr$ = 12						; size = 4
_<_Args_0>$ = 16					; size = 4
??$construct@P6GXXZAAP6GXXZ@?$allocator_traits@V?$allocator@U?$_Tree_node@P6GXXZPAX@std@@@std@@@std@@SAXAAV?$allocator@U?$_Tree_node@P6GXXZPAX@std@@@1@PAP6GXXZAAP6GXXZ@Z PROC ; std::allocator_traits<std::allocator<std::_Tree_node<void (__stdcall*)(void),void *> > >::construct<void (__stdcall*)(void),void (__stdcall*&)(void)>, COMDAT

; 958  : 		{	// construct _Objty(_Types...) at _Ptr

	npad	2
	push	ebp
	mov	ebp, esp

; 840  : 		::new ((void *)_Ptr) _Objty(_STD forward<_Types>(_Args)...);

	mov	ecx, DWORD PTR __Ptr$[ebp]
	test	ecx, ecx
	je	SHORT $LN8@construct
	mov	eax, DWORD PTR _<_Args_0>$[ebp]
	mov	eax, DWORD PTR [eax]
	mov	DWORD PTR [ecx], eax
$LN8@construct:

; 959  : 		_Al.construct(_Ptr, _STD forward<_Types>(_Args)...);
; 960  : 		}

	pop	ebp
	ret	0
??$construct@P6GXXZAAP6GXXZ@?$allocator_traits@V?$allocator@U?$_Tree_node@P6GXXZPAX@std@@@std@@@std@@SAXAAV?$allocator@U?$_Tree_node@P6GXXZPAX@std@@@1@PAP6GXXZAAP6GXXZ@Z ENDP ; std::allocator_traits<std::allocator<std::_Tree_node<void (__stdcall*)(void),void *> > >::construct<void (__stdcall*)(void),void (__stdcall*&)(void)>
_TEXT	ENDS
; Function compile flags: /Ogtp
; File c:\program files (x86)\microsoft visual studio\2017\community\vc\tools\msvc\14.10.25017\include\xutility
;	COMDAT ??$_Rechecked@PAPAUIUnknown@@PAPAU1@@std@@YAAAPAPAUIUnknown@@AAPAPAU1@PAPAU1@@Z
_TEXT	SEGMENT
__Dest$ = 8						; size = 4
__Src$ = 12						; size = 4
??$_Rechecked@PAPAUIUnknown@@PAPAU1@@std@@YAAAPAPAUIUnknown@@AAPAPAU1@PAPAU1@@Z PROC ; std::_Rechecked<IUnknown * *,IUnknown * *>, COMDAT

; 480  : 	{	// reset checked from unchecked, generic

	npad	2
	push	ebp
	mov	ebp, esp

; 481  : 	_Dest = _Src;

	mov	eax, DWORD PTR __Dest$[ebp]
	mov	ecx, DWORD PTR __Src$[ebp]
	mov	DWORD PTR [eax], ecx

; 482  : 	return (_Dest);
; 483  : 	}

	pop	ebp
	ret	0
??$_Rechecked@PAPAUIUnknown@@PAPAU1@@std@@YAAAPAPAUIUnknown@@AAPAPAU1@PAPAU1@@Z ENDP ; std::_Rechecked<IUnknown * *,IUnknown * *>
_TEXT	ENDS
; Function compile flags: /Ogtp
; File c:\program files (x86)\microsoft visual studio\2017\community\vc\tools\msvc\14.10.25017\include\xmemory
; File c:\program files (x86)\microsoft visual studio\2017\community\vc\tools\msvc\14.10.25017\include\xutility
; File c:\program files (x86)\microsoft visual studio\2017\community\vc\tools\msvc\14.10.25017\include\xmemory
;	COMDAT ??$_Uninitialized_move_al_unchecked@PAUIUnknown@@PAU1@V?$allocator@PAUIUnknown@@@std@@@std@@YAPAPAUIUnknown@@PAPAU1@00AAU?$_Wrap_alloc@V?$allocator@PAUIUnknown@@@std@@@0@U_Really_trivial_ptr_iterator_tag@0@U?$integral_constant@_N$00@0@@Z
_TEXT	SEGMENT
__First$ = 8						; size = 4
__Last$ = 12						; size = 4
__Dest$ = 16						; size = 4
___formal$ = 20						; size = 4
___formal$ = 24						; size = 1
___formal$ = 28						; size = 1
??$_Uninitialized_move_al_unchecked@PAUIUnknown@@PAU1@V?$allocator@PAUIUnknown@@@std@@@std@@YAPAPAUIUnknown@@PAPAU1@00AAU?$_Wrap_alloc@V?$allocator@PAUIUnknown@@@std@@@0@U_Really_trivial_ptr_iterator_tag@0@U?$integral_constant@_N$00@0@@Z PROC ; std::_Uninitialized_move_al_unchecked<IUnknown *,IUnknown *,std::allocator<IUnknown *> >, COMDAT

; 157  : 	{	// move [_First, _Last) to raw _Dest, using default _Alloc construct, memmove optimization

	npad	2
	push	ebp
	mov	ebp, esp
; File c:\program files (x86)\microsoft visual studio\2017\community\vc\tools\msvc\14.10.25017\include\xutility

; 2299 : 	const size_t _Count = _Last_ch - _First_ch;

	mov	eax, DWORD PTR __First$[ebp]
	push	esi

; 2300 : 	_CSTD memmove(_Dest_ch, _First_ch, _Count);

	mov	esi, DWORD PTR __Dest$[ebp]
	push	edi

; 2299 : 	const size_t _Count = _Last_ch - _First_ch;

	mov	edi, DWORD PTR __Last$[ebp]
	sub	edi, eax

; 2300 : 	_CSTD memmove(_Dest_ch, _First_ch, _Count);

	push	edi
	push	eax
	push	esi
	call	DWORD PTR __imp__memmove
	add	esp, 12					; 0000000cH

; 2301 : 	return (reinterpret_cast<_OutIt>(_Dest_ch + _Count));

	lea	eax, DWORD PTR [edi+esi]
	pop	edi
	pop	esi
; File c:\program files (x86)\microsoft visual studio\2017\community\vc\tools\msvc\14.10.25017\include\xmemory

; 159  : 	}

	pop	ebp
	ret	0
??$_Uninitialized_move_al_unchecked@PAUIUnknown@@PAU1@V?$allocator@PAUIUnknown@@@std@@@std@@YAPAPAUIUnknown@@PAPAU1@00AAU?$_Wrap_alloc@V?$allocator@PAUIUnknown@@@std@@@0@U_Really_trivial_ptr_iterator_tag@0@U?$integral_constant@_N$00@0@@Z ENDP ; std::_Uninitialized_move_al_unchecked<IUnknown *,IUnknown *,std::allocator<IUnknown *> >
_TEXT	ENDS
; Function compile flags: /Ogtp
; File c:\program files (x86)\microsoft visual studio\2017\community\vc\tools\msvc\14.10.25017\include\xutility
;	COMDAT ??$_Ptr_move_cat@PAUIUnknown@@PAU1@@std@@YA?AU_Really_trivial_ptr_iterator_tag@0@ABQAPAUIUnknown@@0@Z
_TEXT	SEGMENT
___$ReturnUdt$ = 8					; size = 4
___formal$ = 12						; size = 4
___formal$ = 16						; size = 4
??$_Ptr_move_cat@PAUIUnknown@@PAU1@@std@@YA?AU_Really_trivial_ptr_iterator_tag@0@ABQAPAUIUnknown@@0@Z PROC ; std::_Ptr_move_cat<IUnknown *,IUnknown *>, COMDAT

; 892  : 	{	// return pointer move optimization category for pointers

	npad	2
	push	ebp
	mov	ebp, esp

; 893  : 	return {};

	mov	eax, DWORD PTR ___$ReturnUdt$[ebp]

; 894  : 	}

	pop	ebp
	ret	0
??$_Ptr_move_cat@PAUIUnknown@@PAU1@@std@@YA?AU_Really_trivial_ptr_iterator_tag@0@ABQAPAUIUnknown@@0@Z ENDP ; std::_Ptr_move_cat<IUnknown *,IUnknown *>
_TEXT	ENDS
; Function compile flags: /Ogtp
; File c:\program files (x86)\microsoft visual studio\2017\community\vc\tools\msvc\14.10.25017\include\xutility
;	COMDAT ??$_Unchecked@PAPAUIUnknown@@@std@@YAPAPAUIUnknown@@PAPAU1@@Z
_TEXT	SEGMENT
__Src$ = 8						; size = 4
??$_Unchecked@PAPAUIUnknown@@@std@@YAPAPAUIUnknown@@PAPAU1@@Z PROC ; std::_Unchecked<IUnknown * *>, COMDAT

; 450  : 	{	// construct unchecked from checked, generic

	npad	2
	push	ebp
	mov	ebp, esp

; 451  : 	return (_Src);

	mov	eax, DWORD PTR __Src$[ebp]

; 452  : 	}

	pop	ebp
	ret	0
??$_Unchecked@PAPAUIUnknown@@@std@@YAPAPAUIUnknown@@PAPAU1@@Z ENDP ; std::_Unchecked<IUnknown * *>
_TEXT	ENDS
; Function compile flags: /Ogtp
; File c:\program files (x86)\microsoft visual studio\2017\community\vc\tools\msvc\14.10.25017\include\xmemory0
;	COMDAT ??$construct@PAU?$_Tree_node@P6GXXZPAX@std@@AAPAU12@@?$allocator@U?$_Tree_node@P6GXXZPAX@std@@@std@@QAEXPAPAU?$_Tree_node@P6GXXZPAX@1@AAPAU21@@Z
_TEXT	SEGMENT
__Ptr$ = 8						; size = 4
_<_Args_0>$ = 12					; size = 4
??$construct@PAU?$_Tree_node@P6GXXZPAX@std@@AAPAU12@@?$allocator@U?$_Tree_node@P6GXXZPAX@std@@@std@@QAEXPAPAU?$_Tree_node@P6GXXZPAX@1@AAPAU21@@Z PROC ; std::allocator<std::_Tree_node<void (__stdcall*)(void),void *> >::construct<std::_Tree_node<void (__stdcall*)(void),void *> *,std::_Tree_node<void (__stdcall*)(void),void *> * &>, COMDAT
; _this$ = ecx

; 839  : 		{	// construct _Objty(_Types...) at _Ptr

	npad	2
	push	ebp
	mov	ebp, esp

; 840  : 		::new ((void *)_Ptr) _Objty(_STD forward<_Types>(_Args)...);

	mov	ecx, DWORD PTR __Ptr$[ebp]
	test	ecx, ecx
	je	SHORT $LN3@construct
	mov	eax, DWORD PTR _<_Args_0>$[ebp]
	mov	eax, DWORD PTR [eax]
	mov	DWORD PTR [ecx], eax
$LN3@construct:

; 841  : 		}

	pop	ebp
	ret	8
??$construct@PAU?$_Tree_node@P6GXXZPAX@std@@AAPAU12@@?$allocator@U?$_Tree_node@P6GXXZPAX@std@@@std@@QAEXPAPAU?$_Tree_node@P6GXXZPAX@1@AAPAU21@@Z ENDP ; std::allocator<std::_Tree_node<void (__stdcall*)(void),void *> >::construct<std::_Tree_node<void (__stdcall*)(void),void *> *,std::_Tree_node<void (__stdcall*)(void),void *> * &>
_TEXT	ENDS
; Function compile flags: /Ogtp
; File c:\program files (x86)\microsoft visual studio\2017\community\vc\tools\msvc\14.10.25017\include\type_traits
;	COMDAT ??$forward@_N@std@@YA$$QA_NAA_N@Z
_TEXT	SEGMENT
__Arg$ = 8						; size = 4
??$forward@_N@std@@YA$$QA_NAA_N@Z PROC			; std::forward<bool>, COMDAT

; 1334 : 	{	// forward an lvalue as either an lvalue or an rvalue

	npad	2
	push	ebp
	mov	ebp, esp

; 1335 : 	return (static_cast<_Ty&&>(_Arg));

	mov	eax, DWORD PTR __Arg$[ebp]

; 1336 : 	}

	pop	ebp
	ret	0
??$forward@_N@std@@YA$$QA_NAA_N@Z ENDP			; std::forward<bool>
_TEXT	ENDS
; Function compile flags: /Ogtp
; File c:\program files (x86)\microsoft visual studio\2017\community\vc\tools\msvc\14.10.25017\include\xmemory0
;	COMDAT ??$destroy@P6GXXZ@?$allocator@U?$_Tree_node@P6GXXZPAX@std@@@std@@QAEXPAP6GXXZ@Z
_TEXT	SEGMENT
__Ptr$ = 8						; size = 4
??$destroy@P6GXXZ@?$allocator@U?$_Tree_node@P6GXXZPAX@std@@@std@@QAEXPAP6GXXZ@Z PROC ; std::allocator<std::_Tree_node<void (__stdcall*)(void),void *> >::destroy<void (__stdcall*)(void)>, COMDAT
; _this$ = ecx

; 846  : 		_Ptr->~_Uty();
; 847  : 		}

	ret	4
??$destroy@P6GXXZ@?$allocator@U?$_Tree_node@P6GXXZPAX@std@@@std@@QAEXPAP6GXXZ@Z ENDP ; std::allocator<std::_Tree_node<void (__stdcall*)(void),void *> >::destroy<void (__stdcall*)(void)>
_TEXT	ENDS
; Function compile flags: /Ogtp
; File c:\program files (x86)\microsoft visual studio\2017\community\vc\tools\msvc\14.10.25017\include\xmemory0
;	COMDAT ??$destroy@PAU?$_Tree_node@P6GXXZPAX@std@@@?$allocator@U?$_Tree_node@P6GXXZPAX@std@@@std@@QAEXPAPAU?$_Tree_node@P6GXXZPAX@1@@Z
_TEXT	SEGMENT
__Ptr$ = 8						; size = 4
??$destroy@PAU?$_Tree_node@P6GXXZPAX@std@@@?$allocator@U?$_Tree_node@P6GXXZPAX@std@@@std@@QAEXPAPAU?$_Tree_node@P6GXXZPAX@1@@Z PROC ; std::allocator<std::_Tree_node<void (__stdcall*)(void),void *> >::destroy<std::_Tree_node<void (__stdcall*)(void),void *> *>, COMDAT
; _this$ = ecx

; 846  : 		_Ptr->~_Uty();
; 847  : 		}

	ret	4
??$destroy@PAU?$_Tree_node@P6GXXZPAX@std@@@?$allocator@U?$_Tree_node@P6GXXZPAX@std@@@std@@QAEXPAPAU?$_Tree_node@P6GXXZPAX@1@@Z ENDP ; std::allocator<std::_Tree_node<void (__stdcall*)(void),void *> >::destroy<std::_Tree_node<void (__stdcall*)(void),void *> *>
_TEXT	ENDS
; Function compile flags: /Ogtp
; File c:\program files (x86)\microsoft visual studio\2017\community\vc\tools\msvc\14.10.25017\include\type_traits
;	COMDAT ??$forward@AAV?$_Tree_const_iterator@V?$_Tree_val@U?$_Tree_simple_types@P6GXXZ@std@@@std@@@std@@@std@@YAAAV?$_Tree_const_iterator@V?$_Tree_val@U?$_Tree_simple_types@P6GXXZ@std@@@std@@@0@AAV10@@Z
_TEXT	SEGMENT
__Arg$ = 8						; size = 4
??$forward@AAV?$_Tree_const_iterator@V?$_Tree_val@U?$_Tree_simple_types@P6GXXZ@std@@@std@@@std@@@std@@YAAAV?$_Tree_const_iterator@V?$_Tree_val@U?$_Tree_simple_types@P6GXXZ@std@@@std@@@0@AAV10@@Z PROC ; std::forward<std::_Tree_const_iterator<std::_Tree_val<std::_Tree_simple_types<void (__stdcall*)(void)> > > &>, COMDAT

; 1334 : 	{	// forward an lvalue as either an lvalue or an rvalue

	npad	2
	push	ebp
	mov	ebp, esp

; 1335 : 	return (static_cast<_Ty&&>(_Arg));

	mov	eax, DWORD PTR __Arg$[ebp]

; 1336 : 	}

	pop	ebp
	ret	0
??$forward@AAV?$_Tree_const_iterator@V?$_Tree_val@U?$_Tree_simple_types@P6GXXZ@std@@@std@@@std@@@std@@YAAAV?$_Tree_const_iterator@V?$_Tree_val@U?$_Tree_simple_types@P6GXXZ@std@@@std@@@0@AAV10@@Z ENDP ; std::forward<std::_Tree_const_iterator<std::_Tree_val<std::_Tree_simple_types<void (__stdcall*)(void)> > > &>
_TEXT	ENDS
; Function compile flags: /Ogtp
; File c:\program files (x86)\microsoft visual studio\2017\community\vc\tools\msvc\14.10.25017\include\xmemory0
;	COMDAT ??$destroy@PAUIUnknown@@@?$allocator_traits@V?$allocator@PAUIUnknown@@@std@@@std@@SAXAAV?$allocator@PAUIUnknown@@@1@PAPAUIUnknown@@@Z
_TEXT	SEGMENT
__Al$ = 8						; size = 4
__Ptr$ = 12						; size = 4
??$destroy@PAUIUnknown@@@?$allocator_traits@V?$allocator@PAUIUnknown@@@std@@@std@@SAXAAV?$allocator@PAUIUnknown@@@1@PAPAUIUnknown@@@Z PROC ; std::allocator_traits<std::allocator<IUnknown *> >::destroy<IUnknown *>, COMDAT

; 965  : 		_Al.destroy(_Ptr);
; 966  : 		}

	ret	0
??$destroy@PAUIUnknown@@@?$allocator_traits@V?$allocator@PAUIUnknown@@@std@@@std@@SAXAAV?$allocator@PAUIUnknown@@@1@PAPAUIUnknown@@@Z ENDP ; std::allocator_traits<std::allocator<IUnknown *> >::destroy<IUnknown *>
_TEXT	ENDS
; Function compile flags: /Ogtp
; File c:\program files (x86)\microsoft visual studio\2017\community\vc\tools\msvc\14.10.25017\include\xmemory0
;	COMDAT ??$construct@PAUIUnknown@@ABQAU1@@?$allocator_traits@V?$allocator@PAUIUnknown@@@std@@@std@@SAXAAV?$allocator@PAUIUnknown@@@1@PAPAUIUnknown@@ABQAU3@@Z
_TEXT	SEGMENT
__Al$ = 8						; size = 4
__Ptr$ = 12						; size = 4
_<_Args_0>$ = 16					; size = 4
??$construct@PAUIUnknown@@ABQAU1@@?$allocator_traits@V?$allocator@PAUIUnknown@@@std@@@std@@SAXAAV?$allocator@PAUIUnknown@@@1@PAPAUIUnknown@@ABQAU3@@Z PROC ; std::allocator_traits<std::allocator<IUnknown *> >::construct<IUnknown *,IUnknown * const &>, COMDAT

; 958  : 		{	// construct _Objty(_Types...) at _Ptr

	npad	2
	push	ebp
	mov	ebp, esp

; 840  : 		::new ((void *)_Ptr) _Objty(_STD forward<_Types>(_Args)...);

	mov	ecx, DWORD PTR __Ptr$[ebp]
	test	ecx, ecx
	je	SHORT $LN8@construct
	mov	eax, DWORD PTR _<_Args_0>$[ebp]
	mov	eax, DWORD PTR [eax]
	mov	DWORD PTR [ecx], eax
$LN8@construct:

; 959  : 		_Al.construct(_Ptr, _STD forward<_Types>(_Args)...);
; 960  : 		}

	pop	ebp
	ret	0
??$construct@PAUIUnknown@@ABQAU1@@?$allocator_traits@V?$allocator@PAUIUnknown@@@std@@@std@@SAXAAV?$allocator@PAUIUnknown@@@1@PAPAUIUnknown@@ABQAU3@@Z ENDP ; std::allocator_traits<std::allocator<IUnknown *> >::construct<IUnknown *,IUnknown * const &>
_TEXT	ENDS
; Function compile flags: /Ogtp
; File c:\program files (x86)\microsoft visual studio\2017\community\vc\tools\msvc\14.10.25017\include\utility
;	COMDAT ??$?0AAV?$_Tree_const_iterator@V?$_Tree_val@U?$_Tree_simple_types@P6GXXZ@std@@@std@@@std@@_NX$0A@@?$pair@V?$_Tree_const_iterator@V?$_Tree_val@U?$_Tree_simple_types@P6GXXZ@std@@@std@@@std@@_N@std@@QAE@AAV?$_Tree_const_iterator@V?$_Tree_val@U?$_Tree_simple_types@P6GXXZ@std@@@std@@@1@$$QA_N@Z
_TEXT	SEGMENT
__Val1$ = 8						; size = 4
__Val2$ = 12						; size = 4
??$?0AAV?$_Tree_const_iterator@V?$_Tree_val@U?$_Tree_simple_types@P6GXXZ@std@@@std@@@std@@_NX$0A@@?$pair@V?$_Tree_const_iterator@V?$_Tree_val@U?$_Tree_simple_types@P6GXXZ@std@@@std@@@std@@_N@std@@QAE@AAV?$_Tree_const_iterator@V?$_Tree_val@U?$_Tree_simple_types@P6GXXZ@std@@@std@@@1@$$QA_N@Z PROC ; std::pair<std::_Tree_const_iterator<std::_Tree_val<std::_Tree_simple_types<void (__stdcall*)(void)> > >,bool>::pair<std::_Tree_const_iterator<std::_Tree_val<std::_Tree_simple_types<void (__stdcall*)(void)> > >,bool><std::_Tree_const_iterator<std::_Tree_val<std::_Tree_simple_types<void (__stdcall*)(void)> > > &,bool,void,0>, COMDAT
; _this$ = ecx

; 189  : 		{	// construct from moved values

	npad	2
	push	ebp
	mov	ebp, esp

; 187  : 		: first(_STD forward<_Other1>(_Val1)),

	mov	eax, DWORD PTR __Val1$[ebp]
	mov	eax, DWORD PTR [eax]
	mov	DWORD PTR [ecx], eax

; 188  : 				second(_STD forward<_Other2>(_Val2))

	mov	eax, DWORD PTR __Val2$[ebp]
	mov	al, BYTE PTR [eax]
	mov	BYTE PTR [ecx+4], al

; 190  : 		}

	mov	eax, ecx
	pop	ebp
	ret	8
??$?0AAV?$_Tree_const_iterator@V?$_Tree_val@U?$_Tree_simple_types@P6GXXZ@std@@@std@@@std@@_NX$0A@@?$pair@V?$_Tree_const_iterator@V?$_Tree_val@U?$_Tree_simple_types@P6GXXZ@std@@@std@@@std@@_N@std@@QAE@AAV?$_Tree_const_iterator@V?$_Tree_val@U?$_Tree_simple_types@P6GXXZ@std@@@std@@@1@$$QA_N@Z ENDP ; std::pair<std::_Tree_const_iterator<std::_Tree_val<std::_Tree_simple_types<void (__stdcall*)(void)> > >,bool>::pair<std::_Tree_const_iterator<std::_Tree_val<std::_Tree_simple_types<void (__stdcall*)(void)> > >,bool><std::_Tree_const_iterator<std::_Tree_val<std::_Tree_simple_types<void (__stdcall*)(void)> > > &,bool,void,0>
_TEXT	ENDS
; Function compile flags: /Ogtp
; File c:\program files (x86)\microsoft visual studio\2017\community\vc\tools\msvc\14.10.25017\include\utility
;	COMDAT ??$?0V?$_Tree_const_iterator@V?$_Tree_val@U?$_Tree_simple_types@P6GXXZ@std@@@std@@@std@@_NX$0A@@?$pair@V?$_Tree_const_iterator@V?$_Tree_val@U?$_Tree_simple_types@P6GXXZ@std@@@std@@@std@@_N@std@@QAE@$$QAV?$_Tree_const_iterator@V?$_Tree_val@U?$_Tree_simple_types@P6GXXZ@std@@@std@@@1@$$QA_N@Z
_TEXT	SEGMENT
__Val1$ = 8						; size = 4
__Val2$ = 12						; size = 4
??$?0V?$_Tree_const_iterator@V?$_Tree_val@U?$_Tree_simple_types@P6GXXZ@std@@@std@@@std@@_NX$0A@@?$pair@V?$_Tree_const_iterator@V?$_Tree_val@U?$_Tree_simple_types@P6GXXZ@std@@@std@@@std@@_N@std@@QAE@$$QAV?$_Tree_const_iterator@V?$_Tree_val@U?$_Tree_simple_types@P6GXXZ@std@@@std@@@1@$$QA_N@Z PROC ; std::pair<std::_Tree_const_iterator<std::_Tree_val<std::_Tree_simple_types<void (__stdcall*)(void)> > >,bool>::pair<std::_Tree_const_iterator<std::_Tree_val<std::_Tree_simple_types<void (__stdcall*)(void)> > >,bool><std::_Tree_const_iterator<std::_Tree_val<std::_Tree_simple_types<void (__stdcall*)(void)> > >,bool,void,0>, COMDAT
; _this$ = ecx

; 189  : 		{	// construct from moved values

	npad	2
	push	ebp
	mov	ebp, esp

; 187  : 		: first(_STD forward<_Other1>(_Val1)),

	mov	eax, DWORD PTR __Val1$[ebp]
	mov	eax, DWORD PTR [eax]
	mov	DWORD PTR [ecx], eax

; 188  : 				second(_STD forward<_Other2>(_Val2))

	mov	eax, DWORD PTR __Val2$[ebp]
	mov	al, BYTE PTR [eax]
	mov	BYTE PTR [ecx+4], al

; 190  : 		}

	mov	eax, ecx
	pop	ebp
	ret	8
??$?0V?$_Tree_const_iterator@V?$_Tree_val@U?$_Tree_simple_types@P6GXXZ@std@@@std@@@std@@_NX$0A@@?$pair@V?$_Tree_const_iterator@V?$_Tree_val@U?$_Tree_simple_types@P6GXXZ@std@@@std@@@std@@_N@std@@QAE@$$QAV?$_Tree_const_iterator@V?$_Tree_val@U?$_Tree_simple_types@P6GXXZ@std@@@std@@@1@$$QA_N@Z ENDP ; std::pair<std::_Tree_const_iterator<std::_Tree_val<std::_Tree_simple_types<void (__stdcall*)(void)> > >,bool>::pair<std::_Tree_const_iterator<std::_Tree_val<std::_Tree_simple_types<void (__stdcall*)(void)> > >,bool><std::_Tree_const_iterator<std::_Tree_val<std::_Tree_simple_types<void (__stdcall*)(void)> > >,bool,void,0>
_TEXT	ENDS
; Function compile flags: /Ogtp
; File c:\program files (x86)\microsoft visual studio\2017\community\vc\tools\msvc\14.10.25017\include\xtree
;	COMDAT ??$_Insert_at@AAP6GXXZPAU?$_Tree_node@P6GXXZPAX@std@@@?$_Tree@V?$_Tset_traits@P6GXXZU?$less@P6GXXZ@std@@V?$allocator@P6GXXZ@2@$0A@@std@@@std@@IAE?AV?$_Tree_const_iterator@V?$_Tree_val@U?$_Tree_simple_types@P6GXXZ@std@@@std@@@1@_NPAU?$_Tree_node@P6GXXZPAX@1@AAP6GXXZ1@Z
_TEXT	SEGMENT
___$ReturnUdt$ = 8					; size = 4
__Addleft$ = 12						; size = 1
__Wherenode$ = 16					; size = 4
__Val$ = 20						; size = 4
__Node$ = 24						; size = 4
??$_Insert_at@AAP6GXXZPAU?$_Tree_node@P6GXXZPAX@std@@@?$_Tree@V?$_Tset_traits@P6GXXZU?$less@P6GXXZ@std@@V?$allocator@P6GXXZ@2@$0A@@std@@@std@@IAE?AV?$_Tree_const_iterator@V?$_Tree_val@U?$_Tree_simple_types@P6GXXZ@std@@@std@@@1@_NPAU?$_Tree_node@P6GXXZPAX@1@AAP6GXXZ1@Z PROC ; std::_Tree<std::_Tset_traits<void (__stdcall*)(void),std::less<void (__stdcall*)(void)>,std::allocator<void (__stdcall*)(void)>,0> >::_Insert_at<void (__stdcall*&)(void),std::_Tree_node<void (__stdcall*)(void),void *> *>, COMDAT
; _this$ = ecx

; 1843 : 		{	// add node with value next to _Wherenode, to left if _Addleft

	npad	2
	push	ebp
	mov	ebp, esp
	push	ebx
	push	esi
	push	edi
	mov	edi, ecx

; 1844 : 		if (max_size() - 1 <= this->_Mysize())

	mov	eax, DWORD PTR [edi+4]
	cmp	eax, 214748363				; 0ccccccbH
	jb	SHORT $LN5@Insert_at

; 1845 : 			{	// tree would get too big, fail
; 1846 : 			_Destroy_if_not_nil(_Node);

	push	DWORD PTR __Node$[ebp]
	call	?_Destroy_if_not_nil@?$_Tree@V?$_Tset_traits@P6GXXZU?$less@P6GXXZ@std@@V?$allocator@P6GXXZ@2@$0A@@std@@@std@@IAEXPAU?$_Tree_node@P6GXXZPAX@2@@Z ; std::_Tree<std::_Tset_traits<void (__stdcall*)(void),std::less<void (__stdcall*)(void)>,std::allocator<void (__stdcall*)(void)>,0> >::_Destroy_if_not_nil

; 1847 : 			_Xlength_error("map/set<T> too long");

	push	OFFSET ??_C@_0BE@JONHPENG@map?1set?$DMT?$DO?5too?5long?$AA@
	call	DWORD PTR __imp_?_Xlength_error@std@@YAXPBD@Z
$LN686@Insert_at:
$LN5@Insert_at:

; 1848 : 			}
; 1849 : 		_Nodeptr _Newnode = _Buynode_if_nil(_Node,
; 1850 : 			_STD forward<_Valty>(_Val));
; 1851 : 
; 1852 : 		++this->_Mysize();
; 1853 : 		_Newnode->_Parent = _Wherenode;

	mov	ebx, DWORD PTR __Node$[ebp]
	inc	eax
	mov	DWORD PTR [edi+4], eax
	mov	eax, DWORD PTR __Wherenode$[ebp]
	mov	DWORD PTR [ebx+4], eax

; 1854 : 
; 1855 : 		if (_Wherenode == this->_Myhead())

	mov	ecx, DWORD PTR [edi]
	cmp	eax, ecx
	jne	SHORT $LN6@Insert_at

; 1856 : 			{	// first node in tree, just set head values
; 1857 : 			_Root() = _Newnode;

	mov	DWORD PTR [ecx+4], ebx

; 581  : 		return ((_Nodepref)_Pnode->_Left);

	mov	eax, DWORD PTR [edi]

; 1858 : 			_Lmost() = _Newnode;

	mov	DWORD PTR [eax], ebx

; 1859 : 			_Rmost() = _Newnode;

	mov	eax, DWORD PTR [edi]
	mov	DWORD PTR [eax+8], ebx
	jmp	SHORT $LN11@Insert_at
$LN6@Insert_at:

; 1860 : 			}
; 1861 : 		else if (_Addleft)

	cmp	BYTE PTR __Addleft$[ebp], 0
	je	SHORT $LN8@Insert_at

; 1862 : 			{	// add to left of _Wherenode
; 1863 : 			this->_Left(_Wherenode) = _Newnode;

	mov	DWORD PTR [eax], ebx

; 581  : 		return ((_Nodepref)_Pnode->_Left);

	mov	ecx, DWORD PTR [edi]

; 1864 : 			if (_Wherenode == _Lmost())

	cmp	eax, DWORD PTR [ecx]
	jne	SHORT $LN11@Insert_at

; 1865 : 				_Lmost() = _Newnode;

	mov	DWORD PTR [ecx], ebx

; 1866 : 			}
; 1867 : 		else

	jmp	SHORT $LN11@Insert_at
$LN8@Insert_at:

; 1868 : 			{	// add to right of _Wherenode
; 1869 : 			this->_Right(_Wherenode) = _Newnode;

	mov	DWORD PTR [eax+8], ebx

; 591  : 		return ((_Nodepref)_Pnode->_Right);

	mov	ecx, DWORD PTR [edi]

; 1870 : 			if (_Wherenode == _Rmost())

	cmp	eax, DWORD PTR [ecx+8]
	jne	SHORT $LN11@Insert_at

; 1871 : 				_Rmost() = _Newnode;

	mov	DWORD PTR [ecx+8], ebx
$LN11@Insert_at:

; 1872 : 			}
; 1873 : 
; 1874 : 		for (_Nodeptr _Pnode = _Newnode;
; 1875 : 			this->_Color(this->_Parent(_Pnode)) == this->_Red; )

	mov	eax, DWORD PTR [ebx+4]
	mov	esi, ebx
	cmp	BYTE PTR [eax+12], 0
	jne	$LN3@Insert_at
$LL2@Insert_at:

; 586  : 		return ((_Nodepref)_Pnode->_Parent);

	mov	eax, DWORD PTR [esi+4]

; 581  : 		return ((_Nodepref)_Pnode->_Left);

	mov	edx, DWORD PTR [eax+4]

; 1876 : 			if (this->_Parent(_Pnode)
; 1877 : 				== this->_Left(this->_Parent(this->_Parent(_Pnode))))

	mov	ecx, DWORD PTR [edx]
	cmp	eax, ecx
	jne	SHORT $LN12@Insert_at

; 1878 : 				{	// fixup red-red in left subtree
; 1879 : 				_Wherenode =

	mov	ecx, DWORD PTR [edx+8]

; 1880 : 					this->_Right(this->_Parent(this->_Parent(_Pnode)));
; 1881 : 				if (this->_Color(_Wherenode) == this->_Red)

	cmp	BYTE PTR [ecx+12], 0
	je	SHORT $LN684@Insert_at

; 1882 : 					{	// parent has two red children, blacken both
; 1883 : 					this->_Color(this->_Parent(_Pnode)) = this->_Black;
; 1884 : 					this->_Color(_Wherenode) = this->_Black;
; 1885 : 					this->_Color(this->_Parent(this->_Parent(_Pnode)))
; 1886 : 						= this->_Red;
; 1887 : 					_Pnode = this->_Parent(this->_Parent(_Pnode));
; 1888 : 					}
; 1889 : 				else
; 1890 : 					{	// parent has red and black children
; 1891 : 					if (_Pnode == this->_Right(this->_Parent(_Pnode)))

	cmp	esi, DWORD PTR [eax+8]
	jne	SHORT $LN16@Insert_at

; 1892 : 						{	// rotate right child to left
; 1893 : 						_Pnode = this->_Parent(_Pnode);

	mov	esi, eax

; 1894 : 						_Lrotate(_Pnode);

	mov	ecx, edi
	push	esi
	call	?_Lrotate@?$_Tree@V?$_Tset_traits@P6GXXZU?$less@P6GXXZ@std@@V?$allocator@P6GXXZ@2@$0A@@std@@@std@@IAEXPAU?$_Tree_node@P6GXXZPAX@2@@Z ; std::_Tree<std::_Tset_traits<void (__stdcall*)(void),std::less<void (__stdcall*)(void)>,std::allocator<void (__stdcall*)(void)>,0> >::_Lrotate
$LN16@Insert_at:

; 1895 : 						}
; 1896 : 					this->_Color(this->_Parent(_Pnode)) =

	mov	eax, DWORD PTR [esi+4]
	mov	BYTE PTR [eax+12], 1

; 1897 : 						this->_Black;	// propagate red up
; 1898 : 					this->_Color(this->_Parent(this->_Parent(_Pnode))) =

	mov	eax, DWORD PTR [esi+4]
	mov	eax, DWORD PTR [eax+4]
	mov	BYTE PTR [eax+12], 0

; 1899 : 						this->_Red;
; 1900 : 					_Rrotate(this->_Parent(this->_Parent(_Pnode)));

	mov	eax, DWORD PTR [esi+4]
	mov	ecx, DWORD PTR [eax+4]

; 2128 : 		_Nodeptr _Pnode = this->_Left(_Wherenode);

	mov	edx, DWORD PTR [ecx]

; 2129 : 		this->_Left(_Wherenode) = this->_Right(_Pnode);

	mov	eax, DWORD PTR [edx+8]
	mov	DWORD PTR [ecx], eax

; 576  : 		return ((char&)_Pnode->_Isnil);

	mov	eax, DWORD PTR [edx+8]

; 2131 : 		if (!this->_Isnil(this->_Right(_Pnode)))

	cmp	BYTE PTR [eax+13], 0
	jne	SHORT $LN330@Insert_at

; 2132 : 			this->_Parent(this->_Right(_Pnode)) = _Wherenode;

	mov	DWORD PTR [eax+4], ecx
$LN330@Insert_at:

; 2133 : 		this->_Parent(_Pnode) = this->_Parent(_Wherenode);

	mov	eax, DWORD PTR [ecx+4]
	mov	DWORD PTR [edx+4], eax

; 586  : 		return ((_Nodepref)_Pnode->_Parent);

	mov	eax, DWORD PTR [edi]

; 2135 : 		if (_Wherenode == _Root())

	cmp	ecx, DWORD PTR [eax+4]
	jne	SHORT $LN331@Insert_at

; 2136 : 			_Root() = _Pnode;

	mov	DWORD PTR [eax+4], edx

; 2141 : 
; 2142 : 		this->_Right(_Pnode) = _Wherenode;

	mov	DWORD PTR [edx+8], ecx

; 1901 : 					}
; 1902 : 				}
; 1903 : 			else

	jmp	$LN683@Insert_at
$LN331@Insert_at:

; 591  : 		return ((_Nodepref)_Pnode->_Right);

	mov	eax, DWORD PTR [ecx+4]

; 2137 : 		else if (_Wherenode == this->_Right(this->_Parent(_Wherenode)))

	cmp	ecx, DWORD PTR [eax+8]
	jne	SHORT $LN333@Insert_at

; 2138 : 			this->_Right(this->_Parent(_Wherenode)) = _Pnode;

	mov	DWORD PTR [eax+8], edx

; 2141 : 
; 2142 : 		this->_Right(_Pnode) = _Wherenode;

	mov	DWORD PTR [edx+8], ecx

; 1901 : 					}
; 1902 : 				}
; 1903 : 			else

	jmp	$LN683@Insert_at
$LN333@Insert_at:

; 2140 : 			this->_Left(this->_Parent(_Wherenode)) = _Pnode;

	mov	DWORD PTR [eax], edx

; 2141 : 
; 2142 : 		this->_Right(_Pnode) = _Wherenode;

	mov	DWORD PTR [edx+8], ecx

; 1901 : 					}
; 1902 : 				}
; 1903 : 			else

	jmp	SHORT $LN683@Insert_at
$LN12@Insert_at:

; 1904 : 				{	// fixup red-red in right subtree
; 1905 : 				_Wherenode =
; 1906 : 					this->_Left(this->_Parent(this->_Parent(_Pnode)));
; 1907 : 				if (this->_Color(_Wherenode) == this->_Red)

	cmp	BYTE PTR [ecx+12], 0
	jne	SHORT $LN17@Insert_at
$LN684@Insert_at:

; 1908 : 					{	// parent has two red children, blacken both
; 1909 : 					this->_Color(this->_Parent(_Pnode)) = this->_Black;

	mov	BYTE PTR [eax+12], 1

; 1910 : 					this->_Color(_Wherenode) = this->_Black;

	mov	BYTE PTR [ecx+12], 1

; 1911 : 					this->_Color(this->_Parent(this->_Parent(_Pnode))) =

	mov	eax, DWORD PTR [esi+4]
	mov	eax, DWORD PTR [eax+4]
	mov	BYTE PTR [eax+12], 0

; 1912 : 						this->_Red;
; 1913 : 					_Pnode = this->_Parent(this->_Parent(_Pnode));

	mov	eax, DWORD PTR [esi+4]
	mov	esi, DWORD PTR [eax+4]

; 1914 : 					}
; 1915 : 				else

	jmp	SHORT $LN18@Insert_at
$LN17@Insert_at:

; 1916 : 					{	// parent has red and black children
; 1917 : 					if (_Pnode == this->_Left(this->_Parent(_Pnode)))

	cmp	esi, DWORD PTR [eax]
	jne	SHORT $LN19@Insert_at

; 1918 : 						{	// rotate left child to right
; 1919 : 						_Pnode = this->_Parent(_Pnode);

	mov	esi, eax

; 1920 : 						_Rrotate(_Pnode);

	mov	ecx, edi
	push	esi
	call	?_Rrotate@?$_Tree@V?$_Tset_traits@P6GXXZU?$less@P6GXXZ@std@@V?$allocator@P6GXXZ@2@$0A@@std@@@std@@IAEXPAU?$_Tree_node@P6GXXZPAX@2@@Z ; std::_Tree<std::_Tset_traits<void (__stdcall*)(void),std::less<void (__stdcall*)(void)>,std::allocator<void (__stdcall*)(void)>,0> >::_Rrotate
$LN19@Insert_at:

; 1921 : 						}
; 1922 : 					this->_Color(this->_Parent(_Pnode)) =

	mov	eax, DWORD PTR [esi+4]
	mov	BYTE PTR [eax+12], 1

; 1923 : 						this->_Black;	// propagate red up
; 1924 : 					this->_Color(this->_Parent(this->_Parent(_Pnode))) =

	mov	eax, DWORD PTR [esi+4]
	mov	eax, DWORD PTR [eax+4]
	mov	BYTE PTR [eax+12], 0

; 1925 : 						this->_Red;
; 1926 : 					_Lrotate(this->_Parent(this->_Parent(_Pnode)));

	mov	eax, DWORD PTR [esi+4]
	mov	ecx, DWORD PTR [eax+4]

; 2098 : 		_Nodeptr _Pnode = this->_Right(_Wherenode);

	mov	edx, DWORD PTR [ecx+8]

; 2099 : 		this->_Right(_Wherenode) = this->_Left(_Pnode);

	mov	eax, DWORD PTR [edx]
	mov	DWORD PTR [ecx+8], eax

; 576  : 		return ((char&)_Pnode->_Isnil);

	mov	eax, DWORD PTR [edx]

; 2101 : 		if (!this->_Isnil(this->_Left(_Pnode)))

	cmp	BYTE PTR [eax+13], 0
	jne	SHORT $LN529@Insert_at

; 2102 : 			this->_Parent(this->_Left(_Pnode)) = _Wherenode;

	mov	DWORD PTR [eax+4], ecx
$LN529@Insert_at:

; 2103 : 		this->_Parent(_Pnode) = this->_Parent(_Wherenode);

	mov	eax, DWORD PTR [ecx+4]
	mov	DWORD PTR [edx+4], eax

; 586  : 		return ((_Nodepref)_Pnode->_Parent);

	mov	eax, DWORD PTR [edi]

; 2105 : 		if (_Wherenode == _Root())

	cmp	ecx, DWORD PTR [eax+4]
	jne	SHORT $LN530@Insert_at

; 2106 : 			_Root() = _Pnode;

	mov	DWORD PTR [eax+4], edx

; 2107 : 		else if (_Wherenode == this->_Left(this->_Parent(_Wherenode)))

	jmp	SHORT $LN533@Insert_at
$LN530@Insert_at:

; 581  : 		return ((_Nodepref)_Pnode->_Left);

	mov	eax, DWORD PTR [ecx+4]

; 2107 : 		else if (_Wherenode == this->_Left(this->_Parent(_Wherenode)))

	cmp	ecx, DWORD PTR [eax]
	jne	SHORT $LN532@Insert_at

; 2108 : 			this->_Left(this->_Parent(_Wherenode)) = _Pnode;

	mov	DWORD PTR [eax], edx

; 2109 : 		else

	jmp	SHORT $LN533@Insert_at
$LN532@Insert_at:

; 2110 : 			this->_Right(this->_Parent(_Wherenode)) = _Pnode;

	mov	DWORD PTR [eax+8], edx
$LN533@Insert_at:

; 2111 : 
; 2112 : 		this->_Left(_Pnode) = _Wherenode;

	mov	DWORD PTR [edx], ecx
$LN683@Insert_at:

; 2113 : 		this->_Parent(_Wherenode) = _Pnode;

	mov	DWORD PTR [ecx+4], edx
$LN18@Insert_at:

; 1872 : 			}
; 1873 : 
; 1874 : 		for (_Nodeptr _Pnode = _Newnode;
; 1875 : 			this->_Color(this->_Parent(_Pnode)) == this->_Red; )

	mov	eax, DWORD PTR [esi+4]
	cmp	BYTE PTR [eax+12], 0
	je	$LL2@Insert_at
$LN3@Insert_at:

; 1927 : 					}
; 1928 : 				}
; 1929 : 
; 1930 : 		this->_Color(_Root()) = this->_Black;	// root is always black

	mov	eax, DWORD PTR [edi]
	pop	edi
	pop	esi
	mov	eax, DWORD PTR [eax+4]
	mov	BYTE PTR [eax+12], 1

; 43   : 		: _Ptr(_Pnode)

	mov	eax, DWORD PTR ___$ReturnUdt$[ebp]
	mov	DWORD PTR [eax], ebx
	pop	ebx

; 1931 : 		return (iterator(_Newnode, _STD addressof(this->_Get_data())));
; 1932 : 		}

	pop	ebp
	ret	20					; 00000014H
$LN685@Insert_at:
??$_Insert_at@AAP6GXXZPAU?$_Tree_node@P6GXXZPAX@std@@@?$_Tree@V?$_Tset_traits@P6GXXZU?$less@P6GXXZ@std@@V?$allocator@P6GXXZ@2@$0A@@std@@@std@@IAE?AV?$_Tree_const_iterator@V?$_Tree_val@U?$_Tree_simple_types@P6GXXZ@std@@@std@@@1@_NPAU?$_Tree_node@P6GXXZPAX@1@AAP6GXXZ1@Z ENDP ; std::_Tree<std::_Tset_traits<void (__stdcall*)(void),std::less<void (__stdcall*)(void)>,std::allocator<void (__stdcall*)(void)>,0> >::_Insert_at<void (__stdcall*&)(void),std::_Tree_node<void (__stdcall*)(void),void *> *>
_TEXT	ENDS
; Function compile flags: /Ogtp
; File c:\program files (x86)\microsoft visual studio\2017\community\vc\tools\msvc\14.10.25017\include\xmemory0
;	COMDAT ??$construct@P6GXXZAAP6GXXZ@?$_Wrap_alloc@V?$allocator@U?$_Tree_node@P6GXXZPAX@std@@@std@@@std@@QAEXPAP6GXXZAAP6GXXZ@Z
_TEXT	SEGMENT
__Ptr$ = 8						; size = 4
_<_Args_0>$ = 12					; size = 4
??$construct@P6GXXZAAP6GXXZ@?$_Wrap_alloc@V?$allocator@U?$_Tree_node@P6GXXZPAX@std@@@std@@@std@@QAEXPAP6GXXZAAP6GXXZ@Z PROC ; std::_Wrap_alloc<std::allocator<std::_Tree_node<void (__stdcall*)(void),void *> > >::construct<void (__stdcall*)(void),void (__stdcall*&)(void)>, COMDAT
; _this$ = ecx

; 1095 : 		{	// construct _Ty(_Types...) at _Ptr

	npad	2
	push	ebp
	mov	ebp, esp

; 840  : 		::new ((void *)_Ptr) _Objty(_STD forward<_Types>(_Args)...);

	mov	ecx, DWORD PTR __Ptr$[ebp]
	test	ecx, ecx
	je	SHORT $LN13@construct
	mov	eax, DWORD PTR _<_Args_0>$[ebp]
	mov	eax, DWORD PTR [eax]
	mov	DWORD PTR [ecx], eax
$LN13@construct:

; 1096 : 		_Mytraits::construct(*this, _Ptr,
; 1097 : 			_STD forward<_Types>(_Args)...);
; 1098 : 		}

	pop	ebp
	ret	8
??$construct@P6GXXZAAP6GXXZ@?$_Wrap_alloc@V?$allocator@U?$_Tree_node@P6GXXZPAX@std@@@std@@@std@@QAEXPAP6GXXZAAP6GXXZ@Z ENDP ; std::_Wrap_alloc<std::allocator<std::_Tree_node<void (__stdcall*)(void),void *> > >::construct<void (__stdcall*)(void),void (__stdcall*&)(void)>
_TEXT	ENDS
; Function compile flags: /Ogtp
; File c:\program files (x86)\microsoft visual studio\2017\community\vc\tools\msvc\14.10.25017\include\xmemory
; File c:\program files (x86)\microsoft visual studio\2017\community\vc\tools\msvc\14.10.25017\include\xutility
; File c:\program files (x86)\microsoft visual studio\2017\community\vc\tools\msvc\14.10.25017\include\xmemory
;	COMDAT ??$_Uninitialized_move@PAPAUIUnknown@@PAPAU1@V?$allocator@PAUIUnknown@@@std@@@std@@YAPAPAUIUnknown@@PAPAU1@00AAU?$_Wrap_alloc@V?$allocator@PAUIUnknown@@@std@@@0@@Z
_TEXT	SEGMENT
__First$ = 8						; size = 4
__Last$ = 12						; size = 4
__Dest$ = 16						; size = 4
__Al$ = 20						; size = 4
??$_Uninitialized_move@PAPAUIUnknown@@PAPAU1@V?$allocator@PAUIUnknown@@@std@@@std@@YAPAPAUIUnknown@@PAPAU1@00AAU?$_Wrap_alloc@V?$allocator@PAUIUnknown@@@std@@@0@@Z PROC ; std::_Uninitialized_move<IUnknown * *,IUnknown * *,std::allocator<IUnknown *> >, COMDAT

; 166  : 	{	// move [_First, _Last) to raw _Dest, using _Al

	npad	2
	push	ebp
	mov	ebp, esp
; File c:\program files (x86)\microsoft visual studio\2017\community\vc\tools\msvc\14.10.25017\include\xutility

; 2299 : 	const size_t _Count = _Last_ch - _First_ch;

	mov	eax, DWORD PTR __First$[ebp]
	push	esi

; 2300 : 	_CSTD memmove(_Dest_ch, _First_ch, _Count);

	mov	esi, DWORD PTR __Dest$[ebp]
	push	edi

; 2299 : 	const size_t _Count = _Last_ch - _First_ch;

	mov	edi, DWORD PTR __Last$[ebp]
	sub	edi, eax

; 2300 : 	_CSTD memmove(_Dest_ch, _First_ch, _Count);

	push	edi
	push	eax
	push	esi
	call	DWORD PTR __imp__memmove
	add	esp, 12					; 0000000cH

; 2301 : 	return (reinterpret_cast<_OutIt>(_Dest_ch + _Count));

	lea	eax, DWORD PTR [edi+esi]
	pop	edi
	pop	esi
; File c:\program files (x86)\microsoft visual studio\2017\community\vc\tools\msvc\14.10.25017\include\xmemory

; 176  : 	}

	pop	ebp
	ret	0
??$_Uninitialized_move@PAPAUIUnknown@@PAPAU1@V?$allocator@PAUIUnknown@@@std@@@std@@YAPAPAUIUnknown@@PAPAU1@00AAU?$_Wrap_alloc@V?$allocator@PAUIUnknown@@@std@@@0@@Z ENDP ; std::_Uninitialized_move<IUnknown * *,IUnknown * *,std::allocator<IUnknown *> >
_TEXT	ENDS
; Function compile flags: /Ogtp
; File c:\program files (x86)\microsoft visual studio\2017\community\vc\tools\msvc\14.10.25017\include\xmemory0
;	COMDAT ??$construct@PAU?$_Tree_node@P6GXXZPAX@std@@AAPAU12@@?$allocator_traits@V?$allocator@U?$_Tree_node@P6GXXZPAX@std@@@std@@@std@@SAXAAV?$allocator@U?$_Tree_node@P6GXXZPAX@std@@@1@PAPAU?$_Tree_node@P6GXXZPAX@1@AAPAU31@@Z
_TEXT	SEGMENT
__Al$ = 8						; size = 4
__Ptr$ = 12						; size = 4
_<_Args_0>$ = 16					; size = 4
??$construct@PAU?$_Tree_node@P6GXXZPAX@std@@AAPAU12@@?$allocator_traits@V?$allocator@U?$_Tree_node@P6GXXZPAX@std@@@std@@@std@@SAXAAV?$allocator@U?$_Tree_node@P6GXXZPAX@std@@@1@PAPAU?$_Tree_node@P6GXXZPAX@1@AAPAU31@@Z PROC ; std::allocator_traits<std::allocator<std::_Tree_node<void (__stdcall*)(void),void *> > >::construct<std::_Tree_node<void (__stdcall*)(void),void *> *,std::_Tree_node<void (__stdcall*)(void),void *> * &>, COMDAT

; 958  : 		{	// construct _Objty(_Types...) at _Ptr

	npad	2
	push	ebp
	mov	ebp, esp

; 840  : 		::new ((void *)_Ptr) _Objty(_STD forward<_Types>(_Args)...);

	mov	ecx, DWORD PTR __Ptr$[ebp]
	test	ecx, ecx
	je	SHORT $LN8@construct
	mov	eax, DWORD PTR _<_Args_0>$[ebp]
	mov	eax, DWORD PTR [eax]
	mov	DWORD PTR [ecx], eax
$LN8@construct:

; 959  : 		_Al.construct(_Ptr, _STD forward<_Types>(_Args)...);
; 960  : 		}

	pop	ebp
	ret	0
??$construct@PAU?$_Tree_node@P6GXXZPAX@std@@AAPAU12@@?$allocator_traits@V?$allocator@U?$_Tree_node@P6GXXZPAX@std@@@std@@@std@@SAXAAV?$allocator@U?$_Tree_node@P6GXXZPAX@std@@@1@PAPAU?$_Tree_node@P6GXXZPAX@1@AAPAU31@@Z ENDP ; std::allocator_traits<std::allocator<std::_Tree_node<void (__stdcall*)(void),void *> > >::construct<std::_Tree_node<void (__stdcall*)(void),void *> *,std::_Tree_node<void (__stdcall*)(void),void *> * &>
_TEXT	ENDS
; Function compile flags: /Ogtp
; File c:\program files (x86)\microsoft visual studio\2017\community\vc\tools\msvc\14.10.25017\include\type_traits
;	COMDAT ??$forward@AAPAU?$_Tree_node@P6GXXZPAX@std@@@std@@YAAAPAU?$_Tree_node@P6GXXZPAX@0@AAPAU10@@Z
_TEXT	SEGMENT
__Arg$ = 8						; size = 4
??$forward@AAPAU?$_Tree_node@P6GXXZPAX@std@@@std@@YAAAPAU?$_Tree_node@P6GXXZPAX@0@AAPAU10@@Z PROC ; std::forward<std::_Tree_node<void (__stdcall*)(void),void *> * &>, COMDAT

; 1334 : 	{	// forward an lvalue as either an lvalue or an rvalue

	npad	2
	push	ebp
	mov	ebp, esp

; 1335 : 	return (static_cast<_Ty&&>(_Arg));

	mov	eax, DWORD PTR __Arg$[ebp]

; 1336 : 	}

	pop	ebp
	ret	0
??$forward@AAPAU?$_Tree_node@P6GXXZPAX@std@@@std@@YAAAPAU?$_Tree_node@P6GXXZPAX@0@AAPAU10@@Z ENDP ; std::forward<std::_Tree_node<void (__stdcall*)(void),void *> * &>
_TEXT	ENDS
; Function compile flags: /Ogtp
; File c:\program files (x86)\microsoft visual studio\2017\community\vc\tools\msvc\14.10.25017\include\xmemory0
;	COMDAT ??$destroy@P6GXXZ@?$allocator_traits@V?$allocator@U?$_Tree_node@P6GXXZPAX@std@@@std@@@std@@SAXAAV?$allocator@U?$_Tree_node@P6GXXZPAX@std@@@1@PAP6GXXZ@Z
_TEXT	SEGMENT
__Al$ = 8						; size = 4
__Ptr$ = 12						; size = 4
??$destroy@P6GXXZ@?$allocator_traits@V?$allocator@U?$_Tree_node@P6GXXZPAX@std@@@std@@@std@@SAXAAV?$allocator@U?$_Tree_node@P6GXXZPAX@std@@@1@PAP6GXXZ@Z PROC ; std::allocator_traits<std::allocator<std::_Tree_node<void (__stdcall*)(void),void *> > >::destroy<void (__stdcall*)(void)>, COMDAT

; 965  : 		_Al.destroy(_Ptr);
; 966  : 		}

	ret	0
??$destroy@P6GXXZ@?$allocator_traits@V?$allocator@U?$_Tree_node@P6GXXZPAX@std@@@std@@@std@@SAXAAV?$allocator@U?$_Tree_node@P6GXXZPAX@std@@@1@PAP6GXXZ@Z ENDP ; std::allocator_traits<std::allocator<std::_Tree_node<void (__stdcall*)(void),void *> > >::destroy<void (__stdcall*)(void)>
_TEXT	ENDS
; Function compile flags: /Ogtp
; File c:\program files (x86)\microsoft visual studio\2017\community\vc\tools\msvc\14.10.25017\include\type_traits
;	COMDAT ??$move@AAD@std@@YA$$QADAAD@Z
_TEXT	SEGMENT
__Arg$ = 8						; size = 4
??$move@AAD@std@@YA$$QADAAD@Z PROC			; std::move<char &>, COMDAT

; 1350 : 	{	// forward _Arg as movable

	npad	2
	push	ebp
	mov	ebp, esp

; 1351 : 	return (static_cast<typename remove_reference<_Ty>::type&&>(_Arg));

	mov	eax, DWORD PTR __Arg$[ebp]

; 1352 : 	}

	pop	ebp
	ret	0
??$move@AAD@std@@YA$$QADAAD@Z ENDP			; std::move<char &>
_TEXT	ENDS
; Function compile flags: /Ogtp
; File c:\program files (x86)\microsoft visual studio\2017\community\vc\tools\msvc\14.10.25017\include\xutility
; File c:\program files (x86)\microsoft visual studio\2017\community\vc\tools\msvc\14.10.25017\include\xtree
; File c:\program files (x86)\microsoft visual studio\2017\community\vc\tools\msvc\14.10.25017\include\xutility
; File c:\program files (x86)\microsoft visual studio\2017\community\vc\tools\msvc\14.10.25017\include\xtree
; File c:\program files (x86)\microsoft visual studio\2017\community\vc\tools\msvc\14.10.25017\include\xutility
;	COMDAT ??$?0$$V@?$_Compressed_pair@U?$_Wrap_alloc@V?$allocator@U?$_Tree_node@P6GXXZPAX@std@@@std@@@std@@V?$_Tree_val@U?$_Tree_simple_types@P6GXXZ@std@@@2@$00@std@@QAE@U_Zero_then_variadic_args_t@1@@Z
_TEXT	SEGMENT
___formal$ = 8						; size = 1
??$?0$$V@?$_Compressed_pair@U?$_Wrap_alloc@V?$allocator@U?$_Tree_node@P6GXXZPAX@std@@@std@@@std@@V?$_Tree_val@U?$_Tree_simple_types@P6GXXZ@std@@@2@$00@std@@QAE@U_Zero_then_variadic_args_t@1@@Z PROC ; std::_Compressed_pair<std::_Wrap_alloc<std::allocator<std::_Tree_node<void (__stdcall*)(void),void *> > >,std::_Tree_val<std::_Tree_simple_types<void (__stdcall*)(void)> >,1>::_Compressed_pair<std::_Wrap_alloc<std::allocator<std::_Tree_node<void (__stdcall*)(void),void *> > >,std::_Tree_val<std::_Tree_simple_types<void (__stdcall*)(void)> >,1><>, COMDAT
; _this$ = ecx
; File c:\program files (x86)\microsoft visual studio\2017\community\vc\tools\msvc\14.10.25017\include\xtree

; 560  : 		: _Myhead(),

	mov	DWORD PTR [ecx], 0
; File c:\program files (x86)\microsoft visual studio\2017\community\vc\tools\msvc\14.10.25017\include\xutility

; 304  : 		}

	mov	eax, ecx
; File c:\program files (x86)\microsoft visual studio\2017\community\vc\tools\msvc\14.10.25017\include\xtree

; 561  : 		_Mysize(0)

	mov	DWORD PTR [ecx+4], 0
; File c:\program files (x86)\microsoft visual studio\2017\community\vc\tools\msvc\14.10.25017\include\xutility

; 304  : 		}

	ret	4
??$?0$$V@?$_Compressed_pair@U?$_Wrap_alloc@V?$allocator@U?$_Tree_node@P6GXXZPAX@std@@@std@@@std@@V?$_Tree_val@U?$_Tree_simple_types@P6GXXZ@std@@@2@$00@std@@QAE@U_Zero_then_variadic_args_t@1@@Z ENDP ; std::_Compressed_pair<std::_Wrap_alloc<std::allocator<std::_Tree_node<void (__stdcall*)(void),void *> > >,std::_Tree_val<std::_Tree_simple_types<void (__stdcall*)(void)> >,1>::_Compressed_pair<std::_Wrap_alloc<std::allocator<std::_Tree_node<void (__stdcall*)(void),void *> > >,std::_Tree_val<std::_Tree_simple_types<void (__stdcall*)(void)> >,1><>
_TEXT	ENDS
; Function compile flags: /Ogtp
; File c:\program files (x86)\microsoft visual studio\2017\community\vc\tools\msvc\14.10.25017\include\type_traits
;	COMDAT ??$forward@U_Zero_then_variadic_args_t@std@@@std@@YA$$QAU_Zero_then_variadic_args_t@0@AAU10@@Z
_TEXT	SEGMENT
__Arg$ = 8						; size = 4
??$forward@U_Zero_then_variadic_args_t@std@@@std@@YA$$QAU_Zero_then_variadic_args_t@0@AAU10@@Z PROC ; std::forward<std::_Zero_then_variadic_args_t>, COMDAT

; 1334 : 	{	// forward an lvalue as either an lvalue or an rvalue

	npad	2
	push	ebp
	mov	ebp, esp

; 1335 : 	return (static_cast<_Ty&&>(_Arg));

	mov	eax, DWORD PTR __Arg$[ebp]

; 1336 : 	}

	pop	ebp
	ret	0
??$forward@U_Zero_then_variadic_args_t@std@@@std@@YA$$QAU_Zero_then_variadic_args_t@0@AAU10@@Z ENDP ; std::forward<std::_Zero_then_variadic_args_t>
_TEXT	ENDS
; Function compile flags: /Ogtp
; File c:\program files (x86)\microsoft visual studio\2017\community\vc\tools\msvc\14.10.25017\include\type_traits
;	COMDAT ??$forward@ABU?$less@P6GXXZ@std@@@std@@YAABU?$less@P6GXXZ@0@ABU10@@Z
_TEXT	SEGMENT
__Arg$ = 8						; size = 4
??$forward@ABU?$less@P6GXXZ@std@@@std@@YAABU?$less@P6GXXZ@0@ABU10@@Z PROC ; std::forward<std::less<void (__stdcall*)(void)> const &>, COMDAT

; 1334 : 	{	// forward an lvalue as either an lvalue or an rvalue

	npad	2
	push	ebp
	mov	ebp, esp

; 1335 : 	return (static_cast<_Ty&&>(_Arg));

	mov	eax, DWORD PTR __Arg$[ebp]

; 1336 : 	}

	pop	ebp
	ret	0
??$forward@ABU?$less@P6GXXZ@std@@@std@@YAABU?$less@P6GXXZ@0@ABU10@@Z ENDP ; std::forward<std::less<void (__stdcall*)(void)> const &>
_TEXT	ENDS
; Function compile flags: /Ogtp
; File c:\program files (x86)\microsoft visual studio\2017\community\vc\tools\msvc\14.10.25017\include\xmemory0
;	COMDAT ??$destroy@PAU?$_Tree_node@P6GXXZPAX@std@@@?$allocator_traits@V?$allocator@U?$_Tree_node@P6GXXZPAX@std@@@std@@@std@@SAXAAV?$allocator@U?$_Tree_node@P6GXXZPAX@std@@@1@PAPAU?$_Tree_node@P6GXXZPAX@1@@Z
_TEXT	SEGMENT
__Al$ = 8						; size = 4
__Ptr$ = 12						; size = 4
??$destroy@PAU?$_Tree_node@P6GXXZPAX@std@@@?$allocator_traits@V?$allocator@U?$_Tree_node@P6GXXZPAX@std@@@std@@@std@@SAXAAV?$allocator@U?$_Tree_node@P6GXXZPAX@std@@@1@PAPAU?$_Tree_node@P6GXXZPAX@1@@Z PROC ; std::allocator_traits<std::allocator<std::_Tree_node<void (__stdcall*)(void),void *> > >::destroy<std::_Tree_node<void (__stdcall*)(void),void *> *>, COMDAT

; 965  : 		_Al.destroy(_Ptr);
; 966  : 		}

	ret	0
??$destroy@PAU?$_Tree_node@P6GXXZPAX@std@@@?$allocator_traits@V?$allocator@U?$_Tree_node@P6GXXZPAX@std@@@std@@@std@@SAXAAV?$allocator@U?$_Tree_node@P6GXXZPAX@std@@@1@PAPAU?$_Tree_node@P6GXXZPAX@1@@Z ENDP ; std::allocator_traits<std::allocator<std::_Tree_node<void (__stdcall*)(void),void *> > >::destroy<std::_Tree_node<void (__stdcall*)(void),void *> *>
_TEXT	ENDS
; Function compile flags: /Ogtp
; File c:\program files (x86)\microsoft visual studio\2017\community\vc\tools\msvc\14.10.25017\include\xmemory0
;	COMDAT ??$_Destroy_range1@V?$allocator@PAUIUnknown@@@std@@PAPAUIUnknown@@@std@@YAXPAPAUIUnknown@@0AAU?$_Wrap_alloc@V?$allocator@PAUIUnknown@@@std@@@0@U?$integral_constant@_N$00@0@@Z
_TEXT	SEGMENT
___formal$ = 8						; size = 4
___formal$ = 12						; size = 4
___formal$ = 16						; size = 4
___formal$ = 20						; size = 1
??$_Destroy_range1@V?$allocator@PAUIUnknown@@@std@@PAPAUIUnknown@@@std@@YAXPAPAUIUnknown@@0AAU?$_Wrap_alloc@V?$allocator@PAUIUnknown@@@std@@@0@U?$integral_constant@_N$00@0@@Z PROC ; std::_Destroy_range1<std::allocator<IUnknown *>,IUnknown * *>, COMDAT

; 1208 : 		// nothing to do
; 1209 : 	}

	ret	0
??$_Destroy_range1@V?$allocator@PAUIUnknown@@@std@@PAPAUIUnknown@@@std@@YAXPAPAUIUnknown@@0AAU?$_Wrap_alloc@V?$allocator@PAUIUnknown@@@std@@@0@U?$integral_constant@_N$00@0@@Z ENDP ; std::_Destroy_range1<std::allocator<IUnknown *>,IUnknown * *>
_TEXT	ENDS
; Function compile flags: /Ogtp
; File c:\program files (x86)\microsoft visual studio\2017\community\vc\tools\msvc\14.10.25017\include\xstddef
;	COMDAT ??$addressof@$$CBV?$_Tree_val@U?$_Tree_simple_types@P6GXXZ@std@@@std@@@std@@YAPBV?$_Tree_val@U?$_Tree_simple_types@P6GXXZ@std@@@0@ABV10@@Z
_TEXT	SEGMENT
__Val$ = 8						; size = 4
??$addressof@$$CBV?$_Tree_val@U?$_Tree_simple_types@P6GXXZ@std@@@std@@@std@@YAPBV?$_Tree_val@U?$_Tree_simple_types@P6GXXZ@std@@@0@ABV10@@Z PROC ; std::addressof<std::_Tree_val<std::_Tree_simple_types<void (__stdcall*)(void)> > const >, COMDAT

; 629  : 	{	// return address of _Val

	npad	2
	push	ebp
	mov	ebp, esp

; 630  : 	return (__builtin_addressof(_Val));

	mov	eax, DWORD PTR __Val$[ebp]

; 631  : 	}

	pop	ebp
	ret	0
??$addressof@$$CBV?$_Tree_val@U?$_Tree_simple_types@P6GXXZ@std@@@std@@@std@@YAPBV?$_Tree_val@U?$_Tree_simple_types@P6GXXZ@std@@@0@ABV10@@Z ENDP ; std::addressof<std::_Tree_val<std::_Tree_simple_types<void (__stdcall*)(void)> > const >
_TEXT	ENDS
; Function compile flags: /Ogtp
; File c:\program files (x86)\microsoft visual studio\2017\community\vc\tools\msvc\14.10.25017\include\utility
;	COMDAT ??$?0AAV?$_Tree_const_iterator@V?$_Tree_val@U?$_Tree_simple_types@P6GXXZ@std@@@std@@@std@@AAV01@X$0A@@?$pair@V?$_Tree_const_iterator@V?$_Tree_val@U?$_Tree_simple_types@P6GXXZ@std@@@std@@@std@@V12@@std@@QAE@AAV?$_Tree_const_iterator@V?$_Tree_val@U?$_Tree_simple_types@P6GXXZ@std@@@std@@@1@0@Z
_TEXT	SEGMENT
__Val1$ = 8						; size = 4
__Val2$ = 12						; size = 4
??$?0AAV?$_Tree_const_iterator@V?$_Tree_val@U?$_Tree_simple_types@P6GXXZ@std@@@std@@@std@@AAV01@X$0A@@?$pair@V?$_Tree_const_iterator@V?$_Tree_val@U?$_Tree_simple_types@P6GXXZ@std@@@std@@@std@@V12@@std@@QAE@AAV?$_Tree_const_iterator@V?$_Tree_val@U?$_Tree_simple_types@P6GXXZ@std@@@std@@@1@0@Z PROC ; std::pair<std::_Tree_const_iterator<std::_Tree_val<std::_Tree_simple_types<void (__stdcall*)(void)> > >,std::_Tree_const_iterator<std::_Tree_val<std::_Tree_simple_types<void (__stdcall*)(void)> > > >::pair<std::_Tree_const_iterator<std::_Tree_val<std::_Tree_simple_types<void (__stdcall*)(void)> > >,std::_Tree_const_iterator<std::_Tree_val<std::_Tree_simple_types<void (__stdcall*)(void)> > > ><std::_Tree_const_iterator<std::_Tree_val<std::_Tree_simple_types<void (__stdcall*)(void)> > > &,std::_Tree_const_iterator<std::_Tree_val<std::_Tree_simple_types<void (__stdcall*)(void)> > > &,void,0>, COMDAT
; _this$ = ecx

; 189  : 		{	// construct from moved values

	npad	2
	push	ebp
	mov	ebp, esp

; 187  : 		: first(_STD forward<_Other1>(_Val1)),

	mov	eax, DWORD PTR __Val1$[ebp]
	mov	eax, DWORD PTR [eax]
	mov	DWORD PTR [ecx], eax

; 188  : 				second(_STD forward<_Other2>(_Val2))

	mov	eax, DWORD PTR __Val2$[ebp]
	mov	eax, DWORD PTR [eax]
	mov	DWORD PTR [ecx+4], eax

; 190  : 		}

	mov	eax, ecx
	pop	ebp
	ret	8
??$?0AAV?$_Tree_const_iterator@V?$_Tree_val@U?$_Tree_simple_types@P6GXXZ@std@@@std@@@std@@AAV01@X$0A@@?$pair@V?$_Tree_const_iterator@V?$_Tree_val@U?$_Tree_simple_types@P6GXXZ@std@@@std@@@std@@V12@@std@@QAE@AAV?$_Tree_const_iterator@V?$_Tree_val@U?$_Tree_simple_types@P6GXXZ@std@@@std@@@1@0@Z ENDP ; std::pair<std::_Tree_const_iterator<std::_Tree_val<std::_Tree_simple_types<void (__stdcall*)(void)> > >,std::_Tree_const_iterator<std::_Tree_val<std::_Tree_simple_types<void (__stdcall*)(void)> > > >::pair<std::_Tree_const_iterator<std::_Tree_val<std::_Tree_simple_types<void (__stdcall*)(void)> > >,std::_Tree_const_iterator<std::_Tree_val<std::_Tree_simple_types<void (__stdcall*)(void)> > > ><std::_Tree_const_iterator<std::_Tree_val<std::_Tree_simple_types<void (__stdcall*)(void)> > > &,std::_Tree_const_iterator<std::_Tree_val<std::_Tree_simple_types<void (__stdcall*)(void)> > > &,void,0>
_TEXT	ENDS
; Function compile flags: /Ogtp
; File c:\program files (x86)\microsoft visual studio\2017\community\vc\tools\msvc\14.10.25017\include\xmemory0
;	COMDAT ??$destroy@PAUIUnknown@@@?$_Wrap_alloc@V?$allocator@PAUIUnknown@@@std@@@std@@QAEXPAPAUIUnknown@@@Z
_TEXT	SEGMENT
__Ptr$ = 8						; size = 4
??$destroy@PAUIUnknown@@@?$_Wrap_alloc@V?$allocator@PAUIUnknown@@@std@@@std@@QAEXPAPAUIUnknown@@@Z PROC ; std::_Wrap_alloc<std::allocator<IUnknown *> >::destroy<IUnknown *>, COMDAT
; _this$ = ecx

; 1103 : 		_Mytraits::destroy(*this, _Ptr);
; 1104 : 		}

	ret	4
??$destroy@PAUIUnknown@@@?$_Wrap_alloc@V?$allocator@PAUIUnknown@@@std@@@std@@QAEXPAPAUIUnknown@@@Z ENDP ; std::_Wrap_alloc<std::allocator<IUnknown *> >::destroy<IUnknown *>
_TEXT	ENDS
; Function compile flags: /Ogtp
; File c:\program files (x86)\microsoft visual studio\2017\community\vc\tools\msvc\14.10.25017\include\xmemory0
;	COMDAT ??$construct@PAUIUnknown@@ABQAU1@@?$_Wrap_alloc@V?$allocator@PAUIUnknown@@@std@@@std@@QAEXPAPAUIUnknown@@ABQAU2@@Z
_TEXT	SEGMENT
__Ptr$ = 8						; size = 4
_<_Args_0>$ = 12					; size = 4
??$construct@PAUIUnknown@@ABQAU1@@?$_Wrap_alloc@V?$allocator@PAUIUnknown@@@std@@@std@@QAEXPAPAUIUnknown@@ABQAU2@@Z PROC ; std::_Wrap_alloc<std::allocator<IUnknown *> >::construct<IUnknown *,IUnknown * const &>, COMDAT
; _this$ = ecx

; 1095 : 		{	// construct _Ty(_Types...) at _Ptr

	npad	2
	push	ebp
	mov	ebp, esp

; 840  : 		::new ((void *)_Ptr) _Objty(_STD forward<_Types>(_Args)...);

	mov	ecx, DWORD PTR __Ptr$[ebp]
	test	ecx, ecx
	je	SHORT $LN13@construct
	mov	eax, DWORD PTR _<_Args_0>$[ebp]
	mov	eax, DWORD PTR [eax]
	mov	DWORD PTR [ecx], eax
$LN13@construct:

; 1096 : 		_Mytraits::construct(*this, _Ptr,
; 1097 : 			_STD forward<_Types>(_Args)...);
; 1098 : 		}

	pop	ebp
	ret	8
??$construct@PAUIUnknown@@ABQAU1@@?$_Wrap_alloc@V?$allocator@PAUIUnknown@@@std@@@std@@QAEXPAPAUIUnknown@@ABQAU2@@Z ENDP ; std::_Wrap_alloc<std::allocator<IUnknown *> >::construct<IUnknown *,IUnknown * const &>
_TEXT	ENDS
; Function compile flags: /Ogtp
; File c:\program files (x86)\microsoft visual studio\2017\community\vc\tools\msvc\14.10.25017\include\xstddef
;	COMDAT ??$_Unfancy@PAUIUnknown@@@std@@YAPAPAUIUnknown@@PAPAU1@@Z
_TEXT	SEGMENT
__Ptr$ = 8						; size = 4
??$_Unfancy@PAUIUnknown@@@std@@YAPAPAUIUnknown@@PAPAU1@@Z PROC ; std::_Unfancy<IUnknown *>, COMDAT

; 642  : 	{	// do nothing for plain pointers

	npad	2
	push	ebp
	mov	ebp, esp

; 643  : 	return (_Ptr);

	mov	eax, DWORD PTR __Ptr$[ebp]

; 644  : 	}

	pop	ebp
	ret	0
??$_Unfancy@PAUIUnknown@@@std@@YAPAPAUIUnknown@@PAPAU1@@Z ENDP ; std::_Unfancy<IUnknown *>
_TEXT	ENDS
; Function compile flags: /Ogtp
; File c:\program files (x86)\microsoft visual studio\2017\community\vc\tools\msvc\14.10.25017\include\vector
; File c:\program files (x86)\microsoft visual studio\2017\community\vc\tools\msvc\14.10.25017\include\xmemory0
; File c:\program files (x86)\microsoft visual studio\2017\community\vc\tools\msvc\14.10.25017\include\vector
;	COMDAT ??$_Emplace_back_with_unused_capacity@ABQAUIUnknown@@@?$vector@PAUIUnknown@@V?$allocator@PAUIUnknown@@@std@@@std@@AAEXABQAUIUnknown@@@Z
_TEXT	SEGMENT
_<_Val_0>$ = 8						; size = 4
??$_Emplace_back_with_unused_capacity@ABQAUIUnknown@@@?$vector@PAUIUnknown@@V?$allocator@PAUIUnknown@@@std@@@std@@AAEXABQAUIUnknown@@@Z PROC ; std::vector<IUnknown *,std::allocator<IUnknown *> >::_Emplace_back_with_unused_capacity<IUnknown * const &>, COMDAT
; _this$ = ecx

; 898  : 		{	// insert by perfectly forwarding into element at end, provide strong guarantee

	npad	2
	push	ebp
	mov	ebp, esp
; File c:\program files (x86)\microsoft visual studio\2017\community\vc\tools\msvc\14.10.25017\include\xmemory0

; 840  : 		::new ((void *)_Ptr) _Objty(_STD forward<_Types>(_Args)...);

	mov	edx, DWORD PTR [ecx+4]
	test	edx, edx
	je	SHORT $LN71@Emplace_ba
	mov	eax, DWORD PTR _<_Val_0>$[ebp]
	mov	eax, DWORD PTR [eax]
	mov	DWORD PTR [edx], eax
$LN71@Emplace_ba:
; File c:\program files (x86)\microsoft visual studio\2017\community\vc\tools\msvc\14.10.25017\include\vector

; 902  : 		++this->_Mylast();

	add	DWORD PTR [ecx+4], 4

; 903  : 		}

	pop	ebp
	ret	4
??$_Emplace_back_with_unused_capacity@ABQAUIUnknown@@@?$vector@PAUIUnknown@@V?$allocator@PAUIUnknown@@@std@@@std@@AAEXABQAUIUnknown@@@Z ENDP ; std::vector<IUnknown *,std::allocator<IUnknown *> >::_Emplace_back_with_unused_capacity<IUnknown * const &>
_TEXT	ENDS
; Function compile flags: /Ogtp
; File c:\program files (x86)\microsoft visual studio\2017\community\vc\tools\msvc\14.10.25017\include\type_traits
;	COMDAT ??$forward@ABQAUIUnknown@@@std@@YAABQAUIUnknown@@ABQAU1@@Z
_TEXT	SEGMENT
__Arg$ = 8						; size = 4
??$forward@ABQAUIUnknown@@@std@@YAABQAUIUnknown@@ABQAU1@@Z PROC ; std::forward<IUnknown * const &>, COMDAT

; 1334 : 	{	// forward an lvalue as either an lvalue or an rvalue

	npad	2
	push	ebp
	mov	ebp, esp

; 1335 : 	return (static_cast<_Ty&&>(_Arg));

	mov	eax, DWORD PTR __Arg$[ebp]

; 1336 : 	}

	pop	ebp
	ret	0
??$forward@ABQAUIUnknown@@@std@@YAABQAUIUnknown@@ABQAU1@@Z ENDP ; std::forward<IUnknown * const &>
_TEXT	ENDS
; Function compile flags: /Ogtp
; File c:\program files (x86)\microsoft visual studio\2017\community\vc\tools\msvc\14.10.25017\include\xutility
; File c:\program files (x86)\microsoft visual studio\2017\community\vc\tools\msvc\14.10.25017\include\xtree
; File c:\program files (x86)\microsoft visual studio\2017\community\vc\tools\msvc\14.10.25017\include\xutility
; File c:\program files (x86)\microsoft visual studio\2017\community\vc\tools\msvc\14.10.25017\include\xtree
; File c:\program files (x86)\microsoft visual studio\2017\community\vc\tools\msvc\14.10.25017\include\xutility
; File c:\program files (x86)\microsoft visual studio\2017\community\vc\tools\msvc\14.10.25017\include\xtree
; File c:\program files (x86)\microsoft visual studio\2017\community\vc\tools\msvc\14.10.25017\include\xutility
;	COMDAT ??$_Distance1@V?$_Tree_const_iterator@V?$_Tree_val@U?$_Tree_simple_types@P6GXXZ@std@@@std@@@std@@@std@@YAHV?$_Tree_const_iterator@V?$_Tree_val@U?$_Tree_simple_types@P6GXXZ@std@@@std@@@0@0Uinput_iterator_tag@0@@Z
_TEXT	SEGMENT
__First$ = 8						; size = 4
__Last$ = 12						; size = 4
___formal$ = 16						; size = 1
??$_Distance1@V?$_Tree_const_iterator@V?$_Tree_val@U?$_Tree_simple_types@P6GXXZ@std@@@std@@@std@@@std@@YAHV?$_Tree_const_iterator@V?$_Tree_val@U?$_Tree_simple_types@P6GXXZ@std@@@std@@@0@0Uinput_iterator_tag@0@@Z PROC ; std::_Distance1<std::_Tree_const_iterator<std::_Tree_val<std::_Tree_simple_types<void (__stdcall*)(void)> > > >, COMDAT

; 1094 : 	{	// return distance between iterators; input

	npad	2
	push	ebp
	mov	ebp, esp
; File c:\program files (x86)\microsoft visual studio\2017\community\vc\tools\msvc\14.10.25017\include\xtree

; 331  : 		return (this->_Ptr == _Right._Ptr);

	mov	eax, DWORD PTR __First$[ebp]
	mov	ecx, DWORD PTR __Last$[ebp]
	push	esi
; File c:\program files (x86)\microsoft visual studio\2017\community\vc\tools\msvc\14.10.25017\include\xutility

; 1095 : 	_Iter_diff_t<_InIt> _Off = 0;

	xor	esi, esi
; File c:\program files (x86)\microsoft visual studio\2017\community\vc\tools\msvc\14.10.25017\include\xtree

; 331  : 		return (this->_Ptr == _Right._Ptr);

	cmp	eax, ecx
; File c:\program files (x86)\microsoft visual studio\2017\community\vc\tools\msvc\14.10.25017\include\xutility

; 1096 : 	for (; _First != _Last; ++_First)

	je	SHORT $LN56@Distance1
$LL14@Distance1:

; 1097 : 		++_Off;

	inc	esi
; File c:\program files (x86)\microsoft visual studio\2017\community\vc\tools\msvc\14.10.25017\include\xtree

; 60   : 		if (_Mytree::_Isnil(_Ptr))

	cmp	BYTE PTR [eax+13], 0
	jne	SHORT $LN49@Distance1

; 576  : 		return ((char&)_Pnode->_Isnil);

	mov	edx, DWORD PTR [eax+8]

; 62   : 		else if (!_Mytree::_Isnil(_Mytree::_Right(_Ptr)))

	cmp	BYTE PTR [edx+13], 0
	jne	SHORT $LN46@Distance1

; 63   : 			_Ptr = _Mytree::_Min(

	mov	eax, edx

; 576  : 		return ((char&)_Pnode->_Isnil);

	mov	edx, DWORD PTR [eax]

; 608  : 		while (!_Isnil(_Left(_Pnode)))

	cmp	BYTE PTR [edx+13], 0
	jne	SHORT $LN26@Distance1
	npad	4
$LL25@Distance1:

; 609  : 			_Pnode = _Left(_Pnode);

	mov	eax, edx

; 576  : 		return ((char&)_Pnode->_Isnil);

	mov	edx, DWORD PTR [eax]

; 608  : 		while (!_Isnil(_Left(_Pnode)))

	cmp	BYTE PTR [edx+13], 0
	je	SHORT $LL25@Distance1

; 65   : 		else

	jmp	SHORT $LN26@Distance1
$LN46@Distance1:

; 66   : 			{	// climb looking for right subtree
; 67   : 			_Nodeptr _Pnode;
; 68   : 			while (!_Mytree::_Isnil(_Pnode = _Mytree::_Parent(_Ptr))
; 69   : 				&& _Ptr == _Mytree::_Right(_Pnode))

	mov	edx, DWORD PTR [eax+4]
	cmp	BYTE PTR [edx+13], 0
	jne	SHORT $LN57@Distance1
$LL9@Distance1:
	cmp	eax, DWORD PTR [edx+8]
	jne	SHORT $LN57@Distance1

; 70   : 				_Ptr = _Pnode;	// ==> parent while right subtree

	mov	eax, edx
	mov	DWORD PTR __First$[ebp], eax
	mov	edx, DWORD PTR [edx+4]
	cmp	BYTE PTR [edx+13], 0
	je	SHORT $LL9@Distance1
$LN57@Distance1:

; 71   : 			_Ptr = _Pnode;	// ==> parent (head if end())

	mov	eax, edx
$LN26@Distance1:
	mov	DWORD PTR __First$[ebp], eax
$LN49@Distance1:

; 331  : 		return (this->_Ptr == _Right._Ptr);

	cmp	eax, ecx
; File c:\program files (x86)\microsoft visual studio\2017\community\vc\tools\msvc\14.10.25017\include\xutility

; 1096 : 	for (; _First != _Last; ++_First)

	jne	SHORT $LL14@Distance1
$LN56@Distance1:

; 1098 : 
; 1099 : 	return (_Off);

	mov	eax, esi
	pop	esi

; 1100 : 	}

	pop	ebp
	ret	0
??$_Distance1@V?$_Tree_const_iterator@V?$_Tree_val@U?$_Tree_simple_types@P6GXXZ@std@@@std@@@std@@@std@@YAHV?$_Tree_const_iterator@V?$_Tree_val@U?$_Tree_simple_types@P6GXXZ@std@@@std@@@0@0Uinput_iterator_tag@0@@Z ENDP ; std::_Distance1<std::_Tree_const_iterator<std::_Tree_val<std::_Tree_simple_types<void (__stdcall*)(void)> > > >
_TEXT	ENDS
; Function compile flags: /Ogtp
; File c:\program files (x86)\microsoft visual studio\2017\community\vc\tools\msvc\14.10.25017\include\xtree
; File c:\program files (x86)\microsoft visual studio\2017\community\vc\tools\msvc\14.10.25017\include\xstddef
; File c:\program files (x86)\microsoft visual studio\2017\community\vc\tools\msvc\14.10.25017\include\xtree
; File c:\program files (x86)\microsoft visual studio\2017\community\vc\tools\msvc\14.10.25017\include\xstddef
; File c:\program files (x86)\microsoft visual studio\2017\community\vc\tools\msvc\14.10.25017\include\xtree
; File c:\program files (x86)\microsoft visual studio\2017\community\vc\tools\msvc\14.10.25017\include\utility
; File c:\program files (x86)\microsoft visual studio\2017\community\vc\tools\msvc\14.10.25017\include\xtree
; File c:\program files (x86)\microsoft visual studio\2017\community\vc\tools\msvc\14.10.25017\include\xstddef
; File c:\program files (x86)\microsoft visual studio\2017\community\vc\tools\msvc\14.10.25017\include\xtree
; File c:\program files (x86)\microsoft visual studio\2017\community\vc\tools\msvc\14.10.25017\include\xmemory0
; File c:\program files (x86)\microsoft visual studio\2017\community\vc\tools\msvc\14.10.25017\include\utility
; File c:\program files (x86)\microsoft visual studio\2017\community\vc\tools\msvc\14.10.25017\include\xmemory0
; File c:\program files (x86)\microsoft visual studio\2017\community\vc\tools\msvc\14.10.25017\include\xtree
; File c:\program files (x86)\microsoft visual studio\2017\community\vc\tools\msvc\14.10.25017\include\utility
; File c:\program files (x86)\microsoft visual studio\2017\community\vc\tools\msvc\14.10.25017\include\xtree
; File c:\program files (x86)\microsoft visual studio\2017\community\vc\tools\msvc\14.10.25017\include\utility
; File c:\program files (x86)\microsoft visual studio\2017\community\vc\tools\msvc\14.10.25017\include\xtree
;	COMDAT ??$_Insert_nohint@AAP6GXXZPAU?$_Tree_node@P6GXXZPAX@std@@@?$_Tree@V?$_Tset_traits@P6GXXZU?$less@P6GXXZ@std@@V?$allocator@P6GXXZ@2@$0A@@std@@@std@@IAE?AU?$pair@V?$_Tree_const_iterator@V?$_Tree_val@U?$_Tree_simple_types@P6GXXZ@std@@@std@@@std@@_N@1@_NAAP6GXXZPAU?$_Tree_node@P6GXXZPAX@1@@Z
_TEXT	SEGMENT
_this$ = -24						; size = 4
__Addleft$2 = -20					; size = 1
__$EHRec$ = -16						; size = 16
___$ReturnUdt$ = 8					; size = 4
$T3 = 12						; size = 4
__Where$4 = 12						; size = 4
__Leftish$ = 12						; size = 1
__Val$ = 16						; size = 4
__Newnode$ = 20						; size = 4
??$_Insert_nohint@AAP6GXXZPAU?$_Tree_node@P6GXXZPAX@std@@@?$_Tree@V?$_Tset_traits@P6GXXZU?$less@P6GXXZ@std@@V?$allocator@P6GXXZ@2@$0A@@std@@@std@@IAE?AU?$pair@V?$_Tree_const_iterator@V?$_Tree_val@U?$_Tree_simple_types@P6GXXZ@std@@@std@@@std@@_N@1@_NAAP6GXXZPAU?$_Tree_node@P6GXXZPAX@1@@Z PROC ; std::_Tree<std::_Tset_traits<void (__stdcall*)(void),std::less<void (__stdcall*)(void)>,std::allocator<void (__stdcall*)(void)>,0> >::_Insert_nohint<void (__stdcall*&)(void),std::_Tree_node<void (__stdcall*)(void),void *> *>, COMDAT
; _this$ = ecx

; 1784 : 		{	// try to insert node, on left if _Leftish

	npad	2
	push	ebp
	mov	ebp, esp
	push	-1
	push	__ehhandler$??$_Insert_nohint@AAP6GXXZPAU?$_Tree_node@P6GXXZPAX@std@@@?$_Tree@V?$_Tset_traits@P6GXXZU?$less@P6GXXZ@std@@V?$allocator@P6GXXZ@2@$0A@@std@@@std@@IAE?AU?$pair@V?$_Tree_const_iterator@V?$_Tree_val@U?$_Tree_simple_types@P6GXXZ@std@@@std@@@std@@_N@1@_NAAP6GXXZPAU?$_Tree_node@P6GXXZPAX@1@@Z
	mov	eax, DWORD PTR fs:0
	push	eax
	mov	DWORD PTR fs:0, esp
	sub	esp, 12					; 0000000cH

; 586  : 		return ((_Nodepref)_Pnode->_Parent);

	mov	edx, DWORD PTR [ecx]

; 1784 : 		{	// try to insert node, on left if _Leftish

	push	ebx
	mov	ebx, DWORD PTR __Val$[ebp]
	push	esi

; 1785 : 		_TRY_BEGIN
; 1786 : 		_Nodeptr _Trynode = _Root();

	mov	eax, DWORD PTR [edx+4]
	push	edi

; 1787 : 		_Nodeptr _Wherenode = this->_Myhead();

	mov	edi, edx
	mov	DWORD PTR __$EHRec$[ebp], esp

; 1788 : 		bool _Addleft = true;	// add to left of head if tree empty

	mov	dl, 1
	mov	DWORD PTR _this$[ebp], ecx

; 1789 : 
; 1790 : 		while (!this->_Isnil(_Trynode))

	cmp	BYTE PTR [eax+13], 0
	mov	DWORD PTR __$EHRec$[ebp+12], 0
	mov	BYTE PTR __Addleft$2[ebp], dl
	jne	SHORT $LN3@Insert_noh
	mov	ecx, DWORD PTR [ebx]
	mov	dh, BYTE PTR __Leftish$[ebp]
$LL2@Insert_noh:

; 1791 : 			{	// look for leaf to insert before (_Addleft) or after
; 1792 : 			_Wherenode = _Trynode;

	mov	edi, eax

; 1793 : 			if (_Leftish)

	test	dh, dh
	je	SHORT $LN5@Insert_noh
; File c:\program files (x86)\microsoft visual studio\2017\community\vc\tools\msvc\14.10.25017\include\xstddef

; 234  : 		return (_Left < _Right);

	cmp	DWORD PTR [eax+16], ecx
; File c:\program files (x86)\microsoft visual studio\2017\community\vc\tools\msvc\14.10.25017\include\xtree

; 1794 : 				_Addleft = !_DEBUG_LT_PRED(this->_Getcomp(),

	setae	dl

; 1795 : 					this->_Key(_Trynode),
; 1796 : 					this->_Kfn(_Val));	// favor left end
; 1797 : 			else

	jmp	SHORT $LN276@Insert_noh
$LN5@Insert_noh:
; File c:\program files (x86)\microsoft visual studio\2017\community\vc\tools\msvc\14.10.25017\include\xstddef

; 234  : 		return (_Left < _Right);

	cmp	ecx, DWORD PTR [eax+16]
	setb	dl
$LN276@Insert_noh:
; File c:\program files (x86)\microsoft visual studio\2017\community\vc\tools\msvc\14.10.25017\include\xtree

; 1798 : 				_Addleft = _DEBUG_LT_PRED(this->_Getcomp(),

	mov	BYTE PTR __Addleft$2[ebp], dl

; 1799 : 					this->_Kfn(_Val),
; 1800 : 					this->_Key(_Trynode));	// favor right end
; 1801 : 			_Trynode = _Addleft ? this->_Left(_Trynode)

	test	dl, dl
	je	SHORT $LN16@Insert_noh
	mov	eax, DWORD PTR [eax]
	jmp	SHORT $LN17@Insert_noh
$LN16@Insert_noh:
	mov	eax, DWORD PTR [eax+8]
$LN17@Insert_noh:

; 1789 : 
; 1790 : 		while (!this->_Isnil(_Trynode))

	cmp	BYTE PTR [eax+13], 0
	je	SHORT $LL2@Insert_noh
	mov	ecx, DWORD PTR _this$[ebp]
$LN3@Insert_noh:

; 43   : 		: _Ptr(_Pnode)

	mov	esi, edi
	mov	DWORD PTR __Where$4[ebp], esi

; 1802 : 				: this->_Right(_Trynode);
; 1803 : 			}
; 1804 : 
; 1805 : #pragma warning(push)
; 1806 : #pragma warning(disable: 4127)	// conditional expression is constant
; 1807 : 		if (this->_Multi)
; 1808 : 			return (_Pairib(_Insert_at(_Addleft, _Wherenode,
; 1809 : 				_STD forward<_Valty>(_Val), _Newnode), true));
; 1810 : 		else
; 1811 : 			{	// insert only if unique
; 1812 : 			iterator _Where = iterator(_Wherenode, _STD addressof(this->_Get_data()));
; 1813 : 			if (!_Addleft)

	test	dl, dl
	je	SHORT $LN12@Insert_noh

; 331  : 		return (this->_Ptr == _Right._Ptr);

	mov	eax, DWORD PTR [ecx]
	cmp	edi, DWORD PTR [eax]

; 1814 : 				;	// need to test if insert after is okay
; 1815 : 			else if (_Where == begin())

	jne	SHORT $LN11@Insert_noh

; 1816 : 				return (_Pairib(_Insert_at(true, _Wherenode,

	push	DWORD PTR __Newnode$[ebp]
	push	ebx
	push	edi
	push	1
$LN278@Insert_noh:
	lea	eax, DWORD PTR $T3[ebp]
	push	eax
	call	??$_Insert_at@AAP6GXXZPAU?$_Tree_node@P6GXXZPAX@std@@@?$_Tree@V?$_Tset_traits@P6GXXZU?$less@P6GXXZ@std@@V?$allocator@P6GXXZ@2@$0A@@std@@@std@@IAE?AV?$_Tree_const_iterator@V?$_Tree_val@U?$_Tree_simple_types@P6GXXZ@std@@@std@@@1@_NPAU?$_Tree_node@P6GXXZPAX@1@AAP6GXXZ1@Z ; std::_Tree<std::_Tset_traits<void (__stdcall*)(void),std::less<void (__stdcall*)(void)>,std::allocator<void (__stdcall*)(void)>,0> >::_Insert_at<void (__stdcall*&)(void),std::_Tree_node<void (__stdcall*)(void),void *> *>
; File c:\program files (x86)\microsoft visual studio\2017\community\vc\tools\msvc\14.10.25017\include\utility

; 187  : 		: first(_STD forward<_Other1>(_Val1)),

	mov	ecx, DWORD PTR [eax]
	mov	eax, DWORD PTR ___$ReturnUdt$[ebp]
	mov	DWORD PTR [eax], ecx

; 188  : 				second(_STD forward<_Other2>(_Val2))

	mov	BYTE PTR [eax+4], 1
; File c:\program files (x86)\microsoft visual studio\2017\community\vc\tools\msvc\14.10.25017\include\xtree

; 1837 : 		}

	mov	ecx, DWORD PTR __$EHRec$[ebp+4]
	mov	DWORD PTR fs:0, ecx
	pop	edi
	pop	esi
	pop	ebx
	mov	esp, ebp
	pop	ebp
	ret	16					; 00000010H
$LN11@Insert_noh:

; 306  : 		--static_cast<_Mybase&>(*this);

	lea	ecx, DWORD PTR __Where$4[ebp]
	call	??F?$_Tree_unchecked_const_iterator@V?$_Tree_val@U?$_Tree_simple_types@P6GXXZ@std@@@std@@U_Iterator_base0@2@@std@@QAEAAV01@XZ ; std::_Tree_unchecked_const_iterator<std::_Tree_val<std::_Tree_simple_types<void (__stdcall*)(void)> >,std::_Iterator_base0>::operator--
	mov	esi, DWORD PTR __Where$4[ebp]
$LN12@Insert_noh:
; File c:\program files (x86)\microsoft visual studio\2017\community\vc\tools\msvc\14.10.25017\include\xstddef

; 234  : 		return (_Left < _Right);

	mov	eax, DWORD PTR [esi+16]
	cmp	eax, DWORD PTR [ebx]
; File c:\program files (x86)\microsoft visual studio\2017\community\vc\tools\msvc\14.10.25017\include\xtree

; 1821 : 			if (_DEBUG_LT_PRED(this->_Getcomp(),

	jae	SHORT $LN13@Insert_noh

; 1822 : 				this->_Key(_Where._Mynode()),
; 1823 : 				this->_Kfn(_Val)))
; 1824 : 				return (_Pairib(_Insert_at(_Addleft, _Wherenode,

	push	DWORD PTR __Newnode$[ebp]
	mov	ecx, DWORD PTR _this$[ebp]
	push	ebx
	push	edi
	push	DWORD PTR __Addleft$2[ebp]
	jmp	SHORT $LN278@Insert_noh
__catch$??$_Insert_nohint@AAP6GXXZPAU?$_Tree_node@P6GXXZPAX@std@@@?$_Tree@V?$_Tset_traits@P6GXXZU?$less@P6GXXZ@std@@V?$allocator@P6GXXZ@2@$0A@@std@@@std@@IAE?AU?$pair@V?$_Tree_const_iterator@V?$_Tree_val@U?$_Tree_simple_types@P6GXXZ@std@@@std@@@std@@_N@1@_NAAP6GXXZPAU?$_Tree_node@P6GXXZPAX@1@@Z$0:

; 1825 : 					_STD forward<_Valty>(_Val), _Newnode), true));
; 1826 : 			else
; 1827 : 				{	// duplicate, don't insert
; 1828 : 				_Destroy_if_not_nil(_Newnode);
; 1829 : 				return (_Pairib(_Where, false));
; 1830 : 				}
; 1831 : 			}
; 1832 : #pragma warning(pop)
; 1833 : 		_CATCH_ALL
; 1834 : 		_Destroy_if_not_nil(_Newnode);

	push	DWORD PTR __Newnode$[ebp]
	mov	ecx, DWORD PTR _this$[ebp]
	call	?_Destroy_if_not_nil@?$_Tree@V?$_Tset_traits@P6GXXZU?$less@P6GXXZ@std@@V?$allocator@P6GXXZ@2@$0A@@std@@@std@@IAEXPAU?$_Tree_node@P6GXXZPAX@2@@Z ; std::_Tree<std::_Tset_traits<void (__stdcall*)(void),std::less<void (__stdcall*)(void)>,std::allocator<void (__stdcall*)(void)>,0> >::_Destroy_if_not_nil

; 1835 : 		_RERAISE;

	push	0
	push	0
	call	__CxxThrowException@8
$LN279@Insert_noh:
$LN13@Insert_noh:
; File c:\program files (x86)\microsoft visual studio\2017\community\vc\tools\msvc\14.10.25017\include\xmemory0

; 823  : 		_Deallocate(_Ptr, _Count, sizeof (_Ty));

	push	20					; 00000014H
	push	1
	push	DWORD PTR __Newnode$[ebp]
	call	?_Deallocate@std@@YAXPAXII@Z		; std::_Deallocate
; File c:\program files (x86)\microsoft visual studio\2017\community\vc\tools\msvc\14.10.25017\include\utility

; 187  : 		: first(_STD forward<_Other1>(_Val1)),

	mov	eax, DWORD PTR ___$ReturnUdt$[ebp]
; File c:\program files (x86)\microsoft visual studio\2017\community\vc\tools\msvc\14.10.25017\include\xmemory0

; 823  : 		_Deallocate(_Ptr, _Count, sizeof (_Ty));

	add	esp, 12					; 0000000cH
; File c:\program files (x86)\microsoft visual studio\2017\community\vc\tools\msvc\14.10.25017\include\xtree

; 1837 : 		}

	mov	ecx, DWORD PTR __$EHRec$[ebp+4]
	pop	edi
; File c:\program files (x86)\microsoft visual studio\2017\community\vc\tools\msvc\14.10.25017\include\utility

; 187  : 		: first(_STD forward<_Other1>(_Val1)),

	mov	DWORD PTR [eax], esi
; File c:\program files (x86)\microsoft visual studio\2017\community\vc\tools\msvc\14.10.25017\include\xtree

; 1837 : 		}

	pop	esi
; File c:\program files (x86)\microsoft visual studio\2017\community\vc\tools\msvc\14.10.25017\include\utility

; 188  : 				second(_STD forward<_Other2>(_Val2))

	mov	BYTE PTR [eax+4], 0
; File c:\program files (x86)\microsoft visual studio\2017\community\vc\tools\msvc\14.10.25017\include\xtree

; 1837 : 		}

	mov	DWORD PTR fs:0, ecx
	pop	ebx
	mov	esp, ebp
	pop	ebp
	ret	16					; 00000010H
$LN275@Insert_noh:
_TEXT	ENDS
;	COMDAT text$x
text$x	SEGMENT
__ehhandler$??$_Insert_nohint@AAP6GXXZPAU?$_Tree_node@P6GXXZPAX@std@@@?$_Tree@V?$_Tset_traits@P6GXXZU?$less@P6GXXZ@std@@V?$allocator@P6GXXZ@2@$0A@@std@@@std@@IAE?AU?$pair@V?$_Tree_const_iterator@V?$_Tree_val@U?$_Tree_simple_types@P6GXXZ@std@@@std@@@std@@_N@1@_NAAP6GXXZPAU?$_Tree_node@P6GXXZPAX@1@@Z:
	mov	eax, OFFSET __ehfuncinfo$??$_Insert_nohint@AAP6GXXZPAU?$_Tree_node@P6GXXZPAX@std@@@?$_Tree@V?$_Tset_traits@P6GXXZU?$less@P6GXXZ@std@@V?$allocator@P6GXXZ@2@$0A@@std@@@std@@IAE?AU?$pair@V?$_Tree_const_iterator@V?$_Tree_val@U?$_Tree_simple_types@P6GXXZ@std@@@std@@@std@@_N@1@_NAAP6GXXZPAU?$_Tree_node@P6GXXZPAX@1@@Z
	jmp	___CxxFrameHandler3
text$x	ENDS
??$_Insert_nohint@AAP6GXXZPAU?$_Tree_node@P6GXXZPAX@std@@@?$_Tree@V?$_Tset_traits@P6GXXZU?$less@P6GXXZ@std@@V?$allocator@P6GXXZ@2@$0A@@std@@@std@@IAE?AU?$pair@V?$_Tree_const_iterator@V?$_Tree_val@U?$_Tree_simple_types@P6GXXZ@std@@@std@@@std@@_N@1@_NAAP6GXXZPAU?$_Tree_node@P6GXXZPAX@1@@Z ENDP ; std::_Tree<std::_Tset_traits<void (__stdcall*)(void),std::less<void (__stdcall*)(void)>,std::allocator<void (__stdcall*)(void)>,0> >::_Insert_nohint<void (__stdcall*&)(void),std::_Tree_node<void (__stdcall*)(void),void *> *>
; Function compile flags: /Ogtp
; File c:\program files (x86)\microsoft visual studio\2017\community\vc\tools\msvc\14.10.25017\include\xtree
; File c:\program files (x86)\microsoft visual studio\2017\community\vc\tools\msvc\14.10.25017\include\xmemory0
; File c:\program files (x86)\microsoft visual studio\2017\community\vc\tools\msvc\14.10.25017\include\xtree
;	COMDAT ??$_Buynode@AAP6GXXZ@?$_Tree_comp_alloc@V?$_Tset_traits@P6GXXZU?$less@P6GXXZ@std@@V?$allocator@P6GXXZ@2@$0A@@std@@@std@@QAEPAU?$_Tree_node@P6GXXZPAX@1@AAP6GXXZ@Z
_TEXT	SEGMENT
_<_Val_0>$ = 8						; size = 4
??$_Buynode@AAP6GXXZ@?$_Tree_comp_alloc@V?$_Tset_traits@P6GXXZU?$less@P6GXXZ@std@@V?$allocator@P6GXXZ@2@$0A@@std@@@std@@QAEPAU?$_Tree_node@P6GXXZPAX@1@AAP6GXXZ@Z PROC ; std::_Tree_comp_alloc<std::_Tset_traits<void (__stdcall*)(void),std::less<void (__stdcall*)(void)>,std::allocator<void (__stdcall*)(void)>,0> >::_Buynode<void (__stdcall*&)(void)>, COMDAT
; _this$ = ecx

; 895  : 		{	// allocate a node with defaults and set links and value

	npad	2
	push	ebp
	mov	ebp, esp

; 896  : 		_Nodeptr _Pnode = _Buynode0();

	call	?_Buynode0@?$_Tree_comp_alloc@V?$_Tset_traits@P6GXXZU?$less@P6GXXZ@std@@V?$allocator@P6GXXZ@2@$0A@@std@@@std@@QAEPAU?$_Tree_node@P6GXXZPAX@2@XZ ; std::_Tree_comp_alloc<std::_Tset_traits<void (__stdcall*)(void),std::less<void (__stdcall*)(void)>,std::allocator<void (__stdcall*)(void)>,0> >::_Buynode0

; 596  : 		return ((reference)_Pnode->_Myval);

	lea	edx, DWORD PTR [eax+16]

; 897  : 
; 898  : 		this->_Color(_Pnode) = _Red;

	mov	WORD PTR [eax+12], 0
; File c:\program files (x86)\microsoft visual studio\2017\community\vc\tools\msvc\14.10.25017\include\xmemory0

; 840  : 		::new ((void *)_Ptr) _Objty(_STD forward<_Types>(_Args)...);

	test	edx, edx
	je	SHORT $LN47@Buynode
	mov	ecx, DWORD PTR _<_Val_0>$[ebp]
	mov	ecx, DWORD PTR [ecx]
	mov	DWORD PTR [edx], ecx
$LN47@Buynode:
; File c:\program files (x86)\microsoft visual studio\2017\community\vc\tools\msvc\14.10.25017\include\xtree

; 911  : 		}

	pop	ebp
	ret	4
??$_Buynode@AAP6GXXZ@?$_Tree_comp_alloc@V?$_Tset_traits@P6GXXZU?$less@P6GXXZ@std@@V?$allocator@P6GXXZ@2@$0A@@std@@@std@@QAEPAU?$_Tree_node@P6GXXZPAX@1@AAP6GXXZ@Z ENDP ; std::_Tree_comp_alloc<std::_Tset_traits<void (__stdcall*)(void),std::less<void (__stdcall*)(void)>,std::allocator<void (__stdcall*)(void)>,0> >::_Buynode<void (__stdcall*&)(void)>
_TEXT	ENDS
; Function compile flags: /Ogtp
; File c:\program files (x86)\microsoft visual studio\2017\community\vc\tools\msvc\14.10.25017\include\type_traits
;	COMDAT ??$forward@AAP6GXXZ@std@@YAAAP6GXXZAAP6GXXZ@Z
_TEXT	SEGMENT
__Arg$ = 8						; size = 4
??$forward@AAP6GXXZ@std@@YAAAP6GXXZAAP6GXXZ@Z PROC	; std::forward<void (__stdcall*&)(void)>, COMDAT

; 1334 : 	{	// forward an lvalue as either an lvalue or an rvalue

	npad	2
	push	ebp
	mov	ebp, esp

; 1335 : 	return (static_cast<_Ty&&>(_Arg));

	mov	eax, DWORD PTR __Arg$[ebp]

; 1336 : 	}

	pop	ebp
	ret	0
??$forward@AAP6GXXZ@std@@YAAAP6GXXZAAP6GXXZ@Z ENDP	; std::forward<void (__stdcall*&)(void)>
_TEXT	ENDS
; Function compile flags: /Ogtp
; File c:\program files (x86)\microsoft visual studio\2017\community\vc\tools\msvc\14.10.25017\include\xmemory0
;	COMDAT ??$construct@PAU?$_Tree_node@P6GXXZPAX@std@@AAPAU12@@?$_Wrap_alloc@V?$allocator@U?$_Tree_node@P6GXXZPAX@std@@@std@@@std@@QAEXPAPAU?$_Tree_node@P6GXXZPAX@1@AAPAU21@@Z
_TEXT	SEGMENT
__Ptr$ = 8						; size = 4
_<_Args_0>$ = 12					; size = 4
??$construct@PAU?$_Tree_node@P6GXXZPAX@std@@AAPAU12@@?$_Wrap_alloc@V?$allocator@U?$_Tree_node@P6GXXZPAX@std@@@std@@@std@@QAEXPAPAU?$_Tree_node@P6GXXZPAX@1@AAPAU21@@Z PROC ; std::_Wrap_alloc<std::allocator<std::_Tree_node<void (__stdcall*)(void),void *> > >::construct<std::_Tree_node<void (__stdcall*)(void),void *> *,std::_Tree_node<void (__stdcall*)(void),void *> * &>, COMDAT
; _this$ = ecx

; 1095 : 		{	// construct _Ty(_Types...) at _Ptr

	npad	2
	push	ebp
	mov	ebp, esp

; 840  : 		::new ((void *)_Ptr) _Objty(_STD forward<_Types>(_Args)...);

	mov	ecx, DWORD PTR __Ptr$[ebp]
	test	ecx, ecx
	je	SHORT $LN13@construct
	mov	eax, DWORD PTR _<_Args_0>$[ebp]
	mov	eax, DWORD PTR [eax]
	mov	DWORD PTR [ecx], eax
$LN13@construct:

; 1096 : 		_Mytraits::construct(*this, _Ptr,
; 1097 : 			_STD forward<_Types>(_Args)...);
; 1098 : 		}

	pop	ebp
	ret	8
??$construct@PAU?$_Tree_node@P6GXXZPAX@std@@AAPAU12@@?$_Wrap_alloc@V?$allocator@U?$_Tree_node@P6GXXZPAX@std@@@std@@@std@@QAEXPAPAU?$_Tree_node@P6GXXZPAX@1@AAPAU21@@Z ENDP ; std::_Wrap_alloc<std::allocator<std::_Tree_node<void (__stdcall*)(void),void *> > >::construct<std::_Tree_node<void (__stdcall*)(void),void *> *,std::_Tree_node<void (__stdcall*)(void),void *> * &>
_TEXT	ENDS
; Function compile flags: /Ogtp
; File c:\program files (x86)\microsoft visual studio\2017\community\vc\tools\msvc\14.10.25017\include\xmemory0
;	COMDAT ??$destroy@P6GXXZ@?$_Wrap_alloc@V?$allocator@U?$_Tree_node@P6GXXZPAX@std@@@std@@@std@@QAEXPAP6GXXZ@Z
_TEXT	SEGMENT
__Ptr$ = 8						; size = 4
??$destroy@P6GXXZ@?$_Wrap_alloc@V?$allocator@U?$_Tree_node@P6GXXZPAX@std@@@std@@@std@@QAEXPAP6GXXZ@Z PROC ; std::_Wrap_alloc<std::allocator<std::_Tree_node<void (__stdcall*)(void),void *> > >::destroy<void (__stdcall*)(void)>, COMDAT
; _this$ = ecx

; 1103 : 		_Mytraits::destroy(*this, _Ptr);
; 1104 : 		}

	ret	4
??$destroy@P6GXXZ@?$_Wrap_alloc@V?$allocator@U?$_Tree_node@P6GXXZPAX@std@@@std@@@std@@QAEXPAP6GXXZ@Z ENDP ; std::_Wrap_alloc<std::allocator<std::_Tree_node<void (__stdcall*)(void),void *> > >::destroy<void (__stdcall*)(void)>
_TEXT	ENDS
; Function compile flags: /Ogtp
; File c:\program files (x86)\microsoft visual studio\2017\community\vc\tools\msvc\14.10.25017\include\xstddef
;	COMDAT ??$addressof@P6GXXZ@std@@YAPAP6GXXZAAP6GXXZ@Z
_TEXT	SEGMENT
__Val$ = 8						; size = 4
??$addressof@P6GXXZ@std@@YAPAP6GXXZAAP6GXXZ@Z PROC	; std::addressof<void (__stdcall*)(void)>, COMDAT

; 629  : 	{	// return address of _Val

	npad	2
	push	ebp
	mov	ebp, esp

; 630  : 	return (__builtin_addressof(_Val));

	mov	eax, DWORD PTR __Val$[ebp]

; 631  : 	}

	pop	ebp
	ret	0
??$addressof@P6GXXZ@std@@YAPAP6GXXZAAP6GXXZ@Z ENDP	; std::addressof<void (__stdcall*)(void)>
_TEXT	ENDS
; Function compile flags: /Ogtp
; File c:\program files (x86)\microsoft visual studio\2017\community\vc\tools\msvc\14.10.25017\include\utility
;	COMDAT ??$swap@DX@std@@YAXAAD0@Z
_TEXT	SEGMENT
__Left$ = 8						; size = 4
__Right$ = 12						; size = 4
??$swap@DX@std@@YAXAAD0@Z PROC				; std::swap<char,void>, COMDAT

; 65   : 	{	// exchange values stored at _Left and _Right

	npad	2
	push	ebp
	mov	ebp, esp

; 66   : 	_Ty _Tmp = _STD move(_Left);
; 67   : 	_Left = _STD move(_Right);

	mov	ecx, DWORD PTR __Right$[ebp]
	mov	edx, DWORD PTR __Left$[ebp]
	push	ebx
	mov	al, BYTE PTR [ecx]
	mov	bl, BYTE PTR [edx]
	mov	BYTE PTR [edx], al

; 68   : 	_Right = _STD move(_Tmp);

	mov	BYTE PTR [ecx], bl
	pop	ebx

; 69   : 	}

	pop	ebp
	ret	0
??$swap@DX@std@@YAXAAD0@Z ENDP				; std::swap<char,void>
_TEXT	ENDS
; Function compile flags: /Ogtp
; File c:\program files (x86)\microsoft visual studio\2017\community\vc\tools\msvc\14.10.25017\include\xutility
; File c:\program files (x86)\microsoft visual studio\2017\community\vc\tools\msvc\14.10.25017\include\xtree
; File c:\program files (x86)\microsoft visual studio\2017\community\vc\tools\msvc\14.10.25017\include\xutility
; File c:\program files (x86)\microsoft visual studio\2017\community\vc\tools\msvc\14.10.25017\include\xtree
; File c:\program files (x86)\microsoft visual studio\2017\community\vc\tools\msvc\14.10.25017\include\xutility
;	COMDAT ??$?0ABU?$less@P6GXXZ@std@@U_Zero_then_variadic_args_t@1@@?$_Compressed_pair@U?$less@P6GXXZ@std@@V?$_Compressed_pair@U?$_Wrap_alloc@V?$allocator@U?$_Tree_node@P6GXXZPAX@std@@@std@@@std@@V?$_Tree_val@U?$_Tree_simple_types@P6GXXZ@std@@@2@$00@2@$00@std@@QAE@U_One_then_variadic_args_t@1@ABU?$less@P6GXXZ@1@$$QAU_Zero_then_variadic_args_t@1@@Z
_TEXT	SEGMENT
___formal$ = 8						; size = 1
__Val1$ = 12						; size = 4
_<_Val2_0>$ = 16					; size = 4
??$?0ABU?$less@P6GXXZ@std@@U_Zero_then_variadic_args_t@1@@?$_Compressed_pair@U?$less@P6GXXZ@std@@V?$_Compressed_pair@U?$_Wrap_alloc@V?$allocator@U?$_Tree_node@P6GXXZPAX@std@@@std@@@std@@V?$_Tree_val@U?$_Tree_simple_types@P6GXXZ@std@@@2@$00@2@$00@std@@QAE@U_One_then_variadic_args_t@1@ABU?$less@P6GXXZ@1@$$QAU_Zero_then_variadic_args_t@1@@Z PROC ; std::_Compressed_pair<std::less<void (__stdcall*)(void)>,std::_Compressed_pair<std::_Wrap_alloc<std::allocator<std::_Tree_node<void (__stdcall*)(void),void *> > >,std::_Tree_val<std::_Tree_simple_types<void (__stdcall*)(void)> >,1>,1>::_Compressed_pair<std::less<void (__stdcall*)(void)>,std::_Compressed_pair<std::_Wrap_alloc<std::allocator<std::_Tree_node<void (__stdcall*)(void),void *> > >,std::_Tree_val<std::_Tree_simple_types<void (__stdcall*)(void)> >,1>,1><std::less<void (__stdcall*)(void)> const &,std::_Zero_then_variadic_args_t>, COMDAT
; _this$ = ecx
; File c:\program files (x86)\microsoft visual studio\2017\community\vc\tools\msvc\14.10.25017\include\xtree

; 560  : 		: _Myhead(),

	mov	DWORD PTR [ecx], 0
; File c:\program files (x86)\microsoft visual studio\2017\community\vc\tools\msvc\14.10.25017\include\xutility

; 313  : 		}

	mov	eax, ecx
; File c:\program files (x86)\microsoft visual studio\2017\community\vc\tools\msvc\14.10.25017\include\xtree

; 561  : 		_Mysize(0)

	mov	DWORD PTR [ecx+4], 0
; File c:\program files (x86)\microsoft visual studio\2017\community\vc\tools\msvc\14.10.25017\include\xutility

; 313  : 		}

	ret	12					; 0000000cH
??$?0ABU?$less@P6GXXZ@std@@U_Zero_then_variadic_args_t@1@@?$_Compressed_pair@U?$less@P6GXXZ@std@@V?$_Compressed_pair@U?$_Wrap_alloc@V?$allocator@U?$_Tree_node@P6GXXZPAX@std@@@std@@@std@@V?$_Tree_val@U?$_Tree_simple_types@P6GXXZ@std@@@2@$00@2@$00@std@@QAE@U_One_then_variadic_args_t@1@ABU?$less@P6GXXZ@1@$$QAU_Zero_then_variadic_args_t@1@@Z ENDP ; std::_Compressed_pair<std::less<void (__stdcall*)(void)>,std::_Compressed_pair<std::_Wrap_alloc<std::allocator<std::_Tree_node<void (__stdcall*)(void),void *> > >,std::_Tree_val<std::_Tree_simple_types<void (__stdcall*)(void)> >,1>,1>::_Compressed_pair<std::less<void (__stdcall*)(void)>,std::_Compressed_pair<std::_Wrap_alloc<std::allocator<std::_Tree_node<void (__stdcall*)(void),void *> > >,std::_Tree_val<std::_Tree_simple_types<void (__stdcall*)(void)> >,1>,1><std::less<void (__stdcall*)(void)> const &,std::_Zero_then_variadic_args_t>
_TEXT	ENDS
; Function compile flags: /Ogtp
; File c:\program files (x86)\microsoft visual studio\2017\community\vc\tools\msvc\14.10.25017\include\xmemory0
;	COMDAT ??$destroy@PAU?$_Tree_node@P6GXXZPAX@std@@@?$_Wrap_alloc@V?$allocator@U?$_Tree_node@P6GXXZPAX@std@@@std@@@std@@QAEXPAPAU?$_Tree_node@P6GXXZPAX@1@@Z
_TEXT	SEGMENT
__Ptr$ = 8						; size = 4
??$destroy@PAU?$_Tree_node@P6GXXZPAX@std@@@?$_Wrap_alloc@V?$allocator@U?$_Tree_node@P6GXXZPAX@std@@@std@@@std@@QAEXPAPAU?$_Tree_node@P6GXXZPAX@1@@Z PROC ; std::_Wrap_alloc<std::allocator<std::_Tree_node<void (__stdcall*)(void),void *> > >::destroy<std::_Tree_node<void (__stdcall*)(void),void *> *>, COMDAT
; _this$ = ecx

; 1103 : 		_Mytraits::destroy(*this, _Ptr);
; 1104 : 		}

	ret	4
??$destroy@PAU?$_Tree_node@P6GXXZPAX@std@@@?$_Wrap_alloc@V?$allocator@U?$_Tree_node@P6GXXZPAX@std@@@std@@@std@@QAEXPAPAU?$_Tree_node@P6GXXZPAX@1@@Z ENDP ; std::_Wrap_alloc<std::allocator<std::_Tree_node<void (__stdcall*)(void),void *> > >::destroy<std::_Tree_node<void (__stdcall*)(void),void *> *>
_TEXT	ENDS
; Function compile flags: /Ogtp
; File c:\program files (x86)\microsoft visual studio\2017\community\vc\tools\msvc\14.10.25017\include\xstddef
;	COMDAT ??$addressof@PAU?$_Tree_node@P6GXXZPAX@std@@@std@@YAPAPAU?$_Tree_node@P6GXXZPAX@0@AAPAU10@@Z
_TEXT	SEGMENT
__Val$ = 8						; size = 4
??$addressof@PAU?$_Tree_node@P6GXXZPAX@std@@@std@@YAPAPAU?$_Tree_node@P6GXXZPAX@0@AAPAU10@@Z PROC ; std::addressof<std::_Tree_node<void (__stdcall*)(void),void *> *>, COMDAT

; 629  : 	{	// return address of _Val

	npad	2
	push	ebp
	mov	ebp, esp

; 630  : 	return (__builtin_addressof(_Val));

	mov	eax, DWORD PTR __Val$[ebp]

; 631  : 	}

	pop	ebp
	ret	0
??$addressof@PAU?$_Tree_node@P6GXXZPAX@std@@@std@@YAPAPAU?$_Tree_node@P6GXXZPAX@0@AAPAU10@@Z ENDP ; std::addressof<std::_Tree_node<void (__stdcall*)(void),void *> *>
_TEXT	ENDS
; Function compile flags: /Ogtp
; File c:\program files (x86)\microsoft visual studio\2017\community\vc\tools\msvc\14.10.25017\include\xmemory0
;	COMDAT ??$_Destroy_range@V?$allocator@PAUIUnknown@@@std@@PAPAUIUnknown@@@std@@YAXPAPAUIUnknown@@0AAU?$_Wrap_alloc@V?$allocator@PAUIUnknown@@@std@@@0@@Z
_TEXT	SEGMENT
__First$ = 8						; size = 4
__Last$ = 12						; size = 4
__Al$ = 16						; size = 4
??$_Destroy_range@V?$allocator@PAUIUnknown@@@std@@PAPAUIUnknown@@@std@@YAXPAPAUIUnknown@@0AAU?$_Wrap_alloc@V?$allocator@PAUIUnknown@@@std@@@0@@Z PROC ; std::_Destroy_range<std::allocator<IUnknown *>,IUnknown * *>, COMDAT

; 1215 : 		// note that this is an optimization for debug mode codegen;
; 1216 : 		// in release mode the BE removes all of this
; 1217 : 	typedef typename _Alloc::value_type _Val;
; 1218 : 	_Destroy_range1(_First, _Last, _Al, _Conjunction_t<
; 1219 : 		is_trivially_destructible<_Val>,
; 1220 : 		_Uses_default_destroy<_Alloc, _Val *>>());
; 1221 : 	}

	ret	0
??$_Destroy_range@V?$allocator@PAUIUnknown@@@std@@PAPAUIUnknown@@@std@@YAXPAPAUIUnknown@@0AAU?$_Wrap_alloc@V?$allocator@PAUIUnknown@@@std@@@0@@Z ENDP ; std::_Destroy_range<std::allocator<IUnknown *>,IUnknown * *>
_TEXT	ENDS
; Function compile flags: /Ogtp
; File c:\program files (x86)\microsoft visual studio\2017\community\vc\tools\msvc\14.10.25017\include\xutility
; File c:\program files (x86)\microsoft visual studio\2017\community\vc\tools\msvc\14.10.25017\include\vector
; File c:\program files (x86)\microsoft visual studio\2017\community\vc\tools\msvc\14.10.25017\include\xutility
; File c:\program files (x86)\microsoft visual studio\2017\community\vc\tools\msvc\14.10.25017\include\vector
; File c:\program files (x86)\microsoft visual studio\2017\community\vc\tools\msvc\14.10.25017\include\xutility
;	COMDAT ??$?0$$V@?$_Compressed_pair@U?$_Wrap_alloc@V?$allocator@PAUIUnknown@@@std@@@std@@V?$_Vector_val@U?$_Simple_types@PAUIUnknown@@@std@@@2@$00@std@@QAE@U_Zero_then_variadic_args_t@1@@Z
_TEXT	SEGMENT
___formal$ = 8						; size = 1
??$?0$$V@?$_Compressed_pair@U?$_Wrap_alloc@V?$allocator@PAUIUnknown@@@std@@@std@@V?$_Vector_val@U?$_Simple_types@PAUIUnknown@@@std@@@2@$00@std@@QAE@U_Zero_then_variadic_args_t@1@@Z PROC ; std::_Compressed_pair<std::_Wrap_alloc<std::allocator<IUnknown *> >,std::_Vector_val<std::_Simple_types<IUnknown *> >,1>::_Compressed_pair<std::_Wrap_alloc<std::allocator<IUnknown *> >,std::_Vector_val<std::_Simple_types<IUnknown *> >,1><>, COMDAT
; _this$ = ecx
; File c:\program files (x86)\microsoft visual studio\2017\community\vc\tools\msvc\14.10.25017\include\vector

; 476  : 		: _Myfirst(),

	mov	DWORD PTR [ecx], 0
; File c:\program files (x86)\microsoft visual studio\2017\community\vc\tools\msvc\14.10.25017\include\xutility

; 304  : 		}

	mov	eax, ecx
; File c:\program files (x86)\microsoft visual studio\2017\community\vc\tools\msvc\14.10.25017\include\vector

; 477  : 		_Mylast(),

	mov	DWORD PTR [ecx+4], 0

; 478  : 		_Myend()

	mov	DWORD PTR [ecx+8], 0
; File c:\program files (x86)\microsoft visual studio\2017\community\vc\tools\msvc\14.10.25017\include\xutility

; 304  : 		}

	ret	4
??$?0$$V@?$_Compressed_pair@U?$_Wrap_alloc@V?$allocator@PAUIUnknown@@@std@@@std@@V?$_Vector_val@U?$_Simple_types@PAUIUnknown@@@std@@@2@$00@std@@QAE@U_Zero_then_variadic_args_t@1@@Z ENDP ; std::_Compressed_pair<std::_Wrap_alloc<std::allocator<IUnknown *> >,std::_Vector_val<std::_Simple_types<IUnknown *> >,1>::_Compressed_pair<std::_Wrap_alloc<std::allocator<IUnknown *> >,std::_Vector_val<std::_Simple_types<IUnknown *> >,1><>
_TEXT	ENDS
; Function compile flags: /Ogtp
; File c:\program files (x86)\microsoft visual studio\2017\community\vc\tools\msvc\14.10.25017\include\xtree
; File c:\program files (x86)\microsoft visual studio\2017\community\vc\tools\msvc\14.10.25017\include\xstddef
; File c:\program files (x86)\microsoft visual studio\2017\community\vc\tools\msvc\14.10.25017\include\xtree
; File c:\program files (x86)\microsoft visual studio\2017\community\vc\tools\msvc\14.10.25017\include\xstddef
; File c:\program files (x86)\microsoft visual studio\2017\community\vc\tools\msvc\14.10.25017\include\xtree
; File c:\program files (x86)\microsoft visual studio\2017\community\vc\tools\msvc\14.10.25017\include\xstddef
; File c:\program files (x86)\microsoft visual studio\2017\community\vc\tools\msvc\14.10.25017\include\xtree
; File c:\program files (x86)\microsoft visual studio\2017\community\vc\tools\msvc\14.10.25017\include\utility
; File c:\program files (x86)\microsoft visual studio\2017\community\vc\tools\msvc\14.10.25017\include\xtree
;	COMDAT ??$_Eqrange@P6GXXZ@?$_Tree@V?$_Tset_traits@P6GXXZU?$less@P6GXXZ@std@@V?$allocator@P6GXXZ@2@$0A@@std@@@std@@IBE?AU?$pair@V?$_Tree_const_iterator@V?$_Tree_val@U?$_Tree_simple_types@P6GXXZ@std@@@std@@@std@@V12@@1@ABQ6GXXZ@Z
_TEXT	SEGMENT
tv444 = -4						; size = 4
___$ReturnUdt$ = 8					; size = 4
__Keyval$ = 12						; size = 4
??$_Eqrange@P6GXXZ@?$_Tree@V?$_Tset_traits@P6GXXZU?$less@P6GXXZ@std@@V?$allocator@P6GXXZ@2@$0A@@std@@@std@@IBE?AU?$pair@V?$_Tree_const_iterator@V?$_Tree_val@U?$_Tree_simple_types@P6GXXZ@std@@@std@@@std@@V12@@1@ABQ6GXXZ@Z PROC ; std::_Tree<std::_Tset_traits<void (__stdcall*)(void),std::less<void (__stdcall*)(void)>,std::allocator<void (__stdcall*)(void)>,0> >::_Eqrange<void (__stdcall*)(void)>, COMDAT
; _this$ = ecx

; 2004 : 		{	// find leftmost node not less than _Keyval

	npad	2
	push	ebp
	mov	ebp, esp
	push	ecx
	push	ebx

; 2008 : 
; 2009 : 		while (!this->_Isnil(_Pnode))

	mov	ebx, DWORD PTR __Keyval$[ebp]
	push	edi

; 586  : 		return ((_Nodepref)_Pnode->_Parent);

	mov	edi, DWORD PTR [ecx]

; 2006 : 		_Nodeptr _Lonode = this->_Myhead();	// end() if search fails
; 2007 : 		_Nodeptr _Hinode = this->_Myhead();	// end() if search fails

	mov	ecx, edi

; 586  : 		return ((_Nodepref)_Pnode->_Parent);

	lea	eax, DWORD PTR [edi+4]
	mov	DWORD PTR tv444[ebp], eax

; 2005 : 		_Nodeptr _Pnode = _Root();

	mov	eax, DWORD PTR [eax]

; 2008 : 
; 2009 : 		while (!this->_Isnil(_Pnode))

	cmp	BYTE PTR [eax+13], 0
	jne	SHORT $LN3@Eqrange
	push	esi
; File c:\program files (x86)\microsoft visual studio\2017\community\vc\tools\msvc\14.10.25017\include\xstddef

; 234  : 		return (_Left < _Right);

	mov	esi, DWORD PTR [ebx]
$LL2@Eqrange:
	mov	edx, DWORD PTR [eax+16]
	cmp	edx, esi
; File c:\program files (x86)\microsoft visual studio\2017\community\vc\tools\msvc\14.10.25017\include\xtree

; 2010 : 			if (_DEBUG_LT_PRED(this->_Getcomp(), this->_Key(_Pnode), _Keyval))

	jae	SHORT $LN6@Eqrange

; 2011 : 				_Pnode = this->_Right(_Pnode);	// descend right subtree

	mov	eax, DWORD PTR [eax+8]

; 2012 : 			else

	jmp	SHORT $LN7@Eqrange
$LN6@Eqrange:

; 2015 : 						&& _DEBUG_LT_PRED(this->_Getcomp(), _Keyval,

	cmp	BYTE PTR [ecx+13], 0
	je	SHORT $LN8@Eqrange
; File c:\program files (x86)\microsoft visual studio\2017\community\vc\tools\msvc\14.10.25017\include\xstddef

; 234  : 		return (_Left < _Right);

	cmp	esi, edx
; File c:\program files (x86)\microsoft visual studio\2017\community\vc\tools\msvc\14.10.25017\include\xtree

; 2015 : 						&& _DEBUG_LT_PRED(this->_Getcomp(), _Keyval,

	cmovb	ecx, eax
$LN8@Eqrange:

; 2016 : 						this->_Key(_Pnode)))
; 2017 : 					_Hinode = _Pnode;	// _Pnode greater, remember it
; 2018 : 				_Lonode = _Pnode;

	mov	edi, eax

; 2019 : 				_Pnode = this->_Left(_Pnode);	// descend left subtree

	mov	eax, DWORD PTR [eax]
$LN7@Eqrange:

; 2008 : 
; 2009 : 		while (!this->_Isnil(_Pnode))

	cmp	BYTE PTR [eax+13], 0
	je	SHORT $LL2@Eqrange
	pop	esi
$LN3@Eqrange:

; 2020 : 				}
; 2021 : 
; 2022 : 		_Pnode = this->_Isnil(_Hinode) ? _Root()

	cmp	BYTE PTR [ecx+13], 0
	mov	eax, ecx
	cmovne	eax, DWORD PTR tv444[ebp]
	mov	eax, DWORD PTR [eax]

; 2023 : 			: this->_Left(_Hinode);	// continue scan for upper bound
; 2024 : 		while (!this->_Isnil(_Pnode))

	cmp	BYTE PTR [eax+13], 0
	jne	SHORT $LN5@Eqrange
; File c:\program files (x86)\microsoft visual studio\2017\community\vc\tools\msvc\14.10.25017\include\xstddef

; 234  : 		return (_Left < _Right);

	mov	edx, DWORD PTR [ebx]
$LL4@Eqrange:
	cmp	edx, DWORD PTR [eax+16]
; File c:\program files (x86)\microsoft visual studio\2017\community\vc\tools\msvc\14.10.25017\include\xtree

; 2025 : 			if (_DEBUG_LT_PRED(this->_Getcomp(), _Keyval, this->_Key(_Pnode)))

	jae	SHORT $LN9@Eqrange

; 2026 : 				{	// _Pnode greater than _Keyval, remember it
; 2027 : 				_Hinode = _Pnode;

	mov	ecx, eax

; 2028 : 				_Pnode = this->_Left(_Pnode);	// descend left subtree

	mov	eax, DWORD PTR [eax]

; 2029 : 				}
; 2030 : 			else

	jmp	SHORT $LN10@Eqrange
$LN9@Eqrange:

; 2031 : 				_Pnode = this->_Right(_Pnode);	// descend right subtree

	mov	eax, DWORD PTR [eax+8]
$LN10@Eqrange:

; 2023 : 			: this->_Left(_Hinode);	// continue scan for upper bound
; 2024 : 		while (!this->_Isnil(_Pnode))

	cmp	BYTE PTR [eax+13], 0
	je	SHORT $LL4@Eqrange
$LN5@Eqrange:
; File c:\program files (x86)\microsoft visual studio\2017\community\vc\tools\msvc\14.10.25017\include\utility

; 187  : 		: first(_STD forward<_Other1>(_Val1)),

	mov	eax, DWORD PTR ___$ReturnUdt$[ebp]
	mov	DWORD PTR [eax], edi
	pop	edi

; 188  : 				second(_STD forward<_Other2>(_Val2))

	mov	DWORD PTR [eax+4], ecx
	pop	ebx
; File c:\program files (x86)\microsoft visual studio\2017\community\vc\tools\msvc\14.10.25017\include\xtree

; 2036 : 		}

	mov	esp, ebp
	pop	ebp
	ret	8
??$_Eqrange@P6GXXZ@?$_Tree@V?$_Tset_traits@P6GXXZU?$less@P6GXXZ@std@@V?$allocator@P6GXXZ@2@$0A@@std@@@std@@IBE?AU?$pair@V?$_Tree_const_iterator@V?$_Tree_val@U?$_Tree_simple_types@P6GXXZ@std@@@std@@@std@@V12@@1@ABQ6GXXZ@Z ENDP ; std::_Tree<std::_Tset_traits<void (__stdcall*)(void),std::less<void (__stdcall*)(void)>,std::allocator<void (__stdcall*)(void)>,0> >::_Eqrange<void (__stdcall*)(void)>
_TEXT	ENDS
; Function compile flags: /Ogtp
; File c:\program files (x86)\microsoft visual studio\2017\community\vc\tools\msvc\14.10.25017\include\xtree
; File c:\program files (x86)\microsoft visual studio\2017\community\vc\tools\msvc\14.10.25017\include\utility
; File c:\program files (x86)\microsoft visual studio\2017\community\vc\tools\msvc\14.10.25017\include\xtree
;	COMDAT ??$_Eqrange@P6GXXZ@?$_Tree@V?$_Tset_traits@P6GXXZU?$less@P6GXXZ@std@@V?$allocator@P6GXXZ@2@$0A@@std@@@std@@IAE?AU?$pair@V?$_Tree_const_iterator@V?$_Tree_val@U?$_Tree_simple_types@P6GXXZ@std@@@std@@@std@@V12@@1@ABQ6GXXZ@Z
_TEXT	SEGMENT
__Ans$ = -8						; size = 8
___$ReturnUdt$ = 8					; size = 4
__Keyval$ = 12						; size = 4
??$_Eqrange@P6GXXZ@?$_Tree@V?$_Tset_traits@P6GXXZU?$less@P6GXXZ@std@@V?$allocator@P6GXXZ@2@$0A@@std@@@std@@IAE?AU?$pair@V?$_Tree_const_iterator@V?$_Tree_val@U?$_Tree_simple_types@P6GXXZ@std@@@std@@@std@@V12@@1@ABQ6GXXZ@Z PROC ; std::_Tree<std::_Tset_traits<void (__stdcall*)(void),std::less<void (__stdcall*)(void)>,std::allocator<void (__stdcall*)(void)>,0> >::_Eqrange<void (__stdcall*)(void)>, COMDAT
; _this$ = ecx

; 2040 : 		{	// find leftmost node not less than _Keyval

	npad	2
	push	ebp
	mov	ebp, esp
	sub	esp, 8

; 2041 : 		_Paircc _Ans(static_cast<const _Myt *>(this)->_Eqrange(_Keyval));

	push	DWORD PTR __Keyval$[ebp]
	lea	eax, DWORD PTR __Ans$[ebp]
	push	eax
	call	??$_Eqrange@P6GXXZ@?$_Tree@V?$_Tset_traits@P6GXXZU?$less@P6GXXZ@std@@V?$allocator@P6GXXZ@2@$0A@@std@@@std@@IBE?AU?$pair@V?$_Tree_const_iterator@V?$_Tree_val@U?$_Tree_simple_types@P6GXXZ@std@@@std@@@std@@V12@@1@ABQ6GXXZ@Z ; std::_Tree<std::_Tset_traits<void (__stdcall*)(void),std::less<void (__stdcall*)(void)>,std::allocator<void (__stdcall*)(void)>,0> >::_Eqrange<void (__stdcall*)(void)>
; File c:\program files (x86)\microsoft visual studio\2017\community\vc\tools\msvc\14.10.25017\include\utility

; 187  : 		: first(_STD forward<_Other1>(_Val1)),

	mov	eax, DWORD PTR ___$ReturnUdt$[ebp]
	mov	ecx, DWORD PTR __Ans$[ebp]
	mov	DWORD PTR [eax], ecx

; 188  : 				second(_STD forward<_Other2>(_Val2))

	mov	ecx, DWORD PTR __Ans$[ebp+4]
	mov	DWORD PTR [eax+4], ecx
; File c:\program files (x86)\microsoft visual studio\2017\community\vc\tools\msvc\14.10.25017\include\xtree

; 2045 : 		}

	mov	esp, ebp
	pop	ebp
	ret	8
??$_Eqrange@P6GXXZ@?$_Tree@V?$_Tset_traits@P6GXXZU?$less@P6GXXZ@std@@V?$allocator@P6GXXZ@2@$0A@@std@@@std@@IAE?AU?$pair@V?$_Tree_const_iterator@V?$_Tree_val@U?$_Tree_simple_types@P6GXXZ@std@@@std@@@std@@V12@@1@ABQ6GXXZ@Z ENDP ; std::_Tree<std::_Tset_traits<void (__stdcall*)(void),std::less<void (__stdcall*)(void)>,std::allocator<void (__stdcall*)(void)>,0> >::_Eqrange<void (__stdcall*)(void)>
_TEXT	ENDS
; Function compile flags: /Ogtp
; File c:\program files (x86)\microsoft visual studio\2017\community\vc\tools\msvc\14.10.25017\include\vector
; File c:\program files (x86)\microsoft visual studio\2017\community\vc\tools\msvc\14.10.25017\include\xmemory0
; File c:\program files (x86)\microsoft visual studio\2017\community\vc\tools\msvc\14.10.25017\include\vector
; File c:\program files (x86)\microsoft visual studio\2017\community\vc\tools\msvc\14.10.25017\include\xmemory0
; File c:\program files (x86)\microsoft visual studio\2017\community\vc\tools\msvc\14.10.25017\include\vector
; File c:\program files (x86)\microsoft visual studio\2017\community\vc\tools\msvc\14.10.25017\include\xmemory0
; File c:\program files (x86)\microsoft visual studio\2017\community\vc\tools\msvc\14.10.25017\include\xutility
; File c:\program files (x86)\microsoft visual studio\2017\community\vc\tools\msvc\14.10.25017\include\vector
; File c:\program files (x86)\microsoft visual studio\2017\community\vc\tools\msvc\14.10.25017\include\xutility
; File c:\program files (x86)\microsoft visual studio\2017\community\vc\tools\msvc\14.10.25017\include\vector
; File c:\program files (x86)\microsoft visual studio\2017\community\vc\tools\msvc\14.10.25017\include\xmemory0
; File c:\program files (x86)\microsoft visual studio\2017\community\vc\tools\msvc\14.10.25017\include\vector
; File c:\program files (x86)\microsoft visual studio\2017\community\vc\tools\msvc\14.10.25017\include\xmemory0
; File c:\program files (x86)\microsoft visual studio\2017\community\vc\tools\msvc\14.10.25017\include\vector
;	COMDAT ??$emplace_back@ABQAUIUnknown@@@?$vector@PAUIUnknown@@V?$allocator@PAUIUnknown@@@std@@@std@@QAEXABQAUIUnknown@@@Z
_TEXT	SEGMENT
__Newcapacity$1$ = -4					; size = 4
_<_Val_0>$ = 8						; size = 4
??$emplace_back@ABQAUIUnknown@@@?$vector@PAUIUnknown@@V?$allocator@PAUIUnknown@@@std@@@std@@QAEXABQAUIUnknown@@@Z PROC ; std::vector<IUnknown *,std::allocator<IUnknown *> >::emplace_back<IUnknown * const &>, COMDAT
; _this$ = ecx

; 908  : 		{	// insert by perfectly forwarding into element at end, provide strong guarantee

	npad	2
	push	ebp
	mov	ebp, esp
	push	ecx
	push	esi
	mov	esi, ecx
	push	edi

; 1731 : 		return (this->_Myend() != this->_Mylast());

	mov	ecx, DWORD PTR [esi+8]
	mov	edi, DWORD PTR [esi+4]
	cmp	ecx, edi

; 909  : 		if (_Has_unused_capacity())

	je	SHORT $LN2@emplace_ba
; File c:\program files (x86)\microsoft visual studio\2017\community\vc\tools\msvc\14.10.25017\include\xmemory0

; 840  : 		::new ((void *)_Ptr) _Objty(_STD forward<_Types>(_Args)...);

	test	edi, edi
	je	SHORT $LN70@emplace_ba
	mov	eax, DWORD PTR _<_Val_0>$[ebp]
	mov	eax, DWORD PTR [eax]
	mov	DWORD PTR [edi], eax
$LN70@emplace_ba:
; File c:\program files (x86)\microsoft visual studio\2017\community\vc\tools\msvc\14.10.25017\include\vector

; 902  : 		++this->_Mylast();

	add	DWORD PTR [esi+4], 4
	pop	edi
	pop	esi

; 929  : 			_Emplaced = true;
; 930  : 			_Umove_if_noexcept(this->_Myfirst(), this->_Mylast(), _Newvec);
; 931  : 			_CATCH_ALL
; 932  : 			if (_Emplaced)
; 933  : 				{
; 934  : 				this->_Getal().destroy(_Unfancy(_Newvec + _Oldsize));
; 935  : 				}
; 936  : 
; 937  : 			this->_Getal().deallocate(_Newvec, _Newcapacity);
; 938  : 			_RERAISE;
; 939  : 			_CATCH_END
; 940  : 
; 941  : 			_Change_array(_Newvec, _Newsize, _Newcapacity);
; 942  : 			}
; 943  : 		}

	mov	esp, ebp
	pop	ebp
	ret	4
$LN2@emplace_ba:

; 1710 : 		return (this->_Mylast() - this->_Myfirst());

	mov	eax, DWORD PTR [esi]
	sub	edi, eax
	sar	edi, 2

; 910  : 			{
; 911  : 			_Emplace_back_with_unused_capacity(_STD forward<_Valty>(_Val)...);
; 912  : 			}
; 913  : 		else
; 914  : 			{	// reallocate
; 915  : 			const size_type _Oldsize = size();
; 916  : 
; 917  : 			if (_Oldsize == max_size())

	cmp	edi, 1073741823				; 3fffffffH
	je	$LN365@emplace_ba

; 1720 : 		return (this->_Myend() - this->_Myfirst());

	sub	ecx, eax

; 920  : 				}
; 921  : 
; 922  : 			const size_type _Newsize = _Oldsize + 1;

	lea	edx, DWORD PTR [edi+1]

; 1720 : 		return (this->_Myend() - this->_Myfirst());

	sar	ecx, 2

; 1892 : 		if (_Oldcapacity > max_size() - _Oldcapacity / 2)

	mov	eax, 1073741823				; 3fffffffH
	push	ebx
	mov	ebx, ecx
	shr	ebx, 1
	sub	eax, ebx
	cmp	ecx, eax
	jbe	SHORT $LN146@emplace_ba

; 1893 : 			{
; 1894 : 			return (_Newsize);	// geometric growth would overflow

	mov	eax, edx
	mov	DWORD PTR __Newcapacity$1$[ebp], edx
	jmp	SHORT $LN147@emplace_ba
$LN146@emplace_ba:

; 1895 : 			}
; 1896 : 
; 1897 : 		const size_type _Geometric = _Oldcapacity + _Oldcapacity / 2;

	lea	eax, DWORD PTR [ebx+ecx]

; 1898 : 
; 1899 : 		if (_Geometric < _Newsize)

	cmp	eax, edx
	cmovb	eax, edx
	mov	DWORD PTR __Newcapacity$1$[ebp], eax
$LN147@emplace_ba:
; File c:\program files (x86)\microsoft visual studio\2017\community\vc\tools\msvc\14.10.25017\include\xmemory0

; 1077 : 		return (_Mybase::allocate(_Count));

	push	eax
	mov	ecx, esi
	call	?allocate@?$allocator@PAUIUnknown@@@std@@QAEPAPAUIUnknown@@I@Z ; std::allocator<IUnknown *>::allocate
; File c:\program files (x86)\microsoft visual studio\2017\community\vc\tools\msvc\14.10.25017\include\vector

; 925  : 			const pointer _Newvec = this->_Getal().allocate(_Newcapacity);

	mov	ebx, eax

; 926  : 
; 927  : 			_TRY_BEGIN
; 928  : 			this->_Getal().construct(_Unfancy(_Newvec + _Oldsize), _STD forward<_Valty>(_Val)...);

	lea	eax, DWORD PTR [ebx+edi*4]
; File c:\program files (x86)\microsoft visual studio\2017\community\vc\tools\msvc\14.10.25017\include\xmemory0

; 840  : 		::new ((void *)_Ptr) _Objty(_STD forward<_Types>(_Args)...);

	test	eax, eax
	je	SHORT $LN219@emplace_ba
	mov	ecx, DWORD PTR _<_Val_0>$[ebp]
	mov	ecx, DWORD PTR [ecx]
	mov	DWORD PTR [eax], ecx
$LN219@emplace_ba:
; File c:\program files (x86)\microsoft visual studio\2017\community\vc\tools\msvc\14.10.25017\include\xutility

; 2296 : 	const char * const _First_ch = reinterpret_cast<const char *>(_First);

	mov	ecx, DWORD PTR [esi]

; 2297 : 	const char * const _Last_ch = reinterpret_cast<const char *>(_Last);
; 2298 : 	char * const _Dest_ch = reinterpret_cast<char *>(_Dest);
; 2299 : 	const size_t _Count = _Last_ch - _First_ch;

	mov	eax, DWORD PTR [esi+4]
	sub	eax, ecx

; 2300 : 	_CSTD memmove(_Dest_ch, _First_ch, _Count);

	push	eax
	push	ecx
	push	ebx
	call	DWORD PTR __imp__memmove
; File c:\program files (x86)\microsoft visual studio\2017\community\vc\tools\msvc\14.10.25017\include\vector

; 1934 : 		if (this->_Myfirst() != pointer())

	mov	ecx, DWORD PTR [esi]
; File c:\program files (x86)\microsoft visual studio\2017\community\vc\tools\msvc\14.10.25017\include\xutility

; 2300 : 	_CSTD memmove(_Dest_ch, _First_ch, _Count);

	add	esp, 12					; 0000000cH
; File c:\program files (x86)\microsoft visual studio\2017\community\vc\tools\msvc\14.10.25017\include\vector

; 1934 : 		if (this->_Myfirst() != pointer())

	test	ecx, ecx
	je	SHORT $LN271@emplace_ba

; 1937 : 			this->_Getal().deallocate(this->_Myfirst(), this->_Myend() - this->_Myfirst());

	mov	eax, DWORD PTR [esi+8]
	sub	eax, ecx
; File c:\program files (x86)\microsoft visual studio\2017\community\vc\tools\msvc\14.10.25017\include\xmemory0

; 823  : 		_Deallocate(_Ptr, _Count, sizeof (_Ty));

	push	4
; File c:\program files (x86)\microsoft visual studio\2017\community\vc\tools\msvc\14.10.25017\include\vector

; 1937 : 			this->_Getal().deallocate(this->_Myfirst(), this->_Myend() - this->_Myfirst());

	sar	eax, 2
; File c:\program files (x86)\microsoft visual studio\2017\community\vc\tools\msvc\14.10.25017\include\xmemory0

; 823  : 		_Deallocate(_Ptr, _Count, sizeof (_Ty));

	push	eax
	push	ecx
	call	?_Deallocate@std@@YAXPAXII@Z		; std::_Deallocate
	add	esp, 12					; 0000000cH
$LN271@emplace_ba:
; File c:\program files (x86)\microsoft visual studio\2017\community\vc\tools\msvc\14.10.25017\include\vector

; 1941 : 		this->_Mylast() = _Newvec + _Newsize;

	lea	eax, DWORD PTR [edi+1]
	mov	DWORD PTR [esi], ebx
	lea	eax, DWORD PTR [ebx+eax*4]
	mov	DWORD PTR [esi+4], eax

; 1942 : 		this->_Myend() = _Newvec + _Newcapacity;

	mov	eax, DWORD PTR __Newcapacity$1$[ebp]
	lea	eax, DWORD PTR [ebx+eax*4]
	pop	ebx
	pop	edi
	mov	DWORD PTR [esi+8], eax
	pop	esi

; 929  : 			_Emplaced = true;
; 930  : 			_Umove_if_noexcept(this->_Myfirst(), this->_Mylast(), _Newvec);
; 931  : 			_CATCH_ALL
; 932  : 			if (_Emplaced)
; 933  : 				{
; 934  : 				this->_Getal().destroy(_Unfancy(_Newvec + _Oldsize));
; 935  : 				}
; 936  : 
; 937  : 			this->_Getal().deallocate(_Newvec, _Newcapacity);
; 938  : 			_RERAISE;
; 939  : 			_CATCH_END
; 940  : 
; 941  : 			_Change_array(_Newvec, _Newsize, _Newcapacity);
; 942  : 			}
; 943  : 		}

	mov	esp, ebp
	pop	ebp
	ret	4
$LN365@emplace_ba:

; 918  : 				{
; 919  : 				_Xlength();

	call	?_Xlength@?$vector@PAUIUnknown@@V?$allocator@PAUIUnknown@@@std@@@std@@CAXXZ ; std::vector<IUnknown *,std::allocator<IUnknown *> >::_Xlength
$LN367@emplace_ba:
$LN364@emplace_ba:
	int	3
??$emplace_back@ABQAUIUnknown@@@?$vector@PAUIUnknown@@V?$allocator@PAUIUnknown@@@std@@@std@@QAEXABQAUIUnknown@@@Z ENDP ; std::vector<IUnknown *,std::allocator<IUnknown *> >::emplace_back<IUnknown * const &>
_TEXT	ENDS
; Function compile flags: /Ogtp
; File c:\program files (x86)\microsoft visual studio\2017\community\vc\tools\msvc\14.10.25017\include\xstddef
;	COMDAT ??$addressof@V?$_Vector_val@U?$_Simple_types@PAUIUnknown@@@std@@@std@@@std@@YAPAV?$_Vector_val@U?$_Simple_types@PAUIUnknown@@@std@@@0@AAV10@@Z
_TEXT	SEGMENT
__Val$ = 8						; size = 4
??$addressof@V?$_Vector_val@U?$_Simple_types@PAUIUnknown@@@std@@@std@@@std@@YAPAV?$_Vector_val@U?$_Simple_types@PAUIUnknown@@@std@@@0@AAV10@@Z PROC ; std::addressof<std::_Vector_val<std::_Simple_types<IUnknown *> > >, COMDAT

; 629  : 	{	// return address of _Val

	npad	2
	push	ebp
	mov	ebp, esp

; 630  : 	return (__builtin_addressof(_Val));

	mov	eax, DWORD PTR __Val$[ebp]

; 631  : 	}

	pop	ebp
	ret	0
??$addressof@V?$_Vector_val@U?$_Simple_types@PAUIUnknown@@@std@@@std@@@std@@YAPAV?$_Vector_val@U?$_Simple_types@PAUIUnknown@@@std@@@0@AAV10@@Z ENDP ; std::addressof<std::_Vector_val<std::_Simple_types<IUnknown *> > >
_TEXT	ENDS
; Function compile flags: /Ogtp
; File c:\program files (x86)\microsoft visual studio\2017\community\vc\tools\msvc\14.10.25017\include\xstddef
;	COMDAT ??$addressof@V?$_Tree_val@U?$_Tree_simple_types@P6GXXZ@std@@@std@@@std@@YAPAV?$_Tree_val@U?$_Tree_simple_types@P6GXXZ@std@@@0@AAV10@@Z
_TEXT	SEGMENT
__Val$ = 8						; size = 4
??$addressof@V?$_Tree_val@U?$_Tree_simple_types@P6GXXZ@std@@@std@@@std@@YAPAV?$_Tree_val@U?$_Tree_simple_types@P6GXXZ@std@@@0@AAV10@@Z PROC ; std::addressof<std::_Tree_val<std::_Tree_simple_types<void (__stdcall*)(void)> > >, COMDAT

; 629  : 	{	// return address of _Val

	npad	2
	push	ebp
	mov	ebp, esp

; 630  : 	return (__builtin_addressof(_Val));

	mov	eax, DWORD PTR __Val$[ebp]

; 631  : 	}

	pop	ebp
	ret	0
??$addressof@V?$_Tree_val@U?$_Tree_simple_types@P6GXXZ@std@@@std@@@std@@YAPAV?$_Tree_val@U?$_Tree_simple_types@P6GXXZ@std@@@0@AAV10@@Z ENDP ; std::addressof<std::_Tree_val<std::_Tree_simple_types<void (__stdcall*)(void)> > >
_TEXT	ENDS
; Function compile flags: /Ogtp
; File c:\program files (x86)\microsoft visual studio\2017\community\vc\tools\msvc\14.10.25017\include\xutility
;	COMDAT ??$distance@V?$_Tree_const_iterator@V?$_Tree_val@U?$_Tree_simple_types@P6GXXZ@std@@@std@@@std@@@std@@YAHV?$_Tree_const_iterator@V?$_Tree_val@U?$_Tree_simple_types@P6GXXZ@std@@@std@@@0@0@Z
_TEXT	SEGMENT
$T1 = -4						; size = 1
__First$ = 8						; size = 4
__Last$ = 12						; size = 4
??$distance@V?$_Tree_const_iterator@V?$_Tree_val@U?$_Tree_simple_types@P6GXXZ@std@@@std@@@std@@@std@@YAHV?$_Tree_const_iterator@V?$_Tree_val@U?$_Tree_simple_types@P6GXXZ@std@@@std@@@0@0@Z PROC ; std::distance<std::_Tree_const_iterator<std::_Tree_val<std::_Tree_simple_types<void (__stdcall*)(void)> > > >, COMDAT

; 1112 : 	{	// return distance between iterators

	npad	2
	push	ebp
	mov	ebp, esp
	push	ecx

; 1113 : 	return (_Distance1(_First, _Last, _Iter_cat_t<_InIt>()));

	push	DWORD PTR $T1[ebp]
	push	DWORD PTR __Last$[ebp]
	push	DWORD PTR __First$[ebp]
	call	??$_Distance1@V?$_Tree_const_iterator@V?$_Tree_val@U?$_Tree_simple_types@P6GXXZ@std@@@std@@@std@@@std@@YAHV?$_Tree_const_iterator@V?$_Tree_val@U?$_Tree_simple_types@P6GXXZ@std@@@std@@@0@0Uinput_iterator_tag@0@@Z ; std::_Distance1<std::_Tree_const_iterator<std::_Tree_val<std::_Tree_simple_types<void (__stdcall*)(void)> > > >
	add	esp, 12					; 0000000cH

; 1114 : 	}

	mov	esp, ebp
	pop	ebp
	ret	0
??$distance@V?$_Tree_const_iterator@V?$_Tree_val@U?$_Tree_simple_types@P6GXXZ@std@@@std@@@std@@@std@@YAHV?$_Tree_const_iterator@V?$_Tree_val@U?$_Tree_simple_types@P6GXXZ@std@@@std@@@0@0@Z ENDP ; std::distance<std::_Tree_const_iterator<std::_Tree_val<std::_Tree_simple_types<void (__stdcall*)(void)> > > >
_TEXT	ENDS
; Function compile flags: /Ogtp
; File c:\users\andon\source\repos\specialk\src\imgui\backends\imgui_d3d11.cpp
; File c:\users\andon\source\repos\specialk\include\specialk\tls.h
; File c:\users\andon\source\repos\specialk\src\imgui\backends\imgui_d3d11.cpp
; File c:\users\andon\source\repos\specialk\include\specialk\tls.h
; File c:\users\andon\source\repos\specialk\src\imgui\backends\imgui_d3d11.cpp
; File c:\program files (x86)\microsoft visual studio\2017\community\vc\tools\msvc\14.10.25017\atlmfc\include\atlcomcli.h
; File c:\users\andon\source\repos\specialk\src\imgui\backends\imgui_d3d11.cpp
; File c:\program files (x86)\windows kits\8.1\include\um\unknwnbase.h
; File c:\users\andon\source\repos\specialk\src\imgui\backends\imgui_d3d11.cpp
; File c:\program files (x86)\windows kits\8.1\include\um\unknwnbase.h
; File c:\users\andon\source\repos\specialk\src\imgui\backends\imgui_d3d11.cpp
; File c:\program files (x86)\microsoft visual studio\2017\community\vc\tools\msvc\14.10.25017\atlmfc\include\atlcomcli.h
; File c:\users\andon\source\repos\specialk\src\imgui\backends\imgui_d3d11.cpp
; File c:\program files (x86)\microsoft visual studio\2017\community\vc\tools\msvc\14.10.25017\atlmfc\include\atlcomcli.h
; File c:\users\andon\source\repos\specialk\include\specialk\tls.h
; File c:\users\andon\source\repos\specialk\src\imgui\backends\imgui_d3d11.cpp
_TEXT	SEGMENT
_auto_bool$ = -32					; size = 8
_auto_bool$1$ = -24					; size = 4
_pDevCtx$ = -20						; size = 4
_pDev$ = -16						; size = 4
__$EHRec$ = -12						; size = 12
_This$ = 8						; size = 4
_BufferCount$ = 12					; size = 4
_Width$ = 16						; size = 4
_Height$ = 20						; size = 4
_NewFormat$ = 24					; size = 4
_SwapChainFlags$ = 28					; size = 4
?ImGui_ImplDX11_Resize@@YAXPAUIDXGISwapChain@@IIIW4DXGI_FORMAT@@I@Z PROC ; ImGui_ImplDX11_Resize

; 868  : {

	npad	2
	push	ebp
	mov	ebp, esp
	mov	eax, DWORD PTR fs:0
	push	-1
	push	__ehhandler$?ImGui_ImplDX11_Resize@@YAXPAUIDXGISwapChain@@IIIW4DXGI_FORMAT@@I@Z
	push	eax
	mov	DWORD PTR fs:0, esp
	sub	esp, 20					; 00000014H
	push	ebx

; 869  :   UNREFERENCED_PARAMETER (BufferCount);
; 870  :   UNREFERENCED_PARAMETER (NewFormat);
; 871  :   UNREFERENCED_PARAMETER (SwapChainFlags);
; 872  :   UNREFERENCED_PARAMETER (Width);
; 873  :   UNREFERENCED_PARAMETER (Height);
; 874  :   UNREFERENCED_PARAMETER (This);
; 875  : 
; 876  : 
; 877  :   SK_RenderBackend& rb =

	call	?SK_GetCurrentRenderBackend@@YGAAVSK_RenderBackend_V2@@XZ ; SK_GetCurrentRenderBackend
	mov	ebx, eax

; 878  :     SK_GetCurrentRenderBackend ();
; 879  : 
; 880  :   if (! rb.device)

	cmp	DWORD PTR [ebx+36], 0
	je	$LN42@ImGui_Impl

; 883  :   SK_ScopedBool auto_bool (&SK_TLS_Bottom ()->imgui.drawing);

	push	esi
	push	edi
	call	?SK_TLS_Bottom@@YGPAUSK_TLS@@XZ		; SK_TLS_Bottom
; File c:\users\andon\source\repos\specialk\include\specialk\tls.h

; 139  :     bOrig_ = *pBool;

	mov	esi, DWORD PTR [eax+48]
	mov	DWORD PTR _auto_bool$1$[ebp], esi
	mov	DWORD PTR _auto_bool$[ebp+4], esi
; File c:\users\andon\source\repos\specialk\src\imgui\backends\imgui_d3d11.cpp

; 883  :   SK_ScopedBool auto_bool (&SK_TLS_Bottom ()->imgui.drawing);

	lea	edi, DWORD PTR [eax+48]
; File c:\users\andon\source\repos\specialk\include\specialk\tls.h

; 138  :     pBool_ =  pBool;

	mov	DWORD PTR _auto_bool$[ebp], edi
; File c:\users\andon\source\repos\specialk\src\imgui\backends\imgui_d3d11.cpp

; 883  :   SK_ScopedBool auto_bool (&SK_TLS_Bottom ()->imgui.drawing);

	mov	DWORD PTR __$EHRec$[ebp+8], 0

; 884  : 
; 885  :   // Do not dump ImGui font textures
; 886  :   SK_TLS_Bottom ()->imgui.drawing = true;

	call	?SK_TLS_Bottom@@YGPAUSK_TLS@@XZ		; SK_TLS_Bottom
	mov	DWORD PTR [eax+48], 1
; File c:\program files (x86)\microsoft visual studio\2017\community\vc\tools\msvc\14.10.25017\atlmfc\include\atlcomcli.h

; 162  :         p = lp;

	xor	eax, eax
	mov	DWORD PTR _pDev$[ebp], eax
	xor	ecx, ecx
	mov	DWORD PTR _pDevCtx$[ebp], ecx
; File c:\users\andon\source\repos\specialk\src\imgui\backends\imgui_d3d11.cpp

; 892  :   CComPtr <ID3D11DeviceContext> pDevCtx = nullptr;

	mov	BYTE PTR __$EHRec$[ebp+8], 2

; 893  : 
; 894  :   if (rb.d3d11.immediate_ctx != nullptr)

	cmp	DWORD PTR [ebx+68], ecx
	je	SHORT $LN4@ImGui_Impl

; 895  :   {
; 896  :     HRESULT hr0 = rb.device->QueryInterface              <ID3D11Device>        (&pDev);

	mov	eax, DWORD PTR [ebx+36]
; File c:\program files (x86)\windows kits\8.1\include\um\unknwnbase.h

; 131  :                 return QueryInterface(__uuidof(Q), (void **)pp);

	lea	edx, DWORD PTR _pDev$[ebp]
	push	edx
	push	OFFSET __GUID_db6f6ddb_ac77_4e88_8253_819df9bbf140
	push	eax
	mov	ecx, DWORD PTR [eax]
	call	DWORD PTR [ecx]
; File c:\users\andon\source\repos\specialk\src\imgui\backends\imgui_d3d11.cpp

; 897  :     HRESULT hr1 = rb.d3d11.immediate_ctx->QueryInterface <ID3D11DeviceContext> (&pDevCtx);

	mov	ecx, DWORD PTR [ebx+68]
	mov	esi, eax
; File c:\program files (x86)\windows kits\8.1\include\um\unknwnbase.h

; 131  :                 return QueryInterface(__uuidof(Q), (void **)pp);

	lea	eax, DWORD PTR _pDevCtx$[ebp]
	push	eax
	push	OFFSET __GUID_c0bfa96c_e089_44fb_8eaf_26f8796190da
	mov	edx, DWORD PTR [ecx]
	push	ecx
	call	DWORD PTR [edx]
; File c:\users\andon\source\repos\specialk\src\imgui\backends\imgui_d3d11.cpp

; 899  :     if (SUCCEEDED (hr0) && SUCCEEDED (hr1))

	test	esi, esi
	js	SHORT $LN44@ImGui_Impl
	test	eax, eax
	js	SHORT $LN44@ImGui_Impl

; 900  :     {
; 901  :       ImGui_ImplDX11_InvalidateDeviceObjects ();

	call	?ImGui_ImplDX11_InvalidateDeviceObjects@@YAXXZ ; ImGui_ImplDX11_InvalidateDeviceObjects
$LN44@ImGui_Impl:
	mov	esi, DWORD PTR _auto_bool$1$[ebp]
	mov	ecx, DWORD PTR _pDevCtx$[ebp]
	mov	eax, DWORD PTR _pDev$[ebp]
$LN4@ImGui_Impl:

; 904  : }

	mov	BYTE PTR __$EHRec$[ebp+8], 1
; File c:\program files (x86)\microsoft visual studio\2017\community\vc\tools\msvc\14.10.25017\atlmfc\include\atlcomcli.h

; 176  :         if (p)

	test	ecx, ecx
	je	SHORT $LN33@ImGui_Impl

; 177  :             p->Release();

	mov	eax, DWORD PTR [ecx]
	push	ecx
	call	DWORD PTR [eax+8]
	mov	eax, DWORD PTR _pDev$[ebp]
$LN33@ImGui_Impl:
; File c:\users\andon\source\repos\specialk\src\imgui\backends\imgui_d3d11.cpp

; 904  : }

	mov	BYTE PTR __$EHRec$[ebp+8], 0
; File c:\program files (x86)\microsoft visual studio\2017\community\vc\tools\msvc\14.10.25017\atlmfc\include\atlcomcli.h

; 176  :         if (p)

	test	eax, eax
	je	SHORT $LN39@ImGui_Impl

; 177  :             p->Release();

	mov	ecx, DWORD PTR [eax]
	push	eax
	call	DWORD PTR [ecx+8]
$LN39@ImGui_Impl:
; File c:\users\andon\source\repos\specialk\include\specialk\tls.h

; 144  :     *pBool_ = bOrig_;

	mov	DWORD PTR [edi], esi
	pop	edi
	pop	esi
$LN42@ImGui_Impl:
; File c:\users\andon\source\repos\specialk\src\imgui\backends\imgui_d3d11.cpp

; 904  : }

	mov	ecx, DWORD PTR __$EHRec$[ebp]
	pop	ebx
	mov	DWORD PTR fs:0, ecx
	mov	esp, ebp
	pop	ebp
	ret	0
_TEXT	ENDS
text$x	SEGMENT
__unwindfunclet$?ImGui_ImplDX11_Resize@@YAXPAUIDXGISwapChain@@IIIW4DXGI_FORMAT@@I@Z$0:
	lea	ecx, DWORD PTR _auto_bool$[ebp]
	jmp	??1SK_ScopedBool@@QAE@XZ		; SK_ScopedBool::~SK_ScopedBool
__unwindfunclet$?ImGui_ImplDX11_Resize@@YAXPAUIDXGISwapChain@@IIIW4DXGI_FORMAT@@I@Z$1:
	lea	ecx, DWORD PTR _pDev$[ebp]
	jmp	??1?$CComPtr@UID3D11Device@@@ATL@@QAE@XZ
__unwindfunclet$?ImGui_ImplDX11_Resize@@YAXPAUIDXGISwapChain@@IIIW4DXGI_FORMAT@@I@Z$2:
	lea	ecx, DWORD PTR _pDevCtx$[ebp]
	jmp	??1?$CComPtr@UID3D11DeviceContext@@@ATL@@QAE@XZ
__ehhandler$?ImGui_ImplDX11_Resize@@YAXPAUIDXGISwapChain@@IIIW4DXGI_FORMAT@@I@Z:
	mov	eax, OFFSET __ehfuncinfo$?ImGui_ImplDX11_Resize@@YAXPAUIDXGISwapChain@@IIIW4DXGI_FORMAT@@I@Z
	jmp	___CxxFrameHandler3
text$x	ENDS
?ImGui_ImplDX11_Resize@@YAXPAUIDXGISwapChain@@IIIW4DXGI_FORMAT@@I@Z ENDP ; ImGui_ImplDX11_Resize
; Function compile flags: /Ogtp
; File c:\program files (x86)\microsoft visual studio\2017\community\vc\tools\msvc\14.10.25017\include\vector
;	COMDAT ??E?$_Vector_iterator@V?$_Vector_val@U?$_Simple_types@PAUIUnknown@@@std@@@std@@@std@@QAEAAV01@XZ
_TEXT	SEGMENT
??E?$_Vector_iterator@V?$_Vector_val@U?$_Simple_types@PAUIUnknown@@@std@@@std@@@std@@QAEAAV01@XZ PROC ; std::_Vector_iterator<std::_Vector_val<std::_Simple_types<IUnknown *> > >::operator++, COMDAT
; _this$ = ecx

; 107  : 		++_Ptr;

	add	DWORD PTR [ecx], 4

; 332  : 		++*(_Mybase *)this;
; 333  : 		return (*this);

	mov	eax, ecx

; 334  : 		}

	ret	0
??E?$_Vector_iterator@V?$_Vector_val@U?$_Simple_types@PAUIUnknown@@@std@@@std@@@std@@QAEAAV01@XZ ENDP ; std::_Vector_iterator<std::_Vector_val<std::_Simple_types<IUnknown *> > >::operator++
_TEXT	ENDS
; Function compile flags: /Ogtp
; File c:\program files (x86)\microsoft visual studio\2017\community\vc\tools\msvc\14.10.25017\include\vector
;	COMDAT ??D?$_Vector_iterator@V?$_Vector_val@U?$_Simple_types@PAUIUnknown@@@std@@@std@@@std@@QBEAAPAUIUnknown@@XZ
_TEXT	SEGMENT
??D?$_Vector_iterator@V?$_Vector_val@U?$_Simple_types@PAUIUnknown@@@std@@@std@@@std@@QBEAAPAUIUnknown@@XZ PROC ; std::_Vector_iterator<std::_Vector_val<std::_Simple_types<IUnknown *> > >::operator*, COMDAT
; _this$ = ecx

; 322  : 		return ((reference)**(_Mybase *)this);

	mov	eax, DWORD PTR [ecx]

; 323  : 		}

	ret	0
??D?$_Vector_iterator@V?$_Vector_val@U?$_Simple_types@PAUIUnknown@@@std@@@std@@@std@@QBEAAPAUIUnknown@@XZ ENDP ; std::_Vector_iterator<std::_Vector_val<std::_Simple_types<IUnknown *> > >::operator*
_TEXT	ENDS
; Function compile flags: /Ogtp
; File c:\program files (x86)\microsoft visual studio\2017\community\vc\tools\msvc\14.10.25017\include\vector
;	COMDAT ??0?$_Vector_iterator@V?$_Vector_val@U?$_Simple_types@PAUIUnknown@@@std@@@std@@@std@@QAE@PAPAUIUnknown@@PBU_Container_base0@1@@Z
_TEXT	SEGMENT
__Parg$ = 8						; size = 4
__Pvector$ = 12						; size = 4
??0?$_Vector_iterator@V?$_Vector_val@U?$_Simple_types@PAUIUnknown@@@std@@@std@@@std@@QAE@PAPAUIUnknown@@PBU_Container_base0@1@@Z PROC ; std::_Vector_iterator<std::_Vector_val<std::_Simple_types<IUnknown *> > >::_Vector_iterator<std::_Vector_val<std::_Simple_types<IUnknown *> > >, COMDAT
; _this$ = ecx

; 304  : 		{	// construct with pointer _Parg

	npad	2
	push	ebp
	mov	ebp, esp

; 42   : 		: _Ptr(_Parg)

	mov	eax, DWORD PTR __Parg$[ebp]
	mov	DWORD PTR [ecx], eax

; 305  : 		}

	mov	eax, ecx
	pop	ebp
	ret	8
??0?$_Vector_iterator@V?$_Vector_val@U?$_Simple_types@PAUIUnknown@@@std@@@std@@@std@@QAE@PAPAUIUnknown@@PBU_Container_base0@1@@Z ENDP ; std::_Vector_iterator<std::_Vector_val<std::_Simple_types<IUnknown *> > >::_Vector_iterator<std::_Vector_val<std::_Simple_types<IUnknown *> > >
_TEXT	ENDS
; Function compile flags: /Ogtp
; File c:\program files (x86)\microsoft visual studio\2017\community\vc\tools\msvc\14.10.25017\include\vector
;	COMDAT ?_Compat@?$_Vector_const_iterator@V?$_Vector_val@U?$_Simple_types@PAUIUnknown@@@std@@@std@@@std@@QBEXABV12@@Z
_TEXT	SEGMENT
___formal$ = 8						; size = 4
?_Compat@?$_Vector_const_iterator@V?$_Vector_val@U?$_Simple_types@PAUIUnknown@@@std@@@std@@@std@@QBEXABV12@@Z PROC ; std::_Vector_const_iterator<std::_Vector_val<std::_Simple_types<IUnknown *> > >::_Compat, COMDAT
; _this$ = ecx

; 253  : 		}

	ret	4
?_Compat@?$_Vector_const_iterator@V?$_Vector_val@U?$_Simple_types@PAUIUnknown@@@std@@@std@@@std@@QBEXABV12@@Z ENDP ; std::_Vector_const_iterator<std::_Vector_val<std::_Simple_types<IUnknown *> > >::_Compat
_TEXT	ENDS
; Function compile flags: /Ogtp
; File c:\program files (x86)\microsoft visual studio\2017\community\vc\tools\msvc\14.10.25017\include\vector
;	COMDAT ??9?$_Vector_const_iterator@V?$_Vector_val@U?$_Simple_types@PAUIUnknown@@@std@@@std@@@std@@QBE_NABV01@@Z
_TEXT	SEGMENT
__Right$ = 8						; size = 4
??9?$_Vector_const_iterator@V?$_Vector_val@U?$_Simple_types@PAUIUnknown@@@std@@@std@@@std@@QBE_NABV01@@Z PROC ; std::_Vector_const_iterator<std::_Vector_val<std::_Simple_types<IUnknown *> > >::operator!=, COMDAT
; _this$ = ecx

; 210  : 		{	// test for iterator inequality

	npad	2
	push	ebp
	mov	ebp, esp
	mov	eax, DWORD PTR __Right$[ebp]
	mov	ecx, DWORD PTR [ecx]
	cmp	ecx, DWORD PTR [eax]
	setne	al

; 211  : 		return (!(*this == _Right));
; 212  : 		}

	pop	ebp
	ret	4
??9?$_Vector_const_iterator@V?$_Vector_val@U?$_Simple_types@PAUIUnknown@@@std@@@std@@@std@@QBE_NABV01@@Z ENDP ; std::_Vector_const_iterator<std::_Vector_val<std::_Simple_types<IUnknown *> > >::operator!=
_TEXT	ENDS
; Function compile flags: /Ogtp
; File c:\program files (x86)\microsoft visual studio\2017\community\vc\tools\msvc\14.10.25017\include\vector
;	COMDAT ??8?$_Vector_const_iterator@V?$_Vector_val@U?$_Simple_types@PAUIUnknown@@@std@@@std@@@std@@QBE_NABV01@@Z
_TEXT	SEGMENT
__Right$ = 8						; size = 4
??8?$_Vector_const_iterator@V?$_Vector_val@U?$_Simple_types@PAUIUnknown@@@std@@@std@@@std@@QBE_NABV01@@Z PROC ; std::_Vector_const_iterator<std::_Vector_val<std::_Simple_types<IUnknown *> > >::operator==, COMDAT
; _this$ = ecx

; 204  : 		{	// test for iterator equality

	npad	2
	push	ebp
	mov	ebp, esp
	mov	eax, DWORD PTR __Right$[ebp]
	mov	ecx, DWORD PTR [ecx]
	cmp	ecx, DWORD PTR [eax]
	sete	al

; 205  : 		_Compat(_Right);
; 206  : 		return (_Ptr == _Right._Ptr);
; 207  : 		}

	pop	ebp
	ret	4
??8?$_Vector_const_iterator@V?$_Vector_val@U?$_Simple_types@PAUIUnknown@@@std@@@std@@@std@@QBE_NABV01@@Z ENDP ; std::_Vector_const_iterator<std::_Vector_val<std::_Simple_types<IUnknown *> > >::operator==
_TEXT	ENDS
; Function compile flags: /Ogtp
; File c:\program files (x86)\microsoft visual studio\2017\community\vc\tools\msvc\14.10.25017\include\vector
;	COMDAT ??E?$_Vector_const_iterator@V?$_Vector_val@U?$_Simple_types@PAUIUnknown@@@std@@@std@@@std@@QAEAAV01@XZ
_TEXT	SEGMENT
??E?$_Vector_const_iterator@V?$_Vector_val@U?$_Simple_types@PAUIUnknown@@@std@@@std@@@std@@QAEAAV01@XZ PROC ; std::_Vector_const_iterator<std::_Vector_val<std::_Simple_types<IUnknown *> > >::operator++, COMDAT
; _this$ = ecx

; 91   :  #if _ITERATOR_DEBUG_LEVEL == 2
; 92   : 		const auto _Mycont = static_cast<const _Myvec *>(this->_Getcont());
; 93   : 		if (_Mycont == 0
; 94   : 			|| _Ptr == nullptr_t{}
; 95   : 			|| _Mycont->_Mylast <= _Ptr)
; 96   : 			{	// report error
; 97   : 			_DEBUG_ERROR("vector iterator not incrementable");
; 98   : 			}
; 99   : 
; 100  :  #elif _ITERATOR_DEBUG_LEVEL == 1
; 101  : 		_SCL_SECURE_VALIDATE(_Ptr != _Tptr());
; 102  : 		const auto _Mycont = static_cast<const _Myvec *>(this->_Getcont());
; 103  : 		_SCL_SECURE_VALIDATE(_Mycont != 0);
; 104  : 		_SCL_SECURE_VALIDATE_RANGE(_Ptr < _Mycont->_Mylast);
; 105  :  #endif /* _ITERATOR_DEBUG_LEVEL */
; 106  : 
; 107  : 		++_Ptr;

	add	DWORD PTR [ecx], 4

; 108  : 		return (*this);

	mov	eax, ecx

; 109  : 		}

	ret	0
??E?$_Vector_const_iterator@V?$_Vector_val@U?$_Simple_types@PAUIUnknown@@@std@@@std@@@std@@QAEAAV01@XZ ENDP ; std::_Vector_const_iterator<std::_Vector_val<std::_Simple_types<IUnknown *> > >::operator++
_TEXT	ENDS
; Function compile flags: /Ogtp
; File c:\program files (x86)\microsoft visual studio\2017\community\vc\tools\msvc\14.10.25017\include\vector
;	COMDAT ??D?$_Vector_const_iterator@V?$_Vector_val@U?$_Simple_types@PAUIUnknown@@@std@@@std@@@std@@QBEABQAUIUnknown@@XZ
_TEXT	SEGMENT
??D?$_Vector_const_iterator@V?$_Vector_val@U?$_Simple_types@PAUIUnknown@@@std@@@std@@@std@@QBEABQAUIUnknown@@XZ PROC ; std::_Vector_const_iterator<std::_Vector_val<std::_Simple_types<IUnknown *> > >::operator*, COMDAT
; _this$ = ecx

; 62   :  #if _ITERATOR_DEBUG_LEVEL == 2
; 63   : 		const auto _Mycont = static_cast<const _Myvec *>(this->_Getcont());
; 64   : 		if (_Mycont == 0
; 65   : 			|| _Ptr == _Tptr()
; 66   : 			|| _Ptr < _Mycont->_Myfirst
; 67   : 			|| _Mycont->_Mylast <= _Ptr)
; 68   : 			{	// report error
; 69   : 			_DEBUG_ERROR("vector iterator not dereferencable");
; 70   : 			}
; 71   : 
; 72   :  #elif _ITERATOR_DEBUG_LEVEL == 1
; 73   : 		_SCL_SECURE_VALIDATE(_Ptr != _Tptr());
; 74   : 		const auto _Mycont = static_cast<const _Myvec *>(this->_Getcont());
; 75   : 		_SCL_SECURE_VALIDATE(_Mycont != 0);
; 76   : 		_SCL_SECURE_VALIDATE_RANGE(_Mycont->_Myfirst <= _Ptr && _Ptr < _Mycont->_Mylast);
; 77   :  #endif /* _ITERATOR_DEBUG_LEVEL */
; 78   : 
; 79   : 		_Analysis_assume_(_Ptr != _Tptr());
; 80   : 
; 81   : 		return (*_Ptr);

	mov	eax, DWORD PTR [ecx]

; 82   : 		}

	ret	0
??D?$_Vector_const_iterator@V?$_Vector_val@U?$_Simple_types@PAUIUnknown@@@std@@@std@@@std@@QBEABQAUIUnknown@@XZ ENDP ; std::_Vector_const_iterator<std::_Vector_val<std::_Simple_types<IUnknown *> > >::operator*
_TEXT	ENDS
; Function compile flags: /Ogtp
; File c:\program files (x86)\microsoft visual studio\2017\community\vc\tools\msvc\14.10.25017\include\vector
;	COMDAT ??0?$_Vector_const_iterator@V?$_Vector_val@U?$_Simple_types@PAUIUnknown@@@std@@@std@@@std@@QAE@PAPAUIUnknown@@PBU_Container_base0@1@@Z
_TEXT	SEGMENT
__Parg$ = 8						; size = 4
__Pvector$ = 12						; size = 4
??0?$_Vector_const_iterator@V?$_Vector_val@U?$_Simple_types@PAUIUnknown@@@std@@@std@@@std@@QAE@PAPAUIUnknown@@PBU_Container_base0@1@@Z PROC ; std::_Vector_const_iterator<std::_Vector_val<std::_Simple_types<IUnknown *> > >::_Vector_const_iterator<std::_Vector_val<std::_Simple_types<IUnknown *> > >, COMDAT
; _this$ = ecx

; 43   : 		{	// construct with pointer _Parg

	npad	2
	push	ebp
	mov	ebp, esp

; 42   : 		: _Ptr(_Parg)

	mov	eax, DWORD PTR __Parg$[ebp]
	mov	DWORD PTR [ecx], eax

; 44   : 		this->_Adopt(_Pvector);
; 45   : 		}

	mov	eax, ecx
	pop	ebp
	ret	8
??0?$_Vector_const_iterator@V?$_Vector_val@U?$_Simple_types@PAUIUnknown@@@std@@@std@@@std@@QAE@PAPAUIUnknown@@PBU_Container_base0@1@@Z ENDP ; std::_Vector_const_iterator<std::_Vector_val<std::_Simple_types<IUnknown *> > >::_Vector_const_iterator<std::_Vector_val<std::_Simple_types<IUnknown *> > >
_TEXT	ENDS
; Function compile flags: /Ogtp
; File c:\users\andon\source\repos\specialk\src\imgui\backends\imgui_d3d11.cpp
; File c:\program files (x86)\microsoft visual studio\2017\community\vc\tools\msvc\14.10.25017\include\vector
; File c:\users\andon\source\repos\specialk\src\imgui\backends\imgui_d3d11.cpp
; File c:\program files (x86)\microsoft visual studio\2017\community\vc\tools\msvc\14.10.25017\include\vector
; File c:\users\andon\source\repos\specialk\src\imgui\backends\imgui_d3d11.cpp
; File c:\program files (x86)\microsoft visual studio\2017\community\vc\tools\msvc\14.10.25017\include\xtree
; File c:\program files (x86)\microsoft visual studio\2017\community\vc\tools\msvc\14.10.25017\include\vector
; File c:\program files (x86)\microsoft visual studio\2017\community\vc\tools\msvc\14.10.25017\include\xtree
; File c:\users\andon\source\repos\specialk\src\imgui\backends\imgui_d3d11.cpp
; File c:\program files (x86)\microsoft visual studio\2017\community\vc\tools\msvc\14.10.25017\include\xtree
; File c:\users\andon\source\repos\specialk\src\imgui\backends\imgui_d3d11.cpp
_TEXT	SEGMENT
?SK_ImGui_ResetExternal@@YAXXZ PROC			; SK_ImGui_ResetExternal

; 690  : {

	npad	2
	push	ebx
	mov	ebx, DWORD PTR ?external_resources@@3V?$vector@PAUIUnknown@@V?$allocator@PAUIUnknown@@@std@@@std@@A+4
	xor	ecx, ecx
	push	esi
; File c:\program files (x86)\microsoft visual studio\2017\community\vc\tools\msvc\14.10.25017\include\vector

; 1645 : 		return (iterator(this->_Myfirst(), _STD addressof(this->_Get_data())));

	mov	esi, DWORD PTR ?external_resources@@3V?$vector@PAUIUnknown@@V?$allocator@PAUIUnknown@@@std@@@std@@A
	sub	ebx, esi
	add	ebx, 3
	shr	ebx, 2
	push	edi
	xor	edi, edi
	cmp	esi, DWORD PTR ?external_resources@@3V?$vector@PAUIUnknown@@V?$allocator@PAUIUnknown@@@std@@@std@@A+4
	cmova	ebx, ecx
; File c:\users\andon\source\repos\specialk\src\imgui\backends\imgui_d3d11.cpp

; 691  :   for ( auto it : external_resources )

	test	ebx, ebx
	je	SHORT $LN3@SK_ImGui_R
	npad	6
$LL4@SK_ImGui_R:
	mov	eax, DWORD PTR [esi]

; 692  :   {
; 693  :     it->Release ();

	push	eax
	mov	ecx, DWORD PTR [eax]
	call	DWORD PTR [ecx+8]
; File c:\program files (x86)\microsoft visual studio\2017\community\vc\tools\msvc\14.10.25017\include\vector

; 107  : 		++_Ptr;

	inc	edi
	lea	esi, DWORD PTR [esi+4]
; File c:\users\andon\source\repos\specialk\src\imgui\backends\imgui_d3d11.cpp

; 691  :   for ( auto it : external_resources )

	cmp	edi, ebx
	jne	SHORT $LL4@SK_ImGui_R
	mov	esi, DWORD PTR ?external_resources@@3V?$vector@PAUIUnknown@@V?$allocator@PAUIUnknown@@@std@@@std@@A
$LN3@SK_ImGui_R:
; File c:\program files (x86)\microsoft visual studio\2017\community\vc\tools\msvc\14.10.25017\include\xtree

; 43   : 		: _Ptr(_Pnode)

	mov	edi, DWORD PTR ?reset_callbacks@@3V?$set@P6GXXZU?$less@P6GXXZ@std@@V?$allocator@P6GXXZ@2@@std@@A
; File c:\program files (x86)\microsoft visual studio\2017\community\vc\tools\msvc\14.10.25017\include\vector

; 1617 : 		this->_Mylast() = this->_Myfirst();

	mov	DWORD PTR ?external_resources@@3V?$vector@PAUIUnknown@@V?$allocator@PAUIUnknown@@@std@@@std@@A+4, esi
; File c:\program files (x86)\microsoft visual studio\2017\community\vc\tools\msvc\14.10.25017\include\xtree

; 43   : 		: _Ptr(_Pnode)

	mov	esi, DWORD PTR [edi]

; 331  : 		return (this->_Ptr == _Right._Ptr);

	cmp	esi, edi
; File c:\users\andon\source\repos\specialk\src\imgui\backends\imgui_d3d11.cpp

; 698  :   for ( auto reset_fn : reset_callbacks )

	je	SHORT $LN6@SK_ImGui_R
$LL196@SK_ImGui_R:

; 699  :   {
; 700  :     reset_fn ();

	mov	eax, DWORD PTR [esi+16]
	call	eax
; File c:\program files (x86)\microsoft visual studio\2017\community\vc\tools\msvc\14.10.25017\include\xtree

; 60   : 		if (_Mytree::_Isnil(_Ptr))

	cmp	BYTE PTR [esi+13], 0
	jne	SHORT $LN237@SK_ImGui_R

; 576  : 		return ((char&)_Pnode->_Isnil);

	mov	eax, DWORD PTR [esi+8]

; 62   : 		else if (!_Mytree::_Isnil(_Mytree::_Right(_Ptr)))

	cmp	BYTE PTR [eax+13], 0
	jne	SHORT $LN233@SK_ImGui_R

; 63   : 			_Ptr = _Mytree::_Min(

	mov	esi, eax

; 576  : 		return ((char&)_Pnode->_Isnil);

	mov	eax, DWORD PTR [esi]

; 608  : 		while (!_Isnil(_Left(_Pnode)))

	cmp	BYTE PTR [eax+13], 0
	jne	SHORT $LN237@SK_ImGui_R
$LL207@SK_ImGui_R:

; 609  : 			_Pnode = _Left(_Pnode);

	mov	esi, eax

; 576  : 		return ((char&)_Pnode->_Isnil);

	mov	eax, DWORD PTR [esi]

; 608  : 		while (!_Isnil(_Left(_Pnode)))

	cmp	BYTE PTR [eax+13], 0
	je	SHORT $LL207@SK_ImGui_R

; 65   : 		else

	jmp	SHORT $LN237@SK_ImGui_R
$LN233@SK_ImGui_R:

; 66   : 			{	// climb looking for right subtree
; 67   : 			_Nodeptr _Pnode;
; 68   : 			while (!_Mytree::_Isnil(_Pnode = _Mytree::_Parent(_Ptr))
; 69   : 				&& _Ptr == _Mytree::_Right(_Pnode))

	mov	eax, DWORD PTR [esi+4]
	cmp	BYTE PTR [eax+13], 0
	jne	SHORT $LN246@SK_ImGui_R
	npad	5
$LL191@SK_ImGui_R:
	cmp	esi, DWORD PTR [eax+8]
	jne	SHORT $LN246@SK_ImGui_R

; 70   : 				_Ptr = _Pnode;	// ==> parent while right subtree

	mov	esi, eax
	mov	eax, DWORD PTR [eax+4]
	cmp	BYTE PTR [eax+13], 0
	je	SHORT $LL191@SK_ImGui_R
$LN246@SK_ImGui_R:

; 71   : 			_Ptr = _Pnode;	// ==> parent (head if end())

	mov	esi, eax
$LN237@SK_ImGui_R:

; 331  : 		return (this->_Ptr == _Right._Ptr);

	cmp	esi, edi
; File c:\users\andon\source\repos\specialk\src\imgui\backends\imgui_d3d11.cpp

; 698  :   for ( auto reset_fn : reset_callbacks )

	jne	SHORT $LL196@SK_ImGui_R
$LN6@SK_ImGui_R:
	pop	edi
	pop	esi
	pop	ebx

; 701  :   }
; 702  : }

	ret	0
?SK_ImGui_ResetExternal@@YAXXZ ENDP			; SK_ImGui_ResetExternal
_TEXT	ENDS
; Function compile flags: /Ogtp
; File c:\users\andon\source\repos\specialk\src\imgui\backends\imgui_d3d11.cpp
; File c:\program files (x86)\microsoft visual studio\2017\community\vc\tools\msvc\14.10.25017\include\xtree
; File c:\program files (x86)\microsoft visual studio\2017\community\vc\tools\msvc\14.10.25017\include\xutility
; File c:\users\andon\source\repos\specialk\src\imgui\backends\imgui_d3d11.cpp
; File c:\program files (x86)\microsoft visual studio\2017\community\vc\tools\msvc\14.10.25017\include\xtree
; File c:\users\andon\source\repos\specialk\src\imgui\backends\imgui_d3d11.cpp
_TEXT	SEGMENT
__Ans$1 = -8						; size = 8
__Ans$2 = -8						; size = 8
$T3 = 8							; size = 4
$T4 = 8							; size = 1
_pCallback$ = 8						; size = 4
?SKX_ImGui_UnregisterResetCallback@@YGXP6GXXZ@Z PROC	; SKX_ImGui_UnregisterResetCallback

; 683  : {

	npad	2
	push	ebp
	mov	ebp, esp
	sub	esp, 8
; File c:\program files (x86)\microsoft visual studio\2017\community\vc\tools\msvc\14.10.25017\include\xtree

; 1603 : 		return (_Eqrange(_Keyval));

	lea	eax, DWORD PTR _pCallback$[ebp]
	mov	ecx, OFFSET ?reset_callbacks@@3V?$set@P6GXXZU?$less@P6GXXZ@std@@V?$allocator@P6GXXZ@2@@std@@A ; reset_callbacks
	push	eax
	lea	eax, DWORD PTR __Ans$2[ebp]
	push	eax
	call	??$_Eqrange@P6GXXZ@?$_Tree@V?$_Tset_traits@P6GXXZU?$less@P6GXXZ@std@@V?$allocator@P6GXXZ@2@$0A@@std@@@std@@IBE?AU?$pair@V?$_Tree_const_iterator@V?$_Tree_val@U?$_Tree_simple_types@P6GXXZ@std@@@std@@@std@@V12@@1@ABQ6GXXZ@Z ; std::_Tree<std::_Tset_traits<void (__stdcall*)(void),std::less<void (__stdcall*)(void)>,std::allocator<void (__stdcall*)(void)>,0> >::_Eqrange<void (__stdcall*)(void)>
; File c:\program files (x86)\microsoft visual studio\2017\community\vc\tools\msvc\14.10.25017\include\xutility

; 1113 : 	return (_Distance1(_First, _Last, _Iter_cat_t<_InIt>()));

	push	DWORD PTR $T4[ebp]
	push	DWORD PTR __Ans$2[ebp+4]
	push	DWORD PTR __Ans$2[ebp]
	call	??$_Distance1@V?$_Tree_const_iterator@V?$_Tree_val@U?$_Tree_simple_types@P6GXXZ@std@@@std@@@std@@@std@@YAHV?$_Tree_const_iterator@V?$_Tree_val@U?$_Tree_simple_types@P6GXXZ@std@@@std@@@0@0Uinput_iterator_tag@0@@Z ; std::_Distance1<std::_Tree_const_iterator<std::_Tree_val<std::_Tree_simple_types<void (__stdcall*)(void)> > > >
	add	esp, 12					; 0000000cH
; File c:\users\andon\source\repos\specialk\src\imgui\backends\imgui_d3d11.cpp

; 684  :   if (reset_callbacks.count (pCallback))

	test	eax, eax
	je	SHORT $LN2@SKX_ImGui_
; File c:\program files (x86)\microsoft visual studio\2017\community\vc\tools\msvc\14.10.25017\include\xtree

; 2041 : 		_Paircc _Ans(static_cast<const _Myt *>(this)->_Eqrange(_Keyval));

	lea	eax, DWORD PTR _pCallback$[ebp]
	mov	ecx, OFFSET ?reset_callbacks@@3V?$set@P6GXXZU?$less@P6GXXZ@std@@V?$allocator@P6GXXZ@2@@std@@A ; reset_callbacks
	push	eax
	lea	eax, DWORD PTR __Ans$1[ebp]
	push	eax
	call	??$_Eqrange@P6GXXZ@?$_Tree@V?$_Tset_traits@P6GXXZU?$less@P6GXXZ@std@@V?$allocator@P6GXXZ@2@$0A@@std@@@std@@IBE?AU?$pair@V?$_Tree_const_iterator@V?$_Tree_val@U?$_Tree_simple_types@P6GXXZ@std@@@std@@@std@@V12@@1@ABQ6GXXZ@Z ; std::_Tree<std::_Tset_traits<void (__stdcall*)(void),std::less<void (__stdcall*)(void)>,std::allocator<void (__stdcall*)(void)>,0> >::_Eqrange<void (__stdcall*)(void)>

; 1470 : 		erase(_Where.first, _Where.second);

	push	DWORD PTR __Ans$1[ebp+4]
	lea	eax, DWORD PTR $T3[ebp]
	mov	ecx, OFFSET ?reset_callbacks@@3V?$set@P6GXXZU?$less@P6GXXZ@std@@V?$allocator@P6GXXZ@2@@std@@A ; reset_callbacks
	push	DWORD PTR __Ans$1[ebp]
	push	eax
	call	?erase@?$_Tree@V?$_Tset_traits@P6GXXZU?$less@P6GXXZ@std@@V?$allocator@P6GXXZ@2@$0A@@std@@@std@@QAE?AV?$_Tree_const_iterator@V?$_Tree_val@U?$_Tree_simple_types@P6GXXZ@std@@@std@@@2@V32@0@Z ; std::_Tree<std::_Tset_traits<void (__stdcall*)(void),std::less<void (__stdcall*)(void)>,std::allocator<void (__stdcall*)(void)>,0> >::erase
$LN2@SKX_ImGui_:
; File c:\users\andon\source\repos\specialk\src\imgui\backends\imgui_d3d11.cpp

; 686  : }

	mov	esp, ebp
	pop	ebp
	ret	4
?SKX_ImGui_UnregisterResetCallback@@YGXP6GXXZ@Z ENDP	; SKX_ImGui_UnregisterResetCallback
_TEXT	ENDS
; Function compile flags: /Ogtp
; File c:\program files (x86)\microsoft visual studio\2017\community\vc\tools\msvc\14.10.25017\include\xtree
;	COMDAT ??9?$_Tree_const_iterator@V?$_Tree_val@U?$_Tree_simple_types@P6GXXZ@std@@@std@@@std@@QBE_NABV01@@Z
_TEXT	SEGMENT
__Right$ = 8						; size = 4
??9?$_Tree_const_iterator@V?$_Tree_val@U?$_Tree_simple_types@P6GXXZ@std@@@std@@@std@@QBE_NABV01@@Z PROC ; std::_Tree_const_iterator<std::_Tree_val<std::_Tree_simple_types<void (__stdcall*)(void)> > >::operator!=, COMDAT
; _this$ = ecx

; 335  : 		{	// test for iterator inequality

	npad	2
	push	ebp
	mov	ebp, esp
	mov	eax, DWORD PTR __Right$[ebp]
	mov	ecx, DWORD PTR [ecx]
	cmp	ecx, DWORD PTR [eax]
	setne	al

; 336  : 		return (!(*this == _Right));
; 337  : 		}

	pop	ebp
	ret	4
??9?$_Tree_const_iterator@V?$_Tree_val@U?$_Tree_simple_types@P6GXXZ@std@@@std@@@std@@QBE_NABV01@@Z ENDP ; std::_Tree_const_iterator<std::_Tree_val<std::_Tree_simple_types<void (__stdcall*)(void)> > >::operator!=
_TEXT	ENDS
; Function compile flags: /Ogtp
; File c:\program files (x86)\microsoft visual studio\2017\community\vc\tools\msvc\14.10.25017\include\xtree
;	COMDAT ??8?$_Tree_const_iterator@V?$_Tree_val@U?$_Tree_simple_types@P6GXXZ@std@@@std@@@std@@QBE_NABV01@@Z
_TEXT	SEGMENT
__Right$ = 8						; size = 4
??8?$_Tree_const_iterator@V?$_Tree_val@U?$_Tree_simple_types@P6GXXZ@std@@@std@@@std@@QBE_NABV01@@Z PROC ; std::_Tree_const_iterator<std::_Tree_val<std::_Tree_simple_types<void (__stdcall*)(void)> > >::operator==, COMDAT
; _this$ = ecx

; 320  : 		{	// test for iterator equality

	npad	2
	push	ebp
	mov	ebp, esp
	mov	eax, DWORD PTR __Right$[ebp]
	mov	ecx, DWORD PTR [ecx]
	cmp	ecx, DWORD PTR [eax]
	sete	al

; 321  :  #if _ITERATOR_DEBUG_LEVEL == 2
; 322  : 		if (this->_Getcont() != _Right._Getcont())
; 323  : 			{	// report error
; 324  : 			_DEBUG_ERROR("map/set iterators incompatible");
; 325  : 			}
; 326  : 
; 327  :  #elif _ITERATOR_DEBUG_LEVEL == 1
; 328  : 		_SCL_SECURE_VALIDATE(this->_Getcont() == _Right._Getcont());
; 329  :  #endif /* _ITERATOR_DEBUG_LEVEL */
; 330  : 
; 331  : 		return (this->_Ptr == _Right._Ptr);
; 332  : 		}

	pop	ebp
	ret	4
??8?$_Tree_const_iterator@V?$_Tree_val@U?$_Tree_simple_types@P6GXXZ@std@@@std@@@std@@QBE_NABV01@@Z ENDP ; std::_Tree_const_iterator<std::_Tree_val<std::_Tree_simple_types<void (__stdcall*)(void)> > >::operator==
_TEXT	ENDS
; Function compile flags: /Ogtp
; File c:\program files (x86)\microsoft visual studio\2017\community\vc\tools\msvc\14.10.25017\include\xtree
;	COMDAT ??F?$_Tree_const_iterator@V?$_Tree_val@U?$_Tree_simple_types@P6GXXZ@std@@@std@@@std@@QAEAAV01@XZ
_TEXT	SEGMENT
??F?$_Tree_const_iterator@V?$_Tree_val@U?$_Tree_simple_types@P6GXXZ@std@@@std@@@std@@QAEAAV01@XZ PROC ; std::_Tree_const_iterator<std::_Tree_val<std::_Tree_simple_types<void (__stdcall*)(void)> > >::operator--, COMDAT
; _this$ = ecx

; 283  : 		{	// predecrement

	npad	2
	push	esi
	mov	esi, ecx

; 284  :  #if _ITERATOR_DEBUG_LEVEL == 2
; 285  : 		if (this->_Getcont() == 0
; 286  : 			|| this->_Ptr == nullptr_t{})
; 287  : 			{	// report error
; 288  : 			_DEBUG_ERROR("map/set iterator not decrementable");
; 289  : 			}
; 290  : 
; 291  : 		_Nodeptr _Ptrsav = this->_Ptr;
; 292  : 		--static_cast<_Mybase&>(*this);
; 293  : 		if (_Ptrsav == this->_Ptr)
; 294  : 			{	// report error
; 295  : 			_DEBUG_ERROR("map/set iterator not decrementable");
; 296  : 			}
; 297  : 
; 298  :  #elif _ITERATOR_DEBUG_LEVEL == 1
; 299  : 		_SCL_SECURE_VALIDATE(this->_Getcont() != 0 && this->_Ptr != nullptr_t{});
; 300  : 
; 301  : 		_Nodeptr _Ptrsav = this->_Ptr;
; 302  : 		--static_cast<_Mybase&>(*this);
; 303  : 		_SCL_SECURE_VALIDATE(_Ptrsav != this->_Ptr);
; 304  : 
; 305  :  #else /* _ITERATOR_DEBUG_LEVEL == 0 */
; 306  : 		--static_cast<_Mybase&>(*this);

	call	??F?$_Tree_unchecked_const_iterator@V?$_Tree_val@U?$_Tree_simple_types@P6GXXZ@std@@@std@@U_Iterator_base0@2@@std@@QAEAAV01@XZ ; std::_Tree_unchecked_const_iterator<std::_Tree_val<std::_Tree_simple_types<void (__stdcall*)(void)> >,std::_Iterator_base0>::operator--

; 307  :  #endif /* _ITERATOR_DEBUG_LEVEL */
; 308  : 
; 309  : 		return (*this);

	mov	eax, esi
	pop	esi

; 310  : 		}

	ret	0
??F?$_Tree_const_iterator@V?$_Tree_val@U?$_Tree_simple_types@P6GXXZ@std@@@std@@@std@@QAEAAV01@XZ ENDP ; std::_Tree_const_iterator<std::_Tree_val<std::_Tree_simple_types<void (__stdcall*)(void)> > >::operator--
_TEXT	ENDS
; Function compile flags: /Ogtp
; File c:\program files (x86)\microsoft visual studio\2017\community\vc\tools\msvc\14.10.25017\include\xtree
;	COMDAT ??E?$_Tree_const_iterator@V?$_Tree_val@U?$_Tree_simple_types@P6GXXZ@std@@@std@@@std@@QAE?AV01@H@Z
_TEXT	SEGMENT
___$ReturnUdt$ = 8					; size = 4
___formal$ = 12						; size = 4
??E?$_Tree_const_iterator@V?$_Tree_val@U?$_Tree_simple_types@P6GXXZ@std@@@std@@@std@@QAE?AV01@H@Z PROC ; std::_Tree_const_iterator<std::_Tree_val<std::_Tree_simple_types<void (__stdcall*)(void)> > >::operator++, COMDAT
; _this$ = ecx

; 276  : 		{	// postincrement

	npad	2
	push	ebp
	mov	ebp, esp

; 277  : 		_Myiter _Tmp = *this;

	mov	edx, DWORD PTR [ecx]
	push	esi
	mov	esi, DWORD PTR ___$ReturnUdt$[ebp]
	mov	DWORD PTR [esi], edx

; 271  : 		++static_cast<_Mybase&>(*this);

	call	??E?$_Tree_unchecked_const_iterator@V?$_Tree_val@U?$_Tree_simple_types@P6GXXZ@std@@@std@@U_Iterator_base0@2@@std@@QAEAAV01@XZ ; std::_Tree_unchecked_const_iterator<std::_Tree_val<std::_Tree_simple_types<void (__stdcall*)(void)> >,std::_Iterator_base0>::operator++

; 278  : 		++*this;
; 279  : 		return (_Tmp);

	mov	eax, esi
	pop	esi

; 280  : 		}

	pop	ebp
	ret	8
??E?$_Tree_const_iterator@V?$_Tree_val@U?$_Tree_simple_types@P6GXXZ@std@@@std@@@std@@QAE?AV01@H@Z ENDP ; std::_Tree_const_iterator<std::_Tree_val<std::_Tree_simple_types<void (__stdcall*)(void)> > >::operator++
_TEXT	ENDS
; Function compile flags: /Ogtp
; File c:\program files (x86)\microsoft visual studio\2017\community\vc\tools\msvc\14.10.25017\include\xtree
;	COMDAT ??E?$_Tree_const_iterator@V?$_Tree_val@U?$_Tree_simple_types@P6GXXZ@std@@@std@@@std@@QAEAAV01@XZ
_TEXT	SEGMENT
??E?$_Tree_const_iterator@V?$_Tree_val@U?$_Tree_simple_types@P6GXXZ@std@@@std@@@std@@QAEAAV01@XZ PROC ; std::_Tree_const_iterator<std::_Tree_val<std::_Tree_simple_types<void (__stdcall*)(void)> > >::operator++, COMDAT
; _this$ = ecx

; 257  : 		{	// preincrement

	npad	2
	push	esi
	mov	esi, ecx

; 258  :  #if _ITERATOR_DEBUG_LEVEL == 2
; 259  : 		if (this->_Getcont() == 0
; 260  : 			|| this->_Ptr == nullptr_t{}
; 261  : 			|| _Mytree::_Isnil(this->_Ptr))
; 262  : 			{	// report error
; 263  : 			_DEBUG_ERROR("map/set iterator not incrementable");
; 264  : 			}
