; Listing generated by Microsoft (R) Optimizing Compiler Version 19.10.25019.0 

	TITLE	C:\Users\andon\Source\Repos\SpecialK\src\imgui\imgui.cpp
	.686P
	.XMM
	include listing.inc
	.model	flat

INCLUDELIB MSVCRT
INCLUDELIB OLDNAMES

PUBLIC	?SK_ImGui_Visible@@3_NA				; SK_ImGui_Visible
PUBLIC	?nav_usable@@3_NA				; nav_usable
PUBLIC	?analog_sensitivity@@3MA			; analog_sensitivity
PUBLIC	?GImGui@@3PAUImGuiContext@@A			; GImGui
_BSS	SEGMENT
?SK_ImGui_Visible@@3_NA DB 01H DUP (?)			; SK_ImGui_Visible
?nav_usable@@3_NA DB 01H DUP (?)			; nav_usable
_BSS	ENDS
_DATA	SEGMENT
?analog_sensitivity@@3MA DD 043a6aa3dr		; 333.33 ; analog_sensitivity
?GImGui@@3PAUImGuiContext@@A DD FLAT:?GImDefaultContext@@3UImGuiContext@@A ; GImGui
?STB_TEXTEDIT_NEWLINE@ImGuiStb@@3GA DW 0aH		; ImGuiStb::STB_TEXTEDIT_NEWLINE
_DATA	ENDS
CONST	SEGMENT
$SG117765 DB	'void_context_menu', 00H
$SG16770 DB	00H
$SG117181 DB	00H
$SG119822 DB	'%d', 00H
$SG17162 DB	00H
$SG119827 DB	'%f', 00H
$SG121691 DB	00H
$SG119831 DB	'%f', 00H
$SG122801 DB	00H
$SG119835 DB	'%f', 00H
$SG122803 DB	00H
$SG119838 DB	'%f', 00H
	ORG $+1
$SG117791 DB	'%s.%s.%08X', 00H
	ORG $+1
$SG117792 DB	'%s.%08X', 00H
$SG121909 DB	'*Unknown item*', 00H
	ORG $+1
$SG116823 DB	'Debug', 00H
	ORG $+2
$SG116898 DB	'rb', 00H
	ORG $+1
$SG116902 DB	'%.*s', 00H
	ORG $+3
$SG116907 DB	'Pos=%f,%f', 00H
	ORG $+2
$SG116910 DB	'Size=%f,%f', 00H
	ORG $+1
$SG116912 DB	'Collapsed=%d', 00H
	ORG $+3
$SG122045 DB	'*Unknown item*', 00H
	ORG $+1
$SG116937 DB	'wt', 00H
	ORG $+1
$SG116941 DB	'###', 00H
$SG116942 DB	'[%s]', 0aH, 00H
	ORG $+2
$SG116943 DB	'Pos=%d,%d', 0aH, 00H
	ORG $+1
$SG116944 DB	'Size=%d,%d', 0aH, 00H
$SG120017 DB	'%.3f', 00H
	ORG $+3
$SG116945 DB	'Collapsed=%li', 0aH, 00H
	ORG $+1
$SG116946 DB	0aH, 00H
	ORG $+2
$SG122096 DB	'##MainMenuBar', 00H
	ORG $+2
$SG120059 DB	'%.3f', 00H
	ORG $+3
$SG122110 DB	'##menubar', 00H
	ORG $+2
$SG120072 DB	'%.0f deg', 00H
	ORG $+3
$SG120087 DB	'%.0f', 00H
	ORG $+3
$SG120103 DB	'%.0f', 00H
	ORG $+3
$SG120121 DB	'##v', 00H
$SG122175 DB	'##menus', 00H
$SG142679 DB	'[', 00H, 'X', 00H, 'I', 00H, 'n', 00H, 'p', 00H, 'u', 00H
	DB	't', 00H, '_', 00H, 'H', 00H, 'o', 00H, 't', 00H, ']', 00H, ' '
	DB	00H, ' ', 00H, '(', 00H, 'I', 00H, 'n', 00H, 'p', 00H, 'u', 00H
	DB	't', 00H, ' ', 00H, 'D', 00H, 'e', 00H, 'v', 00H, 'i', 00H, 'c'
	DB	00H, 'e', 00H, ' ', 00H, 'C', 00H, 'o', 00H, 'n', 00H, 'n', 00H
	DB	'e', 00H, 'c', 00H, 't', 00H, 'e', 00H, 'd', 00H, ')', 00H, 00H
	DB	00H
	ORG $+2
$SG142684 DB	'[', 00H, 'X', 00H, 'I', 00H, 'n', 00H, 'p', 00H, 'u', 00H
	DB	't', 00H, '_', 00H, 'H', 00H, 'o', 00H, 't', 00H, ']', 00H, ' '
	DB	00H, ' ', 00H, '(', 00H, 'I', 00H, 'n', 00H, 'p', 00H, 'u', 00H
	DB	't', 00H, ' ', 00H, 'D', 00H, 'e', 00H, 'v', 00H, 'i', 00H, 'c'
	DB	00H, 'e', 00H, ' ', 00H, 'D', 00H, 'i', 00H, 's', 00H, 'c', 00H
	DB	'o', 00H, 'n', 00H, 'n', 00H, 'e', 00H, 'c', 00H, 't', 00H, 'e'
	DB	00H, 'd', 00H, ')', 00H, 00H, 00H
$SG120162 DB	'##v', 00H
$SG122223 DB	'#colorbutton', 00H
	ORG $+3
$SG122226 DB	'Color:', 0aH, '(%.2f,%.2f,%.2f,%.2f)', 0aH, '#%02X%02X%0'
	DB	'2X%02X', 00H
	ORG $+1
$SG117182 DB	0dH, 0aH, '%*s%.*s', 00H
	ORG $+2
$SG117183 DB	' %.*s', 00H
	ORG $+2
$SG122305 DB	'M:999', 00H
	ORG $+2
$SG122306 DB	'##X', 00H
$SG122307 DB	'##Y', 00H
$SG122308 DB	'##Z', 00H
$SG122309 DB	'##W', 00H
$SG122310 DB	'%3.0f', 00H
	ORG $+2
$SG122311 DB	'%3.0f', 00H
	ORG $+2
$SG122312 DB	'%3.0f', 00H
	ORG $+2
$SG120264 DB	'%.3f', 00H
	ORG $+3
$SG122313 DB	'%3.0f', 00H
	ORG $+2
$SG122314 DB	'R:%3.0f', 00H
$SG122315 DB	'G:%3.0f', 00H
$SG122316 DB	'B:%3.0f', 00H
$SG122317 DB	'A:%3.0f', 00H
$SG122318 DB	'H:%3.0f', 00H
$SG122319 DB	'S:%3.0f', 00H
$SG122320 DB	'V:%3.0f', 00H
$SG122321 DB	'A:%3.0f', 00H
$SG122327 DB	'#%02X%02X%02X%02X', 00H
	ORG $+2
$SG122328 DB	'#%02X%02X%02X', 00H
	ORG $+2
$SG122330 DB	'##Text', 00H
	ORG $+1
$SG122334 DB	'%02X%02X%02X%02X', 00H
	ORG $+3
$SG122335 DB	'%02X%02X%02X', 00H
	ORG $+3
$SG122338 DB	'Color:', 0aH, '(%.2f,%.2f,%.2f,%.2f)', 0aH, '#%02X%02X%0'
	DB	'2X%02X', 00H
	ORG $+1
$SG120291 DB	'##v', 00H
$SG122340 DB	'RGB', 00H
$SG122341 DB	'HSV', 00H
$SG122342 DB	'HEX', 00H
$SG118260 DB	'#RESIZE', 00H
$SG16890 DB	'#MOVE', 00H
	ORG $+2
$SG122369 DB	0dH, 0aH, '--------------------------------', 00H
	ORG $+1
$SG120334 DB	'##min', 00H
	ORG $+2
$SG120335 DB	'##max', 00H
	ORG $+2
$SG118297 DB	'#COLLAPSE', 00H
	ORG $+2
$SG118301 DB	'#CLOSE', 00H
	ORG $+1
$SG120351 DB	'%.0f', 00H
	ORG $+3
$SG118312 DB	'#CloseColumns', 00H
	ORG $+2
$SG120369 DB	'##v', 00H
$SG119349 DB	'#image', 00H
	ORG $+1
$SG119369 DB	'ab', 00H
	ORG $+1
$SG119383 DB	0dH, 0aH, 00H
	ORG $+1
$SG120408 DB	'##min', 00H
	ORG $+2
$SG120409 DB	'##max', 00H
	ORG $+2
$SG118365 DB	'#SCROLLX', 00H
	ORG $+3
$SG118366 DB	'#SCROLLY', 00H
	ORG $+3
$SG119397 DB	'LogButtons', 00H
	ORG $+1
$SG119398 DB	'Log To TTY', 00H
	ORG $+1
$SG119399 DB	'Log To File', 00H
$SG119400 DB	'Log To Clipboard', 00H
	ORG $+3
$SG119401 DB	'Depth', 00H
	ORG $+2
$SG121494 DB	'#SCROLLY', 00H
	ORG $+3
$SG122543 DB	'columns', 00H
$SG122560 DB	'#TreePush', 00H
	ORG $+2
$SG122566 DB	'#TreePush', 00H
	ORG $+2
$SG119494 DB	0aH, '##', 00H
$SG119495 DB	'##', 00H
	ORG $+1
$SG119502 DB	'>', 00H
	ORG $+2
$SG122578 DB	'true', 00H
	ORG $+3
$SG122579 DB	'false', 00H
	ORG $+2
$SG122580 DB	'%s: %s', 00H
	ORG $+1
$SG122585 DB	'%s: %d', 00H
	ORG $+1
$SG122590 DB	'%s: %d', 00H
	ORG $+1
$SG122600 DB	'%%s: %s', 00H
$SG122601 DB	'%s: %.3f', 00H
	ORG $+3
$SG122606 DB	'%s: (%.2f,%.2f,%.2f,%.2f)', 00H
	ORG $+2
?GStyleVarInfo@@3QBUImGuiStyleVarInfo@@B DD 01H		; GStyleVarInfo
	DD	00H
	DD	02H
	DD	04H
	DD	01H
	DD	014H
	DD	02H
	DD	0cH
	DD	01H
	DD	020H
	DD	02H
	DD	024H
	DD	01H
	DD	02cH
	DD	02H
	DD	030H
	DD	02H
	DD	038H
	DD	01H
	DD	048H
	DD	01H
	DD	058H
	DD	02H
	DD	060H
$SG122612 DB	'%s: %08X', 00H
	ORG $+3
$SG121603 DB	'#SCROLLY', 00H
	ORG $+3
$SG17169 DB	'1.50 WIP', 00H
	ORG $+3
$SG120603 DB	'%.0f%%', 00H
	ORG $+1
$SG118597 DB	'Text', 00H
	ORG $+3
$SG118599 DB	'TextDisabled', 00H
	ORG $+3
$SG120649 DB	'[x]', 00H
$SG118601 DB	'WindowBg', 00H
	ORG $+3
$SG120650 DB	'[ ]', 00H
$SG118603 DB	'ChildWindowBg', 00H
	ORG $+2
$SG118605 DB	'PopupBg', 00H
$SG118607 DB	'Border', 00H
	ORG $+1
$SG118609 DB	'BorderShadow', 00H
	ORG $+3
$SG118611 DB	'FrameBg', 00H
$SG118613 DB	'FrameBgHovered', 00H
	ORG $+1
$SG118615 DB	'FrameBgActive', 00H
	ORG $+2
$SG118617 DB	'TitleBg', 00H
$SG16217 DB	'imgui.ini', 00H
	ORG $+2
$SG16218 DB	'imgui_log.txt', 00H
	ORG $+2
$SG118619 DB	'TitleBgCollapsed', 00H
	ORG $+3
$SG118621 DB	'TitleBgActive', 00H
	ORG $+2
$SG121694 DB	'-', 00H
	ORG $+2
$SG118623 DB	'MenuBarBg', 00H
	ORG $+2
$SG121696 DB	'+', 00H
	ORG $+2
$SG118625 DB	'ScrollbarBg', 00H
$SG118627 DB	'ScrollbarGrab', 00H
	ORG $+2
$SG118629 DB	'ScrollbarGrabHovered', 00H
	ORG $+3
$SG118631 DB	'ScrollbarGrabActive', 00H
$SG118633 DB	'ComboBg', 00H
$SG118635 DB	'CheckMark', 00H
	ORG $+2
$SG118637 DB	'SliderGrab', 00H
	ORG $+1
$SG118639 DB	'SliderGrabActive', 00H
	ORG $+3
$SG121713 DB	'%f', 00H
	ORG $+1
$SG118641 DB	'Button', 00H
	ORG $+1
$SG121714 DB	'%%.%df', 00H
	ORG $+1
$SG117618 DB	'##Tooltip', 00H
	ORG $+2
$SG118643 DB	'ButtonHovered', 00H
	ORG $+2
$SG118645 DB	'ButtonActive', 00H
	ORG $+3
$SG118647 DB	'Header', 00H
	ORG $+1
$SG118649 DB	'HeaderHovered', 00H
	ORG $+2
$SG118651 DB	'HeaderActive', 00H
	ORG $+3
$SG118653 DB	'Column', 00H
	ORG $+1
$SG121726 DB	'%08X', 00H
	ORG $+3
$SG121727 DB	'%d', 00H
	ORG $+1
$SG118655 DB	'ColumnHovered', 00H
	ORG $+2
$SG118657 DB	'ColumnActive', 00H
	ORG $+3
$SG118659 DB	'ResizeGrip', 00H
	ORG $+1
$SG120708 DB	'(x)', 00H
$SG120709 DB	'( )', 00H
$SG118661 DB	'ResizeGripHovered', 00H
	ORG $+2
$SG118663 DB	'ResizeGripActive', 00H
	ORG $+3
$SG118665 DB	'CloseButton', 00H
$SG117642 DB	'##menus', 00H
$SG118667 DB	'CloseButtonHovered', 00H
	ORG $+1
$SG118669 DB	'CloseButtonActive', 00H
	ORG $+2
$SG121743 DB	'##v', 00H
$SG118671 DB	'PlotLines', 00H
	ORG $+2
$SG118673 DB	'PlotLinesHovered', 00H
	ORG $+3
$SG118675 DB	'PlotHistogram', 00H
	ORG $+2
$SG118677 DB	'PlotHistogramHovered', 00H
	ORG $+3
$SG118679 DB	'TextSelectedBg', 00H
	ORG $+1
$SG118681 DB	'ModalWindowDarkening', 00H
	ORG $+3
$SG118683 DB	'NavHighlight', 00H
	ORG $+3
$SG118685 DB	'NavWindowingHighlight', 00H
	ORG $+2
$SG118686 DB	'Unknown', 00H
$SG122785 DB	'ImGui Metrics', 00H
	ORG $+2
$SG122786 DB	'ImGui %s', 00H
	ORG $+3
$SG122787 DB	'Application average %.3f ms/frame (%.1f FPS)', 00H
	ORG $+3
$SG122788 DB	'%d vertices, %d indices (%d triangles)', 00H
	ORG $+1
$SG122789 DB	'%d allocations', 00H
	ORG $+1
$SG122790 DB	'sizeof(ImGuiContext) = %u, sizeof(ImGuiWindow) = %u', 00H
$SG122791 DB	'Show clipping rectangles when hovering a ImDrawCmd', 00H
	ORG $+1
$SG122792 DB	'Windows', 00H
$SG122794 DB	'Active DrawLists (%d)', 00H
	ORG $+2
$SG122795 DB	'DrawList', 00H
	ORG $+3
$SG122796 DB	'DrawList', 00H
	ORG $+3
$SG122798 DB	'Open Popups Stack (%d)', 00H
	ORG $+1
$SG122799 DB	'Popups', 00H
	ORG $+1
$SG122800 DB	' ChildMenu', 00H
	ORG $+1
$SG121776 DB	'##v', 00H
$SG122802 DB	' ChildWindow', 00H
	ORG $+3
$SG122804 DB	'NULL', 00H
	ORG $+3
$SG122805 DB	'PopupID: %08x, Window: ''%s''%s%s', 00H
$SG122807 DB	'Basic state', 00H
$SG122808 DB	'None', 00H
	ORG $+3
$SG122809 DB	'Mouse', 00H
	ORG $+2
$SG122810 DB	'Nav', 00H
$SG122811 DB	'NULL', 00H
	ORG $+3
$SG122812 DB	'HoveredWindow: ''%s''', 00H
$SG122813 DB	'NULL', 00H
	ORG $+3
$SG122814 DB	'HoveredRootWindow: ''%s''', 00H
$SG122815 DB	'HoveredId: 0x%08X/0x%08X', 00H
	ORG $+3
$SG122816 DB	'ActiveId: 0x%08X/0x%08X, ActiveIdSource: %s', 00H
$SG122817 DB	'NULL', 00H
	ORG $+3
$SG122818 DB	'ActiveIdWindow: ''%s', 00H
$SG122819 DB	'NULL', 00H
	ORG $+3
$SG122820 DB	'NavWindow: ''%s'', NavId: 0x%08X, NavLayer: %d', 00H
	ORG $+3
$SG122821 DB	'NavRefRectRel: (%.1f,%.1f)(%.1f,%.1f)', 00H
	ORG $+2
$SG122822 DB	'NavUsable: %d, NavActive: %d', 00H
	ORG $+3
$SG122823 DB	'NavDisableHighlight: %d, NavDisableMouseHover: %d', 00H
	ORG $+2
$SG119756 DB	'%d', 00H
	ORG $+1
$SG119757 DB	'%.*d', 00H
	ORG $+3
$SG119761 DB	'%f', 00H
	ORG $+1
$SG119762 DB	'%.*f', 00H
	ORG $+3
$SG117717 DB	'##menu_%d', 00H
	ORG $+2
$SG117718 DB	'##popup_%08x', 00H
	ORG $+3
$SG117756 DB	'window_context_menu', 00H
CONST	ENDS
PUBLIC	??_H@YGXPAXIIP6EPAX0@Z@Z			; `vector constructor iterator'
PUBLIC	??0ImVec2@@QAE@XZ				; ImVec2::ImVec2
PUBLIC	??0ImVec2@@QAE@MM@Z				; ImVec2::ImVec2
PUBLIC	??0ImVec4@@QAE@XZ				; ImVec4::ImVec4
PUBLIC	??0ImVec4@@QAE@MMMM@Z				; ImVec4::ImVec4
PUBLIC	?GetIO@ImGui@@YAAAUImGuiIO@@XZ			; ImGui::GetIO
PUBLIC	?GetStyle@ImGui@@YAAAUImGuiStyle@@XZ		; ImGui::GetStyle
PUBLIC	?GetDrawData@ImGui@@YAPAUImDrawData@@XZ		; ImGui::GetDrawData
PUBLIC	?NewFrame@ImGui@@YAXXZ				; ImGui::NewFrame
PUBLIC	?Render@ImGui@@YAXXZ				; ImGui::Render
PUBLIC	?Shutdown@ImGui@@YAXXZ				; ImGui::Shutdown
PUBLIC	?ShowMetricsWindow@ImGui@@YAXPA_N@Z		; ImGui::ShowMetricsWindow
PUBLIC	?Begin@ImGui@@YA_NPBDPA_NH@Z			; ImGui::Begin
PUBLIC	?Begin@ImGui@@YA_NPBDPA_NABUImVec2@@MH@Z	; ImGui::Begin
PUBLIC	?End@ImGui@@YAXXZ				; ImGui::End
PUBLIC	?BeginChild@ImGui@@YA_NPBDABUImVec2@@_NH@Z	; ImGui::BeginChild
PUBLIC	?BeginChild@ImGui@@YA_NIABUImVec2@@_NH@Z	; ImGui::BeginChild
PUBLIC	?EndChild@ImGui@@YAXXZ				; ImGui::EndChild
PUBLIC	?GetContentRegionMax@ImGui@@YA?AUImVec2@@XZ	; ImGui::GetContentRegionMax
PUBLIC	?GetContentRegionAvail@ImGui@@YA?AUImVec2@@XZ	; ImGui::GetContentRegionAvail
PUBLIC	?GetContentRegionAvailWidth@ImGui@@YAMXZ	; ImGui::GetContentRegionAvailWidth
PUBLIC	?GetWindowContentRegionMin@ImGui@@YA?AUImVec2@@XZ ; ImGui::GetWindowContentRegionMin
PUBLIC	?GetWindowContentRegionMax@ImGui@@YA?AUImVec2@@XZ ; ImGui::GetWindowContentRegionMax
PUBLIC	?GetWindowContentRegionWidth@ImGui@@YAMXZ	; ImGui::GetWindowContentRegionWidth
PUBLIC	?GetWindowDrawList@ImGui@@YAPAUImDrawList@@XZ	; ImGui::GetWindowDrawList
PUBLIC	?GetWindowPos@ImGui@@YA?AUImVec2@@XZ		; ImGui::GetWindowPos
PUBLIC	?GetWindowSize@ImGui@@YA?AUImVec2@@XZ		; ImGui::GetWindowSize
PUBLIC	?GetWindowWidth@ImGui@@YAMXZ			; ImGui::GetWindowWidth
PUBLIC	?GetWindowHeight@ImGui@@YAMXZ			; ImGui::GetWindowHeight
PUBLIC	?IsWindowCollapsed@ImGui@@YA_NXZ		; ImGui::IsWindowCollapsed
PUBLIC	?SetWindowFontScale@ImGui@@YAXM@Z		; ImGui::SetWindowFontScale
PUBLIC	?SetNextWindowPos@ImGui@@YAXABUImVec2@@H@Z	; ImGui::SetNextWindowPos
PUBLIC	?SetNextWindowPosCenter@ImGui@@YAXH@Z		; ImGui::SetNextWindowPosCenter
PUBLIC	?SetNextWindowSize@ImGui@@YAXABUImVec2@@H@Z	; ImGui::SetNextWindowSize
PUBLIC	?SetNextWindowSizeConstraints@ImGui@@YAXABUImVec2@@0P6AXPAUImGuiSizeConstraintCallbackData@@@ZPAX@Z ; ImGui::SetNextWindowSizeConstraints
PUBLIC	?SetNextWindowContentSize@ImGui@@YAXABUImVec2@@@Z ; ImGui::SetNextWindowContentSize
PUBLIC	?SetNextWindowContentWidth@ImGui@@YAXM@Z	; ImGui::SetNextWindowContentWidth
PUBLIC	?SetNextWindowCollapsed@ImGui@@YAX_NH@Z		; ImGui::SetNextWindowCollapsed
PUBLIC	?SetNextWindowFocus@ImGui@@YAXXZ		; ImGui::SetNextWindowFocus
PUBLIC	?SetWindowPos@ImGui@@YAXABUImVec2@@H@Z		; ImGui::SetWindowPos
PUBLIC	?SetWindowSize@ImGui@@YAXABUImVec2@@H@Z		; ImGui::SetWindowSize
PUBLIC	?SetWindowCollapsed@ImGui@@YAX_NH@Z		; ImGui::SetWindowCollapsed
PUBLIC	?SetWindowFocus@ImGui@@YAXXZ			; ImGui::SetWindowFocus
PUBLIC	?SetWindowPos@ImGui@@YAXPBDABUImVec2@@H@Z	; ImGui::SetWindowPos
PUBLIC	?SetWindowSize@ImGui@@YAXPBDABUImVec2@@H@Z	; ImGui::SetWindowSize
PUBLIC	?SetWindowCollapsed@ImGui@@YAXPBD_NH@Z		; ImGui::SetWindowCollapsed
PUBLIC	?SetWindowFocus@ImGui@@YAXPBD@Z			; ImGui::SetWindowFocus
PUBLIC	?GetScrollX@ImGui@@YAMXZ			; ImGui::GetScrollX
PUBLIC	?GetScrollY@ImGui@@YAMXZ			; ImGui::GetScrollY
PUBLIC	?GetScrollMaxX@ImGui@@YAMXZ			; ImGui::GetScrollMaxX
PUBLIC	?GetScrollMaxY@ImGui@@YAMXZ			; ImGui::GetScrollMaxY
PUBLIC	?SetScrollX@ImGui@@YAXM@Z			; ImGui::SetScrollX
PUBLIC	?SetScrollY@ImGui@@YAXM@Z			; ImGui::SetScrollY
PUBLIC	?SetScrollHere@ImGui@@YAXM@Z			; ImGui::SetScrollHere
PUBLIC	?SetScrollFromPosY@ImGui@@YAXMM@Z		; ImGui::SetScrollFromPosY
PUBLIC	?SetKeyboardFocusHere@ImGui@@YAXH@Z		; ImGui::SetKeyboardFocusHere
PUBLIC	?SetStateStorage@ImGui@@YAXPAUImGuiStorage@@@Z	; ImGui::SetStateStorage
PUBLIC	?GetStateStorage@ImGui@@YAPAUImGuiStorage@@XZ	; ImGui::GetStateStorage
PUBLIC	?PushFont@ImGui@@YAXPAUImFont@@@Z		; ImGui::PushFont
PUBLIC	?PopFont@ImGui@@YAXXZ				; ImGui::PopFont
PUBLIC	?PushStyleColor@ImGui@@YAXHABUImVec4@@@Z	; ImGui::PushStyleColor
PUBLIC	?PopStyleColor@ImGui@@YAXH@Z			; ImGui::PopStyleColor
PUBLIC	?PushStyleVar@ImGui@@YAXHM@Z			; ImGui::PushStyleVar
PUBLIC	?PushStyleVar@ImGui@@YAXHABUImVec2@@@Z		; ImGui::PushStyleVar
PUBLIC	?PopStyleVar@ImGui@@YAXH@Z			; ImGui::PopStyleVar
PUBLIC	?GetFont@ImGui@@YAPAUImFont@@XZ			; ImGui::GetFont
PUBLIC	?GetFontSize@ImGui@@YAMXZ			; ImGui::GetFontSize
PUBLIC	?GetFontTexUvWhitePixel@ImGui@@YA?AUImVec2@@XZ	; ImGui::GetFontTexUvWhitePixel
PUBLIC	?GetColorU32@ImGui@@YAIHM@Z			; ImGui::GetColorU32
PUBLIC	?GetColorU32@ImGui@@YAIABUImVec4@@@Z		; ImGui::GetColorU32
PUBLIC	?PushItemWidth@ImGui@@YAXM@Z			; ImGui::PushItemWidth
PUBLIC	?PopItemWidth@ImGui@@YAXXZ			; ImGui::PopItemWidth
PUBLIC	?CalcItemWidth@ImGui@@YAMXZ			; ImGui::CalcItemWidth
PUBLIC	?PushTextWrapPos@ImGui@@YAXM@Z			; ImGui::PushTextWrapPos
PUBLIC	?PopTextWrapPos@ImGui@@YAXXZ			; ImGui::PopTextWrapPos
PUBLIC	?PushAllowKeyboardFocus@ImGui@@YAX_N@Z		; ImGui::PushAllowKeyboardFocus
PUBLIC	?PopAllowKeyboardFocus@ImGui@@YAXXZ		; ImGui::PopAllowKeyboardFocus
PUBLIC	?PushButtonRepeat@ImGui@@YAX_N@Z		; ImGui::PushButtonRepeat
PUBLIC	?PopButtonRepeat@ImGui@@YAXXZ			; ImGui::PopButtonRepeat
PUBLIC	?Separator@ImGui@@YAXXZ				; ImGui::Separator
PUBLIC	?SameLine@ImGui@@YAXMM@Z			; ImGui::SameLine
PUBLIC	?NewLine@ImGui@@YAXXZ				; ImGui::NewLine
PUBLIC	?Spacing@ImGui@@YAXXZ				; ImGui::Spacing
PUBLIC	?Dummy@ImGui@@YAXABUImVec2@@@Z			; ImGui::Dummy
PUBLIC	?Indent@ImGui@@YAXM@Z				; ImGui::Indent
PUBLIC	?Unindent@ImGui@@YAXM@Z				; ImGui::Unindent
PUBLIC	?BeginGroup@ImGui@@YAXXZ			; ImGui::BeginGroup
PUBLIC	?EndGroup@ImGui@@YAXXZ				; ImGui::EndGroup
PUBLIC	?GetCursorPos@ImGui@@YA?AUImVec2@@XZ		; ImGui::GetCursorPos
PUBLIC	?GetCursorPosX@ImGui@@YAMXZ			; ImGui::GetCursorPosX
PUBLIC	?GetCursorPosY@ImGui@@YAMXZ			; ImGui::GetCursorPosY
PUBLIC	?SetCursorPos@ImGui@@YAXABUImVec2@@@Z		; ImGui::SetCursorPos
PUBLIC	?SetCursorPosX@ImGui@@YAXM@Z			; ImGui::SetCursorPosX
PUBLIC	?SetCursorPosY@ImGui@@YAXM@Z			; ImGui::SetCursorPosY
PUBLIC	?GetCursorStartPos@ImGui@@YA?AUImVec2@@XZ	; ImGui::GetCursorStartPos
PUBLIC	?GetCursorScreenPos@ImGui@@YA?AUImVec2@@XZ	; ImGui::GetCursorScreenPos
PUBLIC	?SetCursorScreenPos@ImGui@@YAXABUImVec2@@@Z	; ImGui::SetCursorScreenPos
PUBLIC	?AlignFirstTextHeightToWidgets@ImGui@@YAXXZ	; ImGui::AlignFirstTextHeightToWidgets
PUBLIC	?GetTextLineHeight@ImGui@@YAMXZ			; ImGui::GetTextLineHeight
PUBLIC	?GetTextLineHeightWithSpacing@ImGui@@YAMXZ	; ImGui::GetTextLineHeightWithSpacing
PUBLIC	?GetItemsLineHeightWithSpacing@ImGui@@YAMXZ	; ImGui::GetItemsLineHeightWithSpacing
PUBLIC	?Columns@ImGui@@YAXHPBD_N@Z			; ImGui::Columns
PUBLIC	?NextColumn@ImGui@@YAXXZ			; ImGui::NextColumn
PUBLIC	?GetColumnIndex@ImGui@@YAHXZ			; ImGui::GetColumnIndex
PUBLIC	?GetColumnOffset@ImGui@@YAMH@Z			; ImGui::GetColumnOffset
PUBLIC	?SetColumnOffset@ImGui@@YAXHM@Z			; ImGui::SetColumnOffset
PUBLIC	?GetColumnWidth@ImGui@@YAMH@Z			; ImGui::GetColumnWidth
PUBLIC	?GetColumnsCount@ImGui@@YAHXZ			; ImGui::GetColumnsCount
PUBLIC	?PushID@ImGui@@YAXPBD@Z				; ImGui::PushID
PUBLIC	?PushID@ImGui@@YAXPBD0@Z			; ImGui::PushID
PUBLIC	?PushID@ImGui@@YAXPBX@Z				; ImGui::PushID
PUBLIC	?PushID@ImGui@@YAXH@Z				; ImGui::PushID
PUBLIC	?PopID@ImGui@@YAXXZ				; ImGui::PopID
PUBLIC	?GetID@ImGui@@YAIPBD@Z				; ImGui::GetID
PUBLIC	?GetID@ImGui@@YAIPBD0@Z				; ImGui::GetID
PUBLIC	?GetID@ImGui@@YAIPBX@Z				; ImGui::GetID
PUBLIC	?Text@ImGui@@YAXPBDZZ				; ImGui::Text
PUBLIC	?TextV@ImGui@@YAXPBDPAD@Z			; ImGui::TextV
PUBLIC	?TextColored@ImGui@@YAXABUImVec4@@PBDZZ		; ImGui::TextColored
PUBLIC	?TextColoredV@ImGui@@YAXABUImVec4@@PBDPAD@Z	; ImGui::TextColoredV
PUBLIC	?TextDisabled@ImGui@@YAXPBDZZ			; ImGui::TextDisabled
PUBLIC	?TextDisabledV@ImGui@@YAXPBDPAD@Z		; ImGui::TextDisabledV
PUBLIC	?TextWrapped@ImGui@@YAXPBDZZ			; ImGui::TextWrapped
PUBLIC	?TextWrappedV@ImGui@@YAXPBDPAD@Z		; ImGui::TextWrappedV
PUBLIC	?TextUnformatted@ImGui@@YAXPBD0@Z		; ImGui::TextUnformatted
PUBLIC	?LabelText@ImGui@@YAXPBD0ZZ			; ImGui::LabelText
PUBLIC	?LabelTextV@ImGui@@YAXPBD0PAD@Z			; ImGui::LabelTextV
PUBLIC	?Bullet@ImGui@@YAXXZ				; ImGui::Bullet
PUBLIC	?BulletText@ImGui@@YAXPBDZZ			; ImGui::BulletText
PUBLIC	?BulletTextV@ImGui@@YAXPBDPAD@Z			; ImGui::BulletTextV
PUBLIC	?Button@ImGui@@YA_NPBDABUImVec2@@@Z		; ImGui::Button
PUBLIC	?SmallButton@ImGui@@YA_NPBD@Z			; ImGui::SmallButton
PUBLIC	?InvisibleButton@ImGui@@YA_NPBDABUImVec2@@@Z	; ImGui::InvisibleButton
PUBLIC	?Image@ImGui@@YAXPAXABUImVec2@@11ABUImVec4@@2@Z	; ImGui::Image
PUBLIC	?ImageButton@ImGui@@YA_NPAXABUImVec2@@11HABUImVec4@@2@Z ; ImGui::ImageButton
PUBLIC	?Checkbox@ImGui@@YA_NPBDPA_N@Z			; ImGui::Checkbox
PUBLIC	?CheckboxFlags@ImGui@@YA_NPBDPAII@Z		; ImGui::CheckboxFlags
PUBLIC	?RadioButton@ImGui@@YA_NPBD_N@Z			; ImGui::RadioButton
PUBLIC	?RadioButton@ImGui@@YA_NPBDPAHH@Z		; ImGui::RadioButton
PUBLIC	?Combo@ImGui@@YA_NPBDPAHPBQBDHH@Z		; ImGui::Combo
PUBLIC	?Combo@ImGui@@YA_NPBDPAH0H@Z			; ImGui::Combo
PUBLIC	?Combo@ImGui@@YA_NPBDPAHP6A_NPAXHPAPBD@Z2HH@Z	; ImGui::Combo
PUBLIC	?ColorButton@ImGui@@YA_NABUImVec4@@_N1@Z	; ImGui::ColorButton
PUBLIC	?ColorEdit3@ImGui@@YA_NPBDQAM@Z			; ImGui::ColorEdit3
PUBLIC	?ColorEdit4@ImGui@@YA_NPBDQAM_N@Z		; ImGui::ColorEdit4
PUBLIC	?ColorEditMode@ImGui@@YAXH@Z			; ImGui::ColorEditMode
PUBLIC	?PlotLines@ImGui@@YAXPBDPBMHH0MMUImVec2@@H@Z	; ImGui::PlotLines
PUBLIC	?PlotLines@ImGui@@YAXPBDP6AMPAXH@Z1HH0MMUImVec2@@@Z ; ImGui::PlotLines
PUBLIC	?PlotLinesC@ImGui@@YAXPBDPBMHH0MMUImVec2@@HMMM_N@Z ; ImGui::PlotLinesC
PUBLIC	?PlotHistogram@ImGui@@YAXPBDPBMHH0MMUImVec2@@H@Z ; ImGui::PlotHistogram
PUBLIC	?PlotHistogram@ImGui@@YAXPBDP6AMPAXH@Z1HH0MMUImVec2@@@Z ; ImGui::PlotHistogram
PUBLIC	?ProgressBar@ImGui@@YAXMABUImVec2@@PBD@Z	; ImGui::ProgressBar
PUBLIC	?DragFloat@ImGui@@YA_NPBDPAMMMM0M@Z		; ImGui::DragFloat
PUBLIC	?DragFloat2@ImGui@@YA_NPBDQAMMMM0M@Z		; ImGui::DragFloat2
PUBLIC	?DragFloat3@ImGui@@YA_NPBDQAMMMM0M@Z		; ImGui::DragFloat3
PUBLIC	?DragFloat4@ImGui@@YA_NPBDQAMMMM0M@Z		; ImGui::DragFloat4
PUBLIC	?DragFloatRange2@ImGui@@YA_NPBDPAM1MMM00M@Z	; ImGui::DragFloatRange2
PUBLIC	?DragInt@ImGui@@YA_NPBDPAHMHH0@Z		; ImGui::DragInt
PUBLIC	?DragInt2@ImGui@@YA_NPBDQAHMHH0@Z		; ImGui::DragInt2
PUBLIC	?DragInt3@ImGui@@YA_NPBDQAHMHH0@Z		; ImGui::DragInt3
PUBLIC	?DragInt4@ImGui@@YA_NPBDQAHMHH0@Z		; ImGui::DragInt4
PUBLIC	?DragIntRange2@ImGui@@YA_NPBDPAH1MHH00@Z	; ImGui::DragIntRange2
PUBLIC	?InputText@ImGui@@YA_NPBDPADIHP6AHPAUImGuiTextEditCallbackData@@@ZPAX@Z ; ImGui::InputText
PUBLIC	?InputTextMultiline@ImGui@@YA_NPBDPADIABUImVec2@@HP6AHPAUImGuiTextEditCallbackData@@@ZPAX@Z ; ImGui::InputTextMultiline
PUBLIC	?InputFloat@ImGui@@YA_NPBDPAMMMHH@Z		; ImGui::InputFloat
PUBLIC	?InputFloat2@ImGui@@YA_NPBDQAMHH@Z		; ImGui::InputFloat2
PUBLIC	?InputFloat3@ImGui@@YA_NPBDQAMHH@Z		; ImGui::InputFloat3
PUBLIC	?InputFloat4@ImGui@@YA_NPBDQAMHH@Z		; ImGui::InputFloat4
PUBLIC	?InputInt@ImGui@@YA_NPBDPAHHHH@Z		; ImGui::InputInt
PUBLIC	?InputInt2@ImGui@@YA_NPBDQAHH@Z			; ImGui::InputInt2
PUBLIC	?InputInt3@ImGui@@YA_NPBDQAHH@Z			; ImGui::InputInt3
PUBLIC	?InputInt4@ImGui@@YA_NPBDQAHH@Z			; ImGui::InputInt4
PUBLIC	?SliderFloat@ImGui@@YA_NPBDPAMMM0M@Z		; ImGui::SliderFloat
PUBLIC	?SliderFloat2@ImGui@@YA_NPBDQAMMM0M@Z		; ImGui::SliderFloat2
PUBLIC	?SliderFloat3@ImGui@@YA_NPBDQAMMM0M@Z		; ImGui::SliderFloat3
PUBLIC	?SliderFloat4@ImGui@@YA_NPBDQAMMM0M@Z		; ImGui::SliderFloat4
PUBLIC	?SliderAngle@ImGui@@YA_NPBDPAMMM@Z		; ImGui::SliderAngle
PUBLIC	?SliderInt@ImGui@@YA_NPBDPAHHH0@Z		; ImGui::SliderInt
PUBLIC	?SliderInt2@ImGui@@YA_NPBDQAHHH0@Z		; ImGui::SliderInt2
PUBLIC	?SliderInt3@ImGui@@YA_NPBDQAHHH0@Z		; ImGui::SliderInt3
PUBLIC	?SliderInt4@ImGui@@YA_NPBDQAHHH0@Z		; ImGui::SliderInt4
PUBLIC	?VSliderFloat@ImGui@@YA_NPBDABUImVec2@@PAMMM0M@Z ; ImGui::VSliderFloat
PUBLIC	?VSliderInt@ImGui@@YA_NPBDABUImVec2@@PAHHH0@Z	; ImGui::VSliderInt
PUBLIC	?TreeNode@ImGui@@YA_NPBD@Z			; ImGui::TreeNode
PUBLIC	?TreeNode@ImGui@@YA_NPBD0ZZ			; ImGui::TreeNode
PUBLIC	?TreeNode@ImGui@@YA_NPBXPBDZZ			; ImGui::TreeNode
PUBLIC	?TreeNodeV@ImGui@@YA_NPBD0PAD@Z			; ImGui::TreeNodeV
PUBLIC	?TreeNodeV@ImGui@@YA_NPBXPBDPAD@Z		; ImGui::TreeNodeV
PUBLIC	?TreeNodeEx@ImGui@@YA_NPBDH@Z			; ImGui::TreeNodeEx
PUBLIC	?TreeNodeEx@ImGui@@YA_NPBDH0ZZ			; ImGui::TreeNodeEx
PUBLIC	?TreeNodeEx@ImGui@@YA_NPBXHPBDZZ		; ImGui::TreeNodeEx
PUBLIC	?TreeNodeExV@ImGui@@YA_NPBDH0PAD@Z		; ImGui::TreeNodeExV
PUBLIC	?TreeNodeExV@ImGui@@YA_NPBXHPBDPAD@Z		; ImGui::TreeNodeExV
PUBLIC	?TreePush@ImGui@@YAXPBD@Z			; ImGui::TreePush
PUBLIC	?TreePush@ImGui@@YAXPBX@Z			; ImGui::TreePush
PUBLIC	?TreePop@ImGui@@YAXXZ				; ImGui::TreePop
PUBLIC	?TreeAdvanceToLabelPos@ImGui@@YAXXZ		; ImGui::TreeAdvanceToLabelPos
PUBLIC	?GetTreeNodeToLabelSpacing@ImGui@@YAMXZ		; ImGui::GetTreeNodeToLabelSpacing
PUBLIC	?SetNextTreeNodeOpen@ImGui@@YAX_NH@Z		; ImGui::SetNextTreeNodeOpen
PUBLIC	?CollapsingHeader@ImGui@@YA_NPBDH@Z		; ImGui::CollapsingHeader
PUBLIC	?CollapsingHeader@ImGui@@YA_NPBDPA_NH@Z		; ImGui::CollapsingHeader
PUBLIC	?Selectable@ImGui@@YA_NPBD_NHABUImVec2@@@Z	; ImGui::Selectable
PUBLIC	?Selectable@ImGui@@YA_NPBDPA_NHABUImVec2@@@Z	; ImGui::Selectable
PUBLIC	?ListBox@ImGui@@YA_NPBDPAHPBQBDHH@Z		; ImGui::ListBox
PUBLIC	?ListBox@ImGui@@YA_NPBDPAHP6A_NPAXHPAPBD@Z2HH@Z	; ImGui::ListBox
PUBLIC	?ListBoxHeader@ImGui@@YA_NPBDABUImVec2@@@Z	; ImGui::ListBoxHeader
PUBLIC	?ListBoxHeader@ImGui@@YA_NPBDHH@Z		; ImGui::ListBoxHeader
PUBLIC	?ListBoxFooter@ImGui@@YAXXZ			; ImGui::ListBoxFooter
PUBLIC	?Value@ImGui@@YAXPBD_N@Z			; ImGui::Value
PUBLIC	?Value@ImGui@@YAXPBDH@Z				; ImGui::Value
PUBLIC	?Value@ImGui@@YAXPBDI@Z				; ImGui::Value
PUBLIC	?Value@ImGui@@YAXPBDM0@Z			; ImGui::Value
PUBLIC	?ValueColor@ImGui@@YAXPBDABUImVec4@@@Z		; ImGui::ValueColor
PUBLIC	?ValueColor@ImGui@@YAXPBDI@Z			; ImGui::ValueColor
PUBLIC	?SetTooltip@ImGui@@YAXPBDZZ			; ImGui::SetTooltip
PUBLIC	?SetTooltipV@ImGui@@YAXPBDPAD@Z			; ImGui::SetTooltipV
PUBLIC	?BeginTooltip@ImGui@@YAXXZ			; ImGui::BeginTooltip
PUBLIC	?EndTooltip@ImGui@@YAXXZ			; ImGui::EndTooltip
PUBLIC	?BeginMainMenuBar@ImGui@@YA_NXZ			; ImGui::BeginMainMenuBar
PUBLIC	?EndMainMenuBar@ImGui@@YAXXZ			; ImGui::EndMainMenuBar
PUBLIC	?BeginMenuBar@ImGui@@YA_NXZ			; ImGui::BeginMenuBar
PUBLIC	?EndMenuBar@ImGui@@YAXXZ			; ImGui::EndMenuBar
PUBLIC	?BeginMenu@ImGui@@YA_NPBD_N@Z			; ImGui::BeginMenu
PUBLIC	?EndMenu@ImGui@@YAXXZ				; ImGui::EndMenu
PUBLIC	?MenuItem@ImGui@@YA_NPBD0_N1@Z			; ImGui::MenuItem
PUBLIC	?MenuItem@ImGui@@YA_NPBD0PA_N_N@Z		; ImGui::MenuItem
PUBLIC	?OpenPopup@ImGui@@YAXPBD@Z			; ImGui::OpenPopup
PUBLIC	?BeginPopup@ImGui@@YA_NPBD@Z			; ImGui::BeginPopup
PUBLIC	?BeginPopupModal@ImGui@@YA_NPBDPA_NH@Z		; ImGui::BeginPopupModal
PUBLIC	?BeginPopupContextItem@ImGui@@YA_NPBDH@Z	; ImGui::BeginPopupContextItem
PUBLIC	?BeginPopupContextWindow@ImGui@@YA_N_NPBDH@Z	; ImGui::BeginPopupContextWindow
PUBLIC	?BeginPopupContextVoid@ImGui@@YA_NPBDH@Z	; ImGui::BeginPopupContextVoid
PUBLIC	?EndPopup@ImGui@@YAXXZ				; ImGui::EndPopup
PUBLIC	?CloseCurrentPopup@ImGui@@YAXXZ			; ImGui::CloseCurrentPopup
PUBLIC	?LogToTTY@ImGui@@YAXH@Z				; ImGui::LogToTTY
PUBLIC	?LogToFile@ImGui@@YAXHPBD@Z			; ImGui::LogToFile
PUBLIC	?LogToClipboard@ImGui@@YAXH@Z			; ImGui::LogToClipboard
PUBLIC	?LogFinish@ImGui@@YAXXZ				; ImGui::LogFinish
PUBLIC	?LogButtons@ImGui@@YAXXZ			; ImGui::LogButtons
PUBLIC	?LogText@ImGui@@YAXPBDZZ			; ImGui::LogText
PUBLIC	?PushClipRect@ImGui@@YAXABUImVec2@@0_N@Z	; ImGui::PushClipRect
PUBLIC	?PopClipRect@ImGui@@YAXXZ			; ImGui::PopClipRect
PUBLIC	?IsItemHovered@ImGui@@YA_NXZ			; ImGui::IsItemHovered
PUBLIC	?IsItemHoveredRect@ImGui@@YA_NXZ		; ImGui::IsItemHoveredRect
PUBLIC	?IsItemActive@ImGui@@YA_NXZ			; ImGui::IsItemActive
PUBLIC	?IsItemFocused@ImGui@@YA_NXZ			; ImGui::IsItemFocused
PUBLIC	?IsItemClicked@ImGui@@YA_NH@Z			; ImGui::IsItemClicked
PUBLIC	?IsItemVisible@ImGui@@YA_NXZ			; ImGui::IsItemVisible
PUBLIC	?IsAnyItemHovered@ImGui@@YA_NXZ			; ImGui::IsAnyItemHovered
PUBLIC	?IsAnyItemActive@ImGui@@YA_NXZ			; ImGui::IsAnyItemActive
PUBLIC	?IsAnyItemFocused@ImGui@@YA_NXZ			; ImGui::IsAnyItemFocused
PUBLIC	?GetItemRectMin@ImGui@@YA?AUImVec2@@XZ		; ImGui::GetItemRectMin
PUBLIC	?GetItemRectMax@ImGui@@YA?AUImVec2@@XZ		; ImGui::GetItemRectMax
PUBLIC	?GetItemRectSize@ImGui@@YA?AUImVec2@@XZ		; ImGui::GetItemRectSize
PUBLIC	?SetItemAllowOverlap@ImGui@@YAXXZ		; ImGui::SetItemAllowOverlap
PUBLIC	?SetItemDefaultFocus@ImGui@@YAXXZ		; ImGui::SetItemDefaultFocus
PUBLIC	?IsWindowFocused@ImGui@@YA_NXZ			; ImGui::IsWindowFocused
PUBLIC	?IsWindowHovered@ImGui@@YA_NXZ			; ImGui::IsWindowHovered
PUBLIC	?IsWindowHoveredRect@ImGui@@YA_NXZ		; ImGui::IsWindowHoveredRect
PUBLIC	?IsRootWindowFocused@ImGui@@YA_NXZ		; ImGui::IsRootWindowFocused
PUBLIC	?IsRootWindowOrAnyChildFocused@ImGui@@YA_NXZ	; ImGui::IsRootWindowOrAnyChildFocused
PUBLIC	?IsRootWindowOrAnyChildHovered@ImGui@@YA_NXZ	; ImGui::IsRootWindowOrAnyChildHovered
PUBLIC	?IsAnyWindowFocused@ImGui@@YA_NXZ		; ImGui::IsAnyWindowFocused
PUBLIC	?IsAnyWindowHovered@ImGui@@YA_NXZ		; ImGui::IsAnyWindowHovered
PUBLIC	?IsAnyWindowHoveredAtPos@ImGui@@YA_NABUImVec2@@@Z ; ImGui::IsAnyWindowHoveredAtPos
PUBLIC	?IsRectVisible@ImGui@@YA_NABUImVec2@@@Z		; ImGui::IsRectVisible
PUBLIC	?IsRectVisible@ImGui@@YA_NABUImVec2@@0@Z	; ImGui::IsRectVisible
PUBLIC	?GetTime@ImGui@@YAMXZ				; ImGui::GetTime
PUBLIC	?GetFrameCount@ImGui@@YAHXZ			; ImGui::GetFrameCount
PUBLIC	?GetStyleColName@ImGui@@YAPBDH@Z		; ImGui::GetStyleColName
PUBLIC	?CalcItemRectClosestPoint@ImGui@@YA?AUImVec2@@ABU2@_NM@Z ; ImGui::CalcItemRectClosestPoint
PUBLIC	?CalcTextSize@ImGui@@YA?AUImVec2@@PBD0_NM@Z	; ImGui::CalcTextSize
PUBLIC	?CalcListClipping@ImGui@@YAXHMPAH0@Z		; ImGui::CalcListClipping
PUBLIC	?BeginChildFrame@ImGui@@YA_NIABUImVec2@@H@Z	; ImGui::BeginChildFrame
PUBLIC	?EndChildFrame@ImGui@@YAXXZ			; ImGui::EndChildFrame
PUBLIC	?ColorConvertU32ToFloat4@ImGui@@YA?AUImVec4@@I@Z ; ImGui::ColorConvertU32ToFloat4
PUBLIC	?ColorConvertFloat4ToU32@ImGui@@YAIABUImVec4@@@Z ; ImGui::ColorConvertFloat4ToU32
PUBLIC	?ColorConvertRGBtoHSV@ImGui@@YAXMMMAAM00@Z	; ImGui::ColorConvertRGBtoHSV
PUBLIC	?ColorConvertHSVtoRGB@ImGui@@YAXMMMAAM00@Z	; ImGui::ColorConvertHSVtoRGB
PUBLIC	?GetKeyIndex@ImGui@@YAHH@Z			; ImGui::GetKeyIndex
PUBLIC	?IsKeyDown@ImGui@@YA_NH@Z			; ImGui::IsKeyDown
PUBLIC	?IsKeyPressed@ImGui@@YA_NH_N@Z			; ImGui::IsKeyPressed
PUBLIC	?IsKeyReleased@ImGui@@YA_NH@Z			; ImGui::IsKeyReleased
PUBLIC	?GetKeyPressedAmount@ImGui@@YAHHMM@Z		; ImGui::GetKeyPressedAmount
PUBLIC	?IsMouseDown@ImGui@@YA_NH@Z			; ImGui::IsMouseDown
PUBLIC	?IsMouseClicked@ImGui@@YA_NH_N@Z		; ImGui::IsMouseClicked
PUBLIC	?IsMouseDoubleClicked@ImGui@@YA_NH@Z		; ImGui::IsMouseDoubleClicked
PUBLIC	?IsMouseReleased@ImGui@@YA_NH@Z			; ImGui::IsMouseReleased
PUBLIC	?IsMouseDragging@ImGui@@YA_NHM@Z		; ImGui::IsMouseDragging
PUBLIC	?IsMouseHoveringRect@ImGui@@YA_NABUImVec2@@0_N@Z ; ImGui::IsMouseHoveringRect
PUBLIC	?GetMousePos@ImGui@@YA?AUImVec2@@XZ		; ImGui::GetMousePos
PUBLIC	?GetMousePosOnOpeningCurrentPopup@ImGui@@YA?AUImVec2@@XZ ; ImGui::GetMousePosOnOpeningCurrentPopup
PUBLIC	?GetMouseDragDelta@ImGui@@YA?AUImVec2@@HM@Z	; ImGui::GetMouseDragDelta
PUBLIC	?ResetMouseDragDelta@ImGui@@YAXH@Z		; ImGui::ResetMouseDragDelta
PUBLIC	?GetMouseCursor@ImGui@@YAHXZ			; ImGui::GetMouseCursor
PUBLIC	?SetMouseCursor@ImGui@@YAXH@Z			; ImGui::SetMouseCursor
PUBLIC	?CaptureKeyboardFromApp@ImGui@@YAX_N@Z		; ImGui::CaptureKeyboardFromApp
PUBLIC	?CaptureMouseFromApp@ImGui@@YAX_N@Z		; ImGui::CaptureMouseFromApp
PUBLIC	?IsNavDragging@ImGui@@YA_NHM@Z			; ImGui::IsNavDragging
PUBLIC	?MemAlloc@ImGui@@YAPAXI@Z			; ImGui::MemAlloc
PUBLIC	?MemFree@ImGui@@YAXPAX@Z			; ImGui::MemFree
PUBLIC	?GetClipboardText@ImGui@@YAPBDXZ		; ImGui::GetClipboardText
PUBLIC	?SetClipboardText@ImGui@@YAXPBD@Z		; ImGui::SetClipboardText
PUBLIC	?GetVersion@ImGui@@YAPBDXZ			; ImGui::GetVersion
PUBLIC	?CreateContext@ImGui@@YAPAUImGuiContext@@P6APAXI@ZP6AXPAX@Z@Z ; ImGui::CreateContext
PUBLIC	?DestroyContext@ImGui@@YAXPAUImGuiContext@@@Z	; ImGui::DestroyContext
PUBLIC	?GetCurrentContext@ImGui@@YAPAUImGuiContext@@XZ	; ImGui::GetCurrentContext
PUBLIC	?SetCurrentContext@ImGui@@YAXPAUImGuiContext@@@Z ; ImGui::SetCurrentContext
PUBLIC	??0ImGuiStyle@@QAE@XZ				; ImGuiStyle::ImGuiStyle
PUBLIC	?AddInputCharacter@ImGuiIO@@QAEXG@Z		; ImGuiIO::AddInputCharacter
PUBLIC	?AddInputCharactersUTF8@ImGuiIO@@QAEXPBD@Z	; ImGuiIO::AddInputCharactersUTF8
PUBLIC	??0ImGuiIO@@QAE@XZ				; ImGuiIO::ImGuiIO
PUBLIC	??0TextRange@ImGuiTextFilter@@QAE@PBD0@Z	; ImGuiTextFilter::TextRange::TextRange
PUBLIC	?begin@TextRange@ImGuiTextFilter@@QBEPBDXZ	; ImGuiTextFilter::TextRange::begin
PUBLIC	?end@TextRange@ImGuiTextFilter@@QBEPBDXZ	; ImGuiTextFilter::TextRange::end
PUBLIC	?empty@TextRange@ImGuiTextFilter@@QBE_NXZ	; ImGuiTextFilter::TextRange::empty
PUBLIC	?front@TextRange@ImGuiTextFilter@@QBEDXZ	; ImGuiTextFilter::TextRange::front
PUBLIC	?is_blank@TextRange@ImGuiTextFilter@@SA_ND@Z	; ImGuiTextFilter::TextRange::is_blank
PUBLIC	?trim_blanks@TextRange@ImGuiTextFilter@@QAEXXZ	; ImGuiTextFilter::TextRange::trim_blanks
PUBLIC	?split@TextRange@ImGuiTextFilter@@QAEXDAAV?$ImVector@UTextRange@ImGuiTextFilter@@@@@Z ; ImGuiTextFilter::TextRange::split
PUBLIC	??0?$ImVector@UTextRange@ImGuiTextFilter@@@@QAE@XZ ; ImVector<ImGuiTextFilter::TextRange>::ImVector<ImGuiTextFilter::TextRange>
PUBLIC	??1?$ImVector@UTextRange@ImGuiTextFilter@@@@QAE@XZ ; ImVector<ImGuiTextFilter::TextRange>::~ImVector<ImGuiTextFilter::TextRange>
PUBLIC	?empty@?$ImVector@UTextRange@ImGuiTextFilter@@@@QBE_NXZ ; ImVector<ImGuiTextFilter::TextRange>::empty
PUBLIC	??A?$ImVector@UTextRange@ImGuiTextFilter@@@@QAEAAUTextRange@ImGuiTextFilter@@H@Z ; ImVector<ImGuiTextFilter::TextRange>::operator[]
PUBLIC	??A?$ImVector@UTextRange@ImGuiTextFilter@@@@QBEABUTextRange@ImGuiTextFilter@@H@Z ; ImVector<ImGuiTextFilter::TextRange>::operator[]
PUBLIC	?_grow_capacity@?$ImVector@UTextRange@ImGuiTextFilter@@@@QAEHH@Z ; ImVector<ImGuiTextFilter::TextRange>::_grow_capacity
PUBLIC	?resize@?$ImVector@UTextRange@ImGuiTextFilter@@@@QAEXH@Z ; ImVector<ImGuiTextFilter::TextRange>::resize
PUBLIC	?reserve@?$ImVector@UTextRange@ImGuiTextFilter@@@@QAEXH@Z ; ImVector<ImGuiTextFilter::TextRange>::reserve
PUBLIC	?push_back@?$ImVector@UTextRange@ImGuiTextFilter@@@@QAEXABUTextRange@ImGuiTextFilter@@@Z ; ImVector<ImGuiTextFilter::TextRange>::push_back
PUBLIC	??0ImGuiTextFilter@@QAE@PBD@Z			; ImGuiTextFilter::ImGuiTextFilter
PUBLIC	?Draw@ImGuiTextFilter@@QAE_NPBDM@Z		; ImGuiTextFilter::Draw
PUBLIC	?PassFilter@ImGuiTextFilter@@QBE_NPBD0@Z	; ImGuiTextFilter::PassFilter
PUBLIC	?Build@ImGuiTextFilter@@QAEXXZ			; ImGuiTextFilter::Build
PUBLIC	??0?$ImVector@D@@QAE@XZ				; ImVector<char>::ImVector<char>
PUBLIC	??1?$ImVector@D@@QAE@XZ				; ImVector<char>::~ImVector<char>
PUBLIC	??A?$ImVector@D@@QAEAADH@Z			; ImVector<char>::operator[]
PUBLIC	?clear@?$ImVector@D@@QAEXXZ			; ImVector<char>::clear
PUBLIC	?begin@?$ImVector@D@@QAEPADXZ			; ImVector<char>::begin
PUBLIC	?front@?$ImVector@D@@QBEABDXZ			; ImVector<char>::front
PUBLIC	?_grow_capacity@?$ImVector@D@@QAEHH@Z		; ImVector<char>::_grow_capacity
PUBLIC	?resize@?$ImVector@D@@QAEXH@Z			; ImVector<char>::resize
PUBLIC	?reserve@?$ImVector@D@@QAEXH@Z			; ImVector<char>::reserve
PUBLIC	?push_back@?$ImVector@D@@QAEXABD@Z		; ImVector<char>::push_back
PUBLIC	??0ImGuiTextBuffer@@QAE@XZ			; ImGuiTextBuffer::ImGuiTextBuffer
PUBLIC	?begin@ImGuiTextBuffer@@QBEPBDXZ		; ImGuiTextBuffer::begin
PUBLIC	?size@ImGuiTextBuffer@@QBEHXZ			; ImGuiTextBuffer::size
PUBLIC	?clear@ImGuiTextBuffer@@QAEXXZ			; ImGuiTextBuffer::clear
PUBLIC	?append@ImGuiTextBuffer@@QAAXPBDZZ		; ImGuiTextBuffer::append
PUBLIC	?appendv@ImGuiTextBuffer@@QAEXPBDPAD@Z		; ImGuiTextBuffer::appendv
PUBLIC	??1ImGuiTextBuffer@@QAE@XZ			; ImGuiTextBuffer::~ImGuiTextBuffer
PUBLIC	??_GImGuiTextBuffer@@QAEPAXI@Z			; ImGuiTextBuffer::`scalar deleting destructor'
PUBLIC	??0Pair@ImGuiStorage@@QAE@IH@Z			; ImGuiStorage::Pair::Pair
PUBLIC	??0Pair@ImGuiStorage@@QAE@IM@Z			; ImGuiStorage::Pair::Pair
PUBLIC	??0Pair@ImGuiStorage@@QAE@IPAX@Z		; ImGuiStorage::Pair::Pair
PUBLIC	??0?$ImVector@UPair@ImGuiStorage@@@@QAE@XZ	; ImVector<ImGuiStorage::Pair>::ImVector<ImGuiStorage::Pair>
PUBLIC	??1?$ImVector@UPair@ImGuiStorage@@@@QAE@XZ	; ImVector<ImGuiStorage::Pair>::~ImVector<ImGuiStorage::Pair>
PUBLIC	??A?$ImVector@UPair@ImGuiStorage@@@@QAEAAUPair@ImGuiStorage@@H@Z ; ImVector<ImGuiStorage::Pair>::operator[]
PUBLIC	?clear@?$ImVector@UPair@ImGuiStorage@@@@QAEXXZ	; ImVector<ImGuiStorage::Pair>::clear
PUBLIC	?begin@?$ImVector@UPair@ImGuiStorage@@@@QAEPAUPair@ImGuiStorage@@XZ ; ImVector<ImGuiStorage::Pair>::begin
PUBLIC	?end@?$ImVector@UPair@ImGuiStorage@@@@QAEPAUPair@ImGuiStorage@@XZ ; ImVector<ImGuiStorage::Pair>::end
PUBLIC	?end@?$ImVector@UPair@ImGuiStorage@@@@QBEPBUPair@ImGuiStorage@@XZ ; ImVector<ImGuiStorage::Pair>::end
PUBLIC	?reserve@?$ImVector@UPair@ImGuiStorage@@@@QAEXH@Z ; ImVector<ImGuiStorage::Pair>::reserve
PUBLIC	?insert@?$ImVector@UPair@ImGuiStorage@@@@QAEPAUPair@ImGuiStorage@@PBU23@ABU23@@Z ; ImVector<ImGuiStorage::Pair>::insert
PUBLIC	?Clear@ImGuiStorage@@QAEXXZ			; ImGuiStorage::Clear
PUBLIC	?GetInt@ImGuiStorage@@QBEHIH@Z			; ImGuiStorage::GetInt
PUBLIC	?SetInt@ImGuiStorage@@QAEXIH@Z			; ImGuiStorage::SetInt
PUBLIC	?GetBool@ImGuiStorage@@QBE_NI_N@Z		; ImGuiStorage::GetBool
PUBLIC	?SetBool@ImGuiStorage@@QAEXI_N@Z		; ImGuiStorage::SetBool
PUBLIC	?GetFloat@ImGuiStorage@@QBEMIM@Z		; ImGuiStorage::GetFloat
PUBLIC	?SetFloat@ImGuiStorage@@QAEXIM@Z		; ImGuiStorage::SetFloat
PUBLIC	?GetVoidPtr@ImGuiStorage@@QBEPAXI@Z		; ImGuiStorage::GetVoidPtr
PUBLIC	?SetVoidPtr@ImGuiStorage@@QAEXIPAX@Z		; ImGuiStorage::SetVoidPtr
PUBLIC	?GetIntRef@ImGuiStorage@@QAEPAHIH@Z		; ImGuiStorage::GetIntRef
PUBLIC	?GetBoolRef@ImGuiStorage@@QAEPA_NI_N@Z		; ImGuiStorage::GetBoolRef
PUBLIC	?GetFloatRef@ImGuiStorage@@QAEPAMIM@Z		; ImGuiStorage::GetFloatRef
PUBLIC	?GetVoidPtrRef@ImGuiStorage@@QAEPAPAXIPAX@Z	; ImGuiStorage::GetVoidPtrRef
PUBLIC	?SetAllInt@ImGuiStorage@@QAEXH@Z		; ImGuiStorage::SetAllInt
PUBLIC	??0ImGuiStorage@@QAE@XZ				; ImGuiStorage::ImGuiStorage
PUBLIC	??1ImGuiStorage@@QAE@XZ				; ImGuiStorage::~ImGuiStorage
PUBLIC	?DeleteChars@ImGuiTextEditCallbackData@@QAEXHH@Z ; ImGuiTextEditCallbackData::DeleteChars
PUBLIC	?InsertChars@ImGuiTextEditCallbackData@@QAEXHPBD0@Z ; ImGuiTextEditCallbackData::InsertChars
PUBLIC	??0ImGuiSizeConstraintCallbackData@@QAE@XZ	; ImGuiSizeConstraintCallbackData::ImGuiSizeConstraintCallbackData
PUBLIC	??0ImColor@@QAE@HHHH@Z				; ImColor::ImColor
PUBLIC	??0ImColor@@QAE@MMMM@Z				; ImColor::ImColor
PUBLIC	??BImColor@@QBEIXZ				; ImColor::operator unsigned int
PUBLIC	??BImColor@@QBE?AUImVec4@@XZ			; ImColor::operator ImVec4
PUBLIC	?HSV@ImColor@@SA?AU1@MMMM@Z			; ImColor::HSV
PUBLIC	??0ImGuiListClipper@@QAE@HM@Z			; ImGuiListClipper::ImGuiListClipper
PUBLIC	??1ImGuiListClipper@@QAE@XZ			; ImGuiListClipper::~ImGuiListClipper
PUBLIC	?Step@ImGuiListClipper@@QAE_NXZ			; ImGuiListClipper::Step
PUBLIC	?Begin@ImGuiListClipper@@QAEXHM@Z		; ImGuiListClipper::Begin
PUBLIC	?End@ImGuiListClipper@@QAEXXZ			; ImGuiListClipper::End
PUBLIC	??0?$ImVector@UImDrawCmd@@@@QAE@XZ		; ImVector<ImDrawCmd>::ImVector<ImDrawCmd>
PUBLIC	??1?$ImVector@UImDrawCmd@@@@QAE@XZ		; ImVector<ImDrawCmd>::~ImVector<ImDrawCmd>
PUBLIC	?empty@?$ImVector@UImDrawCmd@@@@QBE_NXZ		; ImVector<ImDrawCmd>::empty
PUBLIC	?begin@?$ImVector@UImDrawCmd@@@@QAEPAUImDrawCmd@@XZ ; ImVector<ImDrawCmd>::begin
PUBLIC	?end@?$ImVector@UImDrawCmd@@@@QAEPAUImDrawCmd@@XZ ; ImVector<ImDrawCmd>::end
PUBLIC	?back@?$ImVector@UImDrawCmd@@@@QAEAAUImDrawCmd@@XZ ; ImVector<ImDrawCmd>::back
PUBLIC	?pop_back@?$ImVector@UImDrawCmd@@@@QAEXXZ	; ImVector<ImDrawCmd>::pop_back
PUBLIC	??0?$ImVector@G@@QAE@XZ				; ImVector<unsigned short>::ImVector<unsigned short>
PUBLIC	??1?$ImVector@G@@QAE@XZ				; ImVector<unsigned short>::~ImVector<unsigned short>
PUBLIC	??A?$ImVector@G@@QAEAAGH@Z			; ImVector<unsigned short>::operator[]
PUBLIC	??A?$ImVector@G@@QBEABGH@Z			; ImVector<unsigned short>::operator[]
PUBLIC	?clear@?$ImVector@G@@QAEXXZ			; ImVector<unsigned short>::clear
PUBLIC	?_grow_capacity@?$ImVector@G@@QAEHH@Z		; ImVector<unsigned short>::_grow_capacity
PUBLIC	?resize@?$ImVector@G@@QAEXH@Z			; ImVector<unsigned short>::resize
PUBLIC	?reserve@?$ImVector@G@@QAEXH@Z			; ImVector<unsigned short>::reserve
PUBLIC	??0?$ImVector@UImDrawVert@@@@QAE@XZ		; ImVector<ImDrawVert>::ImVector<ImDrawVert>
PUBLIC	??1?$ImVector@UImDrawVert@@@@QAE@XZ		; ImVector<ImDrawVert>::~ImVector<ImDrawVert>
PUBLIC	?empty@?$ImVector@UImDrawVert@@@@QBE_NXZ	; ImVector<ImDrawVert>::empty
PUBLIC	??A?$ImVector@UImDrawVert@@@@QAEAAUImDrawVert@@H@Z ; ImVector<ImDrawVert>::operator[]
PUBLIC	??0?$ImVector@UImVec4@@@@QAE@XZ			; ImVector<ImVec4>::ImVector<ImVec4>
PUBLIC	??1?$ImVector@UImVec4@@@@QAE@XZ			; ImVector<ImVec4>::~ImVector<ImVec4>
PUBLIC	?back@?$ImVector@UImVec4@@@@QAEAAUImVec4@@XZ	; ImVector<ImVec4>::back
PUBLIC	??0?$ImVector@PAX@@QAE@XZ			; ImVector<void *>::ImVector<void *>
PUBLIC	??1?$ImVector@PAX@@QAE@XZ			; ImVector<void *>::~ImVector<void *>
PUBLIC	??0?$ImVector@UImVec2@@@@QAE@XZ			; ImVector<ImVec2>::ImVector<ImVec2>
PUBLIC	??1?$ImVector@UImVec2@@@@QAE@XZ			; ImVector<ImVec2>::~ImVector<ImVec2>
PUBLIC	?_grow_capacity@?$ImVector@UImVec2@@@@QAEHH@Z	; ImVector<ImVec2>::_grow_capacity
PUBLIC	?resize@?$ImVector@UImVec2@@@@QAEXH@Z		; ImVector<ImVec2>::resize
PUBLIC	?reserve@?$ImVector@UImVec2@@@@QAEXH@Z		; ImVector<ImVec2>::reserve
PUBLIC	?push_back@?$ImVector@UImVec2@@@@QAEXABUImVec2@@@Z ; ImVector<ImVec2>::push_back
PUBLIC	??0?$ImVector@UImDrawChannel@@@@QAE@XZ		; ImVector<ImDrawChannel>::ImVector<ImDrawChannel>
PUBLIC	??1?$ImVector@UImDrawChannel@@@@QAE@XZ		; ImVector<ImDrawChannel>::~ImVector<ImDrawChannel>
PUBLIC	??0ImDrawList@@QAE@XZ				; ImDrawList::ImDrawList
PUBLIC	??1ImDrawList@@QAE@XZ				; ImDrawList::~ImDrawList
PUBLIC	?PathClear@ImDrawList@@QAEXXZ			; ImDrawList::PathClear
PUBLIC	?PathLineTo@ImDrawList@@QAEXABUImVec2@@@Z	; ImDrawList::PathLineTo
PUBLIC	?PathFill@ImDrawList@@QAEXI@Z			; ImDrawList::PathFill
PUBLIC	?PathStroke@ImDrawList@@QAEXI_NM@Z		; ImDrawList::PathStroke
PUBLIC	??_GImDrawList@@QAEPAXI@Z			; ImDrawList::`scalar deleting destructor'
PUBLIC	??0ImDrawData@@QAE@XZ				; ImDrawData::ImDrawData
PUBLIC	??0?$ImVector@PAUImFont@@@@QAE@XZ		; ImVector<ImFont *>::ImVector<ImFont *>
PUBLIC	??1?$ImVector@PAUImFont@@@@QAE@XZ		; ImVector<ImFont *>::~ImVector<ImFont *>
PUBLIC	?empty@?$ImVector@PAUImFont@@@@QBE_NXZ		; ImVector<ImFont *>::empty
PUBLIC	??A?$ImVector@PAUImFont@@@@QAEAAPAUImFont@@H@Z	; ImVector<ImFont *>::operator[]
PUBLIC	?clear@?$ImVector@PAUImFont@@@@QAEXXZ		; ImVector<ImFont *>::clear
PUBLIC	?back@?$ImVector@PAUImFont@@@@QAEAAPAUImFont@@XZ ; ImVector<ImFont *>::back
PUBLIC	?_grow_capacity@?$ImVector@PAUImFont@@@@QAEHH@Z	; ImVector<ImFont *>::_grow_capacity
PUBLIC	?reserve@?$ImVector@PAUImFont@@@@QAEXH@Z	; ImVector<ImFont *>::reserve
PUBLIC	?push_back@?$ImVector@PAUImFont@@@@QAEXABQAUImFont@@@Z ; ImVector<ImFont *>::push_back
PUBLIC	?pop_back@?$ImVector@PAUImFont@@@@QAEXXZ	; ImVector<ImFont *>::pop_back
PUBLIC	??0?$ImVector@M@@QAE@XZ				; ImVector<float>::ImVector<float>
PUBLIC	??1?$ImVector@M@@QAE@XZ				; ImVector<float>::~ImVector<float>
PUBLIC	?empty@?$ImVector@M@@QBE_NXZ			; ImVector<float>::empty
PUBLIC	??A?$ImVector@M@@QBEABMH@Z			; ImVector<float>::operator[]
PUBLIC	?back@?$ImVector@M@@QAEAAMXZ			; ImVector<float>::back
PUBLIC	?_grow_capacity@?$ImVector@M@@QAEHH@Z		; ImVector<float>::_grow_capacity
PUBLIC	?resize@?$ImVector@M@@QAEXH@Z			; ImVector<float>::resize
PUBLIC	?reserve@?$ImVector@M@@QAEXH@Z			; ImVector<float>::reserve
PUBLIC	?push_back@?$ImVector@M@@QAEXABM@Z		; ImVector<float>::push_back
PUBLIC	?pop_back@?$ImVector@M@@QAEXXZ			; ImVector<float>::pop_back
PUBLIC	?GetCharAdvance@ImFont@@QBEMG@Z			; ImFont::GetCharAdvance
PUBLIC	_fabsf
PUBLIC	_fmodf
PUBLIC	_powf
PUBLIC	_sqrtf
PUBLIC	?ImTextStrToUtf8@@YAHPADHPBG1@Z			; ImTextStrToUtf8
PUBLIC	?ImTextCharFromUtf8@@YAHPAIPBD1@Z		; ImTextCharFromUtf8
PUBLIC	?ImTextStrFromUtf8@@YAHPAGHPBD1PAPBD@Z		; ImTextStrFromUtf8
PUBLIC	?ImTextCountCharsFromUtf8@@YAHPBD0@Z		; ImTextCountCharsFromUtf8
PUBLIC	?ImTextCountUtf8BytesFromStr@@YAHPBG0@Z		; ImTextCountUtf8BytesFromStr
PUBLIC	?ImHash@@YAIPBXHI@Z				; ImHash
PUBLIC	?ImFileLoadToMemory@@YAPAXPBD0PAHH@Z		; ImFileLoadToMemory
PUBLIC	?ImFileOpen@@YAPAU_iobuf@@PBD0@Z		; ImFileOpen
PUBLIC	?ImIsPointInTriangle@@YA_NABUImVec2@@000@Z	; ImIsPointInTriangle
PUBLIC	?ImStricmp@@YAHPBD0@Z				; ImStricmp
PUBLIC	?ImStrnicmp@@YAHPBD0H@Z				; ImStrnicmp
PUBLIC	?ImStrdup@@YAPADPBD@Z				; ImStrdup
PUBLIC	?ImStrlenW@@YAHPBG@Z				; ImStrlenW
PUBLIC	?ImStrbolW@@YAPBGPBG0@Z				; ImStrbolW
PUBLIC	?ImStristr@@YAPBDPBD000@Z			; ImStristr
PUBLIC	?ImFormatString@@YAHPADHPBDZZ			; ImFormatString
PUBLIC	?ImFormatStringV@@YAHPADHPBD0@Z			; ImFormatStringV
PUBLIC	??2@YAPAXIUImPlacementNewDummy@@PAX@Z		; operator new
PUBLIC	??3@YAXPAXUImPlacementNewDummy@@0@Z		; operator delete
PUBLIC	??0ImRect@@QAE@XZ				; ImRect::ImRect
PUBLIC	??0ImRect@@QAE@ABUImVec2@@0@Z			; ImRect::ImRect
PUBLIC	??0ImRect@@QAE@ABUImVec4@@@Z			; ImRect::ImRect
PUBLIC	??0ImRect@@QAE@MMMM@Z				; ImRect::ImRect
PUBLIC	?GetCenter@ImRect@@QBE?AUImVec2@@XZ		; ImRect::GetCenter
PUBLIC	?GetSize@ImRect@@QBE?AUImVec2@@XZ		; ImRect::GetSize
PUBLIC	?GetWidth@ImRect@@QBEMXZ			; ImRect::GetWidth
PUBLIC	?GetHeight@ImRect@@QBEMXZ			; ImRect::GetHeight
PUBLIC	?GetTL@ImRect@@QBE?AUImVec2@@XZ			; ImRect::GetTL
PUBLIC	?GetTR@ImRect@@QBE?AUImVec2@@XZ			; ImRect::GetTR
PUBLIC	?GetBL@ImRect@@QBE?AUImVec2@@XZ			; ImRect::GetBL
PUBLIC	?GetBR@ImRect@@QBE?AUImVec2@@XZ			; ImRect::GetBR
PUBLIC	?Contains@ImRect@@QBE_NABUImVec2@@@Z		; ImRect::Contains
PUBLIC	?Contains@ImRect@@QBE_NABU1@@Z			; ImRect::Contains
PUBLIC	?Overlaps@ImRect@@QBE_NABU1@@Z			; ImRect::Overlaps
PUBLIC	?Add@ImRect@@QAEXABUImVec2@@@Z			; ImRect::Add
PUBLIC	?Add@ImRect@@QAEXABU1@@Z			; ImRect::Add
PUBLIC	?Expand@ImRect@@QAEXM@Z				; ImRect::Expand
PUBLIC	?Expand@ImRect@@QAEXABUImVec2@@@Z		; ImRect::Expand
PUBLIC	?Translate@ImRect@@QAEXABUImVec2@@@Z		; ImRect::Translate
PUBLIC	?Clip@ImRect@@QBEXAAU1@@Z			; ImRect::Clip
PUBLIC	?Floor@ImRect@@QAEXXZ				; ImRect::Floor
PUBLIC	?GetClosestPoint@ImRect@@QBE?AUImVec2@@U2@_N@Z	; ImRect::GetClosestPoint
PUBLIC	??4ImRect@@QAEAAU0@ABU0@@Z			; ImRect::operator=
PUBLIC	??4ImRect@@QAEAAU0@$$QAU0@@Z			; ImRect::operator=
PUBLIC	??0ImGuiColMod@@QAE@XZ				; ImGuiColMod::ImGuiColMod
PUBLIC	??0ImGuiStyleMod@@QAE@HM@Z			; ImGuiStyleMod::ImGuiStyleMod
PUBLIC	??0ImGuiStyleMod@@QAE@HUImVec2@@@Z		; ImGuiStyleMod::ImGuiStyleMod
PUBLIC	??0ImGuiSimpleColumns@@QAE@XZ			; ImGuiSimpleColumns::ImGuiSimpleColumns
PUBLIC	?Update@ImGuiSimpleColumns@@QAEXHM_N@Z		; ImGuiSimpleColumns::Update
PUBLIC	?DeclColumns@ImGuiSimpleColumns@@QAEMMMM@Z	; ImGuiSimpleColumns::DeclColumns
PUBLIC	?CalcExtraSpace@ImGuiSimpleColumns@@QAEMM@Z	; ImGuiSimpleColumns::CalcExtraSpace
PUBLIC	??4ImGuiSimpleColumns@@QAEAAU0@ABU0@@Z		; ImGuiSimpleColumns::operator=
PUBLIC	??4ImGuiSimpleColumns@@QAEAAU0@$$QAU0@@Z	; ImGuiSimpleColumns::operator=
PUBLIC	??0ImGuiTextEditState@@QAE@XZ			; ImGuiTextEditState::ImGuiTextEditState
PUBLIC	?CursorAnimReset@ImGuiTextEditState@@QAEXXZ	; ImGuiTextEditState::CursorAnimReset
PUBLIC	?CursorClamp@ImGuiTextEditState@@QAEXXZ		; ImGuiTextEditState::CursorClamp
PUBLIC	?HasSelection@ImGuiTextEditState@@QBE_NXZ	; ImGuiTextEditState::HasSelection
PUBLIC	?ClearSelection@ImGuiTextEditState@@QAEXXZ	; ImGuiTextEditState::ClearSelection
PUBLIC	?SelectAll@ImGuiTextEditState@@QAEXXZ		; ImGuiTextEditState::SelectAll
PUBLIC	?OnKeyPressed@ImGuiTextEditState@@QAEXH@Z	; ImGuiTextEditState::OnKeyPressed
PUBLIC	??1ImGuiTextEditState@@QAE@XZ			; ImGuiTextEditState::~ImGuiTextEditState
PUBLIC	??4ImGuiTextEditState@@QAEAAU0@ABU0@@Z		; ImGuiTextEditState::operator=
PUBLIC	??4ImGuiTextEditState@@QAEAAU0@$$QAU0@@Z	; ImGuiTextEditState::operator=
PUBLIC	??0ImGuiMouseCursorData@@QAE@XZ			; ImGuiMouseCursorData::ImGuiMouseCursorData
PUBLIC	??0ImGuiPopupRef@@QAE@IPAUImGuiWindow@@IABUImVec2@@1@Z ; ImGuiPopupRef::ImGuiPopupRef
PUBLIC	??0?$ImVector@PAUImGuiWindow@@@@QAE@XZ		; ImVector<ImGuiWindow *>::ImVector<ImGuiWindow *>
PUBLIC	??1?$ImVector@PAUImGuiWindow@@@@QAE@XZ		; ImVector<ImGuiWindow *>::~ImVector<ImGuiWindow *>
PUBLIC	?empty@?$ImVector@PAUImGuiWindow@@@@QBE_NXZ	; ImVector<ImGuiWindow *>::empty
PUBLIC	??A?$ImVector@PAUImGuiWindow@@@@QAEAAPAUImGuiWindow@@H@Z ; ImVector<ImGuiWindow *>::operator[]
PUBLIC	?clear@?$ImVector@PAUImGuiWindow@@@@QAEXXZ	; ImVector<ImGuiWindow *>::clear
PUBLIC	?begin@?$ImVector@PAUImGuiWindow@@@@QAEPAPAUImGuiWindow@@XZ ; ImVector<ImGuiWindow *>::begin
PUBLIC	?back@?$ImVector@PAUImGuiWindow@@@@QAEAAPAUImGuiWindow@@XZ ; ImVector<ImGuiWindow *>::back
PUBLIC	?swap@?$ImVector@PAUImGuiWindow@@@@QAEXAAV1@@Z	; ImVector<ImGuiWindow *>::swap
PUBLIC	?_grow_capacity@?$ImVector@PAUImGuiWindow@@@@QAEHH@Z ; ImVector<ImGuiWindow *>::_grow_capacity
PUBLIC	?resize@?$ImVector@PAUImGuiWindow@@@@QAEXH@Z	; ImVector<ImGuiWindow *>::resize
PUBLIC	?reserve@?$ImVector@PAUImGuiWindow@@@@QAEXH@Z	; ImVector<ImGuiWindow *>::reserve
PUBLIC	?push_back@?$ImVector@PAUImGuiWindow@@@@QAEXABQAUImGuiWindow@@@Z ; ImVector<ImGuiWindow *>::push_back
PUBLIC	?pop_back@?$ImVector@PAUImGuiWindow@@@@QAEXXZ	; ImVector<ImGuiWindow *>::pop_back
PUBLIC	?erase@?$ImVector@PAUImGuiWindow@@@@QAEPAPAUImGuiWindow@@PBQAU2@@Z ; ImVector<ImGuiWindow *>::erase
PUBLIC	?insert@?$ImVector@PAUImGuiWindow@@@@QAEPAPAUImGuiWindow@@PBQAU2@ABQAU2@@Z ; ImVector<ImGuiWindow *>::insert
PUBLIC	??0?$ImVector@UImGuiIniData@@@@QAE@XZ		; ImVector<ImGuiIniData>::ImVector<ImGuiIniData>
PUBLIC	??1?$ImVector@UImGuiIniData@@@@QAE@XZ		; ImVector<ImGuiIniData>::~ImVector<ImGuiIniData>
PUBLIC	??A?$ImVector@UImGuiIniData@@@@QAEAAUImGuiIniData@@H@Z ; ImVector<ImGuiIniData>::operator[]
PUBLIC	?clear@?$ImVector@UImGuiIniData@@@@QAEXXZ	; ImVector<ImGuiIniData>::clear
PUBLIC	?back@?$ImVector@UImGuiIniData@@@@QAEAAUImGuiIniData@@XZ ; ImVector<ImGuiIniData>::back
PUBLIC	?_grow_capacity@?$ImVector@UImGuiIniData@@@@QAEHH@Z ; ImVector<ImGuiIniData>::_grow_capacity
PUBLIC	?resize@?$ImVector@UImGuiIniData@@@@QAEXH@Z	; ImVector<ImGuiIniData>::resize
PUBLIC	?reserve@?$ImVector@UImGuiIniData@@@@QAEXH@Z	; ImVector<ImGuiIniData>::reserve
PUBLIC	??0?$ImVector@UImGuiColMod@@@@QAE@XZ		; ImVector<ImGuiColMod>::ImVector<ImGuiColMod>
PUBLIC	??1?$ImVector@UImGuiColMod@@@@QAE@XZ		; ImVector<ImGuiColMod>::~ImVector<ImGuiColMod>
PUBLIC	?clear@?$ImVector@UImGuiColMod@@@@QAEXXZ	; ImVector<ImGuiColMod>::clear
PUBLIC	?back@?$ImVector@UImGuiColMod@@@@QAEAAUImGuiColMod@@XZ ; ImVector<ImGuiColMod>::back
PUBLIC	?_grow_capacity@?$ImVector@UImGuiColMod@@@@QAEHH@Z ; ImVector<ImGuiColMod>::_grow_capacity
PUBLIC	?reserve@?$ImVector@UImGuiColMod@@@@QAEXH@Z	; ImVector<ImGuiColMod>::reserve
PUBLIC	?push_back@?$ImVector@UImGuiColMod@@@@QAEXABUImGuiColMod@@@Z ; ImVector<ImGuiColMod>::push_back
PUBLIC	?pop_back@?$ImVector@UImGuiColMod@@@@QAEXXZ	; ImVector<ImGuiColMod>::pop_back
PUBLIC	??0?$ImVector@UImGuiStyleMod@@@@QAE@XZ		; ImVector<ImGuiStyleMod>::ImVector<ImGuiStyleMod>
PUBLIC	??1?$ImVector@UImGuiStyleMod@@@@QAE@XZ		; ImVector<ImGuiStyleMod>::~ImVector<ImGuiStyleMod>
PUBLIC	?clear@?$ImVector@UImGuiStyleMod@@@@QAEXXZ	; ImVector<ImGuiStyleMod>::clear
PUBLIC	?back@?$ImVector@UImGuiStyleMod@@@@QAEAAUImGuiStyleMod@@XZ ; ImVector<ImGuiStyleMod>::back
PUBLIC	?_grow_capacity@?$ImVector@UImGuiStyleMod@@@@QAEHH@Z ; ImVector<ImGuiStyleMod>::_grow_capacity
PUBLIC	?reserve@?$ImVector@UImGuiStyleMod@@@@QAEXH@Z	; ImVector<ImGuiStyleMod>::reserve
PUBLIC	?push_back@?$ImVector@UImGuiStyleMod@@@@QAEXABUImGuiStyleMod@@@Z ; ImVector<ImGuiStyleMod>::push_back
PUBLIC	?pop_back@?$ImVector@UImGuiStyleMod@@@@QAEXXZ	; ImVector<ImGuiStyleMod>::pop_back
PUBLIC	??0?$ImVector@UImGuiPopupRef@@@@QAE@XZ		; ImVector<ImGuiPopupRef>::ImVector<ImGuiPopupRef>
PUBLIC	??1?$ImVector@UImGuiPopupRef@@@@QAE@XZ		; ImVector<ImGuiPopupRef>::~ImVector<ImGuiPopupRef>
PUBLIC	?empty@?$ImVector@UImGuiPopupRef@@@@QBE_NXZ	; ImVector<ImGuiPopupRef>::empty
PUBLIC	??A?$ImVector@UImGuiPopupRef@@@@QAEAAUImGuiPopupRef@@H@Z ; ImVector<ImGuiPopupRef>::operator[]
PUBLIC	?clear@?$ImVector@UImGuiPopupRef@@@@QAEXXZ	; ImVector<ImGuiPopupRef>::clear
PUBLIC	?back@?$ImVector@UImGuiPopupRef@@@@QAEAAUImGuiPopupRef@@XZ ; ImVector<ImGuiPopupRef>::back
PUBLIC	?_grow_capacity@?$ImVector@UImGuiPopupRef@@@@QAEHH@Z ; ImVector<ImGuiPopupRef>::_grow_capacity
PUBLIC	?resize@?$ImVector@UImGuiPopupRef@@@@QAEXH@Z	; ImVector<ImGuiPopupRef>::resize
PUBLIC	?reserve@?$ImVector@UImGuiPopupRef@@@@QAEXH@Z	; ImVector<ImGuiPopupRef>::reserve
PUBLIC	?push_back@?$ImVector@UImGuiPopupRef@@@@QAEXABUImGuiPopupRef@@@Z ; ImVector<ImGuiPopupRef>::push_back
PUBLIC	?pop_back@?$ImVector@UImGuiPopupRef@@@@QAEXXZ	; ImVector<ImGuiPopupRef>::pop_back
PUBLIC	??0?$ImVector@PAUImDrawList@@@@QAE@XZ		; ImVector<ImDrawList *>::ImVector<ImDrawList *>
PUBLIC	??1?$ImVector@PAUImDrawList@@@@QAE@XZ		; ImVector<ImDrawList *>::~ImVector<ImDrawList *>
PUBLIC	?empty@?$ImVector@PAUImDrawList@@@@QBE_NXZ	; ImVector<ImDrawList *>::empty
PUBLIC	??A?$ImVector@PAUImDrawList@@@@QAEAAPAUImDrawList@@H@Z ; ImVector<ImDrawList *>::operator[]
PUBLIC	?clear@?$ImVector@PAUImDrawList@@@@QAEXXZ	; ImVector<ImDrawList *>::clear
PUBLIC	?_grow_capacity@?$ImVector@PAUImDrawList@@@@QAEHH@Z ; ImVector<ImDrawList *>::_grow_capacity
PUBLIC	?resize@?$ImVector@PAUImDrawList@@@@QAEXH@Z	; ImVector<ImDrawList *>::resize
PUBLIC	?reserve@?$ImVector@PAUImDrawList@@@@QAEXH@Z	; ImVector<ImDrawList *>::reserve
PUBLIC	?push_back@?$ImVector@PAUImDrawList@@@@QAEXABQAUImDrawList@@@Z ; ImVector<ImDrawList *>::push_back
PUBLIC	??0ImGuiContext@@QAE@XZ				; ImGuiContext::ImGuiContext
PUBLIC	??1ImGuiContext@@QAE@XZ				; ImGuiContext::~ImGuiContext
PUBLIC	??_GImGuiContext@@QAEPAXI@Z			; ImGuiContext::`scalar deleting destructor'
PUBLIC	??0?$ImVector@H@@QAE@XZ				; ImVector<int>::ImVector<int>
PUBLIC	??1?$ImVector@H@@QAE@XZ				; ImVector<int>::~ImVector<int>
PUBLIC	?empty@?$ImVector@H@@QBE_NXZ			; ImVector<int>::empty
PUBLIC	?back@?$ImVector@H@@QAEAAHXZ			; ImVector<int>::back
PUBLIC	?_grow_capacity@?$ImVector@H@@QAEHH@Z		; ImVector<int>::_grow_capacity
PUBLIC	?resize@?$ImVector@H@@QAEXH@Z			; ImVector<int>::resize
PUBLIC	?reserve@?$ImVector@H@@QAEXH@Z			; ImVector<int>::reserve
PUBLIC	?push_back@?$ImVector@H@@QAEXABH@Z		; ImVector<int>::push_back
PUBLIC	?pop_back@?$ImVector@H@@QAEXXZ			; ImVector<int>::pop_back
PUBLIC	??0?$ImVector@UImGuiGroupData@@@@QAE@XZ		; ImVector<ImGuiGroupData>::ImVector<ImGuiGroupData>
PUBLIC	??1?$ImVector@UImGuiGroupData@@@@QAE@XZ		; ImVector<ImGuiGroupData>::~ImVector<ImGuiGroupData>
PUBLIC	?empty@?$ImVector@UImGuiGroupData@@@@QBE_NXZ	; ImVector<ImGuiGroupData>::empty
PUBLIC	?back@?$ImVector@UImGuiGroupData@@@@QAEAAUImGuiGroupData@@XZ ; ImVector<ImGuiGroupData>::back
PUBLIC	?_grow_capacity@?$ImVector@UImGuiGroupData@@@@QAEHH@Z ; ImVector<ImGuiGroupData>::_grow_capacity
PUBLIC	?resize@?$ImVector@UImGuiGroupData@@@@QAEXH@Z	; ImVector<ImGuiGroupData>::resize
PUBLIC	?reserve@?$ImVector@UImGuiGroupData@@@@QAEXH@Z	; ImVector<ImGuiGroupData>::reserve
PUBLIC	?pop_back@?$ImVector@UImGuiGroupData@@@@QAEXXZ	; ImVector<ImGuiGroupData>::pop_back
PUBLIC	??0?$ImVector@UImGuiColumnData@@@@QAE@XZ	; ImVector<ImGuiColumnData>::ImVector<ImGuiColumnData>
PUBLIC	??1?$ImVector@UImGuiColumnData@@@@QAE@XZ	; ImVector<ImGuiColumnData>::~ImVector<ImGuiColumnData>
PUBLIC	??A?$ImVector@UImGuiColumnData@@@@QAEAAUImGuiColumnData@@H@Z ; ImVector<ImGuiColumnData>::operator[]
PUBLIC	?_grow_capacity@?$ImVector@UImGuiColumnData@@@@QAEHH@Z ; ImVector<ImGuiColumnData>::_grow_capacity
PUBLIC	?resize@?$ImVector@UImGuiColumnData@@@@QAEXH@Z	; ImVector<ImGuiColumnData>::resize
PUBLIC	?reserve@?$ImVector@UImGuiColumnData@@@@QAEXH@Z	; ImVector<ImGuiColumnData>::reserve
PUBLIC	??0ImGuiDrawContext@@QAE@XZ			; ImGuiDrawContext::ImGuiDrawContext
PUBLIC	??1ImGuiDrawContext@@QAE@XZ			; ImGuiDrawContext::~ImGuiDrawContext
PUBLIC	??4ImGuiDrawContext@@QAEAAU0@ABU0@@Z		; ImGuiDrawContext::operator=
PUBLIC	??4ImGuiDrawContext@@QAEAAU0@$$QAU0@@Z		; ImGuiDrawContext::operator=
PUBLIC	??0?$ImVector@I@@QAE@XZ				; ImVector<unsigned int>::ImVector<unsigned int>
PUBLIC	??1?$ImVector@I@@QAE@XZ				; ImVector<unsigned int>::~ImVector<unsigned int>
PUBLIC	??A?$ImVector@I@@QAEAAIH@Z			; ImVector<unsigned int>::operator[]
PUBLIC	?back@?$ImVector@I@@QAEAAIXZ			; ImVector<unsigned int>::back
PUBLIC	?_grow_capacity@?$ImVector@I@@QAEHH@Z		; ImVector<unsigned int>::_grow_capacity
PUBLIC	?resize@?$ImVector@I@@QAEXH@Z			; ImVector<unsigned int>::resize
PUBLIC	?reserve@?$ImVector@I@@QAEXH@Z			; ImVector<unsigned int>::reserve
PUBLIC	?push_back@?$ImVector@I@@QAEXABI@Z		; ImVector<unsigned int>::push_back
PUBLIC	?pop_back@?$ImVector@I@@QAEXXZ			; ImVector<unsigned int>::pop_back
PUBLIC	??0ImGuiWindow@@QAE@PBD@Z			; ImGuiWindow::ImGuiWindow
PUBLIC	??1ImGuiWindow@@QAE@XZ				; ImGuiWindow::~ImGuiWindow
PUBLIC	?GetID@ImGuiWindow@@QAEIPBD0@Z			; ImGuiWindow::GetID
PUBLIC	?GetID@ImGuiWindow@@QAEIPBX@Z			; ImGuiWindow::GetID
PUBLIC	?GetIDNoKeepAlive@ImGuiWindow@@QAEIPBD0@Z	; ImGuiWindow::GetIDNoKeepAlive
PUBLIC	?GetChildID@ImGuiWindow@@QAEIPAU1@@Z		; ImGuiWindow::GetChildID
PUBLIC	?Rect@ImGuiWindow@@QBE?AUImRect@@XZ		; ImGuiWindow::Rect
PUBLIC	?CalcFontSize@ImGuiWindow@@QBEMXZ		; ImGuiWindow::CalcFontSize
PUBLIC	?TitleBarHeight@ImGuiWindow@@QBEMXZ		; ImGuiWindow::TitleBarHeight
PUBLIC	?TitleBarRect@ImGuiWindow@@QBE?AUImRect@@XZ	; ImGuiWindow::TitleBarRect
PUBLIC	?MenuBarHeight@ImGuiWindow@@QBEMXZ		; ImGuiWindow::MenuBarHeight
PUBLIC	?MenuBarRect@ImGuiWindow@@QBE?AUImRect@@XZ	; ImGuiWindow::MenuBarRect
PUBLIC	??4ImGuiWindow@@QAEAAU0@ABU0@@Z			; ImGuiWindow::operator=
PUBLIC	??_GImGuiWindow@@QAEPAXI@Z			; ImGuiWindow::`scalar deleting destructor'
PUBLIC	?GetCurrentWindowRead@ImGui@@YAPAUImGuiWindow@@XZ ; ImGui::GetCurrentWindowRead
PUBLIC	?GetCurrentWindow@ImGui@@YAPAUImGuiWindow@@XZ	; ImGui::GetCurrentWindow
PUBLIC	?GetParentWindow@ImGui@@YAPAUImGuiWindow@@XZ	; ImGui::GetParentWindow
PUBLIC	?FindWindowByName@ImGui@@YAPAUImGuiWindow@@PBD@Z ; ImGui::FindWindowByName
PUBLIC	?FocusWindow@ImGui@@YAXPAUImGuiWindow@@@Z	; ImGui::FocusWindow
PUBLIC	?EndFrame@ImGui@@YAXXZ				; ImGui::EndFrame
PUBLIC	?SetActiveID@ImGui@@YAXIPAUImGuiWindow@@@Z	; ImGui::SetActiveID
PUBLIC	?SetActiveIDNoNav@ImGui@@YAXIPAUImGuiWindow@@@Z	; ImGui::SetActiveIDNoNav
PUBLIC	?ClearActiveID@ImGui@@YAXXZ			; ImGui::ClearActiveID
PUBLIC	?SetHoveredID@ImGui@@YAXI@Z			; ImGui::SetHoveredID
PUBLIC	?KeepAliveID@ImGui@@YAXI@Z			; ImGui::KeepAliveID
PUBLIC	?ItemSize@ImGui@@YAXABUImVec2@@M@Z		; ImGui::ItemSize
PUBLIC	?ItemSize@ImGui@@YAXABUImRect@@M@Z		; ImGui::ItemSize
PUBLIC	?ItemAdd@ImGui@@YA_NABUImRect@@PBIPBU2@@Z	; ImGui::ItemAdd
PUBLIC	?IsClippedEx@ImGui@@YA_NABUImRect@@PBI_N@Z	; ImGui::IsClippedEx
PUBLIC	?IsHovered@ImGui@@YA_NABUImRect@@I_N@Z		; ImGui::IsHovered
PUBLIC	?FocusableItemRegister@ImGui@@YA_NPAUImGuiWindow@@I_N@Z ; ImGui::FocusableItemRegister
PUBLIC	?FocusableItemUnregister@ImGui@@YAXPAUImGuiWindow@@@Z ; ImGui::FocusableItemUnregister
PUBLIC	?CalcItemSize@ImGui@@YA?AUImVec2@@U2@MM@Z	; ImGui::CalcItemSize
PUBLIC	?CalcWrapWidthForPos@ImGui@@YAMABUImVec2@@M@Z	; ImGui::CalcWrapWidthForPos
PUBLIC	?PushItemFlag@ImGui@@YAXH_N@Z			; ImGui::PushItemFlag
PUBLIC	?PopItemFlag@ImGui@@YAXXZ			; ImGui::PopItemFlag
PUBLIC	?OpenPopupEx@ImGui@@YAXPBD_N@Z			; ImGui::OpenPopupEx
PUBLIC	?CalcTypematicPressedRepeatAmount@ImGui@@YAHMMMM@Z ; ImGui::CalcTypematicPressedRepeatAmount
PUBLIC	?RenderText@ImGui@@YAXUImVec2@@PBD1_N@Z		; ImGui::RenderText
PUBLIC	?RenderTextWrapped@ImGui@@YAXUImVec2@@PBD1M@Z	; ImGui::RenderTextWrapped
PUBLIC	?RenderTextClipped@ImGui@@YAXABUImVec2@@0PBD1PBU2@0PBUImRect@@@Z ; ImGui::RenderTextClipped
PUBLIC	?RenderFrame@ImGui@@YAXUImVec2@@0I_NM@Z		; ImGui::RenderFrame
PUBLIC	?RenderCollapseTriangle@ImGui@@YAXUImVec2@@_NM@Z ; ImGui::RenderCollapseTriangle
PUBLIC	?RenderBullet@ImGui@@YAXUImVec2@@@Z		; ImGui::RenderBullet
PUBLIC	?RenderCheckMark@ImGui@@YAXUImVec2@@I@Z		; ImGui::RenderCheckMark
PUBLIC	?RenderNavHighlight@ImGui@@YAXABUImRect@@I@Z	; ImGui::RenderNavHighlight
PUBLIC	?FindRenderedTextEnd@ImGui@@YAPBDPBD0@Z		; ImGui::FindRenderedTextEnd
PUBLIC	?ButtonBehavior@ImGui@@YA_NABUImRect@@IPA_N1H@Z	; ImGui::ButtonBehavior
PUBLIC	?ButtonEx@ImGui@@YA_NPBDABUImVec2@@H@Z		; ImGui::ButtonEx
PUBLIC	?CloseButton@ImGui@@YA_NIABUImVec2@@M@Z		; ImGui::CloseButton
PUBLIC	?SliderBehavior@ImGui@@YA_NABUImRect@@IPAMMMMHH@Z ; ImGui::SliderBehavior
PUBLIC	?SliderFloatN@ImGui@@YA_NPBDPAMHMM0M@Z		; ImGui::SliderFloatN
PUBLIC	?SliderIntN@ImGui@@YA_NPBDPAHHHH0@Z		; ImGui::SliderIntN
PUBLIC	?DragBehavior@ImGui@@YA_NABUImRect@@IPAMMMMHM@Z	; ImGui::DragBehavior
PUBLIC	?DragFloatN@ImGui@@YA_NPBDPAMHMMM0M@Z		; ImGui::DragFloatN
PUBLIC	?DragIntN@ImGui@@YA_NPBDPAHHMHH0@Z		; ImGui::DragIntN
PUBLIC	?InputTextEx@ImGui@@YA_NPBDPADHABUImVec2@@HP6AHPAUImGuiTextEditCallbackData@@@ZPAX@Z ; ImGui::InputTextEx
PUBLIC	?InputFloatN@ImGui@@YA_NPBDPAMHHH@Z		; ImGui::InputFloatN
PUBLIC	?InputIntN@ImGui@@YA_NPBDPAHHH@Z		; ImGui::InputIntN
PUBLIC	?InputScalarEx@ImGui@@YA_NPBDW4ImGuiDataType@@PAX220H@Z ; ImGui::InputScalarEx
PUBLIC	?InputScalarAsWidgetReplacement@ImGui@@YA_NABUImRect@@PBDW4ImGuiDataType@@PAXIH@Z ; ImGui::InputScalarAsWidgetReplacement
PUBLIC	?TreeNodeBehavior@ImGui@@YA_NIHPBD0@Z		; ImGui::TreeNodeBehavior
PUBLIC	?TreeNodeBehaviorIsOpen@ImGui@@YA_NIH@Z		; ImGui::TreeNodeBehaviorIsOpen
PUBLIC	?TreePushRawID@ImGui@@YAXI@Z			; ImGui::TreePushRawID
PUBLIC	?PlotEx@ImGui@@YAXW4ImGuiPlotType@@PBDP6AMPAXH@Z2HH1MMUImVec2@@@Z ; ImGui::PlotEx
PUBLIC	?PlotCEx@ImGui@@YAXW4ImGuiPlotType@@PBDP6AMPAXH@Z2HH1MMUImVec2@@MMM_N@Z ; ImGui::PlotCEx
PUBLIC	?ParseFormatPrecision@ImGui@@YAHPBDH@Z		; ImGui::ParseFormatPrecision
PUBLIC	?RoundScalar@ImGui@@YAMMH@Z			; ImGui::RoundScalar
PUBLIC	?abs@@YAJJ@Z					; abs
PUBLIC	?sqrt@@YAMM@Z					; sqrt
PUBLIC	?min@?$numeric_limits@M@std@@SAMXZ		; std::numeric_limits<float>::min
PUBLIC	?max@?$numeric_limits@M@std@@SAMXZ		; std::numeric_limits<float>::max
PUBLIC	?ImStrncpy@@YAXPADPBDH@Z			; ImStrncpy
PUBLIC	??$__vcrt_va_start_verify_argument_type@PBD@@YAXXZ ; __vcrt_va_start_verify_argument_type<char const *>
PUBLIC	?_InterlockedCompareExchange@@YAKPCKKK@Z	; _InterlockedCompareExchange
PUBLIC	??2@YAPAXIPAX@Z					; operator new
PUBLIC	?assign@?$char_traits@_W@std@@SAXAA_WAB_W@Z	; std::char_traits<wchar_t>::assign
PUBLIC	?copy@?$char_traits@D@std@@SAPADQADQBDI@Z	; std::char_traits<char>::copy
PUBLIC	?move@?$char_traits@D@std@@SAPADQADQBDI@Z	; std::char_traits<char>::move
PUBLIC	?assign@?$char_traits@D@std@@SAXAADABD@Z	; std::char_traits<char>::assign
PUBLIC	?_Orphan_all@_Container_base0@std@@QAEXXZ	; std::_Container_base0::_Orphan_all
PUBLIC	?_Allocate@std@@YAPAXII_N@Z			; std::_Allocate
PUBLIC	?_Deallocate@std@@YAXPAXII@Z			; std::_Deallocate
PUBLIC	??0?$allocator@D@std@@QAE@ABV01@@Z		; std::allocator<char>::allocator<char>
PUBLIC	?deallocate@?$allocator@D@std@@QAEXPADI@Z	; std::allocator<char>::deallocate
PUBLIC	?allocate@?$allocator@D@std@@QAEPADI@Z		; std::allocator<char>::allocate
PUBLIC	?max_size@?$allocator@D@std@@QBEIXZ		; std::allocator<char>::max_size
PUBLIC	?max_size@?$allocator_traits@V?$allocator@D@std@@@std@@SAIABV?$allocator@D@2@@Z ; std::allocator_traits<std::allocator<char> >::max_size
PUBLIC	?select_on_container_copy_construction@?$allocator_traits@V?$allocator@D@std@@@std@@SA?AV?$allocator@D@2@ABV32@@Z ; std::allocator_traits<std::allocator<char> >::select_on_container_copy_construction
PUBLIC	?select_on_container_copy_construction@?$_Wrap_alloc@V?$allocator@D@std@@@std@@QBE?AU12@U_Nil@2@@Z ; std::_Wrap_alloc<std::allocator<char> >::select_on_container_copy_construction
PUBLIC	??0?$_Wrap_alloc@V?$allocator@D@std@@@std@@QAE@$$QAU01@@Z ; std::_Wrap_alloc<std::allocator<char> >::_Wrap_alloc<std::allocator<char> >
PUBLIC	?allocate@?$_Wrap_alloc@V?$allocator@D@std@@@std@@QAEPADI@Z ; std::_Wrap_alloc<std::allocator<char> >::allocate
PUBLIC	?deallocate@?$_Wrap_alloc@V?$allocator@D@std@@@std@@QAEXPADI@Z ; std::_Wrap_alloc<std::allocator<char> >::deallocate
PUBLIC	?max_size@?$_Wrap_alloc@V?$allocator@D@std@@@std@@QBEIU_Nil@2@@Z ; std::_Wrap_alloc<std::allocator<char> >::max_size
PUBLIC	??0?$_String_val@U?$_Simple_types@D@std@@@std@@QAE@XZ ; std::_String_val<std::_Simple_types<char> >::_String_val<std::_Simple_types<char> >
PUBLIC	?_Myptr@?$_String_val@U?$_Simple_types@D@std@@@std@@QAEPADXZ ; std::_String_val<std::_Simple_types<char> >::_Myptr
PUBLIC	?_Myptr@?$_String_val@U?$_Simple_types@D@std@@@std@@QBEPBDXZ ; std::_String_val<std::_Simple_types<char> >::_Myptr
PUBLIC	?_Large_string_engaged@?$_String_val@U?$_Simple_types@D@std@@@std@@QBE_NXZ ; std::_String_val<std::_Simple_types<char> >::_Large_string_engaged
PUBLIC	??0_Bxty@?$_String_val@U?$_Simple_types@D@std@@@std@@QAE@XZ ; std::_String_val<std::_Simple_types<char> >::_Bxty::_Bxty
PUBLIC	??1_Bxty@?$_String_val@U?$_Simple_types@D@std@@@std@@QAE@XZ ; std::_String_val<std::_Simple_types<char> >::_Bxty::~_Bxty
PUBLIC	??1?$_String_val@U?$_Simple_types@D@std@@@std@@QAE@XZ ; std::_String_val<std::_Simple_types<char> >::~_String_val<std::_Simple_types<char> >
PUBLIC	?_Myptr@?$_String_alloc@U?$_String_base_types@DV?$allocator@D@std@@@std@@@std@@QAEPADXZ ; std::_String_alloc<std::_String_base_types<char,std::allocator<char> > >::_Myptr
PUBLIC	?_Myptr@?$_String_alloc@U?$_String_base_types@DV?$allocator@D@std@@@std@@@std@@QBEPBDXZ ; std::_String_alloc<std::_String_base_types<char,std::allocator<char> > >::_Myptr
PUBLIC	?_Orphan_all@?$_String_alloc@U?$_String_base_types@DV?$allocator@D@std@@@std@@@std@@QAEXXZ ; std::_String_alloc<std::_String_base_types<char,std::allocator<char> > >::_Orphan_all
PUBLIC	?_Getal@?$_String_alloc@U?$_String_base_types@DV?$allocator@D@std@@@std@@@std@@QAEAAU?$_Wrap_alloc@V?$allocator@D@std@@@2@XZ ; std::_String_alloc<std::_String_base_types<char,std::allocator<char> > >::_Getal
PUBLIC	?_Getal@?$_String_alloc@U?$_String_base_types@DV?$allocator@D@std@@@std@@@std@@QBEABU?$_Wrap_alloc@V?$allocator@D@std@@@2@XZ ; std::_String_alloc<std::_String_base_types<char,std::allocator<char> > >::_Getal
PUBLIC	?_Get_data@?$_String_alloc@U?$_String_base_types@DV?$allocator@D@std@@@std@@@std@@QAEAAV?$_String_val@U?$_Simple_types@D@std@@@2@XZ ; std::_String_alloc<std::_String_base_types<char,std::allocator<char> > >::_Get_data
PUBLIC	?_Get_data@?$_String_alloc@U?$_String_base_types@DV?$allocator@D@std@@@std@@@std@@QBEABV?$_String_val@U?$_Simple_types@D@std@@@2@XZ ; std::_String_alloc<std::_String_base_types<char,std::allocator<char> > >::_Get_data
PUBLIC	?_Mysize@?$_String_alloc@U?$_String_base_types@DV?$allocator@D@std@@@std@@@std@@QAEAAIXZ ; std::_String_alloc<std::_String_base_types<char,std::allocator<char> > >::_Mysize
PUBLIC	?_Mysize@?$_String_alloc@U?$_String_base_types@DV?$allocator@D@std@@@std@@@std@@QBEABIXZ ; std::_String_alloc<std::_String_base_types<char,std::allocator<char> > >::_Mysize
PUBLIC	?_Myres@?$_String_alloc@U?$_String_base_types@DV?$allocator@D@std@@@std@@@std@@QAEAAIXZ ; std::_String_alloc<std::_String_base_types<char,std::allocator<char> > >::_Myres
PUBLIC	?_Get_first@?$_Compressed_pair@U?$_Wrap_alloc@V?$allocator@D@std@@@std@@V?$_String_val@U?$_Simple_types@D@std@@@2@$00@std@@QAEAAU?$_Wrap_alloc@V?$allocator@D@std@@@2@XZ ; std::_Compressed_pair<std::_Wrap_alloc<std::allocator<char> >,std::_String_val<std::_Simple_types<char> >,1>::_Get_first
PUBLIC	?_Get_first@?$_Compressed_pair@U?$_Wrap_alloc@V?$allocator@D@std@@@std@@V?$_String_val@U?$_Simple_types@D@std@@@2@$00@std@@QBEABU?$_Wrap_alloc@V?$allocator@D@std@@@2@XZ ; std::_Compressed_pair<std::_Wrap_alloc<std::allocator<char> >,std::_String_val<std::_Simple_types<char> >,1>::_Get_first
PUBLIC	?_Get_second@?$_Compressed_pair@U?$_Wrap_alloc@V?$allocator@D@std@@@std@@V?$_String_val@U?$_Simple_types@D@std@@@2@$00@std@@QAEAAV?$_String_val@U?$_Simple_types@D@std@@@2@XZ ; std::_Compressed_pair<std::_Wrap_alloc<std::allocator<char> >,std::_String_val<std::_Simple_types<char> >,1>::_Get_second
PUBLIC	?_Get_second@?$_Compressed_pair@U?$_Wrap_alloc@V?$allocator@D@std@@@std@@V?$_String_val@U?$_Simple_types@D@std@@@2@$00@std@@QBEABV?$_String_val@U?$_Simple_types@D@std@@@2@XZ ; std::_Compressed_pair<std::_Wrap_alloc<std::allocator<char> >,std::_String_val<std::_Simple_types<char> >,1>::_Get_second
PUBLIC	??1?$_Compressed_pair@U?$_Wrap_alloc@V?$allocator@D@std@@@std@@V?$_String_val@U?$_Simple_types@D@std@@@2@$00@std@@QAE@XZ ; std::_Compressed_pair<std::_Wrap_alloc<std::allocator<char> >,std::_String_val<std::_Simple_types<char> >,1>::~_Compressed_pair<std::_Wrap_alloc<std::allocator<char> >,std::_String_val<std::_Simple_types<char> >,1>
PUBLIC	??1?$_String_alloc@U?$_String_base_types@DV?$allocator@D@std@@@std@@@std@@QAE@XZ ; std::_String_alloc<std::_String_base_types<char,std::allocator<char> > >::~_String_alloc<std::_String_base_types<char,std::allocator<char> > >
PUBLIC	??0?$basic_string@DU?$char_traits@D@std@@V?$allocator@D@2@@std@@QAE@ABV01@@Z ; std::basic_string<char,std::char_traits<char>,std::allocator<char> >::basic_string<char,std::char_traits<char>,std::allocator<char> >
PUBLIC	?_Assign_lv_contents@?$basic_string@DU?$char_traits@D@std@@V?$allocator@D@2@@std@@QAEXABV12@@Z ; std::basic_string<char,std::char_traits<char>,std::allocator<char> >::_Assign_lv_contents
PUBLIC	??1?$basic_string@DU?$char_traits@D@std@@V?$allocator@D@2@@std@@QAE@XZ ; std::basic_string<char,std::char_traits<char>,std::allocator<char> >::~basic_string<char,std::char_traits<char>,std::allocator<char> >
PUBLIC	?assign@?$basic_string@DU?$char_traits@D@std@@V?$allocator@D@2@@std@@QAEAAV12@ABV12@II@Z ; std::basic_string<char,std::char_traits<char>,std::allocator<char> >::assign
PUBLIC	?erase@?$basic_string@DU?$char_traits@D@std@@V?$allocator@D@2@@std@@QAEAAV12@I@Z ; std::basic_string<char,std::char_traits<char>,std::allocator<char> >::erase
PUBLIC	?erase@?$basic_string@DU?$char_traits@D@std@@V?$allocator@D@2@@std@@QAEAAV12@II@Z ; std::basic_string<char,std::char_traits<char>,std::allocator<char> >::erase
PUBLIC	?c_str@?$basic_string@DU?$char_traits@D@std@@V?$allocator@D@2@@std@@QBEPBDXZ ; std::basic_string<char,std::char_traits<char>,std::allocator<char> >::c_str
PUBLIC	?max_size@?$basic_string@DU?$char_traits@D@std@@V?$allocator@D@2@@std@@QBEIXZ ; std::basic_string<char,std::char_traits<char>,std::allocator<char> >::max_size
PUBLIC	?_Clamp_suffix_size@?$basic_string@DU?$char_traits@D@std@@V?$allocator@D@2@@std@@QBEIII@Z ; std::basic_string<char,std::char_traits<char>,std::allocator<char> >::_Clamp_suffix_size
PUBLIC	?_Copy@?$basic_string@DU?$char_traits@D@std@@V?$allocator@D@2@@std@@QAEXI@Z ; std::basic_string<char,std::char_traits<char>,std::allocator<char> >::_Copy
PUBLIC	?_Eos@?$basic_string@DU?$char_traits@D@std@@V?$allocator@D@2@@std@@QAEXI@Z ; std::basic_string<char,std::char_traits<char>,std::allocator<char> >::_Eos
PUBLIC	?_Grow@?$basic_string@DU?$char_traits@D@std@@V?$allocator@D@2@@std@@QAE_NI@Z ; std::basic_string<char,std::char_traits<char>,std::allocator<char> >::_Grow
PUBLIC	?_Tidy_init@?$basic_string@DU?$char_traits@D@std@@V?$allocator@D@2@@std@@QAEXXZ ; std::basic_string<char,std::char_traits<char>,std::allocator<char> >::_Tidy_init
PUBLIC	?_Tidy_deallocate@?$basic_string@DU?$char_traits@D@std@@V?$allocator@D@2@@std@@QAEXXZ ; std::basic_string<char,std::char_traits<char>,std::allocator<char> >::_Tidy_deallocate
PUBLIC	?_Xlen@?$basic_string@DU?$char_traits@D@std@@V?$allocator@D@2@@std@@SAXXZ ; std::basic_string<char,std::char_traits<char>,std::allocator<char> >::_Xlen
PUBLIC	?_Check_offset@?$basic_string@DU?$char_traits@D@std@@V?$allocator@D@2@@std@@QBEXI@Z ; std::basic_string<char,std::char_traits<char>,std::allocator<char> >::_Check_offset
PUBLIC	?_Xran@?$basic_string@DU?$char_traits@D@std@@V?$allocator@D@2@@std@@SAXXZ ; std::basic_string<char,std::char_traits<char>,std::allocator<char> >::_Xran
PUBLIC	?deallocate@?$allocator@_W@std@@QAEXPA_WI@Z	; std::allocator<wchar_t>::deallocate
PUBLIC	?deallocate@?$_Wrap_alloc@V?$allocator@_W@std@@@std@@QAEXPA_WI@Z ; std::_Wrap_alloc<std::allocator<wchar_t> >::deallocate
PUBLIC	?_Myptr@?$_String_val@U?$_Simple_types@_W@std@@@std@@QBEPB_WXZ ; std::_String_val<std::_Simple_types<wchar_t> >::_Myptr
PUBLIC	?_Large_string_engaged@?$_String_val@U?$_Simple_types@_W@std@@@std@@QBE_NXZ ; std::_String_val<std::_Simple_types<wchar_t> >::_Large_string_engaged
PUBLIC	??1_Bxty@?$_String_val@U?$_Simple_types@_W@std@@@std@@QAE@XZ ; std::_String_val<std::_Simple_types<wchar_t> >::_Bxty::~_Bxty
PUBLIC	??1?$_String_val@U?$_Simple_types@_W@std@@@std@@QAE@XZ ; std::_String_val<std::_Simple_types<wchar_t> >::~_String_val<std::_Simple_types<wchar_t> >
PUBLIC	?_Myptr@?$_String_alloc@U?$_String_base_types@_WV?$allocator@_W@std@@@std@@@std@@QBEPB_WXZ ; std::_String_alloc<std::_String_base_types<wchar_t,std::allocator<wchar_t> > >::_Myptr
PUBLIC	?_Orphan_all@?$_String_alloc@U?$_String_base_types@_WV?$allocator@_W@std@@@std@@@std@@QAEXXZ ; std::_String_alloc<std::_String_base_types<wchar_t,std::allocator<wchar_t> > >::_Orphan_all
PUBLIC	?_Getal@?$_String_alloc@U?$_String_base_types@_WV?$allocator@_W@std@@@std@@@std@@QAEAAU?$_Wrap_alloc@V?$allocator@_W@std@@@2@XZ ; std::_String_alloc<std::_String_base_types<wchar_t,std::allocator<wchar_t> > >::_Getal
PUBLIC	?_Get_data@?$_String_alloc@U?$_String_base_types@_WV?$allocator@_W@std@@@std@@@std@@QAEAAV?$_String_val@U?$_Simple_types@_W@std@@@2@XZ ; std::_String_alloc<std::_String_base_types<wchar_t,std::allocator<wchar_t> > >::_Get_data
PUBLIC	?_Get_data@?$_String_alloc@U?$_String_base_types@_WV?$allocator@_W@std@@@std@@@std@@QBEABV?$_String_val@U?$_Simple_types@_W@std@@@2@XZ ; std::_String_alloc<std::_String_base_types<wchar_t,std::allocator<wchar_t> > >::_Get_data
PUBLIC	?_Get_first@?$_Compressed_pair@U?$_Wrap_alloc@V?$allocator@_W@std@@@std@@V?$_String_val@U?$_Simple_types@_W@std@@@2@$00@std@@QAEAAU?$_Wrap_alloc@V?$allocator@_W@std@@@2@XZ ; std::_Compressed_pair<std::_Wrap_alloc<std::allocator<wchar_t> >,std::_String_val<std::_Simple_types<wchar_t> >,1>::_Get_first
PUBLIC	?_Get_second@?$_Compressed_pair@U?$_Wrap_alloc@V?$allocator@_W@std@@@std@@V?$_String_val@U?$_Simple_types@_W@std@@@2@$00@std@@QAEAAV?$_String_val@U?$_Simple_types@_W@std@@@2@XZ ; std::_Compressed_pair<std::_Wrap_alloc<std::allocator<wchar_t> >,std::_String_val<std::_Simple_types<wchar_t> >,1>::_Get_second
PUBLIC	?_Get_second@?$_Compressed_pair@U?$_Wrap_alloc@V?$allocator@_W@std@@@std@@V?$_String_val@U?$_Simple_types@_W@std@@@2@$00@std@@QBEABV?$_String_val@U?$_Simple_types@_W@std@@@2@XZ ; std::_Compressed_pair<std::_Wrap_alloc<std::allocator<wchar_t> >,std::_String_val<std::_Simple_types<wchar_t> >,1>::_Get_second
PUBLIC	??1?$_Compressed_pair@U?$_Wrap_alloc@V?$allocator@_W@std@@@std@@V?$_String_val@U?$_Simple_types@_W@std@@@2@$00@std@@QAE@XZ ; std::_Compressed_pair<std::_Wrap_alloc<std::allocator<wchar_t> >,std::_String_val<std::_Simple_types<wchar_t> >,1>::~_Compressed_pair<std::_Wrap_alloc<std::allocator<wchar_t> >,std::_String_val<std::_Simple_types<wchar_t> >,1>
PUBLIC	??1?$_String_alloc@U?$_String_base_types@_WV?$allocator@_W@std@@@std@@@std@@QAE@XZ ; std::_String_alloc<std::_String_base_types<wchar_t,std::allocator<wchar_t> > >::~_String_alloc<std::_String_base_types<wchar_t,std::allocator<wchar_t> > >
PUBLIC	??1?$basic_string@_WU?$char_traits@_W@std@@V?$allocator@_W@2@@std@@QAE@XZ ; std::basic_string<wchar_t,std::char_traits<wchar_t>,std::allocator<wchar_t> >::~basic_string<wchar_t,std::char_traits<wchar_t>,std::allocator<wchar_t> >
PUBLIC	?c_str@?$basic_string@_WU?$char_traits@_W@std@@V?$allocator@_W@2@@std@@QBEPB_WXZ ; std::basic_string<wchar_t,std::char_traits<wchar_t>,std::allocator<wchar_t> >::c_str
PUBLIC	?_Tidy_deallocate@?$basic_string@_WU?$char_traits@_W@std@@V?$allocator@_W@2@@std@@QAEXXZ ; std::basic_string<wchar_t,std::char_traits<wchar_t>,std::allocator<wchar_t> >::_Tidy_deallocate
PUBLIC	?isVisible@SK_Console@@QAE_NXZ			; SK_Console::isVisible
PUBLIC	?markRead@sk_input_api_context_s@@QAEXW4sk_input_dev_type@@@Z ; sk_input_api_context_s::markRead
PUBLIC	??0show_eula_s@@QAE@XZ				; show_eula_s::show_eula_s
PUBLIC	?GetVarPtr@ImGuiStyleVarInfo@@QBEPAXXZ		; ImGuiStyleVarInfo::GetVarPtr
PUBLIC	??0ImGuiPlotArrayGetterData@@QAE@PBMH@Z		; ImGuiPlotArrayGetterData::ImGuiPlotArrayGetterData
PUBLIC	??0SK_Thread_CriticalSection@@QAE@PAU_RTL_CRITICAL_SECTION@@@Z ; SK_Thread_CriticalSection::SK_Thread_CriticalSection
PUBLIC	?lock@SK_Thread_CriticalSection@@QAEXXZ		; SK_Thread_CriticalSection::lock
PUBLIC	?unlock@SK_Thread_CriticalSection@@QAEXXZ	; SK_Thread_CriticalSection::unlock
PUBLIC	??0SK_Thread_HybridSpinlock@@QAE@H@Z		; SK_Thread_HybridSpinlock::SK_Thread_HybridSpinlock
PUBLIC	??1SK_Thread_HybridSpinlock@@QAE@XZ		; SK_Thread_HybridSpinlock::~SK_Thread_HybridSpinlock
PUBLIC	?SK_ImGui_GetGlyphRangesDefaultEx@@YAPBGXZ	; SK_ImGui_GetGlyphRangesDefaultEx
PUBLIC	?SK_ImGui_LoadFonts@@YAXXZ			; SK_ImGui_LoadFonts
PUBLIC	??0?$lock_guard@VSK_Thread_CriticalSection@@@std@@QAE@AAVSK_Thread_CriticalSection@@@Z ; std::lock_guard<SK_Thread_CriticalSection>::lock_guard<SK_Thread_CriticalSection>
PUBLIC	??1?$lock_guard@VSK_Thread_CriticalSection@@@std@@QAE@XZ ; std::lock_guard<SK_Thread_CriticalSection>::~lock_guard<SK_Thread_CriticalSection>
PUBLIC	?SK_ImGui_ProcessRawInput@@YGIPAUHRAWINPUT__@@IPAXPAIIH@Z ; SK_ImGui_ProcessRawInput
PUBLIC	?SK_Input_RememberPressedKeys@@YAXXZ		; SK_Input_RememberPressedKeys
PUBLIC	?SK_ImGui_WantMouseWarpFiltering@@YA_NXZ	; SK_ImGui_WantMouseWarpFiltering
PUBLIC	?SK_ImGui_DeltaTestMouse@@YAJAAUtagPOINTS@@KF@Z	; SK_ImGui_DeltaTestMouse
PUBLIC	?ImGui_WndProcHandler@@YGJPAUHWND__@@IIJ@Z	; ImGui_WndProcHandler
PUBLIC	?SK_ImGui_FilterXInput@@YA_NKPAU_XINPUT_STATE@@@Z ; SK_ImGui_FilterXInput
PUBLIC	??$max@K@std@@YAABKABK0@Z			; std::max<unsigned long>
PUBLIC	?run@linear_pulse_event_s@<unnamed-type-haptic_events>@@QAEMXZ ; <unnamed-type-haptic_events>::linear_pulse_event_s::run
PUBLIC	??0<unnamed-type-haptic_events>@@QAE@XZ		; <unnamed-type-haptic_events>::<unnamed-type-haptic_events>
PUBLIC	??$max@M@std@@YAABMABM0@Z			; std::max<float>
PUBLIC	?SK_ImGui_ToggleEx@@YG_NAA_N0@Z			; SK_ImGui_ToggleEx
PUBLIC	?SK_ImGui_PollGamepad_EndFrame@@YAXXZ		; SK_ImGui_PollGamepad_EndFrame
PUBLIC	??$min@M@std@@YAABMABM0@Z			; std::min<float>
PUBLIC	?SK_ImGui_PollGamepad@@YAXXZ			; SK_ImGui_PollGamepad
PUBLIC	??$move@AAU?$_Wrap_alloc@V?$allocator@D@std@@@std@@@std@@YA$$QAU?$_Wrap_alloc@V?$allocator@D@std@@@0@AAU10@@Z ; std::move<std::_Wrap_alloc<std::allocator<char> > &>
PUBLIC	??$?0U?$_Wrap_alloc@V?$allocator@D@std@@@std@@X@?$_String_alloc@U?$_String_base_types@DV?$allocator@D@std@@@std@@@std@@QAE@$$QAU?$_Wrap_alloc@V?$allocator@D@std@@@1@@Z ; std::_String_alloc<std::_String_base_types<char,std::allocator<char> > >::_String_alloc<std::_String_base_types<char,std::allocator<char> > ><std::_Wrap_alloc<std::allocator<char> >,void>
PUBLIC	??$?0V?$allocator@D@std@@@?$_Wrap_alloc@V?$allocator@D@std@@@std@@QAE@$$QAV?$allocator@D@1@@Z ; std::_Wrap_alloc<std::allocator<char> >::_Wrap_alloc<std::allocator<char> ><std::allocator<char> >
PUBLIC	??$addressof@PA_W@std@@YAPAPA_WAAPA_W@Z		; std::addressof<wchar_t *>
PUBLIC	??$destroy@PA_W@?$_Wrap_alloc@V?$allocator@_W@std@@@std@@QAEXPAPA_W@Z ; std::_Wrap_alloc<std::allocator<wchar_t> >::destroy<wchar_t *>
PUBLIC	??$addressof@PAD@std@@YAPAPADAAPAD@Z		; std::addressof<char *>
PUBLIC	??$destroy@PAD@?$_Wrap_alloc@V?$allocator@D@std@@@std@@QAEXPAPAD@Z ; std::_Wrap_alloc<std::allocator<char> >::destroy<char *>
PUBLIC	??$_Unfancy@_W@std@@YAPA_WPA_W@Z		; std::_Unfancy<wchar_t>
PUBLIC	??$_Unfancy@D@std@@YAPADPAD@Z			; std::_Unfancy<char>
PUBLIC	??$_Min_value@I@std@@YAABIABI0@Z		; std::_Min_value<unsigned int>
PUBLIC	??$addressof@$$CBV?$basic_string@DU?$char_traits@D@std@@V?$allocator@D@2@@std@@@std@@YAPBV?$basic_string@DU?$char_traits@D@std@@V?$allocator@D@2@@0@ABV10@@Z ; std::addressof<std::basic_string<char,std::char_traits<char>,std::allocator<char> > const >
PUBLIC	??$construct@PADAAPAD@?$_Wrap_alloc@V?$allocator@D@std@@@std@@QAEXPAPADAAPAD@Z ; std::_Wrap_alloc<std::allocator<char> >::construct<char *,char * &>
PUBLIC	??$forward@U?$_Wrap_alloc@V?$allocator@D@std@@@std@@@std@@YA$$QAU?$_Wrap_alloc@V?$allocator@D@std@@@0@AAU10@@Z ; std::forward<std::_Wrap_alloc<std::allocator<char> > >
PUBLIC	??$?0U?$_Wrap_alloc@V?$allocator@D@std@@@std@@$$V@?$_Compressed_pair@U?$_Wrap_alloc@V?$allocator@D@std@@@std@@V?$_String_val@U?$_Simple_types@D@std@@@2@$00@std@@QAE@U_One_then_variadic_args_t@1@$$QAU?$_Wrap_alloc@V?$allocator@D@std@@@1@@Z ; std::_Compressed_pair<std::_Wrap_alloc<std::allocator<char> >,std::_String_val<std::_Simple_types<char> >,1>::_Compressed_pair<std::_Wrap_alloc<std::allocator<char> >,std::_String_val<std::_Simple_types<char> >,1><std::_Wrap_alloc<std::allocator<char> > >
PUBLIC	??$forward@V?$allocator@D@std@@@std@@YA$$QAV?$allocator@D@0@AAV10@@Z ; std::forward<std::allocator<char> >
PUBLIC	??$destroy@PA_W@?$allocator_traits@V?$allocator@_W@std@@@std@@SAXAAV?$allocator@_W@1@PAPA_W@Z ; std::allocator_traits<std::allocator<wchar_t> >::destroy<wchar_t *>
PUBLIC	??$destroy@PAD@?$allocator_traits@V?$allocator@D@std@@@std@@SAXAAV?$allocator@D@1@PAPAD@Z ; std::allocator_traits<std::allocator<char> >::destroy<char *>
PUBLIC	??$forward@AAPAD@std@@YAAAPADAAPAD@Z		; std::forward<char * &>
PUBLIC	??$construct@PADAAPAD@?$allocator_traits@V?$allocator@D@std@@@std@@SAXAAV?$allocator@D@1@PAPADAAPAD@Z ; std::allocator_traits<std::allocator<char> >::construct<char *,char * &>
PUBLIC	??$destroy@PA_W@?$allocator@_W@std@@QAEXPAPA_W@Z ; std::allocator<wchar_t>::destroy<wchar_t *>
PUBLIC	??$destroy@PAD@?$allocator@D@std@@QAEXPAPAD@Z	; std::allocator<char>::destroy<char *>
PUBLIC	??$construct@PADAAPAD@?$allocator@D@std@@QAEXPAPADAAPAD@Z ; std::allocator<char>::construct<char *,char * &>
PUBLIC	??_C@_09GBFFKCDJ@?$CD?$CDOverlay?$AA@		; `string'
PUBLIC	??_C@_00CNPNBAHC@?$AA@				; `string'
PUBLIC	?eula@@3Ushow_eula_s@@A				; eula
PUBLIC	??_C@_0CF@IMBENNLG@?$CFs?3?5?8?$CFs?8?5?$CFd?5vtx?0?5?$CFd?5indices?0?5?$CFd?5@ ; `string'
PUBLIC	??_C@_0BE@LDCFEMCB@CURRENTLY?5APPENDING?$AA@	; `string'
PUBLIC	??_C@_0BK@FDNBBNBF@Callback?5?$CFp?0?5user_data?5?$CFp?$AA@ ; `string'
PUBLIC	??_C@_07KNEBDGNE@indexed?$AA@			; `string'
PUBLIC	??_C@_0M@NGJKDAN@non?9indexed?$AA@		; `string'
PUBLIC	??_C@_0EB@GBKAKAEN@Draw?5?$CF?94d?5?$CFs?5vtx?0?5tex?5?$DN?5?$CFp?0?5clip@ ; `string'
PUBLIC	??_C@_03CEPBOMNB@vtx?$AA@			; `string'
PUBLIC	??_C@_03NDEAONJP@?5?5?5?$AA@			; `string'
PUBLIC	??_C@_0DP@LIPFHOCP@?$CFs?5?$CF04d?5?$HL?5pos?5?$DN?5?$CI?$CF8?42f?0?$CF8?42f?$CJ?0?5u@ ; `string'
PUBLIC	??_C@_07JMKCEEPK@?$CFs?5?$CI?$CFd?$CJ?$AA@	; `string'
PUBLIC	??_C@_06BKKJGDHO@Window?$AA@			; `string'
PUBLIC	??_C@_0BD@KOKNLAED@?$CFs?5?8?$CFs?8?0?5?$CFd?5?$EA?50x?$CFp?$AA@ ; `string'
PUBLIC	??_C@_08IJNCDCKF@DrawList?$AA@			; `string'
PUBLIC	??_C@_0BB@OALIFMJB@Pos?3?5?$CI?$CF?41f?0?$CF?41f?$CJ?$AA@ ; `string'
PUBLIC	??_C@_0CM@FNPKCFJC@Size?3?5?$CI?$CF?41f?0?$CF?41f?$CJ?0?5SizeContents?5@ ; `string'
PUBLIC	??_C@_0BE@LFBJHAFP@Scroll?3?5?$CI?$CF?42f?0?$CF?42f?$CJ?$AA@ ; `string'
PUBLIC	??_C@_0CN@NNMFALIK@NavLastId?3?50x?$CF08x?0?5NavLayerActiv@ ; `string'
PUBLIC	??_C@_0L@EHLMOHOL@RootWindow?$AA@		; `string'
PUBLIC	??_C@_0N@BGDHDNPO@ChildWindows?$AA@		; `string'
PUBLIC	??_C@_0BC@PDGNHIHG@Storage?3?5?$CFd?5bytes?$AA@	; `string'
PUBLIC	?font_lock@@3VSK_Thread_HybridSpinlock@@A	; font_lock
PUBLIC	??_C@_06OMAMIPPI@?$CFws?2?$CFs?$AA@		; `string'
PUBLIC	?window_active@?1???R<lambda_34955bda5757b6d1afe210935814f65c>@@QBE_NPAUHWND__@@IIJ@Z@4_NA ; `<lambda_34955bda5757b6d1afe210935814f65c>::operator()'::`2'::window_active
PUBLIC	??_C@_1DK@BLGEDKBM@?$AAW?$AAM?$AA_?$AAA?$AAP?$AAP?$AAC?$AAO?$AAM?$AAM?$AAA?$AAN?$AAD?$AA?5?$AAK?$AAe?$AAy?$AAb?$AAo?$AAa?$AAr?$AAd?$AA?5?$AAE?$AAv?$AAe?$AAn?$AAt?$AA?$AA@ ; `string'
PUBLIC	??_C@_1EE@HBEADAKP@?$AAR?$AAe?$AAm?$AAo?$AAv?$AAe?$AAd?$AA?5?$AAW?$AAM?$AA_?$AAA?$AAP?$AAP?$AAC?$AAO?$AAM?$AAM?$AAA?$AAN?$AAD?$AA?5?$AAM?$AAo?$AAu?$AAs?$AAe?$AA?5?$AAE?$AAv?$AAe?$AAn@ ; `string'
PUBLIC	??_C@_1DE@HMFBBKJG@?$AAW?$AAM?$AA_?$AAA?$AAP?$AAP?$AAC?$AAO?$AAM?$AAM?$AAA?$AAN?$AAD?$AA?5?$AAM?$AAo?$AAu?$AAs?$AAe?$AA?5?$AAE?$AAv?$AAe?$AAn?$AAt?$AA?$AA@ ; `string'
PUBLIC	??_C@_1FE@DBJNABHE@?$AAR?$AAe?$AAm?$AAo?$AAv?$AAe?$AAd?$AA?5?$AAW?$AAM?$AA_?$AAA?$AAP?$AAP?$AAC?$AAO?$AAM?$AAM?$AAA?$AAN?$AAD?$AA?5?$AAM?$AAo?$AAu?$AAs?$AAe?$AA?5?$AAD?$AAe?$AAl?$AAt@ ; `string'
PUBLIC	?haptic_events@@3U<unnamed-type-haptic_events>@@A ; haptic_events
PUBLIC	??_C@_0BA@JFNIOLAK@string?5too?5long?$AA@	; `string'
PUBLIC	??_C@_0BI@CFPLBAOH@invalid?5string?5position?$AA@ ; `string'
PUBLIC	__real@00000000
PUBLIC	__real@00800000
PUBLIC	__real@1e3ce508
PUBLIC	__real@358637bd
PUBLIC	__real@3727c5ac
PUBLIC	__real@38000100
PUBLIC	__real@38285303
PUBLIC	__real@38d1b717
PUBLIC	__real@3a83126f
PUBLIC	__real@3b360b61
PUBLIC	__real@3b808081
PUBLIC	__real@3b91a2b4
PUBLIC	__real@3c23d70a
PUBLIC	__real@3dcccccd
PUBLIC	__real@3e19999a
PUBLIC	__real@3e2aaaab
PUBLIC	__real@3e4ccccd
PUBLIC	__real@3e800000
PUBLIC	__real@3e99999a
PUBLIC	__real@3e9d2f1b
PUBLIC	__real@3e9eb852
PUBLIC	__real@3eaaaaab
PUBLIC	__real@3ecccccd
PUBLIC	__real@3f000000
PUBLIC	__real@3f266666
PUBLIC	__real@3f350481
PUBLIC	__real@3f400000
PUBLIC	__real@3f4ccccd
PUBLIC	__real@3f5db22d
PUBLIC	__real@3f733333
PUBLIC	__real@3f7ff972
PUBLIC	__real@3f7fff58
PUBLIC	__real@3f800000
PUBLIC	__real@3f800054
PUBLIC	__real@3f99999a
PUBLIC	__real@3faccccd
PUBLIC	__real@3fc00000
PUBLIC	__real@40000000
PUBLIC	__real@40200000
PUBLIC	__real@40400000
PUBLIC	__real@40800000
PUBLIC	__real@40a00000
PUBLIC	__real@40c00000
PUBLIC	__real@40c90fdb
PUBLIC	__real@40eccccd
PUBLIC	__real@41000000
PUBLIC	__real@41200000
PUBLIC	__real@41800000
PUBLIC	__real@41a00000
PUBLIC	__real@41c00000
PUBLIC	__real@41f00000
PUBLIC	__real@42652ee0
PUBLIC	__real@42c80000
PUBLIC	__real@42f00000
PUBLIC	__real@437f0000
PUBLIC	__real@44160000
PUBLIC	__real@447a0000
PUBLIC	__real@45f54800
PUBLIC	__real@461c3c00
PUBLIC	__real@46fffe00
PUBLIC	__real@7f7fffff
PUBLIC	__real@beaaaaab
PUBLIC	__real@bf000000
PUBLIC	__real@bf5db22d
PUBLIC	__real@bf800000
PUBLIC	__real@c0000000
PUBLIC	__real@c2c80000
PUBLIC	__real@ff7fffff
PUBLIC	__xmm@3b8080813b8080813b8080813b808081
PUBLIC	__xmm@3df5c28f3f8000003f8000003f800000
PUBLIC	__xmm@3e4ccccd3f4ccccd3ecccccd3ecccccd
PUBLIC	__xmm@3e99999a3f4ccccd3ecccccd3ecccccd
PUBLIC	__xmm@3e99999a3f4ccccd3f4ccccd3f4ccccd
PUBLIC	__xmm@3e99999a3f8000003f8000003f800000
PUBLIC	__xmm@3eb333333e4ccccd3e4ccccd3e4ccccd
PUBLIC	__xmm@3eb333333f8000000000000000000000
PUBLIC	__xmm@3ecccccd3f0000003f0000003f4ccccd
PUBLIC	__xmm@3ecccccd3f4ccccd3ecccccd3ecccccd
PUBLIC	__xmm@3ecccccd3f4ccccd3f4ccccd3f666666
PUBLIC	__xmm@3ee666663f2666663f2666663f666666
PUBLIC	__xmm@3ee666663f6666663ecccccd3ecccccd
PUBLIC	__xmm@3f0000003f6666663f0000003f000000
PUBLIC	__xmm@3f0000003f6666663f6666663f666666
PUBLIC	__xmm@3f19999a3e99999a3e8000003e4ccccd
PUBLIC	__xmm@3f19999a3ecccccd3ecccccd3f2b851f
PUBLIC	__xmm@3f19999a3f6666663f3333333f333333
PUBLIC	__xmm@3f19999a3f8000003f8000003f800000
PUBLIC	__xmm@3f2666663f3333333f3333333f333333
PUBLIC	__xmm@3f333333000000000000000000000000
PUBLIC	__xmm@3f4ccccd3f0ccccd3ecccccd3ecccccd
PUBLIC	__xmm@3f4ccccd3f5eb8523f07ae143f07ae14
PUBLIC	__xmm@3f4ccccd3f6666663ee666663ee66666
PUBLIC	__xmm@3f547ae13f0000003e75c28f3e75c28f
PUBLIC	__xmm@3f5eb8523f2666663ea8f5c33ea8f5c3
PUBLIC	__xmm@3f6666663dcccccd3d4ccccd3d4ccccd
PUBLIC	__xmm@3f6666663f8000003f8000003f800000
PUBLIC	__xmm@3f7d70a43e4ccccd3e4ccccd3e4ccccd
PUBLIC	__xmm@3f800000000000003f19999a3f800000
PUBLIC	__xmm@3f800000000000003f3333333f666666
PUBLIC	__xmm@3f8000003ec8c8ca3ec8c8ca3f800000
PUBLIC	__xmm@3f8000003ecccccd3ecccccd3f2b851f
PUBLIC	__xmm@3f8000003f0000003f0000003f000000
PUBLIC	__xmm@3f8000003f0000003f0000003f4ccccd
PUBLIC	__xmm@3f8000003f19999a3f19999a3f19999a
PUBLIC	__xmm@3f8000003f19999a3f19999a3f333333
PUBLIC	__xmm@3f8000003f3333333f3333333f333333
PUBLIC	__xmm@3f8000003f3333333f3333333f666666
PUBLIC	__xmm@3f8000003f6666663f6666663f666666
PUBLIC	__xmm@3f8000003f8000003f8000003f800000
PUBLIC	__xmm@41f00000000000000000000000000000
PUBLIC	__xmm@7f7fffff7f7fffffff7fffffff7fffff
PUBLIC	__xmm@7fffffff7fffffff7fffffff7fffffff
PUBLIC	__xmm@80000000800000008000000080000000
PUBLIC	__xmm@ff7fffffff7fffff7f7fffff7f7fffff
PUBLIC	__xmm@ffffffffffffffffffffffffffffffff
EXTRN	??_L@YGXPAXIIP6EX0@Z1@Z:PROC			; `eh vector constructor iterator'
EXTRN	??_M@YGXPAXIIP6EX0@Z@Z:PROC			; `eh vector destructor iterator'
EXTRN	??2@YAPAXI@Z:PROC				; operator new
EXTRN	??3@YAXPAX@Z:PROC				; operator delete
EXTRN	??3@YAXPAXI@Z:PROC				; operator delete
EXTRN	??_U@YAPAXI@Z:PROC				; operator new[]
EXTRN	??_V@YAXPAX@Z:PROC				; operator delete[]
EXTRN	_atexit:PROC
EXTRN	__Init_thread_header:PROC
EXTRN	__Init_thread_footer:PROC
EXTRN	___std_terminate:PROC
EXTRN	__imp___invalid_parameter_noinfo_noreturn:PROC
EXTRN	__imp__memmove:PROC
EXTRN	__imp__strchr:PROC
EXTRN	__imp__strncpy:PROC
EXTRN	?PushClipRect@ImDrawList@@QAEXUImVec2@@0_N@Z:PROC ; ImDrawList::PushClipRect
EXTRN	?PushClipRectFullScreen@ImDrawList@@QAEXXZ:PROC	; ImDrawList::PushClipRectFullScreen
EXTRN	?PopClipRect@ImDrawList@@QAEXXZ:PROC		; ImDrawList::PopClipRect
EXTRN	?PushTextureID@ImDrawList@@QAEXABQAX@Z:PROC	; ImDrawList::PushTextureID
EXTRN	?PopTextureID@ImDrawList@@QAEXXZ:PROC		; ImDrawList::PopTextureID
EXTRN	?AddLine@ImDrawList@@QAEXABUImVec2@@0IM@Z:PROC	; ImDrawList::AddLine
EXTRN	?AddRect@ImDrawList@@QAEXABUImVec2@@0IMHM@Z:PROC ; ImDrawList::AddRect
EXTRN	?AddRectFilled@ImDrawList@@QAEXABUImVec2@@0IMH@Z:PROC ; ImDrawList::AddRectFilled
EXTRN	?AddTriangleFilled@ImDrawList@@QAEXABUImVec2@@00I@Z:PROC ; ImDrawList::AddTriangleFilled
EXTRN	?AddCircle@ImDrawList@@QAEXABUImVec2@@MIHM@Z:PROC ; ImDrawList::AddCircle
EXTRN	?AddCircleFilled@ImDrawList@@QAEXABUImVec2@@MIH@Z:PROC ; ImDrawList::AddCircleFilled
EXTRN	?AddText@ImDrawList@@QAEXPBUImFont@@MABUImVec2@@IPBD2MPBUImVec4@@@Z:PROC ; ImDrawList::AddText
EXTRN	?AddImage@ImDrawList@@QAEXPAXABUImVec2@@111I@Z:PROC ; ImDrawList::AddImage
EXTRN	?AddPolyline@ImDrawList@@QAEXPBUImVec2@@HI_NM1@Z:PROC ; ImDrawList::AddPolyline
EXTRN	?AddConvexPolyFilled@ImDrawList@@QAEXPBUImVec2@@HI_N@Z:PROC ; ImDrawList::AddConvexPolyFilled
EXTRN	?PathArcToFast@ImDrawList@@QAEXABUImVec2@@MHH@Z:PROC ; ImDrawList::PathArcToFast
EXTRN	?ChannelsSplit@ImDrawList@@QAEXH@Z:PROC		; ImDrawList::ChannelsSplit
EXTRN	?ChannelsMerge@ImDrawList@@QAEXXZ:PROC		; ImDrawList::ChannelsMerge
EXTRN	?ChannelsSetCurrent@ImDrawList@@QAEXH@Z:PROC	; ImDrawList::ChannelsSetCurrent
EXTRN	?Clear@ImDrawList@@QAEXXZ:PROC			; ImDrawList::Clear
EXTRN	?ClearFreeMemory@ImDrawList@@QAEXXZ:PROC	; ImDrawList::ClearFreeMemory
EXTRN	??0ImFontConfig@@QAE@XZ:PROC			; ImFontConfig::ImFontConfig
EXTRN	??0ImFontAtlas@@QAE@XZ:PROC			; ImFontAtlas::ImFontAtlas
EXTRN	??1ImFontAtlas@@QAE@XZ:PROC			; ImFontAtlas::~ImFontAtlas
EXTRN	?AddFontDefault@ImFontAtlas@@QAEPAUImFont@@PBUImFontConfig@@@Z:PROC ; ImFontAtlas::AddFontDefault
EXTRN	?AddFontFromFileTTF@ImFontAtlas@@QAEPAUImFont@@PBDMPBUImFontConfig@@PBG@Z:PROC ; ImFontAtlas::AddFontFromFileTTF
EXTRN	?Clear@ImFontAtlas@@QAEXXZ:PROC			; ImFontAtlas::Clear
EXTRN	?GetGlyphRangesJapanese@ImFontAtlas@@QAEPBGXZ:PROC ; ImFontAtlas::GetGlyphRangesJapanese
EXTRN	?GetGlyphRangesChinese@ImFontAtlas@@QAEPBGXZ:PROC ; ImFontAtlas::GetGlyphRangesChinese
EXTRN	?GetGlyphRangesCyrillic@ImFontAtlas@@QAEPBGXZ:PROC ; ImFontAtlas::GetGlyphRangesCyrillic
EXTRN	??0ImFont@@QAE@XZ:PROC				; ImFont::ImFont
EXTRN	??1ImFont@@QAE@XZ:PROC				; ImFont::~ImFont
EXTRN	?FindGlyph@ImFont@@QBEPBUGlyph@1@G@Z:PROC	; ImFont::FindGlyph
EXTRN	?CalcTextSizeA@ImFont@@QBE?AUImVec2@@MMMPBD0PAPBD@Z:PROC ; ImFont::CalcTextSizeA
EXTRN	__imp____acrt_iob_func:PROC
EXTRN	__imp___wfopen:PROC
EXTRN	__imp__fclose:PROC
EXTRN	__imp__fflush:PROC
EXTRN	__imp__fread:PROC
EXTRN	__imp__fseek:PROC
EXTRN	__imp__ftell:PROC
EXTRN	_vfprintf:PROC
EXTRN	_vsnprintf:PROC
EXTRN	_sprintf:PROC
EXTRN	_snprintf:PROC
EXTRN	_sscanf:PROC
EXTRN	__imp__free:PROC
EXTRN	__imp__malloc:PROC
EXTRN	__imp__qsort:PROC
EXTRN	__imp__atoi:PROC
EXTRN	__imp__iswprint:PROC
EXTRN	__imp__isprint:PROC
EXTRN	__imp__toupper:PROC
EXTRN	__imp__GetFileAttributesA@4:PROC
EXTRN	__imp__EnterCriticalSection@4:PROC
EXTRN	__imp__LeaveCriticalSection@4:PROC
EXTRN	__imp__InitializeCriticalSectionAndSpinCount@8:PROC
EXTRN	__imp__DeleteCriticalSection@4:PROC
EXTRN	__imp__GlobalAlloc@8:PROC
EXTRN	__imp__GlobalLock@4:PROC
EXTRN	__imp__GlobalUnlock@4:PROC
EXTRN	__imp__ToUnicodeEx@28:PROC
EXTRN	__imp__GetKeyboardLayout@4:PROC
EXTRN	__imp__GetMessagePos@0:PROC
EXTRN	__imp__DefWindowProcA@16:PROC
EXTRN	__imp__DefWindowProcW@16:PROC
EXTRN	__imp__OpenClipboard@4:PROC
EXTRN	__imp__CloseClipboard@0:PROC
EXTRN	__imp__SetClipboardData@8:PROC
EXTRN	__imp__GetClipboardData@4:PROC
EXTRN	__imp__EmptyClipboard@0:PROC
EXTRN	__imp__GetActiveWindow@0:PROC
EXTRN	__imp__IsWindowUnicode@4:PROC
EXTRN	__imp__GetForegroundWindow@0:PROC
EXTRN	__imp__timeGetTime@0:PROC
EXTRN	__imp__joyGetPosEx@8:PROC
EXTRN	__imp__joyGetDevCapsW@12:PROC
EXTRN	_ImmGetContext@4:PROC
EXTRN	_ImmSetCompositionWindow@8:PROC
EXTRN	__imp_?_Xbad_alloc@std@@YAXXZ:PROC
EXTRN	__imp_?_Xlength_error@std@@YAXPBD@Z:PROC
EXTRN	__imp_?_Xout_of_range@std@@YAXPBD@Z:PROC
EXTRN	?getInstance@SK_Console@@SAPAV1@XZ:PROC		; SK_Console::getInstance
EXTRN	?KeyUp@SK_Console@@QAEHEJ@Z:PROC		; SK_Console::KeyUp
EXTRN	?KeyDown@SK_Console@@QAEHEJ@Z:PROC		; SK_Console::KeyDown
EXTRN	?SK_ImGui_WantGamepadCapture@@YA_NXZ:PROC	; SK_ImGui_WantGamepadCapture
EXTRN	?SK_ImGui_WantMouseCapture@@YA_NXZ:PROC		; SK_ImGui_WantMouseCapture
EXTRN	?SK_ImGui_WantKeyboardCapture@@YA_NXZ:PROC	; SK_ImGui_WantKeyboardCapture
EXTRN	?update@sk_imgui_cursor_s@@QAEXXZ:PROC		; sk_imgui_cursor_s::update
EXTRN	?LocalToClient@sk_imgui_cursor_s@@QAEXPAUtagPOINT@@@Z:PROC ; sk_imgui_cursor_s::LocalToClient
EXTRN	?ClientToLocal@sk_imgui_cursor_s@@QAEXPAUtagPOINT@@@Z:PROC ; sk_imgui_cursor_s::ClientToLocal
EXTRN	?SK_RawInput_EnableLegacyMouse@@YA_N_N@Z:PROC	; SK_RawInput_EnableLegacyMouse
EXTRN	?SK_RawInput_RestoreLegacyMouse@@YAXXZ:PROC	; SK_RawInput_RestoreLegacyMouse
EXTRN	?SK_RawInput_EnableLegacyKeyboard@@YA_N_N@Z:PROC ; SK_RawInput_EnableLegacyKeyboard
EXTRN	?SK_ImGui_IsMouseRelevant@@YA_NXZ:PROC		; SK_ImGui_IsMouseRelevant
EXTRN	?SK_ImGui_DrawEULA@@YGXPAX@Z:PROC		; SK_ImGui_DrawEULA
EXTRN	?SK_GetFontsDir@@YA?AV?$basic_string@_WU?$char_traits@_W@std@@V?$allocator@_W@2@@std@@XZ:PROC ; SK_GetFontsDir
EXTRN	?Log@iSK_Logger@@UAAXQB_WZZ:PROC		; iSK_Logger::Log
EXTRN	?SK_InputUtil_IsHWCursorVisible@@YA_NXZ:PROC	; SK_InputUtil_IsHWCursorVisible
EXTRN	?SK_XInput_PollController@@YA_NHPAU_XINPUT_STATE@@@Z:PROC ; SK_XInput_PollController
EXTRN	?SK_XInput_PulseController@@YA_NHMM@Z:PROC	; SK_XInput_PulseController
EXTRN	?SK_XInput_ZeroHaptics@@YAXH@Z:PROC		; SK_XInput_ZeroHaptics
EXTRN	?SK_JOY_TranslateToXInput@@YA?AU_XINPUT_STATE@@PAUjoyinfoex_tag@@PBUtagJOYCAPSW@@@Z:PROC ; SK_JOY_TranslateToXInput
EXTRN	?SK_ImGui_Toggle@@YAXXZ:PROC			; SK_ImGui_Toggle
EXTRN	?SK_GetFramesDrawn@@YGKXZ:PROC			; SK_GetFramesDrawn
EXTRN	__CIfmod:PROC
EXTRN	___CxxFrameHandler3:PROC
EXTRN	___libm_sse2_powf:PROC
EXTRN	_memcpy:PROC
EXTRN	_memset:PROC
EXTRN	__Init_thread_epoch:DWORD
EXTRN	?SK_ReShade_Visible@@3_NA:BYTE			; SK_ReShade_Visible
EXTRN	?GetAsyncKeyState_Original@@3P6GFH@ZA:DWORD	; GetAsyncKeyState_Original
EXTRN	?GetRawInputData_Original@@3P6GIPAUHRAWINPUT__@@IPAXPAII@ZA:DWORD ; GetRawInputData_Original
EXTRN	?SK_ImGui_Cursor@@3Usk_imgui_cursor_s@@A:BYTE	; SK_ImGui_Cursor
EXTRN	?SK_RawInput_Backend@@3Usk_input_api_context_s@@A:BYTE ; SK_RawInput_Backend
EXTRN	?game_window@@3Usk_window_s@@A:BYTE		; game_window
EXTRN	?config@@3Usk_config_t@@A:BYTE			; config
EXTRN	?dll_log@@3UiSK_Logger@@A:BYTE			; dll_log
EXTRN	?SK_ImGui_ActivationKeys@@3PAHA:BYTE		; SK_ImGui_ActivationKeys
EXTRN	?joy_to_xi@@3U_XINPUT_STATE@@A:BYTE		; joy_to_xi
EXTRN	?steam_to_xi@@3PAU_XINPUT_STATE@@A:DWORD	; steam_to_xi
EXTRN	?SK_ImGui_Widgets@@3USK_ImGui_WidgetRegistry@@A:BYTE ; SK_ImGui_Widgets
EXTRN	__fltused:DWORD
EXTRN	__tls_array:DWORD
EXTRN	__tls_index:DWORD
_BSS	SEGMENT
	ALIGN	4

?GImDefaultFontAtlas@@3UImFontAtlas@@A DB 038H DUP (?)	; GImDefaultFontAtlas
?GImDefaultContext@@3UImGuiContext@@A DB 03b58H DUP (?)	; GImDefaultContext
_BSS	ENDS
;	COMDAT ?crc32_lut@?1??ImHash@@YAIPBXHI@Z@4PAIA
_BSS	SEGMENT
?crc32_lut@?1??ImHash@@YAIPBXHI@Z@4PAIA DD 0100H DUP (?) ; `ImHash'::`2'::crc32_lut
_BSS	ENDS
_BSS	SEGMENT
?eula@@3Ushow_eula_s@@A DW 01H DUP (?)			; eula
_BSS	ENDS
;	COMDAT ?last_x@?1??NewFrame@ImGui@@YAXXZ@4HA
_BSS	SEGMENT
?last_x@?1??NewFrame@ImGui@@YAXXZ@4HA DD 01H DUP (?)	; `ImGui::NewFrame'::`2'::last_x
_BSS	ENDS
;	COMDAT ?last_y@?1??NewFrame@ImGui@@YAXXZ@4HA
_BSS	SEGMENT
?last_y@?1??NewFrame@ImGui@@YAXXZ@4HA DD 01H DUP (?)	; `ImGui::NewFrame'::`2'::last_y
_BSS	ENDS
;	COMDAT ?buf_local@?1??GetClipboardTextFn_DefaultImpl@@YAPBDPAX@Z@4V?$ImVector@D@@A
_BSS	SEGMENT
?buf_local@?1??GetClipboardTextFn_DefaultImpl@@YAPBDPAX@Z@4V?$ImVector@D@@A DB 0cH DUP (?) ; `GetClipboardTextFn_DefaultImpl'::`2'::buf_local
_BSS	ENDS
;	COMDAT ?$TSS0@?1??GetClipboardTextFn_DefaultImpl@@YAPBDPAX@Z@4HA
_BSS	SEGMENT
?$TSS0@?1??GetClipboardTextFn_DefaultImpl@@YAPBDPAX@Z@4HA DD 01H DUP (?) ; TSS0<`template-parameter-2',tClipboardTextFn_DefaultImpl,int, ?? &>
_BSS	ENDS
_BSS	SEGMENT
	ALIGN	4

?font_lock@@3VSK_Thread_HybridSpinlock@@A DD 01H DUP (?) ; font_lock
_BSS	ENDS
;	COMDAT ?init@?1??SK_ImGui_LoadFonts@@YAXXZ@4KC
_BSS	SEGMENT
?init@?1??SK_ImGui_LoadFonts@@YAXXZ@4KC DD 01H DUP (?)	; `SK_ImGui_LoadFonts'::`2'::init
_BSS	ENDS
;	COMDAT ?last_input@?1??SK_ImGui_ProcessRawInput@@YGIPAUHRAWINPUT__@@IPAXPAIIH@Z@4PAU2@A
_BSS	SEGMENT
?last_input@?1??SK_ImGui_ProcessRawInput@@YGIPAUHRAWINPUT__@@IPAXPAIIH@Z@4PAU2@A DD 01H DUP (?) ; `SK_ImGui_ProcessRawInput'::`2'::last_input
_BSS	ENDS
;	COMDAT ?last_pos@?1??ImGui_WndProcHandler@@YGJPAUHWND__@@IIJ@Z@4UtagPOINTS@@A
_BSS	SEGMENT
?last_pos@?1??ImGui_WndProcHandler@@YGJPAUHWND__@@IIJ@Z@4UtagPOINTS@@A DD 01H DUP (?) ; `ImGui_WndProcHandler'::`2'::last_pos
_BSS	ENDS
;	COMDAT ?nav_id@?CK@??SK_ImGui_PollGamepad_EndFrame@@YAXXZ@4IA
_BSS	SEGMENT
?nav_id@?CK@??SK_ImGui_PollGamepad_EndFrame@@YAXXZ@4IA DD 01H DUP (?) ; `SK_ImGui_PollGamepad_EndFrame'::`42'::nav_id
_BSS	ENDS
;	COMDAT ?last_toggle@?1??SK_ImGui_PollGamepad@@YAXXZ@4KA
_BSS	SEGMENT
?last_toggle@?1??SK_ImGui_PollGamepad@@YAXXZ@4KA DD 01H DUP (?) ; `SK_ImGui_PollGamepad'::`2'::last_toggle
_BSS	ENDS
CRT$XCU	SEGMENT
?GImDefaultFontAtlas$initializer$@@3P6AXXZA DD FLAT:??__EGImDefaultFontAtlas@@YAXXZ ; GImDefaultFontAtlas$initializer$
CRT$XCU	ENDS
;	COMDAT __xmm@ffffffffffffffffffffffffffffffff
CONST	SEGMENT
__xmm@ffffffffffffffffffffffffffffffff DB 0ffH, 0ffH, 0ffH, 0ffH, 0ffH, 0ffH
	DB	0ffH, 0ffH, 0ffH, 0ffH, 0ffH, 0ffH, 0ffH, 0ffH, 0ffH, 0ffH
CONST	ENDS
;	COMDAT __xmm@ff7fffffff7fffff7f7fffff7f7fffff
CONST	SEGMENT
__xmm@ff7fffffff7fffff7f7fffff7f7fffff DB 0ffH, 0ffH, 07fH, 07fH, 0ffH, 0ffH
	DB	07fH, 07fH, 0ffH, 0ffH, 07fH, 0ffH, 0ffH, 0ffH, 07fH, 0ffH
CONST	ENDS
;	COMDAT __xmm@80000000800000008000000080000000
CONST	SEGMENT
__xmm@80000000800000008000000080000000 DB 00H, 00H, 00H, 080H, 00H, 00H, 00H
	DB	080H, 00H, 00H, 00H, 080H, 00H, 00H, 00H, 080H
CONST	ENDS
;	COMDAT __xmm@7fffffff7fffffff7fffffff7fffffff
CONST	SEGMENT
__xmm@7fffffff7fffffff7fffffff7fffffff DB 0ffH, 0ffH, 0ffH, 07fH, 0ffH, 0ffH
	DB	0ffH, 07fH, 0ffH, 0ffH, 0ffH, 07fH, 0ffH, 0ffH, 0ffH, 07fH
CONST	ENDS
;	COMDAT __xmm@7f7fffff7f7fffffff7fffffff7fffff
CONST	SEGMENT
__xmm@7f7fffff7f7fffffff7fffffff7fffff DB 0ffH, 0ffH, 07fH, 0ffH, 0ffH, 0ffH
	DB	07fH, 0ffH, 0ffH, 0ffH, 07fH, 07fH, 0ffH, 0ffH, 07fH, 07fH
CONST	ENDS
;	COMDAT __xmm@41f00000000000000000000000000000
CONST	SEGMENT
__xmm@41f00000000000000000000000000000 DB 00H, 00H, 00H, 00H, 00H, 00H, 00H
	DB	00H, 00H, 00H, 00H, 00H, 00H, 00H, 0f0H, 'A'
CONST	ENDS
;	COMDAT __xmm@3f8000003f8000003f8000003f800000
CONST	SEGMENT
__xmm@3f8000003f8000003f8000003f800000 DB 00H, 00H, 080H, '?', 00H, 00H, 080H
	DB	'?', 00H, 00H, 080H, '?', 00H, 00H, 080H, '?'
CONST	ENDS
;	COMDAT __xmm@3f8000003f6666663f6666663f666666
CONST	SEGMENT
__xmm@3f8000003f6666663f6666663f666666 DB 'fff?fff?fff?', 00H, 00H, 080H, '?'
CONST	ENDS
;	COMDAT __xmm@3f8000003f3333333f3333333f666666
CONST	SEGMENT
__xmm@3f8000003f3333333f3333333f666666 DB 'fff?333?333?', 00H, 00H, 080H, '?'
CONST	ENDS
;	COMDAT __xmm@3f8000003f3333333f3333333f333333
CONST	SEGMENT
__xmm@3f8000003f3333333f3333333f333333 DB '333?333?333?', 00H, 00H, 080H, '?'
CONST	ENDS
;	COMDAT __xmm@3f8000003f19999a3f19999a3f333333
CONST	SEGMENT
__xmm@3f8000003f19999a3f19999a3f333333 DB '333?', 09aH, 099H, 019H, '?', 09aH
	DB	099H, 019H, '?', 00H, 00H, 080H, '?'
CONST	ENDS
;	COMDAT __xmm@3f8000003f19999a3f19999a3f19999a
CONST	SEGMENT
__xmm@3f8000003f19999a3f19999a3f19999a DB 09aH, 099H, 019H, '?', 09aH, 099H
	DB	019H, '?', 09aH, 099H, 019H, '?', 00H, 00H, 080H, '?'
CONST	ENDS
;	COMDAT __xmm@3f8000003f0000003f0000003f4ccccd
CONST	SEGMENT
__xmm@3f8000003f0000003f0000003f4ccccd DB 0cdH, 0ccH, 'L?', 00H, 00H, 00H
	DB	'?', 00H, 00H, 00H, '?', 00H, 00H, 080H, '?'
CONST	ENDS
;	COMDAT __xmm@3f8000003f0000003f0000003f000000
CONST	SEGMENT
__xmm@3f8000003f0000003f0000003f000000 DB 00H, 00H, 00H, '?', 00H, 00H, 00H
	DB	'?', 00H, 00H, 00H, '?', 00H, 00H, 080H, '?'
CONST	ENDS
;	COMDAT __xmm@3f8000003ecccccd3ecccccd3f2b851f
CONST	SEGMENT
__xmm@3f8000003ecccccd3ecccccd3f2b851f DB 01fH, 085H, '+?', 0cdH, 0ccH, 0ccH
	DB	'>', 0cdH, 0ccH, 0ccH, '>', 00H, 00H, 080H, '?'
CONST	ENDS
;	COMDAT __xmm@3f8000003ec8c8ca3ec8c8ca3f800000
CONST	SEGMENT
__xmm@3f8000003ec8c8ca3ec8c8ca3f800000 DB 00H, 00H, 080H, '?', 0caH, 0c8H
	DB	0c8H, '>', 0caH, 0c8H, 0c8H, '>', 00H, 00H, 080H, '?'
CONST	ENDS
;	COMDAT __xmm@3f800000000000003f3333333f666666
CONST	SEGMENT
__xmm@3f800000000000003f3333333f666666 DB 'fff?333?', 00H, 00H, 00H, 00H, 00H
	DB	00H, 080H, '?'
CONST	ENDS
;	COMDAT __xmm@3f800000000000003f19999a3f800000
CONST	SEGMENT
__xmm@3f800000000000003f19999a3f800000 DB 00H, 00H, 080H, '?', 09aH, 099H
	DB	019H, '?', 00H, 00H, 00H, 00H, 00H, 00H, 080H, '?'
CONST	ENDS
;	COMDAT __xmm@3f7d70a43e4ccccd3e4ccccd3e4ccccd
CONST	SEGMENT
__xmm@3f7d70a43e4ccccd3e4ccccd3e4ccccd DB 0cdH, 0ccH, 'L>', 0cdH, 0ccH, 'L'
	DB	'>', 0cdH, 0ccH, 'L>', 0a4H, 'p}?'
CONST	ENDS
;	COMDAT __xmm@3f6666663f8000003f8000003f800000
CONST	SEGMENT
__xmm@3f6666663f8000003f8000003f800000 DB 00H, 00H, 080H, '?', 00H, 00H, 080H
	DB	'?', 00H, 00H, 080H, '?fff?'
CONST	ENDS
;	COMDAT __xmm@3f6666663dcccccd3d4ccccd3d4ccccd
CONST	SEGMENT
__xmm@3f6666663dcccccd3d4ccccd3d4ccccd DB 0cdH, 0ccH, 'L=', 0cdH, 0ccH, 'L'
	DB	'=', 0cdH, 0ccH, 0ccH, '=fff?'
CONST	ENDS
;	COMDAT __xmm@3f5eb8523f2666663ea8f5c33ea8f5c3
CONST	SEGMENT
__xmm@3f5eb8523f2666663ea8f5c33ea8f5c3 DB 0c3H, 0f5H, 0a8H, '>', 0c3H, 0f5H
	DB	0a8H, '>ff&?R', 0b8H, '^?'
CONST	ENDS
;	COMDAT __xmm@3f547ae13f0000003e75c28f3e75c28f
CONST	SEGMENT
__xmm@3f547ae13f0000003e75c28f3e75c28f DB 08fH, 0c2H, 'u>', 08fH, 0c2H, 'u'
	DB	'>', 00H, 00H, 00H, '?', 0e1H, 'zT?'
CONST	ENDS
;	COMDAT __xmm@3f4ccccd3f6666663ee666663ee66666
CONST	SEGMENT
__xmm@3f4ccccd3f6666663ee666663ee66666 DB 'ff', 0e6H, '>ff', 0e6H, '>fff?'
	DB	0cdH, 0ccH, 'L?'
CONST	ENDS
;	COMDAT __xmm@3f4ccccd3f5eb8523f07ae143f07ae14
CONST	SEGMENT
__xmm@3f4ccccd3f5eb8523f07ae143f07ae14 DB 014H, 0aeH, 07H, '?', 014H, 0aeH
	DB	07H, '?R', 0b8H, '^?', 0cdH, 0ccH, 'L?'
CONST	ENDS
;	COMDAT __xmm@3f4ccccd3f0ccccd3ecccccd3ecccccd
CONST	SEGMENT
__xmm@3f4ccccd3f0ccccd3ecccccd3ecccccd DB 0cdH, 0ccH, 0ccH, '>', 0cdH, 0ccH
	DB	0ccH, '>', 0cdH, 0ccH, 0cH, '?', 0cdH, 0ccH, 'L?'
CONST	ENDS
;	COMDAT __xmm@3f333333000000000000000000000000
CONST	SEGMENT
__xmm@3f333333000000000000000000000000 DB 00H, 00H, 00H, 00H, 00H, 00H, 00H
	DB	00H, 00H, 00H, 00H, 00H, '333?'
CONST	ENDS
;	COMDAT __xmm@3f2666663f3333333f3333333f333333
CONST	SEGMENT
__xmm@3f2666663f3333333f3333333f333333 DB '333?333?333?ff&?'
CONST	ENDS
;	COMDAT __xmm@3f19999a3f8000003f8000003f800000
CONST	SEGMENT
__xmm@3f19999a3f8000003f8000003f800000 DB 00H, 00H, 080H, '?', 00H, 00H, 080H
	DB	'?', 00H, 00H, 080H, '?', 09aH, 099H, 019H, '?'
CONST	ENDS
;	COMDAT __xmm@3f19999a3f6666663f3333333f333333
CONST	SEGMENT
__xmm@3f19999a3f6666663f3333333f333333 DB '333?333?fff?', 09aH, 099H, 019H
	DB	'?'
CONST	ENDS
;	COMDAT __xmm@3f19999a3ecccccd3ecccccd3f2b851f
CONST	SEGMENT
__xmm@3f19999a3ecccccd3ecccccd3f2b851f DB 01fH, 085H, '+?', 0cdH, 0ccH, 0ccH
	DB	'>', 0cdH, 0ccH, 0ccH, '>', 09aH, 099H, 019H, '?'
CONST	ENDS
;	COMDAT __xmm@3f19999a3e99999a3e8000003e4ccccd
CONST	SEGMENT
__xmm@3f19999a3e99999a3e8000003e4ccccd DB 0cdH, 0ccH, 'L>', 00H, 00H, 080H
	DB	'>', 09aH, 099H, 099H, '>', 09aH, 099H, 019H, '?'
CONST	ENDS
;	COMDAT __xmm@3f0000003f6666663f6666663f666666
CONST	SEGMENT
__xmm@3f0000003f6666663f6666663f666666 DB 'fff?fff?fff?', 00H, 00H, 00H, '?'
CONST	ENDS
;	COMDAT __xmm@3f0000003f6666663f0000003f000000
CONST	SEGMENT
__xmm@3f0000003f6666663f0000003f000000 DB 00H, 00H, 00H, '?', 00H, 00H, 00H
	DB	'?fff?', 00H, 00H, 00H, '?'
CONST	ENDS
;	COMDAT __xmm@3ee666663f6666663ecccccd3ecccccd
CONST	SEGMENT
__xmm@3ee666663f6666663ecccccd3ecccccd DB 0cdH, 0ccH, 0ccH, '>', 0cdH, 0ccH
	DB	0ccH, '>fff?ff', 0e6H, '>'
CONST	ENDS
;	COMDAT __xmm@3ee666663f2666663f2666663f666666
CONST	SEGMENT
__xmm@3ee666663f2666663f2666663f666666 DB 'fff?ff&?ff&?ff', 0e6H, '>'
CONST	ENDS
;	COMDAT __xmm@3ecccccd3f4ccccd3f4ccccd3f666666
CONST	SEGMENT
__xmm@3ecccccd3f4ccccd3f4ccccd3f666666 DB 'fff?', 0cdH, 0ccH, 'L?', 0cdH, 0ccH
	DB	'L?', 0cdH, 0ccH, 0ccH, '>'
CONST	ENDS
;	COMDAT __xmm@3ecccccd3f4ccccd3ecccccd3ecccccd
CONST	SEGMENT
__xmm@3ecccccd3f4ccccd3ecccccd3ecccccd DB 0cdH, 0ccH, 0ccH, '>', 0cdH, 0ccH
	DB	0ccH, '>', 0cdH, 0ccH, 'L?', 0cdH, 0ccH, 0ccH, '>'
CONST	ENDS
;	COMDAT __xmm@3ecccccd3f0000003f0000003f4ccccd
CONST	SEGMENT
__xmm@3ecccccd3f0000003f0000003f4ccccd DB 0cdH, 0ccH, 'L?', 00H, 00H, 00H
	DB	'?', 00H, 00H, 00H, '?', 0cdH, 0ccH, 0ccH, '>'
CONST	ENDS
;	COMDAT __xmm@3eb333333f8000000000000000000000
CONST	SEGMENT
__xmm@3eb333333f8000000000000000000000 DB 00H, 00H, 00H, 00H, 00H, 00H, 00H
	DB	00H, 00H, 00H, 080H, '?33', 0b3H, '>'
CONST	ENDS
;	COMDAT __xmm@3eb333333e4ccccd3e4ccccd3e4ccccd
CONST	SEGMENT
__xmm@3eb333333e4ccccd3e4ccccd3e4ccccd DB 0cdH, 0ccH, 'L>', 0cdH, 0ccH, 'L'
	DB	'>', 0cdH, 0ccH, 'L>33', 0b3H, '>'
CONST	ENDS
;	COMDAT __xmm@3e99999a3f8000003f8000003f800000
CONST	SEGMENT
__xmm@3e99999a3f8000003f8000003f800000 DB 00H, 00H, 080H, '?', 00H, 00H, 080H
	DB	'?', 00H, 00H, 080H, '?', 09aH, 099H, 099H, '>'
CONST	ENDS
;	COMDAT __xmm@3e99999a3f4ccccd3f4ccccd3f4ccccd
CONST	SEGMENT
__xmm@3e99999a3f4ccccd3f4ccccd3f4ccccd DB 0cdH, 0ccH, 'L?', 0cdH, 0ccH, 'L'
	DB	'?', 0cdH, 0ccH, 'L?', 09aH, 099H, 099H, '>'
CONST	ENDS
;	COMDAT __xmm@3e99999a3f4ccccd3ecccccd3ecccccd
CONST	SEGMENT
__xmm@3e99999a3f4ccccd3ecccccd3ecccccd DB 0cdH, 0ccH, 0ccH, '>', 0cdH, 0ccH
	DB	0ccH, '>', 0cdH, 0ccH, 'L?', 09aH, 099H, 099H, '>'
CONST	ENDS
;	COMDAT __xmm@3e4ccccd3f4ccccd3ecccccd3ecccccd
CONST	SEGMENT
__xmm@3e4ccccd3f4ccccd3ecccccd3ecccccd DB 0cdH, 0ccH, 0ccH, '>', 0cdH, 0ccH
	DB	0ccH, '>', 0cdH, 0ccH, 'L?', 0cdH, 0ccH, 'L>'
CONST	ENDS
;	COMDAT __xmm@3df5c28f3f8000003f8000003f800000
CONST	SEGMENT
__xmm@3df5c28f3f8000003f8000003f800000 DB 00H, 00H, 080H, '?', 00H, 00H, 080H
	DB	'?', 00H, 00H, 080H, '?', 08fH, 0c2H, 0f5H, '='
CONST	ENDS
;	COMDAT __xmm@3b8080813b8080813b8080813b808081
CONST	SEGMENT
__xmm@3b8080813b8080813b8080813b808081 DB 081H, 080H, 080H, ';', 081H, 080H
	DB	080H, ';', 081H, 080H, 080H, ';', 081H, 080H, 080H, ';'
CONST	ENDS
;	COMDAT __real@ff7fffff
CONST	SEGMENT
__real@ff7fffff DD 0ff7fffffr			; -3.40282e+38
CONST	ENDS
;	COMDAT __real@c2c80000
CONST	SEGMENT
__real@c2c80000 DD 0c2c80000r			; -100
CONST	ENDS
;	COMDAT __real@c0000000
CONST	SEGMENT
__real@c0000000 DD 0c0000000r			; -2
CONST	ENDS
;	COMDAT __real@bf800000
CONST	SEGMENT
__real@bf800000 DD 0bf800000r			; -1
CONST	ENDS
;	COMDAT __real@bf5db22d
CONST	SEGMENT
__real@bf5db22d DD 0bf5db22dr			; -0.866
CONST	ENDS
;	COMDAT __real@bf000000
CONST	SEGMENT
__real@bf000000 DD 0bf000000r			; -0.5
CONST	ENDS
;	COMDAT __real@beaaaaab
CONST	SEGMENT
__real@beaaaaab DD 0beaaaaabr			; -0.333333
CONST	ENDS
;	COMDAT __real@7f7fffff
CONST	SEGMENT
__real@7f7fffff DD 07f7fffffr			; 3.40282e+38
CONST	ENDS
;	COMDAT __real@46fffe00
CONST	SEGMENT
__real@46fffe00 DD 046fffe00r			; 32767
CONST	ENDS
;	COMDAT __real@461c3c00
CONST	SEGMENT
__real@461c3c00 DD 0461c3c00r			; 9999
CONST	ENDS
;	COMDAT __real@45f54800
CONST	SEGMENT
__real@45f54800 DD 045f54800r			; 7849
CONST	ENDS
;	COMDAT __real@447a0000
CONST	SEGMENT
__real@447a0000 DD 0447a0000r			; 1000
CONST	ENDS
;	COMDAT __real@44160000
CONST	SEGMENT
__real@44160000 DD 044160000r			; 600
CONST	ENDS
;	COMDAT __real@437f0000
CONST	SEGMENT
__real@437f0000 DD 0437f0000r			; 255
CONST	ENDS
;	COMDAT __real@42f00000
CONST	SEGMENT
__real@42f00000 DD 042f00000r			; 120
CONST	ENDS
;	COMDAT __real@42c80000
CONST	SEGMENT
__real@42c80000 DD 042c80000r			; 100
CONST	ENDS
;	COMDAT __real@42652ee0
CONST	SEGMENT
__real@42652ee0 DD 042652ee0r			; 57.2958
CONST	ENDS
;	COMDAT __real@41f00000
CONST	SEGMENT
__real@41f00000 DD 041f00000r			; 30
CONST	ENDS
;	COMDAT __real@41c00000
CONST	SEGMENT
__real@41c00000 DD 041c00000r			; 24
CONST	ENDS
;	COMDAT __real@41a00000
CONST	SEGMENT
__real@41a00000 DD 041a00000r			; 20
CONST	ENDS
;	COMDAT __real@41800000
CONST	SEGMENT
__real@41800000 DD 041800000r			; 16
CONST	ENDS
;	COMDAT __real@41200000
CONST	SEGMENT
__real@41200000 DD 041200000r			; 10
CONST	ENDS
;	COMDAT __real@41000000
CONST	SEGMENT
__real@41000000 DD 041000000r			; 8
CONST	ENDS
;	COMDAT __real@40eccccd
CONST	SEGMENT
__real@40eccccd DD 040eccccdr			; 7.4
CONST	ENDS
;	COMDAT __real@40c90fdb
CONST	SEGMENT
__real@40c90fdb DD 040c90fdbr			; 6.28319
CONST	ENDS
;	COMDAT __real@40c00000
CONST	SEGMENT
__real@40c00000 DD 040c00000r			; 6
CONST	ENDS
;	COMDAT __real@40a00000
CONST	SEGMENT
__real@40a00000 DD 040a00000r			; 5
CONST	ENDS
;	COMDAT __real@40800000
CONST	SEGMENT
__real@40800000 DD 040800000r			; 4
CONST	ENDS
;	COMDAT __real@40400000
CONST	SEGMENT
__real@40400000 DD 040400000r			; 3
CONST	ENDS
;	COMDAT __real@40200000
CONST	SEGMENT
__real@40200000 DD 040200000r			; 2.5
CONST	ENDS
;	COMDAT __real@40000000
CONST	SEGMENT
__real@40000000 DD 040000000r			; 2
CONST	ENDS
;	COMDAT __real@3fc00000
CONST	SEGMENT
__real@3fc00000 DD 03fc00000r			; 1.5
CONST	ENDS
;	COMDAT __real@3faccccd
CONST	SEGMENT
__real@3faccccd DD 03faccccdr			; 1.35
CONST	ENDS
;	COMDAT __real@3f99999a
CONST	SEGMENT
__real@3f99999a DD 03f99999ar			; 1.2
CONST	ENDS
;	COMDAT __real@3f800054
CONST	SEGMENT
__real@3f800054 DD 03f800054r			; 1.00001
CONST	ENDS
;	COMDAT __real@3f800000
CONST	SEGMENT
__real@3f800000 DD 03f800000r			; 1
CONST	ENDS
;	COMDAT __real@3f7fff58
CONST	SEGMENT
__real@3f7fff58 DD 03f7fff58r			; 0.99999
CONST	ENDS
;	COMDAT __real@3f7ff972
CONST	SEGMENT
__real@3f7ff972 DD 03f7ff972r			; 0.9999
CONST	ENDS
;	COMDAT __real@3f733333
CONST	SEGMENT
__real@3f733333 DD 03f733333r			; 0.95
CONST	ENDS
;	COMDAT __real@3f5db22d
CONST	SEGMENT
__real@3f5db22d DD 03f5db22dr			; 0.866
CONST	ENDS
;	COMDAT __real@3f4ccccd
CONST	SEGMENT
__real@3f4ccccd DD 03f4ccccdr			; 0.8
CONST	ENDS
;	COMDAT __real@3f400000
CONST	SEGMENT
__real@3f400000 DD 03f400000r			; 0.75
CONST	ENDS
;	COMDAT __real@3f350481
CONST	SEGMENT
__real@3f350481 DD 03f350481r			; 0.7071
CONST	ENDS
;	COMDAT __real@3f266666
CONST	SEGMENT
__real@3f266666 DD 03f266666r			; 0.65
CONST	ENDS
;	COMDAT __real@3f000000
CONST	SEGMENT
__real@3f000000 DD 03f000000r			; 0.5
CONST	ENDS
;	COMDAT __real@3ecccccd
CONST	SEGMENT
__real@3ecccccd DD 03ecccccdr			; 0.4
CONST	ENDS
;	COMDAT __real@3eaaaaab
CONST	SEGMENT
__real@3eaaaaab DD 03eaaaaabr			; 0.333333
CONST	ENDS
;	COMDAT __real@3e9eb852
CONST	SEGMENT
__real@3e9eb852 DD 03e9eb852r			; 0.31
CONST	ENDS
;	COMDAT __real@3e9d2f1b
CONST	SEGMENT
__real@3e9d2f1b DD 03e9d2f1br			; 0.307
CONST	ENDS
;	COMDAT __real@3e99999a
CONST	SEGMENT
__real@3e99999a DD 03e99999ar			; 0.3
CONST	ENDS
;	COMDAT __real@3e800000
CONST	SEGMENT
__real@3e800000 DD 03e800000r			; 0.25
CONST	ENDS
;	COMDAT __real@3e4ccccd
CONST	SEGMENT
__real@3e4ccccd DD 03e4ccccdr			; 0.2
CONST	ENDS
;	COMDAT __real@3e2aaaab
CONST	SEGMENT
__real@3e2aaaab DD 03e2aaaabr			; 0.166667
CONST	ENDS
;	COMDAT __real@3e19999a
CONST	SEGMENT
__real@3e19999a DD 03e19999ar			; 0.15
CONST	ENDS
;	COMDAT __real@3dcccccd
CONST	SEGMENT
__real@3dcccccd DD 03dcccccdr			; 0.1
CONST	ENDS
;	COMDAT __real@3c23d70a
CONST	SEGMENT
__real@3c23d70a DD 03c23d70ar			; 0.01
CONST	ENDS
;	COMDAT __real@3b91a2b4
CONST	SEGMENT
__real@3b91a2b4 DD 03b91a2b4r			; 0.00444444
CONST	ENDS
;	COMDAT __real@3b808081
CONST	SEGMENT
__real@3b808081 DD 03b808081r			; 0.00392157
CONST	ENDS
;	COMDAT __real@3b360b61
CONST	SEGMENT
__real@3b360b61 DD 03b360b61r			; 0.00277778
CONST	ENDS
;	COMDAT __real@3a83126f
CONST	SEGMENT
__real@3a83126f DD 03a83126fr			; 0.001
CONST	ENDS
;	COMDAT __real@38d1b717
CONST	SEGMENT
__real@38d1b717 DD 038d1b717r			; 0.0001
CONST	ENDS
;	COMDAT __real@38285303
CONST	SEGMENT
__real@38285303 DD 038285303r			; 4.01316e-05
CONST	ENDS
;	COMDAT __real@38000100
CONST	SEGMENT
__real@38000100 DD 038000100r			; 3.05185e-05
CONST	ENDS
;	COMDAT __real@3727c5ac
CONST	SEGMENT
__real@3727c5ac DD 03727c5acr			; 1e-05
CONST	ENDS
;	COMDAT __real@358637bd
CONST	SEGMENT
__real@358637bd DD 0358637bdr			; 1e-06
CONST	ENDS
;	COMDAT __real@1e3ce508
CONST	SEGMENT
__real@1e3ce508 DD 01e3ce508r			; 1e-20
CONST	ENDS
;	COMDAT __real@00800000
CONST	SEGMENT
__real@00800000 DD 000800000r			; 1.17549e-38
CONST	ENDS
;	COMDAT __real@00000000
CONST	SEGMENT
__real@00000000 DD 000000000r			; 0
CONST	ENDS
;	COMDAT ??_C@_0BI@CFPLBAOH@invalid?5string?5position?$AA@
CONST	SEGMENT
??_C@_0BI@CFPLBAOH@invalid?5string?5position?$AA@ DB 'invalid string posi'
	DB	'tion', 00H					; `string'
CONST	ENDS
;	COMDAT ??_C@_0BA@JFNIOLAK@string?5too?5long?$AA@
CONST	SEGMENT
??_C@_0BA@JFNIOLAK@string?5too?5long?$AA@ DB 'string too long', 00H ; `string'
CONST	ENDS
;	COMDAT ?last_state@?1??SK_ImGui_PollGamepad@@YAXXZ@4U_XINPUT_STATE@@A
_DATA	SEGMENT
?last_state@?1??SK_ImGui_PollGamepad@@YAXXZ@4U_XINPUT_STATE@@A DD 01H ; `SK_ImGui_PollGamepad'::`2'::last_state
	DW	00H
	ORG $+10
_DATA	ENDS
;	COMDAT ?dwLastPress@?O@??SK_ImGui_PollGamepad_EndFrame@@YAXXZ@4KA
_DATA	SEGMENT
?dwLastPress@?O@??SK_ImGui_PollGamepad_EndFrame@@YAXXZ@4KA DD 0ffffffffH ; `SK_ImGui_PollGamepad_EndFrame'::`14'::dwLastPress
_DATA	ENDS
;	COMDAT ?last_state@?1??SK_ImGui_PollGamepad_EndFrame@@YAXXZ@4U_XINPUT_STATE@@A
_DATA	SEGMENT
?last_state@?1??SK_ImGui_PollGamepad_EndFrame@@YAXXZ@4U_XINPUT_STATE@@A DD 01H ; `SK_ImGui_PollGamepad_EndFrame'::`2'::last_state
	DW	00H
	ORG $+10
_DATA	ENDS
_DATA	SEGMENT
	ORG $+2
?haptic_events@@3U<unnamed-type-haptic_events>@@A DD 043af0000r ; 350 ; haptic_events
	DD	03f800000r			; 1
	DD	000000000r			; 0
	DD	000000000r			; 0
	DD	042aa0000r			; 85
	DD	03f000000r			; 0.5
	DD	000000000r			; 0
	DD	000000000r			; 0
	DD	042700000r			; 60
	DD	03c75c28fr			; 0.015
	DD	000000000r			; 0
	DD	000000000r			; 0
_DATA	ENDS
;	COMDAT ??_C@_1FE@DBJNABHE@?$AAR?$AAe?$AAm?$AAo?$AAv?$AAe?$AAd?$AA?5?$AAW?$AAM?$AA_?$AAA?$AAP?$AAP?$AAC?$AAO?$AAM?$AAM?$AAA?$AAN?$AAD?$AA?5?$AAM?$AAo?$AAu?$AAs?$AAe?$AA?5?$AAD?$AAe?$AAl?$AAt@
CONST	SEGMENT
??_C@_1FE@DBJNABHE@?$AAR?$AAe?$AAm?$AAo?$AAv?$AAe?$AAd?$AA?5?$AAW?$AAM?$AA_?$AAA?$AAP?$AAP?$AAC?$AAO?$AAM?$AAM?$AAA?$AAN?$AAD?$AA?5?$AAM?$AAo?$AAu?$AAs?$AAe?$AA?5?$AAD?$AAe?$AAl?$AAt@ DB 'R'
	DB	00H, 'e', 00H, 'm', 00H, 'o', 00H, 'v', 00H, 'e', 00H, 'd', 00H
	DB	' ', 00H, 'W', 00H, 'M', 00H, '_', 00H, 'A', 00H, 'P', 00H, 'P'
	DB	00H, 'C', 00H, 'O', 00H, 'M', 00H, 'M', 00H, 'A', 00H, 'N', 00H
	DB	'D', 00H, ' ', 00H, 'M', 00H, 'o', 00H, 'u', 00H, 's', 00H, 'e'
	DB	00H, ' ', 00H, 'D', 00H, 'e', 00H, 'l', 00H, 't', 00H, 'a', 00H
	DB	' ', 00H, 'F', 00H, 'a', 00H, 'i', 00H, 'l', 00H, 'u', 00H, 'r'
	DB	00H, 'e', 00H, 00H, 00H			; `string'
CONST	ENDS
;	COMDAT ??_C@_1DE@HMFBBKJG@?$AAW?$AAM?$AA_?$AAA?$AAP?$AAP?$AAC?$AAO?$AAM?$AAM?$AAA?$AAN?$AAD?$AA?5?$AAM?$AAo?$AAu?$AAs?$AAe?$AA?5?$AAE?$AAv?$AAe?$AAn?$AAt?$AA?$AA@
CONST	SEGMENT
??_C@_1DE@HMFBBKJG@?$AAW?$AAM?$AA_?$AAA?$AAP?$AAP?$AAC?$AAO?$AAM?$AAM?$AAA?$AAN?$AAD?$AA?5?$AAM?$AAo?$AAu?$AAs?$AAe?$AA?5?$AAE?$AAv?$AAe?$AAn?$AAt?$AA?$AA@ DB 'W'
	DB	00H, 'M', 00H, '_', 00H, 'A', 00H, 'P', 00H, 'P', 00H, 'C', 00H
	DB	'O', 00H, 'M', 00H, 'M', 00H, 'A', 00H, 'N', 00H, 'D', 00H, ' '
	DB	00H, 'M', 00H, 'o', 00H, 'u', 00H, 's', 00H, 'e', 00H, ' ', 00H
	DB	'E', 00H, 'v', 00H, 'e', 00H, 'n', 00H, 't', 00H, 00H, 00H ; `string'
CONST	ENDS
;	COMDAT ??_C@_1EE@HBEADAKP@?$AAR?$AAe?$AAm?$AAo?$AAv?$AAe?$AAd?$AA?5?$AAW?$AAM?$AA_?$AAA?$AAP?$AAP?$AAC?$AAO?$AAM?$AAM?$AAA?$AAN?$AAD?$AA?5?$AAM?$AAo?$AAu?$AAs?$AAe?$AA?5?$AAE?$AAv?$AAe?$AAn@
CONST	SEGMENT
??_C@_1EE@HBEADAKP@?$AAR?$AAe?$AAm?$AAo?$AAv?$AAe?$AAd?$AA?5?$AAW?$AAM?$AA_?$AAA?$AAP?$AAP?$AAC?$AAO?$AAM?$AAM?$AAA?$AAN?$AAD?$AA?5?$AAM?$AAo?$AAu?$AAs?$AAe?$AA?5?$AAE?$AAv?$AAe?$AAn@ DB 'R'
	DB	00H, 'e', 00H, 'm', 00H, 'o', 00H, 'v', 00H, 'e', 00H, 'd', 00H
	DB	' ', 00H, 'W', 00H, 'M', 00H, '_', 00H, 'A', 00H, 'P', 00H, 'P'
	DB	00H, 'C', 00H, 'O', 00H, 'M', 00H, 'M', 00H, 'A', 00H, 'N', 00H
	DB	'D', 00H, ' ', 00H, 'M', 00H, 'o', 00H, 'u', 00H, 's', 00H, 'e'
	DB	00H, ' ', 00H, 'E', 00H, 'v', 00H, 'e', 00H, 'n', 00H, 't', 00H
	DB	00H, 00H					; `string'
CONST	ENDS
;	COMDAT ??_C@_1DK@BLGEDKBM@?$AAW?$AAM?$AA_?$AAA?$AAP?$AAP?$AAC?$AAO?$AAM?$AAM?$AAA?$AAN?$AAD?$AA?5?$AAK?$AAe?$AAy?$AAb?$AAo?$AAa?$AAr?$AAd?$AA?5?$AAE?$AAv?$AAe?$AAn?$AAt?$AA?$AA@
CONST	SEGMENT
??_C@_1DK@BLGEDKBM@?$AAW?$AAM?$AA_?$AAA?$AAP?$AAP?$AAC?$AAO?$AAM?$AAM?$AAA?$AAN?$AAD?$AA?5?$AAK?$AAe?$AAy?$AAb?$AAo?$AAa?$AAr?$AAd?$AA?5?$AAE?$AAv?$AAe?$AAn?$AAt?$AA?$AA@ DB 'W'
	DB	00H, 'M', 00H, '_', 00H, 'A', 00H, 'P', 00H, 'P', 00H, 'C', 00H
	DB	'O', 00H, 'M', 00H, 'M', 00H, 'A', 00H, 'N', 00H, 'D', 00H, ' '
	DB	00H, 'K', 00H, 'e', 00H, 'y', 00H, 'b', 00H, 'o', 00H, 'a', 00H
	DB	'r', 00H, 'd', 00H, ' ', 00H, 'E', 00H, 'v', 00H, 'e', 00H, 'n'
	DB	00H, 't', 00H, 00H, 00H			; `string'
CONST	ENDS
;	COMDAT ?window_active@?1???R<lambda_34955bda5757b6d1afe210935814f65c>@@QBE_NPAUHWND__@@IIJ@Z@4_NA
_DATA	SEGMENT
?window_active@?1???R<lambda_34955bda5757b6d1afe210935814f65c>@@QBE_NPAUHWND__@@IIJ@Z@4_NA DB 01H ; `<lambda_34955bda5757b6d1afe210935814f65c>::operator()'::`2'::window_active
_DATA	ENDS
;	COMDAT ??_C@_06OMAMIPPI@?$CFws?2?$CFs?$AA@
CONST	SEGMENT
??_C@_06OMAMIPPI@?$CFws?2?$CFs?$AA@ DB '%ws\%s', 00H	; `string'
CONST	ENDS
;	COMDAT ?ranges@?1??SK_ImGui_GetGlyphRangesDefaultEx@@YAPBGXZ@4QBGB
CONST	SEGMENT
?ranges@?1??SK_ImGui_GetGlyphRangesDefaultEx@@YAPBGXZ@4QBGB DW 020H ; `SK_ImGui_GetGlyphRangesDefaultEx'::`2'::ranges
	DW	0ffH
	DW	0100H
	DW	03ffH
	DW	02000H
	DW	0206fH
	DW	02100H
	DW	021ffH
	DW	02600H
	DW	026ffH
	DW	02700H
	DW	027bfH
	DW	00H
CONST	ENDS
;	COMDAT ??_C@_0BC@PDGNHIHG@Storage?3?5?$CFd?5bytes?$AA@
CONST	SEGMENT
??_C@_0BC@PDGNHIHG@Storage?3?5?$CFd?5bytes?$AA@ DB 'Storage: %d bytes', 00H ; `string'
CONST	ENDS
;	COMDAT ??_C@_0N@BGDHDNPO@ChildWindows?$AA@
CONST	SEGMENT
??_C@_0N@BGDHDNPO@ChildWindows?$AA@ DB 'ChildWindows', 00H ; `string'
CONST	ENDS
;	COMDAT ??_C@_0L@EHLMOHOL@RootWindow?$AA@
CONST	SEGMENT
??_C@_0L@EHLMOHOL@RootWindow?$AA@ DB 'RootWindow', 00H	; `string'
CONST	ENDS
;	COMDAT ??_C@_0CN@NNMFALIK@NavLastId?3?50x?$CF08x?0?5NavLayerActiv@
CONST	SEGMENT
??_C@_0CN@NNMFALIK@NavLastId?3?50x?$CF08x?0?5NavLayerActiv@ DB 'NavLastId'
	DB	': 0x%08x, NavLayerActiveFlags: %02X', 00H	; `string'
CONST	ENDS
;	COMDAT ??_C@_0BE@LFBJHAFP@Scroll?3?5?$CI?$CF?42f?0?$CF?42f?$CJ?$AA@
CONST	SEGMENT
??_C@_0BE@LFBJHAFP@Scroll?3?5?$CI?$CF?42f?0?$CF?42f?$CJ?$AA@ DB 'Scroll: '
	DB	'(%.2f,%.2f)', 00H				; `string'
CONST	ENDS
;	COMDAT ??_C@_0CM@FNPKCFJC@Size?3?5?$CI?$CF?41f?0?$CF?41f?$CJ?0?5SizeContents?5@
CONST	SEGMENT
??_C@_0CM@FNPKCFJC@Size?3?5?$CI?$CF?41f?0?$CF?41f?$CJ?0?5SizeContents?5@ DB 'S'
	DB	'ize: (%.1f,%.1f), SizeContents (%.1f,%.1f)', 00H ; `string'
CONST	ENDS
;	COMDAT ??_C@_0BB@OALIFMJB@Pos?3?5?$CI?$CF?41f?0?$CF?41f?$CJ?$AA@
CONST	SEGMENT
??_C@_0BB@OALIFMJB@Pos?3?5?$CI?$CF?41f?0?$CF?41f?$CJ?$AA@ DB 'Pos: (%.1f,'
	DB	'%.1f)', 00H					; `string'
CONST	ENDS
;	COMDAT ??_C@_08IJNCDCKF@DrawList?$AA@
CONST	SEGMENT
??_C@_08IJNCDCKF@DrawList?$AA@ DB 'DrawList', 00H	; `string'
CONST	ENDS
;	COMDAT ??_C@_0BD@KOKNLAED@?$CFs?5?8?$CFs?8?0?5?$CFd?5?$EA?50x?$CFp?$AA@
CONST	SEGMENT
??_C@_0BD@KOKNLAED@?$CFs?5?8?$CFs?8?0?5?$CFd?5?$EA?50x?$CFp?$AA@ DB '%s '''
	DB	'%s'', %d @ 0x%p', 00H			; `string'
CONST	ENDS
;	COMDAT ??_C@_06BKKJGDHO@Window?$AA@
CONST	SEGMENT
??_C@_06BKKJGDHO@Window?$AA@ DB 'Window', 00H		; `string'
CONST	ENDS
;	COMDAT ??_C@_07JMKCEEPK@?$CFs?5?$CI?$CFd?$CJ?$AA@
CONST	SEGMENT
??_C@_07JMKCEEPK@?$CFs?5?$CI?$CFd?$CJ?$AA@ DB '%s (%d)', 00H ; `string'
CONST	ENDS
;	COMDAT ??_C@_0DP@LIPFHOCP@?$CFs?5?$CF04d?5?$HL?5pos?5?$DN?5?$CI?$CF8?42f?0?$CF8?42f?$CJ?0?5u@
CONST	SEGMENT
??_C@_0DP@LIPFHOCP@?$CFs?5?$CF04d?5?$HL?5pos?5?$DN?5?$CI?$CF8?42f?0?$CF8?42f?$CJ?0?5u@ DB '%'
	DB	's %04d { pos = (%8.2f,%8.2f), uv = (%.6f,%.6f), col = %08X }', 0aH
	DB	00H						; `string'
CONST	ENDS
;	COMDAT ??_C@_03NDEAONJP@?5?5?5?$AA@
CONST	SEGMENT
??_C@_03NDEAONJP@?5?5?5?$AA@ DB '   ', 00H		; `string'
CONST	ENDS
;	COMDAT ??_C@_03CEPBOMNB@vtx?$AA@
CONST	SEGMENT
??_C@_03CEPBOMNB@vtx?$AA@ DB 'vtx', 00H			; `string'
CONST	ENDS
;	COMDAT ??_C@_0EB@GBKAKAEN@Draw?5?$CF?94d?5?$CFs?5vtx?0?5tex?5?$DN?5?$CFp?0?5clip@
CONST	SEGMENT
??_C@_0EB@GBKAKAEN@Draw?5?$CF?94d?5?$CFs?5vtx?0?5tex?5?$DN?5?$CFp?0?5clip@ DB 'D'
	DB	'raw %-4d %s vtx, tex = %p, clip_rect = (%.0f,%.0f)..(%.0f,%.0'
	DB	'f)', 00H					; `string'
CONST	ENDS
;	COMDAT ??_C@_0M@NGJKDAN@non?9indexed?$AA@
CONST	SEGMENT
??_C@_0M@NGJKDAN@non?9indexed?$AA@ DB 'non-indexed', 00H ; `string'
CONST	ENDS
;	COMDAT ??_C@_07KNEBDGNE@indexed?$AA@
CONST	SEGMENT
??_C@_07KNEBDGNE@indexed?$AA@ DB 'indexed', 00H		; `string'
CONST	ENDS
;	COMDAT ??_C@_0BK@FDNBBNBF@Callback?5?$CFp?0?5user_data?5?$CFp?$AA@
CONST	SEGMENT
??_C@_0BK@FDNBBNBF@Callback?5?$CFp?0?5user_data?5?$CFp?$AA@ DB 'Callback '
	DB	'%p, user_data %p', 00H			; `string'
CONST	ENDS
;	COMDAT ??_C@_0BE@LDCFEMCB@CURRENTLY?5APPENDING?$AA@
CONST	SEGMENT
??_C@_0BE@LDCFEMCB@CURRENTLY?5APPENDING?$AA@ DB 'CURRENTLY APPENDING', 00H ; `string'
CONST	ENDS
;	COMDAT ??_C@_0CF@IMBENNLG@?$CFs?3?5?8?$CFs?8?5?$CFd?5vtx?0?5?$CFd?5indices?0?5?$CFd?5@
CONST	SEGMENT
??_C@_0CF@IMBENNLG@?$CFs?3?5?8?$CFs?8?5?$CFd?5vtx?0?5?$CFd?5indices?0?5?$CFd?5@ DB '%'
	DB	's: ''%s'' %d vtx, %d indices, %d cmds', 00H	; `string'
CONST	ENDS
;	COMDAT ?show_clip_rects@?4??ShowMetricsWindow@ImGui@@YAXPA_N@Z@4_NA
_DATA	SEGMENT
?show_clip_rects@?4??ShowMetricsWindow@ImGui@@YAXPA_N@Z@4_NA DB 01H ; `ImGui::ShowMetricsWindow'::`5'::show_clip_rects
_DATA	ENDS
;	COMDAT ?min_steps@?1??GetMinimumStepAtDecimalPrecision@@YAMH@Z@4QBMB
CONST	SEGMENT
?min_steps@?1??GetMinimumStepAtDecimalPrecision@@YAMH@Z@4QBMB DD 03f800000r ; 1 ; `GetMinimumStepAtDecimalPrecision'::`2'::min_steps
	DD	03dcccccdr			; 0.1
	DD	03c23d70ar			; 0.01
	DD	03a83126fr			; 0.001
	DD	038d1b717r			; 0.0001
	DD	03727c5acr			; 1e-05
	DD	0358637bdr			; 1e-06
	DD	033d6bf95r			; 1e-07
	DD	0322bcc77r			; 1e-08
	DD	03089705fr			; 1e-09
CONST	ENDS
;	COMDAT ??_C@_00CNPNBAHC@?$AA@
CONST	SEGMENT
??_C@_00CNPNBAHC@?$AA@ DB 00H				; `string'
CONST	ENDS
;	COMDAT ??_C@_09GBFFKCDJ@?$CD?$CDOverlay?$AA@
CONST	SEGMENT
??_C@_09GBFFKCDJ@?$CD?$CDOverlay?$AA@ DB '##Overlay', 00H ; `string'
CONST	ENDS
;	COMDAT xdata$x
xdata$x	SEGMENT
__unwindtable$??R<lambda_7a12fd051827e0f33bd65ef841f2c8b8>@@QBEPAUImFont@@V?$basic_string@DU?$char_traits@D@std@@V?$allocator@D@2@@std@@MPBGPAUImFontConfig@@@Z DD 0ffffffffH
	DD	FLAT:__unwindfunclet$??R<lambda_7a12fd051827e0f33bd65ef841f2c8b8>@@QBEPAUImFont@@V?$basic_string@DU?$char_traits@D@std@@V?$allocator@D@2@@std@@MPBGPAUImFontConfig@@@Z$0
__ehfuncinfo$??R<lambda_7a12fd051827e0f33bd65ef841f2c8b8>@@QBEPAUImFont@@V?$basic_string@DU?$char_traits@D@std@@V?$allocator@D@2@@std@@MPBGPAUImFontConfig@@@Z DD 019930522H
	DD	01H
	DD	FLAT:__unwindtable$??R<lambda_7a12fd051827e0f33bd65ef841f2c8b8>@@QBEPAUImFont@@V?$basic_string@DU?$char_traits@D@std@@V?$allocator@D@2@@std@@MPBGPAUImFontConfig@@@Z
	DD	2 DUP(00H)
	DD	2 DUP(00H)
	DD	00H
	DD	01H
xdata$x	ENDS
;	COMDAT xdata$x
xdata$x	SEGMENT
__unwindtable$??__Fbuf_local@?1??GetClipboardTextFn_DefaultImpl@@YAPBDPAX@Z@YAXXZ DD 0ffffffffH
	DD	FLAT:___std_terminate
__ehfuncinfo$??__Fbuf_local@?1??GetClipboardTextFn_DefaultImpl@@YAPBDPAX@Z@YAXXZ DD 019930522H
	DD	01H
	DD	FLAT:__unwindtable$??__Fbuf_local@?1??GetClipboardTextFn_DefaultImpl@@YAPBDPAX@Z@YAXXZ
	DD	2 DUP(00H)
	DD	2 DUP(00H)
	DD	00H
	DD	01H
xdata$x	ENDS
;	COMDAT xdata$x
xdata$x	SEGMENT
__catchsym$?_Copy@?$basic_string@DU?$char_traits@D@std@@V?$allocator@D@2@@std@@QAEXI@Z$18 DD 040H
	DD	00H
	DD	00H
	DD	FLAT:__catch$?_Copy@?$basic_string@DU?$char_traits@D@std@@V?$allocator@D@2@@std@@QAEXI@Z$0
__unwindtable$?_Copy@?$basic_string@DU?$char_traits@D@std@@V?$allocator@D@2@@std@@QAEXI@Z DD 0ffffffffH
	DD	00H
	DD	0ffffffffH
	DD	00H
__tryblocktable$?_Copy@?$basic_string@DU?$char_traits@D@std@@V?$allocator@D@2@@std@@QAEXI@Z DD 00H
	DD	00H
	DD	01H
	DD	01H
	DD	FLAT:__catchsym$?_Copy@?$basic_string@DU?$char_traits@D@std@@V?$allocator@D@2@@std@@QAEXI@Z$18
__ehfuncinfo$?_Copy@?$basic_string@DU?$char_traits@D@std@@V?$allocator@D@2@@std@@QAEXI@Z DD 019930522H
	DD	02H
	DD	FLAT:__unwindtable$?_Copy@?$basic_string@DU?$char_traits@D@std@@V?$allocator@D@2@@std@@QAEXI@Z
	DD	01H
	DD	FLAT:__tryblocktable$?_Copy@?$basic_string@DU?$char_traits@D@std@@V?$allocator@D@2@@std@@QAEXI@Z
	DD	2 DUP(00H)
	DD	00H
	DD	01H
xdata$x	ENDS
;	COMDAT xdata$x
xdata$x	SEGMENT
__ehfuncinfo$??1?$ImVector@I@@QAE@XZ DD 019930522H
	DD	00H
	DD	00H
	DD	2 DUP(00H)
	DD	2 DUP(00H)
	DD	00H
	DD	05H
xdata$x	ENDS
;	COMDAT xdata$x
xdata$x	SEGMENT
__ehfuncinfo$??1ImGuiDrawContext@@QAE@XZ DD 019930522H
	DD	06H
	DD	FLAT:__unwindtable$??1ImGuiDrawContext@@QAE@XZ
	DD	2 DUP(00H)
	DD	2 DUP(00H)
	DD	00H
	DD	05H
__unwindtable$??1ImGuiDrawContext@@QAE@XZ DD 0ffffffffH
	DD	FLAT:___std_terminate
	DD	0ffffffffH
	DD	FLAT:___std_terminate
	DD	0ffffffffH
	DD	FLAT:___std_terminate
	DD	0ffffffffH
	DD	FLAT:___std_terminate
	DD	0ffffffffH
	DD	FLAT:___std_terminate
	DD	0ffffffffH
	DD	FLAT:___std_terminate
xdata$x	ENDS
;	COMDAT xdata$x
xdata$x	SEGMENT
__ehfuncinfo$??1?$ImVector@UImGuiColumnData@@@@QAE@XZ DD 019930522H
	DD	00H
	DD	00H
	DD	2 DUP(00H)
	DD	2 DUP(00H)
	DD	00H
	DD	05H
xdata$x	ENDS
;	COMDAT xdata$x
xdata$x	SEGMENT
__ehfuncinfo$??1?$ImVector@UImGuiGroupData@@@@QAE@XZ DD 019930522H
	DD	00H
	DD	00H
	DD	2 DUP(00H)
	DD	2 DUP(00H)
	DD	00H
	DD	05H
xdata$x	ENDS
;	COMDAT xdata$x
xdata$x	SEGMENT
__ehfuncinfo$??1?$ImVector@H@@QAE@XZ DD 019930522H
	DD	00H
	DD	00H
	DD	2 DUP(00H)
	DD	2 DUP(00H)
	DD	00H
	DD	05H
xdata$x	ENDS
;	COMDAT xdata$x
xdata$x	SEGMENT
__ehfuncinfo$??1ImGuiContext@@QAE@XZ DD 019930522H
	DD	0eH
	DD	FLAT:__unwindtable$??1ImGuiContext@@QAE@XZ
	DD	2 DUP(00H)
	DD	2 DUP(00H)
	DD	00H
	DD	05H
__unwindtable$??1ImGuiContext@@QAE@XZ DD 0ffffffffH
	DD	FLAT:___std_terminate
	DD	0ffffffffH
	DD	FLAT:___std_terminate
	DD	0ffffffffH
	DD	FLAT:___std_terminate
	DD	0ffffffffH
	DD	FLAT:___std_terminate
	DD	0ffffffffH
	DD	FLAT:___std_terminate
	DD	0ffffffffH
	DD	FLAT:___std_terminate
	DD	0ffffffffH
	DD	FLAT:___std_terminate
	DD	0ffffffffH
	DD	FLAT:___std_terminate
	DD	0ffffffffH
	DD	FLAT:___std_terminate
	DD	0ffffffffH
	DD	FLAT:___std_terminate
	DD	0ffffffffH
	DD	FLAT:___std_terminate
	DD	0ffffffffH
	DD	FLAT:___std_terminate
	DD	0ffffffffH
	DD	FLAT:___std_terminate
	DD	0ffffffffH
	DD	FLAT:___std_terminate
xdata$x	ENDS
;	COMDAT xdata$x
xdata$x	SEGMENT
__ehfuncinfo$??0ImGuiContext@@QAE@XZ DD 019930522H
	DD	0cH
	DD	FLAT:__unwindtable$??0ImGuiContext@@QAE@XZ
	DD	2 DUP(00H)
	DD	2 DUP(00H)
	DD	00H
	DD	01H
__unwindtable$??0ImGuiContext@@QAE@XZ DD 0ffffffffH
	DD	FLAT:__unwindfunclet$??0ImGuiContext@@QAE@XZ$0
	DD	00H
	DD	FLAT:__unwindfunclet$??0ImGuiContext@@QAE@XZ$1
	DD	01H
	DD	FLAT:__unwindfunclet$??0ImGuiContext@@QAE@XZ$2
	DD	02H
	DD	FLAT:__unwindfunclet$??0ImGuiContext@@QAE@XZ$3
	DD	03H
	DD	FLAT:__unwindfunclet$??0ImGuiContext@@QAE@XZ$4
	DD	04H
	DD	FLAT:__unwindfunclet$??0ImGuiContext@@QAE@XZ$5
	DD	05H
	DD	FLAT:__unwindfunclet$??0ImGuiContext@@QAE@XZ$6
	DD	06H
	DD	FLAT:__unwindfunclet$??0ImGuiContext@@QAE@XZ$7
	DD	07H
	DD	FLAT:__unwindfunclet$??0ImGuiContext@@QAE@XZ$8
	DD	08H
	DD	FLAT:__unwindfunclet$??0ImGuiContext@@QAE@XZ$9
	DD	09H
	DD	FLAT:__unwindfunclet$??0ImGuiContext@@QAE@XZ$10
	DD	0aH
	DD	FLAT:__unwindfunclet$??0ImGuiContext@@QAE@XZ$11
xdata$x	ENDS
;	COMDAT xdata$x
xdata$x	SEGMENT
__ehfuncinfo$??1?$ImVector@PAUImDrawList@@@@QAE@XZ DD 019930522H
	DD	00H
	DD	00H
	DD	2 DUP(00H)
	DD	2 DUP(00H)
	DD	00H
	DD	05H
xdata$x	ENDS
;	COMDAT xdata$x
xdata$x	SEGMENT
__ehfuncinfo$??1?$ImVector@UImGuiPopupRef@@@@QAE@XZ DD 019930522H
	DD	00H
	DD	00H
	DD	2 DUP(00H)
	DD	2 DUP(00H)
	DD	00H
	DD	05H
xdata$x	ENDS
;	COMDAT xdata$x
xdata$x	SEGMENT
__ehfuncinfo$??1?$ImVector@UImGuiStyleMod@@@@QAE@XZ DD 019930522H
	DD	00H
	DD	00H
	DD	2 DUP(00H)
	DD	2 DUP(00H)
	DD	00H
	DD	05H
xdata$x	ENDS
;	COMDAT xdata$x
xdata$x	SEGMENT
__ehfuncinfo$??1?$ImVector@UImGuiColMod@@@@QAE@XZ DD 019930522H
	DD	00H
	DD	00H
	DD	2 DUP(00H)
	DD	2 DUP(00H)
	DD	00H
	DD	05H
xdata$x	ENDS
;	COMDAT xdata$x
xdata$x	SEGMENT
__ehfuncinfo$??1?$ImVector@UImGuiIniData@@@@QAE@XZ DD 019930522H
	DD	00H
	DD	00H
	DD	2 DUP(00H)
	DD	2 DUP(00H)
	DD	00H
	DD	05H
xdata$x	ENDS
;	COMDAT xdata$x
xdata$x	SEGMENT
__ehfuncinfo$??1?$ImVector@PAUImGuiWindow@@@@QAE@XZ DD 019930522H
	DD	00H
	DD	00H
	DD	2 DUP(00H)
	DD	2 DUP(00H)
	DD	00H
	DD	05H
xdata$x	ENDS
;	COMDAT xdata$x
xdata$x	SEGMENT
__unwindtable$??1ImGuiTextEditState@@QAE@XZ DD 0ffffffffH
	DD	FLAT:___std_terminate
	DD	0ffffffffH
	DD	FLAT:___std_terminate
	DD	0ffffffffH
	DD	FLAT:___std_terminate
__ehfuncinfo$??1ImGuiTextEditState@@QAE@XZ DD 019930522H
	DD	03H
	DD	FLAT:__unwindtable$??1ImGuiTextEditState@@QAE@XZ
	DD	2 DUP(00H)
	DD	2 DUP(00H)
	DD	00H
	DD	05H
xdata$x	ENDS
;	COMDAT xdata$x
xdata$x	SEGMENT
__ehfuncinfo$??1?$ImVector@M@@QAE@XZ DD 019930522H
	DD	00H
	DD	00H
	DD	2 DUP(00H)
	DD	2 DUP(00H)
	DD	00H
	DD	05H
xdata$x	ENDS
;	COMDAT xdata$x
xdata$x	SEGMENT
__ehfuncinfo$??1?$ImVector@PAUImFont@@@@QAE@XZ DD 019930522H
	DD	00H
	DD	00H
	DD	2 DUP(00H)
	DD	2 DUP(00H)
	DD	00H
	DD	05H
xdata$x	ENDS
;	COMDAT xdata$x
xdata$x	SEGMENT
__ehfuncinfo$??1ImDrawList@@QAE@XZ DD 019930522H
	DD	07H
	DD	FLAT:__unwindtable$??1ImDrawList@@QAE@XZ
	DD	2 DUP(00H)
	DD	2 DUP(00H)
	DD	00H
	DD	05H
__unwindtable$??1ImDrawList@@QAE@XZ DD 0ffffffffH
	DD	FLAT:___std_terminate
	DD	0ffffffffH
	DD	FLAT:___std_terminate
	DD	0ffffffffH
	DD	FLAT:___std_terminate
	DD	0ffffffffH
	DD	FLAT:___std_terminate
	DD	0ffffffffH
	DD	FLAT:___std_terminate
	DD	0ffffffffH
	DD	FLAT:___std_terminate
	DD	0ffffffffH
	DD	FLAT:___std_terminate
xdata$x	ENDS
;	COMDAT xdata$x
xdata$x	SEGMENT
__ehfuncinfo$??0ImDrawList@@QAE@XZ DD 019930522H
	DD	07H
	DD	FLAT:__unwindtable$??0ImDrawList@@QAE@XZ
	DD	2 DUP(00H)
	DD	2 DUP(00H)
	DD	00H
	DD	01H
__unwindtable$??0ImDrawList@@QAE@XZ DD 0ffffffffH
	DD	FLAT:__unwindfunclet$??0ImDrawList@@QAE@XZ$0
	DD	00H
	DD	FLAT:__unwindfunclet$??0ImDrawList@@QAE@XZ$1
	DD	01H
	DD	FLAT:__unwindfunclet$??0ImDrawList@@QAE@XZ$2
	DD	02H
	DD	FLAT:__unwindfunclet$??0ImDrawList@@QAE@XZ$3
	DD	03H
	DD	FLAT:__unwindfunclet$??0ImDrawList@@QAE@XZ$4
	DD	04H
	DD	FLAT:__unwindfunclet$??0ImDrawList@@QAE@XZ$5
	DD	05H
	DD	FLAT:__unwindfunclet$??0ImDrawList@@QAE@XZ$6
xdata$x	ENDS
;	COMDAT xdata$x
xdata$x	SEGMENT
__ehfuncinfo$??1?$ImVector@UImDrawChannel@@@@QAE@XZ DD 019930522H
	DD	00H
	DD	00H
	DD	2 DUP(00H)
	DD	2 DUP(00H)
	DD	00H
	DD	05H
xdata$x	ENDS
;	COMDAT xdata$x
xdata$x	SEGMENT
__ehfuncinfo$??1?$ImVector@UImVec2@@@@QAE@XZ DD 019930522H
	DD	00H
	DD	00H
	DD	2 DUP(00H)
	DD	2 DUP(00H)
	DD	00H
	DD	05H
xdata$x	ENDS
;	COMDAT xdata$x
xdata$x	SEGMENT
__ehfuncinfo$??1?$ImVector@PAX@@QAE@XZ DD 019930522H
	DD	00H
	DD	00H
	DD	2 DUP(00H)
	DD	2 DUP(00H)
	DD	00H
	DD	05H
xdata$x	ENDS
;	COMDAT xdata$x
xdata$x	SEGMENT
__ehfuncinfo$??1?$ImVector@UImVec4@@@@QAE@XZ DD 019930522H
	DD	00H
	DD	00H
	DD	2 DUP(00H)
	DD	2 DUP(00H)
	DD	00H
	DD	05H
xdata$x	ENDS
;	COMDAT xdata$x
xdata$x	SEGMENT
__ehfuncinfo$??1?$ImVector@UImDrawVert@@@@QAE@XZ DD 019930522H
	DD	00H
	DD	00H
	DD	2 DUP(00H)
	DD	2 DUP(00H)
	DD	00H
	DD	05H
xdata$x	ENDS
;	COMDAT xdata$x
xdata$x	SEGMENT
__ehfuncinfo$??1?$ImVector@G@@QAE@XZ DD 019930522H
	DD	00H
	DD	00H
	DD	2 DUP(00H)
	DD	2 DUP(00H)
	DD	00H
	DD	05H
xdata$x	ENDS
;	COMDAT xdata$x
xdata$x	SEGMENT
__ehfuncinfo$??1?$ImVector@UImDrawCmd@@@@QAE@XZ DD 019930522H
	DD	00H
	DD	00H
	DD	2 DUP(00H)
	DD	2 DUP(00H)
	DD	00H
	DD	05H
xdata$x	ENDS
;	COMDAT xdata$x
xdata$x	SEGMENT
__unwindtable$??1ImGuiStorage@@QAE@XZ DD 0ffffffffH
	DD	FLAT:___std_terminate
__ehfuncinfo$??1ImGuiStorage@@QAE@XZ DD 019930522H
	DD	01H
	DD	FLAT:__unwindtable$??1ImGuiStorage@@QAE@XZ
	DD	2 DUP(00H)
	DD	2 DUP(00H)
	DD	00H
	DD	05H
xdata$x	ENDS
;	COMDAT xdata$x
xdata$x	SEGMENT
__ehfuncinfo$??1?$ImVector@UPair@ImGuiStorage@@@@QAE@XZ DD 019930522H
	DD	00H
	DD	00H
	DD	2 DUP(00H)
	DD	2 DUP(00H)
	DD	00H
	DD	05H
xdata$x	ENDS
;	COMDAT xdata$x
xdata$x	SEGMENT
__unwindtable$??_GImGuiTextBuffer@@QAEPAXI@Z DD 0ffffffffH
	DD	FLAT:___std_terminate
__ehfuncinfo$??_GImGuiTextBuffer@@QAEPAXI@Z DD 019930522H
	DD	01H
	DD	FLAT:__unwindtable$??_GImGuiTextBuffer@@QAEPAXI@Z
	DD	2 DUP(00H)
	DD	2 DUP(00H)
	DD	00H
	DD	05H
xdata$x	ENDS
;	COMDAT xdata$x
xdata$x	SEGMENT
__unwindtable$??1ImGuiTextBuffer@@QAE@XZ DD 0ffffffffH
	DD	FLAT:___std_terminate
__ehfuncinfo$??1ImGuiTextBuffer@@QAE@XZ DD 019930522H
	DD	01H
	DD	FLAT:__unwindtable$??1ImGuiTextBuffer@@QAE@XZ
	DD	2 DUP(00H)
	DD	2 DUP(00H)
	DD	00H
	DD	05H
xdata$x	ENDS
;	COMDAT xdata$x
xdata$x	SEGMENT
__unwindtable$??0ImGuiTextBuffer@@QAE@XZ DD 0ffffffffH
	DD	FLAT:__unwindfunclet$??0ImGuiTextBuffer@@QAE@XZ$0
__ehfuncinfo$??0ImGuiTextBuffer@@QAE@XZ DD 019930522H
	DD	01H
	DD	FLAT:__unwindtable$??0ImGuiTextBuffer@@QAE@XZ
	DD	2 DUP(00H)
	DD	2 DUP(00H)
	DD	00H
	DD	01H
xdata$x	ENDS
;	COMDAT xdata$x
xdata$x	SEGMENT
__ehfuncinfo$??1?$ImVector@D@@QAE@XZ DD 019930522H
	DD	00H
	DD	00H
	DD	2 DUP(00H)
	DD	2 DUP(00H)
	DD	00H
	DD	05H
xdata$x	ENDS
;	COMDAT xdata$x
xdata$x	SEGMENT
__ehfuncinfo$??1?$ImVector@UTextRange@ImGuiTextFilter@@@@QAE@XZ DD 019930522H
	DD	00H
	DD	00H
	DD	2 DUP(00H)
	DD	2 DUP(00H)
	DD	00H
	DD	05H
xdata$x	ENDS
xdata$x	SEGMENT
__unwindtable$?SK_ImGui_LoadFonts@@YAXXZ DD 0ffffffffH
	DD	FLAT:__unwindfunclet$?SK_ImGui_LoadFonts@@YAXXZ$0
__unwindtable$?CreateNewWindow@@YAPAUImGuiWindow@@PBDUImVec2@@H@Z DD 0ffffffffH
	DD	FLAT:__unwindfunclet$?CreateNewWindow@@YAPAUImGuiWindow@@PBDUImVec2@@H@Z$0
__unwindtable$??0ImGuiTextFilter@@QAE@PBD@Z DD 0ffffffffH
	DD	FLAT:__unwindfunclet$??0ImGuiTextFilter@@QAE@PBD@Z$0
__unwindtable$?CreateContext@ImGui@@YAPAUImGuiContext@@P6APAXI@ZP6AXPAX@Z@Z DD 0ffffffffH
	DD	FLAT:__unwindfunclet$?CreateContext@ImGui@@YAPAUImGuiContext@@P6APAXI@ZP6AXPAX@Z@Z$0
__unwindtable$?Shutdown@ImGui@@YAXXZ DD 0ffffffffH
	DD	FLAT:___std_terminate
__unwindtable$??1ImGuiWindow@@QAE@XZ DD 0ffffffffH
	DD	FLAT:___std_terminate
	DD	0ffffffffH
	DD	FLAT:___std_terminate
__unwindtable$?ImFileOpen@@YAPAU_iobuf@@PBD0@Z DD 0ffffffffH
	DD	FLAT:__unwindfunclet$?ImFileOpen@@YAPAU_iobuf@@PBD0@Z$0
	DD	0ffffffffH
	DD	FLAT:___std_terminate
__unwindtable$?NewFrame@ImGui@@YAXXZ DD 0ffffffffH
	DD	FLAT:__unwindfunclet$?NewFrame@ImGui@@YAXXZ$0
	DD	00H
	DD	FLAT:__unwindfunclet$?NewFrame@ImGui@@YAXXZ$1
__unwindtable$??0ImGuiWindow@@QAE@PBD@Z DD 0ffffffffH
	DD	FLAT:__unwindfunclet$??0ImGuiWindow@@QAE@PBD@Z$0
	DD	00H
	DD	FLAT:__unwindfunclet$??0ImGuiWindow@@QAE@PBD@Z$1
	DD	01H
	DD	FLAT:__unwindfunclet$??0ImGuiWindow@@QAE@PBD@Z$2
	DD	02H
	DD	FLAT:__unwindfunclet$??0ImGuiWindow@@QAE@PBD@Z$3
__ehfuncinfo$?SK_ImGui_LoadFonts@@YAXXZ DD 019930522H
	DD	01H
	DD	FLAT:__unwindtable$?SK_ImGui_LoadFonts@@YAXXZ
	DD	2 DUP(00H)
	DD	2 DUP(00H)
	DD	00H
	DD	01H
__ehfuncinfo$?CreateNewWindow@@YAPAUImGuiWindow@@PBDUImVec2@@H@Z DD 019930522H
	DD	01H
	DD	FLAT:__unwindtable$?CreateNewWindow@@YAPAUImGuiWindow@@PBDUImVec2@@H@Z
	DD	2 DUP(00H)
	DD	2 DUP(00H)
	DD	00H
	DD	01H
__ehfuncinfo$??1ImGuiWindow@@QAE@XZ DD 019930522H
	DD	02H
	DD	FLAT:__unwindtable$??1ImGuiWindow@@QAE@XZ
	DD	2 DUP(00H)
	DD	2 DUP(00H)
	DD	00H
	DD	05H
__ehfuncinfo$??0ImGuiWindow@@QAE@PBD@Z DD 019930522H
	DD	04H
	DD	FLAT:__unwindtable$??0ImGuiWindow@@QAE@PBD@Z
	DD	2 DUP(00H)
	DD	2 DUP(00H)
	DD	00H
	DD	01H
__ehfuncinfo$?ImFileOpen@@YAPAU_iobuf@@PBD0@Z DD 019930522H
	DD	02H
	DD	FLAT:__unwindtable$?ImFileOpen@@YAPAU_iobuf@@PBD0@Z
	DD	2 DUP(00H)
	DD	2 DUP(00H)
	DD	00H
	DD	01H
__ehfuncinfo$??0ImGuiTextFilter@@QAE@PBD@Z DD 019930522H
	DD	01H
	DD	FLAT:__unwindtable$??0ImGuiTextFilter@@QAE@PBD@Z
	DD	2 DUP(00H)
	DD	2 DUP(00H)
	DD	00H
	DD	01H
__ehfuncinfo$?CreateContext@ImGui@@YAPAUImGuiContext@@P6APAXI@ZP6AXPAX@Z@Z DD 019930522H
	DD	01H
	DD	FLAT:__unwindtable$?CreateContext@ImGui@@YAPAUImGuiContext@@P6APAXI@ZP6AXPAX@Z@Z
	DD	2 DUP(00H)
	DD	2 DUP(00H)
	DD	00H
	DD	01H
__ehfuncinfo$?Shutdown@ImGui@@YAXXZ DD 019930522H
	DD	01H
	DD	FLAT:__unwindtable$?Shutdown@ImGui@@YAXXZ
	DD	2 DUP(00H)
	DD	2 DUP(00H)
	DD	00H
	DD	01H
__ehfuncinfo$?NewFrame@ImGui@@YAXXZ DD 019930522H
	DD	02H
	DD	FLAT:__unwindtable$?NewFrame@ImGui@@YAXXZ
	DD	2 DUP(00H)
	DD	2 DUP(00H)
	DD	00H
	DD	01H
xdata$x	ENDS
CRT$XCU	SEGMENT
?GImDefaultContext$initializer$@@3P6AXXZA DD FLAT:??__EGImDefaultContext@@YAXXZ ; GImDefaultContext$initializer$
CRT$XCU	ENDS
CRT$XCU	SEGMENT
?font_lock$initializer$@@3P6AXXZA DD FLAT:??__Efont_lock@@YAXXZ ; font_lock$initializer$
CRT$XCU	ENDS
; Function compile flags: /Ogtp
; File c:\program files (x86)\microsoft visual studio\2017\community\vc\tools\msvc\14.10.25017\include\xmemory0
;	COMDAT ??$construct@PADAAPAD@?$allocator@D@std@@QAEXPAPADAAPAD@Z
_TEXT	SEGMENT
__Ptr$ = 8						; size = 4
_<_Args_0>$ = 12					; size = 4
??$construct@PADAAPAD@?$allocator@D@std@@QAEXPAPADAAPAD@Z PROC ; std::allocator<char>::construct<char *,char * &>, COMDAT
; _this$ = ecx

; 839  : 		{	// construct _Objty(_Types...) at _Ptr

	npad	2
	push	ebp
	mov	ebp, esp

; 840  : 		::new ((void *)_Ptr) _Objty(_STD forward<_Types>(_Args)...);

	mov	ecx, DWORD PTR __Ptr$[ebp]
	test	ecx, ecx
	je	SHORT $LN3@construct
	mov	eax, DWORD PTR _<_Args_0>$[ebp]
	mov	eax, DWORD PTR [eax]
	mov	DWORD PTR [ecx], eax
$LN3@construct:

; 841  : 		}

	pop	ebp
	ret	8
??$construct@PADAAPAD@?$allocator@D@std@@QAEXPAPADAAPAD@Z ENDP ; std::allocator<char>::construct<char *,char * &>
_TEXT	ENDS
; Function compile flags: /Ogtp
; File c:\program files (x86)\microsoft visual studio\2017\community\vc\tools\msvc\14.10.25017\include\xmemory0
;	COMDAT ??$destroy@PAD@?$allocator@D@std@@QAEXPAPAD@Z
_TEXT	SEGMENT
__Ptr$ = 8						; size = 4
??$destroy@PAD@?$allocator@D@std@@QAEXPAPAD@Z PROC	; std::allocator<char>::destroy<char *>, COMDAT
; _this$ = ecx

; 846  : 		_Ptr->~_Uty();
; 847  : 		}

	ret	4
??$destroy@PAD@?$allocator@D@std@@QAEXPAPAD@Z ENDP	; std::allocator<char>::destroy<char *>
_TEXT	ENDS
; Function compile flags: /Ogtp
; File c:\program files (x86)\microsoft visual studio\2017\community\vc\tools\msvc\14.10.25017\include\xmemory0
;	COMDAT ??$destroy@PA_W@?$allocator@_W@std@@QAEXPAPA_W@Z
_TEXT	SEGMENT
__Ptr$ = 8						; size = 4
??$destroy@PA_W@?$allocator@_W@std@@QAEXPAPA_W@Z PROC	; std::allocator<wchar_t>::destroy<wchar_t *>, COMDAT
; _this$ = ecx

; 846  : 		_Ptr->~_Uty();
; 847  : 		}

	ret	4
??$destroy@PA_W@?$allocator@_W@std@@QAEXPAPA_W@Z ENDP	; std::allocator<wchar_t>::destroy<wchar_t *>
_TEXT	ENDS
; Function compile flags: /Ogtp
; File c:\program files (x86)\microsoft visual studio\2017\community\vc\tools\msvc\14.10.25017\include\xmemory0
;	COMDAT ??$construct@PADAAPAD@?$allocator_traits@V?$allocator@D@std@@@std@@SAXAAV?$allocator@D@1@PAPADAAPAD@Z
_TEXT	SEGMENT
__Al$ = 8						; size = 4
__Ptr$ = 12						; size = 4
_<_Args_0>$ = 16					; size = 4
??$construct@PADAAPAD@?$allocator_traits@V?$allocator@D@std@@@std@@SAXAAV?$allocator@D@1@PAPADAAPAD@Z PROC ; std::allocator_traits<std::allocator<char> >::construct<char *,char * &>, COMDAT

; 958  : 		{	// construct _Objty(_Types...) at _Ptr

	npad	2
	push	ebp
	mov	ebp, esp

; 840  : 		::new ((void *)_Ptr) _Objty(_STD forward<_Types>(_Args)...);

	mov	ecx, DWORD PTR __Ptr$[ebp]
	test	ecx, ecx
	je	SHORT $LN8@construct
	mov	eax, DWORD PTR _<_Args_0>$[ebp]
	mov	eax, DWORD PTR [eax]
	mov	DWORD PTR [ecx], eax
$LN8@construct:

; 959  : 		_Al.construct(_Ptr, _STD forward<_Types>(_Args)...);
; 960  : 		}

	pop	ebp
	ret	0
??$construct@PADAAPAD@?$allocator_traits@V?$allocator@D@std@@@std@@SAXAAV?$allocator@D@1@PAPADAAPAD@Z ENDP ; std::allocator_traits<std::allocator<char> >::construct<char *,char * &>
_TEXT	ENDS
; Function compile flags: /Ogtp
; File c:\program files (x86)\microsoft visual studio\2017\community\vc\tools\msvc\14.10.25017\include\type_traits
;	COMDAT ??$forward@AAPAD@std@@YAAAPADAAPAD@Z
_TEXT	SEGMENT
__Arg$ = 8						; size = 4
??$forward@AAPAD@std@@YAAAPADAAPAD@Z PROC		; std::forward<char * &>, COMDAT

; 1334 : 	{	// forward an lvalue as either an lvalue or an rvalue

	npad	2
	push	ebp
	mov	ebp, esp

; 1335 : 	return (static_cast<_Ty&&>(_Arg));

	mov	eax, DWORD PTR __Arg$[ebp]

; 1336 : 	}

	pop	ebp
	ret	0
??$forward@AAPAD@std@@YAAAPADAAPAD@Z ENDP		; std::forward<char * &>
_TEXT	ENDS
; Function compile flags: /Ogtp
; File c:\program files (x86)\microsoft visual studio\2017\community\vc\tools\msvc\14.10.25017\include\xmemory0
;	COMDAT ??$destroy@PAD@?$allocator_traits@V?$allocator@D@std@@@std@@SAXAAV?$allocator@D@1@PAPAD@Z
_TEXT	SEGMENT
__Al$ = 8						; size = 4
__Ptr$ = 12						; size = 4
??$destroy@PAD@?$allocator_traits@V?$allocator@D@std@@@std@@SAXAAV?$allocator@D@1@PAPAD@Z PROC ; std::allocator_traits<std::allocator<char> >::destroy<char *>, COMDAT

; 965  : 		_Al.destroy(_Ptr);
; 966  : 		}

	ret	0
??$destroy@PAD@?$allocator_traits@V?$allocator@D@std@@@std@@SAXAAV?$allocator@D@1@PAPAD@Z ENDP ; std::allocator_traits<std::allocator<char> >::destroy<char *>
_TEXT	ENDS
; Function compile flags: /Ogtp
; File c:\program files (x86)\microsoft visual studio\2017\community\vc\tools\msvc\14.10.25017\include\xmemory0
;	COMDAT ??$destroy@PA_W@?$allocator_traits@V?$allocator@_W@std@@@std@@SAXAAV?$allocator@_W@1@PAPA_W@Z
_TEXT	SEGMENT
__Al$ = 8						; size = 4
__Ptr$ = 12						; size = 4
??$destroy@PA_W@?$allocator_traits@V?$allocator@_W@std@@@std@@SAXAAV?$allocator@_W@1@PAPA_W@Z PROC ; std::allocator_traits<std::allocator<wchar_t> >::destroy<wchar_t *>, COMDAT

; 965  : 		_Al.destroy(_Ptr);
; 966  : 		}

	ret	0
??$destroy@PA_W@?$allocator_traits@V?$allocator@_W@std@@@std@@SAXAAV?$allocator@_W@1@PAPA_W@Z ENDP ; std::allocator_traits<std::allocator<wchar_t> >::destroy<wchar_t *>
_TEXT	ENDS
; Function compile flags: /Ogtp
; File c:\program files (x86)\microsoft visual studio\2017\community\vc\tools\msvc\14.10.25017\include\type_traits
;	COMDAT ??$forward@V?$allocator@D@std@@@std@@YA$$QAV?$allocator@D@0@AAV10@@Z
_TEXT	SEGMENT
__Arg$ = 8						; size = 4
??$forward@V?$allocator@D@std@@@std@@YA$$QAV?$allocator@D@0@AAV10@@Z PROC ; std::forward<std::allocator<char> >, COMDAT

; 1334 : 	{	// forward an lvalue as either an lvalue or an rvalue

	npad	2
	push	ebp
	mov	ebp, esp

; 1335 : 	return (static_cast<_Ty&&>(_Arg));

	mov	eax, DWORD PTR __Arg$[ebp]

; 1336 : 	}

	pop	ebp
	ret	0
??$forward@V?$allocator@D@std@@@std@@YA$$QAV?$allocator@D@0@AAV10@@Z ENDP ; std::forward<std::allocator<char> >
_TEXT	ENDS
; Function compile flags: /Ogtp
; File c:\program files (x86)\microsoft visual studio\2017\community\vc\tools\msvc\14.10.25017\include\xutility
; File c:\program files (x86)\microsoft visual studio\2017\community\vc\tools\msvc\14.10.25017\include\xstring
; File c:\program files (x86)\microsoft visual studio\2017\community\vc\tools\msvc\14.10.25017\include\xutility
; File c:\program files (x86)\microsoft visual studio\2017\community\vc\tools\msvc\14.10.25017\include\xstring
; File c:\program files (x86)\microsoft visual studio\2017\community\vc\tools\msvc\14.10.25017\include\xutility
;	COMDAT ??$?0U?$_Wrap_alloc@V?$allocator@D@std@@@std@@$$V@?$_Compressed_pair@U?$_Wrap_alloc@V?$allocator@D@std@@@std@@V?$_String_val@U?$_Simple_types@D@std@@@2@$00@std@@QAE@U_One_then_variadic_args_t@1@$$QAU?$_Wrap_alloc@V?$allocator@D@std@@@1@@Z
_TEXT	SEGMENT
___formal$ = 8						; size = 1
__Val1$ = 12						; size = 4
??$?0U?$_Wrap_alloc@V?$allocator@D@std@@@std@@$$V@?$_Compressed_pair@U?$_Wrap_alloc@V?$allocator@D@std@@@std@@V?$_String_val@U?$_Simple_types@D@std@@@2@$00@std@@QAE@U_One_then_variadic_args_t@1@$$QAU?$_Wrap_alloc@V?$allocator@D@std@@@1@@Z PROC ; std::_Compressed_pair<std::_Wrap_alloc<std::allocator<char> >,std::_String_val<std::_Simple_types<char> >,1>::_Compressed_pair<std::_Wrap_alloc<std::allocator<char> >,std::_String_val<std::_Simple_types<char> >,1><std::_Wrap_alloc<std::allocator<char> > >, COMDAT
; _this$ = ecx
; File c:\program files (x86)\microsoft visual studio\2017\community\vc\tools\msvc\14.10.25017\include\xstring

; 1595 : 		_Mysize(0),

	mov	DWORD PTR [ecx+16], 0
; File c:\program files (x86)\microsoft visual studio\2017\community\vc\tools\msvc\14.10.25017\include\xutility

; 313  : 		}

	mov	eax, ecx
; File c:\program files (x86)\microsoft visual studio\2017\community\vc\tools\msvc\14.10.25017\include\xstring

; 1596 : 		_Myres(0)

	mov	DWORD PTR [ecx+20], 0
; File c:\program files (x86)\microsoft visual studio\2017\community\vc\tools\msvc\14.10.25017\include\xutility

; 313  : 		}

	ret	8
??$?0U?$_Wrap_alloc@V?$allocator@D@std@@@std@@$$V@?$_Compressed_pair@U?$_Wrap_alloc@V?$allocator@D@std@@@std@@V?$_String_val@U?$_Simple_types@D@std@@@2@$00@std@@QAE@U_One_then_variadic_args_t@1@$$QAU?$_Wrap_alloc@V?$allocator@D@std@@@1@@Z ENDP ; std::_Compressed_pair<std::_Wrap_alloc<std::allocator<char> >,std::_String_val<std::_Simple_types<char> >,1>::_Compressed_pair<std::_Wrap_alloc<std::allocator<char> >,std::_String_val<std::_Simple_types<char> >,1><std::_Wrap_alloc<std::allocator<char> > >
_TEXT	ENDS
; Function compile flags: /Ogtp
; File c:\program files (x86)\microsoft visual studio\2017\community\vc\tools\msvc\14.10.25017\include\type_traits
;	COMDAT ??$forward@U?$_Wrap_alloc@V?$allocator@D@std@@@std@@@std@@YA$$QAU?$_Wrap_alloc@V?$allocator@D@std@@@0@AAU10@@Z
_TEXT	SEGMENT
__Arg$ = 8						; size = 4
??$forward@U?$_Wrap_alloc@V?$allocator@D@std@@@std@@@std@@YA$$QAU?$_Wrap_alloc@V?$allocator@D@std@@@0@AAU10@@Z PROC ; std::forward<std::_Wrap_alloc<std::allocator<char> > >, COMDAT

; 1334 : 	{	// forward an lvalue as either an lvalue or an rvalue

	npad	2
	push	ebp
	mov	ebp, esp

; 1335 : 	return (static_cast<_Ty&&>(_Arg));

	mov	eax, DWORD PTR __Arg$[ebp]

; 1336 : 	}

	pop	ebp
	ret	0
??$forward@U?$_Wrap_alloc@V?$allocator@D@std@@@std@@@std@@YA$$QAU?$_Wrap_alloc@V?$allocator@D@std@@@0@AAU10@@Z ENDP ; std::forward<std::_Wrap_alloc<std::allocator<char> > >
_TEXT	ENDS
; Function compile flags: /Ogtp
; File c:\program files (x86)\microsoft visual studio\2017\community\vc\tools\msvc\14.10.25017\include\xmemory0
;	COMDAT ??$construct@PADAAPAD@?$_Wrap_alloc@V?$allocator@D@std@@@std@@QAEXPAPADAAPAD@Z
_TEXT	SEGMENT
__Ptr$ = 8						; size = 4
_<_Args_0>$ = 12					; size = 4
??$construct@PADAAPAD@?$_Wrap_alloc@V?$allocator@D@std@@@std@@QAEXPAPADAAPAD@Z PROC ; std::_Wrap_alloc<std::allocator<char> >::construct<char *,char * &>, COMDAT
; _this$ = ecx

; 1095 : 		{	// construct _Ty(_Types...) at _Ptr

	npad	2
	push	ebp
	mov	ebp, esp

; 840  : 		::new ((void *)_Ptr) _Objty(_STD forward<_Types>(_Args)...);

	mov	ecx, DWORD PTR __Ptr$[ebp]
	test	ecx, ecx
	je	SHORT $LN13@construct
	mov	eax, DWORD PTR _<_Args_0>$[ebp]
	mov	eax, DWORD PTR [eax]
	mov	DWORD PTR [ecx], eax
$LN13@construct:

; 1096 : 		_Mytraits::construct(*this, _Ptr,
; 1097 : 			_STD forward<_Types>(_Args)...);
; 1098 : 		}

	pop	ebp
	ret	8
??$construct@PADAAPAD@?$_Wrap_alloc@V?$allocator@D@std@@@std@@QAEXPAPADAAPAD@Z ENDP ; std::_Wrap_alloc<std::allocator<char> >::construct<char *,char * &>
_TEXT	ENDS
; Function compile flags: /Ogtp
; File c:\program files (x86)\microsoft visual studio\2017\community\vc\tools\msvc\14.10.25017\include\xstddef
;	COMDAT ??$addressof@$$CBV?$basic_string@DU?$char_traits@D@std@@V?$allocator@D@2@@std@@@std@@YAPBV?$basic_string@DU?$char_traits@D@std@@V?$allocator@D@2@@0@ABV10@@Z
_TEXT	SEGMENT
__Val$ = 8						; size = 4
??$addressof@$$CBV?$basic_string@DU?$char_traits@D@std@@V?$allocator@D@2@@std@@@std@@YAPBV?$basic_string@DU?$char_traits@D@std@@V?$allocator@D@2@@0@ABV10@@Z PROC ; std::addressof<std::basic_string<char,std::char_traits<char>,std::allocator<char> > const >, COMDAT

; 629  : 	{	// return address of _Val

	npad	2
	push	ebp
	mov	ebp, esp

; 630  : 	return (__builtin_addressof(_Val));

	mov	eax, DWORD PTR __Val$[ebp]

; 631  : 	}

	pop	ebp
	ret	0
??$addressof@$$CBV?$basic_string@DU?$char_traits@D@std@@V?$allocator@D@2@@std@@@std@@YAPBV?$basic_string@DU?$char_traits@D@std@@V?$allocator@D@2@@0@ABV10@@Z ENDP ; std::addressof<std::basic_string<char,std::char_traits<char>,std::allocator<char> > const >
_TEXT	ENDS
; Function compile flags: /Ogtp
; File c:\program files (x86)\microsoft visual studio\2017\community\vc\tools\msvc\14.10.25017\include\utility
;	COMDAT ??$_Min_value@I@std@@YAABIABI0@Z
_TEXT	SEGMENT
__Left$ = 8						; size = 4
__Right$ = 12						; size = 4
??$_Min_value@I@std@@YAABIABI0@Z PROC			; std::_Min_value<unsigned int>, COMDAT

; 22   : 	{	// return smaller of _Left and _Right

	npad	2
	push	ebp
	mov	ebp, esp

; 23   : 	return (_Right < _Left ? _Right : _Left);

	mov	edx, DWORD PTR __Right$[ebp]
	mov	eax, DWORD PTR __Left$[ebp]
	mov	ecx, DWORD PTR [edx]
	cmp	ecx, DWORD PTR [eax]
	cmovb	eax, edx

; 24   : 	}

	pop	ebp
	ret	0
??$_Min_value@I@std@@YAABIABI0@Z ENDP			; std::_Min_value<unsigned int>
_TEXT	ENDS
; Function compile flags: /Ogtp
; File c:\program files (x86)\microsoft visual studio\2017\community\vc\tools\msvc\14.10.25017\include\xstddef
;	COMDAT ??$_Unfancy@D@std@@YAPADPAD@Z
_TEXT	SEGMENT
__Ptr$ = 8						; size = 4
??$_Unfancy@D@std@@YAPADPAD@Z PROC			; std::_Unfancy<char>, COMDAT

; 642  : 	{	// do nothing for plain pointers

	npad	2
	push	ebp
	mov	ebp, esp

; 643  : 	return (_Ptr);

	mov	eax, DWORD PTR __Ptr$[ebp]

; 644  : 	}

	pop	ebp
	ret	0
??$_Unfancy@D@std@@YAPADPAD@Z ENDP			; std::_Unfancy<char>
_TEXT	ENDS
; Function compile flags: /Ogtp
; File c:\program files (x86)\microsoft visual studio\2017\community\vc\tools\msvc\14.10.25017\include\xstddef
;	COMDAT ??$_Unfancy@_W@std@@YAPA_WPA_W@Z
_TEXT	SEGMENT
__Ptr$ = 8						; size = 4
??$_Unfancy@_W@std@@YAPA_WPA_W@Z PROC			; std::_Unfancy<wchar_t>, COMDAT

; 642  : 	{	// do nothing for plain pointers

	npad	2
	push	ebp
	mov	ebp, esp

; 643  : 	return (_Ptr);

	mov	eax, DWORD PTR __Ptr$[ebp]

; 644  : 	}

	pop	ebp
	ret	0
??$_Unfancy@_W@std@@YAPA_WPA_W@Z ENDP			; std::_Unfancy<wchar_t>
_TEXT	ENDS
; Function compile flags: /Ogtp
; File c:\program files (x86)\microsoft visual studio\2017\community\vc\tools\msvc\14.10.25017\include\xmemory0
;	COMDAT ??$destroy@PAD@?$_Wrap_alloc@V?$allocator@D@std@@@std@@QAEXPAPAD@Z
_TEXT	SEGMENT
__Ptr$ = 8						; size = 4
??$destroy@PAD@?$_Wrap_alloc@V?$allocator@D@std@@@std@@QAEXPAPAD@Z PROC ; std::_Wrap_alloc<std::allocator<char> >::destroy<char *>, COMDAT
; _this$ = ecx

; 1103 : 		_Mytraits::destroy(*this, _Ptr);
; 1104 : 		}

	ret	4
??$destroy@PAD@?$_Wrap_alloc@V?$allocator@D@std@@@std@@QAEXPAPAD@Z ENDP ; std::_Wrap_alloc<std::allocator<char> >::destroy<char *>
_TEXT	ENDS
; Function compile flags: /Ogtp
; File c:\program files (x86)\microsoft visual studio\2017\community\vc\tools\msvc\14.10.25017\include\xstddef
;	COMDAT ??$addressof@PAD@std@@YAPAPADAAPAD@Z
_TEXT	SEGMENT
__Val$ = 8						; size = 4
??$addressof@PAD@std@@YAPAPADAAPAD@Z PROC		; std::addressof<char *>, COMDAT

; 629  : 	{	// return address of _Val

	npad	2
	push	ebp
	mov	ebp, esp

; 630  : 	return (__builtin_addressof(_Val));

	mov	eax, DWORD PTR __Val$[ebp]

; 631  : 	}

	pop	ebp
	ret	0
??$addressof@PAD@std@@YAPAPADAAPAD@Z ENDP		; std::addressof<char *>
_TEXT	ENDS
; Function compile flags: /Ogtp
; File c:\program files (x86)\microsoft visual studio\2017\community\vc\tools\msvc\14.10.25017\include\xmemory0
;	COMDAT ??$destroy@PA_W@?$_Wrap_alloc@V?$allocator@_W@std@@@std@@QAEXPAPA_W@Z
_TEXT	SEGMENT
__Ptr$ = 8						; size = 4
??$destroy@PA_W@?$_Wrap_alloc@V?$allocator@_W@std@@@std@@QAEXPAPA_W@Z PROC ; std::_Wrap_alloc<std::allocator<wchar_t> >::destroy<wchar_t *>, COMDAT
; _this$ = ecx

; 1103 : 		_Mytraits::destroy(*this, _Ptr);
; 1104 : 		}

	ret	4
??$destroy@PA_W@?$_Wrap_alloc@V?$allocator@_W@std@@@std@@QAEXPAPA_W@Z ENDP ; std::_Wrap_alloc<std::allocator<wchar_t> >::destroy<wchar_t *>
_TEXT	ENDS
; Function compile flags: /Ogtp
; File c:\program files (x86)\microsoft visual studio\2017\community\vc\tools\msvc\14.10.25017\include\xstddef
;	COMDAT ??$addressof@PA_W@std@@YAPAPA_WAAPA_W@Z
_TEXT	SEGMENT
__Val$ = 8						; size = 4
??$addressof@PA_W@std@@YAPAPA_WAAPA_W@Z PROC		; std::addressof<wchar_t *>, COMDAT

; 629  : 	{	// return address of _Val

	npad	2
	push	ebp
	mov	ebp, esp

; 630  : 	return (__builtin_addressof(_Val));

	mov	eax, DWORD PTR __Val$[ebp]

; 631  : 	}

	pop	ebp
	ret	0
??$addressof@PA_W@std@@YAPAPA_WAAPA_W@Z ENDP		; std::addressof<wchar_t *>
_TEXT	ENDS
; Function compile flags: /Ogtp
; File c:\program files (x86)\microsoft visual studio\2017\community\vc\tools\msvc\14.10.25017\include\xmemory0
;	COMDAT ??$?0V?$allocator@D@std@@@?$_Wrap_alloc@V?$allocator@D@std@@@std@@QAE@$$QAV?$allocator@D@1@@Z
_TEXT	SEGMENT
__Right$ = 8						; size = 4
??$?0V?$allocator@D@std@@@?$_Wrap_alloc@V?$allocator@D@std@@@std@@QAE@$$QAV?$allocator@D@1@@Z PROC ; std::_Wrap_alloc<std::allocator<char> >::_Wrap_alloc<std::allocator<char> ><std::allocator<char> >, COMDAT
; _this$ = ecx

; 1054 : 		}

	mov	eax, ecx
	ret	4
??$?0V?$allocator@D@std@@@?$_Wrap_alloc@V?$allocator@D@std@@@std@@QAE@$$QAV?$allocator@D@1@@Z ENDP ; std::_Wrap_alloc<std::allocator<char> >::_Wrap_alloc<std::allocator<char> ><std::allocator<char> >
_TEXT	ENDS
; Function compile flags: /Ogtp
; File c:\program files (x86)\microsoft visual studio\2017\community\vc\tools\msvc\14.10.25017\include\xstring
;	COMDAT ??$?0U?$_Wrap_alloc@V?$allocator@D@std@@@std@@X@?$_String_alloc@U?$_String_base_types@DV?$allocator@D@std@@@std@@@std@@QAE@$$QAU?$_Wrap_alloc@V?$allocator@D@std@@@1@@Z
_TEXT	SEGMENT
__Al$ = 8						; size = 4
??$?0U?$_Wrap_alloc@V?$allocator@D@std@@@std@@X@?$_String_alloc@U?$_String_base_types@DV?$allocator@D@std@@@std@@@std@@QAE@$$QAU?$_Wrap_alloc@V?$allocator@D@std@@@1@@Z PROC ; std::_String_alloc<std::_String_base_types<char,std::allocator<char> > >::_String_alloc<std::_String_base_types<char,std::allocator<char> > ><std::_Wrap_alloc<std::allocator<char> >,void>, COMDAT
; _this$ = ecx

; 1595 : 		_Mysize(0),

	mov	DWORD PTR [ecx+16], 0

; 1705 : 		}

	mov	eax, ecx

; 1596 : 		_Myres(0)

	mov	DWORD PTR [ecx+20], 0

; 1705 : 		}

	ret	4
??$?0U?$_Wrap_alloc@V?$allocator@D@std@@@std@@X@?$_String_alloc@U?$_String_base_types@DV?$allocator@D@std@@@std@@@std@@QAE@$$QAU?$_Wrap_alloc@V?$allocator@D@std@@@1@@Z ENDP ; std::_String_alloc<std::_String_base_types<char,std::allocator<char> > >::_String_alloc<std::_String_base_types<char,std::allocator<char> > ><std::_Wrap_alloc<std::allocator<char> >,void>
_TEXT	ENDS
; Function compile flags: /Ogtp
; File c:\program files (x86)\microsoft visual studio\2017\community\vc\tools\msvc\14.10.25017\include\type_traits
;	COMDAT ??$move@AAU?$_Wrap_alloc@V?$allocator@D@std@@@std@@@std@@YA$$QAU?$_Wrap_alloc@V?$allocator@D@std@@@0@AAU10@@Z
_TEXT	SEGMENT
__Arg$ = 8						; size = 4
??$move@AAU?$_Wrap_alloc@V?$allocator@D@std@@@std@@@std@@YA$$QAU?$_Wrap_alloc@V?$allocator@D@std@@@0@AAU10@@Z PROC ; std::move<std::_Wrap_alloc<std::allocator<char> > &>, COMDAT

; 1350 : 	{	// forward _Arg as movable

	npad	2
	push	ebp
	mov	ebp, esp

; 1351 : 	return (static_cast<typename remove_reference<_Ty>::type&&>(_Arg));

	mov	eax, DWORD PTR __Arg$[ebp]

; 1352 : 	}

	pop	ebp
	ret	0
??$move@AAU?$_Wrap_alloc@V?$allocator@D@std@@@std@@@std@@YA$$QAU?$_Wrap_alloc@V?$allocator@D@std@@@0@AAU10@@Z ENDP ; std::move<std::_Wrap_alloc<std::allocator<char> > &>
_TEXT	ENDS
; Function compile flags: /Ogtp
; File c:\users\andon\source\repos\specialk\src\imgui\imgui.cpp
; File c:\program files (x86)\windows kits\10\include\10.0.10240.0\ucrt\math.h
; File c:\users\andon\source\repos\specialk\src\imgui\imgui.cpp
_TEXT	SEGMENT
_state$ = -32						; size = 16
_visible$1 = -2						; size = 1
_nav$2 = -1						; size = 1
?SK_ImGui_PollGamepad@@YAXXZ PROC			; SK_ImGui_PollGamepad

; 12231: {

	npad	2
	push	ebx
	mov	ebx, esp
	sub	esp, 8
	and	esp, -16				; fffffff0H
	add	esp, 4
	push	ebp
	mov	ebp, DWORD PTR [ebx+4]
	mov	DWORD PTR [esp+4], ebp
	mov	ebp, esp
	sub	esp, 40					; 00000028H
	push	esi
	push	edi

; 12232:   ImGuiIO& io =

	call	?GetIO@ImGui@@YAAAUImGuiIO@@XZ		; ImGui::GetIO
	mov	esi, eax

; 12233:     ImGui::GetIO ();
; 12234: 
; 12235: 
; 12236:   //extern INT SK_ImGui_ActivationKeys [256];
; 12237:   //
; 12238:   //for (int i = 8; i < 256; i++)
; 12239:   //{
; 12240:   //  if (SK_ImGui_ActivationKeys [i] > 0)
; 12241:   //  {
; 12242:   //    game_window.CallProc (game_window.hWnd, WM_KEYUP,    i, 0);
; 12243:   //    game_window.CallProc (game_window.hWnd, WM_SYSKEYUP, i, 0);
; 12244:   //
; 12245:   //    SK_ImGui_ActivationKeys [i] = 0;
; 12246:   //  }
; 12247:   //}
; 12248: 
; 12249: 
; 12250:          XINPUT_STATE state    = {      };
; 12251:   static XINPUT_STATE last_state { 1, 0 };
; 12252: 
; 12253:   for ( float& NavInput : io.NavInputs )

	lea	edi, DWORD PTR [esi+776]
	lea	edx, DWORD PTR [edi+64]
	cmp	edx, edi
	sbb	ecx, ecx
	and	ecx, -16				; fffffff0H
	add	ecx, 16					; 00000010H
	cmp	edi, edx
	ja	SHORT $LN3@SK_ImGui_P

; 12254:     NavInput = 0.0f;

	xor	eax, eax
	rep stosd
	lea	edi, DWORD PTR [esi+776]
$LN3@SK_ImGui_P:

; 12255: 
; 12256:   bool api_bridge =
; 12257:     config.input.gamepad.native_ps4 || ( steam_to_xi != nullptr );

	cmp	BYTE PTR ?config@@3Usk_config_t@@A+674, 0
	movss	xmm5, DWORD PTR __real@3a83126f
	jne	SHORT $LN27@SK_ImGui_P
	cmp	DWORD PTR ?steam_to_xi@@3PAU_XINPUT_STATE@@A, 0 ; steam_to_xi
	jne	SHORT $LN27@SK_ImGui_P

; 12258: 
; 12259: #if 1
; 12260:   state = joy_to_xi;

	movups	xmm0, XMMWORD PTR ?joy_to_xi@@3U_XINPUT_STATE@@A

; 12261: #else
; 12262:   state = di8_to_xi;
; 12263: #endif
; 12264: 
; 12265:   if ( ( api_bridge ||
; 12266:          SK_XInput_PollController ( config.input.gamepad.xinput.ui_slot,
; 12267:                                       &state
; 12268:                                   )
; 12269:         )                                &&

	lea	eax, DWORD PTR _state$[ebp]
	push	eax
	push	DWORD PTR ?config@@3Usk_config_t@@A+680
	movups	XMMWORD PTR _state$[ebp], xmm0
	call	?SK_XInput_PollController@@YA_NHPAU_XINPUT_STATE@@@Z ; SK_XInput_PollController
	add	esp, 8
	test	al, al
	je	$LN91@SK_ImGui_P
	movaps	xmm0, XMMWORD PTR _state$[ebp]
	movss	xmm5, DWORD PTR __real@3a83126f
	jmp	SHORT $LN6@SK_ImGui_P
$LN27@SK_ImGui_P:

; 12258: 
; 12259: #if 1
; 12260:   state = joy_to_xi;

	movups	xmm0, XMMWORD PTR ?joy_to_xi@@3U_XINPUT_STATE@@A
	movaps	XMMWORD PTR _state$[ebp], xmm0
$LN6@SK_ImGui_P:

; 12261: #else
; 12262:   state = di8_to_xi;
; 12263: #endif
; 12264: 
; 12265:   if ( ( api_bridge ||
; 12266:          SK_XInput_PollController ( config.input.gamepad.xinput.ui_slot,
; 12267:                                       &state
; 12268:                                   )
; 12269:         )                                &&

	movd	eax, xmm0
	cmp	DWORD PTR ?last_state@?1??SK_ImGui_PollGamepad@@YAXXZ@4U_XINPUT_STATE@@A, eax
	ja	$LN91@SK_ImGui_P

; 12270:         last_state.dwPacketNumber <= state.dwPacketNumber
; 12271:      )
; 12272:   {
; 12273:     last_state = state;
; 12274: 
; 12275:     if (nav_usable)

	cmp	BYTE PTR ?nav_usable@@3_NA, 0		; nav_usable
	movups	XMMWORD PTR ?last_state@?1??SK_ImGui_PollGamepad@@YAXXZ@4U_XINPUT_STATE@@A, xmm0
	je	$LN91@SK_ImGui_P

; 12276:     {
; 12277:       float LX   = state.Gamepad.sThumbLX;

	movsx	eax, WORD PTR _state$[ebp+8]
	xorps	xmm4, xmm4
	movd	xmm2, eax

; 12278:       float LY   = state.Gamepad.sThumbLY;

	movsx	eax, WORD PTR _state$[ebp+10]
	cvtdq2ps xmm2, xmm2
	movd	xmm3, eax
	cvtdq2ps xmm3, xmm3

; 12279: 
; 12280:       float norm = sqrt ( LX*LX + LY*LY );

	movaps	xmm0, xmm2
	movaps	xmm1, xmm3
	mulss	xmm0, xmm2
	mulss	xmm1, xmm3
	addss	xmm1, xmm0

; 12287:       if (norm > XINPUT_GAMEPAD_LEFT_THUMB_DEADZONE)

	movss	xmm0, DWORD PTR __real@45f54800
; File c:\program files (x86)\windows kits\10\include\10.0.10240.0\ucrt\math.h

; 746  :         return (float)sqrt(_X);

	sqrtss	xmm4, xmm1
	xorps	xmm1, xmm1
; File c:\users\andon\source\repos\specialk\src\imgui\imgui.cpp

; 12287:       if (norm > XINPUT_GAMEPAD_LEFT_THUMB_DEADZONE)

	comiss	xmm4, xmm0
	jbe	SHORT $LN8@SK_ImGui_P

; 12288:       {
; 12289:         norm = std::min (norm, 32767.0f) - XINPUT_GAMEPAD_LEFT_THUMB_DEADZONE;

	minss	xmm4, DWORD PTR __real@46fffe00
	subss	xmm4, xmm0

; 12290:         unit =           norm/(32767.0f  - XINPUT_GAMEPAD_LEFT_THUMB_DEADZONE);

	mulss	xmm4, DWORD PTR __real@38285303

; 12291:       }
; 12292: 
; 12293:       else

	jmp	SHORT $LN9@SK_ImGui_P
$LN8@SK_ImGui_P:
	xorps	xmm4, xmm4
$LN9@SK_ImGui_P:

; 12294:       {
; 12295:         norm = 0.0f;
; 12296:         unit = 0.0f;
; 12297:       }
; 12298: 
; 12299:       float uLX = (LX / 32767.0f) * unit;
; 12300:       float uLY = (LY / 32767.0f) * unit;
; 12301: 
; 12302:       // Press Button, Tweak Value                    // e.g. Circle button
; 12303:       io.NavInputs [ImGuiNavInput_PadActivate] +=

	mov	eax, DWORD PTR _state$[ebp+4]
	shr	eax, 12					; 0000000cH
	and	eax, 1
	mulss	xmm3, DWORD PTR __real@38000100
	mulss	xmm2, DWORD PTR __real@38000100
	movd	xmm0, eax
	cvtdq2ps xmm0, xmm0
	mulss	xmm3, xmm4
	addss	xmm0, DWORD PTR [edi]
	mulss	xmm2, xmm4
	movss	DWORD PTR [edi], xmm0

; 12304:         static_cast <float> ((state.Gamepad.wButtons & XINPUT_GAMEPAD_A) != 0);
; 12305: 
; 12306:       // Close Menu/PopUp/Child, Clear Selection      // e.g. Cross button
; 12307:       io.NavInputs [ImGuiNavInput_PadCancel]   +=

	mov	eax, DWORD PTR _state$[ebp+4]
	shr	eax, 13					; 0000000dH
	and	eax, 1
	movd	xmm0, eax
	cvtdq2ps xmm0, xmm0
	addss	xmm0, DWORD PTR [esi+780]
	movss	DWORD PTR [esi+780], xmm0

; 12308:         static_cast <float> ((state.Gamepad.wButtons & XINPUT_GAMEPAD_B) != 0);
; 12309: 
; 12310:       // Text Input                                   // e.g. Triangle button
; 12311:       io.NavInputs [ImGuiNavInput_PadInput]    +=

	mov	ax, WORD PTR _state$[ebp+4]
	shr	ax, 15					; 0000000fH
	movzx	eax, ax
	movd	xmm0, eax
	cvtdq2ps xmm0, xmm0
	addss	xmm0, DWORD PTR [esi+784]
	movss	DWORD PTR [esi+784], xmm0

; 12312:         static_cast <float> ((state.Gamepad.wButtons & XINPUT_GAMEPAD_Y) != 0);
; 12313: 
; 12314:       // Access Menu, Focus, Move, Resize             // e.g. Square button
; 12315:       io.NavInputs [ImGuiNavInput_PadMenu]     +=

	mov	eax, DWORD PTR _state$[ebp+4]
	shr	eax, 14					; 0000000eH
	and	eax, 1
	movd	xmm0, eax
	cvtdq2ps xmm0, xmm0
	addss	xmm0, DWORD PTR [esi+788]
	movss	DWORD PTR [esi+788], xmm0

; 12316:         static_cast <float> ((state.Gamepad.wButtons & XINPUT_GAMEPAD_X) != 0);
; 12317: 
; 12318:       //
; 12319:       // [ANALOG INPUTS]
; 12320:       //
; 12321:       // Move Up, Resize Window (with PadMenu held)   // e.g. D-pad up/down/left/right
; 12322:       io.NavInputs [ImGuiNavInput_PadUp]    +=  0.001f *

	mov	eax, DWORD PTR _state$[ebp+4]
	and	eax, 1
	movd	xmm0, eax
	cvtdq2ps xmm0, xmm0
	mulss	xmm0, xmm5
	addss	xmm0, DWORD PTR [esi+792]
	movss	DWORD PTR [esi+792], xmm0

; 12323:         static_cast <float> (
; 12324:           (state.Gamepad.wButtons & XINPUT_GAMEPAD_DPAD_UP)    != 0
; 12325:         );
; 12326: 
; 12327:       // Move Down
; 12328:       io.NavInputs [ImGuiNavInput_PadDown]  +=  0.001f *

	mov	eax, DWORD PTR _state$[ebp+4]
	shr	eax, 1
	and	eax, 1
	movd	xmm0, eax
	cvtdq2ps xmm0, xmm0
	mulss	xmm0, xmm5
	addss	xmm0, DWORD PTR [esi+796]
	movss	DWORD PTR [esi+796], xmm0

; 12329:         static_cast <float> (
; 12330:           (state.Gamepad.wButtons & XINPUT_GAMEPAD_DPAD_DOWN)  != 0
; 12331:         );
; 12332: 
; 12333:       // Move Left
; 12334:       io.NavInputs [ImGuiNavInput_PadLeft]  +=  0.001f *

	mov	eax, DWORD PTR _state$[ebp+4]
	shr	eax, 2
	and	eax, 1
	movd	xmm0, eax
	cvtdq2ps xmm0, xmm0
	mulss	xmm0, xmm5
	addss	xmm0, DWORD PTR [esi+800]
	movss	DWORD PTR [esi+800], xmm0

; 12335:         static_cast <float> (
; 12336:           (state.Gamepad.wButtons & XINPUT_GAMEPAD_DPAD_LEFT)  != 0
; 12337:         );
; 12338: 
; 12339:       // Move Right
; 12340:       io.NavInputs [ImGuiNavInput_PadRight] +=  0.001f *

	mov	eax, DWORD PTR _state$[ebp+4]
	shr	eax, 3
	and	eax, 1
	mov	DWORD PTR [esi+812], 0

; 12341:         static_cast <float> (
; 12342:           (state.Gamepad.wButtons & XINPUT_GAMEPAD_DPAD_RIGHT) != 0
; 12343:         );
; 12344: 
; 12345: 
; 12346:       io.NavInputs [ImGuiNavInput_PadScrollDown]    = 0.0f;
; 12347:       io.NavInputs [ImGuiNavInput_PadScrollUp]      = 0.0f;
; 12348: 
; 12349:       if (uLY > 0.0f)

	comiss	xmm3, xmm1
	mov	DWORD PTR [esi+808], 0
	movd	xmm0, eax
	cvtdq2ps xmm0, xmm0
	mulss	xmm0, xmm5
	addss	xmm0, DWORD PTR [esi+804]
	movss	DWORD PTR [esi+804], xmm0
	movss	xmm0, DWORD PTR __xmm@80000000800000008000000080000000
	jbe	SHORT $LN10@SK_ImGui_P

; 12350:         io.NavInputs [ImGuiNavInput_PadScrollUp]   += uLY / analog_sensitivity;

	divss	xmm3, DWORD PTR ?analog_sensitivity@@3MA
	movss	DWORD PTR [esi+808], xmm3
	jmp	SHORT $LN12@SK_ImGui_P
$LN10@SK_ImGui_P:

; 12351: 
; 12352:       else if (uLY < 0.0f)

	comiss	xmm1, xmm3
	jbe	SHORT $LN12@SK_ImGui_P

; 12353:         io.NavInputs [ImGuiNavInput_PadScrollDown] -= uLY / analog_sensitivity;

	divss	xmm3, DWORD PTR ?analog_sensitivity@@3MA
	xorps	xmm3, xmm0
	movss	DWORD PTR [esi+812], xmm3
$LN12@SK_ImGui_P:

; 12354: 
; 12355: 
; 12356:       io.NavInputs [ImGuiNavInput_PadScrollLeft]    = 0.0f;
; 12357:       io.NavInputs [ImGuiNavInput_PadScrollRight]   = 0.0f;
; 12358: 
; 12359:       if (uLX > 0.0f)

	comiss	xmm2, xmm1
	mov	DWORD PTR [esi+816], 0
	mov	DWORD PTR [esi+820], 0
	jbe	SHORT $LN13@SK_ImGui_P

; 12360:         io.NavInputs [ImGuiNavInput_PadScrollRight] += uLX / analog_sensitivity;

	divss	xmm2, DWORD PTR ?analog_sensitivity@@3MA
	movss	DWORD PTR [esi+820], xmm2
	jmp	SHORT $LN15@SK_ImGui_P
$LN13@SK_ImGui_P:

; 12361: 
; 12362:       else if (uLX < 0.0f)

	comiss	xmm1, xmm2
	jbe	SHORT $LN15@SK_ImGui_P

; 12363:         io.NavInputs [ImGuiNavInput_PadScrollLeft]  -= uLX / analog_sensitivity;

	divss	xmm2, DWORD PTR ?analog_sensitivity@@3MA
	xorps	xmm2, xmm0
	movss	DWORD PTR [esi+816], xmm2
$LN15@SK_ImGui_P:

; 12364: 
; 12365: 
; 12366:       // Next Window (with PadMenu held)              // e.g. L-trigger
; 12367:       io.NavInputs [ImGuiNavInput_PadFocusPrev]   +=

	mov	eax, DWORD PTR _state$[ebp+4]
	shr	eax, 8
	and	eax, 1
	movd	xmm0, eax
	cvtdq2ps xmm0, xmm0
	addss	xmm0, DWORD PTR [esi+824]
	movss	DWORD PTR [esi+824], xmm0

; 12368:         static_cast <float> (
; 12369:           (state.Gamepad.wButtons & XINPUT_GAMEPAD_LEFT_SHOULDER) != 0
; 12370:         );
; 12371: 
; 12372:       // Prev Window (with PadMenu held)              // e.g. R-trigger
; 12373:       io.NavInputs [ImGuiNavInput_PadFocusNext]   += 

	mov	eax, DWORD PTR _state$[ebp+4]
	shr	eax, 9
	and	eax, 1
	movd	xmm0, eax
	cvtdq2ps xmm0, xmm0
	addss	xmm0, DWORD PTR [esi+828]
	movss	DWORD PTR [esi+828], xmm0

; 12374:         static_cast <float> (
; 12375:           (state.Gamepad.wButtons & XINPUT_GAMEPAD_RIGHT_SHOULDER) != 0
; 12376:         );
; 12377: 
; 12378:       io.NavInputs [ImGuiNavInput_PadTweakSlow] +=

	mov	al, BYTE PTR _state$[ebp+6]
	cmp	al, 30					; 0000001eH
	jbe	SHORT $LN29@SK_ImGui_P
	movzx	eax, al
	sub	eax, 30					; 0000001eH
	jmp	SHORT $LN30@SK_ImGui_P
$LN29@SK_ImGui_P:
	xor	eax, eax
$LN30@SK_ImGui_P:
	movss	xmm2, DWORD PTR __real@3b91a2b4
	movd	xmm0, eax
	cvtdq2ps xmm0, xmm0
	mulss	xmm0, xmm2
	addss	xmm0, DWORD PTR [esi+832]
	movss	DWORD PTR [esi+832], xmm0

; 12379:         static_cast <float> ( 
; 12380:           SK_Threshold ( state.Gamepad.bLeftTrigger, 
; 12381:                          XINPUT_GAMEPAD_TRIGGER_THRESHOLD ) ) /
; 12382:               ( 255.0f - XINPUT_GAMEPAD_TRIGGER_THRESHOLD     );
; 12383: 
; 12384:       io.NavInputs [ImGuiNavInput_PadTweakFast] +=

	mov	al, BYTE PTR _state$[ebp+7]
	cmp	al, 30					; 0000001eH
	jbe	SHORT $LN31@SK_ImGui_P
	movzx	eax, al
	sub	eax, 30					; 0000001eH
	jmp	SHORT $LN32@SK_ImGui_P
$LN31@SK_ImGui_P:
	xor	eax, eax
$LN32@SK_ImGui_P:
	movd	xmm0, eax
	cvtdq2ps xmm0, xmm0
	mulss	xmm0, xmm2
	addss	xmm0, DWORD PTR [esi+836]
	movss	DWORD PTR [esi+836], xmm0
	jmp	SHORT $LN88@SK_ImGui_P
$LN91@SK_ImGui_P:
	xorps	xmm1, xmm1
$LN88@SK_ImGui_P:

; 12385:         static_cast <float> (
; 12386:           SK_Threshold ( state.Gamepad.bRightTrigger,
; 12387:                          XINPUT_GAMEPAD_TRIGGER_THRESHOLD ) ) /
; 12388:               ( 255.0f - XINPUT_GAMEPAD_TRIGGER_THRESHOLD     );
; 12389:     }
; 12390:   }
; 12391: 
; 12392: 
; 12393:   if ( io.KeysDown         [VK_CAPITAL] &&

	cmp	BYTE PTR [esi+249], 0
	je	SHORT $LN16@SK_ImGui_P
	movss	xmm0, DWORD PTR [esi+1108]
	ucomiss	xmm0, xmm1
	lahf
	test	ah, 68					; 00000044H
	jp	SHORT $LN16@SK_ImGui_P

; 12394:        io.KeysDownDuration [VK_CAPITAL] == 0.0f )
; 12395:   {
; 12396:     bool visible = false,
; 12397:          nav     = true;
; 12398: 
; 12399:     SK_ImGui_ToggleEx (visible, nav);

	lea	eax, DWORD PTR _nav$2[ebp]
	mov	BYTE PTR _visible$1[ebp], 0
	push	eax
	lea	eax, DWORD PTR _visible$1[ebp]
	mov	BYTE PTR _nav$2[ebp], 1
	push	eax
	call	?SK_ImGui_ToggleEx@@YG_NAA_N0@Z		; SK_ImGui_ToggleEx
$LN16@SK_ImGui_P:

; 12400:   }
; 12401: 
; 12402: 
; 12403:   if (! nav_usable)

	cmp	BYTE PTR ?nav_usable@@3_NA, 0		; nav_usable
	jne	SHORT $LN17@SK_ImGui_P

; 12404:     io.NavActive = false;

	mov	BYTE PTR [esi+845], 0
$LN17@SK_ImGui_P:

; 12405: 
; 12406:   //
; 12407:   // Same basic idea as above, only for keyboard
; 12408:   //
; 12409:   //   The primary difference between gamepad and keyboard is the lack of a left
; 12410:   //     analog stick to differentiate D-Pad behavior from analog stick movement.
; 12411:   //
; 12412:   //   For keyboard, we alias both to the same task and also consider WASD to be
; 12413:   //     identical to Up/Down/Left/Right.
; 12414:   //
; 12415:   if (io.NavUsable && nav_usable)

	cmp	BYTE PTR [esi+844], 0
	movss	xmm2, DWORD PTR __real@3f800000
	je	$LN18@SK_ImGui_P
	cmp	BYTE PTR ?nav_usable@@3_NA, 0		; nav_usable
	je	$LN18@SK_ImGui_P

; 12416:   {
; 12417:     io.NavInputs [ImGuiNavInput_PadMenu] += (io.KeyCtrl) ? 1.0f : 0.0f;

	cmp	BYTE PTR [esi+225], 0
	xorps	xmm1, xmm1
	je	SHORT $LN33@SK_ImGui_P
	movaps	xmm3, xmm2
	jmp	SHORT $LN34@SK_ImGui_P
$LN33@SK_ImGui_P:
	xorps	xmm3, xmm3
$LN34@SK_ImGui_P:

; 12418: 
; 12419:     if (! io.WantTextInput)

	cmp	BYTE PTR [esi+842], 0
	movss	xmm0, DWORD PTR [esi+788]
	addss	xmm0, xmm3
	movss	DWORD PTR [esi+788], xmm0
	jne	$LN20@SK_ImGui_P

; 12420:     {
; 12421:       const bool up    = ( io.KeysDown ['W'] || io.KeysDown [VK_UP   ] );

	cmp	BYTE PTR [esi+316], 0
	jne	SHORT $LN35@SK_ImGui_P
	cmp	BYTE PTR [esi+267], 0
	jne	SHORT $LN35@SK_ImGui_P
	xor	dl, dl
	jmp	SHORT $LN36@SK_ImGui_P
$LN35@SK_ImGui_P:
	mov	dl, 1
$LN36@SK_ImGui_P:

; 12422:       const bool down  = ( io.KeysDown ['S'] || io.KeysDown [VK_DOWN ] );

	cmp	BYTE PTR [esi+312], 0
	jne	SHORT $LN37@SK_ImGui_P
	cmp	BYTE PTR [esi+269], 0
	jne	SHORT $LN37@SK_ImGui_P
	xor	ah, ah
	jmp	SHORT $LN38@SK_ImGui_P
$LN37@SK_ImGui_P:
	mov	ah, 1
$LN38@SK_ImGui_P:

; 12423:       const bool left  = ( io.KeysDown ['A'] || io.KeysDown [VK_LEFT ] );

	cmp	BYTE PTR [esi+294], 0
	jne	SHORT $LN39@SK_ImGui_P
	cmp	BYTE PTR [esi+266], 0
	jne	SHORT $LN39@SK_ImGui_P
	xor	cl, cl
	jmp	SHORT $LN40@SK_ImGui_P
$LN39@SK_ImGui_P:
	mov	cl, 1
$LN40@SK_ImGui_P:

; 12424:       const bool right = ( io.KeysDown ['D'] || io.KeysDown [VK_RIGHT] );

	cmp	BYTE PTR [esi+297], 0
	jne	SHORT $LN41@SK_ImGui_P
	cmp	BYTE PTR [esi+268], 0
	jne	SHORT $LN41@SK_ImGui_P
	xor	al, al
	jmp	SHORT $LN42@SK_ImGui_P
$LN41@SK_ImGui_P:
	mov	al, 1
$LN42@SK_ImGui_P:

; 12425: 
; 12426:       const float inv_analog     =
; 12427:           ( 1.0f / analog_sensitivity );
; 12428: 
; 12429:       const float analog_epsilon = 0.001f;
; 12430: 
; 12431:       io.NavInputs [ImGuiNavInput_PadScrollUp]    +=

	cmp	BYTE PTR [esi+262], 0
	movaps	xmm0, xmm2
	divss	xmm0, DWORD PTR ?analog_sensitivity@@3MA
	je	SHORT $LN43@SK_ImGui_P
	movaps	xmm3, xmm0
	jmp	SHORT $LN44@SK_ImGui_P
$LN43@SK_ImGui_P:
	xorps	xmm3, xmm3
$LN44@SK_ImGui_P:

; 12432:         (io.KeysDown [VK_PRIOR] ? inv_analog : 0.0f);
; 12433:       io.NavInputs [ImGuiNavInput_PadScrollDown]  +=

	cmp	BYTE PTR [esi+263], 0
	movss	xmm6, DWORD PTR [esi+808]
	addss	xmm6, xmm3
	movss	DWORD PTR [esi+808], xmm6
	je	SHORT $LN45@SK_ImGui_P
	movaps	xmm3, xmm0
	jmp	SHORT $LN46@SK_ImGui_P
$LN45@SK_ImGui_P:
	xorps	xmm3, xmm3
$LN46@SK_ImGui_P:

; 12434:         (io.KeysDown [VK_NEXT ] ? inv_analog : 0.0f);
; 12435:       io.NavInputs [ImGuiNavInput_PadScrollLeft]  +=

	cmp	BYTE PTR [esi+265], 0
	addss	xmm3, DWORD PTR [esi+812]
	movss	DWORD PTR [esi+812], xmm3
	je	SHORT $LN47@SK_ImGui_P
	movaps	xmm4, xmm0
	jmp	SHORT $LN48@SK_ImGui_P
$LN47@SK_ImGui_P:
	xorps	xmm4, xmm4
$LN48@SK_ImGui_P:

; 12436:         (io.KeysDown [VK_HOME ] ? inv_analog : 0.0f);
; 12437:       io.NavInputs [ImGuiNavInput_PadScrollRight] +=

	cmp	BYTE PTR [esi+264], 0
	movss	xmm7, DWORD PTR [esi+816]
	addss	xmm7, xmm4
	movss	DWORD PTR [esi+816], xmm7
	je	SHORT $LN49@SK_ImGui_P
	movaps	xmm5, xmm0
	jmp	SHORT $LN50@SK_ImGui_P
$LN49@SK_ImGui_P:
	xorps	xmm5, xmm5
$LN50@SK_ImGui_P:
	addss	xmm5, DWORD PTR [esi+820]
	movss	DWORD PTR [esi+820], xmm5

; 12438:         (io.KeysDown [VK_END  ] ? inv_analog : 0.0f);
; 12439: 
; 12440:       io.NavInputs [ImGuiNavInput_PadScrollUp]    +=

	test	dl, dl
	je	SHORT $LN51@SK_ImGui_P
	movaps	xmm4, xmm0
	jmp	SHORT $LN52@SK_ImGui_P
$LN51@SK_ImGui_P:
	xorps	xmm4, xmm4
$LN52@SK_ImGui_P:
	addss	xmm4, xmm6
	movss	DWORD PTR [esi+808], xmm4

; 12441:         (up    ? inv_analog : 0.0f);
; 12442:       io.NavInputs [ImGuiNavInput_PadScrollDown]  +=

	test	ah, ah
	je	SHORT $LN53@SK_ImGui_P
	movaps	xmm4, xmm0
	jmp	SHORT $LN54@SK_ImGui_P
$LN53@SK_ImGui_P:
	xorps	xmm4, xmm4
$LN54@SK_ImGui_P:
	addss	xmm4, xmm3
	movss	DWORD PTR [esi+812], xmm4

; 12443:         (down  ? inv_analog : 0.0f);
; 12444:       io.NavInputs [ImGuiNavInput_PadScrollLeft]  +=

	test	cl, cl
	je	SHORT $LN55@SK_ImGui_P
	movaps	xmm3, xmm0
	jmp	SHORT $LN56@SK_ImGui_P
$LN55@SK_ImGui_P:
	xorps	xmm3, xmm3
$LN56@SK_ImGui_P:
	addss	xmm3, xmm7
	movss	DWORD PTR [esi+816], xmm3

; 12445:         (left  ? inv_analog : 0.0f);
; 12446:       io.NavInputs [ImGuiNavInput_PadScrollRight] +=

	test	al, al
	jne	SHORT $LN58@SK_ImGui_P
	xorps	xmm0, xmm0
$LN58@SK_ImGui_P:

; 12447:         (right ? inv_analog : 0.0f);
; 12448: 
; 12449:       io.NavInputs [ImGuiNavInput_PadUp]          +=

	movss	xmm3, DWORD PTR __real@3a83126f
	addss	xmm0, xmm5
	movss	DWORD PTR [esi+820], xmm0
	test	dl, dl
	je	SHORT $LN59@SK_ImGui_P
	movaps	xmm0, xmm3
	jmp	SHORT $LN60@SK_ImGui_P
$LN59@SK_ImGui_P:
	xorps	xmm0, xmm0
$LN60@SK_ImGui_P:
	addss	xmm0, DWORD PTR [esi+792]
	movss	DWORD PTR [esi+792], xmm0

; 12450:         (up    ? analog_epsilon : 0.0f);
; 12451:       io.NavInputs [ImGuiNavInput_PadDown]        +=

	test	ah, ah
	je	SHORT $LN61@SK_ImGui_P
	movaps	xmm4, xmm3
	jmp	SHORT $LN62@SK_ImGui_P
$LN61@SK_ImGui_P:
	xorps	xmm4, xmm4
$LN62@SK_ImGui_P:
	movss	xmm0, DWORD PTR [esi+796]
	addss	xmm0, xmm4
	movss	DWORD PTR [esi+796], xmm0

; 12452:         (down  ? analog_epsilon : 0.0f);
; 12453:       io.NavInputs [ImGuiNavInput_PadLeft]        +=

	test	cl, cl
	je	SHORT $LN63@SK_ImGui_P
	movaps	xmm0, xmm3
	jmp	SHORT $LN64@SK_ImGui_P
$LN63@SK_ImGui_P:
	xorps	xmm0, xmm0
$LN64@SK_ImGui_P:
	addss	xmm0, DWORD PTR [esi+800]
	movss	DWORD PTR [esi+800], xmm0

; 12454:         (left  ? analog_epsilon : 0.0f);
; 12455:       io.NavInputs [ImGuiNavInput_PadRight]       +=

	test	al, al
	jne	SHORT $LN66@SK_ImGui_P
	xorps	xmm3, xmm3
$LN66@SK_ImGui_P:
	addss	xmm3, DWORD PTR [esi+804]
	movss	DWORD PTR [esi+804], xmm3
$LN20@SK_ImGui_P:

; 12456:         (right ? analog_epsilon : 0.0f);
; 12457:     }
; 12458: 
; 12459:     io.NavInputs  [ImGuiNavInput_PadActivate]     +=

	cmp	BYTE PTR [esi+242], 0
	je	SHORT $LN67@SK_ImGui_P
	movaps	xmm0, xmm2
	jmp	SHORT $LN68@SK_ImGui_P
$LN67@SK_ImGui_P:
	xorps	xmm0, xmm0
$LN68@SK_ImGui_P:

; 12460:       io.KeysDown [VK_RETURN]  ?  1.0f : 0.0f;
; 12461:     io.NavInputs  [ImGuiNavInput_PadCancel]       +=

	cmp	BYTE PTR [esi+256], 0
	addss	xmm0, DWORD PTR [edi]
	movss	DWORD PTR [edi], xmm0
	je	SHORT $LN69@SK_ImGui_P
	movaps	xmm1, xmm2
$LN69@SK_ImGui_P:
	movss	xmm0, DWORD PTR [esi+780]
	addss	xmm0, xmm1
	movss	DWORD PTR [esi+780], xmm0

; 12462:       io.KeysDown [VK_ESCAPE]  ?  1.0f : 0.0f;
; 12463:   }
; 12464: 
; 12465:   else

	jmp	SHORT $LN19@SK_ImGui_P
$LN18@SK_ImGui_P:

; 12466:     io.NavActive = false;

	mov	BYTE PTR [esi+845], 0
$LN19@SK_ImGui_P:

; 12467: 
; 12468:   io.NavInputs [ImGuiNavInput_PadFocusPrev] +=

	mov	al, BYTE PTR [esi+225]
	test	al, al
	je	SHORT $LN94@SK_ImGui_P
	cmp	BYTE PTR [esi+226], 0
	je	SHORT $LN94@SK_ImGui_P
	cmp	BYTE PTR [esi+238], 0
	xorps	xmm1, xmm1
	je	SHORT $LN71@SK_ImGui_P
	movss	xmm0, DWORD PTR [esi+1064]
	ucomiss	xmm0, xmm1
	lahf
	test	ah, 68					; 00000044H
	jp	SHORT $LN71@SK_ImGui_P
	movaps	xmm0, xmm2
	jmp	SHORT $LN72@SK_ImGui_P
$LN94@SK_ImGui_P:
	xorps	xmm1, xmm1
$LN71@SK_ImGui_P:
	xorps	xmm0, xmm0
$LN72@SK_ImGui_P:
	addss	xmm0, DWORD PTR [esi+824]
	movss	DWORD PTR [esi+824], xmm0

; 12469:     (io.KeyCtrl && io.KeyShift && io.KeysDown [VK_TAB] &&
; 12470:                           io.KeysDownDuration [VK_TAB] == 0.0f)  ? 1.0f : 0.0f;
; 12471: 
; 12472:   io.NavInputs [ImGuiNavInput_PadFocusNext] +=

	test	al, al
	je	SHORT $LN73@SK_ImGui_P
	cmp	BYTE PTR [esi+238], 0
	je	SHORT $LN73@SK_ImGui_P
	movss	xmm0, DWORD PTR [esi+1064]
	ucomiss	xmm0, xmm1
	lahf
	test	ah, 68					; 00000044H
	jnp	SHORT $LN74@SK_ImGui_P
$LN73@SK_ImGui_P:
	xorps	xmm2, xmm2
$LN74@SK_ImGui_P:

; 12473:     (io.KeyCtrl                && io.KeysDown [VK_TAB] &&
; 12474:                           io.KeysDownDuration [VK_TAB] == 0.0f)  ? 1.0f : 0.0f;
; 12475: 
; 12476: 
; 12477: 
; 12478:   if (io.NavInputs [ImGuiNavInput_PadActivate] != 0.0f)

	movss	xmm0, DWORD PTR [edi]
	addss	xmm2, DWORD PTR [esi+828]
	ucomiss	xmm0, xmm1
	movss	DWORD PTR [esi+828], xmm2
	lahf
	test	ah, 68					; 00000044H
	jnp	SHORT $LN21@SK_ImGui_P

; 12479:     io.MouseDown [4] = true;

	mov	BYTE PTR [esi+216], 1

; 12480:   else

	jmp	SHORT $LN22@SK_ImGui_P
$LN21@SK_ImGui_P:

; 12481:     io.MouseDown [4] = false;

	mov	BYTE PTR [esi+216], 0
$LN22@SK_ImGui_P:

; 12482: 
; 12483:   static DWORD last_toggle = 0UL;
; 12484: 
; 12485:   if ( ( io.NavInputs             [ImGuiNavInput_PadTweakSlow] != 0.0f &&
; 12486:          io.NavInputs             [ImGuiNavInput_PadTweakFast] != 0.0f )   &&

	movss	xmm0, DWORD PTR [esi+832]
	ucomiss	xmm0, xmm1
	lahf
	test	ah, 68					; 00000044H
	jnp	SHORT $LN25@SK_ImGui_P
	movss	xmm0, DWORD PTR [esi+836]
	ucomiss	xmm0, xmm1
	lahf
	test	ah, 68					; 00000044H
	jnp	SHORT $LN25@SK_ImGui_P
	movss	xmm0, DWORD PTR [esi+5180]
	ucomiss	xmm0, xmm1
	lahf
	test	ah, 68					; 00000044H
	jnp	SHORT $LN24@SK_ImGui_P
	movss	xmm0, DWORD PTR [esi+5184]
	ucomiss	xmm0, xmm1
	lahf
	test	ah, 68					; 00000044H
	jp	SHORT $LN25@SK_ImGui_P
$LN24@SK_ImGui_P:

; 12487:        ( io.NavInputsDownDuration [ImGuiNavInput_PadTweakSlow] == 0.0f ||
; 12488:          io.NavInputsDownDuration [ImGuiNavInput_PadTweakFast] == 0.0f )      )
; 12489:   {
; 12490:     if (last_toggle < SK_GetFramesDrawn () - 1)

	call	?SK_GetFramesDrawn@@YGKXZ		; SK_GetFramesDrawn
	dec	eax
	cmp	DWORD PTR ?last_toggle@?1??SK_ImGui_PollGamepad@@YAXXZ@4KA, eax
	jae	SHORT $LN25@SK_ImGui_P

; 12491:     {
; 12492:       SK_ImGui_Widgets.hide_all = (! SK_ImGui_Widgets.hide_all);

	cmp	BYTE PTR ?SK_ImGui_Widgets@@3USK_ImGui_WidgetRegistry@@A+32, 0
	sete	BYTE PTR ?SK_ImGui_Widgets@@3USK_ImGui_WidgetRegistry@@A+32

; 12493:       last_toggle               =    SK_GetFramesDrawn ();

	call	?SK_GetFramesDrawn@@YGKXZ		; SK_GetFramesDrawn
	mov	DWORD PTR ?last_toggle@?1??SK_ImGui_PollGamepad@@YAXXZ@4KA, eax
$LN25@SK_ImGui_P:

; 12494:     }
; 12495:   }
; 12496: }

	pop	edi
	pop	esi
	mov	esp, ebp
	pop	ebp
	mov	esp, ebx
	pop	ebx
	ret	0
?SK_ImGui_PollGamepad@@YAXXZ ENDP			; SK_ImGui_PollGamepad
_TEXT	ENDS
; Function compile flags: /Ogtp
; File c:\program files (x86)\microsoft visual studio\2017\community\vc\tools\msvc\14.10.25017\include\algorithm
;	COMDAT ??$min@M@std@@YAABMABM0@Z
_TEXT	SEGMENT
__Left$ = 8						; size = 4
__Right$ = 12						; size = 4
??$min@M@std@@YAABMABM0@Z PROC				; std::min<float>, COMDAT

; 3778 : 	{	// return smaller of _Left and _Right

	npad	2
	push	ebp
	mov	ebp, esp

; 3779 : 	return (_DEBUG_LT(_Right, _Left) ? _Right : _Left);

	mov	eax, DWORD PTR __Left$[ebp]
	mov	ecx, DWORD PTR __Right$[ebp]
	movss	xmm0, DWORD PTR [eax]
	comiss	xmm0, DWORD PTR [ecx]
	cmova	eax, ecx

; 3780 : 	}

	pop	ebp
	ret	0
??$min@M@std@@YAABMABM0@Z ENDP				; std::min<float>
_TEXT	ENDS
; Function compile flags: /Ogtp
; File c:\users\andon\source\repos\specialk\src\imgui\imgui.cpp
; File c:\users\andon\source\repos\specialk\include\imgui\imgui.h
; File c:\users\andon\source\repos\specialk\src\imgui\imgui.cpp
; File c:\users\andon\source\repos\specialk\include\imgui\imgui.h
; File c:\users\andon\source\repos\specialk\src\imgui\imgui.cpp
; File c:\users\andon\source\repos\specialk\include\imgui\imgui.h
; File c:\users\andon\source\repos\specialk\src\imgui\imgui.cpp
; File c:\program files (x86)\microsoft visual studio\2017\community\vc\tools\msvc\14.10.25017\include\algorithm
; File c:\users\andon\source\repos\specialk\src\imgui\imgui.cpp
_TEXT	SEGMENT
_joy_caps$1 = -856					; size = 728
$T2 = -128						; size = 16
_joy_ex$3 = -108					; size = 52
$T4 = -56						; size = 4
$T5 = -52						; size = 4
$T6 = -48						; size = 4
$T7 = -44						; size = 4
$T8 = -40						; size = 4
$T9 = -36						; size = 4
_state$ = -32						; size = 16
$T10 = -8						; size = 4
$T11 = -8						; size = 4
_toggle_nav$12 = -2					; size = 1
_toggle$13 = -2						; size = 1
_toggle_vis$14 = -1					; size = 1
_nav$15 = -1						; size = 1
?SK_ImGui_PollGamepad_EndFrame@@YAXXZ PROC		; SK_ImGui_PollGamepad_EndFrame

; 12071: {

	npad	2
	push	ebx
	mov	ebx, esp
	sub	esp, 8
	and	esp, -16				; fffffff0H
	add	esp, 4
	push	ebp
	mov	ebp, DWORD PTR [ebx+4]
	mov	DWORD PTR [esp+4], ebp
	mov	ebp, esp
	sub	esp, 856				; 00000358H
	push	esi
	push	edi

; 12072:   ImGuiIO& io (ImGui::GetIO ());

	call	?GetIO@ImGui@@YAAAUImGuiIO@@XZ		; ImGui::GetIO
	mov	edi, eax

; 12073: 
; 12074:   // Reset Mouse / Keyboard State so that we can process all state transitions
; 12075:   //   that occur during the next frame without losing any input events.
; 12076:   if (GetForegroundWindow () == game_window.hWnd)

	call	DWORD PTR __imp__GetForegroundWindow@0
	cmp	eax, DWORD PTR ?game_window@@3Usk_window_s@@A+4
	jne	$LN5@SK_ImGui_P

; 12077:   {
; 12078:     io.MouseDown [0] = (GetAsyncKeyState_Original (VK_LBUTTON)  & 0x8000) != 0;

	push	1
	call	DWORD PTR ?GetAsyncKeyState_Original@@3P6GFH@ZA ; GetAsyncKeyState_Original
	shr	eax, 15					; 0000000fH
	and	al, 1

; 12079:     io.MouseDown [1] = (GetAsyncKeyState_Original (VK_RBUTTON)  & 0x8000) != 0;

	push	2
	mov	BYTE PTR [edi+212], al
	call	DWORD PTR ?GetAsyncKeyState_Original@@3P6GFH@ZA ; GetAsyncKeyState_Original
	shr	eax, 15					; 0000000fH
	and	al, 1

; 12080:     io.MouseDown [2] = (GetAsyncKeyState_Original (VK_MBUTTON)  & 0x8000) != 0;

	push	4
	mov	BYTE PTR [edi+213], al
	call	DWORD PTR ?GetAsyncKeyState_Original@@3P6GFH@ZA ; GetAsyncKeyState_Original
	shr	eax, 15					; 0000000fH
	and	al, 1

; 12081:     io.MouseDown [3] = (GetAsyncKeyState_Original (VK_XBUTTON1) & 0x8000) != 0;

	push	5
	mov	BYTE PTR [edi+214], al
	call	DWORD PTR ?GetAsyncKeyState_Original@@3P6GFH@ZA ; GetAsyncKeyState_Original
	shr	eax, 15					; 0000000fH
	and	al, 1

; 12082:     io.MouseDown [4] = (GetAsyncKeyState_Original (VK_XBUTTON2) & 0x8000) != 0;

	push	6
	mov	BYTE PTR [edi+215], al
	call	DWORD PTR ?GetAsyncKeyState_Original@@3P6GFH@ZA ; GetAsyncKeyState_Original
	shr	eax, 15					; 0000000fH

; 12083: 
; 12084:     // This stupid hack prevents the Steam overlay from making the software
; 12085:     //   think tab is stuck down.
; 12086:     for (int i = 8; i < 256; i++)

	mov	esi, 8
	and	al, 1
	mov	BYTE PTR [edi+216], al
	npad	3
$LL4@SK_ImGui_P:

; 12087:       io.KeysDown [i] = (GetAsyncKeyState_Original (i) & 0x8000) != 0;

	push	esi
	call	DWORD PTR ?GetAsyncKeyState_Original@@3P6GFH@ZA ; GetAsyncKeyState_Original
	shr	eax, 15					; 0000000fH
	and	al, 1
	mov	BYTE PTR [edi+esi+229], al
	inc	esi
	cmp	esi, 256				; 00000100H
	jl	SHORT $LL4@SK_ImGui_P

; 12088:   }
; 12089: 
; 12090:   else

	jmp	SHORT $LN6@SK_ImGui_P
$LN5@SK_ImGui_P:

; 12091:   {
; 12092:     ZeroMemory (io.KeysDown,  sizeof (bool) * 512);

	push	512					; 00000200H
	lea	eax, DWORD PTR [edi+229]
	push	0
	push	eax
	call	_memset

; 12093:     ZeroMemory (io.MouseDown, sizeof (bool) * 5);

	mov	DWORD PTR [edi+212], 0
	add	esp, 12					; 0000000cH
	mov	BYTE PTR [edi+216], 0
$LN6@SK_ImGui_P:

; 12094:   }
; 12095: 
; 12096:          XINPUT_STATE state      = {      };
; 12097:   static XINPUT_STATE last_state = { 1, 0 };
; 12098: 
; 12099:   bool api_bridge =
; 12100:     config.input.gamepad.native_ps4 || ( steam_to_xi != nullptr );

	cmp	BYTE PTR ?config@@3Usk_config_t@@A+674, 0
	xorps	xmm0, xmm0
	mov	esi, DWORD PTR __imp__timeGetTime@0
	movaps	XMMWORD PTR _state$[ebp], xmm0
	jne	SHORT $LN28@SK_ImGui_P
	cmp	DWORD PTR ?steam_to_xi@@3PAU_XINPUT_STATE@@A, 0 ; steam_to_xi
	jne	SHORT $LN28@SK_ImGui_P

; 12117:   }
; 12118: 
; 12119: #if 1
; 12120:   state = joy_to_xi;

	movups	xmm0, XMMWORD PTR ?joy_to_xi@@3U_XINPUT_STATE@@A

; 12121: #else
; 12122:   state = di8_to_xi;
; 12123: #endif
; 12124: 
; 12125:   if ( api_bridge ||

	lea	eax, DWORD PTR _state$[ebp]
	push	eax
	push	DWORD PTR ?config@@3Usk_config_t@@A+680
	movups	XMMWORD PTR _state$[ebp], xmm0
	call	?SK_XInput_PollController@@YA_NHPAU_XINPUT_STATE@@@Z ; SK_XInput_PollController
	add	esp, 8
	test	al, al
	jne	SHORT $LN100@SK_ImGui_P

; 12172:     }
; 12173:   }
; 12174: 
; 12175:   else
; 12176:     ZeroMemory (&state.Gamepad, sizeof XINPUT_GAMEPAD);

	xorps	xmm0, xmm0
	mov	DWORD PTR _state$[ebp+12], 0
	movq	QWORD PTR _state$[ebp+4], xmm0
	movaps	xmm1, XMMWORD PTR _state$[ebp]
	jmp	$LN102@SK_ImGui_P
$LN100@SK_ImGui_P:

; 12117:   }
; 12118: 
; 12119: #if 1
; 12120:   state = joy_to_xi;

	movaps	xmm1, XMMWORD PTR _state$[ebp]
	jmp	SHORT $LN10@SK_ImGui_P
$LN28@SK_ImGui_P:

; 12101: 
; 12102:   if (api_bridge)
; 12103:   {
; 12104:     // Translate DirectInput to XInput, because I'm not writing multiple controller codepaths
; 12105:     //   for no good reason.
; 12106:     JOYINFOEX joy_ex   { };

	push	52					; 00000034H
	lea	eax, DWORD PTR _joy_ex$3[ebp]
	push	0
	push	eax
	call	_memset

; 12107:     JOYCAPSW  joy_caps { };

	push	728					; 000002d8H
	lea	eax, DWORD PTR _joy_caps$1[ebp]
	push	0
	push	eax
	call	_memset
	add	esp, 24					; 00000018H

; 12108: 
; 12109:     joy_ex.dwSize  = sizeof JOYINFOEX;

	mov	DWORD PTR _joy_ex$3[ebp], 52		; 00000034H

; 12110:     joy_ex.dwFlags = JOY_RETURNALL      | JOY_RETURNPOVCTS |
; 12111:                      JOY_RETURNCENTERED | JOY_USEDEADZONE;
; 12112: 
; 12113:     joyGetPosEx    (JOYSTICKID1, &joy_ex);

	lea	eax, DWORD PTR _joy_ex$3[ebp]
	mov	DWORD PTR _joy_ex$3[ebp+4], 3839	; 00000effH
	push	eax
	push	0
	call	DWORD PTR __imp__joyGetPosEx@8

; 12114:     joyGetDevCapsW (JOYSTICKID1, &joy_caps, sizeof JOYCAPSW);

	push	728					; 000002d8H
	lea	eax, DWORD PTR _joy_caps$1[ebp]
	push	eax
	push	0
	call	DWORD PTR __imp__joyGetDevCapsW@12

; 12115: 
; 12116:     SK_JOY_TranslateToXInput (&joy_ex, &joy_caps);

	lea	eax, DWORD PTR _joy_caps$1[ebp]
	push	eax
	lea	eax, DWORD PTR _joy_ex$3[ebp]
	push	eax
	lea	eax, DWORD PTR $T2[ebp]
	push	eax
	call	?SK_JOY_TranslateToXInput@@YA?AU_XINPUT_STATE@@PAUjoyinfoex_tag@@PBUtagJOYCAPSW@@@Z ; SK_JOY_TranslateToXInput

; 12117:   }
; 12118: 
; 12119: #if 1
; 12120:   state = joy_to_xi;

	movups	xmm1, XMMWORD PTR ?joy_to_xi@@3U_XINPUT_STATE@@A
	add	esp, 12					; 0000000cH
	movaps	XMMWORD PTR _state$[ebp], xmm1
$LN10@SK_ImGui_P:

; 12126:        SK_XInput_PollController (config.input.gamepad.xinput.ui_slot, &state) )
; 12127:   {
; 12128:     if ( state.Gamepad.wButtons & XINPUT_GAMEPAD_BACK  &&
; 12129:          state.Gamepad.wButtons & XINPUT_GAMEPAD_START &&

	movaps	xmm0, xmm1
	psrldq	xmm0, 4
	movd	eax, xmm0
	test	al, 32					; 00000020H
	je	SHORT $LN101@SK_ImGui_P
	test	al, 16					; 00000010H
	je	SHORT $LN101@SK_ImGui_P
	movd	edx, xmm1
	cmp	DWORD PTR ?last_state@?1??SK_ImGui_PollGamepad_EndFrame@@YAXXZ@4U_XINPUT_STATE@@A, edx
	ja	$LN102@SK_ImGui_P

; 12130:          last_state.dwPacketNumber <= state.dwPacketNumber )
; 12131:     {
; 12132:       if (! ( last_state.Gamepad.wButtons & XINPUT_GAMEPAD_BACK &&

	mov	cx, WORD PTR ?last_state@?1??SK_ImGui_PollGamepad_EndFrame@@YAXXZ@4U_XINPUT_STATE@@A+4
	test	cl, 32					; 00000020H
	je	SHORT $LN13@SK_ImGui_P
	test	cl, 16					; 00000010H
	jne	SHORT $LN14@SK_ImGui_P
$LN13@SK_ImGui_P:

; 12133:               last_state.Gamepad.wButtons & XINPUT_GAMEPAD_START ) )
; 12134:       {
; 12135:         bool toggle = true,
; 12136:              nav    = (! nav_usable);

	cmp	BYTE PTR ?nav_usable@@3_NA, 0		; nav_usable

; 12137: 
; 12138:         // Additional condition for Final Fantasy X so as not to interfere with soft reset
; 12139:         if (! ( state.Gamepad.bLeftTrigger  > XINPUT_GAMEPAD_TRIGGER_THRESHOLD || 

	movaps	xmm0, xmm1
	psrldq	xmm0, 6
	movd	eax, xmm0
	sete	BYTE PTR _nav$15[ebp]
	mov	BYTE PTR _toggle$13[ebp], 1
	cmp	al, 30					; 0000001eH
	ja	SHORT $LN14@SK_ImGui_P
	movaps	xmm0, xmm1
	psrldq	xmm0, 7
	movd	eax, xmm0
	cmp	al, 30					; 0000001eH
	ja	SHORT $LN14@SK_ImGui_P

; 12140:                 state.Gamepad.bRightTrigger > XINPUT_GAMEPAD_TRIGGER_THRESHOLD ) )
; 12141:         {
; 12142:           SK_ImGui_ToggleEx (toggle, nav);

	lea	eax, DWORD PTR _nav$15[ebp]
	push	eax
	lea	eax, DWORD PTR _toggle$13[ebp]
	push	eax
	call	?SK_ImGui_ToggleEx@@YG_NAA_N0@Z		; SK_ImGui_ToggleEx
	movaps	xmm1, XMMWORD PTR _state$[ebp]
$LN101@SK_ImGui_P:
	mov	cx, WORD PTR ?last_state@?1??SK_ImGui_PollGamepad_EndFrame@@YAXXZ@4U_XINPUT_STATE@@A+4
	mov	edx, DWORD PTR _state$[ebp]
$LN14@SK_ImGui_P:

; 12143:         }
; 12144:       }
; 12145:     }
; 12146: 
; 12147:      const DWORD LONG_PRESS  = 400UL;
; 12148:     static DWORD dwLastPress = MAXDWORD;
; 12149: 
; 12150:     if (last_state.dwPacketNumber <= state.dwPacketNumber)

	cmp	DWORD PTR ?last_state@?1??SK_ImGui_PollGamepad_EndFrame@@YAXXZ@4U_XINPUT_STATE@@A, edx
	ja	$LN102@SK_ImGui_P

; 12151:     {
; 12152:       if ( (     state.Gamepad.wButtons & XINPUT_GAMEPAD_BACK) &&

	movaps	xmm0, xmm1
	psrldq	xmm0, 4
	movd	eax, xmm0
	and	eax, 32					; 00000020H
	je	$LN16@SK_ImGui_P
	test	cl, 32					; 00000020H
	je	$LN16@SK_ImGui_P

; 12153:            (last_state.Gamepad.wButtons & XINPUT_GAMEPAD_BACK) )
; 12154:       {
; 12155:         if (dwLastPress < timeGetTime () - LONG_PRESS)

	call	esi
	sub	eax, 400				; 00000190H
	cmp	DWORD PTR ?dwLastPress@?O@??SK_ImGui_PollGamepad_EndFrame@@YAXXZ@4KA, eax
	jae	$LN103@SK_ImGui_P
; File c:\users\andon\source\repos\specialk\include\imgui\imgui.h

; 1466 : static inline bool SK_ImGui_Active (void) { return SK_ImGui_Visible || SK_ReShade_Visible; };

	cmp	BYTE PTR ?SK_ImGui_Visible@@3_NA, 0	; SK_ImGui_Visible
	jne	SHORT $LN32@SK_ImGui_P
	cmp	BYTE PTR ?SK_ReShade_Visible@@3_NA, 0	; SK_ReShade_Visible
	jne	SHORT $LN32@SK_ImGui_P
	xor	eax, eax
	jmp	SHORT $LN33@SK_ImGui_P
$LN32@SK_ImGui_P:
	mov	eax, 1
$LN33@SK_ImGui_P:
; File c:\users\andon\source\repos\specialk\src\imgui\imgui.cpp

; 12157:           bool toggle_vis = (! SK_ImGui_Active ());

	test	al, al

; 12158:           bool toggle_nav =    true;

	mov	BYTE PTR _toggle_nav$12[ebp], 1
	sete	BYTE PTR _toggle_vis$14[ebp]
; File c:\users\andon\source\repos\specialk\include\imgui\imgui.h

; 1466 : static inline bool SK_ImGui_Active (void) { return SK_ImGui_Visible || SK_ReShade_Visible; };

	cmp	BYTE PTR ?SK_ImGui_Visible@@3_NA, 0	; SK_ImGui_Visible
	jne	SHORT $LN36@SK_ImGui_P
	cmp	BYTE PTR ?SK_ReShade_Visible@@3_NA, 0	; SK_ReShade_Visible
	je	SHORT $LN19@SK_ImGui_P
$LN36@SK_ImGui_P:
; File c:\users\andon\source\repos\specialk\src\imgui\imgui.cpp

; 12161:             SK_ImGui_ToggleEx (toggle_vis, toggle_nav);

	lea	eax, DWORD PTR _toggle_nav$12[ebp]
	push	eax
	lea	eax, DWORD PTR _toggle_vis$14[ebp]
	push	eax
	call	?SK_ImGui_ToggleEx@@YG_NAA_N0@Z		; SK_ImGui_ToggleEx
$LN19@SK_ImGui_P:

; 12162: 
; 12163:           dwLastPress = MAXDWORD;
; 12164:         }
; 12165:       }

	movaps	xmm1, XMMWORD PTR _state$[ebp]
$LN20@SK_ImGui_P:

; 12171:         dwLastPress = MAXDWORD;

	mov	DWORD PTR ?dwLastPress@?O@??SK_ImGui_PollGamepad_EndFrame@@YAXXZ@4KA, -1
$LN102@SK_ImGui_P:
; File c:\users\andon\source\repos\specialk\include\imgui\imgui.h

; 1466 : static inline bool SK_ImGui_Active (void) { return SK_ImGui_Visible || SK_ReShade_Visible; };

	cmp	BYTE PTR ?SK_ImGui_Visible@@3_NA, 0	; SK_ImGui_Visible
	jne	SHORT $LN40@SK_ImGui_P
	cmp	BYTE PTR ?SK_ReShade_Visible@@3_NA, 0	; SK_ReShade_Visible
	je	$LN98@SK_ImGui_P
$LN40@SK_ImGui_P:
; File c:\users\andon\source\repos\specialk\src\imgui\imgui.cpp

; 12179:   if (SK_ImGui_Active () && config.input.gamepad.haptic_ui)

	cmp	BYTE PTR ?config@@3Usk_config_t@@A+670, 0
	je	$LN98@SK_ImGui_P

; 12180:   {
; 12181:     ImGuiContext& g =

	mov	edi, DWORD PTR ?GImGui@@3PAUImGuiContext@@A ; GImGui

; 12182:       *GImGui;
; 12183: 
; 12184:     static ImGuiID nav_id = 0;
; 12185: 
; 12186:     if (g.NavId != nav_id)

	mov	eax, DWORD PTR [edi+6384]
	cmp	eax, DWORD PTR ?nav_id@?CK@??SK_ImGui_PollGamepad_EndFrame@@YAXXZ@4IA
	je	$LN25@SK_ImGui_P

; 12187:     {
; 12188:       if (haptic_events.PulseNav.end > static_cast <float> (timeGetTime ()))

	call	esi
	movss	xmm2, DWORD PTR ?haptic_events@@3U<unnamed-type-haptic_events>@@A+44
	movd	xmm0, eax
	cvtdq2pd xmm0, xmm0
	shr	eax, 31					; 0000001fH
	addsd	xmm0, QWORD PTR __xmm@41f00000000000000000000000000000[eax*8]
	cvtpd2ps xmm0, xmm0
	comiss	xmm2, xmm0
	jbe	SHORT $LN24@SK_ImGui_P

; 12189:       {
; 12190:         haptic_events.PulseNav.end   += haptic_events.PulseNav.duration;

	movss	xmm1, DWORD PTR ?haptic_events@@3U<unnamed-type-haptic_events>@@A+32
	movaps	xmm0, xmm1
	addss	xmm0, xmm2
	movss	DWORD PTR ?haptic_events@@3U<unnamed-type-haptic_events>@@A+44, xmm0

; 12191:         haptic_events.PulseNav.start += haptic_events.PulseNav.duration;

	movss	xmm0, DWORD PTR ?haptic_events@@3U<unnamed-type-haptic_events>@@A+40
	addss	xmm0, xmm1
	movss	DWORD PTR ?haptic_events@@3U<unnamed-type-haptic_events>@@A+40, xmm0

; 12192:       }
; 12193: 
; 12194:       else

	jmp	SHORT $LN25@SK_ImGui_P
$LN16@SK_ImGui_P:

; 12166: 
; 12167:       else if (state.Gamepad.wButtons & XINPUT_GAMEPAD_BACK)

	test	ax, ax
	je	$LN20@SK_ImGui_P

; 12168:         dwLastPress = timeGetTime ();

	call	esi
	mov	DWORD PTR ?dwLastPress@?O@??SK_ImGui_PollGamepad_EndFrame@@YAXXZ@4KA, eax
$LN103@SK_ImGui_P:

; 12169: 
; 12170:       else

	movaps	xmm1, XMMWORD PTR _state$[ebp]
	jmp	$LN102@SK_ImGui_P
$LN24@SK_ImGui_P:

; 12195:       {
; 12196:         haptic_events.PulseNav.start = static_cast <float> (timeGetTime ());

	call	esi
	movd	xmm0, eax
	cvtdq2pd xmm0, xmm0
	shr	eax, 31					; 0000001fH
	addsd	xmm0, QWORD PTR __xmm@41f00000000000000000000000000000[eax*8]
	cvtpd2ps xmm0, xmm0
	movss	DWORD PTR ?haptic_events@@3U<unnamed-type-haptic_events>@@A+40, xmm0

; 12197:         haptic_events.PulseNav.end   = haptic_events.PulseNav.start +

	addss	xmm0, DWORD PTR ?haptic_events@@3U<unnamed-type-haptic_events>@@A+32
	movss	DWORD PTR ?haptic_events@@3U<unnamed-type-haptic_events>@@A+44, xmm0
$LN25@SK_ImGui_P:

; 12198:                                          haptic_events.PulseNav.duration;
; 12199:       }
; 12200:     }
; 12201: 
; 12202:     if (g.ActiveIdIsJustActivated)

	cmp	BYTE PTR [edi+6273], 0
	je	SHORT $LN26@SK_ImGui_P

; 12203:     {
; 12204:       haptic_events.PulseButton.start = static_cast <float> (timeGetTime ());

	call	esi
	movd	xmm0, eax
	cvtdq2pd xmm0, xmm0
	shr	eax, 31					; 0000001fH
	addsd	xmm0, QWORD PTR __xmm@41f00000000000000000000000000000[eax*8]
	cvtpd2ps xmm1, xmm0

; 12205:       haptic_events.PulseButton.end   = haptic_events.PulseButton.start +

	movss	xmm0, DWORD PTR ?haptic_events@@3U<unnamed-type-haptic_events>@@A+16
	addss	xmm0, xmm1
	movss	DWORD PTR ?haptic_events@@3U<unnamed-type-haptic_events>@@A+24, xmm1
	movss	DWORD PTR ?haptic_events@@3U<unnamed-type-haptic_events>@@A+28, xmm0
$LN26@SK_ImGui_P:

; 11996:       auto now = static_cast <float> (timeGetTime ());

	call	esi
	movd	xmm0, eax
	cvtdq2pd xmm0, xmm0
	shr	eax, 31					; 0000001fH

; 11997:       
; 11998:       return config.input.gamepad.haptic_ui ?

	cmp	BYTE PTR ?config@@3Usk_config_t@@A+670, 0
	addsd	xmm0, QWORD PTR __xmm@41f00000000000000000000000000000[eax*8]
	cvtpd2ps xmm2, xmm0
	je	SHORT $LN44@SK_ImGui_P
	movss	xmm0, DWORD PTR ?haptic_events@@3U<unnamed-type-haptic_events>@@A+44
	movaps	xmm1, xmm0
	subss	xmm0, DWORD PTR ?haptic_events@@3U<unnamed-type-haptic_events>@@A+40
	subss	xmm1, xmm2
	divss	xmm1, xmm0
	mulss	xmm1, DWORD PTR ?haptic_events@@3U<unnamed-type-haptic_events>@@A+36
	maxss	xmm1, DWORD PTR __real@00000000
	movss	DWORD PTR $T11[ebp], xmm1
	movss	DWORD PTR $T9[ebp], xmm1
	jmp	SHORT $LN45@SK_ImGui_P
$LN44@SK_ImGui_P:
	xorps	xmm0, xmm0
	movss	DWORD PTR $T11[ebp], xmm0
	movss	DWORD PTR $T9[ebp], xmm0
$LN45@SK_ImGui_P:

; 12206:                                           haptic_events.PulseButton.duration;
; 12207:     }
; 12208: 
; 12209:     SK_XInput_PulseController ( config.input.gamepad.xinput.ui_slot,

	mov	DWORD PTR $T5[ebp], 1053609165		; 3ecccccdH

; 11996:       auto now = static_cast <float> (timeGetTime ());

	call	esi
	movd	xmm0, eax
	cvtdq2pd xmm0, xmm0
	shr	eax, 31					; 0000001fH

; 11997:       
; 11998:       return config.input.gamepad.haptic_ui ?

	cmp	BYTE PTR ?config@@3Usk_config_t@@A+670, 0
	addsd	xmm0, QWORD PTR __xmm@41f00000000000000000000000000000[eax*8]
	cvtpd2ps xmm2, xmm0
	je	SHORT $LN51@SK_ImGui_P
	movss	xmm0, DWORD PTR ?haptic_events@@3U<unnamed-type-haptic_events>@@A+44
	movaps	xmm1, xmm0
	subss	xmm0, DWORD PTR ?haptic_events@@3U<unnamed-type-haptic_events>@@A+40
	subss	xmm1, xmm2
	divss	xmm1, xmm0
	mulss	xmm1, DWORD PTR ?haptic_events@@3U<unnamed-type-haptic_events>@@A+36
	maxss	xmm1, DWORD PTR __real@00000000
	movss	DWORD PTR $T6[ebp], xmm1
	jmp	SHORT $LN52@SK_ImGui_P
$LN51@SK_ImGui_P:
	xorps	xmm0, xmm0
	movss	DWORD PTR $T6[ebp], xmm0
$LN52@SK_ImGui_P:

; 11996:       auto now = static_cast <float> (timeGetTime ());

	call	esi
	movd	xmm0, eax
	cvtdq2pd xmm0, xmm0
	shr	eax, 31					; 0000001fH

; 11997:       
; 11998:       return config.input.gamepad.haptic_ui ?

	cmp	BYTE PTR ?config@@3Usk_config_t@@A+670, 0
	addsd	xmm0, QWORD PTR __xmm@41f00000000000000000000000000000[eax*8]
	cvtpd2ps xmm2, xmm0
	je	SHORT $LN58@SK_ImGui_P
	movss	xmm0, DWORD PTR ?haptic_events@@3U<unnamed-type-haptic_events>@@A+12
	movaps	xmm1, xmm0
	subss	xmm0, DWORD PTR ?haptic_events@@3U<unnamed-type-haptic_events>@@A+8
	subss	xmm1, xmm2
	divss	xmm1, xmm0
	mulss	xmm1, DWORD PTR ?haptic_events@@3U<unnamed-type-haptic_events>@@A+4
	maxss	xmm1, DWORD PTR __real@00000000
	movss	DWORD PTR $T7[ebp], xmm1
	jmp	SHORT $LN59@SK_ImGui_P
$LN58@SK_ImGui_P:
	xorps	xmm0, xmm0
	movss	DWORD PTR $T7[ebp], xmm0
$LN59@SK_ImGui_P:

; 11996:       auto now = static_cast <float> (timeGetTime ());

	call	esi
	movd	xmm0, eax
	cvtdq2pd xmm0, xmm0
	shr	eax, 31					; 0000001fH

; 11997:       
; 11998:       return config.input.gamepad.haptic_ui ?

	cmp	BYTE PTR ?config@@3Usk_config_t@@A+670, 0
	addsd	xmm0, QWORD PTR __xmm@41f00000000000000000000000000000[eax*8]
	cvtpd2ps xmm2, xmm0
	je	SHORT $LN65@SK_ImGui_P
	movss	xmm0, DWORD PTR ?haptic_events@@3U<unnamed-type-haptic_events>@@A+28
	movaps	xmm1, xmm0
	subss	xmm0, DWORD PTR ?haptic_events@@3U<unnamed-type-haptic_events>@@A+24
	subss	xmm1, xmm2
	divss	xmm1, xmm0
	mulss	xmm1, DWORD PTR ?haptic_events@@3U<unnamed-type-haptic_events>@@A+20
	maxss	xmm1, DWORD PTR __real@00000000
	movss	DWORD PTR $T8[ebp], xmm1
	jmp	SHORT $LN66@SK_ImGui_P
$LN65@SK_ImGui_P:
	xorps	xmm0, xmm0
	movss	DWORD PTR $T8[ebp], xmm0
$LN66@SK_ImGui_P:
; File c:\program files (x86)\microsoft visual studio\2017\community\vc\tools\msvc\14.10.25017\include\algorithm

; 3779 : 	return (_DEBUG_LT(_Right, _Left) ? _Right : _Left);

	movss	xmm0, DWORD PTR __real@3ecccccd
	lea	ecx, DWORD PTR $T5[ebp]
	comiss	xmm0, DWORD PTR $T11[ebp]
	lea	eax, DWORD PTR $T9[ebp]
	cmovbe	eax, ecx
	mov	DWORD PTR $T4[ebp], eax
; File c:\users\andon\source\repos\specialk\src\imgui\imgui.cpp

; 11996:       auto now = static_cast <float> (timeGetTime ());

	call	esi
	movd	xmm0, eax
	cvtdq2pd xmm0, xmm0
	shr	eax, 31					; 0000001fH

; 11997:       
; 11998:       return config.input.gamepad.haptic_ui ?

	cmp	BYTE PTR ?config@@3Usk_config_t@@A+670, 0
	addsd	xmm0, QWORD PTR __xmm@41f00000000000000000000000000000[eax*8]
	cvtpd2ps xmm2, xmm0
	je	SHORT $LN75@SK_ImGui_P
	movss	xmm0, DWORD PTR ?haptic_events@@3U<unnamed-type-haptic_events>@@A+12
	movaps	xmm1, xmm0
	subss	xmm0, DWORD PTR ?haptic_events@@3U<unnamed-type-haptic_events>@@A+8
	subss	xmm1, xmm2
	divss	xmm1, xmm0
	mulss	xmm1, DWORD PTR ?haptic_events@@3U<unnamed-type-haptic_events>@@A+4
	maxss	xmm1, DWORD PTR __real@00000000
	movss	DWORD PTR $T10[ebp], xmm1
	jmp	SHORT $LN76@SK_ImGui_P
$LN75@SK_ImGui_P:
	xorps	xmm0, xmm0
	movss	DWORD PTR $T10[ebp], xmm0
$LN76@SK_ImGui_P:

; 11996:       auto now = static_cast <float> (timeGetTime ());

	call	esi
	movd	xmm0, eax
	cvtdq2pd xmm0, xmm0
	shr	eax, 31					; 0000001fH

; 11997:       
; 11998:       return config.input.gamepad.haptic_ui ?

	cmp	BYTE PTR ?config@@3Usk_config_t@@A+670, 0
	addsd	xmm0, QWORD PTR __xmm@41f00000000000000000000000000000[eax*8]
	cvtpd2ps xmm2, xmm0
	je	SHORT $LN82@SK_ImGui_P
	movss	xmm0, DWORD PTR ?haptic_events@@3U<unnamed-type-haptic_events>@@A+28
	movaps	xmm1, xmm0
	subss	xmm0, DWORD PTR ?haptic_events@@3U<unnamed-type-haptic_events>@@A+24
	subss	xmm1, xmm2
	divss	xmm1, xmm0
	mulss	xmm1, DWORD PTR ?haptic_events@@3U<unnamed-type-haptic_events>@@A+20
	maxss	xmm1, DWORD PTR __real@00000000
	jmp	SHORT $LN83@SK_ImGui_P
$LN82@SK_ImGui_P:
	xorps	xmm1, xmm1
$LN83@SK_ImGui_P:

; 12206:                                           haptic_events.PulseButton.duration;
; 12207:     }
; 12208: 
; 12209:     SK_XInput_PulseController ( config.input.gamepad.xinput.ui_slot,

	movss	xmm0, DWORD PTR $T8[ebp]
	sub	esp, 8
	addss	xmm0, DWORD PTR $T7[ebp]
	mov	eax, DWORD PTR $T4[ebp]
	addss	xmm1, DWORD PTR $T10[ebp]
	addss	xmm0, DWORD PTR [eax]
	movss	DWORD PTR [esp+4], xmm0
	movss	xmm0, DWORD PTR $T6[ebp]
	minss	xmm0, DWORD PTR __real@3ecccccd
	addss	xmm1, xmm0
	movss	DWORD PTR [esp], xmm1
	push	DWORD PTR ?config@@3Usk_config_t@@A+680
	call	?SK_XInput_PulseController@@YA_NHMM@Z	; SK_XInput_PulseController

; 12210:                                   haptic_events.PulseTitle.run  () +
; 12211:                                   haptic_events.PulseButton.run () +
; 12212:                   std::min (0.4f, haptic_events.PulseNav.run ()),
; 12213:                                     haptic_events.PulseTitle.run  () +
; 12214:                                     haptic_events.PulseButton.run () +
; 12215:                     std::min (0.4f, haptic_events.PulseNav.run    ()) );
; 12216: 
; 12217:     nav_id = g.NavId;
; 12218:   }
; 12219: 
; 12220:   last_state = state;

	movups	xmm0, XMMWORD PTR _state$[ebp]
	mov	eax, DWORD PTR [edi+6384]
	add	esp, 12					; 0000000cH
	mov	DWORD PTR ?nav_id@?CK@??SK_ImGui_PollGamepad_EndFrame@@YAXXZ@4IA, eax
	movups	XMMWORD PTR ?last_state@?1??SK_ImGui_PollGamepad_EndFrame@@YAXXZ@4U_XINPUT_STATE@@A, xmm0

; 12221: }

	pop	edi
	pop	esi
	mov	esp, ebp
	pop	ebp
	mov	esp, ebx
	pop	ebx
	ret	0
$LN98@SK_ImGui_P:
	pop	edi
	movups	XMMWORD PTR ?last_state@?1??SK_ImGui_PollGamepad_EndFrame@@YAXXZ@4U_XINPUT_STATE@@A, xmm1
	pop	esi
	mov	esp, ebp
	pop	ebp
	mov	esp, ebx
	pop	ebx
	ret	0
?SK_ImGui_PollGamepad_EndFrame@@YAXXZ ENDP		; SK_ImGui_PollGamepad_EndFrame
_TEXT	ENDS
; Function compile flags: /Ogtp
; File c:\users\andon\source\repos\specialk\src\imgui\imgui.cpp
; File c:\users\andon\source\repos\specialk\include\imgui\imgui.h
; File c:\users\andon\source\repos\specialk\src\imgui\imgui.cpp
; File c:\users\andon\source\repos\specialk\include\imgui\imgui.h
; File c:\users\andon\source\repos\specialk\src\imgui\imgui.cpp
; File c:\users\andon\source\repos\specialk\include\imgui\imgui.h
; File c:\users\andon\source\repos\specialk\src\imgui\imgui.cpp
; File c:\users\andon\source\repos\specialk\include\imgui\imgui.h
; File c:\users\andon\source\repos\specialk\src\imgui\imgui.cpp
; File c:\users\andon\source\repos\specialk\include\imgui\imgui.h
; File c:\users\andon\source\repos\specialk\src\imgui\imgui.cpp
_TEXT	SEGMENT
_toggle_ui$ = 8						; size = 4
_toggle_nav$ = 12					; size = 4
?SK_ImGui_ToggleEx@@YG_NAA_N0@Z PROC			; SK_ImGui_ToggleEx

; 12023: {

	npad	2
	push	ebp
	mov	ebp, esp
	push	esi

; 12024:   if (toggle_ui)

	mov	esi, DWORD PTR _toggle_ui$[ebp]
	push	edi
	cmp	BYTE PTR [esi], 0
	je	SHORT $LN2@SK_ImGui_T

; 12025:     SK_ImGui_Toggle ();

	call	?SK_ImGui_Toggle@@YAXXZ			; SK_ImGui_Toggle
$LN2@SK_ImGui_T:

; 12026:   
; 12027:   if (toggle_nav && SK_ImGui_Active ())

	mov	edi, DWORD PTR _toggle_nav$[ebp]
	cmp	BYTE PTR [edi], 0
	je	SHORT $LN3@SK_ImGui_T
; File c:\users\andon\source\repos\specialk\include\imgui\imgui.h

; 1466 : static inline bool SK_ImGui_Active (void) { return SK_ImGui_Visible || SK_ReShade_Visible; };

	cmp	BYTE PTR ?SK_ImGui_Visible@@3_NA, 0	; SK_ImGui_Visible
	jne	SHORT $LN9@SK_ImGui_T
	cmp	BYTE PTR ?SK_ReShade_Visible@@3_NA, 0	; SK_ReShade_Visible
	je	SHORT $LN3@SK_ImGui_T
$LN9@SK_ImGui_T:
; File c:\users\andon\source\repos\specialk\src\imgui\imgui.cpp

; 12028:     nav_usable = (! nav_usable);

	cmp	BYTE PTR ?nav_usable@@3_NA, 0		; nav_usable
	sete	BYTE PTR ?nav_usable@@3_NA		; nav_usable
$LN3@SK_ImGui_T:

; 12029:   
; 12030:   //if (nav_usable)
; 12031:     ImGui::SetNextWindowFocus ();

	call	?SetNextWindowFocus@ImGui@@YAXXZ	; ImGui::SetNextWindowFocus
; File c:\users\andon\source\repos\specialk\include\imgui\imgui.h

; 1466 : static inline bool SK_ImGui_Active (void) { return SK_ImGui_Visible || SK_ReShade_Visible; };

	cmp	BYTE PTR ?SK_ImGui_Visible@@3_NA, 0	; SK_ImGui_Visible
	jne	SHORT $LN13@SK_ImGui_T
	cmp	BYTE PTR ?SK_ReShade_Visible@@3_NA, 0	; SK_ReShade_Visible
	jne	SHORT $LN13@SK_ImGui_T
	xor	eax, eax
	jmp	SHORT $LN14@SK_ImGui_T
$LN13@SK_ImGui_T:
	mov	eax, 1
$LN14@SK_ImGui_T:
; File c:\users\andon\source\repos\specialk\src\imgui\imgui.cpp

; 12039:   toggle_ui  = SK_ImGui_Active ();

	mov	BYTE PTR [esi], al

; 12040:   toggle_nav = nav_usable;

	movzx	eax, BYTE PTR ?nav_usable@@3_NA		; nav_usable
	mov	BYTE PTR [edi], al
; File c:\users\andon\source\repos\specialk\include\imgui\imgui.h

; 1466 : static inline bool SK_ImGui_Active (void) { return SK_ImGui_Visible || SK_ReShade_Visible; };

	mov	cl, BYTE PTR ?SK_ImGui_Visible@@3_NA	; SK_ImGui_Visible
	mov	al, BYTE PTR ?SK_ReShade_Visible@@3_NA	; SK_ReShade_Visible
	pop	edi
	pop	esi
	test	cl, cl
	jne	SHORT $LN17@SK_ImGui_T
	test	al, al
	je	SHORT $LN29@SK_ImGui_T
$LN17@SK_ImGui_T:
; File c:\users\andon\source\repos\specialk\src\imgui\imgui.cpp

; 12042:   if (SK_ImGui_Active () && nav_usable)

	cmp	BYTE PTR ?nav_usable@@3_NA, 0		; nav_usable
	je	SHORT $LN4@SK_ImGui_T

; 12043:   {
; 12044:     SK_Input_RememberPressedKeys ();

	call	?SK_Input_RememberPressedKeys@@YAXXZ	; SK_Input_RememberPressedKeys

; 12045: 
; 12046:     haptic_events.PulseTitle.start = static_cast <float> (timeGetTime ());

	call	DWORD PTR __imp__timeGetTime@0

; 12047:     haptic_events.PulseTitle.end   = haptic_events.PulseTitle.start +

	mov	cl, BYTE PTR ?SK_ImGui_Visible@@3_NA	; SK_ImGui_Visible
	movd	xmm0, eax
	cvtdq2pd xmm0, xmm0
	shr	eax, 31					; 0000001fH
	addsd	xmm0, QWORD PTR __xmm@41f00000000000000000000000000000[eax*8]
	mov	al, BYTE PTR ?SK_ReShade_Visible@@3_NA	; SK_ReShade_Visible
	cvtpd2ps xmm1, xmm0
	movss	xmm0, DWORD PTR ?haptic_events@@3U<unnamed-type-haptic_events>@@A
	addss	xmm0, xmm1
	movss	DWORD PTR ?haptic_events@@3U<unnamed-type-haptic_events>@@A+8, xmm1
	movss	DWORD PTR ?haptic_events@@3U<unnamed-type-haptic_events>@@A+12, xmm0
$LN4@SK_ImGui_T:
; File c:\users\andon\source\repos\specialk\include\imgui\imgui.h

; 1466 : static inline bool SK_ImGui_Active (void) { return SK_ImGui_Visible || SK_ReShade_Visible; };

	test	cl, cl
	jne	SHORT $LN25@SK_ImGui_T
	test	al, al
	jne	SHORT $LN25@SK_ImGui_T
$LN29@SK_ImGui_T:
; File c:\users\andon\source\repos\specialk\src\imgui\imgui.cpp

; 12055:       SK_XInput_ZeroHaptics (config.input.gamepad.xinput.ui_slot);

	push	DWORD PTR ?config@@3Usk_config_t@@A+680
	call	?SK_XInput_ZeroHaptics@@YAXH@Z		; SK_XInput_ZeroHaptics
	add	esp, 4
; File c:\users\andon\source\repos\specialk\include\imgui\imgui.h

; 1466 : static inline bool SK_ImGui_Active (void) { return SK_ImGui_Visible || SK_ReShade_Visible; };

	cmp	BYTE PTR ?SK_ImGui_Visible@@3_NA, 0	; SK_ImGui_Visible
	jne	SHORT $LN25@SK_ImGui_T
	cmp	BYTE PTR ?SK_ReShade_Visible@@3_NA, 0	; SK_ReShade_Visible
	jne	SHORT $LN25@SK_ImGui_T
; File c:\users\andon\source\repos\specialk\src\imgui\imgui.cpp

; 12057:   return SK_ImGui_Active ();

	xor	al, al

; 12058: }

	pop	ebp
	ret	8
$LN25@SK_ImGui_T:

; 12057:   return SK_ImGui_Active ();

	mov	al, 1

; 12058: }

	pop	ebp
	ret	8
?SK_ImGui_ToggleEx@@YG_NAA_N0@Z ENDP			; SK_ImGui_ToggleEx
_TEXT	ENDS
; Function compile flags: /Ogtp
; File c:\program files (x86)\microsoft visual studio\2017\community\vc\tools\msvc\14.10.25017\include\algorithm
;	COMDAT ??$max@M@std@@YAABMABM0@Z
_TEXT	SEGMENT
__Left$ = 8						; size = 4
__Right$ = 12						; size = 4
??$max@M@std@@YAABMABM0@Z PROC				; std::max<float>, COMDAT

; 3742 : 	{	// return larger of _Left and _Right

	npad	2
	push	ebp
	mov	ebp, esp

; 3743 : 	return (_DEBUG_LT(_Left, _Right) ? _Right : _Left);

	mov	ecx, DWORD PTR __Right$[ebp]
	mov	eax, DWORD PTR __Left$[ebp]
	movss	xmm0, DWORD PTR [ecx]
	comiss	xmm0, DWORD PTR [eax]
	cmova	eax, ecx

; 3744 : 	}

	pop	ebp
	ret	0
??$max@M@std@@YAABMABM0@Z ENDP				; std::max<float>
_TEXT	ENDS
; Function compile flags: /Ogtp
;	COMDAT ??0<unnamed-type-haptic_events>@@QAE@XZ
_TEXT	SEGMENT
??0<unnamed-type-haptic_events>@@QAE@XZ PROC		; <unnamed-type-haptic_events>::<unnamed-type-haptic_events>, COMDAT
; _this$ = ecx
	mov	DWORD PTR [ecx], 1135542272		; 43af0000H
	mov	eax, ecx
	mov	DWORD PTR [ecx+4], 1065353216		; 3f800000H
	mov	DWORD PTR [ecx+8], 0
	mov	DWORD PTR [ecx+12], 0
	mov	DWORD PTR [ecx+16], 1118437376		; 42aa0000H
	mov	DWORD PTR [ecx+20], 1056964608		; 3f000000H
	mov	DWORD PTR [ecx+24], 0
	mov	DWORD PTR [ecx+28], 0
	mov	DWORD PTR [ecx+32], 1114636288		; 42700000H
	mov	DWORD PTR [ecx+36], 1014350479		; 3c75c28fH
	mov	DWORD PTR [ecx+40], 0
	mov	DWORD PTR [ecx+44], 0
	ret	0
??0<unnamed-type-haptic_events>@@QAE@XZ ENDP		; <unnamed-type-haptic_events>::<unnamed-type-haptic_events>
_TEXT	ENDS
; Function compile flags: /Ogtp
; File c:\users\andon\source\repos\specialk\src\imgui\imgui.cpp
;	COMDAT ?run@linear_pulse_event_s@<unnamed-type-haptic_events>@@QAEMXZ
_TEXT	SEGMENT
tv79 = -4						; size = 4
?run@linear_pulse_event_s@<unnamed-type-haptic_events>@@QAEMXZ PROC ; <unnamed-type-haptic_events>::linear_pulse_event_s::run, COMDAT
; _this$ = ecx

; 11995:     float run (void) {

	npad	2
	push	ebp
	mov	ebp, esp
	push	ecx
	push	esi
	mov	esi, ecx

; 11996:       auto now = static_cast <float> (timeGetTime ());

	call	DWORD PTR __imp__timeGetTime@0
	movd	xmm0, eax
	cvtdq2pd xmm0, xmm0
	shr	eax, 31					; 0000001fH

; 11997:       
; 11998:       return config.input.gamepad.haptic_ui ?

	cmp	BYTE PTR ?config@@3Usk_config_t@@A+670, 0
	addsd	xmm0, QWORD PTR __xmm@41f00000000000000000000000000000[eax*8]
	cvtpd2ps xmm2, xmm0
	je	SHORT $LN3@run
	movss	xmm0, DWORD PTR [esi+12]
	movaps	xmm1, xmm0
	subss	xmm0, DWORD PTR [esi+8]
	subss	xmm1, xmm2
	divss	xmm1, xmm0
	mulss	xmm1, DWORD PTR [esi+4]
	pop	esi
	maxss	xmm1, DWORD PTR __real@00000000
	movss	DWORD PTR tv79[ebp], xmm1
	fld	DWORD PTR tv79[ebp]

; 11999:                std::max (0.0f, strength * ((end - now) / (end - start))) :
; 12000:                          0.0f;
; 12001:     }

	mov	esp, ebp
	pop	ebp
	ret	0
$LN3@run:

; 11997:       
; 11998:       return config.input.gamepad.haptic_ui ?

	mov	DWORD PTR tv79[ebp], 0
	fld	DWORD PTR tv79[ebp]
	pop	esi

; 11999:                std::max (0.0f, strength * ((end - now) / (end - start))) :
; 12000:                          0.0f;
; 12001:     }

	mov	esp, ebp
	pop	ebp
	ret	0
?run@linear_pulse_event_s@<unnamed-type-haptic_events>@@QAEMXZ ENDP ; <unnamed-type-haptic_events>::linear_pulse_event_s::run
_TEXT	ENDS
; Function compile flags: /Ogtp
; File c:\program files (x86)\microsoft visual studio\2017\community\vc\tools\msvc\14.10.25017\include\algorithm
;	COMDAT ??$max@K@std@@YAABKABK0@Z
_TEXT	SEGMENT
__Left$ = 8						; size = 4
__Right$ = 12						; size = 4
??$max@K@std@@YAABKABK0@Z PROC				; std::max<unsigned long>, COMDAT

; 3742 : 	{	// return larger of _Left and _Right

	npad	2
	push	ebp
	mov	ebp, esp

; 3743 : 	return (_DEBUG_LT(_Left, _Right) ? _Right : _Left);

	mov	eax, DWORD PTR __Left$[ebp]
	mov	ecx, DWORD PTR __Right$[ebp]
	mov	edx, DWORD PTR [eax]
	cmp	edx, DWORD PTR [ecx]
	cmovb	eax, ecx

; 3744 : 	}

	pop	ebp
	ret	0
??$max@K@std@@YAABKABK0@Z ENDP				; std::max<unsigned long>
_TEXT	ENDS
; Function compile flags: /Ogtp
; File c:\users\andon\source\repos\specialk\src\imgui\imgui.cpp
; File c:\program files (x86)\microsoft visual studio\2017\community\vc\tools\msvc\14.10.25017\include\algorithm
; File c:\users\andon\source\repos\specialk\src\imgui\imgui.cpp
; File c:\program files (x86)\microsoft visual studio\2017\community\vc\tools\msvc\14.10.25017\include\algorithm
; File c:\users\andon\source\repos\specialk\src\imgui\imgui.cpp
_TEXT	SEGMENT
_dwUserIndex$ = 8					; size = 4
_pState$ = 12						; size = 4
?SK_ImGui_FilterXInput@@YA_NKPAU_XINPUT_STATE@@@Z PROC	; SK_ImGui_FilterXInput

; 11973: {

	npad	2
	push	ebp
	mov	ebp, esp

; 11974:   if ( SK_ImGui_WantGamepadCapture () &&

	call	?SK_ImGui_WantGamepadCapture@@YA_NXZ	; SK_ImGui_WantGamepadCapture
	test	al, al
	je	SHORT $LN2@SK_ImGui_F
	mov	eax, DWORD PTR _dwUserIndex$[ebp]
	cmp	eax, DWORD PTR ?config@@3Usk_config_t@@A+680
	jne	SHORT $LN2@SK_ImGui_F

; 11975:        dwUserIndex == (DWORD)config.input.gamepad.xinput.ui_slot )
; 11976:   {
; 11977:     ZeroMemory (&pState->Gamepad, sizeof XINPUT_GAMEPAD);

	mov	edx, DWORD PTR _pState$[ebp]
	xorps	xmm0, xmm0
; File c:\program files (x86)\microsoft visual studio\2017\community\vc\tools\msvc\14.10.25017\include\algorithm

; 3743 : 	return (_DEBUG_LT(_Left, _Right) ? _Right : _Left);

	mov	ecx, 1
; File c:\users\andon\source\repos\specialk\src\imgui\imgui.cpp

; 11983:     return true;

	mov	al, 1
	movq	QWORD PTR [edx+4], xmm0
	mov	DWORD PTR [edx+12], 0
; File c:\program files (x86)\microsoft visual studio\2017\community\vc\tools\msvc\14.10.25017\include\algorithm

; 3743 : 	return (_DEBUG_LT(_Left, _Right) ? _Right : _Left);

	cmp	DWORD PTR [edx], ecx
	cmova	ecx, DWORD PTR [edx]
; File c:\users\andon\source\repos\specialk\src\imgui\imgui.cpp

; 11980:     pState->dwPacketNumber =

	mov	DWORD PTR [edx], ecx

; 11987: }

	pop	ebp
	ret	0
$LN2@SK_ImGui_F:

; 11984:   }
; 11985: 
; 11986:   return false;

	xor	al, al

; 11987: }

	pop	ebp
	ret	0
?SK_ImGui_FilterXInput@@YA_NKPAU_XINPUT_STATE@@@Z ENDP	; SK_ImGui_FilterXInput
_TEXT	ENDS
; Function compile flags: /Ogtp
; File c:\users\andon\source\repos\specialk\src\imgui\imgui.cpp
;	COMDAT ??0<lambda_a71b56d13de6c5a0c01a9b6128e8e6fc>@@QAE@AAUImGuiIO@@@Z
_TEXT	SEGMENT
_<io>$ = 8						; size = 4
??0<lambda_a71b56d13de6c5a0c01a9b6128e8e6fc>@@QAE@AAUImGuiIO@@@Z PROC ; <lambda_a71b56d13de6c5a0c01a9b6128e8e6fc>::<lambda_a71b56d13de6c5a0c01a9b6128e8e6fc>, COMDAT
; _this$ = ecx

; 11553:     };

	npad	2
	push	ebp
	mov	ebp, esp
	mov	eax, DWORD PTR _<io>$[ebp]
	mov	DWORD PTR [ecx], eax
	mov	eax, ecx
	pop	ebp
	ret	4
??0<lambda_a71b56d13de6c5a0c01a9b6128e8e6fc>@@QAE@AAUImGuiIO@@@Z ENDP ; <lambda_a71b56d13de6c5a0c01a9b6128e8e6fc>::<lambda_a71b56d13de6c5a0c01a9b6128e8e6fc>
_TEXT	ENDS
; Function compile flags: /Ogtp
; File c:\users\andon\source\repos\specialk\src\imgui\imgui.cpp
;	COMDAT ??R<lambda_a71b56d13de6c5a0c01a9b6128e8e6fc>@@QBEX_N@Z
_TEXT	SEGMENT
_active$ = 8						; size = 1
??R<lambda_a71b56d13de6c5a0c01a9b6128e8e6fc>@@QBEX_N@Z PROC ; <lambda_a71b56d13de6c5a0c01a9b6128e8e6fc>::operator(), COMDAT
; _this$ = ecx

; 11540:     {

	npad	2
	push	ebp
	mov	ebp, esp
	push	ebx

; 11541:       bool changed = (active != window_active);

	mov	bl, BYTE PTR _active$[ebp]
	cmp	bl, BYTE PTR ?window_active@?1???R<lambda_34955bda5757b6d1afe210935814f65c>@@QBE_NPAUHWND__@@IIJ@Z@4_NA ; `<lambda_34955bda5757b6d1afe210935814f65c>::operator()'::`2'::window_active
	setne	al

; 11542: 
; 11543:       if (active && changed)

	test	bl, bl
	je	SHORT $LN5@operator
	test	al, al
	je	SHORT $LN6@operator

; 11544:         SK_Input_RememberPressedKeys ();

	call	?SK_Input_RememberPressedKeys@@YAXXZ	; SK_Input_RememberPressedKeys

; 11550:       }
; 11551: 
; 11552:       window_active = active;

	mov	BYTE PTR ?window_active@?1???R<lambda_34955bda5757b6d1afe210935814f65c>@@QBE_NPAUHWND__@@IIJ@Z@4_NA, bl ; `<lambda_34955bda5757b6d1afe210935814f65c>::operator()'::`2'::window_active
	pop	ebx

; 11553:     };

	pop	ebp
	ret	4
$LN5@operator:

; 11545: 
; 11546:       if ((! active) && changed)

	test	al, al
	je	SHORT $LN6@operator

; 11547:       {
; 11548:         ZeroMemory (io.MouseDown, sizeof (bool) * 5  );

	mov	eax, DWORD PTR [ecx]

; 11549:         ZeroMemory (io.KeysDown,  sizeof (bool) * 512);

	push	512					; 00000200H
	push	0
	mov	DWORD PTR [eax+212], 0
	mov	BYTE PTR [eax+216], 0
	mov	eax, DWORD PTR [ecx]
	add	eax, 229				; 000000e5H
	push	eax
	call	_memset
	add	esp, 12					; 0000000cH
$LN6@operator:

; 11550:       }
; 11551: 
; 11552:       window_active = active;

	mov	BYTE PTR ?window_active@?1???R<lambda_34955bda5757b6d1afe210935814f65c>@@QBE_NPAUHWND__@@IIJ@Z@4_NA, bl ; `<lambda_34955bda5757b6d1afe210935814f65c>::operator()'::`2'::window_active
	pop	ebx

; 11553:     };

	pop	ebp
	ret	4
??R<lambda_a71b56d13de6c5a0c01a9b6128e8e6fc>@@QBEX_N@Z ENDP ; <lambda_a71b56d13de6c5a0c01a9b6128e8e6fc>::operator()
_TEXT	ENDS
; Function compile flags: /Ogtp
; File c:\users\andon\source\repos\specialk\src\imgui\imgui.cpp
;	COMDAT ??R<lambda_34955bda5757b6d1afe210935814f65c>@@QBE_NPAUHWND__@@IIJ@Z
_TEXT	SEGMENT
_data$1 = -44						; size = 40
_ActivateWindow$ = -4					; size = 4
_hWnd$ = 8						; size = 4
_msg$ = 12						; size = 4
_key_str$2 = 16						; size = 2
_size$3 = 16						; size = 4
_wParam$ = 16						; size = 4
tv686 = 20						; size = 4
_lParam$ = 20						; size = 4
??R<lambda_34955bda5757b6d1afe210935814f65c>@@QBE_NPAUHWND__@@IIJ@Z PROC ; <lambda_34955bda5757b6d1afe210935814f65c>::operator(), COMDAT
; _this$ = ecx

; 11533:   {

	npad	2
	push	ebp
	mov	ebp, esp
	sub	esp, 44					; 0000002cH
	push	ebx
	push	esi
	push	edi

; 11534:     static bool window_active = true;
; 11535: 
; 11536:     ImGuiIO& io =

	call	?GetIO@ImGui@@YAAAUImGuiIO@@XZ		; ImGui::GetIO

; 11554: 
; 11555:     switch (msg)

	mov	ecx, DWORD PTR _msg$[ebp]
	mov	esi, eax

; 11553:     };

	mov	DWORD PTR _ActivateWindow$[ebp], esi

; 11554: 
; 11555:     switch (msg)

	cmp	ecx, 512				; 00000200H
	ja	$LN82@operator
	je	$LN59@operator
	cmp	ecx, 28					; 0000001cH
	ja	SHORT $LN83@operator
	je	SHORT $LN22@operator
	cmp	ecx, 6
	jne	SHORT $LN16@operator
$LN22@operator:

; 11613: 
; 11614: 
; 11615:       case WM_ACTIVATEAPP:
; 11616:       case WM_ACTIVATE:
; 11617:       case WM_NCACTIVATE:
; 11618:       {
; 11619:         if (hWnd == game_window.hWnd)

	mov	eax, DWORD PTR ?game_window@@3Usk_window_s@@A+4
	cmp	DWORD PTR _hWnd$[ebp], eax
	jne	SHORT $LN16@operator

; 11620:         {
; 11621:           if (msg == WM_NCACTIVATE || msg == WM_ACTIVATEAPP)

	cmp	ecx, 134				; 00000086H
	je	$LN26@operator
	cmp	ecx, 28					; 0000001cH
	je	$LN26@operator

; 11624:           }
; 11625: 
; 11626:           else if (msg == WM_ACTIVATE)

	cmp	ecx, 6
	jne	SHORT $LN16@operator

; 11627:           {
; 11628:             switch (LOWORD (wParam))

	cmp	WORD PTR _wParam$[ebp], 0
	je	SHORT $LN29@operator

; 11629:             {
; 11630:               case WA_ACTIVE:
; 11631:               case WA_CLICKACTIVE:
; 11632:               default: // Unknown
; 11633:               {
; 11634:                 ActivateWindow ((HWND)lParam != game_window.hWnd);

	cmp	DWORD PTR _lParam$[ebp], eax
$LN92@operator:
	setne	al
$LN91@operator:

; 11622:           {
; 11623:             ActivateWindow (wParam != 0x00);

	movzx	eax, al
	lea	ecx, DWORD PTR _ActivateWindow$[ebp]
	push	eax
	call	??R<lambda_a71b56d13de6c5a0c01a9b6128e8e6fc>@@QBEX_N@Z ; <lambda_a71b56d13de6c5a0c01a9b6128e8e6fc>::operator()
$LN16@operator:

; 11888:         }
; 11889:       } break;
; 11890:     }
; 11891: 
; 11892:     return false;

	pop	edi
	pop	esi
	xor	al, al
	pop	ebx

; 11893:   };

	mov	esp, ebp
	pop	ebp
	ret	16					; 00000010H
$LN83@operator:

; 11554: 
; 11555:     switch (msg)

	lea	eax, DWORD PTR [ecx-33]
	cmp	eax, 228				; 000000e4H
	ja	SHORT $LN16@operator
	movzx	eax, BYTE PTR $LN90@operator[eax]
	jmp	DWORD PTR $LN94@operator[eax*4]
$LN20@operator:

; 11599:             }
; 11600:           } break;
; 11601:         }
; 11602:       } break;
; 11603: 
; 11604: 
; 11605: 
; 11606:       case WM_MOUSEACTIVATE:
; 11607:       {
; 11608:         if (hWnd == game_window.hWnd)

	mov	eax, DWORD PTR _hWnd$[ebp]
	cmp	eax, DWORD PTR ?game_window@@3Usk_window_s@@A+4
	jne	SHORT $LN16@operator

; 11609:         {
; 11610:           ActivateWindow (((HWND)wParam == hWnd));

	cmp	DWORD PTR _wParam$[ebp], eax
	sete	al

; 11611:         }
; 11612:       } break;

	jmp	SHORT $LN91@operator
$LN29@operator:

; 11635:               } break;
; 11636: 
; 11637:               case WA_INACTIVE:
; 11638:               {
; 11639:                 ActivateWindow (lParam == 0 || (HWND)lParam == game_window.hWnd);

	mov	ecx, DWORD PTR _lParam$[ebp]
	test	ecx, ecx
	je	SHORT $LN74@operator
	cmp	ecx, eax
	je	SHORT $LN74@operator
	xor	al, al
	lea	ecx, DWORD PTR _ActivateWindow$[ebp]
	push	eax
	call	??R<lambda_a71b56d13de6c5a0c01a9b6128e8e6fc>@@QBEX_N@Z ; <lambda_a71b56d13de6c5a0c01a9b6128e8e6fc>::operator()
	pop	edi
	pop	esi

; 11888:         }
; 11889:       } break;
; 11890:     }
; 11891: 
; 11892:     return false;

	xor	al, al
	pop	ebx

; 11893:   };

	mov	esp, ebp
	pop	ebp
	ret	16					; 00000010H
$LN74@operator:

; 11635:               } break;
; 11636: 
; 11637:               case WA_INACTIVE:
; 11638:               {
; 11639:                 ActivateWindow (lParam == 0 || (HWND)lParam == game_window.hWnd);

	mov	eax, 1
	lea	ecx, DWORD PTR _ActivateWindow$[ebp]
	push	eax
	call	??R<lambda_a71b56d13de6c5a0c01a9b6128e8e6fc>@@QBEX_N@Z ; <lambda_a71b56d13de6c5a0c01a9b6128e8e6fc>::operator()
	pop	edi
	pop	esi

; 11888:         }
; 11889:       } break;
; 11890:     }
; 11891: 
; 11892:     return false;

	xor	al, al
	pop	ebx

; 11893:   };

	mov	esp, ebp
	pop	ebp
	ret	16					; 00000010H
$LN26@operator:

; 11622:           {
; 11623:             ActivateWindow (wParam != 0x00);

	cmp	DWORD PTR _wParam$[ebp], 0

; 11640:               } break;
; 11641:             }
; 11642:           }
; 11643:         }
; 11644:       } break;

	jmp	$LN92@operator
$LN39@operator:

; 11693: 
; 11694:       case WM_KEYDOWN:
; 11695:       case WM_SYSKEYDOWN:
; 11696:       {
; 11697:         BYTE  vkCode   = LOWORD (wParam) & 0xFF;
; 11698:         BYTE  scanCode = HIWORD (lParam) & 0x7F;

	mov	edi, DWORD PTR _lParam$[ebp]
	mov	eax, edi

; 11699: 
; 11700:         if (vkCode & 0xF8) // Valid Keys:  8 - 255

	mov	ebx, DWORD PTR _wParam$[ebp]
	shr	eax, 16					; 00000010H
	and	eax, -129				; ffffff7fH
	mov	DWORD PTR tv686[ebp], eax
	test	bl, 248					; 000000f8H
	je	$LN40@operator

; 11701:         {
; 11702:           // Don't process Alt+Tab or Alt+Enter
; 11703:           if (msg == WM_SYSKEYDOWN && ( vkCode == VK_TAB || vkCode == VK_RETURN ))

	cmp	ecx, 260				; 00000104H
	jne	SHORT $LN42@operator
	cmp	bl, 9
	je	$LN16@operator
	cmp	bl, 13					; 0000000dH
	je	$LN16@operator
$LN42@operator:

; 11704:             return false;
; 11705: 
; 11706:           // Just the make / break events, repeats are ignored
; 11707:           if      ((lParam & 0x40000000UL) == 0)

	test	edi, 1073741824				; 40000000H
	jne	SHORT $LN44@operator

; 11708:             SK_Console::getInstance ()->KeyDown (vkCode, MAXDWORD);

	push	-1
	push	ebx
	call	?getInstance@SK_Console@@SAPAV1@XZ	; SK_Console::getInstance
	mov	ecx, eax
	call	?KeyDown@SK_Console@@QAEHEJ@Z		; SK_Console::KeyDown
$LN44@operator:

; 11709: 
; 11710:           if (vkCode != VK_TAB)

	cmp	bl, 9
	je	$LN54@operator

; 11711:           {
; 11712:             wchar_t key_str;
; 11713: 
; 11714:             if ( ToUnicodeEx ( vkCode,
; 11715:                                scanCode,
; 11716:                                (const BYTE *)io.KeysDown,
; 11717:                               &key_str,
; 11718:                                1,
; 11719:                                0x00,
; 11720:                                GetKeyboardLayout (0) )
; 11721:                      &&

	push	0
	call	DWORD PTR __imp__GetKeyboardLayout@4
	push	eax
	push	0
	push	1
	lea	eax, DWORD PTR _key_str$2[ebp]
	push	eax
	lea	eax, DWORD PTR [esi+229]
	push	eax
	mov	eax, DWORD PTR tv686[ebp]
	movzx	eax, al
	push	eax
	movzx	eax, bl
	push	eax
	call	DWORD PTR __imp__ToUnicodeEx@28
	test	eax, eax
	je	$LN54@operator
	push	DWORD PTR _key_str$2[ebp]
	call	DWORD PTR __imp__iswprint
	add	esp, 4
	test	eax, eax
	je	$LN54@operator

; 11722:                   iswprint ( key_str )
; 11723:                )
; 11724:             {
; 11725:               ImGui_WndProcHandler ( hWnd, WM_CHAR, key_str, lParam );

	movzx	eax, WORD PTR _key_str$2[ebp]
	push	edi
	push	eax
	push	258					; 00000102H
	push	DWORD PTR _hWnd$[ebp]
	call	?ImGui_WndProcHandler@@YGJPAUHWND__@@IIJ@Z ; ImGui_WndProcHandler
	pop	edi
	pop	esi

; 11767:         }
; 11768: 
; 11769:         return true;

	mov	al, 1
	pop	ebx

; 11893:   };

	mov	esp, ebp
	pop	ebp
	ret	16					; 00000010H
$LN40@operator:

; 11726:             }
; 11727:           }
; 11728:         }
; 11729: 
; 11730:         // Mouse event
; 11731:         //
; 11732:         else if (vkCode < 7)

	cmp	bl, 7
	jae	SHORT $LN54@operator

; 11733:         {
; 11734:           int remap = -1;
; 11735: 
; 11736:           // Stupid hack, but these indices are discontinuous
; 11737:           //
; 11738:           switch (vkCode)

	movzx	eax, bl
	dec	eax
	cmp	eax, 5
	ja	SHORT $LN54@operator
	jmp	DWORD PTR $LN95@operator[eax*4]
$LN48@operator:

; 11739:           {
; 11740:             case VK_LBUTTON:
; 11741:               remap = 0;

	xor	eax, eax
	pop	edi

; 11758:               break;
; 11759: 
; 11760:             default:
; 11761:               assert (false); // WTF?! These keys don't exist
; 11762:               break;
; 11763:           }
; 11764: 
; 11765:           if (remap != -1)
; 11766:             io.MouseDown [remap] = true;

	mov	BYTE PTR [eax+esi+212], 1

; 11767:         }
; 11768: 
; 11769:         return true;

	mov	al, 1
	pop	esi
	pop	ebx

; 11893:   };

	mov	esp, ebp
	pop	ebp
	ret	16					; 00000010H
$LN49@operator:

; 11742:               break;
; 11743: 
; 11744:             case VK_RBUTTON:
; 11745:               remap = 1;

	mov	eax, 1
	pop	edi

; 11758:               break;
; 11759: 
; 11760:             default:
; 11761:               assert (false); // WTF?! These keys don't exist
; 11762:               break;
; 11763:           }
; 11764: 
; 11765:           if (remap != -1)
; 11766:             io.MouseDown [remap] = true;

	mov	BYTE PTR [eax+esi+212], al
	pop	esi
	pop	ebx

; 11893:   };

	mov	esp, ebp
	pop	ebp
	ret	16					; 00000010H
$LN50@operator:

; 11746:               break;
; 11747: 
; 11748:             case VK_MBUTTON:
; 11749:               remap = 2;

	mov	eax, 2
	pop	edi

; 11758:               break;
; 11759: 
; 11760:             default:
; 11761:               assert (false); // WTF?! These keys don't exist
; 11762:               break;
; 11763:           }
; 11764: 
; 11765:           if (remap != -1)
; 11766:             io.MouseDown [remap] = true;

	mov	BYTE PTR [eax+esi+212], 1

; 11767:         }
; 11768: 
; 11769:         return true;

	mov	al, 1
	pop	esi
	pop	ebx

; 11893:   };

	mov	esp, ebp
	pop	ebp
	ret	16					; 00000010H
$LN51@operator:

; 11750:               break;
; 11751: 
; 11752:             case VK_XBUTTON1:
; 11753:               remap = 3;

	mov	eax, 3
	pop	edi

; 11758:               break;
; 11759: 
; 11760:             default:
; 11761:               assert (false); // WTF?! These keys don't exist
; 11762:               break;
; 11763:           }
; 11764: 
; 11765:           if (remap != -1)
; 11766:             io.MouseDown [remap] = true;

	mov	BYTE PTR [eax+esi+212], 1

; 11767:         }
; 11768: 
; 11769:         return true;

	mov	al, 1
	pop	esi
	pop	ebx

; 11893:   };

	mov	esp, ebp
	pop	ebp
	ret	16					; 00000010H
$LN52@operator:

; 11754:               break;
; 11755: 
; 11756:             case VK_XBUTTON2:
; 11757:               remap = 4;

	mov	eax, 4

; 11758:               break;
; 11759: 
; 11760:             default:
; 11761:               assert (false); // WTF?! These keys don't exist
; 11762:               break;
; 11763:           }
; 11764: 
; 11765:           if (remap != -1)
; 11766:             io.MouseDown [remap] = true;

	mov	BYTE PTR [eax+esi+212], 1
$LN54@operator:

; 11767:         }
; 11768: 
; 11769:         return true;

	pop	edi
	pop	esi
	mov	al, 1
	pop	ebx

; 11893:   };

	mov	esp, ebp
	pop	ebp
	ret	16					; 00000010H
$LN55@operator:

; 11770:       } break;
; 11771: 
; 11772: 
; 11773:       case WM_KEYUP:
; 11774:       case WM_SYSKEYUP:
; 11775:       {
; 11776:         BYTE vkCode = LOWORD (wParam) & 0xFF;
; 11777: 
; 11778:         if (vkCode & 0xF8) // Valid Keys:  8 - 255

	mov	eax, DWORD PTR _wParam$[ebp]
	test	al, 248					; 000000f8H
	je	$LN16@operator

; 11779:         {
; 11780:           // Don't process Alt+Tab or Alt+Enter
; 11781:           if (msg == WM_SYSKEYUP && ( vkCode == VK_TAB || vkCode == VK_RETURN ))

	cmp	ecx, 261				; 00000105H
	jne	SHORT $LN57@operator
	cmp	al, 9
	je	$LN16@operator
	cmp	al, 13					; 0000000dH
	je	$LN16@operator
$LN57@operator:

; 11782:             return false;
; 11783: 
; 11784:           SK_Console::getInstance ()->KeyUp (vkCode, lParam);

	push	DWORD PTR _lParam$[ebp]
	push	eax
	call	?getInstance@SK_Console@@SAPAV1@XZ	; SK_Console::getInstance
	mov	ecx, eax
	call	?KeyUp@SK_Console@@QAEHEJ@Z		; SK_Console::KeyUp
	pop	edi
	pop	esi

; 11785: 
; 11786:           return true;

	mov	al, 1
	pop	ebx

; 11893:   };

	mov	esp, ebp
	pop	ebp
	ret	16					; 00000010H
$LN65@operator:

; 11835:       } break;
; 11836: 
; 11837: 
; 11838:       case WM_CHAR:
; 11839:       {
; 11840:         // You can also use ToAscii()+GetKeyboardState() to retrieve characters.
; 11841:         if ((wParam & 0xff) > 7 && wParam < 0x10000)

	mov	ecx, DWORD PTR _wParam$[ebp]
	cmp	cl, 7
	jbe	$LN34@operator
	cmp	ecx, 65536				; 00010000H
	jae	$LN34@operator

; 11842:         {
; 11843:           io.AddInputCharacter ((unsigned short)(wParam & 0xFFFF));

	push	ecx
	mov	ecx, esi
	call	?AddInputCharacter@ImGuiIO@@QAEXG@Z	; ImGuiIO::AddInputCharacter
	pop	edi
	pop	esi

; 11844:         }
; 11845: 
; 11846:         return true;

	mov	al, 1
	pop	ebx

; 11893:   };

	mov	esp, ebp
	pop	ebp
	ret	16					; 00000010H
$LN67@operator:

; 11847:       } break;
; 11848: 
; 11849: 
; 11850:       case WM_INPUT:
; 11851:       {
; 11852:         RAWINPUT data = { };
; 11853:         UINT     size = sizeof RAWINPUT;
; 11854: 
; 11855:         int      ret  =
; 11856:           GetRawInputData_Original ((HRAWINPUT)lParam, RID_HEADER, &data, &size, sizeof (RAWINPUTHEADER) );

	mov	esi, DWORD PTR _lParam$[ebp]
	lea	eax, DWORD PTR _size$3[ebp]
	push	16					; 00000010H
	push	eax
	lea	eax, DWORD PTR _data$1[ebp]
	mov	DWORD PTR _size$3[ebp], 40		; 00000028H
	push	eax
	xorps	xmm0, xmm0
	push	268435461				; 10000005H
	push	esi
	movups	XMMWORD PTR _data$1[ebp], xmm0
	movups	XMMWORD PTR _data$1[ebp+16], xmm0
	movq	QWORD PTR _data$1[ebp+32], xmm0
	call	DWORD PTR ?GetRawInputData_Original@@3P6GIPAUHRAWINPUT__@@IPAXPAII@ZA ; GetRawInputData_Original

; 11857: 
; 11858:         if (ret)

	test	eax, eax
	je	$LN16@operator

; 11859:         {
; 11860:           auto *pData =
; 11861:             new uint8_t [size];

	push	DWORD PTR _size$3[ebp]
	call	??_U@YAPAXI@Z				; operator new[]
	mov	edi, eax
	add	esp, 4

; 11862: 
; 11863:           if (! pData)

	test	edi, edi
	je	$LN16@operator

; 11864:             return 0;
; 11865: 
; 11866:           bool cap = false;
; 11867: 
; 11868:           switch (data.header.dwType)

	mov	eax, DWORD PTR _data$1[ebp]

; 11877:               break;
; 11878: 
; 11879:             default:
; 11880:               cap  = SK_ImGui_ProcessRawInput ((HRAWINPUT)lParam, RID_INPUT, &data, &size, sizeof (data.header), true) != 0;

	push	1
	push	16					; 00000010H
	sub	eax, 0
	je	$LN70@operator
	sub	eax, 1
	lea	eax, DWORD PTR _size$3[ebp]
	push	eax
	lea	eax, DWORD PTR _data$1[ebp]
	push	eax
	push	268435459				; 10000003H
	push	esi
	je	SHORT $LN71@operator
	call	?SK_ImGui_ProcessRawInput@@YGIPAUHRAWINPUT__@@IPAXPAIIH@Z ; SK_ImGui_ProcessRawInput
	test	eax, eax
	setne	bl

; 11881:               cap &= SK_ImGui_WantGamepadCapture ();

	call	?SK_ImGui_WantGamepadCapture@@YA_NXZ	; SK_ImGui_WantGamepadCapture

; 11882:               break;
; 11883:           }
; 11884: 
; 11885:           delete [] pData;

	push	edi
	and	bl, al
	call	??_V@YAXPAX@Z				; operator delete[]
	add	esp, 4

; 11886: 
; 11887:           return cap;

	mov	al, bl
	pop	edi
	pop	esi
	pop	ebx

; 11893:   };

	mov	esp, ebp
	pop	ebp
	ret	16					; 00000010H
$LN71@operator:

; 11872:               break;
; 11873: 
; 11874:             case RIM_TYPEKEYBOARD:
; 11875:               cap  = SK_ImGui_ProcessRawInput ((HRAWINPUT)lParam, RID_INPUT, &data, &size, sizeof (data.header), true) != 0;

	call	?SK_ImGui_ProcessRawInput@@YGIPAUHRAWINPUT__@@IPAXPAIIH@Z ; SK_ImGui_ProcessRawInput
	test	eax, eax
	setne	bl

; 11876:               cap &= ( SK_Console::getInstance ()->isVisible () || SK_ImGui_WantKeyboardCapture () || SK_ImGui_WantGamepadCapture () );

	call	?getInstance@SK_Console@@SAPAV1@XZ	; SK_Console::getInstance
	cmp	BYTE PTR [eax+4356], 0
	jne	SHORT $LN80@operator
	call	?SK_ImGui_WantKeyboardCapture@@YA_NXZ	; SK_ImGui_WantKeyboardCapture
	test	al, al
	jne	SHORT $LN80@operator
	call	?SK_ImGui_WantGamepadCapture@@YA_NXZ	; SK_ImGui_WantGamepadCapture
	test	al, al
	jne	SHORT $LN80@operator
	xor	eax, eax

; 11882:               break;
; 11883:           }
; 11884: 
; 11885:           delete [] pData;

	push	edi
	and	bl, al
	call	??_V@YAXPAX@Z				; operator delete[]
	add	esp, 4

; 11886: 
; 11887:           return cap;

	mov	al, bl
	pop	edi
	pop	esi
	pop	ebx

; 11893:   };

	mov	esp, ebp
	pop	ebp
	ret	16					; 00000010H
$LN80@operator:

; 11876:               cap &= ( SK_Console::getInstance ()->isVisible () || SK_ImGui_WantKeyboardCapture () || SK_ImGui_WantGamepadCapture () );

	mov	eax, 1

; 11882:               break;
; 11883:           }
; 11884: 
; 11885:           delete [] pData;

	push	edi
	and	bl, al
	call	??_V@YAXPAX@Z				; operator delete[]
	add	esp, 4

; 11886: 
; 11887:           return cap;

	mov	al, bl
	pop	edi
	pop	esi
	pop	ebx

; 11893:   };

	mov	esp, ebp
	pop	ebp
	ret	16					; 00000010H
$LN70@operator:

; 11869:           {
; 11870:             case RIM_TYPEMOUSE:
; 11871:               cap = SK_ImGui_ProcessRawInput ((HRAWINPUT)lParam, RID_INPUT, &data, &size, sizeof (data.header),  true) != 0 && SK_ImGui_WantMouseCapture ();

	lea	eax, DWORD PTR _size$3[ebp]
	push	eax
	lea	eax, DWORD PTR _data$1[ebp]
	push	eax
	push	268435459				; 10000003H
	push	esi
	call	?SK_ImGui_ProcessRawInput@@YGIPAUHRAWINPUT__@@IPAXPAIIH@Z ; SK_ImGui_ProcessRawInput
	test	eax, eax
	je	SHORT $LN78@operator
	call	?SK_ImGui_WantMouseCapture@@YA_NXZ	; SK_ImGui_WantMouseCapture
	test	al, al
	je	SHORT $LN78@operator

; 11882:               break;
; 11883:           }
; 11884: 
; 11885:           delete [] pData;

	push	edi
	mov	bl, 1
	call	??_V@YAXPAX@Z				; operator delete[]
	add	esp, 4

; 11886: 
; 11887:           return cap;

	mov	al, bl
	pop	edi
	pop	esi
	pop	ebx

; 11893:   };

	mov	esp, ebp
	pop	ebp
	ret	16					; 00000010H
$LN78@operator:

; 11882:               break;
; 11883:           }
; 11884: 
; 11885:           delete [] pData;

	push	edi
	xor	bl, bl
	call	??_V@YAXPAX@Z				; operator delete[]
	add	esp, 4

; 11886: 
; 11887:           return cap;

	mov	al, bl
	pop	edi
	pop	esi
	pop	ebx

; 11893:   };

	mov	esp, ebp
	pop	ebp
	ret	16					; 00000010H
$LN59@operator:

; 11787:         }
; 11788:       } break;
; 11789: 
; 11790: 
; 11791:       case WM_NCMOUSEMOVE:
; 11792:       case WM_MOUSEMOVE:
; 11793:       {
; 11794:         LONG lDeltaRet = SK_ImGui_DeltaTestMouse (last_pos, (DWORD)lParam);

	mov	edi, DWORD PTR _lParam$[ebp]
	push	1
	push	edi
	push	OFFSET ?last_pos@?1??ImGui_WndProcHandler@@YGJPAUHWND__@@IIJ@Z@4UtagPOINTS@@A
	call	?SK_ImGui_DeltaTestMouse@@YAJAAUtagPOINTS@@KF@Z ; SK_ImGui_DeltaTestMouse
	mov	ebx, eax
	add	esp, 12					; 0000000cH

; 11795: 
; 11796:         // Return:
; 11797:         //
; 11798:         //   -1 if no filtering is desired
; 11799:         //    0 if the message should be passed onto app, but internal cursor pos unchanged
; 11800:         //    1 if the message should be completely eradicated
; 11801:         //
; 11802:         if (lDeltaRet >= 0)

	test	ebx, ebx
	js	SHORT $LN60@operator

; 11803:         {
; 11804:           if (SK_ImGui_IsMouseRelevant ())

	call	?SK_ImGui_IsMouseRelevant@@YA_NXZ	; SK_ImGui_IsMouseRelevant
	test	al, al
	je	SHORT $LN61@operator

; 11805:             SK_ImGui_Cursor.update ();

	mov	ecx, OFFSET ?SK_ImGui_Cursor@@3Usk_imgui_cursor_s@@A ; SK_ImGui_Cursor
	call	?update@sk_imgui_cursor_s@@QAEXXZ	; sk_imgui_cursor_s::update
$LN61@operator:

; 11806: 
; 11807:           return lDeltaRet;

	pop	edi
	test	ebx, ebx
	pop	esi
	setne	al
	pop	ebx

; 11893:   };

	mov	esp, ebp
	pop	ebp
	ret	16					; 00000010H
$LN60@operator:

; 11808:         }
; 11809: 
; 11810:         SHORT xPos = GET_X_LPARAM (lParam);
; 11811:         SHORT yPos = GET_Y_LPARAM (lParam);
; 11812: 
; 11813:         SK_ImGui_Cursor.pos.x = xPos;

	movsx	eax, di

; 11814:         SK_ImGui_Cursor.pos.y = yPos;
; 11815: 
; 11816:         SK_ImGui_Cursor.ClientToLocal (&SK_ImGui_Cursor.pos);

	mov	ecx, OFFSET ?SK_ImGui_Cursor@@3Usk_imgui_cursor_s@@A ; SK_ImGui_Cursor
	mov	DWORD PTR ?SK_ImGui_Cursor@@3Usk_imgui_cursor_s@@A+20, eax
	shr	edi, 16					; 00000010H
	movsx	eax, di
	push	OFFSET ?SK_ImGui_Cursor@@3Usk_imgui_cursor_s@@A+20
	mov	DWORD PTR ?SK_ImGui_Cursor@@3Usk_imgui_cursor_s@@A+24, eax
	call	?ClientToLocal@sk_imgui_cursor_s@@QAEXPAUtagPOINT@@@Z ; sk_imgui_cursor_s::ClientToLocal
	movd	xmm0, DWORD PTR ?SK_ImGui_Cursor@@3Usk_imgui_cursor_s@@A+20

; 11817: 
; 11818:         io.MousePos.x = (float)SK_ImGui_Cursor.pos.x;

	cvtdq2ps xmm0, xmm0
	movss	DWORD PTR [esi+204], xmm0
	movd	xmm0, DWORD PTR ?SK_ImGui_Cursor@@3Usk_imgui_cursor_s@@A+24

; 11819:         io.MousePos.y = (float)SK_ImGui_Cursor.pos.y;

	cvtdq2ps xmm0, xmm0
	movss	DWORD PTR [esi+208], xmm0

; 11820: 
; 11821:         if (! SK_ImGui_WantMouseCapture ())

	call	?SK_ImGui_WantMouseCapture@@YA_NXZ	; SK_ImGui_WantMouseCapture
	test	al, al
	jne	SHORT $LN62@operator

; 11822:         {
; 11823:           if (SK_ImGui_IsMouseRelevant ())

	call	?SK_ImGui_IsMouseRelevant@@YA_NXZ	; SK_ImGui_IsMouseRelevant
	test	al, al
	je	SHORT $LN63@operator

; 11824:             SK_ImGui_Cursor.update ();

	mov	ecx, OFFSET ?SK_ImGui_Cursor@@3Usk_imgui_cursor_s@@A ; SK_ImGui_Cursor
	call	?update@sk_imgui_cursor_s@@QAEXXZ	; sk_imgui_cursor_s::update
$LN63@operator:

; 11825: 
; 11826:           SK_ImGui_Cursor.orig_pos = SK_ImGui_Cursor.pos;

	mov	eax, DWORD PTR ?SK_ImGui_Cursor@@3Usk_imgui_cursor_s@@A+20
	pop	edi
	mov	DWORD PTR ?SK_ImGui_Cursor@@3Usk_imgui_cursor_s@@A+4, eax
	mov	eax, DWORD PTR ?SK_ImGui_Cursor@@3Usk_imgui_cursor_s@@A+24
	pop	esi
	mov	DWORD PTR ?SK_ImGui_Cursor@@3Usk_imgui_cursor_s@@A+8, eax

; 11888:         }
; 11889:       } break;
; 11890:     }
; 11891: 
; 11892:     return false;

	xor	al, al
	pop	ebx

; 11893:   };

	mov	esp, ebp
	pop	ebp
	ret	16					; 00000010H
$LN62@operator:

; 11827: 
; 11828:           return false;
; 11829:         }
; 11830: 
; 11831:         if (SK_ImGui_IsMouseRelevant ())

	call	?SK_ImGui_IsMouseRelevant@@YA_NXZ	; SK_ImGui_IsMouseRelevant
	test	al, al
	je	$LN34@operator

; 11832:           SK_ImGui_Cursor.update ();

	mov	ecx, OFFSET ?SK_ImGui_Cursor@@3Usk_imgui_cursor_s@@A ; SK_ImGui_Cursor
	call	?update@sk_imgui_cursor_s@@QAEXXZ	; sk_imgui_cursor_s::update
	pop	edi
	pop	esi

; 11833: 
; 11834:         return true;

	mov	al, 1
	pop	ebx

; 11893:   };

	mov	esp, ebp
	pop	ebp
	ret	16					; 00000010H
$LN82@operator:

; 11554: 
; 11555:     switch (msg)

	cmp	ecx, 786				; 00000312H
	ja	$LN84@operator
	je	$LN12@operator
	add	ecx, -513				; fffffdffH
	cmp	ecx, 12					; 0000000cH
	ja	$LN16@operator
	jmp	DWORD PTR $LN96@operator[ecx*4]
$LN30@operator:
	pop	edi

; 11645: 
; 11646: 
; 11647:       case WM_LBUTTONDOWN:
; 11648:       case WM_LBUTTONDBLCLK: // Sent on receipt of the second click
; 11649:         io.MouseDown [0] = true;

	mov	BYTE PTR [esi+212], 1

; 11650:         return true;

	mov	al, 1
	pop	esi
	pop	ebx

; 11893:   };

	mov	esp, ebp
	pop	ebp
	ret	16					; 00000010H
$LN31@operator:
	pop	edi

; 11651: 
; 11652:       case WM_RBUTTONDOWN:
; 11653:       case WM_RBUTTONDBLCLK: // Sent on receipt of the second click 
; 11654:         io.MouseDown [1] = true;

	mov	BYTE PTR [esi+213], 1

; 11655:         return true;

	mov	al, 1
	pop	esi
	pop	ebx

; 11893:   };

	mov	esp, ebp
	pop	ebp
	ret	16					; 00000010H
$LN32@operator:
	pop	edi

; 11656: 
; 11657:       case WM_MBUTTONDOWN:
; 11658:       case WM_MBUTTONDBLCLK: // Sent on receipt of the second click
; 11659:         io.MouseDown [2] = true;

	mov	BYTE PTR [esi+214], 1

; 11660:         return true;

	mov	al, 1
	pop	esi
	pop	ebx

; 11893:   };

	mov	esp, ebp
	pop	ebp
	ret	16					; 00000010H
$LN33@operator:

; 11661: 
; 11662:       case WM_XBUTTONDOWN:
; 11663:       case WM_XBUTTONDBLCLK: // Sent on receipt of the second click
; 11664:       {
; 11665:         WORD Flags =
; 11666:           GET_XBUTTON_WPARAM (wParam);

	mov	ecx, DWORD PTR _wParam$[ebp]
	shr	ecx, 16					; 00000010H

; 11667: 
; 11668:         io.MouseDown [3] |= (Flags & XBUTTON1) != 0;

	mov	al, cl

; 11669:         io.MouseDown [4] |= (Flags & XBUTTON2) != 0;

	shr	cl, 1
	and	al, 1
	and	cl, 1
	or	BYTE PTR [esi+215], al

; 11670: 
; 11671:         return true;

	mov	al, 1
	or	BYTE PTR [esi+216], cl
	pop	edi
	pop	esi
	pop	ebx

; 11893:   };

	mov	esp, ebp
	pop	ebp
	ret	16					; 00000010H
$LN38@operator:

; 11672:       } break;
; 11673: 
; 11674:       // Don't care about these events for anything other than filtering;
; 11675:       //   we will poll the immediate mouse state when the frame starts.
; 11676:       //
; 11677:       //  This effectively gives us buffered mouse input behavior, where
; 11678:       //    no mouse click is ever lost (only the time that it happened).
; 11679:       //
; 11680:       case WM_LBUTTONUP:
; 11681:         return true;
; 11682:       case WM_RBUTTONUP:
; 11683:         return true;
; 11684:       case WM_MBUTTONUP:
; 11685:         return true;
; 11686:       case WM_XBUTTONUP:
; 11687:         return true;
; 11688: 
; 11689: 
; 11690:       case WM_MOUSEWHEEL:
; 11691:         io.MouseWheel += GET_WHEEL_DELTA_WPARAM (wParam) > 0 ? +1.0f : -1.0f;

	mov	eax, DWORD PTR _wParam$[ebp]
	shr	eax, 16					; 00000010H
	test	ax, ax
	jle	SHORT $LN76@operator
	movss	xmm1, DWORD PTR __real@3f800000
	jmp	SHORT $LN77@operator
$LN76@operator:
	movss	xmm1, DWORD PTR __real@bf800000
$LN77@operator:
	movss	xmm0, DWORD PTR [esi+220]

; 11692:         return true;

	mov	al, 1
	addss	xmm0, xmm1
	pop	edi
	movss	DWORD PTR [esi+220], xmm0
	pop	esi
	pop	ebx

; 11893:   };

	mov	esp, ebp
	pop	ebp
	ret	16					; 00000010H
$LN12@operator:

; 11556:     {
; 11557:       case WM_HOTKEY:
; 11558:       {
; 11559:         if (SK_ImGui_WantGamepadCapture ())

	call	?SK_ImGui_WantGamepadCapture@@YA_NXZ	; SK_ImGui_WantGamepadCapture
	test	al, al
	je	$LN16@operator
$LN34@operator:
	pop	edi
	pop	esi

; 11560:         {
; 11561:           return 1;

	mov	al, 1
	pop	ebx

; 11893:   };

	mov	esp, ebp
	pop	ebp
	ret	16					; 00000010H
$LN84@operator:

; 11554: 
; 11555:     switch (msg)

	cmp	ecx, 793				; 00000319H
	jne	$LN16@operator

; 11562:         }
; 11563:       } break;
; 11564: 
; 11565:       // TODO: Take the bazillion different sources of input and translate them all into
; 11566:       //          a standard window message format for sanity's sake during filter evaluation.
; 11567:       case WM_APPCOMMAND:
; 11568:       {
; 11569:         switch (GET_DEVICE_LPARAM (lParam))

	mov	eax, DWORD PTR _lParam$[ebp]
	shr	eax, 16					; 00000010H
	and	eax, 61440				; 0000f000H
	je	SHORT $LN15@operator
	cmp	eax, 32768				; 00008000H
	jne	$LN16@operator

; 11579:             //}
; 11580:           } break;
; 11581: 
; 11582:           case FAPPCOMMAND_MOUSE:
; 11583:           {
; 11584:             if (SK_ImGui_WantMouseCapture ())

	call	?SK_ImGui_WantMouseCapture@@YA_NXZ	; SK_ImGui_WantMouseCapture
	test	al, al
	je	SHORT $LN18@operator

; 11585:             {
; 11586:               dll_log.Log (L"Removed WM_APPCOMMAND Mouse Event");

	push	OFFSET ??_C@_1EE@HBEADAKP@?$AAR?$AAe?$AAm?$AAo?$AAv?$AAe?$AAd?$AA?5?$AAW?$AAM?$AA_?$AAA?$AAP?$AAP?$AAC?$AAO?$AAM?$AAM?$AAA?$AAN?$AAD?$AA?5?$AAM?$AAo?$AAu?$AAs?$AAe?$AA?5?$AAE?$AAv?$AAe?$AAn@
	push	OFFSET ?dll_log@@3UiSK_Logger@@A	; dll_log
	call	?Log@iSK_Logger@@UAAXQB_WZZ		; iSK_Logger::Log
	add	esp, 8

; 11587:               return true;

	mov	al, 1
	pop	edi
	pop	esi
	pop	ebx

; 11893:   };

	mov	esp, ebp
	pop	ebp
	ret	16					; 00000010H
$LN18@operator:

; 11588:             }
; 11589: 
; 11590:             dll_log.Log (L"WM_APPCOMMAND Mouse Event");

	push	OFFSET ??_C@_1DE@HMFBBKJG@?$AAW?$AAM?$AA_?$AAA?$AAP?$AAP?$AAC?$AAO?$AAM?$AAM?$AAA?$AAN?$AAD?$AA?5?$AAM?$AAo?$AAu?$AAs?$AAe?$AA?5?$AAE?$AAv?$AAe?$AAn?$AAt?$AA?$AA@
	push	OFFSET ?dll_log@@3UiSK_Logger@@A	; dll_log
	call	?Log@iSK_Logger@@UAAXQB_WZZ		; iSK_Logger::Log
	add	esp, 8

; 11591: 
; 11592:             DWORD dwPos = GetMessagePos ();

	call	DWORD PTR __imp__GetMessagePos@0

; 11593:             LONG  lRet  = SK_ImGui_DeltaTestMouse (*(POINTS *)&last_pos, dwPos);

	push	1
	push	eax
	push	OFFSET ?last_pos@?1??ImGui_WndProcHandler@@YGJPAUHWND__@@IIJ@Z@4UtagPOINTS@@A
	call	?SK_ImGui_DeltaTestMouse@@YAJAAUtagPOINTS@@KF@Z ; SK_ImGui_DeltaTestMouse
	add	esp, 12					; 0000000cH

; 11594: 
; 11595:             if (lRet >= 0)

	test	eax, eax
	js	$LN16@operator

; 11596:             {
; 11597:               dll_log.Log (L"Removed WM_APPCOMMAND Mouse Delta Failure");

	push	OFFSET ??_C@_1FE@DBJNABHE@?$AAR?$AAe?$AAm?$AAo?$AAv?$AAe?$AAd?$AA?5?$AAW?$AAM?$AA_?$AAA?$AAP?$AAP?$AAC?$AAO?$AAM?$AAM?$AAA?$AAN?$AAD?$AA?5?$AAM?$AAo?$AAu?$AAs?$AAe?$AA?5?$AAD?$AAe?$AAl?$AAt@
	push	OFFSET ?dll_log@@3UiSK_Logger@@A	; dll_log
	call	?Log@iSK_Logger@@UAAXQB_WZZ		; iSK_Logger::Log
	add	esp, 8

; 11598:               return true;

	mov	al, 1
	pop	edi
	pop	esi
	pop	ebx

; 11893:   };

	mov	esp, ebp
	pop	ebp
	ret	16					; 00000010H
$LN15@operator:

; 11570:         {
; 11571:           case FAPPCOMMAND_KEY:
; 11572:           {
; 11573:             dll_log.Log (L"WM_APPCOMMAND Keyboard Event");

	push	OFFSET ??_C@_1DK@BLGEDKBM@?$AAW?$AAM?$AA_?$AAA?$AAP?$AAP?$AAC?$AAO?$AAM?$AAM?$AAA?$AAN?$AAD?$AA?5?$AAK?$AAe?$AAy?$AAb?$AAo?$AAa?$AAr?$AAd?$AA?5?$AAE?$AAv?$AAe?$AAn?$AAt?$AA?$AA@
	push	OFFSET ?dll_log@@3UiSK_Logger@@A	; dll_log
	call	?Log@iSK_Logger@@UAAXQB_WZZ		; iSK_Logger::Log
	add	esp, 8

; 11574: 
; 11575:             //if (SK_ImGui_WantKeyboardCapture ())
; 11576:             //{
; 11577:             if (window_active)

	cmp	BYTE PTR ?window_active@?1???R<lambda_34955bda5757b6d1afe210935814f65c>@@QBE_NPAUHWND__@@IIJ@Z@4_NA, 0 ; `<lambda_34955bda5757b6d1afe210935814f65c>::operator()'::`2'::window_active
	je	$LN16@operator

; 11578:               return true;

	pop	edi
	pop	esi
	mov	al, 1
	pop	ebx

; 11893:   };

	mov	esp, ebp
	pop	ebp
	ret	16					; 00000010H
	npad	1
$LN94@operator:
	DD	$LN20@operator
	DD	$LN22@operator
	DD	$LN59@operator
	DD	$LN67@operator
	DD	$LN39@operator
	DD	$LN55@operator
	DD	$LN65@operator
	DD	$LN16@operator
$LN90@operator:
	DB	0
	DB	7
	DB	7
	DB	7
	DB	7
	DB	7
	DB	7
	DB	7
	DB	7
	DB	7
	DB	7
	DB	7
	DB	7
	DB	7
	DB	7
	DB	7
	DB	7
	DB	7
	DB	7
	DB	7
	DB	7
	DB	7
	DB	7
	DB	7
	DB	7
	DB	7
	DB	7
	DB	7
	DB	7
	DB	7
	DB	7
	DB	7
	DB	7
	DB	7
	DB	7
	DB	7
	DB	7
	DB	7
	DB	7
	DB	7
	DB	7
	DB	7
	DB	7
	DB	7
	DB	7
	DB	7
	DB	7
	DB	7
	DB	7
	DB	7
	DB	7
	DB	7
	DB	7
	DB	7
	DB	7
	DB	7
	DB	7
	DB	7
	DB	7
	DB	7
	DB	7
	DB	7
	DB	7
	DB	7
	DB	7
	DB	7
	DB	7
	DB	7
	DB	7
	DB	7
	DB	7
	DB	7
	DB	7
	DB	7
	DB	7
	DB	7
	DB	7
	DB	7
	DB	7
	DB	7
	DB	7
	DB	7
	DB	7
	DB	7
	DB	7
	DB	7
	DB	7
	DB	7
	DB	7
	DB	7
	DB	7
	DB	7
	DB	7
	DB	7
	DB	7
	DB	7
	DB	7
	DB	7
	DB	7
	DB	7
	DB	7
	DB	1
	DB	7
	DB	7
	DB	7
	DB	7
	DB	7
	DB	7
	DB	7
	DB	7
	DB	7
	DB	7
	DB	7
	DB	7
	DB	7
	DB	7
	DB	7
	DB	7
	DB	7
	DB	7
	DB	7
	DB	7
	DB	7
	DB	7
	DB	7
	DB	7
	DB	7
	DB	2
	DB	7
	DB	7
	DB	7
	DB	7
	DB	7
	DB	7
	DB	7
	DB	7
	DB	7
	DB	7
	DB	7
	DB	7
	DB	7
	DB	7
	DB	7
	DB	7
	DB	7
	DB	7
	DB	7
	DB	7
	DB	7
	DB	7
	DB	7
	DB	7
	DB	7
	DB	7
	DB	7
	DB	7
	DB	7
	DB	7
	DB	7
	DB	7
	DB	7
	DB	7
	DB	7
	DB	7
	DB	7
	DB	7
	DB	7
	DB	7
	DB	7
	DB	7
	DB	7
	DB	7
	DB	7
	DB	7
	DB	7
	DB	7
	DB	7
	DB	7
	DB	7
	DB	7
	DB	7
	DB	7
	DB	7
	DB	7
	DB	7
	DB	7
	DB	7
	DB	7
	DB	7
	DB	7
	DB	7
	DB	7
	DB	7
	DB	7
	DB	7
	DB	7
	DB	7
	DB	7
	DB	7
	DB	7
	DB	7
	DB	7
	DB	7
	DB	7
	DB	7
	DB	7
	DB	7
	DB	7
	DB	7
	DB	7
	DB	7
	DB	7
	DB	7
	DB	7
	DB	7
	DB	7
	DB	7
	DB	7
	DB	7
	DB	7
	DB	7
	DB	7
	DB	3
	DB	4
	DB	5
	DB	6
	DB	7
	DB	4
	DB	5
	npad	3
$LN95@operator:
	DD	$LN48@operator
	DD	$LN49@operator
	DD	$LN54@operator
	DD	$LN50@operator
	DD	$LN51@operator
	DD	$LN52@operator
$LN96@operator:
	DD	$LN30@operator
	DD	$LN34@operator
	DD	$LN30@operator
	DD	$LN31@operator
	DD	$LN34@operator
	DD	$LN31@operator
	DD	$LN32@operator
	DD	$LN34@operator
	DD	$LN32@operator
	DD	$LN38@operator
	DD	$LN33@operator
	DD	$LN34@operator
	DD	$LN33@operator
??R<lambda_34955bda5757b6d1afe210935814f65c>@@QBE_NPAUHWND__@@IIJ@Z ENDP ; <lambda_34955bda5757b6d1afe210935814f65c>::operator()
_TEXT	ENDS
; Function compile flags: /Ogtp
; File c:\users\andon\source\repos\specialk\src\imgui\imgui.cpp
_TEXT	SEGMENT
_MessageProc$ = -1					; size = 1
_hWnd$ = 8						; size = 4
_msg$ = 12						; size = 4
_filter_raw_input$1$ = 15				; size = 1
_wParam$ = 16						; size = 4
_lParam$ = 20						; size = 4
_filter_warps$1$ = 23					; size = 1
?ImGui_WndProcHandler@@YGJPAUHWND__@@IIJ@Z PROC		; ImGui_WndProcHandler

; 11481: {

	npad	2
	push	ebp
	mov	ebp, esp
	push	ecx
	push	ebx

; 11482:   if (msg == WM_DEVICECHANGE)
; 11483:   {
; 11484:     switch (wParam)

	mov	ebx, DWORD PTR _wParam$[ebp]
	push	esi
	mov	esi, DWORD PTR _msg$[ebp]
	push	edi
	mov	edi, DWORD PTR _lParam$[ebp]
