; Listing generated by Microsoft (R) Optimizing Compiler Version 19.10.25019.0 

	TITLE	C:\Users\andon\Source\Repos\SpecialK\src\import.cpp
	.686P
	.XMM
	include listing.inc
	.model	flat

INCLUDELIB MSVCRT
INCLUDELIB OLDNAMES

PUBLIC	_IID_IAxWinHostWindow
PUBLIC	?_pAtlAutoThreadModule@ATL@@3PAUIAtlAutoThreadModule@1@A ; ATL::_pAtlAutoThreadModule
PUBLIC	_IID_IAxWinHostWindowLic
PUBLIC	_IID_IAxWinAmbientDispatch
PUBLIC	?_pAtlModule@ATL@@3PAVCAtlModule@1@A		; ATL::_pAtlModule
PUBLIC	_LIBID_ATLLib
PUBLIC	_IID_IAxWinAmbientDispatchEx
PUBLIC	_IID_IInternalConnection
PUBLIC	___pobjMapEntryFirst
PUBLIC	___pobjMapEntryLast
PUBLIC	?_pPerfRegFunc@ATL@@3P6AJPAUHINSTANCE__@@@ZA	; ATL::_pPerfRegFunc
PUBLIC	?_pPerfUnRegFunc@ATL@@3P6AJXZA			; ATL::_pPerfUnRegFunc
PUBLIC	?_AtlRegisterPerUser@ATL@@3_NA			; ATL::_AtlRegisterPerUser
PUBLIC	?_pModule@ATL@@3PAVCComModule@1@A		; ATL::_pModule
PUBLIC	_CLSID_Registrar
PUBLIC	_IID_IRegistrar
PUBLIC	?chDirSep@ATL@@3_WB				; ATL::chDirSep
PUBLIC	?chRightBracket@ATL@@3_WB			; ATL::chRightBracket
PUBLIC	?chLeftBracket@ATL@@3_WB			; ATL::chLeftBracket
PUBLIC	?chQuote@ATL@@3_WB				; ATL::chQuote
PUBLIC	?chEquals@ATL@@3_WB				; ATL::chEquals
PUBLIC	?szStringVal@ATL@@3QB_WB			; ATL::szStringVal
PUBLIC	?multiszStringVal@ATL@@3QB_WB			; ATL::multiszStringVal
PUBLIC	?szDwordVal@ATL@@3QB_WB				; ATL::szDwordVal
PUBLIC	?szBinaryVal@ATL@@3QB_WB			; ATL::szBinaryVal
PUBLIC	?szValToken@ATL@@3QB_WB				; ATL::szValToken
PUBLIC	?szForceRemove@ATL@@3QB_WB			; ATL::szForceRemove
PUBLIC	?szNoRemove@ATL@@3QB_WB				; ATL::szNoRemove
PUBLIC	?szDelete@ATL@@3QB_WB				; ATL::szDelete
PUBLIC	_IID_IDocHostUIHandlerDispatch
;	COMDAT ?_pAtlAutoThreadModule@ATL@@3PAUIAtlAutoThreadModule@1@A
_BSS	SEGMENT
?_pAtlAutoThreadModule@ATL@@3PAUIAtlAutoThreadModule@1@A DD 01H DUP (?) ; ATL::_pAtlAutoThreadModule
_BSS	ENDS
;	COMDAT ?_pAtlModule@ATL@@3PAVCAtlModule@1@A
_BSS	SEGMENT
?_pAtlModule@ATL@@3PAVCAtlModule@1@A DD 01H DUP (?)	; ATL::_pAtlModule
_BSS	ENDS
;	COMDAT ?_pPerfRegFunc@ATL@@3P6AJPAUHINSTANCE__@@@ZA
_BSS	SEGMENT
?_pPerfRegFunc@ATL@@3P6AJPAUHINSTANCE__@@@ZA DD 01H DUP (?) ; ATL::_pPerfRegFunc
_BSS	ENDS
;	COMDAT ?_pPerfUnRegFunc@ATL@@3P6AJXZA
_BSS	SEGMENT
?_pPerfUnRegFunc@ATL@@3P6AJXZA DD 01H DUP (?)		; ATL::_pPerfUnRegFunc
_BSS	ENDS
;	COMDAT ?_AtlRegisterPerUser@ATL@@3_NA
_BSS	SEGMENT
?_AtlRegisterPerUser@ATL@@3_NA DB 01H DUP (?)		; ATL::_AtlRegisterPerUser
_BSS	ENDS
;	COMDAT ?_pModule@ATL@@3PAVCComModule@1@A
_BSS	SEGMENT
?_pModule@ATL@@3PAVCComModule@1@A DD 01H DUP (?)	; ATL::_pModule
_BSS	ENDS
;	COMDAT _IID_IDocHostUIHandlerDispatch
CONST	SEGMENT
_IID_IDocHostUIHandlerDispatch DD 0425b5af0H
	DW	065f1H
	DW	011d1H
	DB	096H
	DB	011H
	DB	00H
	DB	00H
	DB	0f8H
	DB	01eH
	DB	0dH
	DB	0dH
CONST	ENDS
;	COMDAT ?szDelete@ATL@@3QB_WB
CONST	SEGMENT
?szDelete@ATL@@3QB_WB DD FLAT:$SG101163			; ATL::szDelete
CONST	ENDS
;	COMDAT ?szNoRemove@ATL@@3QB_WB
CONST	SEGMENT
?szNoRemove@ATL@@3QB_WB DD FLAT:$SG101161		; ATL::szNoRemove
CONST	ENDS
;	COMDAT ?szForceRemove@ATL@@3QB_WB
CONST	SEGMENT
?szForceRemove@ATL@@3QB_WB DD FLAT:$SG101159		; ATL::szForceRemove
CONST	ENDS
;	COMDAT ?szValToken@ATL@@3QB_WB
CONST	SEGMENT
?szValToken@ATL@@3QB_WB DD FLAT:$SG101157		; ATL::szValToken
CONST	ENDS
;	COMDAT ?szBinaryVal@ATL@@3QB_WB
CONST	SEGMENT
?szBinaryVal@ATL@@3QB_WB DD FLAT:$SG101155		; ATL::szBinaryVal
CONST	ENDS
;	COMDAT ?szDwordVal@ATL@@3QB_WB
CONST	SEGMENT
?szDwordVal@ATL@@3QB_WB DD FLAT:$SG101153		; ATL::szDwordVal
CONST	ENDS
;	COMDAT ?multiszStringVal@ATL@@3QB_WB
CONST	SEGMENT
?multiszStringVal@ATL@@3QB_WB DD FLAT:$SG101151		; ATL::multiszStringVal
CONST	ENDS
;	COMDAT ?szStringVal@ATL@@3QB_WB
CONST	SEGMENT
?szStringVal@ATL@@3QB_WB DD FLAT:$SG101149		; ATL::szStringVal
CONST	ENDS
;	COMDAT ?chEquals@ATL@@3_WB
CONST	SEGMENT
?chEquals@ATL@@3_WB DW 03dH				; ATL::chEquals
CONST	ENDS
;	COMDAT ?chQuote@ATL@@3_WB
CONST	SEGMENT
?chQuote@ATL@@3_WB DW 027H				; ATL::chQuote
CONST	ENDS
;	COMDAT ?chLeftBracket@ATL@@3_WB
CONST	SEGMENT
?chLeftBracket@ATL@@3_WB DW 07bH			; ATL::chLeftBracket
CONST	ENDS
;	COMDAT ?chRightBracket@ATL@@3_WB
CONST	SEGMENT
?chRightBracket@ATL@@3_WB DW 07dH			; ATL::chRightBracket
CONST	ENDS
;	COMDAT ?chDirSep@ATL@@3_WB
CONST	SEGMENT
?chDirSep@ATL@@3_WB DW 05cH				; ATL::chDirSep
CONST	ENDS
;	COMDAT _IID_IRegistrar
CONST	SEGMENT
_IID_IRegistrar DD 044ec053bH
	DW	0400fH
	DW	011d0H
	DB	09dH
	DB	0cdH
	DB	00H
	DB	0a0H
	DB	0c9H
	DB	03H
	DB	091H
	DB	0d3H
CONST	ENDS
;	COMDAT _CLSID_Registrar
CONST	SEGMENT
_CLSID_Registrar DD 044ec053aH
	DW	0400fH
	DW	011d0H
	DB	09dH
	DB	0cdH
	DB	00H
	DB	0a0H
	DB	0c9H
	DB	03H
	DB	091H
	DB	0d3H
CONST	ENDS
;	COMDAT ___pobjMapEntryLast
ATL$__z	SEGMENT
___pobjMapEntryLast DD 00H
ATL$__z	ENDS
;	COMDAT ___pobjMapEntryFirst
ATL$__a	SEGMENT
___pobjMapEntryFirst DD 00H
ATL$__a	ENDS
;	COMDAT _IID_IInternalConnection
CONST	SEGMENT
_IID_IInternalConnection DD 072ad0770H
	DW	06a9fH
	DW	011d1H
	DB	0bcH
	DB	0ecH
	DB	00H
	DB	060H
	DB	08H
	DB	08fH
	DB	044H
	DB	04eH
CONST	ENDS
;	COMDAT _IID_IAxWinAmbientDispatchEx
CONST	SEGMENT
_IID_IAxWinAmbientDispatchEx DD 0b2d0778bH
	DW	0ac99H
	DW	04c58H
	DB	0a5H
	DB	0c8H
	DB	0e7H
	DB	072H
	DB	04eH
	DB	053H
	DB	016H
	DB	0b5H
CONST	ENDS
;	COMDAT _LIBID_ATLLib
CONST	SEGMENT
_LIBID_ATLLib DD 044ec0535H
	DW	0400fH
	DW	011d0H
	DB	09dH
	DB	0cdH
	DB	00H
	DB	0a0H
	DB	0c9H
	DB	03H
	DB	091H
	DB	0d3H
CONST	ENDS
;	COMDAT _IID_IAxWinAmbientDispatch
CONST	SEGMENT
_IID_IAxWinAmbientDispatch DD 0b6ea2051H
	DW	048aH
	DW	011d1H
	DB	082H
	DB	0b9H
	DB	00H
	DB	0c0H
	DB	04fH
	DB	0b9H
	DB	094H
	DB	02eH
CONST	ENDS
;	COMDAT _IID_IAxWinHostWindowLic
CONST	SEGMENT
_IID_IAxWinHostWindowLic DD 03935bda8H
	DW	04ed9H
	DW	0495cH
	DB	086H
	DB	050H
	DB	0e0H
	DB	01fH
	DB	0c1H
	DB	0e3H
	DB	08aH
	DB	04bH
CONST	ENDS
CONST	SEGMENT
$SG151587 DB	00H, 00H
	ORG $+2
$SG91177 DB	'a', 00H, 't', 00H, 'l', 00H, 'T', 00H, 'r', 00H, 'a', 00H
	DB	'c', 00H, 'e', 00H, 'T', 00H, 'i', 00H, 'm', 00H, 'e', 00H, 00H
	DB	00H
	ORG $+2
$SG151594 DB	'[', 00H, ' ', 00H, 'S', 00H, 'p', 00H, 'e', 00H, 'c', 00H
	DB	'i', 00H, 'a', 00H, 'l', 00H, 'K', 00H, ' ', 00H, ']', 00H, ' '
	DB	00H, ' ', 00H, '*', 00H, ' ', 00H, 'L', 00H, 'o', 00H, 'a', 00H
	DB	'd', 00H, 'i', 00H, 'n', 00H, 'g', 00H, ' ', 00H, 'L', 00H, 'a'
	DB	00H, 'z', 00H, 'y', 00H, ' ', 00H, 'C', 00H, 'u', 00H, 's', 00H
	DB	't', 00H, 'o', 00H, 'm', 00H, ' ', 00H, 'I', 00H, 'm', 00H, 'p'
	DB	00H, 'o', 00H, 'r', 00H, 't', 00H, ' ', 00H, '%', 00H, 's', 00H
	DB	'.', 00H, '.', 00H, '.', 00H, ' ', 00H, 00H, 00H
$SG151600 DB	's', 00H, 'u', 00H, 'c', 00H, 'c', 00H, 'e', 00H, 's', 00H
	DB	's', 00H, '!', 00H, 0aH, 00H, 00H, 00H
$SG151601 DB	'f', 00H, 'a', 00H, 'i', 00H, 'l', 00H, 'e', 00H, 'd', 00H
	DB	':', 00H, ' ', 00H, '0', 00H, 'x', 00H, '%', 00H, '0', 00H, '4'
	DB	00H, 'X', 00H, ' ', 00H, '(', 00H, '%', 00H, 's', 00H, ')', 00H
	DB	'!', 00H, 0aH, 00H, 00H, 00H
$SG151628 DB	'SKPlugIn_Shutdown', 00H
	ORG $+2
$SG151602 DB	'f', 00H, 'a', 00H, 'i', 00H, 'l', 00H, 'e', 00H, 'd', 00H
	DB	':', 00H, ' ', 00H, 'H', 00H, 'o', 00H, 's', 00H, 't', 00H, ' '
	DB	00H, 'A', 00H, 'p', 00H, 'p', 00H, ' ', 00H, 'i', 00H, 's', 00H
	DB	' ', 00H, 'B', 00H, 'l', 00H, 'a', 00H, 'c', 00H, 'k', 00H, 'l'
	DB	00H, 'i', 00H, 's', 00H, 't', 00H, 'e', 00H, 'd', 00H, '!', 00H
	DB	0aH, 00H, 00H, 00H
$SG151636 DB	'f', 00H, 'a', 00H, 'i', 00H, 'l', 00H, 'e', 00H, 'd', 00H
	DB	':', 00H, ' ', 00H, '0', 00H, 'x', 00H, '%', 00H, '0', 00H, '4'
	DB	00H, 'X', 00H, ' ', 00H, '(', 00H, '%', 00H, 's', 00H, ')', 00H
	DB	'!', 00H, 0aH, 00H, 00H, 00H
$SG151630 DB	'[', 00H, ' ', 00H, 'S', 00H, 'p', 00H, 'e', 00H, 'c', 00H
	DB	'i', 00H, 'a', 00H, 'l', 00H, 'K', 00H, ' ', 00H, ']', 00H, ' '
	DB	00H, 'U', 00H, 'n', 00H, 'l', 00H, 'o', 00H, 'a', 00H, 'd', 00H
	DB	'i', 00H, 'n', 00H, 'g', 00H, ' ', 00H, 'C', 00H, 'u', 00H, 's'
	DB	00H, 't', 00H, 'o', 00H, 'm', 00H, ' ', 00H, 'I', 00H, 'm', 00H
	DB	'p', 00H, 'o', 00H, 'r', 00H, 't', 00H, ' ', 00H, '%', 00H, 's'
	DB	00H, '.', 00H, '.', 00H, '.', 00H, 00H, 00H
	ORG $+2
$SG151635 DB	'-', 00H, '-', 00H, '-', 00H, '-', 00H, '-', 00H, '-', 00H
	DB	'-', 00H, '-', 00H, '-', 00H, '-', 00H, '-', 00H, '-', 00H, '-'
	DB	00H, '-', 00H, '-', 00H, '-', 00H, '-', 00H, '-', 00H, '-', 00H
	DB	'-', 00H, '-', 00H, '-', 00H, '-', 00H, '-', 00H, '-', 00H, '['
	DB	00H, ' ', 00H, 'F', 00H, 'r', 00H, 'e', 00H, 'e', 00H, ' ', 00H
	DB	'L', 00H, 'i', 00H, 'b', 00H, ' ', 00H, ']', 00H, ' ', 00H, ' '
	DB	00H, ' ', 00H, ' ', 00H, ' ', 00H, ' ', 00H, ' ', 00H, ' ', 00H
	DB	' ', 00H, ' ', 00H, ' ', 00H, ' ', 00H, ' ', 00H, ' ', 00H, ' '
	DB	00H, ' ', 00H, ' ', 00H, ' ', 00H, ' ', 00H, ' ', 00H, ' ', 00H
	DB	' ', 00H, ' ', 00H, ' ', 00H, ' ', 00H, ' ', 00H, ' ', 00H, ' '
	DB	00H, ' ', 00H, ' ', 00H, ' ', 00H, ' ', 00H, ' ', 00H, ' ', 00H
	DB	' ', 00H, ' ', 00H, ' ', 00H, ' ', 00H, ' ', 00H, ' ', 00H, ' '
	DB	00H, ' ', 00H, ' ', 00H, 's', 00H, 'u', 00H, 'c', 00H, 'c', 00H
	DB	'e', 00H, 's', 00H, 's', 00H, '!', 00H, ' ', 00H, '(', 00H, '%'
	DB	00H, '4', 00H, 'u', 00H, ' ', 00H, 'm', 00H, 's', 00H, ')', 00H
	DB	0aH, 00H, 00H, 00H
	ORG $+2
$SG91224 DB	'a', 00H, 't', 00H, 'l', 00H, 'T', 00H, 'r', 00H, 'a', 00H
	DB	'c', 00H, 'e', 00H, 'C', 00H, 'a', 00H, 'c', 00H, 'h', 00H, 'e'
	DB	00H, 00H, 00H
$SG91271 DB	'a', 00H, 't', 00H, 'l', 00H, 'T', 00H, 'r', 00H, 'a', 00H
	DB	'c', 00H, 'e', 00H, 'S', 00H, 't', 00H, 'e', 00H, 'n', 00H, 'c'
	DB	00H, 'i', 00H, 'l', 00H, 00H, 00H
$SG91318 DB	'a', 00H, 't', 00H, 'l', 00H, 'T', 00H, 'r', 00H, 'a', 00H
	DB	'c', 00H, 'e', 00H, 'S', 00H, 't', 00H, 'r', 00H, 'i', 00H, 'n'
	DB	00H, 'g', 00H, 00H, 00H
	ORG $+2
$SG91365 DB	'a', 00H, 't', 00H, 'l', 00H, 'T', 00H, 'r', 00H, 'a', 00H
	DB	'c', 00H, 'e', 00H, 'M', 00H, 'a', 00H, 'p', 00H, 00H, 00H
$SG146664 DB	'E', 00H, 'a', 00H, 'r', 00H, 'l', 00H, 'y', 00H, 00H, 00H
$SG91370 DB	'a', 00H, 't', 00H, 'l', 00H, 'T', 00H, 'r', 00H, 'a', 00H
	DB	'c', 00H, 'e', 00H, 'U', 00H, 't', 00H, 'i', 00H, 'l', 00H, 00H
	DB	00H
	ORG $+2
$SG146672 DB	'P', 00H, 'l', 00H, 'u', 00H, 'g', 00H, 'I', 00H, 'n', 00H
	DB	00H, 00H
	ORG $+2
$SG146678 DB	'L', 00H, 'a', 00H, 't', 00H, 'e', 00H, 00H, 00H
	ORG $+2
$SG146684 DB	'L', 00H, 'a', 00H, 'z', 00H, 'y', 00H, 00H, 00H
	ORG $+2
$SG150786 DB	'SK_SHIM_GetReShade', 00H
	ORG $+1
$SG146692 DB	'P', 00H, 'r', 00H, 'o', 00H, 'x', 00H, 'y', 00H, 00H, 00H
$SG146698 DB	'd', 00H, 'x', 00H, 'g', 00H, 'i', 00H, 00H, 00H
	ORG $+2
$SG150796 DB	'[', 00H, ' ', 00H, 'S', 00H, 'p', 00H, 'e', 00H, 'c', 00H
	DB	'i', 00H, 'a', 00H, 'l', 00H, 'K', 00H, ' ', 00H, ']', 00H, ' '
	DB	00H, '[', 00H, '*', 00H, ']', 00H, ' ', 00H, 'I', 00H, 'n', 00H
	DB	'i', 00H, 't', 00H, 'i', 00H, 'a', 00H, 'l', 00H, 'i', 00H, 'z'
	DB	00H, 'i', 00H, 'n', 00H, 'g', 00H, ' ', 00H, 'P', 00H, 'l', 00H
	DB	'u', 00H, 'g', 00H, '-', 00H, 'I', 00H, 'n', 00H, ':', 00H, ' '
	DB	00H, '%', 00H, 's', 00H, '.', 00H, '.', 00H, '.', 00H, 00H, 00H
	ORG $+2
$SG150797 DB	'SKPlugIn_Init', 00H
	ORG $+2
$SG146704 DB	'd', 00H, '3', 00H, 'd', 00H, '1', 00H, '1', 00H, 00H, 00H
$SG150802 DB	'[', 00H, ' ', 00H, 'S', 00H, 'p', 00H, 'e', 00H, 'c', 00H
	DB	'i', 00H, 'a', 00H, 'l', 00H, 'K', 00H, ' ', 00H, ']', 00H, ' '
	DB	00H, '[', 00H, '*', 00H, ']', 00H, ' ', 00H, 'P', 00H, 'l', 00H
	DB	'u', 00H, 'g', 00H, '-', 00H, 'I', 00H, 'n', 00H, ' ', 00H, 'I'
	DB	00H, 'n', 00H, 'i', 00H, 't', 00H, ' ', 00H, 'S', 00H, 'u', 00H
	DB	'c', 00H, 'c', 00H, 'e', 00H, 's', 00H, 's', 00H, ' ', 00H, '('
	DB	00H, '%', 00H, 's', 00H, ')', 00H, '!', 00H, 00H, 00H
$SG150803 DB	'[', 00H, ' ', 00H, 'S', 00H, 'p', 00H, 'e', 00H, 'c', 00H
	DB	'i', 00H, 'a', 00H, 'l', 00H, 'K', 00H, ' ', 00H, ']', 00H, ' '
	DB	00H, '[', 00H, '*', 00H, ']', 00H, ' ', 00H, 'P', 00H, 'l', 00H
	DB	'u', 00H, 'g', 00H, '-', 00H, 'I', 00H, 'n', 00H, ' ', 00H, 'I'
	DB	00H, 'n', 00H, 'i', 00H, 't', 00H, ' ', 00H, 'F', 00H, 'a', 00H
	DB	'i', 00H, 'l', 00H, 'e', 00H, 'd', 00H, ' ', 00H, '(', 00H, 'P'
	DB	00H, 'l', 00H, 'u', 00H, 'g', 00H, '-', 00H, 'I', 00H, 'n', 00H
	DB	' ', 00H, 'r', 00H, 'e', 00H, 't', 00H, 'u', 00H, 'r', 00H, 'n'
	DB	00H, 'e', 00H, 'd', 00H, ' ', 00H, 'f', 00H, 'a', 00H, 'l', 00H
	DB	's', 00H, 'e', 00H, ')', 00H, '!', 00H, 00H, 00H
	ORG $+2
$SG150804 DB	'[', 00H, ' ', 00H, 'S', 00H, 'p', 00H, 'e', 00H, 'c', 00H
	DB	'i', 00H, 'a', 00H, 'l', 00H, 'K', 00H, ' ', 00H, ']', 00H, ' '
	DB	00H, '[', 00H, '*', 00H, ']', 00H, ' ', 00H, 'P', 00H, 'l', 00H
	DB	'u', 00H, 'g', 00H, '-', 00H, 'I', 00H, 'n', 00H, ' ', 00H, 'I'
	DB	00H, 'n', 00H, 'i', 00H, 't', 00H, ' ', 00H, 'F', 00H, 'a', 00H
	DB	'i', 00H, 'l', 00H, 'e', 00H, 'd', 00H, ' ', 00H, '(', 00H, 'L'
	DB	00H, 'a', 00H, 'c', 00H, 'k', 00H, 's', 00H, ' ', 00H, 'S', 00H
	DB	'p', 00H, 'e', 00H, 'c', 00H, 'i', 00H, 'a', 00H, 'l', 00H, 'K'
	DB	00H, ' ', 00H, 'P', 00H, 'l', 00H, 'u', 00H, 'g', 00H, 'I', 00H
	DB	'n', 00H, ' ', 00H, 'E', 00H, 'n', 00H, 't', 00H, 'r', 00H, 'y'
	DB	00H, ' ', 00H, 'P', 00H, 'o', 00H, 'i', 00H, 'n', 00H, 't', 00H
	DB	')', 00H, '!', 00H, 00H, 00H
$SG146712 DB	'd', 00H, '3', 00H, 'd', 00H, '9', 00H, 00H, 00H
	ORG $+2
$SG91417 DB	'a', 00H, 't', 00H, 'l', 00H, 'T', 00H, 'r', 00H, 'a', 00H
	DB	'c', 00H, 'e', 00H, 'S', 00H, 'e', 00H, 'c', 00H, 'u', 00H, 'r'
	DB	00H, 'i', 00H, 't', 00H, 'y', 00H, 00H, 00H
	ORG $+2
$SG146720 DB	'O', 00H, 'p', 00H, 'e', 00H, 'n', 00H, 'G', 00H, 'L', 00H
	DB	'3', 00H, '2', 00H, 00H, 00H
	ORG $+2
$SG146728 DB	'P', 00H, 'l', 00H, 'u', 00H, 'g', 00H, 'I', 00H, 'n', 00H
	DB	00H, 00H
	ORG $+2
$SG146736 DB	'T', 00H, 'h', 00H, 'i', 00H, 'r', 00H, 'd', 00H, 'P', 00H
	DB	'a', 00H, 'r', 00H, 't', 00H, 'y', 00H, 00H, 00H
	ORG $+2
$SG146742 DB	'x', 00H, '6', 00H, '4', 00H, 00H, 00H
$SG146748 DB	'W', 00H, 'i', 00H, 'n', 00H, '3', 00H, '2', 00H, 00H, 00H
$SG91464 DB	'a', 00H, 't', 00H, 'l', 00H, 'T', 00H, 'r', 00H, 'a', 00H
	DB	'c', 00H, 'e', 00H, 'S', 00H, 'y', 00H, 'n', 00H, 'c', 00H, 00H
	DB	00H
	ORG $+2
$SG146767 DB	00H, 00H
	ORG $+2
$SG146768 DB	00H, 00H
	ORG $+2
$SG91511 DB	'a', 00H, 't', 00H, 'l', 00H, 'T', 00H, 'r', 00H, 'a', 00H
	DB	'c', 00H, 'e', 00H, 'I', 00H, 'S', 00H, 'A', 00H, 'P', 00H, 'I'
	DB	00H, 00H, 00H
$SG90495 DB	'a', 00H, 't', 00H, 'l', 00H, 'T', 00H, 'r', 00H, 'a', 00H
	DB	'c', 00H, 'e', 00H, 'G', 00H, 'e', 00H, 'n', 00H, 'e', 00H, 'r'
	DB	00H, 'a', 00H, 'l', 00H, 00H, 00H
$SG90566 DB	'a', 00H, 't', 00H, 'l', 00H, 'T', 00H, 'r', 00H, 'a', 00H
	DB	'c', 00H, 'e', 00H, 'C', 00H, 'O', 00H, 'M', 00H, 00H, 00H
$SG101839 DB	'A', 00H, 'p', 00H, 'p', 00H, 'I', 00H, 'D', 00H, 00H, 00H
$SG101840 DB	'C', 00H, 'L', 00H, 'S', 00H, 'I', 00H, 'D', 00H, 00H, 00H
$SG101841 DB	'C', 00H, 'o', 00H, 'm', 00H, 'p', 00H, 'o', 00H, 'n', 00H
	DB	'e', 00H, 'n', 00H, 't', 00H, ' ', 00H, 'C', 00H, 'a', 00H, 't'
	DB	00H, 'e', 00H, 'g', 00H, 'o', 00H, 'r', 00H, 'i', 00H, 'e', 00H
	DB	's', 00H, 00H, 00H
	ORG $+2
$SG101842 DB	'F', 00H, 'i', 00H, 'l', 00H, 'e', 00H, 'T', 00H, 'y', 00H
	DB	'p', 00H, 'e', 00H, 00H, 00H
	ORG $+2
$SG101843 DB	'I', 00H, 'n', 00H, 't', 00H, 'e', 00H, 'r', 00H, 'f', 00H
	DB	'a', 00H, 'c', 00H, 'e', 00H, 00H, 00H
$SG101844 DB	'H', 00H, 'a', 00H, 'r', 00H, 'd', 00H, 'w', 00H, 'a', 00H
	DB	'r', 00H, 'e', 00H, 00H, 00H
	ORG $+2
$SG101845 DB	'M', 00H, 'i', 00H, 'm', 00H, 'e', 00H, 00H, 00H
	ORG $+2
$SG101846 DB	'S', 00H, 'A', 00H, 'M', 00H, 00H, 00H
$SG101847 DB	'S', 00H, 'E', 00H, 'C', 00H, 'U', 00H, 'R', 00H, 'I', 00H
	DB	'T', 00H, 'Y', 00H, 00H, 00H
	ORG $+2
$SG101848 DB	'S', 00H, 'Y', 00H, 'S', 00H, 'T', 00H, 'E', 00H, 'M', 00H
	DB	00H, 00H
	ORG $+2
$SG101849 DB	'S', 00H, 'o', 00H, 'f', 00H, 't', 00H, 'w', 00H, 'a', 00H
	DB	'r', 00H, 'e', 00H, 00H, 00H
	ORG $+2
$SG101850 DB	'T', 00H, 'y', 00H, 'p', 00H, 'e', 00H, 'L', 00H, 'i', 00H
	DB	'b', 00H, 00H, 00H
$SG90613 DB	'a', 00H, 't', 00H, 'l', 00H, 'T', 00H, 'r', 00H, 'a', 00H
	DB	'c', 00H, 'e', 00H, 'Q', 00H, 'I', 00H, 00H, 00H
	ORG $+2
$SG90660 DB	'a', 00H, 't', 00H, 'l', 00H, 'T', 00H, 'r', 00H, 'a', 00H
	DB	'c', 00H, 'e', 00H, 'R', 00H, 'e', 00H, 'g', 00H, 'i', 00H, 's'
	DB	00H, 't', 00H, 'r', 00H, 'a', 00H, 'r', 00H, 00H, 00H
$SG151087 DB	00H, 00H
	ORG $+2
$SG151094 DB	'[', 00H, ' ', 00H, 'S', 00H, 'p', 00H, 'e', 00H, 'c', 00H
	DB	'i', 00H, 'a', 00H, 'l', 00H, 'K', 00H, ' ', 00H, ']', 00H, ' '
	DB	00H, ' ', 00H, '*', 00H, ' ', 00H, 'L', 00H, 'o', 00H, 'a', 00H
	DB	'd', 00H, 'i', 00H, 'n', 00H, 'g', 00H, ' ', 00H, 'E', 00H, 'a'
	DB	00H, 'r', 00H, 'l', 00H, 'y', 00H, ' ', 00H, 'C', 00H, 'u', 00H
	DB	's', 00H, 't', 00H, 'o', 00H, 'm', 00H, ' ', 00H, 'I', 00H, 'm'
	DB	00H, 'p', 00H, 'o', 00H, 'r', 00H, 't', 00H, ' ', 00H, '%', 00H
	DB	's', 00H, '.', 00H, '.', 00H, '.', 00H, ' ', 00H, 00H, 00H
	ORG $+2
$SG151100 DB	's', 00H, 'u', 00H, 'c', 00H, 'c', 00H, 'e', 00H, 's', 00H
	DB	's', 00H, '!', 00H, 0aH, 00H, 00H, 00H
$SG151104 DB	'f', 00H, 'a', 00H, 'i', 00H, 'l', 00H, 'e', 00H, 'd', 00H
	DB	':', 00H, ' ', 00H, '0', 00H, 'x', 00H, '%', 00H, '0', 00H, '4'
	DB	00H, 'X', 00H, ' ', 00H, '(', 00H, '%', 00H, 's', 00H, ')', 00H
	DB	'!', 00H, 0aH, 00H, 00H, 00H
$SG151105 DB	'f', 00H, 'a', 00H, 'i', 00H, 'l', 00H, 'e', 00H, 'd', 00H
	DB	':', 00H, ' ', 00H, 'H', 00H, 'o', 00H, 's', 00H, 't', 00H, ' '
	DB	00H, 'A', 00H, 'p', 00H, 'p', 00H, ' ', 00H, 'i', 00H, 's', 00H
	DB	' ', 00H, 'B', 00H, 'l', 00H, 'a', 00H, 'c', 00H, 'k', 00H, 'l'
	DB	00H, 'i', 00H, 's', 00H, 't', 00H, 'e', 00H, 'd', 00H, '!', 00H
	DB	0aH, 00H, 00H, 00H
$SG90707 DB	'a', 00H, 't', 00H, 'l', 00H, 'T', 00H, 'r', 00H, 'a', 00H
	DB	'c', 00H, 'e', 00H, 'R', 00H, 'e', 00H, 'f', 00H, 'c', 00H, 'o'
	DB	00H, 'u', 00H, 'n', 00H, 't', 00H, 00H, 00H
	ORG $+2
$SG151164 DB	00H, 00H
	ORG $+2
$SG90754 DB	'a', 00H, 't', 00H, 'l', 00H, 'T', 00H, 'r', 00H, 'a', 00H
	DB	'c', 00H, 'e', 00H, 'W', 00H, 'i', 00H, 'n', 00H, 'd', 00H, 'o'
	DB	00H, 'w', 00H, 'i', 00H, 'n', 00H, 'g', 00H, 00H, 00H
$SG151171 DB	'[', 00H, ' ', 00H, 'S', 00H, 'p', 00H, 'e', 00H, 'c', 00H
	DB	'i', 00H, 'a', 00H, 'l', 00H, 'K', 00H, ' ', 00H, ']', 00H, ' '
	DB	00H, ' ', 00H, '*', 00H, ' ', 00H, 'L', 00H, 'o', 00H, 'a', 00H
	DB	'd', 00H, 'i', 00H, 'n', 00H, 'g', 00H, ' ', 00H, 'S', 00H, 'p'
	DB	00H, 'e', 00H, 'c', 00H, 'i', 00H, 'a', 00H, 'l', 00H, ' ', 00H
	DB	'K', 00H, ' ', 00H, 'P', 00H, 'l', 00H, 'u', 00H, 'g', 00H, '-'
	DB	00H, 'I', 00H, 'n', 00H, ' ', 00H, '%', 00H, 's', 00H, '.', 00H
	DB	'.', 00H, '.', 00H, ' ', 00H, 00H, 00H
	ORG $+2
$SG151177 DB	's', 00H, 'u', 00H, 'c', 00H, 'c', 00H, 'e', 00H, 's', 00H
	DB	's', 00H, '!', 00H, 0aH, 00H, 00H, 00H
$SG151181 DB	'[', 00H, ' ', 00H, 'S', 00H, 'p', 00H, 'e', 00H, 'c', 00H
	DB	'i', 00H, 'a', 00H, 'l', 00H, 'K', 00H, ' ', 00H, ']', 00H, ' '
	DB	00H, '[', 00H, '*', 00H, ']', 00H, ' ', 00H, 'F', 00H, 'a', 00H
	DB	'i', 00H, 'l', 00H, 'e', 00H, 'd', 00H, ':', 00H, ' ', 00H, '0'
	DB	00H, 'x', 00H, '%', 00H, '0', 00H, '4', 00H, 'X', 00H, ' ', 00H
	DB	'(', 00H, '%', 00H, 's', 00H, ')', 00H, '!', 00H, 00H, 00H
$SG90801 DB	'a', 00H, 't', 00H, 'l', 00H, 'T', 00H, 'r', 00H, 'a', 00H
	DB	'c', 00H, 'e', 00H, 'C', 00H, 'o', 00H, 'n', 00H, 't', 00H, 'r'
	DB	00H, 'o', 00H, 'l', 00H, 's', 00H, 00H, 00H
	ORG $+2
$SG151182 DB	'[', 00H, ' ', 00H, 'S', 00H, 'p', 00H, 'e', 00H, 'c', 00H
	DB	'i', 00H, 'a', 00H, 'l', 00H, 'K', 00H, ' ', 00H, ']', 00H, ' '
	DB	00H, '[', 00H, '*', 00H, ']', 00H, ' ', 00H, 'F', 00H, 'a', 00H
	DB	'i', 00H, 'l', 00H, 'e', 00H, 'd', 00H, ':', 00H, ' ', 00H, 'H'
	DB	00H, 'o', 00H, 's', 00H, 't', 00H, ' ', 00H, 'A', 00H, 'p', 00H
	DB	'p', 00H, ' ', 00H, 'i', 00H, 's', 00H, ' ', 00H, 'B', 00H, 'l'
	DB	00H, 'a', 00H, 'c', 00H, 'k', 00H, 'l', 00H, 'i', 00H, 's', 00H
	DB	't', 00H, 'e', 00H, 'd', 00H, '!', 00H, 00H, 00H
$SG151230 DB	00H, 00H
	ORG $+2
$SG151237 DB	'[', 00H, ' ', 00H, 'S', 00H, 'p', 00H, 'e', 00H, 'c', 00H
	DB	'i', 00H, 'a', 00H, 'l', 00H, 'K', 00H, ' ', 00H, ']', 00H, ' '
	DB	00H, ' ', 00H, '*', 00H, ' ', 00H, 'L', 00H, 'o', 00H, 'a', 00H
	DB	'd', 00H, 'i', 00H, 'n', 00H, 'g', 00H, ' ', 00H, 'L', 00H, 'a'
	DB	00H, 't', 00H, 'e', 00H, ' ', 00H, 'C', 00H, 'u', 00H, 's', 00H
	DB	't', 00H, 'o', 00H, 'm', 00H, ' ', 00H, 'I', 00H, 'm', 00H, 'p'
	DB	00H, 'o', 00H, 'r', 00H, 't', 00H, ' ', 00H, '%', 00H, 's', 00H
	DB	'.', 00H, '.', 00H, '.', 00H, ' ', 00H, 00H, 00H
$SG151243 DB	's', 00H, 'u', 00H, 'c', 00H, 'c', 00H, 'e', 00H, 's', 00H
	DB	's', 00H, '!', 00H, 0aH, 00H, 00H, 00H
$SG151244 DB	'f', 00H, 'a', 00H, 'i', 00H, 'l', 00H, 'e', 00H, 'd', 00H
	DB	':', 00H, ' ', 00H, '0', 00H, 'x', 00H, '%', 00H, '0', 00H, '4'
	DB	00H, 'X', 00H, ' ', 00H, '(', 00H, '%', 00H, 's', 00H, ')', 00H
	DB	'!', 00H, 0aH, 00H, 00H, 00H
$SG151293 DB	00H, 00H
	ORG $+2
$SG151245 DB	'f', 00H, 'a', 00H, 'i', 00H, 'l', 00H, 'e', 00H, 'd', 00H
	DB	':', 00H, ' ', 00H, 'H', 00H, 'o', 00H, 's', 00H, 't', 00H, ' '
	DB	00H, 'A', 00H, 'p', 00H, 'p', 00H, ' ', 00H, 'i', 00H, 's', 00H
	DB	' ', 00H, 'B', 00H, 'l', 00H, 'a', 00H, 'c', 00H, 'k', 00H, 'l'
	DB	00H, 'i', 00H, 's', 00H, 't', 00H, 'e', 00H, 'd', 00H, '!', 00H
	DB	0aH, 00H, 00H, 00H
$SG90848 DB	'a', 00H, 't', 00H, 'l', 00H, 'T', 00H, 'r', 00H, 'a', 00H
	DB	'c', 00H, 'e', 00H, 'H', 00H, 'o', 00H, 's', 00H, 't', 00H, 'i'
	DB	00H, 'n', 00H, 'g', 00H, 00H, 00H
$SG151306 DB	's', 00H, 'u', 00H, 'c', 00H, 'c', 00H, 'e', 00H, 's', 00H
	DB	's', 00H, '!', 00H, 0aH, 00H, 00H, 00H
$SG151300 DB	'[', 00H, ' ', 00H, 'S', 00H, 'p', 00H, 'e', 00H, 'c', 00H
	DB	'i', 00H, 'a', 00H, 'l', 00H, 'K', 00H, ' ', 00H, ']', 00H, ' '
	DB	00H, ' ', 00H, '*', 00H, ' ', 00H, 'L', 00H, 'o', 00H, 'a', 00H
	DB	'd', 00H, 'i', 00H, 'n', 00H, 'g', 00H, ' ', 00H, 'L', 00H, 'a'
	DB	00H, 'z', 00H, 'y', 00H, ' ', 00H, 'C', 00H, 'u', 00H, 's', 00H
	DB	't', 00H, 'o', 00H, 'm', 00H, ' ', 00H, 'I', 00H, 'm', 00H, 'p'
	DB	00H, 'o', 00H, 'r', 00H, 't', 00H, ' ', 00H, '%', 00H, 's', 00H
	DB	'.', 00H, '.', 00H, '.', 00H, ' ', 00H, 00H, 00H
$SG151307 DB	'f', 00H, 'a', 00H, 'i', 00H, 'l', 00H, 'e', 00H, 'd', 00H
	DB	':', 00H, ' ', 00H, '0', 00H, 'x', 00H, '%', 00H, '0', 00H, '4'
	DB	00H, 'X', 00H, ' ', 00H, '(', 00H, '%', 00H, 's', 00H, ')', 00H
	DB	'!', 00H, 0aH, 00H, 00H, 00H
$SG151308 DB	'f', 00H, 'a', 00H, 'i', 00H, 'l', 00H, 'e', 00H, 'd', 00H
	DB	':', 00H, ' ', 00H, 'H', 00H, 'o', 00H, 's', 00H, 't', 00H, ' '
	DB	00H, 'A', 00H, 'p', 00H, 'p', 00H, ' ', 00H, 'i', 00H, 's', 00H
	DB	' ', 00H, 'B', 00H, 'l', 00H, 'a', 00H, 'c', 00H, 'k', 00H, 'l'
	DB	00H, 'i', 00H, 's', 00H, 't', 00H, 'e', 00H, 'd', 00H, '!', 00H
	DB	0aH, 00H, 00H, 00H
$SG90895 DB	'a', 00H, 't', 00H, 'l', 00H, 'T', 00H, 'r', 00H, 'a', 00H
	DB	'c', 00H, 'e', 00H, 'D', 00H, 'B', 00H, 'C', 00H, 'l', 00H, 'i'
	DB	00H, 'e', 00H, 'n', 00H, 't', 00H, 00H, 00H
	ORG $+2
$SG151317 DB	'[', 00H, ' ', 00H, 'S', 00H, 'p', 00H, 'e', 00H, 'c', 00H
	DB	'i', 00H, 'a', 00H, 'l', 00H, 'K', 00H, ' ', 00H, ']', 00H, ' '
	DB	00H, '[', 00H, '*', 00H, ']', 00H, ' ', 00H, 'I', 00H, 'n', 00H
	DB	'i', 00H, 't', 00H, 'i', 00H, 'a', 00H, 'l', 00H, 'i', 00H, 'z'
	DB	00H, 'i', 00H, 'n', 00H, 'g', 00H, ' ', 00H, 'P', 00H, 'l', 00H
	DB	'u', 00H, 'g', 00H, '-', 00H, 'I', 00H, 'n', 00H, ':', 00H, ' '
	DB	00H, '%', 00H, 's', 00H, '.', 00H, '.', 00H, '.', 00H, 00H, 00H
	ORG $+2
$SG151318 DB	'SKPlugIn_Init', 00H
	ORG $+2
$SG101149 DB	'S', 00H, 00H, 00H
$SG151323 DB	'[', 00H, ' ', 00H, 'S', 00H, 'p', 00H, 'e', 00H, 'c', 00H
	DB	'i', 00H, 'a', 00H, 'l', 00H, 'K', 00H, ' ', 00H, ']', 00H, ' '
	DB	00H, '[', 00H, '*', 00H, ']', 00H, ' ', 00H, 'P', 00H, 'l', 00H
	DB	'u', 00H, 'g', 00H, '-', 00H, 'I', 00H, 'n', 00H, ' ', 00H, 'I'
	DB	00H, 'n', 00H, 'i', 00H, 't', 00H, ' ', 00H, 'S', 00H, 'u', 00H
	DB	'c', 00H, 'c', 00H, 'e', 00H, 's', 00H, 's', 00H, ' ', 00H, '('
	DB	00H, '%', 00H, 's', 00H, ')', 00H, '!', 00H, 00H, 00H
$SG151324 DB	'[', 00H, ' ', 00H, 'S', 00H, 'p', 00H, 'e', 00H, 'c', 00H
	DB	'i', 00H, 'a', 00H, 'l', 00H, 'K', 00H, ' ', 00H, ']', 00H, ' '
	DB	00H, '[', 00H, '*', 00H, ']', 00H, ' ', 00H, 'P', 00H, 'l', 00H
	DB	'u', 00H, 'g', 00H, '-', 00H, 'I', 00H, 'n', 00H, ' ', 00H, 'I'
	DB	00H, 'n', 00H, 'i', 00H, 't', 00H, ' ', 00H, 'F', 00H, 'a', 00H
	DB	'i', 00H, 'l', 00H, 'e', 00H, 'd', 00H, ' ', 00H, '(', 00H, 'P'
	DB	00H, 'l', 00H, 'u', 00H, 'g', 00H, '-', 00H, 'I', 00H, 'n', 00H
	DB	' ', 00H, 'r', 00H, 'e', 00H, 't', 00H, 'u', 00H, 'r', 00H, 'n'
	DB	00H, 'e', 00H, 'd', 00H, ' ', 00H, 'f', 00H, 'a', 00H, 'l', 00H
	DB	's', 00H, 'e', 00H, ')', 00H, '!', 00H, 00H, 00H
	ORG $+2
$SG151325 DB	'[', 00H, ' ', 00H, 'S', 00H, 'p', 00H, 'e', 00H, 'c', 00H
	DB	'i', 00H, 'a', 00H, 'l', 00H, 'K', 00H, ' ', 00H, ']', 00H, ' '
	DB	00H, '[', 00H, '*', 00H, ']', 00H, ' ', 00H, 'P', 00H, 'l', 00H
	DB	'u', 00H, 'g', 00H, '-', 00H, 'I', 00H, 'n', 00H, ' ', 00H, 'I'
	DB	00H, 'n', 00H, 'i', 00H, 't', 00H, ' ', 00H, 'F', 00H, 'a', 00H
	DB	'i', 00H, 'l', 00H, 'e', 00H, 'd', 00H, ' ', 00H, '(', 00H, 'L'
	DB	00H, 'a', 00H, 'c', 00H, 'k', 00H, 's', 00H, ' ', 00H, 'S', 00H
	DB	'p', 00H, 'e', 00H, 'c', 00H, 'i', 00H, 'a', 00H, 'l', 00H, 'K'
	DB	00H, ' ', 00H, 'P', 00H, 'l', 00H, 'u', 00H, 'g', 00H, 'I', 00H
	DB	'n', 00H, ' ', 00H, 'E', 00H, 'n', 00H, 't', 00H, 'r', 00H, 'y'
	DB	00H, ' ', 00H, 'P', 00H, 'o', 00H, 'i', 00H, 'n', 00H, 't', 00H
	DB	')', 00H, '!', 00H, 00H, 00H
$SG101151 DB	'M', 00H, 00H, 00H
$SG101153 DB	'D', 00H, 00H, 00H
$SG101155 DB	'B', 00H, 00H, 00H
$SG101157 DB	'V', 00H, 'a', 00H, 'l', 00H, 00H, 00H
$SG101159 DB	'F', 00H, 'o', 00H, 'r', 00H, 'c', 00H, 'e', 00H, 'R', 00H
	DB	'e', 00H, 'm', 00H, 'o', 00H, 'v', 00H, 'e', 00H, 00H, 00H
$SG101161 DB	'N', 00H, 'o', 00H, 'R', 00H, 'e', 00H, 'm', 00H, 'o', 00H
	DB	'v', 00H, 'e', 00H, 00H, 00H
	ORG $+2
$SG101163 DB	'D', 00H, 'e', 00H, 'l', 00H, 'e', 00H, 't', 00H, 'e', 00H
	DB	00H, 00H
	ORG $+2
$SG90942 DB	'a', 00H, 't', 00H, 'l', 00H, 'T', 00H, 'r', 00H, 'a', 00H
	DB	'c', 00H, 'e', 00H, 'D', 00H, 'B', 00H, 'P', 00H, 'r', 00H, 'o'
	DB	00H, 'v', 00H, 'i', 00H, 'd', 00H, 'e', 00H, 'r', 00H, 00H, 00H
	ORG $+2
$SG151382 DB	00H, 00H
	ORG $+2
$SG151389 DB	'[', 00H, ' ', 00H, 'S', 00H, 'p', 00H, 'e', 00H, 'c', 00H
	DB	'i', 00H, 'a', 00H, 'l', 00H, 'K', 00H, ' ', 00H, ']', 00H, ' '
	DB	00H, ' ', 00H, '*', 00H, ' ', 00H, 'L', 00H, 'o', 00H, 'a', 00H
	DB	'd', 00H, 'i', 00H, 'n', 00H, 'g', 00H, ' ', 00H, 'E', 00H, 'a'
	DB	00H, 'r', 00H, 'l', 00H, 'y', 00H, ' ', 00H, 'C', 00H, 'u', 00H
	DB	's', 00H, 't', 00H, 'o', 00H, 'm', 00H, ' ', 00H, 'I', 00H, 'm'
	DB	00H, 'p', 00H, 'o', 00H, 'r', 00H, 't', 00H, ' ', 00H, '%', 00H
	DB	's', 00H, '.', 00H, '.', 00H, '.', 00H, ' ', 00H, 00H, 00H
	ORG $+2
$SG151395 DB	's', 00H, 'u', 00H, 'c', 00H, 'c', 00H, 'e', 00H, 's', 00H
	DB	's', 00H, '!', 00H, 0aH, 00H, 00H, 00H
$SG151399 DB	'f', 00H, 'a', 00H, 'i', 00H, 'l', 00H, 'e', 00H, 'd', 00H
	DB	':', 00H, ' ', 00H, '0', 00H, 'x', 00H, '%', 00H, '0', 00H, '4'
	DB	00H, 'X', 00H, ' ', 00H, '(', 00H, '%', 00H, 's', 00H, ')', 00H
	DB	'!', 00H, 0aH, 00H, 00H, 00H
$SG151400 DB	'f', 00H, 'a', 00H, 'i', 00H, 'l', 00H, 'e', 00H, 'd', 00H
	DB	':', 00H, ' ', 00H, 'H', 00H, 'o', 00H, 's', 00H, 't', 00H, ' '
	DB	00H, 'A', 00H, 'p', 00H, 'p', 00H, ' ', 00H, 'i', 00H, 's', 00H
	DB	' ', 00H, 'B', 00H, 'l', 00H, 'a', 00H, 'c', 00H, 'k', 00H, 'l'
	DB	00H, 'i', 00H, 's', 00H, 't', 00H, 'e', 00H, 'd', 00H, '!', 00H
	DB	0aH, 00H, 00H, 00H
$SG90989 DB	'a', 00H, 't', 00H, 'l', 00H, 'T', 00H, 'r', 00H, 'a', 00H
	DB	'c', 00H, 'e', 00H, 'S', 00H, 'n', 00H, 'a', 00H, 'p', 00H, 'i'
	DB	00H, 'n', 00H, 00H, 00H
	ORG $+2
$SG91036 DB	'a', 00H, 't', 00H, 'l', 00H, 'T', 00H, 'r', 00H, 'a', 00H
	DB	'c', 00H, 'e', 00H, 'N', 00H, 'o', 00H, 't', 00H, 'I', 00H, 'm'
	DB	00H, 'p', 00H, 'l', 00H, 00H, 00H
$SG151457 DB	00H, 00H
	ORG $+2
$SG151464 DB	'[', 00H, ' ', 00H, 'S', 00H, 'p', 00H, 'e', 00H, 'c', 00H
	DB	'i', 00H, 'a', 00H, 'l', 00H, 'K', 00H, ' ', 00H, ']', 00H, ' '
	DB	00H, ' ', 00H, '*', 00H, ' ', 00H, 'L', 00H, 'o', 00H, 'a', 00H
	DB	'd', 00H, 'i', 00H, 'n', 00H, 'g', 00H, ' ', 00H, 'S', 00H, 'p'
	DB	00H, 'e', 00H, 'c', 00H, 'i', 00H, 'a', 00H, 'l', 00H, ' ', 00H
	DB	'K', 00H, ' ', 00H, 'P', 00H, 'l', 00H, 'u', 00H, 'g', 00H, '-'
	DB	00H, 'I', 00H, 'n', 00H, ' ', 00H, '%', 00H, 's', 00H, '.', 00H
	DB	'.', 00H, '.', 00H, ' ', 00H, 00H, 00H
	ORG $+2
$SG151470 DB	's', 00H, 'u', 00H, 'c', 00H, 'c', 00H, 'e', 00H, 's', 00H
	DB	's', 00H, '!', 00H, 0aH, 00H, 00H, 00H
$SG151474 DB	'[', 00H, ' ', 00H, 'S', 00H, 'p', 00H, 'e', 00H, 'c', 00H
	DB	'i', 00H, 'a', 00H, 'l', 00H, 'K', 00H, ' ', 00H, ']', 00H, ' '
	DB	00H, '[', 00H, '*', 00H, ']', 00H, ' ', 00H, 'F', 00H, 'a', 00H
	DB	'i', 00H, 'l', 00H, 'e', 00H, 'd', 00H, ':', 00H, ' ', 00H, '0'
	DB	00H, 'x', 00H, '%', 00H, '0', 00H, '4', 00H, 'X', 00H, ' ', 00H
	DB	'(', 00H, '%', 00H, 's', 00H, ')', 00H, '!', 00H, 00H, 00H
$SG151523 DB	00H, 00H
	ORG $+2
$SG151475 DB	'[', 00H, ' ', 00H, 'S', 00H, 'p', 00H, 'e', 00H, 'c', 00H
	DB	'i', 00H, 'a', 00H, 'l', 00H, 'K', 00H, ' ', 00H, ']', 00H, ' '
	DB	00H, '[', 00H, '*', 00H, ']', 00H, ' ', 00H, 'F', 00H, 'a', 00H
	DB	'i', 00H, 'l', 00H, 'e', 00H, 'd', 00H, ':', 00H, ' ', 00H, 'H'
	DB	00H, 'o', 00H, 's', 00H, 't', 00H, ' ', 00H, 'A', 00H, 'p', 00H
	DB	'p', 00H, ' ', 00H, 'i', 00H, 's', 00H, ' ', 00H, 'B', 00H, 'l'
	DB	00H, 'a', 00H, 'c', 00H, 'k', 00H, 'l', 00H, 'i', 00H, 's', 00H
	DB	't', 00H, 'e', 00H, 'd', 00H, '!', 00H, 00H, 00H
$SG91083 DB	'a', 00H, 't', 00H, 'l', 00H, 'T', 00H, 'r', 00H, 'a', 00H
	DB	'c', 00H, 'e', 00H, 'A', 00H, 'l', 00H, 'l', 00H, 'o', 00H, 'c'
	DB	00H, 'a', 00H, 't', 00H, 'i', 00H, 'o', 00H, 'n', 00H, 00H, 00H
	ORG $+2
$SG151536 DB	's', 00H, 'u', 00H, 'c', 00H, 'c', 00H, 'e', 00H, 's', 00H
	DB	's', 00H, '!', 00H, 0aH, 00H, 00H, 00H
$SG151530 DB	'[', 00H, ' ', 00H, 'S', 00H, 'p', 00H, 'e', 00H, 'c', 00H
	DB	'i', 00H, 'a', 00H, 'l', 00H, 'K', 00H, ' ', 00H, ']', 00H, ' '
	DB	00H, ' ', 00H, '*', 00H, ' ', 00H, 'L', 00H, 'o', 00H, 'a', 00H
	DB	'd', 00H, 'i', 00H, 'n', 00H, 'g', 00H, ' ', 00H, 'L', 00H, 'a'
	DB	00H, 't', 00H, 'e', 00H, ' ', 00H, 'C', 00H, 'u', 00H, 's', 00H
	DB	't', 00H, 'o', 00H, 'm', 00H, ' ', 00H, 'I', 00H, 'm', 00H, 'p'
	DB	00H, 'o', 00H, 'r', 00H, 't', 00H, ' ', 00H, '%', 00H, 's', 00H
	DB	'.', 00H, '.', 00H, '.', 00H, ' ', 00H, 00H, 00H
$SG151537 DB	'f', 00H, 'a', 00H, 'i', 00H, 'l', 00H, 'e', 00H, 'd', 00H
	DB	':', 00H, ' ', 00H, '0', 00H, 'x', 00H, '%', 00H, '0', 00H, '4'
	DB	00H, 'X', 00H, ' ', 00H, '(', 00H, '%', 00H, 's', 00H, ')', 00H
	DB	'!', 00H, 0aH, 00H, 00H, 00H
$SG151538 DB	'f', 00H, 'a', 00H, 'i', 00H, 'l', 00H, 'e', 00H, 'd', 00H
	DB	':', 00H, ' ', 00H, 'H', 00H, 'o', 00H, 's', 00H, 't', 00H, ' '
	DB	00H, 'A', 00H, 'p', 00H, 'p', 00H, ' ', 00H, 'i', 00H, 's', 00H
	DB	' ', 00H, 'B', 00H, 'l', 00H, 'a', 00H, 'c', 00H, 'k', 00H, 'l'
	DB	00H, 'i', 00H, 's', 00H, 't', 00H, 'e', 00H, 'd', 00H, '!', 00H
	DB	0aH, 00H, 00H, 00H
$SG91130 DB	'a', 00H, 't', 00H, 'l', 00H, 'T', 00H, 'r', 00H, 'a', 00H
	DB	'c', 00H, 'e', 00H, 'E', 00H, 'x', 00H, 'c', 00H, 'e', 00H, 'p'
	DB	00H, 't', 00H, 'i', 00H, 'o', 00H, 'n', 00H, 00H, 00H
CONST	ENDS
;	COMDAT _IID_IAxWinHostWindow
CONST	SEGMENT
_IID_IAxWinHostWindow DD 0b6ea2050H
	DW	048aH
	DW	011d1H
	DB	082H
	DB	0b9H
	DB	00H
	DB	0c0H
	DB	04fH
	DB	0b9H
	DB	094H
	DB	02eH
CONST	ENDS
PUBLIC	_HRESULT_FROM_WIN32
PUBLIC	??0_com_error@@QAE@JPAUIErrorInfo@@_N@Z		; _com_error::_com_error
PUBLIC	??1_com_error@@UAE@XZ				; _com_error::~_com_error
PUBLIC	?WCode@_com_error@@QBEGXZ			; _com_error::WCode
PUBLIC	?ErrorMessage@_com_error@@QBEPB_WXZ		; _com_error::ErrorMessage
PUBLIC	?HRESULTToWCode@_com_error@@SAGJ@Z		; _com_error::HRESULTToWCode
PUBLIC	??_G_com_error@@UAEPAXI@Z			; _com_error::`scalar deleting destructor'
PUBLIC	??2@YAPAXIPAX@Z					; operator new
PUBLIC	_wmemcmp
PUBLIC	_wmemcpy
PUBLIC	_wmemmove
PUBLIC	?Free@CCRTAllocator@ATL@@SAXPAX@Z		; ATL::CCRTAllocator::Free
PUBLIC	??0?$CTraceCategoryEx@$0IAAAA@$0A@@ATL@@QAE@PB_W@Z ; ATL::CTraceCategoryEx<524288,0>::CTraceCategoryEx<524288,0>
PUBLIC	??0?$CTraceCategoryEx@$00$0A@@ATL@@QAE@PB_W@Z	; ATL::CTraceCategoryEx<1,0>::CTraceCategoryEx<1,0>
PUBLIC	??0?$CTraceCategoryEx@$01$0A@@ATL@@QAE@PB_W@Z	; ATL::CTraceCategoryEx<2,0>::CTraceCategoryEx<2,0>
PUBLIC	??0?$CTraceCategoryEx@$03$0A@@ATL@@QAE@PB_W@Z	; ATL::CTraceCategoryEx<4,0>::CTraceCategoryEx<4,0>
PUBLIC	??0?$CTraceCategoryEx@$07$0A@@ATL@@QAE@PB_W@Z	; ATL::CTraceCategoryEx<8,0>::CTraceCategoryEx<8,0>
PUBLIC	??0?$CTraceCategoryEx@$0BA@$0A@@ATL@@QAE@PB_W@Z	; ATL::CTraceCategoryEx<16,0>::CTraceCategoryEx<16,0>
PUBLIC	??0?$CTraceCategoryEx@$0CA@$0A@@ATL@@QAE@PB_W@Z	; ATL::CTraceCategoryEx<32,0>::CTraceCategoryEx<32,0>
PUBLIC	??0?$CTraceCategoryEx@$0EA@$0A@@ATL@@QAE@PB_W@Z	; ATL::CTraceCategoryEx<64,0>::CTraceCategoryEx<64,0>
PUBLIC	??0?$CTraceCategoryEx@$0IA@$0A@@ATL@@QAE@PB_W@Z	; ATL::CTraceCategoryEx<128,0>::CTraceCategoryEx<128,0>
PUBLIC	??0?$CTraceCategoryEx@$0BAA@$0A@@ATL@@QAE@PB_W@Z ; ATL::CTraceCategoryEx<256,0>::CTraceCategoryEx<256,0>
PUBLIC	??0?$CTraceCategoryEx@$0CAA@$0A@@ATL@@QAE@PB_W@Z ; ATL::CTraceCategoryEx<512,0>::CTraceCategoryEx<512,0>
PUBLIC	??0?$CTraceCategoryEx@$0EAA@$0A@@ATL@@QAE@PB_W@Z ; ATL::CTraceCategoryEx<1024,0>::CTraceCategoryEx<1024,0>
PUBLIC	??0?$CTraceCategoryEx@$0IAA@$0A@@ATL@@QAE@PB_W@Z ; ATL::CTraceCategoryEx<2048,0>::CTraceCategoryEx<2048,0>
PUBLIC	??0?$CTraceCategoryEx@$0BAAA@$0A@@ATL@@QAE@PB_W@Z ; ATL::CTraceCategoryEx<4096,0>::CTraceCategoryEx<4096,0>
PUBLIC	??0?$CTraceCategoryEx@$0CAAA@$0A@@ATL@@QAE@PB_W@Z ; ATL::CTraceCategoryEx<8192,0>::CTraceCategoryEx<8192,0>
PUBLIC	??0?$CTraceCategoryEx@$0EAAA@$0A@@ATL@@QAE@PB_W@Z ; ATL::CTraceCategoryEx<16384,0>::CTraceCategoryEx<16384,0>
PUBLIC	??0?$CTraceCategoryEx@$0IAAA@$0A@@ATL@@QAE@PB_W@Z ; ATL::CTraceCategoryEx<32768,0>::CTraceCategoryEx<32768,0>
PUBLIC	??0?$CTraceCategoryEx@$0BAAAA@$0A@@ATL@@QAE@PB_W@Z ; ATL::CTraceCategoryEx<65536,0>::CTraceCategoryEx<65536,0>
PUBLIC	??0?$CTraceCategoryEx@$0CAAAA@$0A@@ATL@@QAE@PB_W@Z ; ATL::CTraceCategoryEx<131072,0>::CTraceCategoryEx<131072,0>
PUBLIC	??0?$CTraceCategoryEx@$0EAAAA@$0A@@ATL@@QAE@PB_W@Z ; ATL::CTraceCategoryEx<262144,0>::CTraceCategoryEx<262144,0>
PUBLIC	??0?$CTraceCategoryEx@$0BAAAAA@$0A@@ATL@@QAE@PB_W@Z ; ATL::CTraceCategoryEx<1048576,0>::CTraceCategoryEx<1048576,0>
PUBLIC	??0?$CTraceCategoryEx@$0CAAAAA@$0A@@ATL@@QAE@PB_W@Z ; ATL::CTraceCategoryEx<2097152,0>::CTraceCategoryEx<2097152,0>
PUBLIC	??0?$CTraceCategoryEx@$0EAAAAA@$0A@@ATL@@QAE@PB_W@Z ; ATL::CTraceCategoryEx<4194304,0>::CTraceCategoryEx<4194304,0>
PUBLIC	?_AtlRaiseException@ATL@@YAXKK@Z		; ATL::_AtlRaiseException
PUBLIC	?_AtlInitializeCriticalSectionEx@ATL@@YAHPAU_RTL_CRITICAL_SECTION@@KK@Z ; ATL::_AtlInitializeCriticalSectionEx
PUBLIC	??0CComCriticalSection@ATL@@QAE@XZ		; ATL::CComCriticalSection::CComCriticalSection
PUBLIC	??1CComCriticalSection@ATL@@QAE@XZ		; ATL::CComCriticalSection::~CComCriticalSection
PUBLIC	?Init@CComCriticalSection@ATL@@QAEJXZ		; ATL::CComCriticalSection::Init
PUBLIC	?Term@CComCriticalSection@ATL@@QAEJXZ		; ATL::CComCriticalSection::Term
PUBLIC	?GetModuleInstance@CAtlBaseModule@ATL@@QAEPAUHINSTANCE__@@XZ ; ATL::CAtlBaseModule::GetModuleInstance
PUBLIC	??0_ATL_COM_MODULE70@ATL@@QAE@XZ		; ATL::_ATL_COM_MODULE70::_ATL_COM_MODULE70
PUBLIC	??1_ATL_COM_MODULE70@ATL@@QAE@XZ		; ATL::_ATL_COM_MODULE70::~_ATL_COM_MODULE70
PUBLIC	??0?$CSimpleArray@GV?$CSimpleArrayEqualHelper@G@ATL@@@ATL@@QAE@XZ ; ATL::CSimpleArray<unsigned short,ATL::CSimpleArrayEqualHelper<unsigned short> >::CSimpleArray<unsigned short,ATL::CSimpleArrayEqualHelper<unsigned short> >
PUBLIC	??1?$CSimpleArray@GV?$CSimpleArrayEqualHelper@G@ATL@@@ATL@@QAE@XZ ; ATL::CSimpleArray<unsigned short,ATL::CSimpleArrayEqualHelper<unsigned short> >::~CSimpleArray<unsigned short,ATL::CSimpleArrayEqualHelper<unsigned short> >
PUBLIC	?GetSize@?$CSimpleArray@GV?$CSimpleArrayEqualHelper@G@ATL@@@ATL@@QBEHXZ ; ATL::CSimpleArray<unsigned short,ATL::CSimpleArrayEqualHelper<unsigned short> >::GetSize
PUBLIC	?RemoveAll@?$CSimpleArray@GV?$CSimpleArrayEqualHelper@G@ATL@@@ATL@@QAEXXZ ; ATL::CSimpleArray<unsigned short,ATL::CSimpleArrayEqualHelper<unsigned short> >::RemoveAll
PUBLIC	??A?$CSimpleArray@GV?$CSimpleArrayEqualHelper@G@ATL@@@ATL@@QAEAAGH@Z ; ATL::CSimpleArray<unsigned short,ATL::CSimpleArrayEqualHelper<unsigned short> >::operator[]
PUBLIC	??0_ATL_WIN_MODULE70@ATL@@QAE@XZ		; ATL::_ATL_WIN_MODULE70::_ATL_WIN_MODULE70
PUBLIC	??1_ATL_WIN_MODULE70@ATL@@QAE@XZ		; ATL::_ATL_WIN_MODULE70::~_ATL_WIN_MODULE70
PUBLIC	?AtlWinModuleInit@ATL@@YGJPAU_ATL_WIN_MODULE70@1@@Z ; ATL::AtlWinModuleInit
PUBLIC	?AtlWinModuleTerm@ATL@@YGJPAU_ATL_WIN_MODULE70@1@PAUHINSTANCE__@@@Z ; ATL::AtlWinModuleTerm
PUBLIC	??0CAtlComModule@ATL@@QAE@XZ			; ATL::CAtlComModule::CAtlComModule
PUBLIC	??1CAtlComModule@ATL@@QAE@XZ			; ATL::CAtlComModule::~CAtlComModule
PUBLIC	?Term@CAtlComModule@ATL@@QAEXXZ			; ATL::CAtlComModule::Term
PUBLIC	??0CAtlWinModule@ATL@@QAE@XZ			; ATL::CAtlWinModule::CAtlWinModule
PUBLIC	??1CAtlWinModule@ATL@@QAE@XZ			; ATL::CAtlWinModule::~CAtlWinModule
PUBLIC	?Term@CAtlWinModule@ATL@@QAEXXZ			; ATL::CAtlWinModule::Term
PUBLIC	?compare@?$char_traits@_W@std@@SAHQB_W0I@Z	; std::char_traits<wchar_t>::compare
PUBLIC	?length@?$char_traits@_W@std@@SAIQB_W@Z		; std::char_traits<wchar_t>::length
PUBLIC	?copy@?$char_traits@_W@std@@SAPA_WQA_WQB_WI@Z	; std::char_traits<wchar_t>::copy
PUBLIC	?move@?$char_traits@_W@std@@SAPA_WQA_WQB_WI@Z	; std::char_traits<wchar_t>::move
PUBLIC	?assign@?$char_traits@_W@std@@SAXAA_WAB_W@Z	; std::char_traits<wchar_t>::assign
PUBLIC	?_Orphan_all@_Container_base0@std@@QAEXXZ	; std::_Container_base0::_Orphan_all
PUBLIC	?_Allocate@std@@YAPAXII_N@Z			; std::_Allocate
PUBLIC	?_Deallocate@std@@YAXPAXII@Z			; std::_Deallocate
PUBLIC	??0?$allocator@_W@std@@QAE@XZ			; std::allocator<wchar_t>::allocator<wchar_t>
PUBLIC	??0?$allocator@_W@std@@QAE@ABV01@@Z		; std::allocator<wchar_t>::allocator<wchar_t>
PUBLIC	?deallocate@?$allocator@_W@std@@QAEXPA_WI@Z	; std::allocator<wchar_t>::deallocate
PUBLIC	?allocate@?$allocator@_W@std@@QAEPA_WI@Z	; std::allocator<wchar_t>::allocate
PUBLIC	?max_size@?$allocator@_W@std@@QBEIXZ		; std::allocator<wchar_t>::max_size
PUBLIC	?max_size@?$allocator_traits@V?$allocator@_W@std@@@std@@SAIABV?$allocator@_W@2@@Z ; std::allocator_traits<std::allocator<wchar_t> >::max_size
PUBLIC	??0?$_Wrap_alloc@V?$allocator@_W@std@@@std@@QAE@XZ ; std::_Wrap_alloc<std::allocator<wchar_t> >::_Wrap_alloc<std::allocator<wchar_t> >
PUBLIC	??0?$_Wrap_alloc@V?$allocator@_W@std@@@std@@QAE@$$QAU01@@Z ; std::_Wrap_alloc<std::allocator<wchar_t> >::_Wrap_alloc<std::allocator<wchar_t> >
PUBLIC	??4?$_Wrap_alloc@V?$allocator@_W@std@@@std@@QAEAAU01@$$QAU01@@Z ; std::_Wrap_alloc<std::allocator<wchar_t> >::operator=
PUBLIC	?allocate@?$_Wrap_alloc@V?$allocator@_W@std@@@std@@QAEPA_WI@Z ; std::_Wrap_alloc<std::allocator<wchar_t> >::allocate
PUBLIC	?deallocate@?$_Wrap_alloc@V?$allocator@_W@std@@@std@@QAEXPA_WI@Z ; std::_Wrap_alloc<std::allocator<wchar_t> >::deallocate
PUBLIC	?max_size@?$_Wrap_alloc@V?$allocator@_W@std@@@std@@QBEIU_Nil@2@@Z ; std::_Wrap_alloc<std::allocator<wchar_t> >::max_size
PUBLIC	??0?$_String_val@U?$_Simple_types@_W@std@@@std@@QAE@XZ ; std::_String_val<std::_Simple_types<wchar_t> >::_String_val<std::_Simple_types<wchar_t> >
PUBLIC	?_Myptr@?$_String_val@U?$_Simple_types@_W@std@@@std@@QAEPA_WXZ ; std::_String_val<std::_Simple_types<wchar_t> >::_Myptr
PUBLIC	?_Myptr@?$_String_val@U?$_Simple_types@_W@std@@@std@@QBEPB_WXZ ; std::_String_val<std::_Simple_types<wchar_t> >::_Myptr
PUBLIC	?_Large_string_engaged@?$_String_val@U?$_Simple_types@_W@std@@@std@@QBE_NXZ ; std::_String_val<std::_Simple_types<wchar_t> >::_Large_string_engaged
PUBLIC	??0_Bxty@?$_String_val@U?$_Simple_types@_W@std@@@std@@QAE@XZ ; std::_String_val<std::_Simple_types<wchar_t> >::_Bxty::_Bxty
PUBLIC	??1_Bxty@?$_String_val@U?$_Simple_types@_W@std@@@std@@QAE@XZ ; std::_String_val<std::_Simple_types<wchar_t> >::_Bxty::~_Bxty
PUBLIC	??1?$_String_val@U?$_Simple_types@_W@std@@@std@@QAE@XZ ; std::_String_val<std::_Simple_types<wchar_t> >::~_String_val<std::_Simple_types<wchar_t> >
PUBLIC	?_Myptr@?$_String_alloc@U?$_String_base_types@_WV?$allocator@_W@std@@@std@@@std@@QAEPA_WXZ ; std::_String_alloc<std::_String_base_types<wchar_t,std::allocator<wchar_t> > >::_Myptr
PUBLIC	?_Myptr@?$_String_alloc@U?$_String_base_types@_WV?$allocator@_W@std@@@std@@@std@@QBEPB_WXZ ; std::_String_alloc<std::_String_base_types<wchar_t,std::allocator<wchar_t> > >::_Myptr
PUBLIC	??0?$_String_alloc@U?$_String_base_types@_WV?$allocator@_W@std@@@std@@@std@@QAE@XZ ; std::_String_alloc<std::_String_base_types<wchar_t,std::allocator<wchar_t> > >::_String_alloc<std::_String_base_types<wchar_t,std::allocator<wchar_t> > >
PUBLIC	?_Move_alloc@?$_String_alloc@U?$_String_base_types@_WV?$allocator@_W@std@@@std@@@std@@QAEXAAU?$_Wrap_alloc@V?$allocator@_W@std@@@2@@Z ; std::_String_alloc<std::_String_base_types<wchar_t,std::allocator<wchar_t> > >::_Move_alloc
PUBLIC	?_Orphan_all@?$_String_alloc@U?$_String_base_types@_WV?$allocator@_W@std@@@std@@@std@@QAEXXZ ; std::_String_alloc<std::_String_base_types<wchar_t,std::allocator<wchar_t> > >::_Orphan_all
PUBLIC	?_Getal@?$_String_alloc@U?$_String_base_types@_WV?$allocator@_W@std@@@std@@@std@@QAEAAU?$_Wrap_alloc@V?$allocator@_W@std@@@2@XZ ; std::_String_alloc<std::_String_base_types<wchar_t,std::allocator<wchar_t> > >::_Getal
PUBLIC	?_Getal@?$_String_alloc@U?$_String_base_types@_WV?$allocator@_W@std@@@std@@@std@@QBEABU?$_Wrap_alloc@V?$allocator@_W@std@@@2@XZ ; std::_String_alloc<std::_String_base_types<wchar_t,std::allocator<wchar_t> > >::_Getal
PUBLIC	?_Get_data@?$_String_alloc@U?$_String_base_types@_WV?$allocator@_W@std@@@std@@@std@@QAEAAV?$_String_val@U?$_Simple_types@_W@std@@@2@XZ ; std::_String_alloc<std::_String_base_types<wchar_t,std::allocator<wchar_t> > >::_Get_data
PUBLIC	?_Get_data@?$_String_alloc@U?$_String_base_types@_WV?$allocator@_W@std@@@std@@@std@@QBEABV?$_String_val@U?$_Simple_types@_W@std@@@2@XZ ; std::_String_alloc<std::_String_base_types<wchar_t,std::allocator<wchar_t> > >::_Get_data
PUBLIC	?_Mysize@?$_String_alloc@U?$_String_base_types@_WV?$allocator@_W@std@@@std@@@std@@QAEAAIXZ ; std::_String_alloc<std::_String_base_types<wchar_t,std::allocator<wchar_t> > >::_Mysize
PUBLIC	?_Mysize@?$_String_alloc@U?$_String_base_types@_WV?$allocator@_W@std@@@std@@@std@@QBEABIXZ ; std::_String_alloc<std::_String_base_types<wchar_t,std::allocator<wchar_t> > >::_Mysize
PUBLIC	?_Myres@?$_String_alloc@U?$_String_base_types@_WV?$allocator@_W@std@@@std@@@std@@QAEAAIXZ ; std::_String_alloc<std::_String_base_types<wchar_t,std::allocator<wchar_t> > >::_Myres
PUBLIC	?_Get_first@?$_Compressed_pair@U?$_Wrap_alloc@V?$allocator@_W@std@@@std@@V?$_String_val@U?$_Simple_types@_W@std@@@2@$00@std@@QAEAAU?$_Wrap_alloc@V?$allocator@_W@std@@@2@XZ ; std::_Compressed_pair<std::_Wrap_alloc<std::allocator<wchar_t> >,std::_String_val<std::_Simple_types<wchar_t> >,1>::_Get_first
PUBLIC	?_Get_first@?$_Compressed_pair@U?$_Wrap_alloc@V?$allocator@_W@std@@@std@@V?$_String_val@U?$_Simple_types@_W@std@@@2@$00@std@@QBEABU?$_Wrap_alloc@V?$allocator@_W@std@@@2@XZ ; std::_Compressed_pair<std::_Wrap_alloc<std::allocator<wchar_t> >,std::_String_val<std::_Simple_types<wchar_t> >,1>::_Get_first
PUBLIC	?_Get_second@?$_Compressed_pair@U?$_Wrap_alloc@V?$allocator@_W@std@@@std@@V?$_String_val@U?$_Simple_types@_W@std@@@2@$00@std@@QAEAAV?$_String_val@U?$_Simple_types@_W@std@@@2@XZ ; std::_Compressed_pair<std::_Wrap_alloc<std::allocator<wchar_t> >,std::_String_val<std::_Simple_types<wchar_t> >,1>::_Get_second
PUBLIC	?_Get_second@?$_Compressed_pair@U?$_Wrap_alloc@V?$allocator@_W@std@@@std@@V?$_String_val@U?$_Simple_types@_W@std@@@2@$00@std@@QBEABV?$_String_val@U?$_Simple_types@_W@std@@@2@XZ ; std::_Compressed_pair<std::_Wrap_alloc<std::allocator<wchar_t> >,std::_String_val<std::_Simple_types<wchar_t> >,1>::_Get_second
PUBLIC	??1?$_Compressed_pair@U?$_Wrap_alloc@V?$allocator@_W@std@@@std@@V?$_String_val@U?$_Simple_types@_W@std@@@2@$00@std@@QAE@XZ ; std::_Compressed_pair<std::_Wrap_alloc<std::allocator<wchar_t> >,std::_String_val<std::_Simple_types<wchar_t> >,1>::~_Compressed_pair<std::_Wrap_alloc<std::allocator<wchar_t> >,std::_String_val<std::_Simple_types<wchar_t> >,1>
PUBLIC	??1?$_String_alloc@U?$_String_base_types@_WV?$allocator@_W@std@@@std@@@std@@QAE@XZ ; std::_String_alloc<std::_String_base_types<wchar_t,std::allocator<wchar_t> > >::~_String_alloc<std::_String_base_types<wchar_t,std::allocator<wchar_t> > >
PUBLIC	??0?$basic_string@_WU?$char_traits@_W@std@@V?$allocator@_W@2@@std@@QAE@QB_W@Z ; std::basic_string<wchar_t,std::char_traits<wchar_t>,std::allocator<wchar_t> >::basic_string<wchar_t,std::char_traits<wchar_t>,std::allocator<wchar_t> >
PUBLIC	??0?$basic_string@_WU?$char_traits@_W@std@@V?$allocator@_W@2@@std@@QAE@$$QAV01@@Z ; std::basic_string<wchar_t,std::char_traits<wchar_t>,std::allocator<wchar_t> >::basic_string<wchar_t,std::char_traits<wchar_t>,std::allocator<wchar_t> >
PUBLIC	??4?$basic_string@_WU?$char_traits@_W@std@@V?$allocator@_W@2@@std@@QAEAAV01@$$QAV01@@Z ; std::basic_string<wchar_t,std::char_traits<wchar_t>,std::allocator<wchar_t> >::operator=
PUBLIC	?_Assign_rv_contents@?$basic_string@_WU?$char_traits@_W@std@@V?$allocator@_W@2@@std@@QAEX$$QAV12@U?$integral_constant@_N$00@2@@Z ; std::basic_string<wchar_t,std::char_traits<wchar_t>,std::allocator<wchar_t> >::_Assign_rv_contents
PUBLIC	?_Assign_rv_contents_with_alloc_always_equal@?$basic_string@_WU?$char_traits@_W@std@@V?$allocator@_W@2@@std@@QAEX$$QAV12@U?$integral_constant@_N$00@2@@Z ; std::basic_string<wchar_t,std::char_traits<wchar_t>,std::allocator<wchar_t> >::_Assign_rv_contents_with_alloc_always_equal
PUBLIC	??1?$basic_string@_WU?$char_traits@_W@std@@V?$allocator@_W@2@@std@@QAE@XZ ; std::basic_string<wchar_t,std::char_traits<wchar_t>,std::allocator<wchar_t> >::~basic_string<wchar_t,std::char_traits<wchar_t>,std::allocator<wchar_t> >
PUBLIC	?assign@?$basic_string@_WU?$char_traits@_W@std@@V?$allocator@_W@2@@std@@QAEAAV12@ABV12@II@Z ; std::basic_string<wchar_t,std::char_traits<wchar_t>,std::allocator<wchar_t> >::assign
PUBLIC	?assign@?$basic_string@_WU?$char_traits@_W@std@@V?$allocator@_W@2@@std@@QAEAAV12@QB_WI@Z ; std::basic_string<wchar_t,std::char_traits<wchar_t>,std::allocator<wchar_t> >::assign
PUBLIC	?assign@?$basic_string@_WU?$char_traits@_W@std@@V?$allocator@_W@2@@std@@QAEAAV12@QB_W@Z ; std::basic_string<wchar_t,std::char_traits<wchar_t>,std::allocator<wchar_t> >::assign
PUBLIC	?erase@?$basic_string@_WU?$char_traits@_W@std@@V?$allocator@_W@2@@std@@QAEAAV12@I@Z ; std::basic_string<wchar_t,std::char_traits<wchar_t>,std::allocator<wchar_t> >::erase
PUBLIC	?erase@?$basic_string@_WU?$char_traits@_W@std@@V?$allocator@_W@2@@std@@QAEAAV12@II@Z ; std::basic_string<wchar_t,std::char_traits<wchar_t>,std::allocator<wchar_t> >::erase
PUBLIC	?c_str@?$basic_string@_WU?$char_traits@_W@std@@V?$allocator@_W@2@@std@@QBEPB_WXZ ; std::basic_string<wchar_t,std::char_traits<wchar_t>,std::allocator<wchar_t> >::c_str
PUBLIC	?max_size@?$basic_string@_WU?$char_traits@_W@std@@V?$allocator@_W@2@@std@@QBEIXZ ; std::basic_string<wchar_t,std::char_traits<wchar_t>,std::allocator<wchar_t> >::max_size
PUBLIC	?_Clamp_suffix_size@?$basic_string@_WU?$char_traits@_W@std@@V?$allocator@_W@2@@std@@QBEIII@Z ; std::basic_string<wchar_t,std::char_traits<wchar_t>,std::allocator<wchar_t> >::_Clamp_suffix_size
PUBLIC	?_Equal@?$basic_string@_WU?$char_traits@_W@std@@V?$allocator@_W@2@@std@@QBE_NABV12@@Z ; std::basic_string<wchar_t,std::char_traits<wchar_t>,std::allocator<wchar_t> >::_Equal
PUBLIC	?_Copy@?$basic_string@_WU?$char_traits@_W@std@@V?$allocator@_W@2@@std@@QAEXI@Z ; std::basic_string<wchar_t,std::char_traits<wchar_t>,std::allocator<wchar_t> >::_Copy
PUBLIC	?_Eos@?$basic_string@_WU?$char_traits@_W@std@@V?$allocator@_W@2@@std@@QAEXI@Z ; std::basic_string<wchar_t,std::char_traits<wchar_t>,std::allocator<wchar_t> >::_Eos
PUBLIC	?_Grow@?$basic_string@_WU?$char_traits@_W@std@@V?$allocator@_W@2@@std@@QAE_NI@Z ; std::basic_string<wchar_t,std::char_traits<wchar_t>,std::allocator<wchar_t> >::_Grow
PUBLIC	?_Inside@?$basic_string@_WU?$char_traits@_W@std@@V?$allocator@_W@2@@std@@QBE_NQB_W@Z ; std::basic_string<wchar_t,std::char_traits<wchar_t>,std::allocator<wchar_t> >::_Inside
PUBLIC	?_Tidy_init@?$basic_string@_WU?$char_traits@_W@std@@V?$allocator@_W@2@@std@@QAEXXZ ; std::basic_string<wchar_t,std::char_traits<wchar_t>,std::allocator<wchar_t> >::_Tidy_init
PUBLIC	?_Tidy_deallocate@?$basic_string@_WU?$char_traits@_W@std@@V?$allocator@_W@2@@std@@QAEXXZ ; std::basic_string<wchar_t,std::char_traits<wchar_t>,std::allocator<wchar_t> >::_Tidy_deallocate
PUBLIC	?_Xlen@?$basic_string@_WU?$char_traits@_W@std@@V?$allocator@_W@2@@std@@SAXXZ ; std::basic_string<wchar_t,std::char_traits<wchar_t>,std::allocator<wchar_t> >::_Xlen
PUBLIC	?_Check_offset@?$basic_string@_WU?$char_traits@_W@std@@V?$allocator@_W@2@@std@@QBEXI@Z ; std::basic_string<wchar_t,std::char_traits<wchar_t>,std::allocator<wchar_t> >::_Check_offset
PUBLIC	?_Xran@?$basic_string@_WU?$char_traits@_W@std@@V?$allocator@_W@2@@std@@SAXXZ ; std::basic_string<wchar_t,std::char_traits<wchar_t>,std::allocator<wchar_t> >::_Xran
PUBLIC	??0import_s@@QAE@XZ				; import_s::import_s
PUBLIC	??1import_s@@QAE@XZ				; import_s::~import_s
PUBLIC	?SK_LoadEarlyImports64@@YAXXZ			; SK_LoadEarlyImports64
PUBLIC	?SK_LoadLateImports64@@YAXXZ			; SK_LoadLateImports64
PUBLIC	?SK_LoadLazyImports64@@YAXXZ			; SK_LoadLazyImports64
PUBLIC	?SK_LoadPlugIns64@@YAXXZ			; SK_LoadPlugIns64
PUBLIC	?SK_LoadEarlyImports32@@YAXXZ			; SK_LoadEarlyImports32
PUBLIC	?SK_LoadLateImports32@@YAXXZ			; SK_LoadLateImports32
PUBLIC	?SK_LoadLazyImports32@@YAXXZ			; SK_LoadLazyImports32
PUBLIC	?SK_LoadPlugIns32@@YAXXZ			; SK_LoadPlugIns32
PUBLIC	?SK_UnloadImports@@YAXXZ			; SK_UnloadImports
PUBLIC	?SK_Import_GetShimmedLibrary@@YA_NPAUHINSTANCE__@@AAPAU1@@Z ; SK_Import_GetShimmedLibrary
PUBLIC	?SK_InitPlugIn64@@YAPAUHINSTANCE__@@PAU1@@Z	; SK_InitPlugIn64
PUBLIC	??$?8_WU?$char_traits@_W@std@@V?$allocator@_W@1@@std@@YA_NABV?$basic_string@_WU?$char_traits@_W@std@@V?$allocator@_W@2@@0@0@Z ; std::operator==<wchar_t,std::char_traits<wchar_t>,std::allocator<wchar_t> >
PUBLIC	??0?$CHeapPtrBase@_WVCCRTAllocator@ATL@@@ATL@@IAE@PA_W@Z ; ATL::CHeapPtrBase<wchar_t,ATL::CCRTAllocator>::CHeapPtrBase<wchar_t,ATL::CCRTAllocator>
PUBLIC	??1?$CHeapPtrBase@_WVCCRTAllocator@ATL@@@ATL@@QAE@XZ ; ATL::CHeapPtrBase<wchar_t,ATL::CCRTAllocator>::~CHeapPtrBase<wchar_t,ATL::CCRTAllocator>
PUBLIC	??B?$CHeapPtrBase@_WVCCRTAllocator@ATL@@@ATL@@QBEPA_WXZ ; ATL::CHeapPtrBase<wchar_t,ATL::CCRTAllocator>::operator wchar_t *
PUBLIC	?Free@?$CHeapPtrBase@_WVCCRTAllocator@ATL@@@ATL@@QAEXXZ ; ATL::CHeapPtrBase<wchar_t,ATL::CCRTAllocator>::Free
PUBLIC	??0?$CHeapPtr@_WVCCRTAllocator@ATL@@@ATL@@QAE@PA_W@Z ; ATL::CHeapPtr<wchar_t,ATL::CCRTAllocator>::CHeapPtr<wchar_t,ATL::CCRTAllocator>
PUBLIC	??1?$CHeapPtr@_WVCCRTAllocator@ATL@@@ATL@@QAE@XZ ; ATL::CHeapPtr<wchar_t,ATL::CCRTAllocator>::~CHeapPtr<wchar_t,ATL::CCRTAllocator>
PUBLIC	??$swap@PAUHINSTANCE__@@X@std@@YAXAAPAUHINSTANCE__@@0@Z ; std::swap<HINSTANCE__ *,void>
PUBLIC	?SK_InitPlugIn32@@YAPAUHINSTANCE__@@PAU1@@Z	; SK_InitPlugIn32
PUBLIC	??$addressof@$$CBV?$basic_string@_WU?$char_traits@_W@std@@V?$allocator@_W@2@@std@@@std@@YAPBV?$basic_string@_WU?$char_traits@_W@std@@V?$allocator@_W@2@@0@ABV10@@Z ; std::addressof<std::basic_string<wchar_t,std::char_traits<wchar_t>,std::allocator<wchar_t> > const >
PUBLIC	??$addressof@V?$basic_string@_WU?$char_traits@_W@std@@V?$allocator@_W@2@@std@@@std@@YAPAV?$basic_string@_WU?$char_traits@_W@std@@V?$allocator@_W@2@@0@AAV10@@Z ; std::addressof<std::basic_string<wchar_t,std::char_traits<wchar_t>,std::allocator<wchar_t> > >
PUBLIC	??$move@AAV?$basic_string@_WU?$char_traits@_W@std@@V?$allocator@_W@2@@std@@@std@@YA$$QAV?$basic_string@_WU?$char_traits@_W@std@@V?$allocator@_W@2@@0@AAV10@@Z ; std::move<std::basic_string<wchar_t,std::char_traits<wchar_t>,std::allocator<wchar_t> > &>
PUBLIC	??$move@AAU?$_Wrap_alloc@V?$allocator@_W@std@@@std@@@std@@YA$$QAU?$_Wrap_alloc@V?$allocator@_W@std@@@0@AAU10@@Z ; std::move<std::_Wrap_alloc<std::allocator<wchar_t> > &>
PUBLIC	??$?0U?$_Wrap_alloc@V?$allocator@_W@std@@@std@@X@?$_String_alloc@U?$_String_base_types@_WV?$allocator@_W@std@@@std@@@std@@QAE@$$QAU?$_Wrap_alloc@V?$allocator@_W@std@@@1@@Z ; std::_String_alloc<std::_String_base_types<wchar_t,std::allocator<wchar_t> > >::_String_alloc<std::_String_base_types<wchar_t,std::allocator<wchar_t> > ><std::_Wrap_alloc<std::allocator<wchar_t> >,void>
PUBLIC	??$_Pocma@U?$_Wrap_alloc@V?$allocator@_W@std@@@std@@@std@@YAXAAU?$_Wrap_alloc@V?$allocator@_W@std@@@0@0@Z ; std::_Pocma<std::_Wrap_alloc<std::allocator<wchar_t> > >
PUBLIC	??$?0$$V@?$_Compressed_pair@U?$_Wrap_alloc@V?$allocator@_W@std@@@std@@V?$_String_val@U?$_Simple_types@_W@std@@@2@$00@std@@QAE@U_Zero_then_variadic_args_t@1@@Z ; std::_Compressed_pair<std::_Wrap_alloc<std::allocator<wchar_t> >,std::_String_val<std::_Simple_types<wchar_t> >,1>::_Compressed_pair<std::_Wrap_alloc<std::allocator<wchar_t> >,std::_String_val<std::_Simple_types<wchar_t> >,1><>
PUBLIC	??$addressof@PA_W@std@@YAPAPA_WAAPA_W@Z		; std::addressof<wchar_t *>
PUBLIC	??$destroy@PA_W@?$_Wrap_alloc@V?$allocator@_W@std@@@std@@QAEXPAPA_W@Z ; std::_Wrap_alloc<std::allocator<wchar_t> >::destroy<wchar_t *>
PUBLIC	??$addressof@V?$_String_val@U?$_Simple_types@_W@std@@@std@@@std@@YAPAV?$_String_val@U?$_Simple_types@_W@std@@@0@AAV10@@Z ; std::addressof<std::_String_val<std::_Simple_types<wchar_t> > >
PUBLIC	??$_Unfancy@_W@std@@YAPA_WPA_W@Z		; std::_Unfancy<wchar_t>
PUBLIC	??$_Min_value@I@std@@YAABIABI0@Z		; std::_Min_value<unsigned int>
PUBLIC	??$construct@PA_WAAPA_W@?$_Wrap_alloc@V?$allocator@_W@std@@@std@@QAEXPAPA_WAAPA_W@Z ; std::_Wrap_alloc<std::allocator<wchar_t> >::construct<wchar_t *,wchar_t * &>
PUBLIC	??$move@AAPAUHINSTANCE__@@@std@@YA$$QAPAUHINSTANCE__@@AAPAU1@@Z ; std::move<HINSTANCE__ * &>
PUBLIC	??$forward@U?$_Wrap_alloc@V?$allocator@_W@std@@@std@@@std@@YA$$QAU?$_Wrap_alloc@V?$allocator@_W@std@@@0@AAU10@@Z ; std::forward<std::_Wrap_alloc<std::allocator<wchar_t> > >
PUBLIC	??$?0U?$_Wrap_alloc@V?$allocator@_W@std@@@std@@$$V@?$_Compressed_pair@U?$_Wrap_alloc@V?$allocator@_W@std@@@std@@V?$_String_val@U?$_Simple_types@_W@std@@@2@$00@std@@QAE@U_One_then_variadic_args_t@1@$$QAU?$_Wrap_alloc@V?$allocator@_W@std@@@1@@Z ; std::_Compressed_pair<std::_Wrap_alloc<std::allocator<wchar_t> >,std::_String_val<std::_Simple_types<wchar_t> >,1>::_Compressed_pair<std::_Wrap_alloc<std::allocator<wchar_t> >,std::_String_val<std::_Simple_types<wchar_t> >,1><std::_Wrap_alloc<std::allocator<wchar_t> > >
PUBLIC	??$_Pocma@U?$_Wrap_alloc@V?$allocator@_W@std@@@std@@@std@@YAXAAU?$_Wrap_alloc@V?$allocator@_W@std@@@0@0U?$integral_constant@_N$00@0@@Z ; std::_Pocma<std::_Wrap_alloc<std::allocator<wchar_t> > >
PUBLIC	??$destroy@PA_W@?$allocator_traits@V?$allocator@_W@std@@@std@@SAXAAV?$allocator@_W@1@PAPA_W@Z ; std::allocator_traits<std::allocator<wchar_t> >::destroy<wchar_t *>
PUBLIC	??$forward@AAPA_W@std@@YAAAPA_WAAPA_W@Z		; std::forward<wchar_t * &>
PUBLIC	??$construct@PA_WAAPA_W@?$allocator_traits@V?$allocator@_W@std@@@std@@SAXAAV?$allocator@_W@1@PAPA_WAAPA_W@Z ; std::allocator_traits<std::allocator<wchar_t> >::construct<wchar_t *,wchar_t * &>
PUBLIC	??$_Traits_equal@U?$char_traits@_W@std@@@std@@YA_NQB_WI0I@Z ; std::_Traits_equal<std::char_traits<wchar_t> >
PUBLIC	??$destroy@PA_W@?$allocator@_W@std@@QAEXPAPA_W@Z ; std::allocator<wchar_t>::destroy<wchar_t *>
PUBLIC	??$construct@PA_WAAPA_W@?$allocator@_W@std@@QAEXPAPA_WAAPA_W@Z ; std::allocator<wchar_t>::construct<wchar_t *,wchar_t * &>
PUBLIC	??_7_com_error@@6B@				; _com_error::`vftable'
PUBLIC	??_C@_1CI@KPMALOMG@?$AAI?$AAD?$AAi?$AAs?$AAp?$AAa?$AAt?$AAc?$AAh?$AA?5?$AAe?$AAr?$AAr?$AAo?$AAr?$AA?5?$AA?$CD?$AA?$CF?$AAd?$AA?$AA@ ; `string'
PUBLIC	??_C@_1CK@DOIMBAJG@?$AAU?$AAn?$AAk?$AAn?$AAo?$AAw?$AAn?$AA?5?$AAe?$AAr?$AAr?$AAo?$AAr?$AA?5?$AA0?$AAx?$AA?$CF?$AA0?$AAl?$AAX?$AA?$AA@ ; `string'
PUBLIC	?atlTraceGeneral@ATL@@3V?$CTraceCategoryEx@$00$0A@@1@A ; ATL::atlTraceGeneral
PUBLIC	?atlTraceCOM@ATL@@3V?$CTraceCategoryEx@$01$0A@@1@A ; ATL::atlTraceCOM
PUBLIC	?atlTraceQI@ATL@@3V?$CTraceCategoryEx@$03$0A@@1@A ; ATL::atlTraceQI
PUBLIC	?atlTraceRegistrar@ATL@@3V?$CTraceCategoryEx@$07$0A@@1@A ; ATL::atlTraceRegistrar
PUBLIC	?atlTraceRefcount@ATL@@3V?$CTraceCategoryEx@$0BA@$0A@@1@A ; ATL::atlTraceRefcount
PUBLIC	?atlTraceWindowing@ATL@@3V?$CTraceCategoryEx@$0CA@$0A@@1@A ; ATL::atlTraceWindowing
PUBLIC	?atlTraceControls@ATL@@3V?$CTraceCategoryEx@$0EA@$0A@@1@A ; ATL::atlTraceControls
PUBLIC	?atlTraceHosting@ATL@@3V?$CTraceCategoryEx@$0IA@$0A@@1@A ; ATL::atlTraceHosting
PUBLIC	?atlTraceDBClient@ATL@@3V?$CTraceCategoryEx@$0BAA@$0A@@1@A ; ATL::atlTraceDBClient
PUBLIC	?atlTraceDBProvider@ATL@@3V?$CTraceCategoryEx@$0CAA@$0A@@1@A ; ATL::atlTraceDBProvider
PUBLIC	?atlTraceSnapin@ATL@@3V?$CTraceCategoryEx@$0EAA@$0A@@1@A ; ATL::atlTraceSnapin
PUBLIC	?atlTraceNotImpl@ATL@@3V?$CTraceCategoryEx@$0IAA@$0A@@1@A ; ATL::atlTraceNotImpl
PUBLIC	?atlTraceAllocation@ATL@@3V?$CTraceCategoryEx@$0BAAA@$0A@@1@A ; ATL::atlTraceAllocation
PUBLIC	?atlTraceException@ATL@@3V?$CTraceCategoryEx@$0CAAA@$0A@@1@A ; ATL::atlTraceException
PUBLIC	?atlTraceTime@ATL@@3V?$CTraceCategoryEx@$0EAAA@$0A@@1@A ; ATL::atlTraceTime
PUBLIC	?atlTraceCache@ATL@@3V?$CTraceCategoryEx@$0IAAA@$0A@@1@A ; ATL::atlTraceCache
PUBLIC	?atlTraceStencil@ATL@@3V?$CTraceCategoryEx@$0BAAAA@$0A@@1@A ; ATL::atlTraceStencil
PUBLIC	?atlTraceString@ATL@@3V?$CTraceCategoryEx@$0CAAAA@$0A@@1@A ; ATL::atlTraceString
PUBLIC	?atlTraceMap@ATL@@3V?$CTraceCategoryEx@$0EAAAA@$0A@@1@A ; ATL::atlTraceMap
PUBLIC	?atlTraceUtil@ATL@@3V?$CTraceCategoryEx@$0IAAAA@$0A@@1@A ; ATL::atlTraceUtil
PUBLIC	?atlTraceSecurity@ATL@@3V?$CTraceCategoryEx@$0BAAAAA@$0A@@1@A ; ATL::atlTraceSecurity
PUBLIC	?atlTraceSync@ATL@@3V?$CTraceCategoryEx@$0CAAAAA@$0A@@1@A ; ATL::atlTraceSync
PUBLIC	?atlTraceISAPI@ATL@@3V?$CTraceCategoryEx@$0EAAAAA@$0A@@1@A ; ATL::atlTraceISAPI
PUBLIC	?m_bInitFailed@CAtlBaseModule@ATL@@2_NA		; ATL::CAtlBaseModule::m_bInitFailed
PUBLIC	?_AtlComModule@ATL@@3VCAtlComModule@1@A		; ATL::_AtlComModule
PUBLIC	?_AtlWinModule@ATL@@3VCAtlWinModule@1@A		; ATL::_AtlWinModule
PUBLIC	??_C@_11LOCGONAA@?$AA?$AA@			; `string'
PUBLIC	?SK_IMPORT_EARLY@@3V?$basic_string@_WU?$char_traits@_W@std@@V?$allocator@_W@2@@std@@B ; SK_IMPORT_EARLY
PUBLIC	?SK_IMPORT_LATE@@3V?$basic_string@_WU?$char_traits@_W@std@@V?$allocator@_W@2@@std@@B ; SK_IMPORT_LATE
PUBLIC	?SK_IMPORT_LAZY@@3V?$basic_string@_WU?$char_traits@_W@std@@V?$allocator@_W@2@@std@@B ; SK_IMPORT_LAZY
PUBLIC	?SK_IMPORT_ROLE_DXGI@@3V?$basic_string@_WU?$char_traits@_W@std@@V?$allocator@_W@2@@std@@B ; SK_IMPORT_ROLE_DXGI
PUBLIC	?SK_IMPORT_ROLE_D3D11@@3V?$basic_string@_WU?$char_traits@_W@std@@V?$allocator@_W@2@@std@@B ; SK_IMPORT_ROLE_D3D11
PUBLIC	?SK_IMPORT_ARCH_X64@@3V?$basic_string@_WU?$char_traits@_W@std@@V?$allocator@_W@2@@std@@B ; SK_IMPORT_ARCH_X64
PUBLIC	?SK_IMPORT_ARCH_WIN32@@3V?$basic_string@_WU?$char_traits@_W@std@@V?$allocator@_W@2@@std@@B ; SK_IMPORT_ARCH_WIN32
PUBLIC	?imports@@3PAUimport_s@@A			; imports
PUBLIC	?host_executable@@3Uimport_s@@A			; host_executable
PUBLIC	??_C@_0BA@JFNIOLAK@string?5too?5long?$AA@	; `string'
PUBLIC	??_C@_0BI@CFPLBAOH@invalid?5string?5position?$AA@ ; `string'
PUBLIC	??_R4_com_error@@6B@				; _com_error::`RTTI Complete Object Locator'
PUBLIC	??_R0?AV_com_error@@@8				; _com_error `RTTI Type Descriptor'
PUBLIC	??_R3_com_error@@8				; _com_error::`RTTI Class Hierarchy Descriptor'
PUBLIC	??_R2_com_error@@8				; _com_error::`RTTI Base Class Array'
PUBLIC	??_R1A@?0A@EA@_com_error@@8			; _com_error::`RTTI Base Class Descriptor at (0,-1,0,64)'
EXTRN	??_L@YGXPAXIIP6EX0@Z1@Z:PROC			; `eh vector constructor iterator'
EXTRN	??_M@YGXPAXIIP6EX0@Z@Z:PROC			; `eh vector destructor iterator'
EXTRN	??2@YAPAXI@Z:PROC				; operator new
EXTRN	??3@YAXPAX@Z:PROC				; operator delete
EXTRN	??3@YAXPAXI@Z:PROC				; operator delete
EXTRN	_atexit:PROC
EXTRN	___std_terminate:PROC
EXTRN	__imp___invalid_parameter_noinfo_noreturn:PROC
EXTRN	__imp__memmove:PROC
EXTRN	__imp___wcsdup:PROC
EXTRN	__imp__DecodePointer@4:PROC
EXTRN	__imp__RaiseException@16:PROC
EXTRN	__imp__GetLastError@0:PROC
EXTRN	__imp__InitializeCriticalSectionEx@12:PROC
EXTRN	__imp__DeleteCriticalSection@4:PROC
EXTRN	__imp__GetCurrentProcess@0:PROC
EXTRN	__imp__GetProcAddress@8:PROC
EXTRN	__imp__LocalAlloc@8:PROC
EXTRN	__imp__LocalFree@4:PROC
EXTRN	__imp__FormatMessageW@28:PROC
EXTRN	__imp__UnregisterClassW@8:PROC
EXTRN	__imp__timeGetTime@0:PROC
EXTRN	__imp__free:PROC
EXTRN	_swprintf_s:PROC
EXTRN	??_E_com_error@@UAEPAXI@Z:PROC			; _com_error::`vector deleting destructor'
EXTRN	__imp__StrStrIW@8:PROC
EXTRN	__imp_?_Xbad_alloc@std@@YAXXZ:PROC
EXTRN	__imp_?_Xlength_error@std@@YAXPBD@Z:PROC
EXTRN	__imp_?_Xout_of_range@std@@YAXPBD@Z:PROC
EXTRN	?LogEx@iSK_Logger@@UAAX_NQB_WZZ:PROC		; iSK_Logger::LogEx
EXTRN	?Log@iSK_Logger@@UAAXQB_WZZ:PROC		; iSK_Logger::Log
EXTRN	?SK_GetHostApp@@YAPB_WXZ:PROC			; SK_GetHostApp
EXTRN	?SK_GetModuleName@@YA?AV?$basic_string@_WU?$char_traits@_W@std@@V?$allocator@_W@2@@std@@PAUHINSTANCE__@@@Z:PROC ; SK_GetModuleName
EXTRN	?SK_GetModuleFullName@@YA?AV?$basic_string@_WU?$char_traits@_W@std@@V?$allocator@_W@2@@std@@PAUHINSTANCE__@@@Z:PROC ; SK_GetModuleFullName
EXTRN	?SK_StripUserNameFromPathW@@YA_NPA_W@Z:PROC	; SK_StripUserNameFromPathW
EXTRN	?SK_GetDLL@@YGPAUHINSTANCE__@@XZ:PROC		; SK_GetDLL
EXTRN	?SK_GetDLLVersionStr@@YG?AV?$basic_string@_WU?$char_traits@_W@std@@V?$allocator@_W@2@@std@@PB_W@Z:PROC ; SK_GetDLLVersionStr
EXTRN	?SK_SymRefreshModuleList@@YGXPAX@Z:PROC		; SK_SymRefreshModuleList
EXTRN	___CxxFrameHandler3:PROC
EXTRN	_memcpy:PROC
EXTRN	??_7type_info@@6B@:QWORD			; type_info::`vftable'
EXTRN	?_AtlBaseModule@ATL@@3VCAtlBaseModule@1@A:BYTE	; ATL::_AtlBaseModule
EXTRN	___ImageBase:BYTE
EXTRN	?dll_log@@3UiSK_Logger@@A:BYTE			; dll_log
EXTRN	?FreeLibrary_Original@@3P6GHPAUHINSTANCE__@@@ZA:DWORD ; FreeLibrary_Original
EXTRN	?LoadLibraryW_Original@@3P6GPAUHINSTANCE__@@PB_W@ZA:DWORD ; LoadLibraryW_Original
;	COMDAT ?atlTraceGeneral@ATL@@3V?$CTraceCategoryEx@$00$0A@@1@A
_BSS	SEGMENT
?atlTraceGeneral@ATL@@3V?$CTraceCategoryEx@$00$0A@@1@A DD 01H DUP (?) ; ATL::atlTraceGeneral
_BSS	ENDS
;	COMDAT ?atlTraceCOM@ATL@@3V?$CTraceCategoryEx@$01$0A@@1@A
_BSS	SEGMENT
?atlTraceCOM@ATL@@3V?$CTraceCategoryEx@$01$0A@@1@A DD 01H DUP (?) ; ATL::atlTraceCOM
_BSS	ENDS
;	COMDAT ?atlTraceQI@ATL@@3V?$CTraceCategoryEx@$03$0A@@1@A
_BSS	SEGMENT
?atlTraceQI@ATL@@3V?$CTraceCategoryEx@$03$0A@@1@A DD 01H DUP (?) ; ATL::atlTraceQI
_BSS	ENDS
;	COMDAT ?atlTraceRegistrar@ATL@@3V?$CTraceCategoryEx@$07$0A@@1@A
_BSS	SEGMENT
?atlTraceRegistrar@ATL@@3V?$CTraceCategoryEx@$07$0A@@1@A DD 01H DUP (?) ; ATL::atlTraceRegistrar
_BSS	ENDS
;	COMDAT ?atlTraceRefcount@ATL@@3V?$CTraceCategoryEx@$0BA@$0A@@1@A
_BSS	SEGMENT
?atlTraceRefcount@ATL@@3V?$CTraceCategoryEx@$0BA@$0A@@1@A DD 01H DUP (?) ; ATL::atlTraceRefcount
_BSS	ENDS
;	COMDAT ?atlTraceWindowing@ATL@@3V?$CTraceCategoryEx@$0CA@$0A@@1@A
_BSS	SEGMENT
?atlTraceWindowing@ATL@@3V?$CTraceCategoryEx@$0CA@$0A@@1@A DD 01H DUP (?) ; ATL::atlTraceWindowing
_BSS	ENDS
;	COMDAT ?atlTraceControls@ATL@@3V?$CTraceCategoryEx@$0EA@$0A@@1@A
_BSS	SEGMENT
?atlTraceControls@ATL@@3V?$CTraceCategoryEx@$0EA@$0A@@1@A DD 01H DUP (?) ; ATL::atlTraceControls
_BSS	ENDS
;	COMDAT ?atlTraceHosting@ATL@@3V?$CTraceCategoryEx@$0IA@$0A@@1@A
_BSS	SEGMENT
?atlTraceHosting@ATL@@3V?$CTraceCategoryEx@$0IA@$0A@@1@A DD 01H DUP (?) ; ATL::atlTraceHosting
_BSS	ENDS
;	COMDAT ?atlTraceDBClient@ATL@@3V?$CTraceCategoryEx@$0BAA@$0A@@1@A
_BSS	SEGMENT
?atlTraceDBClient@ATL@@3V?$CTraceCategoryEx@$0BAA@$0A@@1@A DD 01H DUP (?) ; ATL::atlTraceDBClient
_BSS	ENDS
;	COMDAT ?atlTraceDBProvider@ATL@@3V?$CTraceCategoryEx@$0CAA@$0A@@1@A
_BSS	SEGMENT
?atlTraceDBProvider@ATL@@3V?$CTraceCategoryEx@$0CAA@$0A@@1@A DD 01H DUP (?) ; ATL::atlTraceDBProvider
_BSS	ENDS
;	COMDAT ?atlTraceSnapin@ATL@@3V?$CTraceCategoryEx@$0EAA@$0A@@1@A
_BSS	SEGMENT
?atlTraceSnapin@ATL@@3V?$CTraceCategoryEx@$0EAA@$0A@@1@A DD 01H DUP (?) ; ATL::atlTraceSnapin
_BSS	ENDS
;	COMDAT ?atlTraceNotImpl@ATL@@3V?$CTraceCategoryEx@$0IAA@$0A@@1@A
_BSS	SEGMENT
?atlTraceNotImpl@ATL@@3V?$CTraceCategoryEx@$0IAA@$0A@@1@A DD 01H DUP (?) ; ATL::atlTraceNotImpl
_BSS	ENDS
;	COMDAT ?atlTraceAllocation@ATL@@3V?$CTraceCategoryEx@$0BAAA@$0A@@1@A
_BSS	SEGMENT
?atlTraceAllocation@ATL@@3V?$CTraceCategoryEx@$0BAAA@$0A@@1@A DD 01H DUP (?) ; ATL::atlTraceAllocation
_BSS	ENDS
;	COMDAT ?atlTraceException@ATL@@3V?$CTraceCategoryEx@$0CAAA@$0A@@1@A
_BSS	SEGMENT
?atlTraceException@ATL@@3V?$CTraceCategoryEx@$0CAAA@$0A@@1@A DD 01H DUP (?) ; ATL::atlTraceException
_BSS	ENDS
;	COMDAT ?atlTraceTime@ATL@@3V?$CTraceCategoryEx@$0EAAA@$0A@@1@A
_BSS	SEGMENT
?atlTraceTime@ATL@@3V?$CTraceCategoryEx@$0EAAA@$0A@@1@A DD 01H DUP (?) ; ATL::atlTraceTime
_BSS	ENDS
;	COMDAT ?atlTraceCache@ATL@@3V?$CTraceCategoryEx@$0IAAA@$0A@@1@A
_BSS	SEGMENT
?atlTraceCache@ATL@@3V?$CTraceCategoryEx@$0IAAA@$0A@@1@A DD 01H DUP (?) ; ATL::atlTraceCache
_BSS	ENDS
;	COMDAT ?atlTraceStencil@ATL@@3V?$CTraceCategoryEx@$0BAAAA@$0A@@1@A
_BSS	SEGMENT
?atlTraceStencil@ATL@@3V?$CTraceCategoryEx@$0BAAAA@$0A@@1@A DD 01H DUP (?) ; ATL::atlTraceStencil
_BSS	ENDS
;	COMDAT ?atlTraceString@ATL@@3V?$CTraceCategoryEx@$0CAAAA@$0A@@1@A
_BSS	SEGMENT
?atlTraceString@ATL@@3V?$CTraceCategoryEx@$0CAAAA@$0A@@1@A DD 01H DUP (?) ; ATL::atlTraceString
_BSS	ENDS
;	COMDAT ?atlTraceMap@ATL@@3V?$CTraceCategoryEx@$0EAAAA@$0A@@1@A
_BSS	SEGMENT
?atlTraceMap@ATL@@3V?$CTraceCategoryEx@$0EAAAA@$0A@@1@A DD 01H DUP (?) ; ATL::atlTraceMap
_BSS	ENDS
;	COMDAT ?atlTraceUtil@ATL@@3V?$CTraceCategoryEx@$0IAAAA@$0A@@1@A
_BSS	SEGMENT
?atlTraceUtil@ATL@@3V?$CTraceCategoryEx@$0IAAAA@$0A@@1@A DD 01H DUP (?) ; ATL::atlTraceUtil
_BSS	ENDS
;	COMDAT ?atlTraceSecurity@ATL@@3V?$CTraceCategoryEx@$0BAAAAA@$0A@@1@A
_BSS	SEGMENT
?atlTraceSecurity@ATL@@3V?$CTraceCategoryEx@$0BAAAAA@$0A@@1@A DD 01H DUP (?) ; ATL::atlTraceSecurity
_BSS	ENDS
;	COMDAT ?atlTraceSync@ATL@@3V?$CTraceCategoryEx@$0CAAAAA@$0A@@1@A
_BSS	SEGMENT
?atlTraceSync@ATL@@3V?$CTraceCategoryEx@$0CAAAAA@$0A@@1@A DD 01H DUP (?) ; ATL::atlTraceSync
_BSS	ENDS
;	COMDAT ?atlTraceISAPI@ATL@@3V?$CTraceCategoryEx@$0EAAAAA@$0A@@1@A
_BSS	SEGMENT
?atlTraceISAPI@ATL@@3V?$CTraceCategoryEx@$0EAAAAA@$0A@@1@A DD 01H DUP (?) ; ATL::atlTraceISAPI
_BSS	ENDS
;	COMDAT ?m_bInitFailed@CAtlBaseModule@ATL@@2_NA
_BSS	SEGMENT
?m_bInitFailed@CAtlBaseModule@ATL@@2_NA DB 01H DUP (?)	; ATL::CAtlBaseModule::m_bInitFailed
_BSS	ENDS
;	COMDAT ?_AtlWinModule@ATL@@3VCAtlWinModule@1@A
_BSS	SEGMENT
?_AtlWinModule@ATL@@3VCAtlWinModule@1@A DB 02cH DUP (?)	; ATL::_AtlWinModule
_BSS	ENDS
_BSS	SEGMENT
?SK_IMPORT_EARLY@@3V?$basic_string@_WU?$char_traits@_W@std@@V?$allocator@_W@2@@std@@B DB 018H DUP (?) ; SK_IMPORT_EARLY
?SK_IMPORT_LATE@@3V?$basic_string@_WU?$char_traits@_W@std@@V?$allocator@_W@2@@std@@B DB 018H DUP (?) ; SK_IMPORT_LATE
?SK_IMPORT_LAZY@@3V?$basic_string@_WU?$char_traits@_W@std@@V?$allocator@_W@2@@std@@B DB 018H DUP (?) ; SK_IMPORT_LAZY
?SK_IMPORT_ROLE_DXGI@@3V?$basic_string@_WU?$char_traits@_W@std@@V?$allocator@_W@2@@std@@B DB 018H DUP (?) ; SK_IMPORT_ROLE_DXGI
?SK_IMPORT_ROLE_D3D11@@3V?$basic_string@_WU?$char_traits@_W@std@@V?$allocator@_W@2@@std@@B DB 018H DUP (?) ; SK_IMPORT_ROLE_D3D11
?SK_IMPORT_ARCH_X64@@3V?$basic_string@_WU?$char_traits@_W@std@@V?$allocator@_W@2@@std@@B DB 018H DUP (?) ; SK_IMPORT_ARCH_X64
?SK_IMPORT_ARCH_WIN32@@3V?$basic_string@_WU?$char_traits@_W@std@@V?$allocator@_W@2@@std@@B DB 018H DUP (?) ; SK_IMPORT_ARCH_WIN32
?imports@@3PAUimport_s@@A DB 0260H DUP (?)		; imports
?host_executable@@3Uimport_s@@A DB 04cH DUP (?)		; host_executable
?SK_IMPORT_PLUGIN@@3V?$basic_string@_WU?$char_traits@_W@std@@V?$allocator@_W@2@@std@@B DB 018H DUP (?) ; SK_IMPORT_PLUGIN
?SK_IMPORT_PROXY@@3V?$basic_string@_WU?$char_traits@_W@std@@V?$allocator@_W@2@@std@@B DB 018H DUP (?) ; SK_IMPORT_PROXY
?SK_IMPORT_ROLE_D3D9@@3V?$basic_string@_WU?$char_traits@_W@std@@V?$allocator@_W@2@@std@@B DB 018H DUP (?) ; SK_IMPORT_ROLE_D3D9
?SK_IMPORT_ROLE_OPENGL@@3V?$basic_string@_WU?$char_traits@_W@std@@V?$allocator@_W@2@@std@@B DB 018H DUP (?) ; SK_IMPORT_ROLE_OPENGL
?SK_IMPORT_ROLE_PLUGIN@@3V?$basic_string@_WU?$char_traits@_W@std@@V?$allocator@_W@2@@std@@B DB 018H DUP (?) ; SK_IMPORT_ROLE_PLUGIN
?SK_IMPORT_ROLE_3RDPARTY@@3V?$basic_string@_WU?$char_traits@_W@std@@V?$allocator@_W@2@@std@@B DB 018H DUP (?) ; SK_IMPORT_ROLE_3RDPARTY
_BSS	ENDS
;	COMDAT CRT$XCU
CRT$XCU	SEGMENT
?_AtlComModule$initializer$@ATL@@3P6AXXZA DD FLAT:??__E_AtlComModule@ATL@@YAXXZ ; ATL::_AtlComModule$initializer$
CRT$XCU	ENDS
;	COMDAT ??_R1A@?0A@EA@_com_error@@8
rdata$r	SEGMENT
??_R1A@?0A@EA@_com_error@@8 DD FLAT:??_R0?AV_com_error@@@8 ; _com_error::`RTTI Base Class Descriptor at (0,-1,0,64)'
	DD	00H
	DD	00H
	DD	0ffffffffH
	DD	00H
	DD	040H
	DD	FLAT:??_R3_com_error@@8
rdata$r	ENDS
;	COMDAT ??_R2_com_error@@8
rdata$r	SEGMENT
??_R2_com_error@@8 DD FLAT:??_R1A@?0A@EA@_com_error@@8	; _com_error::`RTTI Base Class Array'
rdata$r	ENDS
;	COMDAT ??_R3_com_error@@8
rdata$r	SEGMENT
??_R3_com_error@@8 DD 00H				; _com_error::`RTTI Class Hierarchy Descriptor'
	DD	00H
	DD	01H
	DD	FLAT:??_R2_com_error@@8
rdata$r	ENDS
;	COMDAT ??_R0?AV_com_error@@@8
data$r	SEGMENT
??_R0?AV_com_error@@@8 DD FLAT:??_7type_info@@6B@	; _com_error `RTTI Type Descriptor'
	DD	00H
	DB	'.?AV_com_error@@', 00H
data$r	ENDS
;	COMDAT ??_R4_com_error@@6B@
rdata$r	SEGMENT
??_R4_com_error@@6B@ DD 00H				; _com_error::`RTTI Complete Object Locator'
	DD	00H
	DD	00H
	DD	FLAT:??_R0?AV_com_error@@@8
	DD	FLAT:??_R3_com_error@@8
rdata$r	ENDS
;	COMDAT ??_C@_0BI@CFPLBAOH@invalid?5string?5position?$AA@
CONST	SEGMENT
??_C@_0BI@CFPLBAOH@invalid?5string?5position?$AA@ DB 'invalid string posi'
	DB	'tion', 00H					; `string'
CONST	ENDS
;	COMDAT ??_C@_0BA@JFNIOLAK@string?5too?5long?$AA@
CONST	SEGMENT
??_C@_0BA@JFNIOLAK@string?5too?5long?$AA@ DB 'string too long', 00H ; `string'
CONST	ENDS
;	COMDAT ??_C@_11LOCGONAA@?$AA?$AA@
CONST	SEGMENT
??_C@_11LOCGONAA@?$AA?$AA@ DB 00H, 00H			; `string'
CONST	ENDS
;	COMDAT ?_AtlComModule@ATL@@3VCAtlComModule@1@A
_DATA	SEGMENT
?_AtlComModule@ATL@@3VCAtlComModule@1@A DB 04H DUP (?)
	DD	FLAT:___ImageBase			; ATL::_AtlComModule
	DD	FLAT:___pobjMapEntryFirst+4
	DD	FLAT:___pobjMapEntryLast
_DATA	ENDS
;	COMDAT ??_C@_1CK@DOIMBAJG@?$AAU?$AAn?$AAk?$AAn?$AAo?$AAw?$AAn?$AA?5?$AAe?$AAr?$AAr?$AAo?$AAr?$AA?5?$AA0?$AAx?$AA?$CF?$AA0?$AAl?$AAX?$AA?$AA@
CONST	SEGMENT
??_C@_1CK@DOIMBAJG@?$AAU?$AAn?$AAk?$AAn?$AAo?$AAw?$AAn?$AA?5?$AAe?$AAr?$AAr?$AAo?$AAr?$AA?5?$AA0?$AAx?$AA?$CF?$AA0?$AAl?$AAX?$AA?$AA@ DB 'U'
	DB	00H, 'n', 00H, 'k', 00H, 'n', 00H, 'o', 00H, 'w', 00H, 'n', 00H
	DB	' ', 00H, 'e', 00H, 'r', 00H, 'r', 00H, 'o', 00H, 'r', 00H, ' '
	DB	00H, '0', 00H, 'x', 00H, '%', 00H, '0', 00H, 'l', 00H, 'X', 00H
	DB	00H, 00H					; `string'
CONST	ENDS
;	COMDAT ??_C@_1CI@KPMALOMG@?$AAI?$AAD?$AAi?$AAs?$AAp?$AAa?$AAt?$AAc?$AAh?$AA?5?$AAe?$AAr?$AAr?$AAo?$AAr?$AA?5?$AA?$CD?$AA?$CF?$AAd?$AA?$AA@
CONST	SEGMENT
??_C@_1CI@KPMALOMG@?$AAI?$AAD?$AAi?$AAs?$AAp?$AAa?$AAt?$AAc?$AAh?$AA?5?$AAe?$AAr?$AAr?$AAo?$AAr?$AA?5?$AA?$CD?$AA?$CF?$AAd?$AA?$AA@ DB 'I'
	DB	00H, 'D', 00H, 'i', 00H, 's', 00H, 'p', 00H, 'a', 00H, 't', 00H
	DB	'c', 00H, 'h', 00H, ' ', 00H, 'e', 00H, 'r', 00H, 'r', 00H, 'o'
	DB	00H, 'r', 00H, ' ', 00H, '#', 00H, '%', 00H, 'd', 00H, 00H, 00H ; `string'
CONST	ENDS
;	COMDAT ??_7_com_error@@6B@
CONST	SEGMENT
??_7_com_error@@6B@ DD FLAT:??_R4_com_error@@6B@	; _com_error::`vftable'
	DD	FLAT:??_E_com_error@@UAEPAXI@Z
CONST	ENDS
;	COMDAT xdata$x
xdata$x	SEGMENT
__unwindtable$??__Ehost_executable@@YAXXZ DD 0ffffffffH
	DD	FLAT:__unwindfunclet$??__Ehost_executable@@YAXXZ$0
__ehfuncinfo$??__Ehost_executable@@YAXXZ DD 019930522H
	DD	01H
	DD	FLAT:__unwindtable$??__Ehost_executable@@YAXXZ
	DD	2 DUP(00H)
	DD	2 DUP(00H)
	DD	00H
	DD	01H
xdata$x	ENDS
xdata$x	SEGMENT
__ehfuncinfo$?SK_LoadPlugIns32@@YAXXZ DD 019930522H
	DD	07H
	DD	FLAT:__unwindtable$?SK_LoadPlugIns32@@YAXXZ
	DD	2 DUP(00H)
	DD	2 DUP(00H)
	DD	00H
	DD	01H
__ehfuncinfo$?SK_LoadLazyImports32@@YAXXZ DD 019930522H
	DD	07H
	DD	FLAT:__unwindtable$?SK_LoadLazyImports32@@YAXXZ
	DD	2 DUP(00H)
	DD	2 DUP(00H)
	DD	00H
	DD	01H
__ehfuncinfo$?SK_LoadLateImports32@@YAXXZ DD 019930522H
	DD	07H
	DD	FLAT:__unwindtable$?SK_LoadLateImports32@@YAXXZ
	DD	2 DUP(00H)
	DD	2 DUP(00H)
	DD	00H
	DD	01H
__ehfuncinfo$?SK_LoadEarlyImports32@@YAXXZ DD 019930522H
	DD	07H
	DD	FLAT:__unwindtable$?SK_LoadEarlyImports32@@YAXXZ
	DD	2 DUP(00H)
	DD	2 DUP(00H)
	DD	00H
	DD	01H
__ehfuncinfo$?SK_LoadPlugIns64@@YAXXZ DD 019930522H
	DD	07H
	DD	FLAT:__unwindtable$?SK_LoadPlugIns64@@YAXXZ
	DD	2 DUP(00H)
	DD	2 DUP(00H)
	DD	00H
	DD	01H
__ehfuncinfo$?SK_LoadLazyImports64@@YAXXZ DD 019930522H
	DD	07H
	DD	FLAT:__unwindtable$?SK_LoadLazyImports64@@YAXXZ
	DD	2 DUP(00H)
	DD	2 DUP(00H)
	DD	00H
	DD	01H
__ehfuncinfo$?SK_LoadLateImports64@@YAXXZ DD 019930522H
	DD	07H
	DD	FLAT:__unwindtable$?SK_LoadLateImports64@@YAXXZ
	DD	2 DUP(00H)
	DD	2 DUP(00H)
	DD	00H
	DD	01H
__ehfuncinfo$?SK_LoadEarlyImports64@@YAXXZ DD 019930522H
	DD	07H
	DD	FLAT:__unwindtable$?SK_LoadEarlyImports64@@YAXXZ
	DD	2 DUP(00H)
	DD	2 DUP(00H)
	DD	00H
	DD	01H
__unwindtable$?SK_LoadPlugIns32@@YAXXZ DD 0ffffffffH
	DD	FLAT:__unwindfunclet$?SK_LoadPlugIns32@@YAXXZ$0
	DD	00H
	DD	FLAT:__unwindfunclet$?SK_LoadPlugIns32@@YAXXZ$2
	DD	0ffffffffH
	DD	FLAT:__unwindfunclet$?SK_LoadPlugIns32@@YAXXZ$2
	DD	02H
	DD	FLAT:__unwindfunclet$?SK_LoadPlugIns32@@YAXXZ$3
	DD	02H
	DD	FLAT:__unwindfunclet$?SK_LoadPlugIns32@@YAXXZ$6
	DD	04H
	DD	FLAT:__unwindfunclet$?SK_LoadPlugIns32@@YAXXZ$7
	DD	04H
	DD	FLAT:__unwindfunclet$?SK_LoadPlugIns32@@YAXXZ$8
__unwindtable$?SK_LoadLazyImports32@@YAXXZ DD 0ffffffffH
	DD	FLAT:__unwindfunclet$?SK_LoadLazyImports32@@YAXXZ$0
	DD	00H
	DD	FLAT:__unwindfunclet$?SK_LoadLazyImports32@@YAXXZ$2
	DD	0ffffffffH
	DD	FLAT:__unwindfunclet$?SK_LoadLazyImports32@@YAXXZ$2
	DD	02H
	DD	FLAT:__unwindfunclet$?SK_LoadLazyImports32@@YAXXZ$3
	DD	02H
	DD	FLAT:__unwindfunclet$?SK_LoadLazyImports32@@YAXXZ$6
	DD	04H
	DD	FLAT:__unwindfunclet$?SK_LoadLazyImports32@@YAXXZ$7
	DD	04H
	DD	FLAT:__unwindfunclet$?SK_LoadLazyImports32@@YAXXZ$8
__unwindtable$?SK_LoadLateImports32@@YAXXZ DD 0ffffffffH
	DD	FLAT:__unwindfunclet$?SK_LoadLateImports32@@YAXXZ$0
	DD	00H
	DD	FLAT:__unwindfunclet$?SK_LoadLateImports32@@YAXXZ$2
	DD	0ffffffffH
	DD	FLAT:__unwindfunclet$?SK_LoadLateImports32@@YAXXZ$2
	DD	02H
	DD	FLAT:__unwindfunclet$?SK_LoadLateImports32@@YAXXZ$3
	DD	02H
	DD	FLAT:__unwindfunclet$?SK_LoadLateImports32@@YAXXZ$6
	DD	04H
	DD	FLAT:__unwindfunclet$?SK_LoadLateImports32@@YAXXZ$7
	DD	04H
	DD	FLAT:__unwindfunclet$?SK_LoadLateImports32@@YAXXZ$8
__unwindtable$?SK_LoadEarlyImports32@@YAXXZ DD 0ffffffffH
	DD	FLAT:__unwindfunclet$?SK_LoadEarlyImports32@@YAXXZ$0
	DD	00H
	DD	FLAT:__unwindfunclet$?SK_LoadEarlyImports32@@YAXXZ$2
	DD	0ffffffffH
	DD	FLAT:__unwindfunclet$?SK_LoadEarlyImports32@@YAXXZ$2
	DD	02H
	DD	FLAT:__unwindfunclet$?SK_LoadEarlyImports32@@YAXXZ$3
	DD	02H
	DD	FLAT:__unwindfunclet$?SK_LoadEarlyImports32@@YAXXZ$6
	DD	04H
	DD	FLAT:__unwindfunclet$?SK_LoadEarlyImports32@@YAXXZ$7
	DD	04H
	DD	FLAT:__unwindfunclet$?SK_LoadEarlyImports32@@YAXXZ$8
__unwindtable$?SK_LoadPlugIns64@@YAXXZ DD 0ffffffffH
	DD	FLAT:__unwindfunclet$?SK_LoadPlugIns64@@YAXXZ$0
	DD	00H
	DD	FLAT:__unwindfunclet$?SK_LoadPlugIns64@@YAXXZ$2
	DD	0ffffffffH
	DD	FLAT:__unwindfunclet$?SK_LoadPlugIns64@@YAXXZ$2
	DD	02H
	DD	FLAT:__unwindfunclet$?SK_LoadPlugIns64@@YAXXZ$3
	DD	02H
	DD	FLAT:__unwindfunclet$?SK_LoadPlugIns64@@YAXXZ$6
	DD	04H
	DD	FLAT:__unwindfunclet$?SK_LoadPlugIns64@@YAXXZ$7
	DD	04H
	DD	FLAT:__unwindfunclet$?SK_LoadPlugIns64@@YAXXZ$8
__unwindtable$?SK_LoadLazyImports64@@YAXXZ DD 0ffffffffH
	DD	FLAT:__unwindfunclet$?SK_LoadLazyImports64@@YAXXZ$0
	DD	00H
	DD	FLAT:__unwindfunclet$?SK_LoadLazyImports64@@YAXXZ$2
	DD	0ffffffffH
	DD	FLAT:__unwindfunclet$?SK_LoadLazyImports64@@YAXXZ$2
	DD	02H
	DD	FLAT:__unwindfunclet$?SK_LoadLazyImports64@@YAXXZ$3
	DD	02H
	DD	FLAT:__unwindfunclet$?SK_LoadLazyImports64@@YAXXZ$6
	DD	04H
	DD	FLAT:__unwindfunclet$?SK_LoadLazyImports64@@YAXXZ$7
	DD	04H
	DD	FLAT:__unwindfunclet$?SK_LoadLazyImports64@@YAXXZ$8
__unwindtable$?SK_LoadLateImports64@@YAXXZ DD 0ffffffffH
	DD	FLAT:__unwindfunclet$?SK_LoadLateImports64@@YAXXZ$0
	DD	00H
	DD	FLAT:__unwindfunclet$?SK_LoadLateImports64@@YAXXZ$2
	DD	0ffffffffH
	DD	FLAT:__unwindfunclet$?SK_LoadLateImports64@@YAXXZ$2
	DD	02H
	DD	FLAT:__unwindfunclet$?SK_LoadLateImports64@@YAXXZ$3
	DD	02H
	DD	FLAT:__unwindfunclet$?SK_LoadLateImports64@@YAXXZ$6
	DD	04H
	DD	FLAT:__unwindfunclet$?SK_LoadLateImports64@@YAXXZ$7
	DD	04H
	DD	FLAT:__unwindfunclet$?SK_LoadLateImports64@@YAXXZ$8
__unwindtable$?SK_LoadEarlyImports64@@YAXXZ DD 0ffffffffH
	DD	FLAT:__unwindfunclet$?SK_LoadEarlyImports64@@YAXXZ$0
	DD	00H
	DD	FLAT:__unwindfunclet$?SK_LoadEarlyImports64@@YAXXZ$2
	DD	0ffffffffH
	DD	FLAT:__unwindfunclet$?SK_LoadEarlyImports64@@YAXXZ$2
	DD	02H
	DD	FLAT:__unwindfunclet$?SK_LoadEarlyImports64@@YAXXZ$3
	DD	02H
	DD	FLAT:__unwindfunclet$?SK_LoadEarlyImports64@@YAXXZ$6
	DD	04H
	DD	FLAT:__unwindfunclet$?SK_LoadEarlyImports64@@YAXXZ$7
	DD	04H
	DD	FLAT:__unwindfunclet$?SK_LoadEarlyImports64@@YAXXZ$8
xdata$x	ENDS
;	COMDAT xdata$x
xdata$x	SEGMENT
__ehfuncinfo$??0import_s@@QAE@XZ DD 019930522H
	DD	00H
	DD	00H
	DD	2 DUP(00H)
	DD	2 DUP(00H)
	DD	00H
	DD	05H
xdata$x	ENDS
;	COMDAT xdata$x
xdata$x	SEGMENT
__catchsym$?_Copy@?$basic_string@_WU?$char_traits@_W@std@@V?$allocator@_W@2@@std@@QAEXI@Z$18 DD 040H
	DD	00H
	DD	00H
	DD	FLAT:__catch$?_Copy@?$basic_string@_WU?$char_traits@_W@std@@V?$allocator@_W@2@@std@@QAEXI@Z$0
__unwindtable$?_Copy@?$basic_string@_WU?$char_traits@_W@std@@V?$allocator@_W@2@@std@@QAEXI@Z DD 0ffffffffH
	DD	00H
	DD	0ffffffffH
	DD	00H
__tryblocktable$?_Copy@?$basic_string@_WU?$char_traits@_W@std@@V?$allocator@_W@2@@std@@QAEXI@Z DD 00H
	DD	00H
	DD	01H
	DD	01H
	DD	FLAT:__catchsym$?_Copy@?$basic_string@_WU?$char_traits@_W@std@@V?$allocator@_W@2@@std@@QAEXI@Z$18
__ehfuncinfo$?_Copy@?$basic_string@_WU?$char_traits@_W@std@@V?$allocator@_W@2@@std@@QAEXI@Z DD 019930522H
	DD	02H
	DD	FLAT:__unwindtable$?_Copy@?$basic_string@_WU?$char_traits@_W@std@@V?$allocator@_W@2@@std@@QAEXI@Z
	DD	01H
	DD	FLAT:__tryblocktable$?_Copy@?$basic_string@_WU?$char_traits@_W@std@@V?$allocator@_W@2@@std@@QAEXI@Z
	DD	2 DUP(00H)
	DD	00H
	DD	01H
xdata$x	ENDS
;	COMDAT xdata$x
xdata$x	SEGMENT
__unwindtable$??__F_AtlComModule@ATL@@YAXXZ DD 0ffffffffH
	DD	FLAT:___std_terminate
__ehfuncinfo$??__F_AtlComModule@ATL@@YAXXZ DD 019930522H
	DD	01H
	DD	FLAT:__unwindtable$??__F_AtlComModule@ATL@@YAXXZ
	DD	2 DUP(00H)
	DD	2 DUP(00H)
	DD	00H
	DD	01H
xdata$x	ENDS
;	COMDAT xdata$x
xdata$x	SEGMENT
__ehfuncinfo$??1CAtlComModule@ATL@@QAE@XZ DD 019930522H
	DD	00H
	DD	00H
	DD	2 DUP(00H)
	DD	2 DUP(00H)
	DD	00H
	DD	05H
xdata$x	ENDS
;	COMDAT CRT$XCU
CRT$XCU	SEGMENT
?_AtlWinModule$initializer$@ATL@@3P6AXXZA DD FLAT:??__E_AtlWinModule@ATL@@YAXXZ ; ATL::_AtlWinModule$initializer$
CRT$XCU	ENDS
CRT$XCU	SEGMENT
?SK_IMPORT_EARLY$initializer$@@3P6AXXZA DD FLAT:??__ESK_IMPORT_EARLY@@YAXXZ ; SK_IMPORT_EARLY$initializer$
CRT$XCU	ENDS
CRT$XCU	SEGMENT
?SK_IMPORT_PLUGIN$initializer$@@3P6AXXZA DD FLAT:??__ESK_IMPORT_PLUGIN@@YAXXZ ; SK_IMPORT_PLUGIN$initializer$
CRT$XCU	ENDS
CRT$XCU	SEGMENT
?SK_IMPORT_LATE$initializer$@@3P6AXXZA DD FLAT:??__ESK_IMPORT_LATE@@YAXXZ ; SK_IMPORT_LATE$initializer$
CRT$XCU	ENDS
CRT$XCU	SEGMENT
?SK_IMPORT_LAZY$initializer$@@3P6AXXZA DD FLAT:??__ESK_IMPORT_LAZY@@YAXXZ ; SK_IMPORT_LAZY$initializer$
CRT$XCU	ENDS
CRT$XCU	SEGMENT
?SK_IMPORT_PROXY$initializer$@@3P6AXXZA DD FLAT:??__ESK_IMPORT_PROXY@@YAXXZ ; SK_IMPORT_PROXY$initializer$
CRT$XCU	ENDS
CRT$XCU	SEGMENT
?SK_IMPORT_ROLE_DXGI$initializer$@@3P6AXXZA DD FLAT:??__ESK_IMPORT_ROLE_DXGI@@YAXXZ ; SK_IMPORT_ROLE_DXGI$initializer$
CRT$XCU	ENDS
CRT$XCU	SEGMENT
?SK_IMPORT_ROLE_D3D11$initializer$@@3P6AXXZA DD FLAT:??__ESK_IMPORT_ROLE_D3D11@@YAXXZ ; SK_IMPORT_ROLE_D3D11$initializer$
CRT$XCU	ENDS
CRT$XCU	SEGMENT
?SK_IMPORT_ROLE_D3D9$initializer$@@3P6AXXZA DD FLAT:??__ESK_IMPORT_ROLE_D3D9@@YAXXZ ; SK_IMPORT_ROLE_D3D9$initializer$
CRT$XCU	ENDS
CRT$XCU	SEGMENT
?SK_IMPORT_ROLE_OPENGL$initializer$@@3P6AXXZA DD FLAT:??__ESK_IMPORT_ROLE_OPENGL@@YAXXZ ; SK_IMPORT_ROLE_OPENGL$initializer$
CRT$XCU	ENDS
CRT$XCU	SEGMENT
?SK_IMPORT_ROLE_PLUGIN$initializer$@@3P6AXXZA DD FLAT:??__ESK_IMPORT_ROLE_PLUGIN@@YAXXZ ; SK_IMPORT_ROLE_PLUGIN$initializer$
CRT$XCU	ENDS
CRT$XCU	SEGMENT
?SK_IMPORT_ROLE_3RDPARTY$initializer$@@3P6AXXZA DD FLAT:??__ESK_IMPORT_ROLE_3RDPARTY@@YAXXZ ; SK_IMPORT_ROLE_3RDPARTY$initializer$
CRT$XCU	ENDS
CRT$XCU	SEGMENT
?SK_IMPORT_ARCH_X64$initializer$@@3P6AXXZA DD FLAT:??__ESK_IMPORT_ARCH_X64@@YAXXZ ; SK_IMPORT_ARCH_X64$initializer$
CRT$XCU	ENDS
CRT$XCU	SEGMENT
?SK_IMPORT_ARCH_WIN32$initializer$@@3P6AXXZA DD FLAT:??__ESK_IMPORT_ARCH_WIN32@@YAXXZ ; SK_IMPORT_ARCH_WIN32$initializer$
CRT$XCU	ENDS
CRT$XCU	SEGMENT
?imports$initializer$@@3P6AXXZA DD FLAT:??__Eimports@@YAXXZ ; imports$initializer$
CRT$XCU	ENDS
CRT$XCU	SEGMENT
?host_executable$initializer$@@3P6AXXZA DD FLAT:??__Ehost_executable@@YAXXZ ; host_executable$initializer$
CRT$XCU	ENDS
; Function compile flags: /Ogtp
; File c:\program files (x86)\microsoft visual studio\2017\community\vc\tools\msvc\14.10.25017\include\xmemory0
;	COMDAT ??$construct@PA_WAAPA_W@?$allocator@_W@std@@QAEXPAPA_WAAPA_W@Z
_TEXT	SEGMENT
__Ptr$ = 8						; size = 4
_<_Args_0>$ = 12					; size = 4
??$construct@PA_WAAPA_W@?$allocator@_W@std@@QAEXPAPA_WAAPA_W@Z PROC ; std::allocator<wchar_t>::construct<wchar_t *,wchar_t * &>, COMDAT
; _this$ = ecx

; 839  : 		{	// construct _Objty(_Types...) at _Ptr

	npad	2
	push	ebp
	mov	ebp, esp

; 840  : 		::new ((void *)_Ptr) _Objty(_STD forward<_Types>(_Args)...);

	mov	ecx, DWORD PTR __Ptr$[ebp]
	test	ecx, ecx
	je	SHORT $LN3@construct
	mov	eax, DWORD PTR _<_Args_0>$[ebp]
	mov	eax, DWORD PTR [eax]
	mov	DWORD PTR [ecx], eax
$LN3@construct:

; 841  : 		}

	pop	ebp
	ret	8
??$construct@PA_WAAPA_W@?$allocator@_W@std@@QAEXPAPA_WAAPA_W@Z ENDP ; std::allocator<wchar_t>::construct<wchar_t *,wchar_t * &>
_TEXT	ENDS
; Function compile flags: /Ogtp
; File c:\program files (x86)\microsoft visual studio\2017\community\vc\tools\msvc\14.10.25017\include\xmemory0
;	COMDAT ??$destroy@PA_W@?$allocator@_W@std@@QAEXPAPA_W@Z
_TEXT	SEGMENT
__Ptr$ = 8						; size = 4
??$destroy@PA_W@?$allocator@_W@std@@QAEXPAPA_W@Z PROC	; std::allocator<wchar_t>::destroy<wchar_t *>, COMDAT
; _this$ = ecx

; 846  : 		_Ptr->~_Uty();
; 847  : 		}

	ret	4
??$destroy@PA_W@?$allocator@_W@std@@QAEXPAPA_W@Z ENDP	; std::allocator<wchar_t>::destroy<wchar_t *>
_TEXT	ENDS
; Function compile flags: /Ogtp
; File c:\program files (x86)\microsoft visual studio\2017\community\vc\tools\msvc\14.10.25017\include\xstring
; File c:\program files (x86)\microsoft visual studio\2017\community\vc\tools\msvc\14.10.25017\include\iosfwd
; File c:\program files (x86)\windows kits\10\include\10.0.10240.0\ucrt\wchar.h
; File c:\program files (x86)\microsoft visual studio\2017\community\vc\tools\msvc\14.10.25017\include\xstring
; File c:\program files (x86)\windows kits\10\include\10.0.10240.0\ucrt\wchar.h
; File c:\program files (x86)\microsoft visual studio\2017\community\vc\tools\msvc\14.10.25017\include\xstring
;	COMDAT ??$_Traits_equal@U?$char_traits@_W@std@@@std@@YA_NQB_WI0I@Z
_TEXT	SEGMENT
__Left$ = 8						; size = 4
__Left_size$ = 12					; size = 4
__Right$ = 16						; size = 4
__Right_size$ = 20					; size = 4
??$_Traits_equal@U?$char_traits@_W@std@@@std@@YA_NQB_WI0I@Z PROC ; std::_Traits_equal<std::char_traits<wchar_t> >, COMDAT

; 24   : 	{	// compare [_Left, _Left + _Left_size) to [_Right, _Right + _Right_size) for equality using _Traits

	npad	2
	push	ebp
	mov	ebp, esp
	push	esi

; 25   : 	return (_Left_size == _Right_size && _Traits::compare(_Left, _Right, _Left_size) == 0);

	mov	esi, DWORD PTR __Left_size$[ebp]
	cmp	esi, DWORD PTR __Right_size$[ebp]
	jne	SHORT $LN3@Traits_equ
; File c:\program files (x86)\microsoft visual studio\2017\community\vc\tools\msvc\14.10.25017\include\iosfwd

; 284  : 		return (_CSTD wmemcmp(_First1, _First2, _Count));

	mov	ecx, DWORD PTR __Right$[ebp]
	mov	edx, DWORD PTR __Left$[ebp]
; File c:\program files (x86)\windows kits\10\include\10.0.10240.0\ucrt\wchar.h

; 216  :         for (; 0 < _N; ++_S1, ++_S2, --_N)

	test	esi, esi
	je	SHORT $LN19@Traits_equ
$LL11@Traits_equ:

; 217  :             if (*_S1 != *_S2)

	mov	ax, WORD PTR [edx]
	cmp	ax, WORD PTR [ecx]
	jne	SHORT $LN15@Traits_equ

; 216  :         for (; 0 < _N; ++_S1, ++_S2, --_N)

	add	edx, 2
	add	ecx, 2
	sub	esi, 1
	jne	SHORT $LL11@Traits_equ
; File c:\program files (x86)\microsoft visual studio\2017\community\vc\tools\msvc\14.10.25017\include\xstring

; 25   : 	return (_Left_size == _Right_size && _Traits::compare(_Left, _Right, _Left_size) == 0);

	mov	al, 1
	pop	esi

; 26   : 	}

	pop	ebp
	ret	0
$LN15@Traits_equ:
; File c:\program files (x86)\windows kits\10\include\10.0.10240.0\ucrt\wchar.h

; 218  :                 return *_S1 < *_S2 ? -1 : 1;

	movzx	eax, WORD PTR [edx]
	cmp	ax, WORD PTR [ecx]
	sbb	eax, eax
	and	eax, -2					; fffffffeH
	add	eax, 1
; File c:\program files (x86)\microsoft visual studio\2017\community\vc\tools\msvc\14.10.25017\include\xstring

; 25   : 	return (_Left_size == _Right_size && _Traits::compare(_Left, _Right, _Left_size) == 0);

	jne	SHORT $LN3@Traits_equ
$LN19@Traits_equ:
	mov	al, 1
	pop	esi

; 26   : 	}

	pop	ebp
	ret	0
$LN3@Traits_equ:

; 25   : 	return (_Left_size == _Right_size && _Traits::compare(_Left, _Right, _Left_size) == 0);

	xor	al, al
	pop	esi

; 26   : 	}

	pop	ebp
	ret	0
??$_Traits_equal@U?$char_traits@_W@std@@@std@@YA_NQB_WI0I@Z ENDP ; std::_Traits_equal<std::char_traits<wchar_t> >
_TEXT	ENDS
; Function compile flags: /Ogtp
; File c:\program files (x86)\microsoft visual studio\2017\community\vc\tools\msvc\14.10.25017\include\xmemory0
;	COMDAT ??$construct@PA_WAAPA_W@?$allocator_traits@V?$allocator@_W@std@@@std@@SAXAAV?$allocator@_W@1@PAPA_WAAPA_W@Z
_TEXT	SEGMENT
__Al$ = 8						; size = 4
__Ptr$ = 12						; size = 4
_<_Args_0>$ = 16					; size = 4
??$construct@PA_WAAPA_W@?$allocator_traits@V?$allocator@_W@std@@@std@@SAXAAV?$allocator@_W@1@PAPA_WAAPA_W@Z PROC ; std::allocator_traits<std::allocator<wchar_t> >::construct<wchar_t *,wchar_t * &>, COMDAT

; 958  : 		{	// construct _Objty(_Types...) at _Ptr

	npad	2
	push	ebp
	mov	ebp, esp

; 840  : 		::new ((void *)_Ptr) _Objty(_STD forward<_Types>(_Args)...);

	mov	ecx, DWORD PTR __Ptr$[ebp]
	test	ecx, ecx
	je	SHORT $LN8@construct
	mov	eax, DWORD PTR _<_Args_0>$[ebp]
	mov	eax, DWORD PTR [eax]
	mov	DWORD PTR [ecx], eax
$LN8@construct:

; 959  : 		_Al.construct(_Ptr, _STD forward<_Types>(_Args)...);
; 960  : 		}

	pop	ebp
	ret	0
??$construct@PA_WAAPA_W@?$allocator_traits@V?$allocator@_W@std@@@std@@SAXAAV?$allocator@_W@1@PAPA_WAAPA_W@Z ENDP ; std::allocator_traits<std::allocator<wchar_t> >::construct<wchar_t *,wchar_t * &>
_TEXT	ENDS
; Function compile flags: /Ogtp
; File c:\program files (x86)\microsoft visual studio\2017\community\vc\tools\msvc\14.10.25017\include\type_traits
;	COMDAT ??$forward@AAPA_W@std@@YAAAPA_WAAPA_W@Z
_TEXT	SEGMENT
__Arg$ = 8						; size = 4
??$forward@AAPA_W@std@@YAAAPA_WAAPA_W@Z PROC		; std::forward<wchar_t * &>, COMDAT

; 1334 : 	{	// forward an lvalue as either an lvalue or an rvalue

	npad	2
	push	ebp
	mov	ebp, esp

; 1335 : 	return (static_cast<_Ty&&>(_Arg));

	mov	eax, DWORD PTR __Arg$[ebp]

; 1336 : 	}

	pop	ebp
	ret	0
??$forward@AAPA_W@std@@YAAAPA_WAAPA_W@Z ENDP		; std::forward<wchar_t * &>
_TEXT	ENDS
; Function compile flags: /Ogtp
; File c:\program files (x86)\microsoft visual studio\2017\community\vc\tools\msvc\14.10.25017\include\xmemory0
;	COMDAT ??$destroy@PA_W@?$allocator_traits@V?$allocator@_W@std@@@std@@SAXAAV?$allocator@_W@1@PAPA_W@Z
_TEXT	SEGMENT
__Al$ = 8						; size = 4
__Ptr$ = 12						; size = 4
??$destroy@PA_W@?$allocator_traits@V?$allocator@_W@std@@@std@@SAXAAV?$allocator@_W@1@PAPA_W@Z PROC ; std::allocator_traits<std::allocator<wchar_t> >::destroy<wchar_t *>, COMDAT

; 965  : 		_Al.destroy(_Ptr);
; 966  : 		}

	ret	0
??$destroy@PA_W@?$allocator_traits@V?$allocator@_W@std@@@std@@SAXAAV?$allocator@_W@1@PAPA_W@Z ENDP ; std::allocator_traits<std::allocator<wchar_t> >::destroy<wchar_t *>
_TEXT	ENDS
; Function compile flags: /Ogtp
; File c:\program files (x86)\microsoft visual studio\2017\community\vc\tools\msvc\14.10.25017\include\xmemory0
;	COMDAT ??$_Pocma@U?$_Wrap_alloc@V?$allocator@_W@std@@@std@@@std@@YAXAAU?$_Wrap_alloc@V?$allocator@_W@std@@@0@0U?$integral_constant@_N$00@0@@Z
_TEXT	SEGMENT
__Left$ = 8						; size = 4
__Right$ = 12						; size = 4
___formal$ = 16						; size = 1
??$_Pocma@U?$_Wrap_alloc@V?$allocator@_W@std@@@std@@@std@@YAXAAU?$_Wrap_alloc@V?$allocator@_W@std@@@0@0U?$integral_constant@_N$00@0@@Z PROC ; std::_Pocma<std::_Wrap_alloc<std::allocator<wchar_t> > >, COMDAT

; 1152 : 	_Left = _STD move(_Right);
; 1153 : 	}

	ret	0
??$_Pocma@U?$_Wrap_alloc@V?$allocator@_W@std@@@std@@@std@@YAXAAU?$_Wrap_alloc@V?$allocator@_W@std@@@0@0U?$integral_constant@_N$00@0@@Z ENDP ; std::_Pocma<std::_Wrap_alloc<std::allocator<wchar_t> > >
_TEXT	ENDS
; Function compile flags: /Ogtp
; File c:\program files (x86)\microsoft visual studio\2017\community\vc\tools\msvc\14.10.25017\include\xutility
; File c:\program files (x86)\microsoft visual studio\2017\community\vc\tools\msvc\14.10.25017\include\xstring
; File c:\program files (x86)\microsoft visual studio\2017\community\vc\tools\msvc\14.10.25017\include\xutility
; File c:\program files (x86)\microsoft visual studio\2017\community\vc\tools\msvc\14.10.25017\include\xstring
; File c:\program files (x86)\microsoft visual studio\2017\community\vc\tools\msvc\14.10.25017\include\xutility
;	COMDAT ??$?0U?$_Wrap_alloc@V?$allocator@_W@std@@@std@@$$V@?$_Compressed_pair@U?$_Wrap_alloc@V?$allocator@_W@std@@@std@@V?$_String_val@U?$_Simple_types@_W@std@@@2@$00@std@@QAE@U_One_then_variadic_args_t@1@$$QAU?$_Wrap_alloc@V?$allocator@_W@std@@@1@@Z
_TEXT	SEGMENT
___formal$ = 8						; size = 1
__Val1$ = 12						; size = 4
??$?0U?$_Wrap_alloc@V?$allocator@_W@std@@@std@@$$V@?$_Compressed_pair@U?$_Wrap_alloc@V?$allocator@_W@std@@@std@@V?$_String_val@U?$_Simple_types@_W@std@@@2@$00@std@@QAE@U_One_then_variadic_args_t@1@$$QAU?$_Wrap_alloc@V?$allocator@_W@std@@@1@@Z PROC ; std::_Compressed_pair<std::_Wrap_alloc<std::allocator<wchar_t> >,std::_String_val<std::_Simple_types<wchar_t> >,1>::_Compressed_pair<std::_Wrap_alloc<std::allocator<wchar_t> >,std::_String_val<std::_Simple_types<wchar_t> >,1><std::_Wrap_alloc<std::allocator<wchar_t> > >, COMDAT
; _this$ = ecx
; File c:\program files (x86)\microsoft visual studio\2017\community\vc\tools\msvc\14.10.25017\include\xstring

; 1595 : 		_Mysize(0),

	mov	DWORD PTR [ecx+16], 0
; File c:\program files (x86)\microsoft visual studio\2017\community\vc\tools\msvc\14.10.25017\include\xutility

; 313  : 		}

	mov	eax, ecx
; File c:\program files (x86)\microsoft visual studio\2017\community\vc\tools\msvc\14.10.25017\include\xstring

; 1596 : 		_Myres(0)

	mov	DWORD PTR [ecx+20], 0
; File c:\program files (x86)\microsoft visual studio\2017\community\vc\tools\msvc\14.10.25017\include\xutility

; 313  : 		}

	ret	8
??$?0U?$_Wrap_alloc@V?$allocator@_W@std@@@std@@$$V@?$_Compressed_pair@U?$_Wrap_alloc@V?$allocator@_W@std@@@std@@V?$_String_val@U?$_Simple_types@_W@std@@@2@$00@std@@QAE@U_One_then_variadic_args_t@1@$$QAU?$_Wrap_alloc@V?$allocator@_W@std@@@1@@Z ENDP ; std::_Compressed_pair<std::_Wrap_alloc<std::allocator<wchar_t> >,std::_String_val<std::_Simple_types<wchar_t> >,1>::_Compressed_pair<std::_Wrap_alloc<std::allocator<wchar_t> >,std::_String_val<std::_Simple_types<wchar_t> >,1><std::_Wrap_alloc<std::allocator<wchar_t> > >
_TEXT	ENDS
; Function compile flags: /Ogtp
; File c:\program files (x86)\microsoft visual studio\2017\community\vc\tools\msvc\14.10.25017\include\type_traits
;	COMDAT ??$forward@U?$_Wrap_alloc@V?$allocator@_W@std@@@std@@@std@@YA$$QAU?$_Wrap_alloc@V?$allocator@_W@std@@@0@AAU10@@Z
_TEXT	SEGMENT
__Arg$ = 8						; size = 4
??$forward@U?$_Wrap_alloc@V?$allocator@_W@std@@@std@@@std@@YA$$QAU?$_Wrap_alloc@V?$allocator@_W@std@@@0@AAU10@@Z PROC ; std::forward<std::_Wrap_alloc<std::allocator<wchar_t> > >, COMDAT

; 1334 : 	{	// forward an lvalue as either an lvalue or an rvalue

	npad	2
	push	ebp
	mov	ebp, esp

; 1335 : 	return (static_cast<_Ty&&>(_Arg));

	mov	eax, DWORD PTR __Arg$[ebp]

; 1336 : 	}

	pop	ebp
	ret	0
??$forward@U?$_Wrap_alloc@V?$allocator@_W@std@@@std@@@std@@YA$$QAU?$_Wrap_alloc@V?$allocator@_W@std@@@0@AAU10@@Z ENDP ; std::forward<std::_Wrap_alloc<std::allocator<wchar_t> > >
_TEXT	ENDS
; Function compile flags: /Ogtp
; File c:\program files (x86)\microsoft visual studio\2017\community\vc\tools\msvc\14.10.25017\include\type_traits
;	COMDAT ??$move@AAPAUHINSTANCE__@@@std@@YA$$QAPAUHINSTANCE__@@AAPAU1@@Z
_TEXT	SEGMENT
__Arg$ = 8						; size = 4
??$move@AAPAUHINSTANCE__@@@std@@YA$$QAPAUHINSTANCE__@@AAPAU1@@Z PROC ; std::move<HINSTANCE__ * &>, COMDAT

; 1350 : 	{	// forward _Arg as movable

	npad	2
	push	ebp
	mov	ebp, esp

; 1351 : 	return (static_cast<typename remove_reference<_Ty>::type&&>(_Arg));

	mov	eax, DWORD PTR __Arg$[ebp]

; 1352 : 	}

	pop	ebp
	ret	0
??$move@AAPAUHINSTANCE__@@@std@@YA$$QAPAUHINSTANCE__@@AAPAU1@@Z ENDP ; std::move<HINSTANCE__ * &>
_TEXT	ENDS
; Function compile flags: /Ogtp
; File c:\program files (x86)\microsoft visual studio\2017\community\vc\tools\msvc\14.10.25017\include\xmemory0
;	COMDAT ??$construct@PA_WAAPA_W@?$_Wrap_alloc@V?$allocator@_W@std@@@std@@QAEXPAPA_WAAPA_W@Z
_TEXT	SEGMENT
__Ptr$ = 8						; size = 4
_<_Args_0>$ = 12					; size = 4
??$construct@PA_WAAPA_W@?$_Wrap_alloc@V?$allocator@_W@std@@@std@@QAEXPAPA_WAAPA_W@Z PROC ; std::_Wrap_alloc<std::allocator<wchar_t> >::construct<wchar_t *,wchar_t * &>, COMDAT
; _this$ = ecx

; 1095 : 		{	// construct _Ty(_Types...) at _Ptr

	npad	2
	push	ebp
	mov	ebp, esp

; 840  : 		::new ((void *)_Ptr) _Objty(_STD forward<_Types>(_Args)...);

	mov	ecx, DWORD PTR __Ptr$[ebp]
	test	ecx, ecx
	je	SHORT $LN13@construct
	mov	eax, DWORD PTR _<_Args_0>$[ebp]
	mov	eax, DWORD PTR [eax]
	mov	DWORD PTR [ecx], eax
$LN13@construct:

; 1096 : 		_Mytraits::construct(*this, _Ptr,
; 1097 : 			_STD forward<_Types>(_Args)...);
; 1098 : 		}

	pop	ebp
	ret	8
??$construct@PA_WAAPA_W@?$_Wrap_alloc@V?$allocator@_W@std@@@std@@QAEXPAPA_WAAPA_W@Z ENDP ; std::_Wrap_alloc<std::allocator<wchar_t> >::construct<wchar_t *,wchar_t * &>
_TEXT	ENDS
; Function compile flags: /Ogtp
; File c:\program files (x86)\microsoft visual studio\2017\community\vc\tools\msvc\14.10.25017\include\utility
;	COMDAT ??$_Min_value@I@std@@YAABIABI0@Z
_TEXT	SEGMENT
__Left$ = 8						; size = 4
__Right$ = 12						; size = 4
??$_Min_value@I@std@@YAABIABI0@Z PROC			; std::_Min_value<unsigned int>, COMDAT

; 22   : 	{	// return smaller of _Left and _Right

	npad	2
	push	ebp
	mov	ebp, esp

; 23   : 	return (_Right < _Left ? _Right : _Left);

	mov	edx, DWORD PTR __Right$[ebp]
	mov	eax, DWORD PTR __Left$[ebp]
	mov	ecx, DWORD PTR [edx]
	cmp	ecx, DWORD PTR [eax]
	cmovb	eax, edx

; 24   : 	}

	pop	ebp
	ret	0
??$_Min_value@I@std@@YAABIABI0@Z ENDP			; std::_Min_value<unsigned int>
_TEXT	ENDS
; Function compile flags: /Ogtp
; File c:\program files (x86)\microsoft visual studio\2017\community\vc\tools\msvc\14.10.25017\include\xstddef
;	COMDAT ??$_Unfancy@_W@std@@YAPA_WPA_W@Z
_TEXT	SEGMENT
__Ptr$ = 8						; size = 4
??$_Unfancy@_W@std@@YAPA_WPA_W@Z PROC			; std::_Unfancy<wchar_t>, COMDAT

; 642  : 	{	// do nothing for plain pointers

	npad	2
	push	ebp
	mov	ebp, esp

; 643  : 	return (_Ptr);

	mov	eax, DWORD PTR __Ptr$[ebp]

; 644  : 	}

	pop	ebp
	ret	0
??$_Unfancy@_W@std@@YAPA_WPA_W@Z ENDP			; std::_Unfancy<wchar_t>
_TEXT	ENDS
; Function compile flags: /Ogtp
; File c:\program files (x86)\microsoft visual studio\2017\community\vc\tools\msvc\14.10.25017\include\xstddef
;	COMDAT ??$addressof@V?$_String_val@U?$_Simple_types@_W@std@@@std@@@std@@YAPAV?$_String_val@U?$_Simple_types@_W@std@@@0@AAV10@@Z
_TEXT	SEGMENT
__Val$ = 8						; size = 4
??$addressof@V?$_String_val@U?$_Simple_types@_W@std@@@std@@@std@@YAPAV?$_String_val@U?$_Simple_types@_W@std@@@0@AAV10@@Z PROC ; std::addressof<std::_String_val<std::_Simple_types<wchar_t> > >, COMDAT

; 629  : 	{	// return address of _Val

	npad	2
	push	ebp
	mov	ebp, esp

; 630  : 	return (__builtin_addressof(_Val));

	mov	eax, DWORD PTR __Val$[ebp]

; 631  : 	}

	pop	ebp
	ret	0
??$addressof@V?$_String_val@U?$_Simple_types@_W@std@@@std@@@std@@YAPAV?$_String_val@U?$_Simple_types@_W@std@@@0@AAV10@@Z ENDP ; std::addressof<std::_String_val<std::_Simple_types<wchar_t> > >
_TEXT	ENDS
; Function compile flags: /Ogtp
; File c:\program files (x86)\microsoft visual studio\2017\community\vc\tools\msvc\14.10.25017\include\xmemory0
;	COMDAT ??$destroy@PA_W@?$_Wrap_alloc@V?$allocator@_W@std@@@std@@QAEXPAPA_W@Z
_TEXT	SEGMENT
__Ptr$ = 8						; size = 4
??$destroy@PA_W@?$_Wrap_alloc@V?$allocator@_W@std@@@std@@QAEXPAPA_W@Z PROC ; std::_Wrap_alloc<std::allocator<wchar_t> >::destroy<wchar_t *>, COMDAT
; _this$ = ecx

; 1103 : 		_Mytraits::destroy(*this, _Ptr);
; 1104 : 		}

	ret	4
??$destroy@PA_W@?$_Wrap_alloc@V?$allocator@_W@std@@@std@@QAEXPAPA_W@Z ENDP ; std::_Wrap_alloc<std::allocator<wchar_t> >::destroy<wchar_t *>
_TEXT	ENDS
; Function compile flags: /Ogtp
; File c:\program files (x86)\microsoft visual studio\2017\community\vc\tools\msvc\14.10.25017\include\xstddef
;	COMDAT ??$addressof@PA_W@std@@YAPAPA_WAAPA_W@Z
_TEXT	SEGMENT
__Val$ = 8						; size = 4
??$addressof@PA_W@std@@YAPAPA_WAAPA_W@Z PROC		; std::addressof<wchar_t *>, COMDAT

; 629  : 	{	// return address of _Val

	npad	2
	push	ebp
	mov	ebp, esp

; 630  : 	return (__builtin_addressof(_Val));

	mov	eax, DWORD PTR __Val$[ebp]

; 631  : 	}

	pop	ebp
	ret	0
??$addressof@PA_W@std@@YAPAPA_WAAPA_W@Z ENDP		; std::addressof<wchar_t *>
_TEXT	ENDS
; Function compile flags: /Ogtp
; File c:\program files (x86)\microsoft visual studio\2017\community\vc\tools\msvc\14.10.25017\include\xutility
; File c:\program files (x86)\microsoft visual studio\2017\community\vc\tools\msvc\14.10.25017\include\xstring
; File c:\program files (x86)\microsoft visual studio\2017\community\vc\tools\msvc\14.10.25017\include\xutility
; File c:\program files (x86)\microsoft visual studio\2017\community\vc\tools\msvc\14.10.25017\include\xstring
; File c:\program files (x86)\microsoft visual studio\2017\community\vc\tools\msvc\14.10.25017\include\xutility
;	COMDAT ??$?0$$V@?$_Compressed_pair@U?$_Wrap_alloc@V?$allocator@_W@std@@@std@@V?$_String_val@U?$_Simple_types@_W@std@@@2@$00@std@@QAE@U_Zero_then_variadic_args_t@1@@Z
_TEXT	SEGMENT
___formal$ = 8						; size = 1
??$?0$$V@?$_Compressed_pair@U?$_Wrap_alloc@V?$allocator@_W@std@@@std@@V?$_String_val@U?$_Simple_types@_W@std@@@2@$00@std@@QAE@U_Zero_then_variadic_args_t@1@@Z PROC ; std::_Compressed_pair<std::_Wrap_alloc<std::allocator<wchar_t> >,std::_String_val<std::_Simple_types<wchar_t> >,1>::_Compressed_pair<std::_Wrap_alloc<std::allocator<wchar_t> >,std::_String_val<std::_Simple_types<wchar_t> >,1><>, COMDAT
; _this$ = ecx
; File c:\program files (x86)\microsoft visual studio\2017\community\vc\tools\msvc\14.10.25017\include\xstring

; 1595 : 		_Mysize(0),

	mov	DWORD PTR [ecx+16], 0
; File c:\program files (x86)\microsoft visual studio\2017\community\vc\tools\msvc\14.10.25017\include\xutility

; 304  : 		}

	mov	eax, ecx
; File c:\program files (x86)\microsoft visual studio\2017\community\vc\tools\msvc\14.10.25017\include\xstring

; 1596 : 		_Myres(0)

	mov	DWORD PTR [ecx+20], 0
; File c:\program files (x86)\microsoft visual studio\2017\community\vc\tools\msvc\14.10.25017\include\xutility

; 304  : 		}

	ret	4
??$?0$$V@?$_Compressed_pair@U?$_Wrap_alloc@V?$allocator@_W@std@@@std@@V?$_String_val@U?$_Simple_types@_W@std@@@2@$00@std@@QAE@U_Zero_then_variadic_args_t@1@@Z ENDP ; std::_Compressed_pair<std::_Wrap_alloc<std::allocator<wchar_t> >,std::_String_val<std::_Simple_types<wchar_t> >,1>::_Compressed_pair<std::_Wrap_alloc<std::allocator<wchar_t> >,std::_String_val<std::_Simple_types<wchar_t> >,1><>
_TEXT	ENDS
; Function compile flags: /Ogtp
; File c:\program files (x86)\microsoft visual studio\2017\community\vc\tools\msvc\14.10.25017\include\xmemory0
;	COMDAT ??$_Pocma@U?$_Wrap_alloc@V?$allocator@_W@std@@@std@@@std@@YAXAAU?$_Wrap_alloc@V?$allocator@_W@std@@@0@0@Z
_TEXT	SEGMENT
__Left$ = 8						; size = 4
__Right$ = 12						; size = 4
??$_Pocma@U?$_Wrap_alloc@V?$allocator@_W@std@@@std@@@std@@YAXAAU?$_Wrap_alloc@V?$allocator@_W@std@@@0@0@Z PROC ; std::_Pocma<std::_Wrap_alloc<std::allocator<wchar_t> > >, COMDAT

; 1163 : 	typename _Alty::propagate_on_container_move_assignment _Tag;
; 1164 : 	_Pocma(_Left, _Right, _Tag);
; 1165 : 	}

	ret	0
??$_Pocma@U?$_Wrap_alloc@V?$allocator@_W@std@@@std@@@std@@YAXAAU?$_Wrap_alloc@V?$allocator@_W@std@@@0@0@Z ENDP ; std::_Pocma<std::_Wrap_alloc<std::allocator<wchar_t> > >
_TEXT	ENDS
; Function compile flags: /Ogtp
; File c:\program files (x86)\microsoft visual studio\2017\community\vc\tools\msvc\14.10.25017\include\xstring
;	COMDAT ??$?0U?$_Wrap_alloc@V?$allocator@_W@std@@@std@@X@?$_String_alloc@U?$_String_base_types@_WV?$allocator@_W@std@@@std@@@std@@QAE@$$QAU?$_Wrap_alloc@V?$allocator@_W@std@@@1@@Z
_TEXT	SEGMENT
__Al$ = 8						; size = 4
??$?0U?$_Wrap_alloc@V?$allocator@_W@std@@@std@@X@?$_String_alloc@U?$_String_base_types@_WV?$allocator@_W@std@@@std@@@std@@QAE@$$QAU?$_Wrap_alloc@V?$allocator@_W@std@@@1@@Z PROC ; std::_String_alloc<std::_String_base_types<wchar_t,std::allocator<wchar_t> > >::_String_alloc<std::_String_base_types<wchar_t,std::allocator<wchar_t> > ><std::_Wrap_alloc<std::allocator<wchar_t> >,void>, COMDAT
; _this$ = ecx

; 1595 : 		_Mysize(0),

	mov	DWORD PTR [ecx+16], 0

; 1705 : 		}

	mov	eax, ecx

; 1596 : 		_Myres(0)

	mov	DWORD PTR [ecx+20], 0

; 1705 : 		}

	ret	4
??$?0U?$_Wrap_alloc@V?$allocator@_W@std@@@std@@X@?$_String_alloc@U?$_String_base_types@_WV?$allocator@_W@std@@@std@@@std@@QAE@$$QAU?$_Wrap_alloc@V?$allocator@_W@std@@@1@@Z ENDP ; std::_String_alloc<std::_String_base_types<wchar_t,std::allocator<wchar_t> > >::_String_alloc<std::_String_base_types<wchar_t,std::allocator<wchar_t> > ><std::_Wrap_alloc<std::allocator<wchar_t> >,void>
_TEXT	ENDS
; Function compile flags: /Ogtp
; File c:\program files (x86)\microsoft visual studio\2017\community\vc\tools\msvc\14.10.25017\include\type_traits
;	COMDAT ??$move@AAU?$_Wrap_alloc@V?$allocator@_W@std@@@std@@@std@@YA$$QAU?$_Wrap_alloc@V?$allocator@_W@std@@@0@AAU10@@Z
_TEXT	SEGMENT
__Arg$ = 8						; size = 4
??$move@AAU?$_Wrap_alloc@V?$allocator@_W@std@@@std@@@std@@YA$$QAU?$_Wrap_alloc@V?$allocator@_W@std@@@0@AAU10@@Z PROC ; std::move<std::_Wrap_alloc<std::allocator<wchar_t> > &>, COMDAT

; 1350 : 	{	// forward _Arg as movable

	npad	2
	push	ebp
	mov	ebp, esp

; 1351 : 	return (static_cast<typename remove_reference<_Ty>::type&&>(_Arg));

	mov	eax, DWORD PTR __Arg$[ebp]

; 1352 : 	}

	pop	ebp
	ret	0
??$move@AAU?$_Wrap_alloc@V?$allocator@_W@std@@@std@@@std@@YA$$QAU?$_Wrap_alloc@V?$allocator@_W@std@@@0@AAU10@@Z ENDP ; std::move<std::_Wrap_alloc<std::allocator<wchar_t> > &>
_TEXT	ENDS
; Function compile flags: /Ogtp
; File c:\program files (x86)\microsoft visual studio\2017\community\vc\tools\msvc\14.10.25017\include\type_traits
;	COMDAT ??$move@AAV?$basic_string@_WU?$char_traits@_W@std@@V?$allocator@_W@2@@std@@@std@@YA$$QAV?$basic_string@_WU?$char_traits@_W@std@@V?$allocator@_W@2@@0@AAV10@@Z
_TEXT	SEGMENT
__Arg$ = 8						; size = 4
??$move@AAV?$basic_string@_WU?$char_traits@_W@std@@V?$allocator@_W@2@@std@@@std@@YA$$QAV?$basic_string@_WU?$char_traits@_W@std@@V?$allocator@_W@2@@0@AAV10@@Z PROC ; std::move<std::basic_string<wchar_t,std::char_traits<wchar_t>,std::allocator<wchar_t> > &>, COMDAT

; 1350 : 	{	// forward _Arg as movable

	npad	2
	push	ebp
	mov	ebp, esp

; 1351 : 	return (static_cast<typename remove_reference<_Ty>::type&&>(_Arg));

	mov	eax, DWORD PTR __Arg$[ebp]

; 1352 : 	}

	pop	ebp
	ret	0
??$move@AAV?$basic_string@_WU?$char_traits@_W@std@@V?$allocator@_W@2@@std@@@std@@YA$$QAV?$basic_string@_WU?$char_traits@_W@std@@V?$allocator@_W@2@@0@AAV10@@Z ENDP ; std::move<std::basic_string<wchar_t,std::char_traits<wchar_t>,std::allocator<wchar_t> > &>
_TEXT	ENDS
; Function compile flags: /Ogtp
; File c:\program files (x86)\microsoft visual studio\2017\community\vc\tools\msvc\14.10.25017\include\xstddef
;	COMDAT ??$addressof@V?$basic_string@_WU?$char_traits@_W@std@@V?$allocator@_W@2@@std@@@std@@YAPAV?$basic_string@_WU?$char_traits@_W@std@@V?$allocator@_W@2@@0@AAV10@@Z
_TEXT	SEGMENT
__Val$ = 8						; size = 4
??$addressof@V?$basic_string@_WU?$char_traits@_W@std@@V?$allocator@_W@2@@std@@@std@@YAPAV?$basic_string@_WU?$char_traits@_W@std@@V?$allocator@_W@2@@0@AAV10@@Z PROC ; std::addressof<std::basic_string<wchar_t,std::char_traits<wchar_t>,std::allocator<wchar_t> > >, COMDAT

; 629  : 	{	// return address of _Val

	npad	2
	push	ebp
	mov	ebp, esp

; 630  : 	return (__builtin_addressof(_Val));

	mov	eax, DWORD PTR __Val$[ebp]

; 631  : 	}

	pop	ebp
	ret	0
??$addressof@V?$basic_string@_WU?$char_traits@_W@std@@V?$allocator@_W@2@@std@@@std@@YAPAV?$basic_string@_WU?$char_traits@_W@std@@V?$allocator@_W@2@@0@AAV10@@Z ENDP ; std::addressof<std::basic_string<wchar_t,std::char_traits<wchar_t>,std::allocator<wchar_t> > >
_TEXT	ENDS
; Function compile flags: /Ogtp
; File c:\program files (x86)\microsoft visual studio\2017\community\vc\tools\msvc\14.10.25017\include\xstddef
;	COMDAT ??$addressof@$$CBV?$basic_string@_WU?$char_traits@_W@std@@V?$allocator@_W@2@@std@@@std@@YAPBV?$basic_string@_WU?$char_traits@_W@std@@V?$allocator@_W@2@@0@ABV10@@Z
_TEXT	SEGMENT
__Val$ = 8						; size = 4
??$addressof@$$CBV?$basic_string@_WU?$char_traits@_W@std@@V?$allocator@_W@2@@std@@@std@@YAPBV?$basic_string@_WU?$char_traits@_W@std@@V?$allocator@_W@2@@0@ABV10@@Z PROC ; std::addressof<std::basic_string<wchar_t,std::char_traits<wchar_t>,std::allocator<wchar_t> > const >, COMDAT

; 629  : 	{	// return address of _Val

	npad	2
	push	ebp
	mov	ebp, esp

; 630  : 	return (__builtin_addressof(_Val));

	mov	eax, DWORD PTR __Val$[ebp]

; 631  : 	}

	pop	ebp
	ret	0
??$addressof@$$CBV?$basic_string@_WU?$char_traits@_W@std@@V?$allocator@_W@2@@std@@@std@@YAPBV?$basic_string@_WU?$char_traits@_W@std@@V?$allocator@_W@2@@0@ABV10@@Z ENDP ; std::addressof<std::basic_string<wchar_t,std::char_traits<wchar_t>,std::allocator<wchar_t> > const >
_TEXT	ENDS
; Function compile flags: /Ogtp
; File c:\users\andon\source\repos\specialk\src\import.cpp
; File c:\program files (x86)\microsoft visual studio\2017\community\vc\tools\msvc\14.10.25017\include\xstring
; File c:\program files (x86)\microsoft visual studio\2017\community\vc\tools\msvc\14.10.25017\include\xstddef
; File c:\users\andon\source\repos\specialk\src\import.cpp
; File c:\program files (x86)\microsoft visual studio\2017\community\vc\tools\msvc\14.10.25017\include\xstring
; File c:\users\andon\source\repos\specialk\src\import.cpp
; File c:\program files (x86)\microsoft visual studio\2017\community\vc\tools\msvc\14.10.25017\include\xstring
; File c:\program files (x86)\microsoft visual studio\2017\community\vc\tools\msvc\14.10.25017\include\xmemory0
; File c:\program files (x86)\microsoft visual studio\2017\community\vc\tools\msvc\14.10.25017\include\xstring
; File c:\program files (x86)\microsoft visual studio\2017\community\vc\tools\msvc\14.10.25017\include\xmemory0
; File c:\users\andon\source\repos\specialk\src\import.cpp
; File c:\program files (x86)\microsoft visual studio\2017\community\vc\tools\msvc\14.10.25017\include\xstring
; File c:\program files (x86)\microsoft visual studio\2017\community\vc\tools\msvc\14.10.25017\include\xstddef
; File c:\users\andon\source\repos\specialk\src\import.cpp
; File c:\program files (x86)\microsoft visual studio\2017\community\vc\tools\msvc\14.10.25017\include\xstring
; File c:\users\andon\source\repos\specialk\src\import.cpp
; File c:\program files (x86)\microsoft visual studio\2017\community\vc\tools\msvc\14.10.25017\include\xstring
; File c:\program files (x86)\microsoft visual studio\2017\community\vc\tools\msvc\14.10.25017\include\xmemory0
; File c:\program files (x86)\microsoft visual studio\2017\community\vc\tools\msvc\14.10.25017\include\xstring
; File c:\program files (x86)\microsoft visual studio\2017\community\vc\tools\msvc\14.10.25017\include\xmemory0
; File c:\users\andon\source\repos\specialk\src\import.cpp
_TEXT	SEGMENT
$T1 = -24						; size = 24
$T2 = -24						; size = 24
_hLibrary$ = 8						; size = 4
?SK_InitPlugIn32@@YAPAUHINSTANCE__@@PAU1@@Z PROC	; SK_InitPlugIn32

; 474  : {

	npad	2
	push	ebp
	mov	ebp, esp
	sub	esp, 24					; 00000018H

; 475  :   dll_log.Log ( L"[ SpecialK ] [*] Initializing Plug-In: %s...",

	lea	eax, DWORD PTR $T2[ebp]
	push	esi
	mov	esi, DWORD PTR _hLibrary$[ebp]
	push	edi
	push	esi
	push	eax
	call	?SK_GetModuleName@@YA?AV?$basic_string@_WU?$char_traits@_W@std@@V?$allocator@_W@2@@std@@PAUHINSTANCE__@@@Z ; SK_GetModuleName
	add	esp, 8
; File c:\program files (x86)\microsoft visual studio\2017\community\vc\tools\msvc\14.10.25017\include\xstring

; 1628 : 		return (this->_BUF_SIZE <= _Myres);

	cmp	DWORD PTR [eax+20], 8

; 1621 : 		return (_Large_string_engaged()

	jb	SHORT $LN23@SK_InitPlu
; File c:\program files (x86)\microsoft visual studio\2017\community\vc\tools\msvc\14.10.25017\include\xstddef

; 643  : 	return (_Ptr);

	mov	eax, DWORD PTR [eax]
$LN23@SK_InitPlu:
; File c:\users\andon\source\repos\specialk\src\import.cpp

; 475  :   dll_log.Log ( L"[ SpecialK ] [*] Initializing Plug-In: %s...",

	push	eax
	push	OFFSET $SG151317
	push	OFFSET ?dll_log@@3UiSK_Logger@@A	; dll_log
	call	?Log@iSK_Logger@@UAAXQB_WZZ		; iSK_Logger::Log
; File c:\program files (x86)\microsoft visual studio\2017\community\vc\tools\msvc\14.10.25017\include\xstring

; 1628 : 		return (this->_BUF_SIZE <= _Myres);

	mov	eax, DWORD PTR $T2[ebp+20]
; File c:\users\andon\source\repos\specialk\src\import.cpp

; 475  :   dll_log.Log ( L"[ SpecialK ] [*] Initializing Plug-In: %s...",

	add	esp, 12					; 0000000cH
; File c:\program files (x86)\microsoft visual studio\2017\community\vc\tools\msvc\14.10.25017\include\xstring

; 1628 : 		return (this->_BUF_SIZE <= _Myres);

	cmp	eax, 8

; 3608 : 		if (_My_data._Large_string_engaged())

	jb	SHORT $LN33@SK_InitPlu
; File c:\program files (x86)\microsoft visual studio\2017\community\vc\tools\msvc\14.10.25017\include\xmemory0

; 823  : 		_Deallocate(_Ptr, _Count, sizeof (_Ty));

	push	2
; File c:\program files (x86)\microsoft visual studio\2017\community\vc\tools\msvc\14.10.25017\include\xstring

; 3613 : 			_Al.deallocate(_Ptr, _My_data._Myres + 1);

	inc	eax
; File c:\program files (x86)\microsoft visual studio\2017\community\vc\tools\msvc\14.10.25017\include\xmemory0

; 823  : 		_Deallocate(_Ptr, _Count, sizeof (_Ty));

	push	eax
	push	DWORD PTR $T2[ebp]
	call	?_Deallocate@std@@YAXPAXII@Z		; std::_Deallocate
	add	esp, 12					; 0000000cH
$LN33@SK_InitPlu:
; File c:\users\andon\source\repos\specialk\src\import.cpp

; 480  :       GetProcAddress (

	push	OFFSET $SG151318
	push	esi
	call	DWORD PTR __imp__GetProcAddress@8
	mov	edi, eax

; 481  :         hLibrary,
; 482  :           "SKPlugIn_Init"
; 483  :       )
; 484  :     );
; 485  : 
; 486  :   if (SKPlugIn_Init != nullptr)

	test	edi, edi
	je	SHORT $LN2@SK_InitPlu

; 487  :   {
; 488  :     if (SKPlugIn_Init (SK_GetDLL ()))

	call	?SK_GetDLL@@YGPAUHINSTANCE__@@XZ	; SK_GetDLL
	push	eax
	call	edi
	test	eax, eax
	je	SHORT $LN4@SK_InitPlu

; 490  :       dll_log.Log ( L"[ SpecialK ] [*] Plug-In Init Success (%s)!",

	lea	eax, DWORD PTR $T1[ebp]
	push	esi
	push	eax
	call	?SK_GetModuleName@@YA?AV?$basic_string@_WU?$char_traits@_W@std@@V?$allocator@_W@2@@std@@PAUHINSTANCE__@@@Z ; SK_GetModuleName
	add	esp, 8
; File c:\program files (x86)\microsoft visual studio\2017\community\vc\tools\msvc\14.10.25017\include\xstring

; 1628 : 		return (this->_BUF_SIZE <= _Myres);

	cmp	DWORD PTR [eax+20], 8

; 1621 : 		return (_Large_string_engaged()

	jb	SHORT $LN72@SK_InitPlu
; File c:\program files (x86)\microsoft visual studio\2017\community\vc\tools\msvc\14.10.25017\include\xstddef

; 643  : 	return (_Ptr);

	mov	eax, DWORD PTR [eax]
$LN72@SK_InitPlu:
; File c:\users\andon\source\repos\specialk\src\import.cpp

; 490  :       dll_log.Log ( L"[ SpecialK ] [*] Plug-In Init Success (%s)!",

	push	eax
	push	OFFSET $SG151323
	push	OFFSET ?dll_log@@3UiSK_Logger@@A	; dll_log
	call	?Log@iSK_Logger@@UAAXQB_WZZ		; iSK_Logger::Log
; File c:\program files (x86)\microsoft visual studio\2017\community\vc\tools\msvc\14.10.25017\include\xstring

; 1628 : 		return (this->_BUF_SIZE <= _Myres);

	mov	eax, DWORD PTR $T1[ebp+20]
; File c:\users\andon\source\repos\specialk\src\import.cpp

; 490  :       dll_log.Log ( L"[ SpecialK ] [*] Plug-In Init Success (%s)!",

	add	esp, 12					; 0000000cH
; File c:\program files (x86)\microsoft visual studio\2017\community\vc\tools\msvc\14.10.25017\include\xstring

; 1628 : 		return (this->_BUF_SIZE <= _Myres);

	cmp	eax, 8

; 3608 : 		if (_My_data._Large_string_engaged())

	jb	SHORT $LN3@SK_InitPlu
; File c:\program files (x86)\microsoft visual studio\2017\community\vc\tools\msvc\14.10.25017\include\xmemory0

; 823  : 		_Deallocate(_Ptr, _Count, sizeof (_Ty));

	push	2
; File c:\program files (x86)\microsoft visual studio\2017\community\vc\tools\msvc\14.10.25017\include\xstring

; 3613 : 			_Al.deallocate(_Ptr, _My_data._Myres + 1);

	inc	eax
; File c:\program files (x86)\microsoft visual studio\2017\community\vc\tools\msvc\14.10.25017\include\xmemory0

; 823  : 		_Deallocate(_Ptr, _Count, sizeof (_Ty));

	push	eax
	push	DWORD PTR $T1[ebp]
	call	?_Deallocate@std@@YAXPAXII@Z		; std::_Deallocate
	add	esp, 12					; 0000000cH
$LN3@SK_InitPlu:
; File c:\users\andon\source\repos\specialk\src\import.cpp

; 511  :   if (hLibrary != nullptr)

	test	esi, esi
	je	SHORT $LN108@SK_InitPlu

; 512  :     SK_SymRefreshModuleList ();

	call	DWORD PTR __imp__GetCurrentProcess@0
	push	eax
	call	?SK_SymRefreshModuleList@@YGXPAX@Z	; SK_SymRefreshModuleList
$LN108@SK_InitPlu:

; 513  : 
; 514  :   return hLibrary;

	pop	edi
	mov	eax, esi
	pop	esi

; 515  : }

	mov	esp, ebp
	pop	ebp
	ret	0
$LN4@SK_InitPlu:

; 491  :                       SK_GetModuleName (hLibrary).c_str () );
; 492  :     }
; 493  : 
; 494  :     else
; 495  :     {
; 496  :       dll_log.Log (L"[ SpecialK ] [*] Plug-In Init Failed (Plug-In returned false)!");

	push	OFFSET $SG151324

; 497  : 
; 498  :       FreeLibrary_Original (hLibrary);
; 499  :       hLibrary = nullptr;
; 500  :     }
; 501  :   }
; 502  : 
; 503  :   else

	jmp	SHORT $LN109@SK_InitPlu
$LN2@SK_InitPlu:

; 504  :   {
; 505  :     dll_log.Log (L"[ SpecialK ] [*] Plug-In Init Failed (Lacks SpecialK PlugIn Entry Point)!");

	push	OFFSET $SG151325
$LN109@SK_InitPlu:
	push	OFFSET ?dll_log@@3UiSK_Logger@@A	; dll_log
	call	?Log@iSK_Logger@@UAAXQB_WZZ		; iSK_Logger::Log
	add	esp, 8

; 506  : 
; 507  :     FreeLibrary_Original (hLibrary);

	push	esi
	call	DWORD PTR ?FreeLibrary_Original@@3P6GHPAUHINSTANCE__@@@ZA ; FreeLibrary_Original
	pop	edi

; 513  : 
; 514  :   return hLibrary;

	xor	eax, eax
	pop	esi

; 515  : }

	mov	esp, ebp
	pop	ebp
	ret	0
?SK_InitPlugIn32@@YAPAUHINSTANCE__@@PAU1@@Z ENDP	; SK_InitPlugIn32
_TEXT	ENDS
; Function compile flags: /Ogtp
; File c:\program files (x86)\microsoft visual studio\2017\community\vc\tools\msvc\14.10.25017\include\utility
;	COMDAT ??$swap@PAUHINSTANCE__@@X@std@@YAXAAPAUHINSTANCE__@@0@Z
_TEXT	SEGMENT
__Left$ = 8						; size = 4
__Right$ = 12						; size = 4
??$swap@PAUHINSTANCE__@@X@std@@YAXAAPAUHINSTANCE__@@0@Z PROC ; std::swap<HINSTANCE__ *,void>, COMDAT

; 65   : 	{	// exchange values stored at _Left and _Right

	npad	2
	push	ebp
	mov	ebp, esp

; 66   : 	_Ty _Tmp = _STD move(_Left);

	mov	edx, DWORD PTR __Left$[ebp]

; 67   : 	_Left = _STD move(_Right);

	mov	ecx, DWORD PTR __Right$[ebp]
	push	esi
	mov	esi, DWORD PTR [edx]
	mov	eax, DWORD PTR [ecx]
	mov	DWORD PTR [edx], eax

; 68   : 	_Right = _STD move(_Tmp);

	mov	DWORD PTR [ecx], esi
	pop	esi

; 69   : 	}

	pop	ebp
	ret	0
??$swap@PAUHINSTANCE__@@X@std@@YAXAAPAUHINSTANCE__@@0@Z ENDP ; std::swap<HINSTANCE__ *,void>
_TEXT	ENDS
; Function compile flags: /Ogtp
; File c:\program files (x86)\microsoft visual studio\2017\community\vc\tools\msvc\14.10.25017\atlmfc\include\atlalloc.h
;	COMDAT ??1?$CHeapPtr@_WVCCRTAllocator@ATL@@@ATL@@QAE@XZ
_TEXT	SEGMENT
??1?$CHeapPtr@_WVCCRTAllocator@ATL@@@ATL@@QAE@XZ PROC	; ATL::CHeapPtr<wchar_t,ATL::CCRTAllocator>::~CHeapPtr<wchar_t,ATL::CCRTAllocator>, COMDAT
; _this$ = ecx
	npad	2
	push	esi
	mov	esi, ecx

; 267  : 		free(p);

	push	DWORD PTR [esi]
	call	DWORD PTR __imp__free
	add	esp, 4

; 409  : 		m_pData = NULL;

	mov	DWORD PTR [esi], 0
	pop	esi
	ret	0
??1?$CHeapPtr@_WVCCRTAllocator@ATL@@@ATL@@QAE@XZ ENDP	; ATL::CHeapPtr<wchar_t,ATL::CCRTAllocator>::~CHeapPtr<wchar_t,ATL::CCRTAllocator>
_TEXT	ENDS
; Function compile flags: /Ogtp
; File c:\program files (x86)\microsoft visual studio\2017\community\vc\tools\msvc\14.10.25017\atlmfc\include\atlalloc.h
;	COMDAT ??0?$CHeapPtr@_WVCCRTAllocator@ATL@@@ATL@@QAE@PA_W@Z
_TEXT	SEGMENT
_p$ = 8							; size = 4
??0?$CHeapPtr@_WVCCRTAllocator@ATL@@@ATL@@QAE@PA_W@Z PROC ; ATL::CHeapPtr<wchar_t,ATL::CCRTAllocator>::CHeapPtr<wchar_t,ATL::CCRTAllocator>, COMDAT
; _this$ = ecx

; 443  : 	{

	npad	2
	push	ebp
	mov	ebp, esp

; 343  : 		m_pData(pData)

	mov	eax, DWORD PTR _p$[ebp]
	mov	DWORD PTR [ecx], eax

; 444  : 	}

	mov	eax, ecx
	pop	ebp
	ret	4
??0?$CHeapPtr@_WVCCRTAllocator@ATL@@@ATL@@QAE@PA_W@Z ENDP ; ATL::CHeapPtr<wchar_t,ATL::CCRTAllocator>::CHeapPtr<wchar_t,ATL::CCRTAllocator>
_TEXT	ENDS
; Function compile flags: /Ogtp
; File c:\program files (x86)\microsoft visual studio\2017\community\vc\tools\msvc\14.10.25017\atlmfc\include\atlalloc.h
;	COMDAT ?Free@?$CHeapPtrBase@_WVCCRTAllocator@ATL@@@ATL@@QAEXXZ
_TEXT	SEGMENT
?Free@?$CHeapPtrBase@_WVCCRTAllocator@ATL@@@ATL@@QAEXXZ PROC ; ATL::CHeapPtrBase<wchar_t,ATL::CCRTAllocator>::Free, COMDAT
; _this$ = ecx

; 407  : 	{

	npad	2
	push	esi
	mov	esi, ecx

; 267  : 		free(p);

	push	DWORD PTR [esi]
	call	DWORD PTR __imp__free
	add	esp, 4

; 408  : 		Allocator::Free(m_pData);
; 409  : 		m_pData = NULL;

	mov	DWORD PTR [esi], 0
	pop	esi

; 410  : 	}

	ret	0
?Free@?$CHeapPtrBase@_WVCCRTAllocator@ATL@@@ATL@@QAEXXZ ENDP ; ATL::CHeapPtrBase<wchar_t,ATL::CCRTAllocator>::Free
_TEXT	ENDS
; Function compile flags: /Ogtp
; File c:\program files (x86)\microsoft visual studio\2017\community\vc\tools\msvc\14.10.25017\atlmfc\include\atlalloc.h
;	COMDAT ??B?$CHeapPtrBase@_WVCCRTAllocator@ATL@@@ATL@@QBEPA_WXZ
_TEXT	SEGMENT
??B?$CHeapPtrBase@_WVCCRTAllocator@ATL@@@ATL@@QBEPA_WXZ PROC ; ATL::CHeapPtrBase<wchar_t,ATL::CCRTAllocator>::operator wchar_t *, COMDAT
; _this$ = ecx

; 364  : 		return m_pData;

	mov	eax, DWORD PTR [ecx]

; 365  : 	}

	ret	0
??B?$CHeapPtrBase@_WVCCRTAllocator@ATL@@@ATL@@QBEPA_WXZ ENDP ; ATL::CHeapPtrBase<wchar_t,ATL::CCRTAllocator>::operator wchar_t *
_TEXT	ENDS
; Function compile flags: /Ogtp
; File c:\program files (x86)\microsoft visual studio\2017\community\vc\tools\msvc\14.10.25017\atlmfc\include\atlalloc.h
;	COMDAT ??1?$CHeapPtrBase@_WVCCRTAllocator@ATL@@@ATL@@QAE@XZ
_TEXT	SEGMENT
??1?$CHeapPtrBase@_WVCCRTAllocator@ATL@@@ATL@@QAE@XZ PROC ; ATL::CHeapPtrBase<wchar_t,ATL::CCRTAllocator>::~CHeapPtrBase<wchar_t,ATL::CCRTAllocator>, COMDAT
; _this$ = ecx

; 349  : 	{

	npad	2
	push	esi
	mov	esi, ecx

; 267  : 		free(p);

	push	DWORD PTR [esi]
	call	DWORD PTR __imp__free
	add	esp, 4

; 409  : 		m_pData = NULL;

	mov	DWORD PTR [esi], 0
	pop	esi

; 350  : 		Free();
; 351  : 	}

	ret	0
??1?$CHeapPtrBase@_WVCCRTAllocator@ATL@@@ATL@@QAE@XZ ENDP ; ATL::CHeapPtrBase<wchar_t,ATL::CCRTAllocator>::~CHeapPtrBase<wchar_t,ATL::CCRTAllocator>
_TEXT	ENDS
; Function compile flags: /Ogtp
; File c:\program files (x86)\microsoft visual studio\2017\community\vc\tools\msvc\14.10.25017\atlmfc\include\atlalloc.h
;	COMDAT ??0?$CHeapPtrBase@_WVCCRTAllocator@ATL@@@ATL@@IAE@PA_W@Z
_TEXT	SEGMENT
_pData$ = 8						; size = 4
??0?$CHeapPtrBase@_WVCCRTAllocator@ATL@@@ATL@@IAE@PA_W@Z PROC ; ATL::CHeapPtrBase<wchar_t,ATL::CCRTAllocator>::CHeapPtrBase<wchar_t,ATL::CCRTAllocator>, COMDAT
; _this$ = ecx

; 344  : 	{

	npad	2
	push	ebp
	mov	ebp, esp

; 343  : 		m_pData(pData)

	mov	eax, DWORD PTR _pData$[ebp]
	mov	DWORD PTR [ecx], eax

; 345  : 	}

	mov	eax, ecx
	pop	ebp
	ret	4
??0?$CHeapPtrBase@_WVCCRTAllocator@ATL@@@ATL@@IAE@PA_W@Z ENDP ; ATL::CHeapPtrBase<wchar_t,ATL::CCRTAllocator>::CHeapPtrBase<wchar_t,ATL::CCRTAllocator>
_TEXT	ENDS
; Function compile flags: /Ogtp
; File c:\program files (x86)\microsoft visual studio\2017\community\vc\tools\msvc\14.10.25017\include\xstring
;	COMDAT ??$?8_WU?$char_traits@_W@std@@V?$allocator@_W@1@@std@@YA_NABV?$basic_string@_WU?$char_traits@_W@std@@V?$allocator@_W@2@@0@0@Z
_TEXT	SEGMENT
__Left$ = 8						; size = 4
__Right$ = 12						; size = 4
??$?8_WU?$char_traits@_W@std@@V?$allocator@_W@1@@std@@YA_NABV?$basic_string@_WU?$char_traits@_W@std@@V?$allocator@_W@2@@0@0@Z PROC ; std::operator==<wchar_t,std::char_traits<wchar_t>,std::allocator<wchar_t> >, COMDAT

; 3823 : 	{	// test for string equality

	npad	2
	push	ebp
	mov	ebp, esp

; 3824 : 	return (_Left._Equal(_Right));

	push	DWORD PTR __Right$[ebp]
	mov	ecx, DWORD PTR __Left$[ebp]
	call	?_Equal@?$basic_string@_WU?$char_traits@_W@std@@V?$allocator@_W@2@@std@@QBE_NABV12@@Z ; std::basic_string<wchar_t,std::char_traits<wchar_t>,std::allocator<wchar_t> >::_Equal

; 3825 : 	}

	pop	ebp
	ret	0
??$?8_WU?$char_traits@_W@std@@V?$allocator@_W@1@@std@@YA_NABV?$basic_string@_WU?$char_traits@_W@std@@V?$allocator@_W@2@@0@0@Z ENDP ; std::operator==<wchar_t,std::char_traits<wchar_t>,std::allocator<wchar_t> >
_TEXT	ENDS
; Function compile flags: /Ogtp
; File c:\users\andon\source\repos\specialk\src\import.cpp
; File c:\program files (x86)\microsoft visual studio\2017\community\vc\tools\msvc\14.10.25017\include\xstring
; File c:\program files (x86)\microsoft visual studio\2017\community\vc\tools\msvc\14.10.25017\include\xstddef
; File c:\users\andon\source\repos\specialk\src\import.cpp
; File c:\program files (x86)\microsoft visual studio\2017\community\vc\tools\msvc\14.10.25017\include\xstring
; File c:\users\andon\source\repos\specialk\src\import.cpp
; File c:\program files (x86)\microsoft visual studio\2017\community\vc\tools\msvc\14.10.25017\include\xstring
; File c:\program files (x86)\microsoft visual studio\2017\community\vc\tools\msvc\14.10.25017\include\xmemory0
; File c:\program files (x86)\microsoft visual studio\2017\community\vc\tools\msvc\14.10.25017\include\xstring
; File c:\program files (x86)\microsoft visual studio\2017\community\vc\tools\msvc\14.10.25017\include\xmemory0
; File c:\users\andon\source\repos\specialk\src\import.cpp
; File c:\program files (x86)\microsoft visual studio\2017\community\vc\tools\msvc\14.10.25017\include\xstring
; File c:\program files (x86)\microsoft visual studio\2017\community\vc\tools\msvc\14.10.25017\include\xstddef
; File c:\users\andon\source\repos\specialk\src\import.cpp
; File c:\program files (x86)\microsoft visual studio\2017\community\vc\tools\msvc\14.10.25017\include\xstring
; File c:\users\andon\source\repos\specialk\src\import.cpp
; File c:\program files (x86)\microsoft visual studio\2017\community\vc\tools\msvc\14.10.25017\include\xstring
; File c:\program files (x86)\microsoft visual studio\2017\community\vc\tools\msvc\14.10.25017\include\xmemory0
; File c:\program files (x86)\microsoft visual studio\2017\community\vc\tools\msvc\14.10.25017\include\xstring
; File c:\program files (x86)\microsoft visual studio\2017\community\vc\tools\msvc\14.10.25017\include\xmemory0
; File c:\users\andon\source\repos\specialk\src\import.cpp
_TEXT	SEGMENT
$T1 = -24						; size = 24
$T2 = -24						; size = 24
_hLibrary$ = 8						; size = 4
?SK_InitPlugIn64@@YAPAUHINSTANCE__@@PAU1@@Z PROC	; SK_InitPlugIn64

; 93   : {

	npad	2
	push	ebp
	mov	ebp, esp
	sub	esp, 24					; 00000018H

; 94   :   dll_log.Log ( L"[ SpecialK ] [*] Initializing Plug-In: %s...",

	lea	eax, DWORD PTR $T2[ebp]
	push	esi
	mov	esi, DWORD PTR _hLibrary$[ebp]
	push	edi
	push	esi
	push	eax
	call	?SK_GetModuleName@@YA?AV?$basic_string@_WU?$char_traits@_W@std@@V?$allocator@_W@2@@std@@PAUHINSTANCE__@@@Z ; SK_GetModuleName
	add	esp, 8
; File c:\program files (x86)\microsoft visual studio\2017\community\vc\tools\msvc\14.10.25017\include\xstring

; 1628 : 		return (this->_BUF_SIZE <= _Myres);

	cmp	DWORD PTR [eax+20], 8

; 1621 : 		return (_Large_string_engaged()

	jb	SHORT $LN23@SK_InitPlu
; File c:\program files (x86)\microsoft visual studio\2017\community\vc\tools\msvc\14.10.25017\include\xstddef

; 643  : 	return (_Ptr);

	mov	eax, DWORD PTR [eax]
$LN23@SK_InitPlu:
; File c:\users\andon\source\repos\specialk\src\import.cpp

; 94   :   dll_log.Log ( L"[ SpecialK ] [*] Initializing Plug-In: %s...",

	push	eax
	push	OFFSET $SG150796
	push	OFFSET ?dll_log@@3UiSK_Logger@@A	; dll_log
	call	?Log@iSK_Logger@@UAAXQB_WZZ		; iSK_Logger::Log
; File c:\program files (x86)\microsoft visual studio\2017\community\vc\tools\msvc\14.10.25017\include\xstring

; 1628 : 		return (this->_BUF_SIZE <= _Myres);

	mov	eax, DWORD PTR $T2[ebp+20]
; File c:\users\andon\source\repos\specialk\src\import.cpp

; 94   :   dll_log.Log ( L"[ SpecialK ] [*] Initializing Plug-In: %s...",

	add	esp, 12					; 0000000cH
; File c:\program files (x86)\microsoft visual studio\2017\community\vc\tools\msvc\14.10.25017\include\xstring

; 1628 : 		return (this->_BUF_SIZE <= _Myres);

	cmp	eax, 8

; 3608 : 		if (_My_data._Large_string_engaged())

	jb	SHORT $LN33@SK_InitPlu
; File c:\program files (x86)\microsoft visual studio\2017\community\vc\tools\msvc\14.10.25017\include\xmemory0

; 823  : 		_Deallocate(_Ptr, _Count, sizeof (_Ty));

	push	2
; File c:\program files (x86)\microsoft visual studio\2017\community\vc\tools\msvc\14.10.25017\include\xstring

; 3613 : 			_Al.deallocate(_Ptr, _My_data._Myres + 1);

	inc	eax
; File c:\program files (x86)\microsoft visual studio\2017\community\vc\tools\msvc\14.10.25017\include\xmemory0

; 823  : 		_Deallocate(_Ptr, _Count, sizeof (_Ty));

	push	eax
	push	DWORD PTR $T2[ebp]
	call	?_Deallocate@std@@YAXPAXII@Z		; std::_Deallocate
	add	esp, 12					; 0000000cH
$LN33@SK_InitPlu:
; File c:\users\andon\source\repos\specialk\src\import.cpp

; 99   :       GetProcAddress (

	push	OFFSET $SG150797
	push	esi
	call	DWORD PTR __imp__GetProcAddress@8
	mov	edi, eax

; 100  :         hLibrary,
; 101  :           "SKPlugIn_Init"
; 102  :       )
; 103  :     );
; 104  : 
; 105  :   if (SKPlugIn_Init != nullptr) 

	test	edi, edi
	je	SHORT $LN2@SK_InitPlu

; 106  :   {
; 107  :     if (SKPlugIn_Init (SK_GetDLL ()))

	call	?SK_GetDLL@@YGPAUHINSTANCE__@@XZ	; SK_GetDLL
	push	eax
	call	edi
	test	eax, eax
	je	SHORT $LN4@SK_InitPlu

; 109  :       dll_log.Log ( L"[ SpecialK ] [*] Plug-In Init Success (%s)!",

	lea	eax, DWORD PTR $T1[ebp]
	push	esi
	push	eax
	call	?SK_GetModuleName@@YA?AV?$basic_string@_WU?$char_traits@_W@std@@V?$allocator@_W@2@@std@@PAUHINSTANCE__@@@Z ; SK_GetModuleName
	add	esp, 8
; File c:\program files (x86)\microsoft visual studio\2017\community\vc\tools\msvc\14.10.25017\include\xstring

; 1628 : 		return (this->_BUF_SIZE <= _Myres);

	cmp	DWORD PTR [eax+20], 8

; 1621 : 		return (_Large_string_engaged()

	jb	SHORT $LN72@SK_InitPlu
; File c:\program files (x86)\microsoft visual studio\2017\community\vc\tools\msvc\14.10.25017\include\xstddef

; 643  : 	return (_Ptr);

	mov	eax, DWORD PTR [eax]
$LN72@SK_InitPlu:
; File c:\users\andon\source\repos\specialk\src\import.cpp

; 109  :       dll_log.Log ( L"[ SpecialK ] [*] Plug-In Init Success (%s)!",

	push	eax
	push	OFFSET $SG150802
	push	OFFSET ?dll_log@@3UiSK_Logger@@A	; dll_log
	call	?Log@iSK_Logger@@UAAXQB_WZZ		; iSK_Logger::Log
; File c:\program files (x86)\microsoft visual studio\2017\community\vc\tools\msvc\14.10.25017\include\xstring

; 1628 : 		return (this->_BUF_SIZE <= _Myres);

	mov	eax, DWORD PTR $T1[ebp+20]
; File c:\users\andon\source\repos\specialk\src\import.cpp

; 109  :       dll_log.Log ( L"[ SpecialK ] [*] Plug-In Init Success (%s)!",

	add	esp, 12					; 0000000cH
; File c:\program files (x86)\microsoft visual studio\2017\community\vc\tools\msvc\14.10.25017\include\xstring

; 1628 : 		return (this->_BUF_SIZE <= _Myres);

	cmp	eax, 8

; 3608 : 		if (_My_data._Large_string_engaged())

	jb	SHORT $LN3@SK_InitPlu
; File c:\program files (x86)\microsoft visual studio\2017\community\vc\tools\msvc\14.10.25017\include\xmemory0

; 823  : 		_Deallocate(_Ptr, _Count, sizeof (_Ty));

	push	2
; File c:\program files (x86)\microsoft visual studio\2017\community\vc\tools\msvc\14.10.25017\include\xstring

; 3613 : 			_Al.deallocate(_Ptr, _My_data._Myres + 1);

	inc	eax
; File c:\program files (x86)\microsoft visual studio\2017\community\vc\tools\msvc\14.10.25017\include\xmemory0

; 823  : 		_Deallocate(_Ptr, _Count, sizeof (_Ty));

	push	eax
	push	DWORD PTR $T1[ebp]
	call	?_Deallocate@std@@YAXPAXII@Z		; std::_Deallocate
	add	esp, 12					; 0000000cH
$LN3@SK_InitPlu:
; File c:\users\andon\source\repos\specialk\src\import.cpp

; 130  :   if (hLibrary != nullptr)

	test	esi, esi
	je	SHORT $LN108@SK_InitPlu

; 131  :     SK_SymRefreshModuleList ();

	call	DWORD PTR __imp__GetCurrentProcess@0
	push	eax
	call	?SK_SymRefreshModuleList@@YGXPAX@Z	; SK_SymRefreshModuleList
$LN108@SK_InitPlu:

; 132  : 
; 133  :   return hLibrary;

	pop	edi
	mov	eax, esi
	pop	esi

; 134  : }

	mov	esp, ebp
	pop	ebp
	ret	0
$LN4@SK_InitPlu:

; 110  :                       SK_GetModuleName (hLibrary).c_str () );
; 111  :     }
; 112  : 
; 113  :     else
; 114  :     {
; 115  :       dll_log.Log (L"[ SpecialK ] [*] Plug-In Init Failed (Plug-In returned false)!");

	push	OFFSET $SG150803

; 116  : 
; 117  :       FreeLibrary_Original (hLibrary);
; 118  :       hLibrary = nullptr;
; 119  :     }
; 120  :   }
; 121  : 
; 122  :   else

	jmp	SHORT $LN109@SK_InitPlu
$LN2@SK_InitPlu:

; 123  :   {
; 124  :     dll_log.Log (L"[ SpecialK ] [*] Plug-In Init Failed (Lacks SpecialK PlugIn Entry Point)!");

	push	OFFSET $SG150804
$LN109@SK_InitPlu:
	push	OFFSET ?dll_log@@3UiSK_Logger@@A	; dll_log
	call	?Log@iSK_Logger@@UAAXQB_WZZ		; iSK_Logger::Log
	add	esp, 8

; 125  : 
; 126  :     FreeLibrary_Original (hLibrary);

	push	esi
	call	DWORD PTR ?FreeLibrary_Original@@3P6GHPAUHINSTANCE__@@@ZA ; FreeLibrary_Original
	pop	edi

; 132  : 
; 133  :   return hLibrary;

	xor	eax, eax
	pop	esi

; 134  : }

	mov	esp, ebp
	pop	ebp
	ret	0
?SK_InitPlugIn64@@YAPAUHINSTANCE__@@PAU1@@Z ENDP	; SK_InitPlugIn64
_TEXT	ENDS
; Function compile flags: /Ogtp
; File c:\users\andon\source\repos\specialk\src\import.cpp
_TEXT	SEGMENT
_hModShim$ = 8						; size = 4
_hModReal$ = 12						; size = 4
?SK_Import_GetShimmedLibrary@@YA_NPAUHINSTANCE__@@AAPAU1@@Z PROC ; SK_Import_GetShimmedLibrary

; 71   : {

	npad	2
	push	ebp
	mov	ebp, esp

; 72   :   typedef HMODULE (__stdcall *SK_SHIM_GetReShade_pfn)(void);
; 73   : 
; 74   :   SK_SHIM_GetReShade_pfn SK_SHIM_GetReShade =
; 75   :     (SK_SHIM_GetReShade_pfn)GetProcAddress (hModShim, "SK_SHIM_GetReShade");

	push	OFFSET $SG150786
	push	DWORD PTR _hModShim$[ebp]
	call	DWORD PTR __imp__GetProcAddress@8

; 76   : 
; 77   :   if (SK_SHIM_GetReShade != nullptr)

	test	eax, eax
	je	SHORT $LN3@SK_Import_

; 78   :   {
; 79   :     hModReal =

	call	eax
	mov	ecx, DWORD PTR _hModReal$[ebp]
	mov	DWORD PTR [ecx], eax

; 80   :       SK_SHIM_GetReShade ();
; 81   : 
; 82   :     if (hModReal != 0)

	test	eax, eax
	je	SHORT $LN3@SK_Import_

; 83   :     {
; 84   :       return true;

	mov	al, 1

; 89   : }

	pop	ebp
	ret	0
$LN3@SK_Import_:

; 85   :     }
; 86   :   }
; 87   : 
; 88   :   return false;

	xor	al, al

; 89   : }

	pop	ebp
	ret	0
?SK_Import_GetShimmedLibrary@@YA_NPAUHINSTANCE__@@AAPAU1@@Z ENDP ; SK_Import_GetShimmedLibrary
_TEXT	ENDS
; Function compile flags: /Ogtp
; File c:\program files (x86)\microsoft visual studio\2017\community\vc\tools\msvc\14.10.25017\include\xstring
; File c:\program files (x86)\microsoft visual studio\2017\community\vc\tools\msvc\14.10.25017\include\xmemory0
; File c:\program files (x86)\microsoft visual studio\2017\community\vc\tools\msvc\14.10.25017\include\xstring
; File c:\program files (x86)\microsoft visual studio\2017\community\vc\tools\msvc\14.10.25017\include\xmemory0
; File c:\program files (x86)\microsoft visual studio\2017\community\vc\tools\msvc\14.10.25017\include\iosfwd
; File c:\program files (x86)\microsoft visual studio\2017\community\vc\tools\msvc\14.10.25017\include\xstring
; File c:\program files (x86)\microsoft visual studio\2017\community\vc\tools\msvc\14.10.25017\include\iosfwd
; File c:\program files (x86)\microsoft visual studio\2017\community\vc\tools\msvc\14.10.25017\include\xstring
; File c:\program files (x86)\microsoft visual studio\2017\community\vc\tools\msvc\14.10.25017\include\xmemory0
; File c:\program files (x86)\microsoft visual studio\2017\community\vc\tools\msvc\14.10.25017\include\xstring
; File c:\program files (x86)\microsoft visual studio\2017\community\vc\tools\msvc\14.10.25017\include\xmemory0
; File c:\program files (x86)\microsoft visual studio\2017\community\vc\tools\msvc\14.10.25017\include\iosfwd
; File c:\program files (x86)\microsoft visual studio\2017\community\vc\tools\msvc\14.10.25017\include\xstring
; File c:\program files (x86)\microsoft visual studio\2017\community\vc\tools\msvc\14.10.25017\include\iosfwd
; File c:\program files (x86)\microsoft visual studio\2017\community\vc\tools\msvc\14.10.25017\include\xstring
;	COMDAT ??__Fhost_executable@@YAXXZ
text$yd	SEGMENT
??__Fhost_executable@@YAXXZ PROC			; `dynamic atexit destructor for 'host_executable'', COMDAT
	npad	2
	push	esi

; 3606 : 		this->_Orphan_all();

	mov	ecx, OFFSET ?host_executable@@3Uimport_s@@A+32
	call	?_Orphan_all@?$_String_alloc@U?$_String_base_types@_WV?$allocator@_W@std@@@std@@@std@@QAEXXZ ; std::_String_alloc<std::_String_base_types<wchar_t,std::allocator<wchar_t> > >::_Orphan_all

; 1628 : 		return (this->_BUF_SIZE <= _Myres);

	cmp	DWORD PTR ?host_executable@@3Uimport_s@@A+52, 8

; 3608 : 		if (_My_data._Large_string_engaged())

	jb	SHORT $LN10@dynamic

; 3609 : 			{
; 3610 : 			pointer _Ptr = _My_data._Bx._Ptr;

	mov	esi, DWORD PTR ?host_executable@@3Uimport_s@@A+32

; 3611 : 			auto& _Al = this->_Getal();
; 3612 : 			_Al.destroy(_STD addressof(_My_data._Bx._Ptr));

	mov	ecx, OFFSET ?host_executable@@3Uimport_s@@A+32
	push	OFFSET ?host_executable@@3Uimport_s@@A+32
	call	??$destroy@PA_W@?$_Wrap_alloc@V?$allocator@_W@std@@@std@@QAEXPAPA_W@Z ; std::_Wrap_alloc<std::allocator<wchar_t> >::destroy<wchar_t *>

; 3613 : 			_Al.deallocate(_Ptr, _My_data._Myres + 1);

	mov	eax, DWORD PTR ?host_executable@@3Uimport_s@@A+52
; File c:\program files (x86)\microsoft visual studio\2017\community\vc\tools\msvc\14.10.25017\include\xmemory0

; 823  : 		_Deallocate(_Ptr, _Count, sizeof (_Ty));

	push	2
; File c:\program files (x86)\microsoft visual studio\2017\community\vc\tools\msvc\14.10.25017\include\xstring

; 3613 : 			_Al.deallocate(_Ptr, _My_data._Myres + 1);

	inc	eax
; File c:\program files (x86)\microsoft visual studio\2017\community\vc\tools\msvc\14.10.25017\include\xmemory0

; 823  : 		_Deallocate(_Ptr, _Count, sizeof (_Ty));

	push	eax
	push	esi
	call	?_Deallocate@std@@YAXPAXII@Z		; std::_Deallocate
	add	esp, 12					; 0000000cH
$LN10@dynamic:
; File c:\program files (x86)\microsoft visual studio\2017\community\vc\tools\msvc\14.10.25017\include\iosfwd

; 326  : 		_Left = _Right;

	xor	eax, eax
; File c:\program files (x86)\microsoft visual studio\2017\community\vc\tools\msvc\14.10.25017\include\xstring

; 3616 : 		_My_data._Mysize = 0;

	mov	DWORD PTR ?host_executable@@3Uimport_s@@A+48, 0

; 2217 : 		}

	mov	ecx, OFFSET ?host_executable@@3Uimport_s@@A+32

; 3617 : 		_My_data._Myres = this->_BUF_SIZE - 1;

	mov	DWORD PTR ?host_executable@@3Uimport_s@@A+52, 7
; File c:\program files (x86)\microsoft visual studio\2017\community\vc\tools\msvc\14.10.25017\include\iosfwd

; 326  : 		_Left = _Right;

	mov	WORD PTR ?host_executable@@3Uimport_s@@A+32, ax
; File c:\program files (x86)\microsoft visual studio\2017\community\vc\tools\msvc\14.10.25017\include\xstring

; 2217 : 		}

	call	??1?$_String_alloc@U?$_String_base_types@_WV?$allocator@_W@std@@@std@@@std@@QAE@XZ

; 3606 : 		this->_Orphan_all();

	mov	ecx, OFFSET ?host_executable@@3Uimport_s@@A+8
	call	?_Orphan_all@?$_String_alloc@U?$_String_base_types@_WV?$allocator@_W@std@@@std@@@std@@QAEXXZ ; std::_String_alloc<std::_String_base_types<wchar_t,std::allocator<wchar_t> > >::_Orphan_all

; 1628 : 		return (this->_BUF_SIZE <= _Myres);

	cmp	DWORD PTR ?host_executable@@3Uimport_s@@A+28, 8

; 3608 : 		if (_My_data._Large_string_engaged())

	jb	SHORT $LN40@dynamic

; 3609 : 			{
; 3610 : 			pointer _Ptr = _My_data._Bx._Ptr;

	mov	esi, DWORD PTR ?host_executable@@3Uimport_s@@A+8

; 3611 : 			auto& _Al = this->_Getal();
; 3612 : 			_Al.destroy(_STD addressof(_My_data._Bx._Ptr));

	mov	ecx, OFFSET ?host_executable@@3Uimport_s@@A+8
	push	OFFSET ?host_executable@@3Uimport_s@@A+8
	call	??$destroy@PA_W@?$_Wrap_alloc@V?$allocator@_W@std@@@std@@QAEXPAPA_W@Z ; std::_Wrap_alloc<std::allocator<wchar_t> >::destroy<wchar_t *>

; 3613 : 			_Al.deallocate(_Ptr, _My_data._Myres + 1);

	mov	eax, DWORD PTR ?host_executable@@3Uimport_s@@A+28
; File c:\program files (x86)\microsoft visual studio\2017\community\vc\tools\msvc\14.10.25017\include\xmemory0

; 823  : 		_Deallocate(_Ptr, _Count, sizeof (_Ty));

	push	2
; File c:\program files (x86)\microsoft visual studio\2017\community\vc\tools\msvc\14.10.25017\include\xstring

; 3613 : 			_Al.deallocate(_Ptr, _My_data._Myres + 1);

	inc	eax
; File c:\program files (x86)\microsoft visual studio\2017\community\vc\tools\msvc\14.10.25017\include\xmemory0

; 823  : 		_Deallocate(_Ptr, _Count, sizeof (_Ty));

	push	eax
	push	esi
	call	?_Deallocate@std@@YAXPAXII@Z		; std::_Deallocate
	add	esp, 12					; 0000000cH
$LN40@dynamic:
; File c:\program files (x86)\microsoft visual studio\2017\community\vc\tools\msvc\14.10.25017\include\iosfwd

; 326  : 		_Left = _Right;

	xor	eax, eax
; File c:\program files (x86)\microsoft visual studio\2017\community\vc\tools\msvc\14.10.25017\include\xstring

; 3616 : 		_My_data._Mysize = 0;

	mov	DWORD PTR ?host_executable@@3Uimport_s@@A+24, 0

; 3617 : 		_My_data._Myres = this->_BUF_SIZE - 1;

	mov	DWORD PTR ?host_executable@@3Uimport_s@@A+28, 7

; 2217 : 		}

	mov	ecx, OFFSET ?host_executable@@3Uimport_s@@A+8
; File c:\program files (x86)\microsoft visual studio\2017\community\vc\tools\msvc\14.10.25017\include\iosfwd

; 326  : 		_Left = _Right;

	mov	WORD PTR ?host_executable@@3Uimport_s@@A+8, ax
	pop	esi
; File c:\program files (x86)\microsoft visual studio\2017\community\vc\tools\msvc\14.10.25017\include\xstring

; 2217 : 		}

	jmp	??1?$_String_alloc@U?$_String_base_types@_WV?$allocator@_W@std@@@std@@@std@@QAE@XZ
??__Fhost_executable@@YAXXZ ENDP			; `dynamic atexit destructor for 'host_executable''
text$yd	ENDS
; Function compile flags: /Ogtp
; File c:\users\andon\source\repos\specialk\src\import.cpp
; File c:\program files (x86)\microsoft visual studio\2017\community\vc\tools\msvc\14.10.25017\include\xutility
; File c:\users\andon\source\repos\specialk\src\import.cpp
; File c:\program files (x86)\microsoft visual studio\2017\community\vc\tools\msvc\14.10.25017\include\xutility
; File c:\program files (x86)\microsoft visual studio\2017\community\vc\tools\msvc\14.10.25017\include\iosfwd
; File c:\program files (x86)\microsoft visual studio\2017\community\vc\tools\msvc\14.10.25017\include\xstring
; File c:\program files (x86)\microsoft visual studio\2017\community\vc\tools\msvc\14.10.25017\include\iosfwd
; File c:\program files (x86)\microsoft visual studio\2017\community\vc\tools\msvc\14.10.25017\include\xstring
; File c:\program files (x86)\microsoft visual studio\2017\community\vc\tools\msvc\14.10.25017\include\xutility
; File c:\users\andon\source\repos\specialk\include\specialk\import.h
; File c:\program files (x86)\microsoft visual studio\2017\community\vc\tools\msvc\14.10.25017\include\xutility
; File c:\program files (x86)\microsoft visual studio\2017\community\vc\tools\msvc\14.10.25017\include\iosfwd
; File c:\program files (x86)\microsoft visual studio\2017\community\vc\tools\msvc\14.10.25017\include\xstring
; File c:\program files (x86)\microsoft visual studio\2017\community\vc\tools\msvc\14.10.25017\include\iosfwd
; File c:\program files (x86)\microsoft visual studio\2017\community\vc\tools\msvc\14.10.25017\include\xstring
; File c:\users\andon\source\repos\specialk\include\specialk\import.h
; File c:\users\andon\source\repos\specialk\src\import.cpp
;	COMDAT ??__Ehost_executable@@YAXXZ
text$di	SEGMENT
__$EHRec$ = -12						; size = 12
??__Ehost_executable@@YAXXZ PROC			; `dynamic initializer for 'host_executable'', COMDAT

; 49   : import_s host_executable          = { };

	npad	2
	push	ebp
	mov	ebp, esp
	mov	eax, DWORD PTR fs:0
; File c:\program files (x86)\microsoft visual studio\2017\community\vc\tools\msvc\14.10.25017\include\xutility

; 302  : 		: _Ty1(), _Myval2(_STD forward<_Other2>(_Val2)...)

	mov	ecx, OFFSET ?host_executable@@3Uimport_s@@A+8
; File c:\users\andon\source\repos\specialk\src\import.cpp

; 49   : import_s host_executable          = { };

	push	-1
	push	__ehhandler$??__Ehost_executable@@YAXXZ
	push	eax
	mov	DWORD PTR fs:0, esp
; File c:\program files (x86)\microsoft visual studio\2017\community\vc\tools\msvc\14.10.25017\include\xutility

; 302  : 		: _Ty1(), _Myval2(_STD forward<_Other2>(_Val2)...)

	call	??0?$_Wrap_alloc@V?$allocator@_W@std@@@std@@QAE@XZ ; std::_Wrap_alloc<std::allocator<wchar_t> >::_Wrap_alloc<std::allocator<wchar_t> >
; File c:\program files (x86)\microsoft visual studio\2017\community\vc\tools\msvc\14.10.25017\include\iosfwd

; 326  : 		_Left = _Right;

	xor	eax, eax
; File c:\program files (x86)\microsoft visual studio\2017\community\vc\tools\msvc\14.10.25017\include\xstring

; 3597 : 		_My_data._Mysize = 0;

	mov	DWORD PTR ?host_executable@@3Uimport_s@@A+24, 0

; 2429 : 		return (assign(_Ptr, _Traits::length(_Ptr)));

	push	eax
	push	OFFSET $SG146767
	mov	ecx, OFFSET ?host_executable@@3Uimport_s@@A+8

; 3598 : 		_My_data._Myres = this->_BUF_SIZE - 1;

	mov	DWORD PTR ?host_executable@@3Uimport_s@@A+28, 7
; File c:\program files (x86)\microsoft visual studio\2017\community\vc\tools\msvc\14.10.25017\include\iosfwd

; 326  : 		_Left = _Right;

	mov	WORD PTR ?host_executable@@3Uimport_s@@A+8, ax
; File c:\program files (x86)\microsoft visual studio\2017\community\vc\tools\msvc\14.10.25017\include\xstring

; 2429 : 		return (assign(_Ptr, _Traits::length(_Ptr)));

	call	?assign@?$basic_string@_WU?$char_traits@_W@std@@V?$allocator@_W@2@@std@@QAEAAV12@QB_WI@Z ; std::basic_string<wchar_t,std::char_traits<wchar_t>,std::allocator<wchar_t> >::assign
; File c:\program files (x86)\microsoft visual studio\2017\community\vc\tools\msvc\14.10.25017\include\xutility

; 302  : 		: _Ty1(), _Myval2(_STD forward<_Other2>(_Val2)...)

	mov	ecx, OFFSET ?host_executable@@3Uimport_s@@A+32
; File c:\users\andon\source\repos\specialk\include\specialk\import.h

; 44   :   std::wstring          product_desc = L"";

	mov	DWORD PTR __$EHRec$[ebp+8], 0
; File c:\program files (x86)\microsoft visual studio\2017\community\vc\tools\msvc\14.10.25017\include\xutility

; 302  : 		: _Ty1(), _Myval2(_STD forward<_Other2>(_Val2)...)

	call	??0?$_Wrap_alloc@V?$allocator@_W@std@@@std@@QAE@XZ ; std::_Wrap_alloc<std::allocator<wchar_t> >::_Wrap_alloc<std::allocator<wchar_t> >
; File c:\program files (x86)\microsoft visual studio\2017\community\vc\tools\msvc\14.10.25017\include\iosfwd

; 326  : 		_Left = _Right;

	xor	eax, eax
; File c:\program files (x86)\microsoft visual studio\2017\community\vc\tools\msvc\14.10.25017\include\xstring

; 3597 : 		_My_data._Mysize = 0;

	mov	DWORD PTR ?host_executable@@3Uimport_s@@A+48, 0

; 2429 : 		return (assign(_Ptr, _Traits::length(_Ptr)));

	push	eax
	push	OFFSET $SG146768
	mov	ecx, OFFSET ?host_executable@@3Uimport_s@@A+32

; 3598 : 		_My_data._Myres = this->_BUF_SIZE - 1;

	mov	DWORD PTR ?host_executable@@3Uimport_s@@A+52, 7
; File c:\program files (x86)\microsoft visual studio\2017\community\vc\tools\msvc\14.10.25017\include\iosfwd

; 326  : 		_Left = _Right;

	mov	WORD PTR ?host_executable@@3Uimport_s@@A+32, ax
; File c:\program files (x86)\microsoft visual studio\2017\community\vc\tools\msvc\14.10.25017\include\xstring

; 2429 : 		return (assign(_Ptr, _Traits::length(_Ptr)));

	call	?assign@?$basic_string@_WU?$char_traits@_W@std@@V?$allocator@_W@2@@std@@QAEAAV12@QB_WI@Z ; std::basic_string<wchar_t,std::char_traits<wchar_t>,std::allocator<wchar_t> >::assign
	xorps	xmm0, xmm0
; File c:\users\andon\source\repos\specialk\include\specialk\import.h

; 52   :   sk::ParameterStringW* blacklist    = nullptr;

	mov	DWORD PTR ?host_executable@@3Uimport_s@@A+72, 0
; File c:\users\andon\source\repos\specialk\src\import.cpp

; 49   : import_s host_executable          = { };

	push	OFFSET ??__Fhost_executable@@YAXXZ	; `dynamic atexit destructor for 'host_executable''
	movups	XMMWORD PTR ?host_executable@@3Uimport_s@@A+56, xmm0
	call	_atexit
	mov	ecx, DWORD PTR __$EHRec$[ebp]
	add	esp, 4
	mov	DWORD PTR fs:0, ecx
	mov	esp, ebp
	pop	ebp
	ret	0
text$di	ENDS
;	COMDAT text$x
text$x	SEGMENT
__unwindfunclet$??__Ehost_executable@@YAXXZ$0:
	mov	ecx, OFFSET ?host_executable@@3Uimport_s@@A+8
	jmp	??1?$basic_string@_WU?$char_traits@_W@std@@V?$allocator@_W@2@@std@@QAE@XZ ; std::basic_string<wchar_t,std::char_traits<wchar_t>,std::allocator<wchar_t> >::~basic_string<wchar_t,std::char_traits<wchar_t>,std::allocator<wchar_t> >
__ehhandler$??__Ehost_executable@@YAXXZ:
	mov	eax, OFFSET __ehfuncinfo$??__Ehost_executable@@YAXXZ
	jmp	___CxxFrameHandler3
text$x	ENDS
??__Ehost_executable@@YAXXZ ENDP			; `dynamic initializer for 'host_executable''
; Function compile flags: /Ogtp
;	COMDAT ??__Fimports@@YAXXZ
text$yd	SEGMENT
??__Fimports@@YAXXZ PROC				; `dynamic atexit destructor for 'imports'', COMDAT
	push	OFFSET ??1import_s@@QAE@XZ
	push	8
	push	76					; 0000004cH
	push	OFFSET ?imports@@3PAUimport_s@@A	; imports
	call	??_M@YGXPAXIIP6EX0@Z@Z
	ret	0
??__Fimports@@YAXXZ ENDP				; `dynamic atexit destructor for 'imports''
text$yd	ENDS
; Function compile flags: /Ogtp
; File c:\users\andon\source\repos\specialk\src\import.cpp
;	COMDAT ??__Eimports@@YAXXZ
text$di	SEGMENT
??__Eimports@@YAXXZ PROC				; `dynamic initializer for 'imports'', COMDAT

; 48   : import_s imports [SK_MAX_IMPORTS] = { };

	push	OFFSET ??1import_s@@QAE@XZ
	push	OFFSET ??0import_s@@QAE@XZ
	push	8
	push	76					; 0000004cH
	push	OFFSET ?imports@@3PAUimport_s@@A	; imports
	call	??_L@YGXPAXIIP6EX0@Z1@Z
	push	OFFSET ??__Fimports@@YAXXZ		; `dynamic atexit destructor for 'imports''
	call	_atexit
	pop	ecx
	ret	0
??__Eimports@@YAXXZ ENDP				; `dynamic initializer for 'imports''
text$di	ENDS
; Function compile flags: /Ogtp
; File c:\program files (x86)\microsoft visual studio\2017\community\vc\tools\msvc\14.10.25017\include\xstring
; File c:\program files (x86)\microsoft visual studio\2017\community\vc\tools\msvc\14.10.25017\include\xmemory0
; File c:\program files (x86)\microsoft visual studio\2017\community\vc\tools\msvc\14.10.25017\include\xstring
; File c:\program files (x86)\microsoft visual studio\2017\community\vc\tools\msvc\14.10.25017\include\xmemory0
; File c:\program files (x86)\microsoft visual studio\2017\community\vc\tools\msvc\14.10.25017\include\iosfwd
; File c:\program files (x86)\microsoft visual studio\2017\community\vc\tools\msvc\14.10.25017\include\xstring
; File c:\program files (x86)\microsoft visual studio\2017\community\vc\tools\msvc\14.10.25017\include\iosfwd
; File c:\program files (x86)\microsoft visual studio\2017\community\vc\tools\msvc\14.10.25017\include\xstring
;	COMDAT ??__FSK_IMPORT_ARCH_WIN32@@YAXXZ
text$yd	SEGMENT
??__FSK_IMPORT_ARCH_WIN32@@YAXXZ PROC			; `dynamic atexit destructor for 'SK_IMPORT_ARCH_WIN32'', COMDAT

; 3606 : 		this->_Orphan_all();

	mov	ecx, OFFSET ?SK_IMPORT_ARCH_WIN32@@3V?$basic_string@_WU?$char_traits@_W@std@@V?$allocator@_W@2@@std@@B ; SK_IMPORT_ARCH_WIN32
	call	?_Orphan_all@?$_String_alloc@U?$_String_base_types@_WV?$allocator@_W@std@@@std@@@std@@QAEXXZ ; std::_String_alloc<std::_String_base_types<wchar_t,std::allocator<wchar_t> > >::_Orphan_all

; 1628 : 		return (this->_BUF_SIZE <= _Myres);

	cmp	DWORD PTR ?SK_IMPORT_ARCH_WIN32@@3V?$basic_string@_WU?$char_traits@_W@std@@V?$allocator@_W@2@@std@@B+20, 8

; 3608 : 		if (_My_data._Large_string_engaged())

	jb	SHORT $LN7@dynamic
	push	esi

; 3609 : 			{
; 3610 : 			pointer _Ptr = _My_data._Bx._Ptr;

	mov	esi, DWORD PTR ?SK_IMPORT_ARCH_WIN32@@3V?$basic_string@_WU?$char_traits@_W@std@@V?$allocator@_W@2@@std@@B

; 3611 : 			auto& _Al = this->_Getal();
; 3612 : 			_Al.destroy(_STD addressof(_My_data._Bx._Ptr));

	mov	ecx, OFFSET ?SK_IMPORT_ARCH_WIN32@@3V?$basic_string@_WU?$char_traits@_W@std@@V?$allocator@_W@2@@std@@B ; SK_IMPORT_ARCH_WIN32
	push	OFFSET ?SK_IMPORT_ARCH_WIN32@@3V?$basic_string@_WU?$char_traits@_W@std@@V?$allocator@_W@2@@std@@B ; SK_IMPORT_ARCH_WIN32
	call	??$destroy@PA_W@?$_Wrap_alloc@V?$allocator@_W@std@@@std@@QAEXPAPA_W@Z ; std::_Wrap_alloc<std::allocator<wchar_t> >::destroy<wchar_t *>

; 3613 : 			_Al.deallocate(_Ptr, _My_data._Myres + 1);

	mov	eax, DWORD PTR ?SK_IMPORT_ARCH_WIN32@@3V?$basic_string@_WU?$char_traits@_W@std@@V?$allocator@_W@2@@std@@B+20
; File c:\program files (x86)\microsoft visual studio\2017\community\vc\tools\msvc\14.10.25017\include\xmemory0

; 823  : 		_Deallocate(_Ptr, _Count, sizeof (_Ty));

	push	2
; File c:\program files (x86)\microsoft visual studio\2017\community\vc\tools\msvc\14.10.25017\include\xstring

; 3613 : 			_Al.deallocate(_Ptr, _My_data._Myres + 1);

	inc	eax
; File c:\program files (x86)\microsoft visual studio\2017\community\vc\tools\msvc\14.10.25017\include\xmemory0

; 823  : 		_Deallocate(_Ptr, _Count, sizeof (_Ty));

	push	eax
	push	esi
	call	?_Deallocate@std@@YAXPAXII@Z		; std::_Deallocate
	add	esp, 12					; 0000000cH
	pop	esi
$LN7@dynamic:
; File c:\program files (x86)\microsoft visual studio\2017\community\vc\tools\msvc\14.10.25017\include\iosfwd

; 326  : 		_Left = _Right;

	xor	eax, eax
; File c:\program files (x86)\microsoft visual studio\2017\community\vc\tools\msvc\14.10.25017\include\xstring

; 3616 : 		_My_data._Mysize = 0;

	mov	DWORD PTR ?SK_IMPORT_ARCH_WIN32@@3V?$basic_string@_WU?$char_traits@_W@std@@V?$allocator@_W@2@@std@@B+16, 0

; 3617 : 		_My_data._Myres = this->_BUF_SIZE - 1;

	mov	DWORD PTR ?SK_IMPORT_ARCH_WIN32@@3V?$basic_string@_WU?$char_traits@_W@std@@V?$allocator@_W@2@@std@@B+20, 7

; 2217 : 		}

	mov	ecx, OFFSET ?SK_IMPORT_ARCH_WIN32@@3V?$basic_string@_WU?$char_traits@_W@std@@V?$allocator@_W@2@@std@@B ; SK_IMPORT_ARCH_WIN32
; File c:\program files (x86)\microsoft visual studio\2017\community\vc\tools\msvc\14.10.25017\include\iosfwd

; 326  : 		_Left = _Right;

	mov	WORD PTR ?SK_IMPORT_ARCH_WIN32@@3V?$basic_string@_WU?$char_traits@_W@std@@V?$allocator@_W@2@@std@@B, ax
; File c:\program files (x86)\microsoft visual studio\2017\community\vc\tools\msvc\14.10.25017\include\xstring

; 2217 : 		}

	jmp	??1?$_String_alloc@U?$_String_base_types@_WV?$allocator@_W@std@@@std@@@std@@QAE@XZ
??__FSK_IMPORT_ARCH_WIN32@@YAXXZ ENDP			; `dynamic atexit destructor for 'SK_IMPORT_ARCH_WIN32''
text$yd	ENDS
; Function compile flags: /Ogtp
; File c:\users\andon\source\repos\specialk\src\import.cpp
; File c:\program files (x86)\microsoft visual studio\2017\community\vc\tools\msvc\14.10.25017\include\xutility
; File c:\program files (x86)\microsoft visual studio\2017\community\vc\tools\msvc\14.10.25017\include\xstring
; File c:\program files (x86)\microsoft visual studio\2017\community\vc\tools\msvc\14.10.25017\include\iosfwd
; File c:\program files (x86)\microsoft visual studio\2017\community\vc\tools\msvc\14.10.25017\include\xstring
; File c:\program files (x86)\microsoft visual studio\2017\community\vc\tools\msvc\14.10.25017\include\iosfwd
; File c:\program files (x86)\microsoft visual studio\2017\community\vc\tools\msvc\14.10.25017\include\xstring
; File c:\users\andon\source\repos\specialk\src\import.cpp
;	COMDAT ??__ESK_IMPORT_ARCH_WIN32@@YAXXZ
text$di	SEGMENT
??__ESK_IMPORT_ARCH_WIN32@@YAXXZ PROC			; `dynamic initializer for 'SK_IMPORT_ARCH_WIN32'', COMDAT
; File c:\program files (x86)\microsoft visual studio\2017\community\vc\tools\msvc\14.10.25017\include\xutility

; 302  : 		: _Ty1(), _Myval2(_STD forward<_Other2>(_Val2)...)

	mov	ecx, OFFSET ?SK_IMPORT_ARCH_WIN32@@3V?$basic_string@_WU?$char_traits@_W@std@@V?$allocator@_W@2@@std@@B ; SK_IMPORT_ARCH_WIN32
	call	??0?$_Wrap_alloc@V?$allocator@_W@std@@@std@@QAE@XZ ; std::_Wrap_alloc<std::allocator<wchar_t> >::_Wrap_alloc<std::allocator<wchar_t> >
; File c:\program files (x86)\microsoft visual studio\2017\community\vc\tools\msvc\14.10.25017\include\xstring

; 2429 : 		return (assign(_Ptr, _Traits::length(_Ptr)));

	push	5
; File c:\program files (x86)\microsoft visual studio\2017\community\vc\tools\msvc\14.10.25017\include\iosfwd

; 326  : 		_Left = _Right;

	xor	eax, eax
; File c:\program files (x86)\microsoft visual studio\2017\community\vc\tools\msvc\14.10.25017\include\xstring

; 3597 : 		_My_data._Mysize = 0;

	mov	DWORD PTR ?SK_IMPORT_ARCH_WIN32@@3V?$basic_string@_WU?$char_traits@_W@std@@V?$allocator@_W@2@@std@@B+16, 0

; 2429 : 		return (assign(_Ptr, _Traits::length(_Ptr)));

	push	OFFSET $SG146748
	mov	ecx, OFFSET ?SK_IMPORT_ARCH_WIN32@@3V?$basic_string@_WU?$char_traits@_W@std@@V?$allocator@_W@2@@std@@B ; SK_IMPORT_ARCH_WIN32

; 3598 : 		_My_data._Myres = this->_BUF_SIZE - 1;

	mov	DWORD PTR ?SK_IMPORT_ARCH_WIN32@@3V?$basic_string@_WU?$char_traits@_W@std@@V?$allocator@_W@2@@std@@B+20, 7
; File c:\program files (x86)\microsoft visual studio\2017\community\vc\tools\msvc\14.10.25017\include\iosfwd

; 326  : 		_Left = _Right;

	mov	WORD PTR ?SK_IMPORT_ARCH_WIN32@@3V?$basic_string@_WU?$char_traits@_W@std@@V?$allocator@_W@2@@std@@B, ax
; File c:\program files (x86)\microsoft visual studio\2017\community\vc\tools\msvc\14.10.25017\include\xstring

; 2429 : 		return (assign(_Ptr, _Traits::length(_Ptr)));

	call	?assign@?$basic_string@_WU?$char_traits@_W@std@@V?$allocator@_W@2@@std@@QAEAAV12@QB_WI@Z ; std::basic_string<wchar_t,std::char_traits<wchar_t>,std::allocator<wchar_t> >::assign
; File c:\users\andon\source\repos\specialk\src\import.cpp

; 46   : const std::wstring SK_IMPORT_ARCH_WIN32    = L"Win32";

	push	OFFSET ??__FSK_IMPORT_ARCH_WIN32@@YAXXZ	; `dynamic atexit destructor for 'SK_IMPORT_ARCH_WIN32''
	call	_atexit
	pop	ecx
	ret	0
??__ESK_IMPORT_ARCH_WIN32@@YAXXZ ENDP			; `dynamic initializer for 'SK_IMPORT_ARCH_WIN32''
text$di	ENDS
; Function compile flags: /Ogtp
; File c:\program files (x86)\microsoft visual studio\2017\community\vc\tools\msvc\14.10.25017\include\xstring
; File c:\program files (x86)\microsoft visual studio\2017\community\vc\tools\msvc\14.10.25017\include\xmemory0
; File c:\program files (x86)\microsoft visual studio\2017\community\vc\tools\msvc\14.10.25017\include\xstring
; File c:\program files (x86)\microsoft visual studio\2017\community\vc\tools\msvc\14.10.25017\include\xmemory0
; File c:\program files (x86)\microsoft visual studio\2017\community\vc\tools\msvc\14.10.25017\include\iosfwd
; File c:\program files (x86)\microsoft visual studio\2017\community\vc\tools\msvc\14.10.25017\include\xstring
; File c:\program files (x86)\microsoft visual studio\2017\community\vc\tools\msvc\14.10.25017\include\iosfwd
; File c:\program files (x86)\microsoft visual studio\2017\community\vc\tools\msvc\14.10.25017\include\xstring
;	COMDAT ??__FSK_IMPORT_ARCH_X64@@YAXXZ
text$yd	SEGMENT
??__FSK_IMPORT_ARCH_X64@@YAXXZ PROC			; `dynamic atexit destructor for 'SK_IMPORT_ARCH_X64'', COMDAT

; 3606 : 		this->_Orphan_all();

	mov	ecx, OFFSET ?SK_IMPORT_ARCH_X64@@3V?$basic_string@_WU?$char_traits@_W@std@@V?$allocator@_W@2@@std@@B ; SK_IMPORT_ARCH_X64
	call	?_Orphan_all@?$_String_alloc@U?$_String_base_types@_WV?$allocator@_W@std@@@std@@@std@@QAEXXZ ; std::_String_alloc<std::_String_base_types<wchar_t,std::allocator<wchar_t> > >::_Orphan_all

; 1628 : 		return (this->_BUF_SIZE <= _Myres);

	cmp	DWORD PTR ?SK_IMPORT_ARCH_X64@@3V?$basic_string@_WU?$char_traits@_W@std@@V?$allocator@_W@2@@std@@B+20, 8

; 3608 : 		if (_My_data._Large_string_engaged())

	jb	SHORT $LN7@dynamic
	push	esi

; 3609 : 			{
; 3610 : 			pointer _Ptr = _My_data._Bx._Ptr;

	mov	esi, DWORD PTR ?SK_IMPORT_ARCH_X64@@3V?$basic_string@_WU?$char_traits@_W@std@@V?$allocator@_W@2@@std@@B

; 3611 : 			auto& _Al = this->_Getal();
; 3612 : 			_Al.destroy(_STD addressof(_My_data._Bx._Ptr));

	mov	ecx, OFFSET ?SK_IMPORT_ARCH_X64@@3V?$basic_string@_WU?$char_traits@_W@std@@V?$allocator@_W@2@@std@@B ; SK_IMPORT_ARCH_X64
	push	OFFSET ?SK_IMPORT_ARCH_X64@@3V?$basic_string@_WU?$char_traits@_W@std@@V?$allocator@_W@2@@std@@B ; SK_IMPORT_ARCH_X64
	call	??$destroy@PA_W@?$_Wrap_alloc@V?$allocator@_W@std@@@std@@QAEXPAPA_W@Z ; std::_Wrap_alloc<std::allocator<wchar_t> >::destroy<wchar_t *>

; 3613 : 			_Al.deallocate(_Ptr, _My_data._Myres + 1);

	mov	eax, DWORD PTR ?SK_IMPORT_ARCH_X64@@3V?$basic_string@_WU?$char_traits@_W@std@@V?$allocator@_W@2@@std@@B+20
; File c:\program files (x86)\microsoft visual studio\2017\community\vc\tools\msvc\14.10.25017\include\xmemory0

; 823  : 		_Deallocate(_Ptr, _Count, sizeof (_Ty));

	push	2
; File c:\program files (x86)\microsoft visual studio\2017\community\vc\tools\msvc\14.10.25017\include\xstring

; 3613 : 			_Al.deallocate(_Ptr, _My_data._Myres + 1);

	inc	eax
; File c:\program files (x86)\microsoft visual studio\2017\community\vc\tools\msvc\14.10.25017\include\xmemory0

; 823  : 		_Deallocate(_Ptr, _Count, sizeof (_Ty));

	push	eax
	push	esi
	call	?_Deallocate@std@@YAXPAXII@Z		; std::_Deallocate
	add	esp, 12					; 0000000cH
	pop	esi
$LN7@dynamic:
; File c:\program files (x86)\microsoft visual studio\2017\community\vc\tools\msvc\14.10.25017\include\iosfwd

; 326  : 		_Left = _Right;

	xor	eax, eax
; File c:\program files (x86)\microsoft visual studio\2017\community\vc\tools\msvc\14.10.25017\include\xstring

; 3616 : 		_My_data._Mysize = 0;

	mov	DWORD PTR ?SK_IMPORT_ARCH_X64@@3V?$basic_string@_WU?$char_traits@_W@std@@V?$allocator@_W@2@@std@@B+16, 0

; 3617 : 		_My_data._Myres = this->_BUF_SIZE - 1;

	mov	DWORD PTR ?SK_IMPORT_ARCH_X64@@3V?$basic_string@_WU?$char_traits@_W@std@@V?$allocator@_W@2@@std@@B+20, 7

; 2217 : 		}

	mov	ecx, OFFSET ?SK_IMPORT_ARCH_X64@@3V?$basic_string@_WU?$char_traits@_W@std@@V?$allocator@_W@2@@std@@B ; SK_IMPORT_ARCH_X64
; File c:\program files (x86)\microsoft visual studio\2017\community\vc\tools\msvc\14.10.25017\include\iosfwd

; 326  : 		_Left = _Right;

	mov	WORD PTR ?SK_IMPORT_ARCH_X64@@3V?$basic_string@_WU?$char_traits@_W@std@@V?$allocator@_W@2@@std@@B, ax
; File c:\program files (x86)\microsoft visual studio\2017\community\vc\tools\msvc\14.10.25017\include\xstring

; 2217 : 		}

	jmp	??1?$_String_alloc@U?$_String_base_types@_WV?$allocator@_W@std@@@std@@@std@@QAE@XZ
??__FSK_IMPORT_ARCH_X64@@YAXXZ ENDP			; `dynamic atexit destructor for 'SK_IMPORT_ARCH_X64''
text$yd	ENDS
; Function compile flags: /Ogtp
; File c:\users\andon\source\repos\specialk\src\import.cpp
; File c:\program files (x86)\microsoft visual studio\2017\community\vc\tools\msvc\14.10.25017\include\xutility
; File c:\program files (x86)\microsoft visual studio\2017\community\vc\tools\msvc\14.10.25017\include\xstring
; File c:\program files (x86)\microsoft visual studio\2017\community\vc\tools\msvc\14.10.25017\include\iosfwd
; File c:\program files (x86)\microsoft visual studio\2017\community\vc\tools\msvc\14.10.25017\include\xstring
; File c:\program files (x86)\microsoft visual studio\2017\community\vc\tools\msvc\14.10.25017\include\iosfwd
; File c:\program files (x86)\microsoft visual studio\2017\community\vc\tools\msvc\14.10.25017\include\xstring
; File c:\users\andon\source\repos\specialk\src\import.cpp
;	COMDAT ??__ESK_IMPORT_ARCH_X64@@YAXXZ
text$di	SEGMENT
??__ESK_IMPORT_ARCH_X64@@YAXXZ PROC			; `dynamic initializer for 'SK_IMPORT_ARCH_X64'', COMDAT
; File c:\program files (x86)\microsoft visual studio\2017\community\vc\tools\msvc\14.10.25017\include\xutility

; 302  : 		: _Ty1(), _Myval2(_STD forward<_Other2>(_Val2)...)

	mov	ecx, OFFSET ?SK_IMPORT_ARCH_X64@@3V?$basic_string@_WU?$char_traits@_W@std@@V?$allocator@_W@2@@std@@B ; SK_IMPORT_ARCH_X64
	call	??0?$_Wrap_alloc@V?$allocator@_W@std@@@std@@QAE@XZ ; std::_Wrap_alloc<std::allocator<wchar_t> >::_Wrap_alloc<std::allocator<wchar_t> >
; File c:\program files (x86)\microsoft visual studio\2017\community\vc\tools\msvc\14.10.25017\include\xstring

; 2429 : 		return (assign(_Ptr, _Traits::length(_Ptr)));

	push	3
; File c:\program files (x86)\microsoft visual studio\2017\community\vc\tools\msvc\14.10.25017\include\iosfwd

; 326  : 		_Left = _Right;

	xor	eax, eax
; File c:\program files (x86)\microsoft visual studio\2017\community\vc\tools\msvc\14.10.25017\include\xstring

; 3597 : 		_My_data._Mysize = 0;

	mov	DWORD PTR ?SK_IMPORT_ARCH_X64@@3V?$basic_string@_WU?$char_traits@_W@std@@V?$allocator@_W@2@@std@@B+16, 0

; 2429 : 		return (assign(_Ptr, _Traits::length(_Ptr)));

	push	OFFSET $SG146742
	mov	ecx, OFFSET ?SK_IMPORT_ARCH_X64@@3V?$basic_string@_WU?$char_traits@_W@std@@V?$allocator@_W@2@@std@@B ; SK_IMPORT_ARCH_X64

; 3598 : 		_My_data._Myres = this->_BUF_SIZE - 1;

	mov	DWORD PTR ?SK_IMPORT_ARCH_X64@@3V?$basic_string@_WU?$char_traits@_W@std@@V?$allocator@_W@2@@std@@B+20, 7
; File c:\program files (x86)\microsoft visual studio\2017\community\vc\tools\msvc\14.10.25017\include\iosfwd

; 326  : 		_Left = _Right;

	mov	WORD PTR ?SK_IMPORT_ARCH_X64@@3V?$basic_string@_WU?$char_traits@_W@std@@V?$allocator@_W@2@@std@@B, ax
; File c:\program files (x86)\microsoft visual studio\2017\community\vc\tools\msvc\14.10.25017\include\xstring

; 2429 : 		return (assign(_Ptr, _Traits::length(_Ptr)));

	call	?assign@?$basic_string@_WU?$char_traits@_W@std@@V?$allocator@_W@2@@std@@QAEAAV12@QB_WI@Z ; std::basic_string<wchar_t,std::char_traits<wchar_t>,std::allocator<wchar_t> >::assign
; File c:\users\andon\source\repos\specialk\src\import.cpp

; 45   : const std::wstring SK_IMPORT_ARCH_X64      = L"x64";

	push	OFFSET ??__FSK_IMPORT_ARCH_X64@@YAXXZ	; `dynamic atexit destructor for 'SK_IMPORT_ARCH_X64''
	call	_atexit
	pop	ecx
	ret	0
??__ESK_IMPORT_ARCH_X64@@YAXXZ ENDP			; `dynamic initializer for 'SK_IMPORT_ARCH_X64''
text$di	ENDS
; Function compile flags: /Ogtp
; File c:\program files (x86)\microsoft visual studio\2017\community\vc\tools\msvc\14.10.25017\include\xstring
; File c:\program files (x86)\microsoft visual studio\2017\community\vc\tools\msvc\14.10.25017\include\xmemory0
; File c:\program files (x86)\microsoft visual studio\2017\community\vc\tools\msvc\14.10.25017\include\xstring
; File c:\program files (x86)\microsoft visual studio\2017\community\vc\tools\msvc\14.10.25017\include\xmemory0
; File c:\program files (x86)\microsoft visual studio\2017\community\vc\tools\msvc\14.10.25017\include\iosfwd
; File c:\program files (x86)\microsoft visual studio\2017\community\vc\tools\msvc\14.10.25017\include\xstring
; File c:\program files (x86)\microsoft visual studio\2017\community\vc\tools\msvc\14.10.25017\include\iosfwd
; File c:\program files (x86)\microsoft visual studio\2017\community\vc\tools\msvc\14.10.25017\include\xstring
;	COMDAT ??__FSK_IMPORT_ROLE_3RDPARTY@@YAXXZ
text$yd	SEGMENT
??__FSK_IMPORT_ROLE_3RDPARTY@@YAXXZ PROC		; `dynamic atexit destructor for 'SK_IMPORT_ROLE_3RDPARTY'', COMDAT

; 3606 : 		this->_Orphan_all();

	mov	ecx, OFFSET ?SK_IMPORT_ROLE_3RDPARTY@@3V?$basic_string@_WU?$char_traits@_W@std@@V?$allocator@_W@2@@std@@B
	call	?_Orphan_all@?$_String_alloc@U?$_String_base_types@_WV?$allocator@_W@std@@@std@@@std@@QAEXXZ ; std::_String_alloc<std::_String_base_types<wchar_t,std::allocator<wchar_t> > >::_Orphan_all

; 1628 : 		return (this->_BUF_SIZE <= _Myres);

	cmp	DWORD PTR ?SK_IMPORT_ROLE_3RDPARTY@@3V?$basic_string@_WU?$char_traits@_W@std@@V?$allocator@_W@2@@std@@B+20, 8

; 3608 : 		if (_My_data._Large_string_engaged())

	jb	SHORT $LN7@dynamic
	push	esi

; 3609 : 			{
; 3610 : 			pointer _Ptr = _My_data._Bx._Ptr;

	mov	esi, DWORD PTR ?SK_IMPORT_ROLE_3RDPARTY@@3V?$basic_string@_WU?$char_traits@_W@std@@V?$allocator@_W@2@@std@@B

; 3611 : 			auto& _Al = this->_Getal();
; 3612 : 			_Al.destroy(_STD addressof(_My_data._Bx._Ptr));

	mov	ecx, OFFSET ?SK_IMPORT_ROLE_3RDPARTY@@3V?$basic_string@_WU?$char_traits@_W@std@@V?$allocator@_W@2@@std@@B
	push	OFFSET ?SK_IMPORT_ROLE_3RDPARTY@@3V?$basic_string@_WU?$char_traits@_W@std@@V?$allocator@_W@2@@std@@B
	call	??$destroy@PA_W@?$_Wrap_alloc@V?$allocator@_W@std@@@std@@QAEXPAPA_W@Z ; std::_Wrap_alloc<std::allocator<wchar_t> >::destroy<wchar_t *>

; 3613 : 			_Al.deallocate(_Ptr, _My_data._Myres + 1);

	mov	eax, DWORD PTR ?SK_IMPORT_ROLE_3RDPARTY@@3V?$basic_string@_WU?$char_traits@_W@std@@V?$allocator@_W@2@@std@@B+20
; File c:\program files (x86)\microsoft visual studio\2017\community\vc\tools\msvc\14.10.25017\include\xmemory0

; 823  : 		_Deallocate(_Ptr, _Count, sizeof (_Ty));

	push	2
; File c:\program files (x86)\microsoft visual studio\2017\community\vc\tools\msvc\14.10.25017\include\xstring

; 3613 : 			_Al.deallocate(_Ptr, _My_data._Myres + 1);

	inc	eax
; File c:\program files (x86)\microsoft visual studio\2017\community\vc\tools\msvc\14.10.25017\include\xmemory0

; 823  : 		_Deallocate(_Ptr, _Count, sizeof (_Ty));

	push	eax
	push	esi
	call	?_Deallocate@std@@YAXPAXII@Z		; std::_Deallocate
	add	esp, 12					; 0000000cH
	pop	esi
$LN7@dynamic:
; File c:\program files (x86)\microsoft visual studio\2017\community\vc\tools\msvc\14.10.25017\include\iosfwd

; 326  : 		_Left = _Right;

	xor	eax, eax
; File c:\program files (x86)\microsoft visual studio\2017\community\vc\tools\msvc\14.10.25017\include\xstring

; 3616 : 		_My_data._Mysize = 0;

	mov	DWORD PTR ?SK_IMPORT_ROLE_3RDPARTY@@3V?$basic_string@_WU?$char_traits@_W@std@@V?$allocator@_W@2@@std@@B+16, 0

; 3617 : 		_My_data._Myres = this->_BUF_SIZE - 1;

	mov	DWORD PTR ?SK_IMPORT_ROLE_3RDPARTY@@3V?$basic_string@_WU?$char_traits@_W@std@@V?$allocator@_W@2@@std@@B+20, 7

; 2217 : 		}

	mov	ecx, OFFSET ?SK_IMPORT_ROLE_3RDPARTY@@3V?$basic_string@_WU?$char_traits@_W@std@@V?$allocator@_W@2@@std@@B
; File c:\program files (x86)\microsoft visual studio\2017\community\vc\tools\msvc\14.10.25017\include\iosfwd

; 326  : 		_Left = _Right;

	mov	WORD PTR ?SK_IMPORT_ROLE_3RDPARTY@@3V?$basic_string@_WU?$char_traits@_W@std@@V?$allocator@_W@2@@std@@B, ax
; File c:\program files (x86)\microsoft visual studio\2017\community\vc\tools\msvc\14.10.25017\include\xstring

; 2217 : 		}

	jmp	??1?$_String_alloc@U?$_String_base_types@_WV?$allocator@_W@std@@@std@@@std@@QAE@XZ
??__FSK_IMPORT_ROLE_3RDPARTY@@YAXXZ ENDP		; `dynamic atexit destructor for 'SK_IMPORT_ROLE_3RDPARTY''
text$yd	ENDS
; Function compile flags: /Ogtp
; File c:\users\andon\source\repos\specialk\src\import.cpp
; File c:\program files (x86)\microsoft visual studio\2017\community\vc\tools\msvc\14.10.25017\include\xutility
; File c:\program files (x86)\microsoft visual studio\2017\community\vc\tools\msvc\14.10.25017\include\xstring
; File c:\program files (x86)\microsoft visual studio\2017\community\vc\tools\msvc\14.10.25017\include\iosfwd
; File c:\program files (x86)\microsoft visual studio\2017\community\vc\tools\msvc\14.10.25017\include\xstring
; File c:\program files (x86)\microsoft visual studio\2017\community\vc\tools\msvc\14.10.25017\include\iosfwd
; File c:\program files (x86)\microsoft visual studio\2017\community\vc\tools\msvc\14.10.25017\include\xstring
; File c:\users\andon\source\repos\specialk\src\import.cpp
;	COMDAT ??__ESK_IMPORT_ROLE_3RDPARTY@@YAXXZ
text$di	SEGMENT
??__ESK_IMPORT_ROLE_3RDPARTY@@YAXXZ PROC		; `dynamic initializer for 'SK_IMPORT_ROLE_3RDPARTY'', COMDAT
; File c:\program files (x86)\microsoft visual studio\2017\community\vc\tools\msvc\14.10.25017\include\xutility

; 302  : 		: _Ty1(), _Myval2(_STD forward<_Other2>(_Val2)...)

	mov	ecx, OFFSET ?SK_IMPORT_ROLE_3RDPARTY@@3V?$basic_string@_WU?$char_traits@_W@std@@V?$allocator@_W@2@@std@@B
	call	??0?$_Wrap_alloc@V?$allocator@_W@std@@@std@@QAE@XZ ; std::_Wrap_alloc<std::allocator<wchar_t> >::_Wrap_alloc<std::allocator<wchar_t> >
; File c:\program files (x86)\microsoft visual studio\2017\community\vc\tools\msvc\14.10.25017\include\xstring

; 2429 : 		return (assign(_Ptr, _Traits::length(_Ptr)));

	push	10					; 0000000aH
; File c:\program files (x86)\microsoft visual studio\2017\community\vc\tools\msvc\14.10.25017\include\iosfwd

; 326  : 		_Left = _Right;

	xor	eax, eax
; File c:\program files (x86)\microsoft visual studio\2017\community\vc\tools\msvc\14.10.25017\include\xstring

; 3597 : 		_My_data._Mysize = 0;

	mov	DWORD PTR ?SK_IMPORT_ROLE_3RDPARTY@@3V?$basic_string@_WU?$char_traits@_W@std@@V?$allocator@_W@2@@std@@B+16, 0

; 2429 : 		return (assign(_Ptr, _Traits::length(_Ptr)));

	push	OFFSET $SG146736
	mov	ecx, OFFSET ?SK_IMPORT_ROLE_3RDPARTY@@3V?$basic_string@_WU?$char_traits@_W@std@@V?$allocator@_W@2@@std@@B

; 3598 : 		_My_data._Myres = this->_BUF_SIZE - 1;

	mov	DWORD PTR ?SK_IMPORT_ROLE_3RDPARTY@@3V?$basic_string@_WU?$char_traits@_W@std@@V?$allocator@_W@2@@std@@B+20, 7
; File c:\program files (x86)\microsoft visual studio\2017\community\vc\tools\msvc\14.10.25017\include\iosfwd

; 326  : 		_Left = _Right;

	mov	WORD PTR ?SK_IMPORT_ROLE_3RDPARTY@@3V?$basic_string@_WU?$char_traits@_W@std@@V?$allocator@_W@2@@std@@B, ax
; File c:\program files (x86)\microsoft visual studio\2017\community\vc\tools\msvc\14.10.25017\include\xstring

; 2429 : 		return (assign(_Ptr, _Traits::length(_Ptr)));

	call	?assign@?$basic_string@_WU?$char_traits@_W@std@@V?$allocator@_W@2@@std@@QAEAAV12@QB_WI@Z ; std::basic_string<wchar_t,std::char_traits<wchar_t>,std::allocator<wchar_t> >::assign
; File c:\users\andon\source\repos\specialk\src\import.cpp

; 43   : const std::wstring SK_IMPORT_ROLE_3RDPARTY = L"ThirdParty";

	push	OFFSET ??__FSK_IMPORT_ROLE_3RDPARTY@@YAXXZ ; `dynamic atexit destructor for 'SK_IMPORT_ROLE_3RDPARTY''
	call	_atexit
	pop	ecx
	ret	0
??__ESK_IMPORT_ROLE_3RDPARTY@@YAXXZ ENDP		; `dynamic initializer for 'SK_IMPORT_ROLE_3RDPARTY''
text$di	ENDS
; Function compile flags: /Ogtp
; File c:\program files (x86)\microsoft visual studio\2017\community\vc\tools\msvc\14.10.25017\include\xstring
; File c:\program files (x86)\microsoft visual studio\2017\community\vc\tools\msvc\14.10.25017\include\xmemory0
; File c:\program files (x86)\microsoft visual studio\2017\community\vc\tools\msvc\14.10.25017\include\xstring
; File c:\program files (x86)\microsoft visual studio\2017\community\vc\tools\msvc\14.10.25017\include\xmemory0
; File c:\program files (x86)\microsoft visual studio\2017\community\vc\tools\msvc\14.10.25017\include\iosfwd
; File c:\program files (x86)\microsoft visual studio\2017\community\vc\tools\msvc\14.10.25017\include\xstring
; File c:\program files (x86)\microsoft visual studio\2017\community\vc\tools\msvc\14.10.25017\include\iosfwd
; File c:\program files (x86)\microsoft visual studio\2017\community\vc\tools\msvc\14.10.25017\include\xstring
;	COMDAT ??__FSK_IMPORT_ROLE_PLUGIN@@YAXXZ
text$yd	SEGMENT
??__FSK_IMPORT_ROLE_PLUGIN@@YAXXZ PROC			; `dynamic atexit destructor for 'SK_IMPORT_ROLE_PLUGIN'', COMDAT

; 3606 : 		this->_Orphan_all();

	mov	ecx, OFFSET ?SK_IMPORT_ROLE_PLUGIN@@3V?$basic_string@_WU?$char_traits@_W@std@@V?$allocator@_W@2@@std@@B
	call	?_Orphan_all@?$_String_alloc@U?$_String_base_types@_WV?$allocator@_W@std@@@std@@@std@@QAEXXZ ; std::_String_alloc<std::_String_base_types<wchar_t,std::allocator<wchar_t> > >::_Orphan_all

; 1628 : 		return (this->_BUF_SIZE <= _Myres);

	cmp	DWORD PTR ?SK_IMPORT_ROLE_PLUGIN@@3V?$basic_string@_WU?$char_traits@_W@std@@V?$allocator@_W@2@@std@@B+20, 8

; 3608 : 		if (_My_data._Large_string_engaged())

	jb	SHORT $LN7@dynamic
	push	esi

; 3609 : 			{
; 3610 : 			pointer _Ptr = _My_data._Bx._Ptr;

	mov	esi, DWORD PTR ?SK_IMPORT_ROLE_PLUGIN@@3V?$basic_string@_WU?$char_traits@_W@std@@V?$allocator@_W@2@@std@@B

; 3611 : 			auto& _Al = this->_Getal();
; 3612 : 			_Al.destroy(_STD addressof(_My_data._Bx._Ptr));

	mov	ecx, OFFSET ?SK_IMPORT_ROLE_PLUGIN@@3V?$basic_string@_WU?$char_traits@_W@std@@V?$allocator@_W@2@@std@@B
	push	OFFSET ?SK_IMPORT_ROLE_PLUGIN@@3V?$basic_string@_WU?$char_traits@_W@std@@V?$allocator@_W@2@@std@@B
	call	??$destroy@PA_W@?$_Wrap_alloc@V?$allocator@_W@std@@@std@@QAEXPAPA_W@Z ; std::_Wrap_alloc<std::allocator<wchar_t> >::destroy<wchar_t *>

; 3613 : 			_Al.deallocate(_Ptr, _My_data._Myres + 1);

	mov	eax, DWORD PTR ?SK_IMPORT_ROLE_PLUGIN@@3V?$basic_string@_WU?$char_traits@_W@std@@V?$allocator@_W@2@@std@@B+20
; File c:\program files (x86)\microsoft visual studio\2017\community\vc\tools\msvc\14.10.25017\include\xmemory0

; 823  : 		_Deallocate(_Ptr, _Count, sizeof (_Ty));

	push	2
; File c:\program files (x86)\microsoft visual studio\2017\community\vc\tools\msvc\14.10.25017\include\xstring

; 3613 : 			_Al.deallocate(_Ptr, _My_data._Myres + 1);

	inc	eax
; File c:\program files (x86)\microsoft visual studio\2017\community\vc\tools\msvc\14.10.25017\include\xmemory0

; 823  : 		_Deallocate(_Ptr, _Count, sizeof (_Ty));

	push	eax
	push	esi
	call	?_Deallocate@std@@YAXPAXII@Z		; std::_Deallocate
	add	esp, 12					; 0000000cH
	pop	esi
$LN7@dynamic:
; File c:\program files (x86)\microsoft visual studio\2017\community\vc\tools\msvc\14.10.25017\include\iosfwd

; 326  : 		_Left = _Right;

	xor	eax, eax
; File c:\program files (x86)\microsoft visual studio\2017\community\vc\tools\msvc\14.10.25017\include\xstring

; 3616 : 		_My_data._Mysize = 0;

	mov	DWORD PTR ?SK_IMPORT_ROLE_PLUGIN@@3V?$basic_string@_WU?$char_traits@_W@std@@V?$allocator@_W@2@@std@@B+16, 0

; 3617 : 		_My_data._Myres = this->_BUF_SIZE - 1;

	mov	DWORD PTR ?SK_IMPORT_ROLE_PLUGIN@@3V?$basic_string@_WU?$char_traits@_W@std@@V?$allocator@_W@2@@std@@B+20, 7

; 2217 : 		}

	mov	ecx, OFFSET ?SK_IMPORT_ROLE_PLUGIN@@3V?$basic_string@_WU?$char_traits@_W@std@@V?$allocator@_W@2@@std@@B
; File c:\program files (x86)\microsoft visual studio\2017\community\vc\tools\msvc\14.10.25017\include\iosfwd

; 326  : 		_Left = _Right;

	mov	WORD PTR ?SK_IMPORT_ROLE_PLUGIN@@3V?$basic_string@_WU?$char_traits@_W@std@@V?$allocator@_W@2@@std@@B, ax
; File c:\program files (x86)\microsoft visual studio\2017\community\vc\tools\msvc\14.10.25017\include\xstring

; 2217 : 		}

	jmp	??1?$_String_alloc@U?$_String_base_types@_WV?$allocator@_W@std@@@std@@@std@@QAE@XZ
??__FSK_IMPORT_ROLE_PLUGIN@@YAXXZ ENDP			; `dynamic atexit destructor for 'SK_IMPORT_ROLE_PLUGIN''
text$yd	ENDS
; Function compile flags: /Ogtp
; File c:\users\andon\source\repos\specialk\src\import.cpp
; File c:\program files (x86)\microsoft visual studio\2017\community\vc\tools\msvc\14.10.25017\include\xutility
; File c:\program files (x86)\microsoft visual studio\2017\community\vc\tools\msvc\14.10.25017\include\xstring
; File c:\program files (x86)\microsoft visual studio\2017\community\vc\tools\msvc\14.10.25017\include\iosfwd
; File c:\program files (x86)\microsoft visual studio\2017\community\vc\tools\msvc\14.10.25017\include\xstring
; File c:\program files (x86)\microsoft visual studio\2017\community\vc\tools\msvc\14.10.25017\include\iosfwd
; File c:\program files (x86)\microsoft visual studio\2017\community\vc\tools\msvc\14.10.25017\include\xstring
; File c:\users\andon\source\repos\specialk\src\import.cpp
;	COMDAT ??__ESK_IMPORT_ROLE_PLUGIN@@YAXXZ
text$di	SEGMENT
??__ESK_IMPORT_ROLE_PLUGIN@@YAXXZ PROC			; `dynamic initializer for 'SK_IMPORT_ROLE_PLUGIN'', COMDAT
; File c:\program files (x86)\microsoft visual studio\2017\community\vc\tools\msvc\14.10.25017\include\xutility

; 302  : 		: _Ty1(), _Myval2(_STD forward<_Other2>(_Val2)...)

	mov	ecx, OFFSET ?SK_IMPORT_ROLE_PLUGIN@@3V?$basic_string@_WU?$char_traits@_W@std@@V?$allocator@_W@2@@std@@B
	call	??0?$_Wrap_alloc@V?$allocator@_W@std@@@std@@QAE@XZ ; std::_Wrap_alloc<std::allocator<wchar_t> >::_Wrap_alloc<std::allocator<wchar_t> >
; File c:\program files (x86)\microsoft visual studio\2017\community\vc\tools\msvc\14.10.25017\include\xstring

; 2429 : 		return (assign(_Ptr, _Traits::length(_Ptr)));

	push	6
; File c:\program files (x86)\microsoft visual studio\2017\community\vc\tools\msvc\14.10.25017\include\iosfwd

; 326  : 		_Left = _Right;

	xor	eax, eax
; File c:\program files (x86)\microsoft visual studio\2017\community\vc\tools\msvc\14.10.25017\include\xstring

; 3597 : 		_My_data._Mysize = 0;

	mov	DWORD PTR ?SK_IMPORT_ROLE_PLUGIN@@3V?$basic_string@_WU?$char_traits@_W@std@@V?$allocator@_W@2@@std@@B+16, 0

; 2429 : 		return (assign(_Ptr, _Traits::length(_Ptr)));

	push	OFFSET $SG146728
	mov	ecx, OFFSET ?SK_IMPORT_ROLE_PLUGIN@@3V?$basic_string@_WU?$char_traits@_W@std@@V?$allocator@_W@2@@std@@B

; 3598 : 		_My_data._Myres = this->_BUF_SIZE - 1;

	mov	DWORD PTR ?SK_IMPORT_ROLE_PLUGIN@@3V?$basic_string@_WU?$char_traits@_W@std@@V?$allocator@_W@2@@std@@B+20, 7
; File c:\program files (x86)\microsoft visual studio\2017\community\vc\tools\msvc\14.10.25017\include\iosfwd

; 326  : 		_Left = _Right;

	mov	WORD PTR ?SK_IMPORT_ROLE_PLUGIN@@3V?$basic_string@_WU?$char_traits@_W@std@@V?$allocator@_W@2@@std@@B, ax
; File c:\program files (x86)\microsoft visual studio\2017\community\vc\tools\msvc\14.10.25017\include\xstring

; 2429 : 		return (assign(_Ptr, _Traits::length(_Ptr)));

	call	?assign@?$basic_string@_WU?$char_traits@_W@std@@V?$allocator@_W@2@@std@@QAEAAV12@QB_WI@Z ; std::basic_string<wchar_t,std::char_traits<wchar_t>,std::allocator<wchar_t> >::assign
; File c:\users\andon\source\repos\specialk\src\import.cpp

; 42   : const std::wstring SK_IMPORT_ROLE_PLUGIN   = L"PlugIn";

	push	OFFSET ??__FSK_IMPORT_ROLE_PLUGIN@@YAXXZ ; `dynamic atexit destructor for 'SK_IMPORT_ROLE_PLUGIN''
	call	_atexit
	pop	ecx
	ret	0
??__ESK_IMPORT_ROLE_PLUGIN@@YAXXZ ENDP			; `dynamic initializer for 'SK_IMPORT_ROLE_PLUGIN''
text$di	ENDS
; Function compile flags: /Ogtp
; File c:\program files (x86)\microsoft visual studio\2017\community\vc\tools\msvc\14.10.25017\include\xstring
; File c:\program files (x86)\microsoft visual studio\2017\community\vc\tools\msvc\14.10.25017\include\xmemory0
; File c:\program files (x86)\microsoft visual studio\2017\community\vc\tools\msvc\14.10.25017\include\xstring
; File c:\program files (x86)\microsoft visual studio\2017\community\vc\tools\msvc\14.10.25017\include\xmemory0
; File c:\program files (x86)\microsoft visual studio\2017\community\vc\tools\msvc\14.10.25017\include\iosfwd
; File c:\program files (x86)\microsoft visual studio\2017\community\vc\tools\msvc\14.10.25017\include\xstring
; File c:\program files (x86)\microsoft visual studio\2017\community\vc\tools\msvc\14.10.25017\include\iosfwd
; File c:\program files (x86)\microsoft visual studio\2017\community\vc\tools\msvc\14.10.25017\include\xstring
;	COMDAT ??__FSK_IMPORT_ROLE_OPENGL@@YAXXZ
text$yd	SEGMENT
??__FSK_IMPORT_ROLE_OPENGL@@YAXXZ PROC			; `dynamic atexit destructor for 'SK_IMPORT_ROLE_OPENGL'', COMDAT

; 3606 : 		this->_Orphan_all();

	mov	ecx, OFFSET ?SK_IMPORT_ROLE_OPENGL@@3V?$basic_string@_WU?$char_traits@_W@std@@V?$allocator@_W@2@@std@@B
	call	?_Orphan_all@?$_String_alloc@U?$_String_base_types@_WV?$allocator@_W@std@@@std@@@std@@QAEXXZ ; std::_String_alloc<std::_String_base_types<wchar_t,std::allocator<wchar_t> > >::_Orphan_all

; 1628 : 		return (this->_BUF_SIZE <= _Myres);

	cmp	DWORD PTR ?SK_IMPORT_ROLE_OPENGL@@3V?$basic_string@_WU?$char_traits@_W@std@@V?$allocator@_W@2@@std@@B+20, 8

; 3608 : 		if (_My_data._Large_string_engaged())

	jb	SHORT $LN7@dynamic
	push	esi

; 3609 : 			{
; 3610 : 			pointer _Ptr = _My_data._Bx._Ptr;

	mov	esi, DWORD PTR ?SK_IMPORT_ROLE_OPENGL@@3V?$basic_string@_WU?$char_traits@_W@std@@V?$allocator@_W@2@@std@@B

; 3611 : 			auto& _Al = this->_Getal();
; 3612 : 			_Al.destroy(_STD addressof(_My_data._Bx._Ptr));

	mov	ecx, OFFSET ?SK_IMPORT_ROLE_OPENGL@@3V?$basic_string@_WU?$char_traits@_W@std@@V?$allocator@_W@2@@std@@B
	push	OFFSET ?SK_IMPORT_ROLE_OPENGL@@3V?$basic_string@_WU?$char_traits@_W@std@@V?$allocator@_W@2@@std@@B
	call	??$destroy@PA_W@?$_Wrap_alloc@V?$allocator@_W@std@@@std@@QAEXPAPA_W@Z ; std::_Wrap_alloc<std::allocator<wchar_t> >::destroy<wchar_t *>

; 3613 : 			_Al.deallocate(_Ptr, _My_data._Myres + 1);

	mov	eax, DWORD PTR ?SK_IMPORT_ROLE_OPENGL@@3V?$basic_string@_WU?$char_traits@_W@std@@V?$allocator@_W@2@@std@@B+20
; File c:\program files (x86)\microsoft visual studio\2017\community\vc\tools\msvc\14.10.25017\include\xmemory0

; 823  : 		_Deallocate(_Ptr, _Count, sizeof (_Ty));

	push	2
; File c:\program files (x86)\microsoft visual studio\2017\community\vc\tools\msvc\14.10.25017\include\xstring

; 3613 : 			_Al.deallocate(_Ptr, _My_data._Myres + 1);

	inc	eax
; File c:\program files (x86)\microsoft visual studio\2017\community\vc\tools\msvc\14.10.25017\include\xmemory0

; 823  : 		_Deallocate(_Ptr, _Count, sizeof (_Ty));

	push	eax
	push	esi
	call	?_Deallocate@std@@YAXPAXII@Z		; std::_Deallocate
	add	esp, 12					; 0000000cH
	pop	esi
$LN7@dynamic:
; File c:\program files (x86)\microsoft visual studio\2017\community\vc\tools\msvc\14.10.25017\include\iosfwd

; 326  : 		_Left = _Right;

	xor	eax, eax
; File c:\program files (x86)\microsoft visual studio\2017\community\vc\tools\msvc\14.10.25017\include\xstring

; 3616 : 		_My_data._Mysize = 0;

	mov	DWORD PTR ?SK_IMPORT_ROLE_OPENGL@@3V?$basic_string@_WU?$char_traits@_W@std@@V?$allocator@_W@2@@std@@B+16, 0

; 3617 : 		_My_data._Myres = this->_BUF_SIZE - 1;

	mov	DWORD PTR ?SK_IMPORT_ROLE_OPENGL@@3V?$basic_string@_WU?$char_traits@_W@std@@V?$allocator@_W@2@@std@@B+20, 7

; 2217 : 		}

	mov	ecx, OFFSET ?SK_IMPORT_ROLE_OPENGL@@3V?$basic_string@_WU?$char_traits@_W@std@@V?$allocator@_W@2@@std@@B
; File c:\program files (x86)\microsoft visual studio\2017\community\vc\tools\msvc\14.10.25017\include\iosfwd

; 326  : 		_Left = _Right;

	mov	WORD PTR ?SK_IMPORT_ROLE_OPENGL@@3V?$basic_string@_WU?$char_traits@_W@std@@V?$allocator@_W@2@@std@@B, ax
; File c:\program files (x86)\microsoft visual studio\2017\community\vc\tools\msvc\14.10.25017\include\xstring

; 2217 : 		}

	jmp	??1?$_String_alloc@U?$_String_base_types@_WV?$allocator@_W@std@@@std@@@std@@QAE@XZ
??__FSK_IMPORT_ROLE_OPENGL@@YAXXZ ENDP			; `dynamic atexit destructor for 'SK_IMPORT_ROLE_OPENGL''
text$yd	ENDS
; Function compile flags: /Ogtp
; File c:\users\andon\source\repos\specialk\src\import.cpp
; File c:\program files (x86)\microsoft visual studio\2017\community\vc\tools\msvc\14.10.25017\include\xutility
; File c:\program files (x86)\microsoft visual studio\2017\community\vc\tools\msvc\14.10.25017\include\xstring
; File c:\program files (x86)\microsoft visual studio\2017\community\vc\tools\msvc\14.10.25017\include\iosfwd
; File c:\program files (x86)\microsoft visual studio\2017\community\vc\tools\msvc\14.10.25017\include\xstring
; File c:\program files (x86)\microsoft visual studio\2017\community\vc\tools\msvc\14.10.25017\include\iosfwd
; File c:\program files (x86)\microsoft visual studio\2017\community\vc\tools\msvc\14.10.25017\include\xstring
; File c:\users\andon\source\repos\specialk\src\import.cpp
;	COMDAT ??__ESK_IMPORT_ROLE_OPENGL@@YAXXZ
text$di	SEGMENT
??__ESK_IMPORT_ROLE_OPENGL@@YAXXZ PROC			; `dynamic initializer for 'SK_IMPORT_ROLE_OPENGL'', COMDAT
; File c:\program files (x86)\microsoft visual studio\2017\community\vc\tools\msvc\14.10.25017\include\xutility

; 302  : 		: _Ty1(), _Myval2(_STD forward<_Other2>(_Val2)...)

	mov	ecx, OFFSET ?SK_IMPORT_ROLE_OPENGL@@3V?$basic_string@_WU?$char_traits@_W@std@@V?$allocator@_W@2@@std@@B
	call	??0?$_Wrap_alloc@V?$allocator@_W@std@@@std@@QAE@XZ ; std::_Wrap_alloc<std::allocator<wchar_t> >::_Wrap_alloc<std::allocator<wchar_t> >
; File c:\program files (x86)\microsoft visual studio\2017\community\vc\tools\msvc\14.10.25017\include\xstring

; 2429 : 		return (assign(_Ptr, _Traits::length(_Ptr)));

	push	8
; File c:\program files (x86)\microsoft visual studio\2017\community\vc\tools\msvc\14.10.25017\include\iosfwd

; 326  : 		_Left = _Right;

	xor	eax, eax
; File c:\program files (x86)\microsoft visual studio\2017\community\vc\tools\msvc\14.10.25017\include\xstring

; 3597 : 		_My_data._Mysize = 0;

	mov	DWORD PTR ?SK_IMPORT_ROLE_OPENGL@@3V?$basic_string@_WU?$char_traits@_W@std@@V?$allocator@_W@2@@std@@B+16, 0

; 2429 : 		return (assign(_Ptr, _Traits::length(_Ptr)));

	push	OFFSET $SG146720
	mov	ecx, OFFSET ?SK_IMPORT_ROLE_OPENGL@@3V?$basic_string@_WU?$char_traits@_W@std@@V?$allocator@_W@2@@std@@B

; 3598 : 		_My_data._Myres = this->_BUF_SIZE - 1;

	mov	DWORD PTR ?SK_IMPORT_ROLE_OPENGL@@3V?$basic_string@_WU?$char_traits@_W@std@@V?$allocator@_W@2@@std@@B+20, 7
; File c:\program files (x86)\microsoft visual studio\2017\community\vc\tools\msvc\14.10.25017\include\iosfwd

; 326  : 		_Left = _Right;

	mov	WORD PTR ?SK_IMPORT_ROLE_OPENGL@@3V?$basic_string@_WU?$char_traits@_W@std@@V?$allocator@_W@2@@std@@B, ax
; File c:\program files (x86)\microsoft visual studio\2017\community\vc\tools\msvc\14.10.25017\include\xstring

; 2429 : 		return (assign(_Ptr, _Traits::length(_Ptr)));

	call	?assign@?$basic_string@_WU?$char_traits@_W@std@@V?$allocator@_W@2@@std@@QAEAAV12@QB_WI@Z ; std::basic_string<wchar_t,std::char_traits<wchar_t>,std::allocator<wchar_t> >::assign
; File c:\users\andon\source\repos\specialk\src\import.cpp

; 41   : const std::wstring SK_IMPORT_ROLE_OPENGL   = L"OpenGL32";

	push	OFFSET ??__FSK_IMPORT_ROLE_OPENGL@@YAXXZ ; `dynamic atexit destructor for 'SK_IMPORT_ROLE_OPENGL''
	call	_atexit
	pop	ecx
	ret	0
??__ESK_IMPORT_ROLE_OPENGL@@YAXXZ ENDP			; `dynamic initializer for 'SK_IMPORT_ROLE_OPENGL''
text$di	ENDS
; Function compile flags: /Ogtp
; File c:\program files (x86)\microsoft visual studio\2017\community\vc\tools\msvc\14.10.25017\include\xstring
; File c:\program files (x86)\microsoft visual studio\2017\community\vc\tools\msvc\14.10.25017\include\xmemory0
; File c:\program files (x86)\microsoft visual studio\2017\community\vc\tools\msvc\14.10.25017\include\xstring
; File c:\program files (x86)\microsoft visual studio\2017\community\vc\tools\msvc\14.10.25017\include\xmemory0
; File c:\program files (x86)\microsoft visual studio\2017\community\vc\tools\msvc\14.10.25017\include\iosfwd
; File c:\program files (x86)\microsoft visual studio\2017\community\vc\tools\msvc\14.10.25017\include\xstring
; File c:\program files (x86)\microsoft visual studio\2017\community\vc\tools\msvc\14.10.25017\include\iosfwd
; File c:\program files (x86)\microsoft visual studio\2017\community\vc\tools\msvc\14.10.25017\include\xstring
;	COMDAT ??__FSK_IMPORT_ROLE_D3D9@@YAXXZ
text$yd	SEGMENT
??__FSK_IMPORT_ROLE_D3D9@@YAXXZ PROC			; `dynamic atexit destructor for 'SK_IMPORT_ROLE_D3D9'', COMDAT

; 3606 : 		this->_Orphan_all();

	mov	ecx, OFFSET ?SK_IMPORT_ROLE_D3D9@@3V?$basic_string@_WU?$char_traits@_W@std@@V?$allocator@_W@2@@std@@B
	call	?_Orphan_all@?$_String_alloc@U?$_String_base_types@_WV?$allocator@_W@std@@@std@@@std@@QAEXXZ ; std::_String_alloc<std::_String_base_types<wchar_t,std::allocator<wchar_t> > >::_Orphan_all

; 1628 : 		return (this->_BUF_SIZE <= _Myres);

	cmp	DWORD PTR ?SK_IMPORT_ROLE_D3D9@@3V?$basic_string@_WU?$char_traits@_W@std@@V?$allocator@_W@2@@std@@B+20, 8

; 3608 : 		if (_My_data._Large_string_engaged())

	jb	SHORT $LN7@dynamic
	push	esi

; 3609 : 			{
; 3610 : 			pointer _Ptr = _My_data._Bx._Ptr;

	mov	esi, DWORD PTR ?SK_IMPORT_ROLE_D3D9@@3V?$basic_string@_WU?$char_traits@_W@std@@V?$allocator@_W@2@@std@@B

; 3611 : 			auto& _Al = this->_Getal();
; 3612 : 			_Al.destroy(_STD addressof(_My_data._Bx._Ptr));

	mov	ecx, OFFSET ?SK_IMPORT_ROLE_D3D9@@3V?$basic_string@_WU?$char_traits@_W@std@@V?$allocator@_W@2@@std@@B
	push	OFFSET ?SK_IMPORT_ROLE_D3D9@@3V?$basic_string@_WU?$char_traits@_W@std@@V?$allocator@_W@2@@std@@B
	call	??$destroy@PA_W@?$_Wrap_alloc@V?$allocator@_W@std@@@std@@QAEXPAPA_W@Z ; std::_Wrap_alloc<std::allocator<wchar_t> >::destroy<wchar_t *>

; 3613 : 			_Al.deallocate(_Ptr, _My_data._Myres + 1);

	mov	eax, DWORD PTR ?SK_IMPORT_ROLE_D3D9@@3V?$basic_string@_WU?$char_traits@_W@std@@V?$allocator@_W@2@@std@@B+20
; File c:\program files (x86)\microsoft visual studio\2017\community\vc\tools\msvc\14.10.25017\include\xmemory0

; 823  : 		_Deallocate(_Ptr, _Count, sizeof (_Ty));

	push	2
; File c:\program files (x86)\microsoft visual studio\2017\community\vc\tools\msvc\14.10.25017\include\xstring

; 3613 : 			_Al.deallocate(_Ptr, _My_data._Myres + 1);

	inc	eax
; File c:\program files (x86)\microsoft visual studio\2017\community\vc\tools\msvc\14.10.25017\include\xmemory0

; 823  : 		_Deallocate(_Ptr, _Count, sizeof (_Ty));

	push	eax
	push	esi
	call	?_Deallocate@std@@YAXPAXII@Z		; std::_Deallocate
	add	esp, 12					; 0000000cH
	pop	esi
$LN7@dynamic:
; File c:\program files (x86)\microsoft visual studio\2017\community\vc\tools\msvc\14.10.25017\include\iosfwd

; 326  : 		_Left = _Right;

	xor	eax, eax
; File c:\program files (x86)\microsoft visual studio\2017\community\vc\tools\msvc\14.10.25017\include\xstring

; 3616 : 		_My_data._Mysize = 0;

	mov	DWORD PTR ?SK_IMPORT_ROLE_D3D9@@3V?$basic_string@_WU?$char_traits@_W@std@@V?$allocator@_W@2@@std@@B+16, 0

; 3617 : 		_My_data._Myres = this->_BUF_SIZE - 1;

	mov	DWORD PTR ?SK_IMPORT_ROLE_D3D9@@3V?$basic_string@_WU?$char_traits@_W@std@@V?$allocator@_W@2@@std@@B+20, 7

; 2217 : 		}

	mov	ecx, OFFSET ?SK_IMPORT_ROLE_D3D9@@3V?$basic_string@_WU?$char_traits@_W@std@@V?$allocator@_W@2@@std@@B
; File c:\program files (x86)\microsoft visual studio\2017\community\vc\tools\msvc\14.10.25017\include\iosfwd

; 326  : 		_Left = _Right;

	mov	WORD PTR ?SK_IMPORT_ROLE_D3D9@@3V?$basic_string@_WU?$char_traits@_W@std@@V?$allocator@_W@2@@std@@B, ax
; File c:\program files (x86)\microsoft visual studio\2017\community\vc\tools\msvc\14.10.25017\include\xstring

; 2217 : 		}

	jmp	??1?$_String_alloc@U?$_String_base_types@_WV?$allocator@_W@std@@@std@@@std@@QAE@XZ
??__FSK_IMPORT_ROLE_D3D9@@YAXXZ ENDP			; `dynamic atexit destructor for 'SK_IMPORT_ROLE_D3D9''
text$yd	ENDS
; Function compile flags: /Ogtp
; File c:\users\andon\source\repos\specialk\src\import.cpp
; File c:\program files (x86)\microsoft visual studio\2017\community\vc\tools\msvc\14.10.25017\include\xutility
; File c:\program files (x86)\microsoft visual studio\2017\community\vc\tools\msvc\14.10.25017\include\xstring
; File c:\program files (x86)\microsoft visual studio\2017\community\vc\tools\msvc\14.10.25017\include\iosfwd
; File c:\program files (x86)\microsoft visual studio\2017\community\vc\tools\msvc\14.10.25017\include\xstring
; File c:\program files (x86)\microsoft visual studio\2017\community\vc\tools\msvc\14.10.25017\include\iosfwd
; File c:\program files (x86)\microsoft visual studio\2017\community\vc\tools\msvc\14.10.25017\include\xstring
; File c:\users\andon\source\repos\specialk\src\import.cpp
;	COMDAT ??__ESK_IMPORT_ROLE_D3D9@@YAXXZ
text$di	SEGMENT
??__ESK_IMPORT_ROLE_D3D9@@YAXXZ PROC			; `dynamic initializer for 'SK_IMPORT_ROLE_D3D9'', COMDAT
; File c:\program files (x86)\microsoft visual studio\2017\community\vc\tools\msvc\14.10.25017\include\xutility

; 302  : 		: _Ty1(), _Myval2(_STD forward<_Other2>(_Val2)...)

	mov	ecx, OFFSET ?SK_IMPORT_ROLE_D3D9@@3V?$basic_string@_WU?$char_traits@_W@std@@V?$allocator@_W@2@@std@@B
	call	??0?$_Wrap_alloc@V?$allocator@_W@std@@@std@@QAE@XZ ; std::_Wrap_alloc<std::allocator<wchar_t> >::_Wrap_alloc<std::allocator<wchar_t> >
; File c:\program files (x86)\microsoft visual studio\2017\community\vc\tools\msvc\14.10.25017\include\xstring

; 2429 : 		return (assign(_Ptr, _Traits::length(_Ptr)));

	push	4
; File c:\program files (x86)\microsoft visual studio\2017\community\vc\tools\msvc\14.10.25017\include\iosfwd

; 326  : 		_Left = _Right;

	xor	eax, eax
; File c:\program files (x86)\microsoft visual studio\2017\community\vc\tools\msvc\14.10.25017\include\xstring

; 3597 : 		_My_data._Mysize = 0;

	mov	DWORD PTR ?SK_IMPORT_ROLE_D3D9@@3V?$basic_string@_WU?$char_traits@_W@std@@V?$allocator@_W@2@@std@@B+16, 0

; 2429 : 		return (assign(_Ptr, _Traits::length(_Ptr)));

	push	OFFSET $SG146712
	mov	ecx, OFFSET ?SK_IMPORT_ROLE_D3D9@@3V?$basic_string@_WU?$char_traits@_W@std@@V?$allocator@_W@2@@std@@B

; 3598 : 		_My_data._Myres = this->_BUF_SIZE - 1;

	mov	DWORD PTR ?SK_IMPORT_ROLE_D3D9@@3V?$basic_string@_WU?$char_traits@_W@std@@V?$allocator@_W@2@@std@@B+20, 7
; File c:\program files (x86)\microsoft visual studio\2017\community\vc\tools\msvc\14.10.25017\include\iosfwd

; 326  : 		_Left = _Right;

	mov	WORD PTR ?SK_IMPORT_ROLE_D3D9@@3V?$basic_string@_WU?$char_traits@_W@std@@V?$allocator@_W@2@@std@@B, ax
; File c:\program files (x86)\microsoft visual studio\2017\community\vc\tools\msvc\14.10.25017\include\xstring

; 2429 : 		return (assign(_Ptr, _Traits::length(_Ptr)));

	call	?assign@?$basic_string@_WU?$char_traits@_W@std@@V?$allocator@_W@2@@std@@QAEAAV12@QB_WI@Z ; std::basic_string<wchar_t,std::char_traits<wchar_t>,std::allocator<wchar_t> >::assign
; File c:\users\andon\source\repos\specialk\src\import.cpp

; 40   : const std::wstring SK_IMPORT_ROLE_D3D9     = L"d3d9";

	push	OFFSET ??__FSK_IMPORT_ROLE_D3D9@@YAXXZ	; `dynamic atexit destructor for 'SK_IMPORT_ROLE_D3D9''
	call	_atexit
	pop	ecx
	ret	0
??__ESK_IMPORT_ROLE_D3D9@@YAXXZ ENDP			; `dynamic initializer for 'SK_IMPORT_ROLE_D3D9''
text$di	ENDS
; Function compile flags: /Ogtp
; File c:\program files (x86)\microsoft visual studio\2017\community\vc\tools\msvc\14.10.25017\include\xstring
; File c:\program files (x86)\microsoft visual studio\2017\community\vc\tools\msvc\14.10.25017\include\xmemory0
; File c:\program files (x86)\microsoft visual studio\2017\community\vc\tools\msvc\14.10.25017\include\xstring
; File c:\program files (x86)\microsoft visual studio\2017\community\vc\tools\msvc\14.10.25017\include\xmemory0
; File c:\program files (x86)\microsoft visual studio\2017\community\vc\tools\msvc\14.10.25017\include\iosfwd
; File c:\program files (x86)\microsoft visual studio\2017\community\vc\tools\msvc\14.10.25017\include\xstring
; File c:\program files (x86)\microsoft visual studio\2017\community\vc\tools\msvc\14.10.25017\include\iosfwd
; File c:\program files (x86)\microsoft visual studio\2017\community\vc\tools\msvc\14.10.25017\include\xstring
;	COMDAT ??__FSK_IMPORT_ROLE_D3D11@@YAXXZ
text$yd	SEGMENT
??__FSK_IMPORT_ROLE_D3D11@@YAXXZ PROC			; `dynamic atexit destructor for 'SK_IMPORT_ROLE_D3D11'', COMDAT

; 3606 : 		this->_Orphan_all();

	mov	ecx, OFFSET ?SK_IMPORT_ROLE_D3D11@@3V?$basic_string@_WU?$char_traits@_W@std@@V?$allocator@_W@2@@std@@B ; SK_IMPORT_ROLE_D3D11
	call	?_Orphan_all@?$_String_alloc@U?$_String_base_types@_WV?$allocator@_W@std@@@std@@@std@@QAEXXZ ; std::_String_alloc<std::_String_base_types<wchar_t,std::allocator<wchar_t> > >::_Orphan_all

; 1628 : 		return (this->_BUF_SIZE <= _Myres);

	cmp	DWORD PTR ?SK_IMPORT_ROLE_D3D11@@3V?$basic_string@_WU?$char_traits@_W@std@@V?$allocator@_W@2@@std@@B+20, 8

; 3608 : 		if (_My_data._Large_string_engaged())

	jb	SHORT $LN7@dynamic
	push	esi

; 3609 : 			{
; 3610 : 			pointer _Ptr = _My_data._Bx._Ptr;

	mov	esi, DWORD PTR ?SK_IMPORT_ROLE_D3D11@@3V?$basic_string@_WU?$char_traits@_W@std@@V?$allocator@_W@2@@std@@B

; 3611 : 			auto& _Al = this->_Getal();
; 3612 : 			_Al.destroy(_STD addressof(_My_data._Bx._Ptr));

	mov	ecx, OFFSET ?SK_IMPORT_ROLE_D3D11@@3V?$basic_string@_WU?$char_traits@_W@std@@V?$allocator@_W@2@@std@@B ; SK_IMPORT_ROLE_D3D11
	push	OFFSET ?SK_IMPORT_ROLE_D3D11@@3V?$basic_string@_WU?$char_traits@_W@std@@V?$allocator@_W@2@@std@@B ; SK_IMPORT_ROLE_D3D11
	call	??$destroy@PA_W@?$_Wrap_alloc@V?$allocator@_W@std@@@std@@QAEXPAPA_W@Z ; std::_Wrap_alloc<std::allocator<wchar_t> >::destroy<wchar_t *>

; 3613 : 			_Al.deallocate(_Ptr, _My_data._Myres + 1);

	mov	eax, DWORD PTR ?SK_IMPORT_ROLE_D3D11@@3V?$basic_string@_WU?$char_traits@_W@std@@V?$allocator@_W@2@@std@@B+20
; File c:\program files (x86)\microsoft visual studio\2017\community\vc\tools\msvc\14.10.25017\include\xmemory0

; 823  : 		_Deallocate(_Ptr, _Count, sizeof (_Ty));

	push	2
; File c:\program files (x86)\microsoft visual studio\2017\community\vc\tools\msvc\14.10.25017\include\xstring

; 3613 : 			_Al.deallocate(_Ptr, _My_data._Myres + 1);

	inc	eax
; File c:\program files (x86)\microsoft visual studio\2017\community\vc\tools\msvc\14.10.25017\include\xmemory0

; 823  : 		_Deallocate(_Ptr, _Count, sizeof (_Ty));

	push	eax
	push	esi
	call	?_Deallocate@std@@YAXPAXII@Z		; std::_Deallocate
	add	esp, 12					; 0000000cH
	pop	esi
$LN7@dynamic:
; File c:\program files (x86)\microsoft visual studio\2017\community\vc\tools\msvc\14.10.25017\include\iosfwd

; 326  : 		_Left = _Right;

	xor	eax, eax
; File c:\program files (x86)\microsoft visual studio\2017\community\vc\tools\msvc\14.10.25017\include\xstring

; 3616 : 		_My_data._Mysize = 0;

	mov	DWORD PTR ?SK_IMPORT_ROLE_D3D11@@3V?$basic_string@_WU?$char_traits@_W@std@@V?$allocator@_W@2@@std@@B+16, 0

; 3617 : 		_My_data._Myres = this->_BUF_SIZE - 1;

	mov	DWORD PTR ?SK_IMPORT_ROLE_D3D11@@3V?$basic_string@_WU?$char_traits@_W@std@@V?$allocator@_W@2@@std@@B+20, 7

; 2217 : 		}

	mov	ecx, OFFSET ?SK_IMPORT_ROLE_D3D11@@3V?$basic_string@_WU?$char_traits@_W@std@@V?$allocator@_W@2@@std@@B ; SK_IMPORT_ROLE_D3D11
; File c:\program files (x86)\microsoft visual studio\2017\community\vc\tools\msvc\14.10.25017\include\iosfwd

; 326  : 		_Left = _Right;

	mov	WORD PTR ?SK_IMPORT_ROLE_D3D11@@3V?$basic_string@_WU?$char_traits@_W@std@@V?$allocator@_W@2@@std@@B, ax
; File c:\program files (x86)\microsoft visual studio\2017\community\vc\tools\msvc\14.10.25017\include\xstring

; 2217 : 		}

	jmp	??1?$_String_alloc@U?$_String_base_types@_WV?$allocator@_W@std@@@std@@@std@@QAE@XZ
??__FSK_IMPORT_ROLE_D3D11@@YAXXZ ENDP			; `dynamic atexit destructor for 'SK_IMPORT_ROLE_D3D11''
text$yd	ENDS
; Function compile flags: /Ogtp
; File c:\users\andon\source\repos\specialk\src\import.cpp
; File c:\program files (x86)\microsoft visual studio\2017\community\vc\tools\msvc\14.10.25017\include\xutility
; File c:\program files (x86)\microsoft visual studio\2017\community\vc\tools\msvc\14.10.25017\include\xstring
; File c:\program files (x86)\microsoft visual studio\2017\community\vc\tools\msvc\14.10.25017\include\iosfwd
; File c:\program files (x86)\microsoft visual studio\2017\community\vc\tools\msvc\14.10.25017\include\xstring
; File c:\program files (x86)\microsoft visual studio\2017\community\vc\tools\msvc\14.10.25017\include\iosfwd
; File c:\program files (x86)\microsoft visual studio\2017\community\vc\tools\msvc\14.10.25017\include\xstring
; File c:\users\andon\source\repos\specialk\src\import.cpp
;	COMDAT ??__ESK_IMPORT_ROLE_D3D11@@YAXXZ
text$di	SEGMENT
??__ESK_IMPORT_ROLE_D3D11@@YAXXZ PROC			; `dynamic initializer for 'SK_IMPORT_ROLE_D3D11'', COMDAT
; File c:\program files (x86)\microsoft visual studio\2017\community\vc\tools\msvc\14.10.25017\include\xutility

; 302  : 		: _Ty1(), _Myval2(_STD forward<_Other2>(_Val2)...)

	mov	ecx, OFFSET ?SK_IMPORT_ROLE_D3D11@@3V?$basic_string@_WU?$char_traits@_W@std@@V?$allocator@_W@2@@std@@B ; SK_IMPORT_ROLE_D3D11
	call	??0?$_Wrap_alloc@V?$allocator@_W@std@@@std@@QAE@XZ ; std::_Wrap_alloc<std::allocator<wchar_t> >::_Wrap_alloc<std::allocator<wchar_t> >
; File c:\program files (x86)\microsoft visual studio\2017\community\vc\tools\msvc\14.10.25017\include\xstring

; 2429 : 		return (assign(_Ptr, _Traits::length(_Ptr)));

	push	5
; File c:\program files (x86)\microsoft visual studio\2017\community\vc\tools\msvc\14.10.25017\include\iosfwd

; 326  : 		_Left = _Right;

	xor	eax, eax
; File c:\program files (x86)\microsoft visual studio\2017\community\vc\tools\msvc\14.10.25017\include\xstring

; 3597 : 		_My_data._Mysize = 0;

	mov	DWORD PTR ?SK_IMPORT_ROLE_D3D11@@3V?$basic_string@_WU?$char_traits@_W@std@@V?$allocator@_W@2@@std@@B+16, 0

; 2429 : 		return (assign(_Ptr, _Traits::length(_Ptr)));

	push	OFFSET $SG146704
	mov	ecx, OFFSET ?SK_IMPORT_ROLE_D3D11@@3V?$basic_string@_WU?$char_traits@_W@std@@V?$allocator@_W@2@@std@@B ; SK_IMPORT_ROLE_D3D11

; 3598 : 		_My_data._Myres = this->_BUF_SIZE - 1;

	mov	DWORD PTR ?SK_IMPORT_ROLE_D3D11@@3V?$basic_string@_WU?$char_traits@_W@std@@V?$allocator@_W@2@@std@@B+20, 7
; File c:\program files (x86)\microsoft visual studio\2017\community\vc\tools\msvc\14.10.25017\include\iosfwd

; 326  : 		_Left = _Right;

	mov	WORD PTR ?SK_IMPORT_ROLE_D3D11@@3V?$basic_string@_WU?$char_traits@_W@std@@V?$allocator@_W@2@@std@@B, ax
; File c:\program files (x86)\microsoft visual studio\2017\community\vc\tools\msvc\14.10.25017\include\xstring

; 2429 : 		return (assign(_Ptr, _Traits::length(_Ptr)));

	call	?assign@?$basic_string@_WU?$char_traits@_W@std@@V?$allocator@_W@2@@std@@QAEAAV12@QB_WI@Z ; std::basic_string<wchar_t,std::char_traits<wchar_t>,std::allocator<wchar_t> >::assign
; File c:\users\andon\source\repos\specialk\src\import.cpp

; 39   : const std::wstring SK_IMPORT_ROLE_D3D11    = L"d3d11";

	push	OFFSET ??__FSK_IMPORT_ROLE_D3D11@@YAXXZ	; `dynamic atexit destructor for 'SK_IMPORT_ROLE_D3D11''
	call	_atexit
	pop	ecx
	ret	0
??__ESK_IMPORT_ROLE_D3D11@@YAXXZ ENDP			; `dynamic initializer for 'SK_IMPORT_ROLE_D3D11''
text$di	ENDS
; Function compile flags: /Ogtp
; File c:\program files (x86)\microsoft visual studio\2017\community\vc\tools\msvc\14.10.25017\include\xstring
; File c:\program files (x86)\microsoft visual studio\2017\community\vc\tools\msvc\14.10.25017\include\xmemory0
; File c:\program files (x86)\microsoft visual studio\2017\community\vc\tools\msvc\14.10.25017\include\xstring
; File c:\program files (x86)\microsoft visual studio\2017\community\vc\tools\msvc\14.10.25017\include\xmemory0
; File c:\program files (x86)\microsoft visual studio\2017\community\vc\tools\msvc\14.10.25017\include\iosfwd
; File c:\program files (x86)\microsoft visual studio\2017\community\vc\tools\msvc\14.10.25017\include\xstring
; File c:\program files (x86)\microsoft visual studio\2017\community\vc\tools\msvc\14.10.25017\include\iosfwd
; File c:\program files (x86)\microsoft visual studio\2017\community\vc\tools\msvc\14.10.25017\include\xstring
;	COMDAT ??__FSK_IMPORT_ROLE_DXGI@@YAXXZ
text$yd	SEGMENT
??__FSK_IMPORT_ROLE_DXGI@@YAXXZ PROC			; `dynamic atexit destructor for 'SK_IMPORT_ROLE_DXGI'', COMDAT

; 3606 : 		this->_Orphan_all();

	mov	ecx, OFFSET ?SK_IMPORT_ROLE_DXGI@@3V?$basic_string@_WU?$char_traits@_W@std@@V?$allocator@_W@2@@std@@B ; SK_IMPORT_ROLE_DXGI
	call	?_Orphan_all@?$_String_alloc@U?$_String_base_types@_WV?$allocator@_W@std@@@std@@@std@@QAEXXZ ; std::_String_alloc<std::_String_base_types<wchar_t,std::allocator<wchar_t> > >::_Orphan_all

; 1628 : 		return (this->_BUF_SIZE <= _Myres);

	cmp	DWORD PTR ?SK_IMPORT_ROLE_DXGI@@3V?$basic_string@_WU?$char_traits@_W@std@@V?$allocator@_W@2@@std@@B+20, 8

; 3608 : 		if (_My_data._Large_string_engaged())

	jb	SHORT $LN7@dynamic
	push	esi

; 3609 : 			{
; 3610 : 			pointer _Ptr = _My_data._Bx._Ptr;

	mov	esi, DWORD PTR ?SK_IMPORT_ROLE_DXGI@@3V?$basic_string@_WU?$char_traits@_W@std@@V?$allocator@_W@2@@std@@B

; 3611 : 			auto& _Al = this->_Getal();
; 3612 : 			_Al.destroy(_STD addressof(_My_data._Bx._Ptr));

	mov	ecx, OFFSET ?SK_IMPORT_ROLE_DXGI@@3V?$basic_string@_WU?$char_traits@_W@std@@V?$allocator@_W@2@@std@@B ; SK_IMPORT_ROLE_DXGI
	push	OFFSET ?SK_IMPORT_ROLE_DXGI@@3V?$basic_string@_WU?$char_traits@_W@std@@V?$allocator@_W@2@@std@@B ; SK_IMPORT_ROLE_DXGI
	call	??$destroy@PA_W@?$_Wrap_alloc@V?$allocator@_W@std@@@std@@QAEXPAPA_W@Z ; std::_Wrap_alloc<std::allocator<wchar_t> >::destroy<wchar_t *>

; 3613 : 			_Al.deallocate(_Ptr, _My_data._Myres + 1);

	mov	eax, DWORD PTR ?SK_IMPORT_ROLE_DXGI@@3V?$basic_string@_WU?$char_traits@_W@std@@V?$allocator@_W@2@@std@@B+20
; File c:\program files (x86)\microsoft visual studio\2017\community\vc\tools\msvc\14.10.25017\include\xmemory0

; 823  : 		_Deallocate(_Ptr, _Count, sizeof (_Ty));

	push	2
; File c:\program files (x86)\microsoft visual studio\2017\community\vc\tools\msvc\14.10.25017\include\xstring

; 3613 : 			_Al.deallocate(_Ptr, _My_data._Myres + 1);

	inc	eax
; File c:\program files (x86)\microsoft visual studio\2017\community\vc\tools\msvc\14.10.25017\include\xmemory0

; 823  : 		_Deallocate(_Ptr, _Count, sizeof (_Ty));

	push	eax
	push	esi
	call	?_Deallocate@std@@YAXPAXII@Z		; std::_Deallocate
	add	esp, 12					; 0000000cH
	pop	esi
$LN7@dynamic:
; File c:\program files (x86)\microsoft visual studio\2017\community\vc\tools\msvc\14.10.25017\include\iosfwd

; 326  : 		_Left = _Right;

	xor	eax, eax
; File c:\program files (x86)\microsoft visual studio\2017\community\vc\tools\msvc\14.10.25017\include\xstring

; 3616 : 		_My_data._Mysize = 0;

	mov	DWORD PTR ?SK_IMPORT_ROLE_DXGI@@3V?$basic_string@_WU?$char_traits@_W@std@@V?$allocator@_W@2@@std@@B+16, 0

; 3617 : 		_My_data._Myres = this->_BUF_SIZE - 1;

	mov	DWORD PTR ?SK_IMPORT_ROLE_DXGI@@3V?$basic_string@_WU?$char_traits@_W@std@@V?$allocator@_W@2@@std@@B+20, 7

; 2217 : 		}

	mov	ecx, OFFSET ?SK_IMPORT_ROLE_DXGI@@3V?$basic_string@_WU?$char_traits@_W@std@@V?$allocator@_W@2@@std@@B ; SK_IMPORT_ROLE_DXGI
; File c:\program files (x86)\microsoft visual studio\2017\community\vc\tools\msvc\14.10.25017\include\iosfwd

; 326  : 		_Left = _Right;

	mov	WORD PTR ?SK_IMPORT_ROLE_DXGI@@3V?$basic_string@_WU?$char_traits@_W@std@@V?$allocator@_W@2@@std@@B, ax
; File c:\program files (x86)\microsoft visual studio\2017\community\vc\tools\msvc\14.10.25017\include\xstring

; 2217 : 		}

	jmp	??1?$_String_alloc@U?$_String_base_types@_WV?$allocator@_W@std@@@std@@@std@@QAE@XZ
??__FSK_IMPORT_ROLE_DXGI@@YAXXZ ENDP			; `dynamic atexit destructor for 'SK_IMPORT_ROLE_DXGI''
text$yd	ENDS
; Function compile flags: /Ogtp
; File c:\users\andon\source\repos\specialk\src\import.cpp
; File c:\program files (x86)\microsoft visual studio\2017\community\vc\tools\msvc\14.10.25017\include\xutility
; File c:\program files (x86)\microsoft visual studio\2017\community\vc\tools\msvc\14.10.25017\include\xstring
; File c:\program files (x86)\microsoft visual studio\2017\community\vc\tools\msvc\14.10.25017\include\iosfwd
; File c:\program files (x86)\microsoft visual studio\2017\community\vc\tools\msvc\14.10.25017\include\xstring
; File c:\program files (x86)\microsoft visual studio\2017\community\vc\tools\msvc\14.10.25017\include\iosfwd
; File c:\program files (x86)\microsoft visual studio\2017\community\vc\tools\msvc\14.10.25017\include\xstring
; File c:\users\andon\source\repos\specialk\src\import.cpp
;	COMDAT ??__ESK_IMPORT_ROLE_DXGI@@YAXXZ
text$di	SEGMENT
??__ESK_IMPORT_ROLE_DXGI@@YAXXZ PROC			; `dynamic initializer for 'SK_IMPORT_ROLE_DXGI'', COMDAT
; File c:\program files (x86)\microsoft visual studio\2017\community\vc\tools\msvc\14.10.25017\include\xutility

; 302  : 		: _Ty1(), _Myval2(_STD forward<_Other2>(_Val2)...)

	mov	ecx, OFFSET ?SK_IMPORT_ROLE_DXGI@@3V?$basic_string@_WU?$char_traits@_W@std@@V?$allocator@_W@2@@std@@B ; SK_IMPORT_ROLE_DXGI
	call	??0?$_Wrap_alloc@V?$allocator@_W@std@@@std@@QAE@XZ ; std::_Wrap_alloc<std::allocator<wchar_t> >::_Wrap_alloc<std::allocator<wchar_t> >
; File c:\program files (x86)\microsoft visual studio\2017\community\vc\tools\msvc\14.10.25017\include\xstring

; 2429 : 		return (assign(_Ptr, _Traits::length(_Ptr)));

	push	4
; File c:\program files (x86)\microsoft visual studio\2017\community\vc\tools\msvc\14.10.25017\include\iosfwd

; 326  : 		_Left = _Right;

	xor	eax, eax
; File c:\program files (x86)\microsoft visual studio\2017\community\vc\tools\msvc\14.10.25017\include\xstring

; 3597 : 		_My_data._Mysize = 0;

	mov	DWORD PTR ?SK_IMPORT_ROLE_DXGI@@3V?$basic_string@_WU?$char_traits@_W@std@@V?$allocator@_W@2@@std@@B+16, 0

; 2429 : 		return (assign(_Ptr, _Traits::length(_Ptr)));

	push	OFFSET $SG146698
	mov	ecx, OFFSET ?SK_IMPORT_ROLE_DXGI@@3V?$basic_string@_WU?$char_traits@_W@std@@V?$allocator@_W@2@@std@@B ; SK_IMPORT_ROLE_DXGI

; 3598 : 		_My_data._Myres = this->_BUF_SIZE - 1;

	mov	DWORD PTR ?SK_IMPORT_ROLE_DXGI@@3V?$basic_string@_WU?$char_traits@_W@std@@V?$allocator@_W@2@@std@@B+20, 7
; File c:\program files (x86)\microsoft visual studio\2017\community\vc\tools\msvc\14.10.25017\include\iosfwd

; 326  : 		_Left = _Right;

	mov	WORD PTR ?SK_IMPORT_ROLE_DXGI@@3V?$basic_string@_WU?$char_traits@_W@std@@V?$allocator@_W@2@@std@@B, ax
; File c:\program files (x86)\microsoft visual studio\2017\community\vc\tools\msvc\14.10.25017\include\xstring

; 2429 : 		return (assign(_Ptr, _Traits::length(_Ptr)));

	call	?assign@?$basic_string@_WU?$char_traits@_W@std@@V?$allocator@_W@2@@std@@QAEAAV12@QB_WI@Z ; std::basic_string<wchar_t,std::char_traits<wchar_t>,std::allocator<wchar_t> >::assign
; File c:\users\andon\source\repos\specialk\src\import.cpp

; 38   : const std::wstring SK_IMPORT_ROLE_DXGI     = L"dxgi";

	push	OFFSET ??__FSK_IMPORT_ROLE_DXGI@@YAXXZ	; `dynamic atexit destructor for 'SK_IMPORT_ROLE_DXGI''
	call	_atexit
	pop	ecx
	ret	0
??__ESK_IMPORT_ROLE_DXGI@@YAXXZ ENDP			; `dynamic initializer for 'SK_IMPORT_ROLE_DXGI''
text$di	ENDS
; Function compile flags: /Ogtp
; File c:\program files (x86)\microsoft visual studio\2017\community\vc\tools\msvc\14.10.25017\include\xstring
; File c:\program files (x86)\microsoft visual studio\2017\community\vc\tools\msvc\14.10.25017\include\xmemory0
; File c:\program files (x86)\microsoft visual studio\2017\community\vc\tools\msvc\14.10.25017\include\xstring
; File c:\program files (x86)\microsoft visual studio\2017\community\vc\tools\msvc\14.10.25017\include\xmemory0
; File c:\program files (x86)\microsoft visual studio\2017\community\vc\tools\msvc\14.10.25017\include\iosfwd
; File c:\program files (x86)\microsoft visual studio\2017\community\vc\tools\msvc\14.10.25017\include\xstring
; File c:\program files (x86)\microsoft visual studio\2017\community\vc\tools\msvc\14.10.25017\include\iosfwd
; File c:\program files (x86)\microsoft visual studio\2017\community\vc\tools\msvc\14.10.25017\include\xstring
;	COMDAT ??__FSK_IMPORT_PROXY@@YAXXZ
text$yd	SEGMENT
??__FSK_IMPORT_PROXY@@YAXXZ PROC			; `dynamic atexit destructor for 'SK_IMPORT_PROXY'', COMDAT

; 3606 : 		this->_Orphan_all();

	mov	ecx, OFFSET ?SK_IMPORT_PROXY@@3V?$basic_string@_WU?$char_traits@_W@std@@V?$allocator@_W@2@@std@@B
	call	?_Orphan_all@?$_String_alloc@U?$_String_base_types@_WV?$allocator@_W@std@@@std@@@std@@QAEXXZ ; std::_String_alloc<std::_String_base_types<wchar_t,std::allocator<wchar_t> > >::_Orphan_all

; 1628 : 		return (this->_BUF_SIZE <= _Myres);

	cmp	DWORD PTR ?SK_IMPORT_PROXY@@3V?$basic_string@_WU?$char_traits@_W@std@@V?$allocator@_W@2@@std@@B+20, 8

; 3608 : 		if (_My_data._Large_string_engaged())

	jb	SHORT $LN7@dynamic
	push	esi

; 3609 : 			{
; 3610 : 			pointer _Ptr = _My_data._Bx._Ptr;

	mov	esi, DWORD PTR ?SK_IMPORT_PROXY@@3V?$basic_string@_WU?$char_traits@_W@std@@V?$allocator@_W@2@@std@@B

; 3611 : 			auto& _Al = this->_Getal();
; 3612 : 			_Al.destroy(_STD addressof(_My_data._Bx._Ptr));

	mov	ecx, OFFSET ?SK_IMPORT_PROXY@@3V?$basic_string@_WU?$char_traits@_W@std@@V?$allocator@_W@2@@std@@B
	push	OFFSET ?SK_IMPORT_PROXY@@3V?$basic_string@_WU?$char_traits@_W@std@@V?$allocator@_W@2@@std@@B
	call	??$destroy@PA_W@?$_Wrap_alloc@V?$allocator@_W@std@@@std@@QAEXPAPA_W@Z ; std::_Wrap_alloc<std::allocator<wchar_t> >::destroy<wchar_t *>

; 3613 : 			_Al.deallocate(_Ptr, _My_data._Myres + 1);

	mov	eax, DWORD PTR ?SK_IMPORT_PROXY@@3V?$basic_string@_WU?$char_traits@_W@std@@V?$allocator@_W@2@@std@@B+20
; File c:\program files (x86)\microsoft visual studio\2017\community\vc\tools\msvc\14.10.25017\include\xmemory0

; 823  : 		_Deallocate(_Ptr, _Count, sizeof (_Ty));

	push	2
; File c:\program files (x86)\microsoft visual studio\2017\community\vc\tools\msvc\14.10.25017\include\xstring

; 3613 : 			_Al.deallocate(_Ptr, _My_data._Myres + 1);

	inc	eax
; File c:\program files (x86)\microsoft visual studio\2017\community\vc\tools\msvc\14.10.25017\include\xmemory0

; 823  : 		_Deallocate(_Ptr, _Count, sizeof (_Ty));

	push	eax
	push	esi
	call	?_Deallocate@std@@YAXPAXII@Z		; std::_Deallocate
	add	esp, 12					; 0000000cH
	pop	esi
$LN7@dynamic:
; File c:\program files (x86)\microsoft visual studio\2017\community\vc\tools\msvc\14.10.25017\include\iosfwd

; 326  : 		_Left = _Right;

	xor	eax, eax
; File c:\program files (x86)\microsoft visual studio\2017\community\vc\tools\msvc\14.10.25017\include\xstring

; 3616 : 		_My_data._Mysize = 0;

	mov	DWORD PTR ?SK_IMPORT_PROXY@@3V?$basic_string@_WU?$char_traits@_W@std@@V?$allocator@_W@2@@std@@B+16, 0

; 3617 : 		_My_data._Myres = this->_BUF_SIZE - 1;

	mov	DWORD PTR ?SK_IMPORT_PROXY@@3V?$basic_string@_WU?$char_traits@_W@std@@V?$allocator@_W@2@@std@@B+20, 7

; 2217 : 		}

	mov	ecx, OFFSET ?SK_IMPORT_PROXY@@3V?$basic_string@_WU?$char_traits@_W@std@@V?$allocator@_W@2@@std@@B
; File c:\program files (x86)\microsoft visual studio\2017\community\vc\tools\msvc\14.10.25017\include\iosfwd

; 326  : 		_Left = _Right;

	mov	WORD PTR ?SK_IMPORT_PROXY@@3V?$basic_string@_WU?$char_traits@_W@std@@V?$allocator@_W@2@@std@@B, ax
; File c:\program files (x86)\microsoft visual studio\2017\community\vc\tools\msvc\14.10.25017\include\xstring

; 2217 : 		}

	jmp	??1?$_String_alloc@U?$_String_base_types@_WV?$allocator@_W@std@@@std@@@std@@QAE@XZ
??__FSK_IMPORT_PROXY@@YAXXZ ENDP			; `dynamic atexit destructor for 'SK_IMPORT_PROXY''
text$yd	ENDS
; Function compile flags: /Ogtp
; File c:\users\andon\source\repos\specialk\src\import.cpp
; File c:\program files (x86)\microsoft visual studio\2017\community\vc\tools\msvc\14.10.25017\include\xutility
; File c:\program files (x86)\microsoft visual studio\2017\community\vc\tools\msvc\14.10.25017\include\xstring
; File c:\program files (x86)\microsoft visual studio\2017\community\vc\tools\msvc\14.10.25017\include\iosfwd
; File c:\program files (x86)\microsoft visual studio\2017\community\vc\tools\msvc\14.10.25017\include\xstring
; File c:\program files (x86)\microsoft visual studio\2017\community\vc\tools\msvc\14.10.25017\include\iosfwd
; File c:\program files (x86)\microsoft visual studio\2017\community\vc\tools\msvc\14.10.25017\include\xstring
; File c:\users\andon\source\repos\specialk\src\import.cpp
;	COMDAT ??__ESK_IMPORT_PROXY@@YAXXZ
text$di	SEGMENT
??__ESK_IMPORT_PROXY@@YAXXZ PROC			; `dynamic initializer for 'SK_IMPORT_PROXY'', COMDAT
; File c:\program files (x86)\microsoft visual studio\2017\community\vc\tools\msvc\14.10.25017\include\xutility

; 302  : 		: _Ty1(), _Myval2(_STD forward<_Other2>(_Val2)...)

	mov	ecx, OFFSET ?SK_IMPORT_PROXY@@3V?$basic_string@_WU?$char_traits@_W@std@@V?$allocator@_W@2@@std@@B
	call	??0?$_Wrap_alloc@V?$allocator@_W@std@@@std@@QAE@XZ ; std::_Wrap_alloc<std::allocator<wchar_t> >::_Wrap_alloc<std::allocator<wchar_t> >
; File c:\program files (x86)\microsoft visual studio\2017\community\vc\tools\msvc\14.10.25017\include\xstring

; 2429 : 		return (assign(_Ptr, _Traits::length(_Ptr)));

	push	5
; File c:\program files (x86)\microsoft visual studio\2017\community\vc\tools\msvc\14.10.25017\include\iosfwd

; 326  : 		_Left = _Right;

	xor	eax, eax
; File c:\program files (x86)\microsoft visual studio\2017\community\vc\tools\msvc\14.10.25017\include\xstring

; 3597 : 		_My_data._Mysize = 0;

	mov	DWORD PTR ?SK_IMPORT_PROXY@@3V?$basic_string@_WU?$char_traits@_W@std@@V?$allocator@_W@2@@std@@B+16, 0

; 2429 : 		return (assign(_Ptr, _Traits::length(_Ptr)));

	push	OFFSET $SG146692
	mov	ecx, OFFSET ?SK_IMPORT_PROXY@@3V?$basic_string@_WU?$char_traits@_W@std@@V?$allocator@_W@2@@std@@B

; 3598 : 		_My_data._Myres = this->_BUF_SIZE - 1;

	mov	DWORD PTR ?SK_IMPORT_PROXY@@3V?$basic_string@_WU?$char_traits@_W@std@@V?$allocator@_W@2@@std@@B+20, 7
; File c:\program files (x86)\microsoft visual studio\2017\community\vc\tools\msvc\14.10.25017\include\iosfwd

; 326  : 		_Left = _Right;

	mov	WORD PTR ?SK_IMPORT_PROXY@@3V?$basic_string@_WU?$char_traits@_W@std@@V?$allocator@_W@2@@std@@B, ax
; File c:\program files (x86)\microsoft visual studio\2017\community\vc\tools\msvc\14.10.25017\include\xstring

; 2429 : 		return (assign(_Ptr, _Traits::length(_Ptr)));

	call	?assign@?$basic_string@_WU?$char_traits@_W@std@@V?$allocator@_W@2@@std@@QAEAAV12@QB_WI@Z ; std::basic_string<wchar_t,std::char_traits<wchar_t>,std::allocator<wchar_t> >::assign
; File c:\users\andon\source\repos\specialk\src\import.cpp

; 36   : const std::wstring SK_IMPORT_PROXY         = L"Proxy";

	push	OFFSET ??__FSK_IMPORT_PROXY@@YAXXZ	; `dynamic atexit destructor for 'SK_IMPORT_PROXY''
	call	_atexit
	pop	ecx
	ret	0
??__ESK_IMPORT_PROXY@@YAXXZ ENDP			; `dynamic initializer for 'SK_IMPORT_PROXY''
text$di	ENDS
; Function compile flags: /Ogtp
; File c:\program files (x86)\microsoft visual studio\2017\community\vc\tools\msvc\14.10.25017\include\xstring
; File c:\program files (x86)\microsoft visual studio\2017\community\vc\tools\msvc\14.10.25017\include\xmemory0
; File c:\program files (x86)\microsoft visual studio\2017\community\vc\tools\msvc\14.10.25017\include\xstring
; File c:\program files (x86)\microsoft visual studio\2017\community\vc\tools\msvc\14.10.25017\include\xmemory0
; File c:\program files (x86)\microsoft visual studio\2017\community\vc\tools\msvc\14.10.25017\include\iosfwd
; File c:\program files (x86)\microsoft visual studio\2017\community\vc\tools\msvc\14.10.25017\include\xstring
; File c:\program files (x86)\microsoft visual studio\2017\community\vc\tools\msvc\14.10.25017\include\iosfwd
; File c:\program files (x86)\microsoft visual studio\2017\community\vc\tools\msvc\14.10.25017\include\xstring
;	COMDAT ??__FSK_IMPORT_LAZY@@YAXXZ
text$yd	SEGMENT
??__FSK_IMPORT_LAZY@@YAXXZ PROC				; `dynamic atexit destructor for 'SK_IMPORT_LAZY'', COMDAT

; 3606 : 		this->_Orphan_all();

	mov	ecx, OFFSET ?SK_IMPORT_LAZY@@3V?$basic_string@_WU?$char_traits@_W@std@@V?$allocator@_W@2@@std@@B ; SK_IMPORT_LAZY
	call	?_Orphan_all@?$_String_alloc@U?$_String_base_types@_WV?$allocator@_W@std@@@std@@@std@@QAEXXZ ; std::_String_alloc<std::_String_base_types<wchar_t,std::allocator<wchar_t> > >::_Orphan_all

; 1628 : 		return (this->_BUF_SIZE <= _Myres);

	cmp	DWORD PTR ?SK_IMPORT_LAZY@@3V?$basic_string@_WU?$char_traits@_W@std@@V?$allocator@_W@2@@std@@B+20, 8

; 3608 : 		if (_My_data._Large_string_engaged())

	jb	SHORT $LN7@dynamic
	push	esi

; 3609 : 			{
; 3610 : 			pointer _Ptr = _My_data._Bx._Ptr;

	mov	esi, DWORD PTR ?SK_IMPORT_LAZY@@3V?$basic_string@_WU?$char_traits@_W@std@@V?$allocator@_W@2@@std@@B

; 3611 : 			auto& _Al = this->_Getal();
; 3612 : 			_Al.destroy(_STD addressof(_My_data._Bx._Ptr));

	mov	ecx, OFFSET ?SK_IMPORT_LAZY@@3V?$basic_string@_WU?$char_traits@_W@std@@V?$allocator@_W@2@@std@@B ; SK_IMPORT_LAZY
	push	OFFSET ?SK_IMPORT_LAZY@@3V?$basic_string@_WU?$char_traits@_W@std@@V?$allocator@_W@2@@std@@B ; SK_IMPORT_LAZY
	call	??$destroy@PA_W@?$_Wrap_alloc@V?$allocator@_W@std@@@std@@QAEXPAPA_W@Z ; std::_Wrap_alloc<std::allocator<wchar_t> >::destroy<wchar_t *>

; 3613 : 			_Al.deallocate(_Ptr, _My_data._Myres + 1);

	mov	eax, DWORD PTR ?SK_IMPORT_LAZY@@3V?$basic_string@_WU?$char_traits@_W@std@@V?$allocator@_W@2@@std@@B+20
; File c:\program files (x86)\microsoft visual studio\2017\community\vc\tools\msvc\14.10.25017\include\xmemory0

; 823  : 		_Deallocate(_Ptr, _Count, sizeof (_Ty));

	push	2
; File c:\program files (x86)\microsoft visual studio\2017\community\vc\tools\msvc\14.10.25017\include\xstring

; 3613 : 			_Al.deallocate(_Ptr, _My_data._Myres + 1);

	inc	eax
; File c:\program files (x86)\microsoft visual studio\2017\community\vc\tools\msvc\14.10.25017\include\xmemory0

; 823  : 		_Deallocate(_Ptr, _Count, sizeof (_Ty));

	push	eax
	push	esi
	call	?_Deallocate@std@@YAXPAXII@Z		; std::_Deallocate
	add	esp, 12					; 0000000cH
	pop	esi
$LN7@dynamic:
; File c:\program files (x86)\microsoft visual studio\2017\community\vc\tools\msvc\14.10.25017\include\iosfwd

; 326  : 		_Left = _Right;

	xor	eax, eax
; File c:\program files (x86)\microsoft visual studio\2017\community\vc\tools\msvc\14.10.25017\include\xstring

; 3616 : 		_My_data._Mysize = 0;

	mov	DWORD PTR ?SK_IMPORT_LAZY@@3V?$basic_string@_WU?$char_traits@_W@std@@V?$allocator@_W@2@@std@@B+16, 0

; 3617 : 		_My_data._Myres = this->_BUF_SIZE - 1;

	mov	DWORD PTR ?SK_IMPORT_LAZY@@3V?$basic_string@_WU?$char_traits@_W@std@@V?$allocator@_W@2@@std@@B+20, 7

; 2217 : 		}

	mov	ecx, OFFSET ?SK_IMPORT_LAZY@@3V?$basic_string@_WU?$char_traits@_W@std@@V?$allocator@_W@2@@std@@B ; SK_IMPORT_LAZY
; File c:\program files (x86)\microsoft visual studio\2017\community\vc\tools\msvc\14.10.25017\include\iosfwd

; 326  : 		_Left = _Right;

	mov	WORD PTR ?SK_IMPORT_LAZY@@3V?$basic_string@_WU?$char_traits@_W@std@@V?$allocator@_W@2@@std@@B, ax
; File c:\program files (x86)\microsoft visual studio\2017\community\vc\tools\msvc\14.10.25017\include\xstring

; 2217 : 		}

	jmp	??1?$_String_alloc@U?$_String_base_types@_WV?$allocator@_W@std@@@std@@@std@@QAE@XZ
??__FSK_IMPORT_LAZY@@YAXXZ ENDP				; `dynamic atexit destructor for 'SK_IMPORT_LAZY''
text$yd	ENDS
; Function compile flags: /Ogtp
; File c:\users\andon\source\repos\specialk\src\import.cpp
; File c:\program files (x86)\microsoft visual studio\2017\community\vc\tools\msvc\14.10.25017\include\xutility
; File c:\program files (x86)\microsoft visual studio\2017\community\vc\tools\msvc\14.10.25017\include\xstring
; File c:\program files (x86)\microsoft visual studio\2017\community\vc\tools\msvc\14.10.25017\include\iosfwd
; File c:\program files (x86)\microsoft visual studio\2017\community\vc\tools\msvc\14.10.25017\include\xstring
; File c:\program files (x86)\microsoft visual studio\2017\community\vc\tools\msvc\14.10.25017\include\iosfwd
; File c:\program files (x86)\microsoft visual studio\2017\community\vc\tools\msvc\14.10.25017\include\xstring
; File c:\users\andon\source\repos\specialk\src\import.cpp
;	COMDAT ??__ESK_IMPORT_LAZY@@YAXXZ
text$di	SEGMENT
??__ESK_IMPORT_LAZY@@YAXXZ PROC				; `dynamic initializer for 'SK_IMPORT_LAZY'', COMDAT
; File c:\program files (x86)\microsoft visual studio\2017\community\vc\tools\msvc\14.10.25017\include\xutility

; 302  : 		: _Ty1(), _Myval2(_STD forward<_Other2>(_Val2)...)

	mov	ecx, OFFSET ?SK_IMPORT_LAZY@@3V?$basic_string@_WU?$char_traits@_W@std@@V?$allocator@_W@2@@std@@B ; SK_IMPORT_LAZY
	call	??0?$_Wrap_alloc@V?$allocator@_W@std@@@std@@QAE@XZ ; std::_Wrap_alloc<std::allocator<wchar_t> >::_Wrap_alloc<std::allocator<wchar_t> >
; File c:\program files (x86)\microsoft visual studio\2017\community\vc\tools\msvc\14.10.25017\include\xstring

; 2429 : 		return (assign(_Ptr, _Traits::length(_Ptr)));

	push	4
; File c:\program files (x86)\microsoft visual studio\2017\community\vc\tools\msvc\14.10.25017\include\iosfwd

; 326  : 		_Left = _Right;

	xor	eax, eax
; File c:\program files (x86)\microsoft visual studio\2017\community\vc\tools\msvc\14.10.25017\include\xstring

; 3597 : 		_My_data._Mysize = 0;

	mov	DWORD PTR ?SK_IMPORT_LAZY@@3V?$basic_string@_WU?$char_traits@_W@std@@V?$allocator@_W@2@@std@@B+16, 0

; 2429 : 		return (assign(_Ptr, _Traits::length(_Ptr)));

	push	OFFSET $SG146684
	mov	ecx, OFFSET ?SK_IMPORT_LAZY@@3V?$basic_string@_WU?$char_traits@_W@std@@V?$allocator@_W@2@@std@@B ; SK_IMPORT_LAZY

; 3598 : 		_My_data._Myres = this->_BUF_SIZE - 1;

	mov	DWORD PTR ?SK_IMPORT_LAZY@@3V?$basic_string@_WU?$char_traits@_W@std@@V?$allocator@_W@2@@std@@B+20, 7
; File c:\program files (x86)\microsoft visual studio\2017\community\vc\tools\msvc\14.10.25017\include\iosfwd

; 326  : 		_Left = _Right;

	mov	WORD PTR ?SK_IMPORT_LAZY@@3V?$basic_string@_WU?$char_traits@_W@std@@V?$allocator@_W@2@@std@@B, ax
; File c:\program files (x86)\microsoft visual studio\2017\community\vc\tools\msvc\14.10.25017\include\xstring

; 2429 : 		return (assign(_Ptr, _Traits::length(_Ptr)));

	call	?assign@?$basic_string@_WU?$char_traits@_W@std@@V?$allocator@_W@2@@std@@QAEAAV12@QB_WI@Z ; std::basic_string<wchar_t,std::char_traits<wchar_t>,std::allocator<wchar_t> >::assign
; File c:\users\andon\source\repos\specialk\src\import.cpp

; 35   : const std::wstring SK_IMPORT_LAZY          = L"Lazy";

	push	OFFSET ??__FSK_IMPORT_LAZY@@YAXXZ	; `dynamic atexit destructor for 'SK_IMPORT_LAZY''
	call	_atexit
	pop	ecx
	ret	0
??__ESK_IMPORT_LAZY@@YAXXZ ENDP				; `dynamic initializer for 'SK_IMPORT_LAZY''
text$di	ENDS
; Function compile flags: /Ogtp
; File c:\program files (x86)\microsoft visual studio\2017\community\vc\tools\msvc\14.10.25017\include\xstring
; File c:\program files (x86)\microsoft visual studio\2017\community\vc\tools\msvc\14.10.25017\include\xmemory0
; File c:\program files (x86)\microsoft visual studio\2017\community\vc\tools\msvc\14.10.25017\include\xstring
; File c:\program files (x86)\microsoft visual studio\2017\community\vc\tools\msvc\14.10.25017\include\xmemory0
; File c:\program files (x86)\microsoft visual studio\2017\community\vc\tools\msvc\14.10.25017\include\iosfwd
; File c:\program files (x86)\microsoft visual studio\2017\community\vc\tools\msvc\14.10.25017\include\xstring
; File c:\program files (x86)\microsoft visual studio\2017\community\vc\tools\msvc\14.10.25017\include\iosfwd
; File c:\program files (x86)\microsoft visual studio\2017\community\vc\tools\msvc\14.10.25017\include\xstring
;	COMDAT ??__FSK_IMPORT_LATE@@YAXXZ
text$yd	SEGMENT
??__FSK_IMPORT_LATE@@YAXXZ PROC				; `dynamic atexit destructor for 'SK_IMPORT_LATE'', COMDAT

; 3606 : 		this->_Orphan_all();

	mov	ecx, OFFSET ?SK_IMPORT_LATE@@3V?$basic_string@_WU?$char_traits@_W@std@@V?$allocator@_W@2@@std@@B ; SK_IMPORT_LATE
	call	?_Orphan_all@?$_String_alloc@U?$_String_base_types@_WV?$allocator@_W@std@@@std@@@std@@QAEXXZ ; std::_String_alloc<std::_String_base_types<wchar_t,std::allocator<wchar_t> > >::_Orphan_all

; 1628 : 		return (this->_BUF_SIZE <= _Myres);

	cmp	DWORD PTR ?SK_IMPORT_LATE@@3V?$basic_string@_WU?$char_traits@_W@std@@V?$allocator@_W@2@@std@@B+20, 8

; 3608 : 		if (_My_data._Large_string_engaged())

	jb	SHORT $LN7@dynamic
	push	esi

; 3609 : 			{
; 3610 : 			pointer _Ptr = _My_data._Bx._Ptr;

	mov	esi, DWORD PTR ?SK_IMPORT_LATE@@3V?$basic_string@_WU?$char_traits@_W@std@@V?$allocator@_W@2@@std@@B

; 3611 : 			auto& _Al = this->_Getal();
; 3612 : 			_Al.destroy(_STD addressof(_My_data._Bx._Ptr));

	mov	ecx, OFFSET ?SK_IMPORT_LATE@@3V?$basic_string@_WU?$char_traits@_W@std@@V?$allocator@_W@2@@std@@B ; SK_IMPORT_LATE
	push	OFFSET ?SK_IMPORT_LATE@@3V?$basic_string@_WU?$char_traits@_W@std@@V?$allocator@_W@2@@std@@B ; SK_IMPORT_LATE
	call	??$destroy@PA_W@?$_Wrap_alloc@V?$allocator@_W@std@@@std@@QAEXPAPA_W@Z ; std::_Wrap_alloc<std::allocator<wchar_t> >::destroy<wchar_t *>

; 3613 : 			_Al.deallocate(_Ptr, _My_data._Myres + 1);

	mov	eax, DWORD PTR ?SK_IMPORT_LATE@@3V?$basic_string@_WU?$char_traits@_W@std@@V?$allocator@_W@2@@std@@B+20
; File c:\program files (x86)\microsoft visual studio\2017\community\vc\tools\msvc\14.10.25017\include\xmemory0

; 823  : 		_Deallocate(_Ptr, _Count, sizeof (_Ty));

	push	2
; File c:\program files (x86)\microsoft visual studio\2017\community\vc\tools\msvc\14.10.25017\include\xstring

; 3613 : 			_Al.deallocate(_Ptr, _My_data._Myres + 1);

	inc	eax
; File c:\program files (x86)\microsoft visual studio\2017\community\vc\tools\msvc\14.10.25017\include\xmemory0

; 823  : 		_Deallocate(_Ptr, _Count, sizeof (_Ty));

	push	eax
	push	esi
	call	?_Deallocate@std@@YAXPAXII@Z		; std::_Deallocate
	add	esp, 12					; 0000000cH
	pop	esi
$LN7@dynamic:
; File c:\program files (x86)\microsoft visual studio\2017\community\vc\tools\msvc\14.10.25017\include\iosfwd

; 326  : 		_Left = _Right;

	xor	eax, eax
; File c:\program files (x86)\microsoft visual studio\2017\community\vc\tools\msvc\14.10.25017\include\xstring

; 3616 : 		_My_data._Mysize = 0;

	mov	DWORD PTR ?SK_IMPORT_LATE@@3V?$basic_string@_WU?$char_traits@_W@std@@V?$allocator@_W@2@@std@@B+16, 0

; 3617 : 		_My_data._Myres = this->_BUF_SIZE - 1;

	mov	DWORD PTR ?SK_IMPORT_LATE@@3V?$basic_string@_WU?$char_traits@_W@std@@V?$allocator@_W@2@@std@@B+20, 7

; 2217 : 		}

	mov	ecx, OFFSET ?SK_IMPORT_LATE@@3V?$basic_string@_WU?$char_traits@_W@std@@V?$allocator@_W@2@@std@@B ; SK_IMPORT_LATE
; File c:\program files (x86)\microsoft visual studio\2017\community\vc\tools\msvc\14.10.25017\include\iosfwd

; 326  : 		_Left = _Right;

	mov	WORD PTR ?SK_IMPORT_LATE@@3V?$basic_string@_WU?$char_traits@_W@std@@V?$allocator@_W@2@@std@@B, ax
; File c:\program files (x86)\microsoft visual studio\2017\community\vc\tools\msvc\14.10.25017\include\xstring

; 2217 : 		}

	jmp	??1?$_String_alloc@U?$_String_base_types@_WV?$allocator@_W@std@@@std@@@std@@QAE@XZ
??__FSK_IMPORT_LATE@@YAXXZ ENDP				; `dynamic atexit destructor for 'SK_IMPORT_LATE''
text$yd	ENDS
; Function compile flags: /Ogtp
; File c:\users\andon\source\repos\specialk\src\import.cpp
; File c:\program files (x86)\microsoft visual studio\2017\community\vc\tools\msvc\14.10.25017\include\xutility
; File c:\program files (x86)\microsoft visual studio\2017\community\vc\tools\msvc\14.10.25017\include\xstring
; File c:\program files (x86)\microsoft visual studio\2017\community\vc\tools\msvc\14.10.25017\include\iosfwd
; File c:\program files (x86)\microsoft visual studio\2017\community\vc\tools\msvc\14.10.25017\include\xstring
; File c:\program files (x86)\microsoft visual studio\2017\community\vc\tools\msvc\14.10.25017\include\iosfwd
; File c:\program files (x86)\microsoft visual studio\2017\community\vc\tools\msvc\14.10.25017\include\xstring
; File c:\users\andon\source\repos\specialk\src\import.cpp
;	COMDAT ??__ESK_IMPORT_LATE@@YAXXZ
text$di	SEGMENT
??__ESK_IMPORT_LATE@@YAXXZ PROC				; `dynamic initializer for 'SK_IMPORT_LATE'', COMDAT
; File c:\program files (x86)\microsoft visual studio\2017\community\vc\tools\msvc\14.10.25017\include\xutility

; 302  : 		: _Ty1(), _Myval2(_STD forward<_Other2>(_Val2)...)

	mov	ecx, OFFSET ?SK_IMPORT_LATE@@3V?$basic_string@_WU?$char_traits@_W@std@@V?$allocator@_W@2@@std@@B ; SK_IMPORT_LATE
	call	??0?$_Wrap_alloc@V?$allocator@_W@std@@@std@@QAE@XZ ; std::_Wrap_alloc<std::allocator<wchar_t> >::_Wrap_alloc<std::allocator<wchar_t> >
; File c:\program files (x86)\microsoft visual studio\2017\community\vc\tools\msvc\14.10.25017\include\xstring

; 2429 : 		return (assign(_Ptr, _Traits::length(_Ptr)));

	push	4
; File c:\program files (x86)\microsoft visual studio\2017\community\vc\tools\msvc\14.10.25017\include\iosfwd

; 326  : 		_Left = _Right;

	xor	eax, eax
; File c:\program files (x86)\microsoft visual studio\2017\community\vc\tools\msvc\14.10.25017\include\xstring

; 3597 : 		_My_data._Mysize = 0;

	mov	DWORD PTR ?SK_IMPORT_LATE@@3V?$basic_string@_WU?$char_traits@_W@std@@V?$allocator@_W@2@@std@@B+16, 0

; 2429 : 		return (assign(_Ptr, _Traits::length(_Ptr)));

	push	OFFSET $SG146678
	mov	ecx, OFFSET ?SK_IMPORT_LATE@@3V?$basic_string@_WU?$char_traits@_W@std@@V?$allocator@_W@2@@std@@B ; SK_IMPORT_LATE

; 3598 : 		_My_data._Myres = this->_BUF_SIZE - 1;

	mov	DWORD PTR ?SK_IMPORT_LATE@@3V?$basic_string@_WU?$char_traits@_W@std@@V?$allocator@_W@2@@std@@B+20, 7
; File c:\program files (x86)\microsoft visual studio\2017\community\vc\tools\msvc\14.10.25017\include\iosfwd

; 326  : 		_Left = _Right;

	mov	WORD PTR ?SK_IMPORT_LATE@@3V?$basic_string@_WU?$char_traits@_W@std@@V?$allocator@_W@2@@std@@B, ax
; File c:\program files (x86)\microsoft visual studio\2017\community\vc\tools\msvc\14.10.25017\include\xstring

; 2429 : 		return (assign(_Ptr, _Traits::length(_Ptr)));

	call	?assign@?$basic_string@_WU?$char_traits@_W@std@@V?$allocator@_W@2@@std@@QAEAAV12@QB_WI@Z ; std::basic_string<wchar_t,std::char_traits<wchar_t>,std::allocator<wchar_t> >::assign
; File c:\users\andon\source\repos\specialk\src\import.cpp

; 34   : const std::wstring SK_IMPORT_LATE          = L"Late";

	push	OFFSET ??__FSK_IMPORT_LATE@@YAXXZ	; `dynamic atexit destructor for 'SK_IMPORT_LATE''
	call	_atexit
	pop	ecx
	ret	0
??__ESK_IMPORT_LATE@@YAXXZ ENDP				; `dynamic initializer for 'SK_IMPORT_LATE''
text$di	ENDS
; Function compile flags: /Ogtp
; File c:\program files (x86)\microsoft visual studio\2017\community\vc\tools\msvc\14.10.25017\include\xstring
; File c:\program files (x86)\microsoft visual studio\2017\community\vc\tools\msvc\14.10.25017\include\xmemory0
; File c:\program files (x86)\microsoft visual studio\2017\community\vc\tools\msvc\14.10.25017\include\xstring
; File c:\program files (x86)\microsoft visual studio\2017\community\vc\tools\msvc\14.10.25017\include\xmemory0
; File c:\program files (x86)\microsoft visual studio\2017\community\vc\tools\msvc\14.10.25017\include\iosfwd
; File c:\program files (x86)\microsoft visual studio\2017\community\vc\tools\msvc\14.10.25017\include\xstring
; File c:\program files (x86)\microsoft visual studio\2017\community\vc\tools\msvc\14.10.25017\include\iosfwd
; File c:\program files (x86)\microsoft visual studio\2017\community\vc\tools\msvc\14.10.25017\include\xstring
;	COMDAT ??__FSK_IMPORT_PLUGIN@@YAXXZ
text$yd	SEGMENT
??__FSK_IMPORT_PLUGIN@@YAXXZ PROC			; `dynamic atexit destructor for 'SK_IMPORT_PLUGIN'', COMDAT

; 3606 : 		this->_Orphan_all();

	mov	ecx, OFFSET ?SK_IMPORT_PLUGIN@@3V?$basic_string@_WU?$char_traits@_W@std@@V?$allocator@_W@2@@std@@B
	call	?_Orphan_all@?$_String_alloc@U?$_String_base_types@_WV?$allocator@_W@std@@@std@@@std@@QAEXXZ ; std::_String_alloc<std::_String_base_types<wchar_t,std::allocator<wchar_t> > >::_Orphan_all

; 1628 : 		return (this->_BUF_SIZE <= _Myres);

	cmp	DWORD PTR ?SK_IMPORT_PLUGIN@@3V?$basic_string@_WU?$char_traits@_W@std@@V?$allocator@_W@2@@std@@B+20, 8

; 3608 : 		if (_My_data._Large_string_engaged())

	jb	SHORT $LN7@dynamic
	push	esi

; 3609 : 			{
; 3610 : 			pointer _Ptr = _My_data._Bx._Ptr;

	mov	esi, DWORD PTR ?SK_IMPORT_PLUGIN@@3V?$basic_string@_WU?$char_traits@_W@std@@V?$allocator@_W@2@@std@@B

; 3611 : 			auto& _Al = this->_Getal();
; 3612 : 			_Al.destroy(_STD addressof(_My_data._Bx._Ptr));

	mov	ecx, OFFSET ?SK_IMPORT_PLUGIN@@3V?$basic_string@_WU?$char_traits@_W@std@@V?$allocator@_W@2@@std@@B
	push	OFFSET ?SK_IMPORT_PLUGIN@@3V?$basic_string@_WU?$char_traits@_W@std@@V?$allocator@_W@2@@std@@B
	call	??$destroy@PA_W@?$_Wrap_alloc@V?$allocator@_W@std@@@std@@QAEXPAPA_W@Z ; std::_Wrap_alloc<std::allocator<wchar_t> >::destroy<wchar_t *>

; 3613 : 			_Al.deallocate(_Ptr, _My_data._Myres + 1);

	mov	eax, DWORD PTR ?SK_IMPORT_PLUGIN@@3V?$basic_string@_WU?$char_traits@_W@std@@V?$allocator@_W@2@@std@@B+20
; File c:\program files (x86)\microsoft visual studio\2017\community\vc\tools\msvc\14.10.25017\include\xmemory0

; 823  : 		_Deallocate(_Ptr, _Count, sizeof (_Ty));

	push	2
; File c:\program files (x86)\microsoft visual studio\2017\community\vc\tools\msvc\14.10.25017\include\xstring

; 3613 : 			_Al.deallocate(_Ptr, _My_data._Myres + 1);

	inc	eax
; File c:\program files (x86)\microsoft visual studio\2017\community\vc\tools\msvc\14.10.25017\include\xmemory0

; 823  : 		_Deallocate(_Ptr, _Count, sizeof (_Ty));

	push	eax
	push	esi
	call	?_Deallocate@std@@YAXPAXII@Z		; std::_Deallocate
	add	esp, 12					; 0000000cH
	pop	esi
$LN7@dynamic:
; File c:\program files (x86)\microsoft visual studio\2017\community\vc\tools\msvc\14.10.25017\include\iosfwd

; 326  : 		_Left = _Right;

	xor	eax, eax
; File c:\program files (x86)\microsoft visual studio\2017\community\vc\tools\msvc\14.10.25017\include\xstring

; 3616 : 		_My_data._Mysize = 0;

	mov	DWORD PTR ?SK_IMPORT_PLUGIN@@3V?$basic_string@_WU?$char_traits@_W@std@@V?$allocator@_W@2@@std@@B+16, 0

; 3617 : 		_My_data._Myres = this->_BUF_SIZE - 1;

	mov	DWORD PTR ?SK_IMPORT_PLUGIN@@3V?$basic_string@_WU?$char_traits@_W@std@@V?$allocator@_W@2@@std@@B+20, 7

; 2217 : 		}

	mov	ecx, OFFSET ?SK_IMPORT_PLUGIN@@3V?$basic_string@_WU?$char_traits@_W@std@@V?$allocator@_W@2@@std@@B
; File c:\program files (x86)\microsoft visual studio\2017\community\vc\tools\msvc\14.10.25017\include\iosfwd

; 326  : 		_Left = _Right;

	mov	WORD PTR ?SK_IMPORT_PLUGIN@@3V?$basic_string@_WU?$char_traits@_W@std@@V?$allocator@_W@2@@std@@B, ax
; File c:\program files (x86)\microsoft visual studio\2017\community\vc\tools\msvc\14.10.25017\include\xstring

; 2217 : 		}

	jmp	??1?$_String_alloc@U?$_String_base_types@_WV?$allocator@_W@std@@@std@@@std@@QAE@XZ
??__FSK_IMPORT_PLUGIN@@YAXXZ ENDP			; `dynamic atexit destructor for 'SK_IMPORT_PLUGIN''
text$yd	ENDS
; Function compile flags: /Ogtp
; File c:\users\andon\source\repos\specialk\src\import.cpp
; File c:\program files (x86)\microsoft visual studio\2017\community\vc\tools\msvc\14.10.25017\include\xutility
; File c:\program files (x86)\microsoft visual studio\2017\community\vc\tools\msvc\14.10.25017\include\xstring
; File c:\program files (x86)\microsoft visual studio\2017\community\vc\tools\msvc\14.10.25017\include\iosfwd
; File c:\program files (x86)\microsoft visual studio\2017\community\vc\tools\msvc\14.10.25017\include\xstring
; File c:\program files (x86)\microsoft visual studio\2017\community\vc\tools\msvc\14.10.25017\include\iosfwd
; File c:\program files (x86)\microsoft visual studio\2017\community\vc\tools\msvc\14.10.25017\include\xstring
; File c:\users\andon\source\repos\specialk\src\import.cpp
;	COMDAT ??__ESK_IMPORT_PLUGIN@@YAXXZ
text$di	SEGMENT
??__ESK_IMPORT_PLUGIN@@YAXXZ PROC			; `dynamic initializer for 'SK_IMPORT_PLUGIN'', COMDAT
; File c:\program files (x86)\microsoft visual studio\2017\community\vc\tools\msvc\14.10.25017\include\xutility

; 302  : 		: _Ty1(), _Myval2(_STD forward<_Other2>(_Val2)...)

	mov	ecx, OFFSET ?SK_IMPORT_PLUGIN@@3V?$basic_string@_WU?$char_traits@_W@std@@V?$allocator@_W@2@@std@@B
	call	??0?$_Wrap_alloc@V?$allocator@_W@std@@@std@@QAE@XZ ; std::_Wrap_alloc<std::allocator<wchar_t> >::_Wrap_alloc<std::allocator<wchar_t> >
; File c:\program files (x86)\microsoft visual studio\2017\community\vc\tools\msvc\14.10.25017\include\xstring

; 2429 : 		return (assign(_Ptr, _Traits::length(_Ptr)));

	push	6
; File c:\program files (x86)\microsoft visual studio\2017\community\vc\tools\msvc\14.10.25017\include\iosfwd

; 326  : 		_Left = _Right;

	xor	eax, eax
; File c:\program files (x86)\microsoft visual studio\2017\community\vc\tools\msvc\14.10.25017\include\xstring

; 3597 : 		_My_data._Mysize = 0;

	mov	DWORD PTR ?SK_IMPORT_PLUGIN@@3V?$basic_string@_WU?$char_traits@_W@std@@V?$allocator@_W@2@@std@@B+16, 0

; 2429 : 		return (assign(_Ptr, _Traits::length(_Ptr)));

	push	OFFSET $SG146672
	mov	ecx, OFFSET ?SK_IMPORT_PLUGIN@@3V?$basic_string@_WU?$char_traits@_W@std@@V?$allocator@_W@2@@std@@B

; 3598 : 		_My_data._Myres = this->_BUF_SIZE - 1;

	mov	DWORD PTR ?SK_IMPORT_PLUGIN@@3V?$basic_string@_WU?$char_traits@_W@std@@V?$allocator@_W@2@@std@@B+20, 7
; File c:\program files (x86)\microsoft visual studio\2017\community\vc\tools\msvc\14.10.25017\include\iosfwd

; 326  : 		_Left = _Right;

	mov	WORD PTR ?SK_IMPORT_PLUGIN@@3V?$basic_string@_WU?$char_traits@_W@std@@V?$allocator@_W@2@@std@@B, ax
; File c:\program files (x86)\microsoft visual studio\2017\community\vc\tools\msvc\14.10.25017\include\xstring

; 2429 : 		return (assign(_Ptr, _Traits::length(_Ptr)));

	call	?assign@?$basic_string@_WU?$char_traits@_W@std@@V?$allocator@_W@2@@std@@QAEAAV12@QB_WI@Z ; std::basic_string<wchar_t,std::char_traits<wchar_t>,std::allocator<wchar_t> >::assign
; File c:\users\andon\source\repos\specialk\src\import.cpp

; 33   : const std::wstring SK_IMPORT_PLUGIN        = L"PlugIn";

	push	OFFSET ??__FSK_IMPORT_PLUGIN@@YAXXZ	; `dynamic atexit destructor for 'SK_IMPORT_PLUGIN''
	call	_atexit
	pop	ecx
	ret	0
??__ESK_IMPORT_PLUGIN@@YAXXZ ENDP			; `dynamic initializer for 'SK_IMPORT_PLUGIN''
text$di	ENDS
; Function compile flags: /Ogtp
; File c:\program files (x86)\microsoft visual studio\2017\community\vc\tools\msvc\14.10.25017\include\xstring
; File c:\program files (x86)\microsoft visual studio\2017\community\vc\tools\msvc\14.10.25017\include\xmemory0
; File c:\program files (x86)\microsoft visual studio\2017\community\vc\tools\msvc\14.10.25017\include\xstring
; File c:\program files (x86)\microsoft visual studio\2017\community\vc\tools\msvc\14.10.25017\include\xmemory0
; File c:\program files (x86)\microsoft visual studio\2017\community\vc\tools\msvc\14.10.25017\include\iosfwd
; File c:\program files (x86)\microsoft visual studio\2017\community\vc\tools\msvc\14.10.25017\include\xstring
; File c:\program files (x86)\microsoft visual studio\2017\community\vc\tools\msvc\14.10.25017\include\iosfwd
; File c:\program files (x86)\microsoft visual studio\2017\community\vc\tools\msvc\14.10.25017\include\xstring
;	COMDAT ??__FSK_IMPORT_EARLY@@YAXXZ
text$yd	SEGMENT
??__FSK_IMPORT_EARLY@@YAXXZ PROC			; `dynamic atexit destructor for 'SK_IMPORT_EARLY'', COMDAT

; 3606 : 		this->_Orphan_all();

	mov	ecx, OFFSET ?SK_IMPORT_EARLY@@3V?$basic_string@_WU?$char_traits@_W@std@@V?$allocator@_W@2@@std@@B ; SK_IMPORT_EARLY
	call	?_Orphan_all@?$_String_alloc@U?$_String_base_types@_WV?$allocator@_W@std@@@std@@@std@@QAEXXZ ; std::_String_alloc<std::_String_base_types<wchar_t,std::allocator<wchar_t> > >::_Orphan_all

; 1628 : 		return (this->_BUF_SIZE <= _Myres);

	cmp	DWORD PTR ?SK_IMPORT_EARLY@@3V?$basic_string@_WU?$char_traits@_W@std@@V?$allocator@_W@2@@std@@B+20, 8

; 3608 : 		if (_My_data._Large_string_engaged())

	jb	SHORT $LN7@dynamic
	push	esi

; 3609 : 			{
; 3610 : 			pointer _Ptr = _My_data._Bx._Ptr;

	mov	esi, DWORD PTR ?SK_IMPORT_EARLY@@3V?$basic_string@_WU?$char_traits@_W@std@@V?$allocator@_W@2@@std@@B

; 3611 : 			auto& _Al = this->_Getal();
; 3612 : 			_Al.destroy(_STD addressof(_My_data._Bx._Ptr));

	mov	ecx, OFFSET ?SK_IMPORT_EARLY@@3V?$basic_string@_WU?$char_traits@_W@std@@V?$allocator@_W@2@@std@@B ; SK_IMPORT_EARLY
	push	OFFSET ?SK_IMPORT_EARLY@@3V?$basic_string@_WU?$char_traits@_W@std@@V?$allocator@_W@2@@std@@B ; SK_IMPORT_EARLY
	call	??$destroy@PA_W@?$_Wrap_alloc@V?$allocator@_W@std@@@std@@QAEXPAPA_W@Z ; std::_Wrap_alloc<std::allocator<wchar_t> >::destroy<wchar_t *>

; 3613 : 			_Al.deallocate(_Ptr, _My_data._Myres + 1);

	mov	eax, DWORD PTR ?SK_IMPORT_EARLY@@3V?$basic_string@_WU?$char_traits@_W@std@@V?$allocator@_W@2@@std@@B+20
; File c:\program files (x86)\microsoft visual studio\2017\community\vc\tools\msvc\14.10.25017\include\xmemory0

; 823  : 		_Deallocate(_Ptr, _Count, sizeof (_Ty));

	push	2
; File c:\program files (x86)\microsoft visual studio\2017\community\vc\tools\msvc\14.10.25017\include\xstring

; 3613 : 			_Al.deallocate(_Ptr, _My_data._Myres + 1);

	inc	eax
; File c:\program files (x86)\microsoft visual studio\2017\community\vc\tools\msvc\14.10.25017\include\xmemory0

; 823  : 		_Deallocate(_Ptr, _Count, sizeof (_Ty));

	push	eax
	push	esi
	call	?_Deallocate@std@@YAXPAXII@Z		; std::_Deallocate
	add	esp, 12					; 0000000cH
	pop	esi
$LN7@dynamic:
; File c:\program files (x86)\microsoft visual studio\2017\community\vc\tools\msvc\14.10.25017\include\iosfwd

; 326  : 		_Left = _Right;

	xor	eax, eax
; File c:\program files (x86)\microsoft visual studio\2017\community\vc\tools\msvc\14.10.25017\include\xstring

; 3616 : 		_My_data._Mysize = 0;

	mov	DWORD PTR ?SK_IMPORT_EARLY@@3V?$basic_string@_WU?$char_traits@_W@std@@V?$allocator@_W@2@@std@@B+16, 0

; 3617 : 		_My_data._Myres = this->_BUF_SIZE - 1;

	mov	DWORD PTR ?SK_IMPORT_EARLY@@3V?$basic_string@_WU?$char_traits@_W@std@@V?$allocator@_W@2@@std@@B+20, 7

; 2217 : 		}

	mov	ecx, OFFSET ?SK_IMPORT_EARLY@@3V?$basic_string@_WU?$char_traits@_W@std@@V?$allocator@_W@2@@std@@B ; SK_IMPORT_EARLY
; File c:\program files (x86)\microsoft visual studio\2017\community\vc\tools\msvc\14.10.25017\include\iosfwd

; 326  : 		_Left = _Right;

	mov	WORD PTR ?SK_IMPORT_EARLY@@3V?$basic_string@_WU?$char_traits@_W@std@@V?$allocator@_W@2@@std@@B, ax
; File c:\program files (x86)\microsoft visual studio\2017\community\vc\tools\msvc\14.10.25017\include\xstring

; 2217 : 		}

	jmp	??1?$_String_alloc@U?$_String_base_types@_WV?$allocator@_W@std@@@std@@@std@@QAE@XZ
??__FSK_IMPORT_EARLY@@YAXXZ ENDP			; `dynamic atexit destructor for 'SK_IMPORT_EARLY''
text$yd	ENDS
; Function compile flags: /Ogtp
; File c:\users\andon\source\repos\specialk\src\import.cpp
; File c:\program files (x86)\microsoft visual studio\2017\community\vc\tools\msvc\14.10.25017\include\xutility
; File c:\program files (x86)\microsoft visual studio\2017\community\vc\tools\msvc\14.10.25017\include\xstring
; File c:\program files (x86)\microsoft visual studio\2017\community\vc\tools\msvc\14.10.25017\include\iosfwd
; File c:\program files (x86)\microsoft visual studio\2017\community\vc\tools\msvc\14.10.25017\include\xstring
; File c:\program files (x86)\microsoft visual studio\2017\community\vc\tools\msvc\14.10.25017\include\iosfwd
; File c:\program files (x86)\microsoft visual studio\2017\community\vc\tools\msvc\14.10.25017\include\xstring
; File c:\users\andon\source\repos\specialk\src\import.cpp
;	COMDAT ??__ESK_IMPORT_EARLY@@YAXXZ
text$di	SEGMENT
??__ESK_IMPORT_EARLY@@YAXXZ PROC			; `dynamic initializer for 'SK_IMPORT_EARLY'', COMDAT
; File c:\program files (x86)\microsoft visual studio\2017\community\vc\tools\msvc\14.10.25017\include\xutility

; 302  : 		: _Ty1(), _Myval2(_STD forward<_Other2>(_Val2)...)

	mov	ecx, OFFSET ?SK_IMPORT_EARLY@@3V?$basic_string@_WU?$char_traits@_W@std@@V?$allocator@_W@2@@std@@B ; SK_IMPORT_EARLY
	call	??0?$_Wrap_alloc@V?$allocator@_W@std@@@std@@QAE@XZ ; std::_Wrap_alloc<std::allocator<wchar_t> >::_Wrap_alloc<std::allocator<wchar_t> >
; File c:\program files (x86)\microsoft visual studio\2017\community\vc\tools\msvc\14.10.25017\include\xstring

; 2429 : 		return (assign(_Ptr, _Traits::length(_Ptr)));

	push	5
; File c:\program files (x86)\microsoft visual studio\2017\community\vc\tools\msvc\14.10.25017\include\iosfwd

; 326  : 		_Left = _Right;

	xor	eax, eax
; File c:\program files (x86)\microsoft visual studio\2017\community\vc\tools\msvc\14.10.25017\include\xstring

; 3597 : 		_My_data._Mysize = 0;

	mov	DWORD PTR ?SK_IMPORT_EARLY@@3V?$basic_string@_WU?$char_traits@_W@std@@V?$allocator@_W@2@@std@@B+16, 0

; 2429 : 		return (assign(_Ptr, _Traits::length(_Ptr)));

	push	OFFSET $SG146664
	mov	ecx, OFFSET ?SK_IMPORT_EARLY@@3V?$basic_string@_WU?$char_traits@_W@std@@V?$allocator@_W@2@@std@@B ; SK_IMPORT_EARLY

; 3598 : 		_My_data._Myres = this->_BUF_SIZE - 1;

	mov	DWORD PTR ?SK_IMPORT_EARLY@@3V?$basic_string@_WU?$char_traits@_W@std@@V?$allocator@_W@2@@std@@B+20, 7
; File c:\program files (x86)\microsoft visual studio\2017\community\vc\tools\msvc\14.10.25017\include\iosfwd

; 326  : 		_Left = _Right;

	mov	WORD PTR ?SK_IMPORT_EARLY@@3V?$basic_string@_WU?$char_traits@_W@std@@V?$allocator@_W@2@@std@@B, ax
; File c:\program files (x86)\microsoft visual studio\2017\community\vc\tools\msvc\14.10.25017\include\xstring

; 2429 : 		return (assign(_Ptr, _Traits::length(_Ptr)));

	call	?assign@?$basic_string@_WU?$char_traits@_W@std@@V?$allocator@_W@2@@std@@QAEAAV12@QB_WI@Z ; std::basic_string<wchar_t,std::char_traits<wchar_t>,std::allocator<wchar_t> >::assign
; File c:\users\andon\source\repos\specialk\src\import.cpp

; 32   : const std::wstring SK_IMPORT_EARLY         = L"Early";

	push	OFFSET ??__FSK_IMPORT_EARLY@@YAXXZ	; `dynamic atexit destructor for 'SK_IMPORT_EARLY''
	call	_atexit
	pop	ecx
	ret	0
??__ESK_IMPORT_EARLY@@YAXXZ ENDP			; `dynamic initializer for 'SK_IMPORT_EARLY''
text$di	ENDS
; Function compile flags: /Ogtp
; File c:\users\andon\source\repos\specialk\src\import.cpp
; File c:\program files (x86)\microsoft visual studio\2017\community\vc\tools\msvc\14.10.25017\include\xstring
; File c:\program files (x86)\microsoft visual studio\2017\community\vc\tools\msvc\14.10.25017\include\xstddef
; File c:\program files (x86)\microsoft visual studio\2017\community\vc\tools\msvc\14.10.25017\include\xstring
; File c:\program files (x86)\windows kits\10\include\10.0.10240.0\ucrt\wchar.h
; File c:\program files (x86)\microsoft visual studio\2017\community\vc\tools\msvc\14.10.25017\include\xstring
; File c:\program files (x86)\windows kits\10\include\10.0.10240.0\ucrt\wchar.h
; File c:\program files (x86)\microsoft visual studio\2017\community\vc\tools\msvc\14.10.25017\include\xstring
; File c:\program files (x86)\microsoft visual studio\2017\community\vc\tools\msvc\14.10.25017\include\xmemory0
; File c:\program files (x86)\microsoft visual studio\2017\community\vc\tools\msvc\14.10.25017\include\xstring
; File c:\program files (x86)\microsoft visual studio\2017\community\vc\tools\msvc\14.10.25017\include\xmemory0
; File c:\users\andon\source\repos\specialk\src\import.cpp
; File c:\program files (x86)\microsoft visual studio\2017\community\vc\tools\msvc\14.10.25017\include\xstring
; File c:\program files (x86)\microsoft visual studio\2017\community\vc\tools\msvc\14.10.25017\include\xstddef
; File c:\users\andon\source\repos\specialk\src\import.cpp
; File c:\program files (x86)\microsoft visual studio\2017\community\vc\tools\msvc\14.10.25017\include\xstring
; File c:\users\andon\source\repos\specialk\src\import.cpp
; File c:\program files (x86)\microsoft visual studio\2017\community\vc\tools\msvc\14.10.25017\include\xstring
; File c:\program files (x86)\microsoft visual studio\2017\community\vc\tools\msvc\14.10.25017\include\xmemory0
; File c:\program files (x86)\microsoft visual studio\2017\community\vc\tools\msvc\14.10.25017\include\xstring
; File c:\program files (x86)\microsoft visual studio\2017\community\vc\tools\msvc\14.10.25017\include\xmemory0
; File c:\users\andon\source\repos\specialk\src\import.cpp
; File c:\program files (x86)\windows kits\8.1\include\shared\winerror.h
; File c:\program files (x86)\microsoft visual studio\2017\community\vc\tools\msvc\14.10.25017\include\comdef.h
; File c:\users\andon\source\repos\specialk\src\import.cpp
; File c:\program files (x86)\microsoft visual studio\2017\community\vc\tools\msvc\14.10.25017\include\comdef.h
; File c:\users\andon\source\repos\specialk\src\import.cpp
; File c:\program files (x86)\microsoft visual studio\2017\community\vc\tools\msvc\14.10.25017\include\comdef.h
; File c:\users\andon\source\repos\specialk\src\import.cpp
; File c:\program files (x86)\microsoft visual studio\2017\community\vc\tools\msvc\14.10.25017\include\xmemory0
; File c:\users\andon\source\repos\specialk\src\import.cpp
_TEXT	SEGMENT
$T1 = -48						; size = 24
$T2 = -48						; size = 24
_err$3 = -24						; size = 16
_dwTime$1$ = -4						; size = 4
?SK_UnloadImports@@YAXXZ PROC				; SK_UnloadImports

; 856  : {

	npad	2
	push	ebp
	mov	ebp, esp
	sub	esp, 48					; 00000030H
	push	ebx
	push	esi
	push	edi

; 858  :   for (int i = SK_MAX_IMPORTS - 1; i >= 0; i--)

	mov	edi, OFFSET ?imports@@3PAUimport_s@@A+588
$LL4@SK_UnloadI:

; 859  :   {
; 860  :     if (imports [i].hLibrary > 0)

	cmp	DWORD PTR [edi-56], 0
	jbe	$LN2@SK_UnloadI

; 861  :     {
; 862  :       DWORD dwTime = timeGetTime ();

	call	DWORD PTR __imp__timeGetTime@0

; 864  :       if (imports [i].role->get_value () == SK_IMPORT_ROLE_PLUGIN)

	mov	ecx, DWORD PTR [edi+8]
	mov	DWORD PTR _dwTime$1$[ebp], eax
	lea	eax, DWORD PTR $T2[ebp]
	push	eax
	mov	edx, DWORD PTR [ecx]
	call	DWORD PTR [edx+8]
; File c:\program files (x86)\microsoft visual studio\2017\community\vc\tools\msvc\14.10.25017\include\xstring

; 1628 : 		return (this->_BUF_SIZE <= _Myres);

