; Listing generated by Microsoft (R) Optimizing Compiler Version 19.10.25019.0 

	TITLE	C:\Users\andon\Source\Repos\SpecialK\src\injection\injection.cpp
	.686P
	.XMM
	include listing.inc
	.model	flat

INCLUDELIB MSVCRT
INCLUDELIB OLDNAMES

PUBLIC	?count@SK_InjectionRecord_s@@2JC		; SK_InjectionRecord_s::count
PUBLIC	?rollovers@SK_InjectionRecord_s@@2JC		; SK_InjectionRecord_s::rollovers
PUBLIC	?g_hHookCBT@@3RAUHHOOK__@@A			; g_hHookCBT
PUBLIC	?g_hHookShell@@3RAUHHOOK__@@A			; g_hHookShell
PUBLIC	?g_hShutdown@@3RAXA				; g_hShutdown
PUBLIC	?hModHookInstance@@3PAUHINSTANCE__@@A		; hModHookInstance
PUBLIC	?local_record@@3PAUSK_InjectionRecord_s@@A	; local_record
_BSS	SEGMENT
?hModHookInstance@@3PAUHINSTANCE__@@A DD 01H DUP (?)	; hModHookInstance
?local_record@@3PAUSK_InjectionRecord_s@@A DD 01H DUP (?) ; local_record
_BSS	ENDS
CONST	SEGMENT
$SG147538 DB	'S', 00H, 'p', 00H, 'e', 00H, 'c', 00H, 'i', 00H, 'a', 00H
	DB	'l', 00H, 'K', 00H, '3', 00H, '2', 00H, '.', 00H, 'd', 00H, 'l'
	DB	00H, 'l', 00H, 00H, 00H
	ORG $+2
$SG147607 DB	'S', 00H, 'p', 00H, 'e', 00H, 'c', 00H, 'i', 00H, 'a', 00H
	DB	'l', 00H, 'K', 00H, '3', 00H, '2', 00H, '.', 00H, 'd', 00H, 'l'
	DB	00H, 'l', 00H, 00H, 00H
	ORG $+2
$SG147636 DB	'S', 00H, 'p', 00H, 'e', 00H, 'c', 00H, 'i', 00H, 'a', 00H
	DB	'l', 00H, 'K', 00H, '3', 00H, '2', 00H, '.', 00H, 'd', 00H, 'l'
	DB	00H, 'l', 00H, 00H, 00H
	ORG $+2
$SG147639 DB	'S', 00H, 'p', 00H, 'e', 00H, 'c', 00H, 'i', 00H, 'a', 00H
	DB	'l', 00H, 'K', 00H, '3', 00H, '2', 00H, '_', 00H, 'R', 00H, 'e'
	DB	00H, 's', 00H, 'e', 00H, 't', 00H, 00H, 00H
	ORG $+2
$SG147640 DB	'r', 00H, 'u', 00H, 'n', 00H, 'd', 00H, 'l', 00H, 'l', 00H
	DB	'3', 00H, '2', 00H, '.', 00H, 'e', 00H, 'x', 00H, 'e', 00H, 00H
	DB	00H
	ORG $+2
$SG147641 DB	'SpecialK32.dll,RunDLL_HookManager_D3D9 dump', 00H
$SG147642 DB	'open', 00H
	ORG $+3
$SG147643 DB	'r', 00H, 'u', 00H, 'n', 00H, 'd', 00H, 'l', 00H, 'l', 00H
	DB	'3', 00H, '2', 00H, '.', 00H, 'e', 00H, 'x', 00H, 'e', 00H, 00H
	DB	00H
	ORG $+2
$SG147644 DB	'SpecialK32.dll,RunDLL_HookManager_DXGI dump', 00H
$SG147645 DB	'open', 00H
	ORG $+3
$SG147667 DB	'S', 00H, 'p', 00H, 'e', 00H, 'c', 00H, 'i', 00H, 'a', 00H
	DB	'l', 00H, 'K', 00H, '3', 00H, '2', 00H, '.', 00H, 'd', 00H, 'l'
	DB	00H, 'l', 00H, 00H, 00H
	ORG $+2
$SG147670 DB	'S', 00H, 'p', 00H, 'e', 00H, 'c', 00H, 'i', 00H, 'a', 00H
	DB	'l', 00H, 'K', 00H, '3', 00H, '2', 00H, '_', 00H, 'R', 00H, 'e'
	DB	00H, 's', 00H, 'e', 00H, 't', 00H, 00H, 00H
	ORG $+2
$SG147763 DB	'Install', 00H
$SG147765 DB	'w', 00H
	ORG $+2
$SG147766 DB	'SpecialK32.pid', 00H
	ORG $+1
$SG147768 DB	'%lu', 0aH, 00H
	ORG $+3
$SG147770 DB	'Remove', 00H
	ORG $+1
$SG147771 DB	'r', 00H
	ORG $+2
$SG147772 DB	'SpecialK32.pid', 00H
	ORG $+1
$SG147774 DB	'%lu', 00H
$SG147777 DB	'SpecialK32.pid', 00H
	ORG $+1
$SG147808 DB	'\', 00H, 'd', 00H, '3', 00H, 'd', 00H, '9', 00H, '.', 00H
	DB	'd', 00H, 'l', 00H, 'l', 00H, 00H, 00H
$SG147810 DB	'\', 00H, 'd', 00H, 'x', 00H, 'g', 00H, 'i', 00H, '.', 00H
	DB	'd', 00H, 'l', 00H, 'l', 00H, 00H, 00H
$SG147812 DB	'\', 00H, 'O', 00H, 'p', 00H, 'e', 00H, 'n', 00H, 'G', 00H
	DB	'L', 00H, '3', 00H, '2', 00H, '.', 00H, 'd', 00H, 'l', 00H, 'l'
	DB	00H, 00H, 00H
$SG147814 DB	'\', 00H, 'd', 00H, 'd', 00H, 'r', 00H, 'a', 00H, 'w', 00H
	DB	'.', 00H, 'd', 00H, 'l', 00H, 'l', 00H, 00H, 00H
	ORG $+2
$SG147816 DB	'\', 00H, 'd', 00H, '3', 00H, 'd', 00H, '8', 00H, '.', 00H
	DB	'd', 00H, 'l', 00H, 'l', 00H, 00H, 00H
$SG147818 DB	'\', 00H, 'S', 00H, 'p', 00H, 'e', 00H, 'c', 00H, 'i', 00H
	DB	'a', 00H, 'l', 00H, 'K', 00H, '.', 00H, 'c', 00H, 'e', 00H, 'n'
	DB	00H, 't', 00H, 'r', 00H, 'a', 00H, 'l', 00H, 00H, 00H
$SG147819 DB	'w', 00H, 00H, 00H
$SG147820 DB	' ', 00H, 00H, 00H
$SG147821 DB	'S', 00H, 'p', 00H, 'e', 00H, 'c', 00H, 'i', 00H, 'a', 00H
	DB	'l', 00H, 'K', 00H, '3', 00H, '2', 00H, '.', 00H, 'p', 00H, 'd'
	DB	00H, 'b', 00H, 00H, 00H
	ORG $+2
$SG147822 DB	'\', 00H, 'S', 00H, 'p', 00H, 'e', 00H, 'c', 00H, 'i', 00H
	DB	'a', 00H, 'l', 00H, 'K', 00H, '3', 00H, '2', 00H, '.', 00H, 'p'
	DB	00H, 'd', 00H, 'b', 00H, 00H, 00H
$SG147825 DB	'd', 00H, '3', 00H, 'd', 00H, '9', 00H, 00H, 00H
	ORG $+2
$SG147827 DB	'd', 00H, 'x', 00H, 'g', 00H, 'i', 00H, 00H, 00H
	ORG $+2
$SG147829 DB	'O', 00H, 'p', 00H, 'e', 00H, 'n', 00H, 'G', 00H, 'L', 00H
	DB	'3', 00H, '2', 00H, 00H, 00H
	ORG $+2
$SG147831 DB	'd', 00H, 'd', 00H, 'r', 00H, 'a', 00H, 'w', 00H, 00H, 00H
$SG147833 DB	'd', 00H, '3', 00H, 'd', 00H, '8', 00H, 00H, 00H
	ORG $+2
$SG147834 DB	'%ws\Version', 00H
$SG147837 DB	'\', 00H, 'V', 00H, 'e', 00H, 'r', 00H, 's', 00H, 'i', 00H
	DB	'o', 00H, 'n', 00H, '\', 00H, 'i', 00H, 'n', 00H, 's', 00H, 't'
	DB	00H, 'a', 00H, 'l', 00H, 'l', 00H, 'e', 00H, 'd', 00H, '.', 00H
	DB	'i', 00H, 'n', 00H, 'i', 00H, 00H, 00H
	ORG $+2
$SG147838 DB	'\', 00H, 'i', 00H, 'n', 00H, 's', 00H, 't', 00H, 'a', 00H
	DB	'l', 00H, 'l', 00H, 'e', 00H, 'd', 00H, '.', 00H, 'i', 00H, 'n'
	DB	00H, 'i', 00H, 00H, 00H
	ORG $+2
$SG147839 DB	'\', 00H, 'V', 00H, 'e', 00H, 'r', 00H, 's', 00H, 'i', 00H
	DB	'o', 00H, 'n', 00H, '\', 00H, 'r', 00H, 'e', 00H, 'p', 00H, 'o'
	DB	00H, 's', 00H, 'i', 00H, 't', 00H, 'o', 00H, 'r', 00H, 'y', 00H
	DB	'.', 00H, 'i', 00H, 'n', 00H, 'i', 00H, 00H, 00H
$SG147840 DB	'\', 00H, 'r', 00H, 'e', 00H, 'p', 00H, 'o', 00H, 's', 00H
	DB	'i', 00H, 't', 00H, 'o', 00H, 'r', 00H, 'y', 00H, '.', 00H, 'i'
	DB	00H, 'n', 00H, 'i', 00H, 00H, 00H
$SG147869 DB	'\', 00H, 'd', 00H, '3', 00H, 'd', 00H, '9', 00H, '.', 00H
	DB	'd', 00H, 'l', 00H, 'l', 00H, 00H, 00H
$SG147871 DB	'\', 00H, 'd', 00H, '3', 00H, 'd', 00H, '8', 00H, '.', 00H
	DB	'd', 00H, 'l', 00H, 'l', 00H, 00H, 00H
$SG147873 DB	'\', 00H, 'd', 00H, 'd', 00H, 'r', 00H, 'a', 00H, 'w', 00H
	DB	'.', 00H, 'd', 00H, 'l', 00H, 'l', 00H, 00H, 00H
	ORG $+2
$SG147875 DB	'\', 00H, 'd', 00H, 'x', 00H, 'g', 00H, 'i', 00H, '.', 00H
	DB	'd', 00H, 'l', 00H, 'l', 00H, 00H, 00H
$SG147877 DB	'\', 00H, 'O', 00H, 'p', 00H, 'e', 00H, 'n', 00H, 'G', 00H
	DB	'L', 00H, '3', 00H, '2', 00H, '.', 00H, 'd', 00H, 'l', 00H, 'l'
	DB	00H, 00H, 00H
$SG147879 DB	'\', 00H, 'S', 00H, 'p', 00H, 'e', 00H, 'c', 00H, 'i', 00H
	DB	'a', 00H, 'l', 00H, 'K', 00H, '.', 00H, 'c', 00H, 'e', 00H, 'n'
	DB	00H, 't', 00H, 'r', 00H, 'a', 00H, 'l', 00H, 00H, 00H
$SG147880 DB	'w', 00H, 00H, 00H
$SG147881 DB	' ', 00H, 00H, 00H
$SG147882 DB	'S', 00H, 'p', 00H, 'e', 00H, 'c', 00H, 'i', 00H, 'a', 00H
	DB	'l', 00H, 'K', 00H, '3', 00H, '2', 00H, '.', 00H, 'p', 00H, 'd'
	DB	00H, 'b', 00H, 00H, 00H
	ORG $+2
$SG147883 DB	'\', 00H, 'S', 00H, 'p', 00H, 'e', 00H, 'c', 00H, 'i', 00H
	DB	'a', 00H, 'l', 00H, 'K', 00H, '3', 00H, '2', 00H, '.', 00H, 'p'
	DB	00H, 'd', 00H, 'b', 00H, 00H, 00H
$SG147886 DB	'd', 00H, '3', 00H, 'd', 00H, '9', 00H, 00H, 00H
	ORG $+2
$SG147888 DB	'd', 00H, '3', 00H, 'd', 00H, '8', 00H, 00H, 00H
	ORG $+2
$SG147890 DB	'd', 00H, 'd', 00H, 'r', 00H, 'a', 00H, 'w', 00H, 00H, 00H
$SG147892 DB	'd', 00H, 'x', 00H, 'g', 00H, 'i', 00H, 00H, 00H
	ORG $+2
$SG147894 DB	'O', 00H, 'p', 00H, 'e', 00H, 'n', 00H, 'G', 00H, 'L', 00H
	DB	'3', 00H, '2', 00H, 00H, 00H
	ORG $+2
$SG147895 DB	'%ws\Version', 00H
$SG147898 DB	'\', 00H, 'V', 00H, 'e', 00H, 'r', 00H, 's', 00H, 'i', 00H
	DB	'o', 00H, 'n', 00H, '\', 00H, 'i', 00H, 'n', 00H, 's', 00H, 't'
	DB	00H, 'a', 00H, 'l', 00H, 'l', 00H, 'e', 00H, 'd', 00H, '.', 00H
	DB	'i', 00H, 'n', 00H, 'i', 00H, 00H, 00H
	ORG $+2
$SG147899 DB	'\', 00H, 'i', 00H, 'n', 00H, 's', 00H, 't', 00H, 'a', 00H
	DB	'l', 00H, 'l', 00H, 'e', 00H, 'd', 00H, '.', 00H, 'i', 00H, 'n'
	DB	00H, 'i', 00H, 00H, 00H
	ORG $+2
$SG147900 DB	'\', 00H, 'V', 00H, 'e', 00H, 'r', 00H, 's', 00H, 'i', 00H
	DB	'o', 00H, 'n', 00H, '\', 00H, 'r', 00H, 'e', 00H, 'p', 00H, 'o'
	DB	00H, 's', 00H, 'i', 00H, 't', 00H, 'o', 00H, 'r', 00H, 'y', 00H
	DB	'.', 00H, 'i', 00H, 'n', 00H, 'i', 00H, 00H, 00H
$SG147901 DB	'\', 00H, 'r', 00H, 'e', 00H, 'p', 00H, 'o', 00H, 's', 00H
	DB	'i', 00H, 't', 00H, 'o', 00H, 'r', 00H, 'y', 00H, '.', 00H, 'i'
	DB	00H, 'n', 00H, 'i', 00H, 00H, 00H
$SG147912 DB	'\', 00H, 'd', 00H, '3', 00H, 'd', 00H, '9', 00H, '.', 00H
	DB	'd', 00H, 'l', 00H, 'l', 00H, 00H, 00H
$SG147914 DB	'\', 00H, 'd', 00H, '3', 00H, 'd', 00H, '8', 00H, '.', 00H
	DB	'd', 00H, 'l', 00H, 'l', 00H, 00H, 00H
$SG147916 DB	'\', 00H, 'd', 00H, 'd', 00H, 'r', 00H, 'a', 00H, 'w', 00H
	DB	'.', 00H, 'd', 00H, 'l', 00H, 'l', 00H, 00H, 00H
	ORG $+2
$SG147918 DB	'\', 00H, 'd', 00H, 'x', 00H, 'g', 00H, 'i', 00H, '.', 00H
	DB	'd', 00H, 'l', 00H, 'l', 00H, 00H, 00H
$SG147920 DB	'\', 00H, 'O', 00H, 'p', 00H, 'e', 00H, 'n', 00H, 'G', 00H
	DB	'L', 00H, '3', 00H, '2', 00H, '.', 00H, 'd', 00H, 'l', 00H, 'l'
	DB	00H, 00H, 00H
$SG147921 DB	'S', 00H, 'K', 00H, 'I', 00H, 00H, 00H
$SG147922 DB	'S', 00H, 'p', 00H, 'e', 00H, 'c', 00H, 'i', 00H, 'a', 00H
	DB	'l', 00H, 'K', 00H, 00H, 00H
	ORG $+2
$SG147932 DB	'\', 00H, 'd', 00H, '3', 00H, 'd', 00H, '9', 00H, '.', 00H
	DB	'd', 00H, 'l', 00H, 'l', 00H, 00H, 00H
$SG147934 DB	'\', 00H, 'd', 00H, '3', 00H, 'd', 00H, '8', 00H, '.', 00H
	DB	'd', 00H, 'l', 00H, 'l', 00H, 00H, 00H
$SG147936 DB	'\', 00H, 'd', 00H, 'd', 00H, 'r', 00H, 'a', 00H, 'w', 00H
	DB	'.', 00H, 'd', 00H, 'l', 00H, 'l', 00H, 00H, 00H
	ORG $+2
$SG147938 DB	'\', 00H, 'd', 00H, 'x', 00H, 'g', 00H, 'i', 00H, '.', 00H
	DB	'd', 00H, 'l', 00H, 'l', 00H, 00H, 00H
$SG147940 DB	'\', 00H, 'O', 00H, 'p', 00H, 'e', 00H, 'n', 00H, 'G', 00H
	DB	'L', 00H, '3', 00H, '2', 00H, '.', 00H, 'd', 00H, 'l', 00H, 'l'
	DB	00H, 00H, 00H
$SG147941 DB	'S', 00H, 'K', 00H, 'I', 00H, 00H, 00H
$SG147942 DB	'S', 00H, 'p', 00H, 'e', 00H, 'c', 00H, 'i', 00H, 'a', 00H
	DB	'l', 00H, 'K', 00H, 00H, 00H
	ORG $+2
$SG148187 DB	'S', 00H, 'p', 00H, 'e', 00H, 'c', 00H, 'i', 00H, 'a', 00H
	DB	'l', 00H, 'K', 00H, '3', 00H, '2', 00H, '.', 00H, 'd', 00H, 'l'
	DB	00H, 'l', 00H, 00H, 00H
	ORG $+2
$SG148190 DB	'S', 00H, 'K', 00H, 'I', 00H, 'M', 00H, '6', 00H, '4', 00H
	DB	'.', 00H, 'e', 00H, 'x', 00H, 'e', 00H, 00H, 00H
	ORG $+2
$SG148191 DB	'r', 00H, 'u', 00H, 'n', 00H, 'd', 00H, 'l', 00H, 'l', 00H
	DB	'3', 00H, '2', 00H, '.', 00H, 'e', 00H, 'x', 00H, 'e', 00H, 00H
	DB	00H
	ORG $+2
$SG148192 DB	'SpecialK32.dll,RunDLL_InjectionManager Remove', 00H
	ORG $+2
$SG148193 DB	'open', 00H
	ORG $+3
$SG148194 DB	'r', 00H, 'u', 00H, 'n', 00H, 'd', 00H, 'l', 00H, 'l', 00H
	DB	'3', 00H, '2', 00H, '.', 00H, 'e', 00H, 'x', 00H, 'e', 00H, 00H
	DB	00H
	ORG $+2
$SG148195 DB	'SpecialK64.dll,RunDLL_InjectionManager Remove', 00H
	ORG $+2
$SG148196 DB	'open', 00H
	ORG $+3
$SG148197 DB	'S', 00H, 'K', 00H, 'I', 00H, 'M', 00H, '_', 00H, 'F', 00H
	DB	'r', 00H, 'o', 00H, 'n', 00H, 't', 00H, 'e', 00H, 'n', 00H, 'd'
	DB	00H, 00H, 00H
$SG148200 DB	'-Inject', 00H
$SG148201 DB	'SKIM64.exe', 00H
	ORG $+1
$SG148202 DB	'open', 00H
	ORG $+3
$SG148203 DB	'S', 00H, 'K', 00H, 'I', 00H, 'M', 00H, '6', 00H, '4', 00H
	DB	'.', 00H, 'e', 00H, 'x', 00H, 'e', 00H, 00H, 00H
	ORG $+2
$SG148222 DB	'S', 00H, 'K', 00H, 'I', 00H, 'M', 00H, '6', 00H, '4', 00H
	DB	'.', 00H, 'e', 00H, 'x', 00H, 'e', 00H, 00H, 00H
	ORG $+2
$SG148224 DB	'Remove', 00H
	ORG $+1
$SG148225 DB	'r', 00H, 'u', 00H, 'n', 00H, 'd', 00H, 'l', 00H, 'l', 00H
	DB	'3', 00H, '2', 00H, '.', 00H, 'e', 00H, 'x', 00H, 'e', 00H, 00H
	DB	00H
	ORG $+2
$SG148226 DB	'SpecialK64.dll,RunDLL_InjectionManager Install', 00H
	ORG $+1
$SG148227 DB	'open', 00H
	ORG $+3
$SG148228 DB	'r', 00H, 'u', 00H, 'n', 00H, 'd', 00H, 'l', 00H, 'l', 00H
	DB	'3', 00H, '2', 00H, '.', 00H, 'e', 00H, 'x', 00H, 'e', 00H, 00H
	DB	00H
	ORG $+2
$SG148229 DB	'SpecialK32.dll,RunDLL_InjectionManager Install', 00H
	ORG $+1
$SG148230 DB	'open', 00H
	ORG $+3
$SG148232 DB	'Remove', 00H
	ORG $+1
$SG148233 DB	'S', 00H, 'K', 00H, 'I', 00H, 'M', 00H, '_', 00H, 'F', 00H
	DB	'r', 00H, 'o', 00H, 'n', 00H, 't', 00H, 'e', 00H, 'n', 00H, 'd'
	DB	00H, 00H, 00H
$SG148236 DB	'+Inject', 00H
$SG148237 DB	'SKIM64.exe', 00H
	ORG $+1
$SG148238 DB	'open', 00H
CONST	ENDS
SK_Hooks	SEGMENT
?count@SK_InjectionRecord_s@@2JC DD 00H			; SK_InjectionRecord_s::count
?rollovers@SK_InjectionRecord_s@@2JC DD 00H		; SK_InjectionRecord_s::rollovers
?g_hHookCBT@@3RAUHHOOK__@@A DD 00H			; g_hHookCBT
?g_hHookShell@@3RAUHHOOK__@@A DD 00H			; g_hHookShell
?g_hShutdown@@3RAXA DD 00H				; g_hShutdown
	ORG $+4
?g_sHookedPIDs@@3RCJC	ORG $+64				; g_sHookedPIDs
SK_Hooks	ENDS
PUBLIC	??_H@YGXPAXIIP6EPAX0@Z@Z			; `vector constructor iterator'
PUBLIC	_ReadAcquire
PUBLIC	_wmemcpy
PUBLIC	_wmemmove
PUBLIC	??2@YAPAXIPAX@Z					; operator new
PUBLIC	?length@?$char_traits@_W@std@@SAIQB_W@Z		; std::char_traits<wchar_t>::length
PUBLIC	?copy@?$char_traits@_W@std@@SAPA_WQA_WQB_WI@Z	; std::char_traits<wchar_t>::copy
PUBLIC	?move@?$char_traits@_W@std@@SAPA_WQA_WQB_WI@Z	; std::char_traits<wchar_t>::move
PUBLIC	?assign@?$char_traits@_W@std@@SAXAA_WAB_W@Z	; std::char_traits<wchar_t>::assign
PUBLIC	?copy@?$char_traits@D@std@@SAPADQADQBDI@Z	; std::char_traits<char>::copy
PUBLIC	?move@?$char_traits@D@std@@SAPADQADQBDI@Z	; std::char_traits<char>::move
PUBLIC	?assign@?$char_traits@D@std@@SAXAADABD@Z	; std::char_traits<char>::assign
PUBLIC	?_Orphan_all@_Container_base0@std@@QAEXXZ	; std::_Container_base0::_Orphan_all
PUBLIC	?CBTProc@@YGJHIJ@Z				; CBTProc
PUBLIC	?SKX_InstallCBTHook@@YGXXZ			; SKX_InstallCBTHook
PUBLIC	?SKX_RemoveCBTHook@@YGXXZ			; SKX_RemoveCBTHook
PUBLIC	?SKX_IsHookingCBT@@YG_NXZ			; SKX_IsHookingCBT
PUBLIC	?SKX_GetInjectedPIDs@@YGIPAKI@Z			; SKX_GetInjectedPIDs
PUBLIC	?SK_Inject_SwitchToGlobalInjector@@YA_NXZ	; SK_Inject_SwitchToGlobalInjector
PUBLIC	?SK_Inject_SwitchToGlobalInjectorEx@@YA_NW4DLL_ROLE@@@Z ; SK_Inject_SwitchToGlobalInjectorEx
PUBLIC	?SK_Inject_SwitchToRenderWrapper@@YA_NXZ	; SK_Inject_SwitchToRenderWrapper
PUBLIC	?SK_Inject_SwitchToRenderWrapperEx@@YA_NW4DLL_ROLE@@@Z ; SK_Inject_SwitchToRenderWrapperEx
PUBLIC	?SK_Inject_ReleaseProcess@@YAXXZ		; SK_Inject_ReleaseProcess
PUBLIC	?SK_Inject_AcquireProcess@@YAXXZ		; SK_Inject_AcquireProcess
PUBLIC	??0<unnamed-type-process>@SK_InjectionRecord_s@@QAE@XZ ; SK_InjectionRecord_s::<unnamed-type-process>::<unnamed-type-process>
PUBLIC	??0<unnamed-type-render>@SK_InjectionRecord_s@@QAE@XZ ; SK_InjectionRecord_s::<unnamed-type-render>::<unnamed-type-render>
PUBLIC	??0<unnamed-type-input>@SK_InjectionRecord_s@@QAE@XZ ; SK_InjectionRecord_s::<unnamed-type-input>::<unnamed-type-input>
PUBLIC	??0SK_InjectionRecord_s@@QAE@XZ			; SK_InjectionRecord_s::SK_InjectionRecord_s
PUBLIC	?SK_Inject_GetRecord@@YAPAUSK_InjectionRecord_s@@H@Z ; SK_Inject_GetRecord
PUBLIC	?_Allocate@std@@YAPAXII_N@Z			; std::_Allocate
PUBLIC	?_Deallocate@std@@YAXPAXII@Z			; std::_Deallocate
PUBLIC	??0?$allocator@D@std@@QAE@ABV01@@Z		; std::allocator<char>::allocator<char>
PUBLIC	?deallocate@?$allocator@D@std@@QAEXPADI@Z	; std::allocator<char>::deallocate
PUBLIC	?allocate@?$allocator@D@std@@QAEPADI@Z		; std::allocator<char>::allocate
PUBLIC	?max_size@?$allocator@D@std@@QBEIXZ		; std::allocator<char>::max_size
PUBLIC	?max_size@?$allocator_traits@V?$allocator@D@std@@@std@@SAIABV?$allocator@D@2@@Z ; std::allocator_traits<std::allocator<char> >::max_size
PUBLIC	?select_on_container_copy_construction@?$allocator_traits@V?$allocator@D@std@@@std@@SA?AV?$allocator@D@2@ABV32@@Z ; std::allocator_traits<std::allocator<char> >::select_on_container_copy_construction
PUBLIC	?select_on_container_copy_construction@?$_Wrap_alloc@V?$allocator@D@std@@@std@@QBE?AU12@U_Nil@2@@Z ; std::_Wrap_alloc<std::allocator<char> >::select_on_container_copy_construction
PUBLIC	??0?$_Wrap_alloc@V?$allocator@D@std@@@std@@QAE@$$QAU01@@Z ; std::_Wrap_alloc<std::allocator<char> >::_Wrap_alloc<std::allocator<char> >
PUBLIC	?allocate@?$_Wrap_alloc@V?$allocator@D@std@@@std@@QAEPADI@Z ; std::_Wrap_alloc<std::allocator<char> >::allocate
PUBLIC	?deallocate@?$_Wrap_alloc@V?$allocator@D@std@@@std@@QAEXPADI@Z ; std::_Wrap_alloc<std::allocator<char> >::deallocate
PUBLIC	?max_size@?$_Wrap_alloc@V?$allocator@D@std@@@std@@QBEIU_Nil@2@@Z ; std::_Wrap_alloc<std::allocator<char> >::max_size
PUBLIC	??0?$_String_val@U?$_Simple_types@D@std@@@std@@QAE@XZ ; std::_String_val<std::_Simple_types<char> >::_String_val<std::_Simple_types<char> >
PUBLIC	?_Myptr@?$_String_val@U?$_Simple_types@D@std@@@std@@QAEPADXZ ; std::_String_val<std::_Simple_types<char> >::_Myptr
PUBLIC	?_Myptr@?$_String_val@U?$_Simple_types@D@std@@@std@@QBEPBDXZ ; std::_String_val<std::_Simple_types<char> >::_Myptr
PUBLIC	?_Large_string_engaged@?$_String_val@U?$_Simple_types@D@std@@@std@@QBE_NXZ ; std::_String_val<std::_Simple_types<char> >::_Large_string_engaged
PUBLIC	??0_Bxty@?$_String_val@U?$_Simple_types@D@std@@@std@@QAE@XZ ; std::_String_val<std::_Simple_types<char> >::_Bxty::_Bxty
PUBLIC	??1_Bxty@?$_String_val@U?$_Simple_types@D@std@@@std@@QAE@XZ ; std::_String_val<std::_Simple_types<char> >::_Bxty::~_Bxty
PUBLIC	??1?$_String_val@U?$_Simple_types@D@std@@@std@@QAE@XZ ; std::_String_val<std::_Simple_types<char> >::~_String_val<std::_Simple_types<char> >
PUBLIC	?_Myptr@?$_String_alloc@U?$_String_base_types@DV?$allocator@D@std@@@std@@@std@@QAEPADXZ ; std::_String_alloc<std::_String_base_types<char,std::allocator<char> > >::_Myptr
PUBLIC	?_Myptr@?$_String_alloc@U?$_String_base_types@DV?$allocator@D@std@@@std@@@std@@QBEPBDXZ ; std::_String_alloc<std::_String_base_types<char,std::allocator<char> > >::_Myptr
PUBLIC	?_Orphan_all@?$_String_alloc@U?$_String_base_types@DV?$allocator@D@std@@@std@@@std@@QAEXXZ ; std::_String_alloc<std::_String_base_types<char,std::allocator<char> > >::_Orphan_all
PUBLIC	?_Getal@?$_String_alloc@U?$_String_base_types@DV?$allocator@D@std@@@std@@@std@@QAEAAU?$_Wrap_alloc@V?$allocator@D@std@@@2@XZ ; std::_String_alloc<std::_String_base_types<char,std::allocator<char> > >::_Getal
PUBLIC	?_Getal@?$_String_alloc@U?$_String_base_types@DV?$allocator@D@std@@@std@@@std@@QBEABU?$_Wrap_alloc@V?$allocator@D@std@@@2@XZ ; std::_String_alloc<std::_String_base_types<char,std::allocator<char> > >::_Getal
PUBLIC	?_Get_data@?$_String_alloc@U?$_String_base_types@DV?$allocator@D@std@@@std@@@std@@QAEAAV?$_String_val@U?$_Simple_types@D@std@@@2@XZ ; std::_String_alloc<std::_String_base_types<char,std::allocator<char> > >::_Get_data
PUBLIC	?_Get_data@?$_String_alloc@U?$_String_base_types@DV?$allocator@D@std@@@std@@@std@@QBEABV?$_String_val@U?$_Simple_types@D@std@@@2@XZ ; std::_String_alloc<std::_String_base_types<char,std::allocator<char> > >::_Get_data
PUBLIC	?_Mysize@?$_String_alloc@U?$_String_base_types@DV?$allocator@D@std@@@std@@@std@@QAEAAIXZ ; std::_String_alloc<std::_String_base_types<char,std::allocator<char> > >::_Mysize
PUBLIC	?_Mysize@?$_String_alloc@U?$_String_base_types@DV?$allocator@D@std@@@std@@@std@@QBEABIXZ ; std::_String_alloc<std::_String_base_types<char,std::allocator<char> > >::_Mysize
PUBLIC	?_Myres@?$_String_alloc@U?$_String_base_types@DV?$allocator@D@std@@@std@@@std@@QAEAAIXZ ; std::_String_alloc<std::_String_base_types<char,std::allocator<char> > >::_Myres
PUBLIC	?_Get_first@?$_Compressed_pair@U?$_Wrap_alloc@V?$allocator@D@std@@@std@@V?$_String_val@U?$_Simple_types@D@std@@@2@$00@std@@QAEAAU?$_Wrap_alloc@V?$allocator@D@std@@@2@XZ ; std::_Compressed_pair<std::_Wrap_alloc<std::allocator<char> >,std::_String_val<std::_Simple_types<char> >,1>::_Get_first
PUBLIC	?_Get_first@?$_Compressed_pair@U?$_Wrap_alloc@V?$allocator@D@std@@@std@@V?$_String_val@U?$_Simple_types@D@std@@@2@$00@std@@QBEABU?$_Wrap_alloc@V?$allocator@D@std@@@2@XZ ; std::_Compressed_pair<std::_Wrap_alloc<std::allocator<char> >,std::_String_val<std::_Simple_types<char> >,1>::_Get_first
PUBLIC	?_Get_second@?$_Compressed_pair@U?$_Wrap_alloc@V?$allocator@D@std@@@std@@V?$_String_val@U?$_Simple_types@D@std@@@2@$00@std@@QAEAAV?$_String_val@U?$_Simple_types@D@std@@@2@XZ ; std::_Compressed_pair<std::_Wrap_alloc<std::allocator<char> >,std::_String_val<std::_Simple_types<char> >,1>::_Get_second
PUBLIC	?_Get_second@?$_Compressed_pair@U?$_Wrap_alloc@V?$allocator@D@std@@@std@@V?$_String_val@U?$_Simple_types@D@std@@@2@$00@std@@QBEABV?$_String_val@U?$_Simple_types@D@std@@@2@XZ ; std::_Compressed_pair<std::_Wrap_alloc<std::allocator<char> >,std::_String_val<std::_Simple_types<char> >,1>::_Get_second
PUBLIC	??1?$_Compressed_pair@U?$_Wrap_alloc@V?$allocator@D@std@@@std@@V?$_String_val@U?$_Simple_types@D@std@@@2@$00@std@@QAE@XZ ; std::_Compressed_pair<std::_Wrap_alloc<std::allocator<char> >,std::_String_val<std::_Simple_types<char> >,1>::~_Compressed_pair<std::_Wrap_alloc<std::allocator<char> >,std::_String_val<std::_Simple_types<char> >,1>
PUBLIC	??1?$_String_alloc@U?$_String_base_types@DV?$allocator@D@std@@@std@@@std@@QAE@XZ ; std::_String_alloc<std::_String_base_types<char,std::allocator<char> > >::~_String_alloc<std::_String_base_types<char,std::allocator<char> > >
PUBLIC	??0?$basic_string@DU?$char_traits@D@std@@V?$allocator@D@2@@std@@QAE@ABV01@@Z ; std::basic_string<char,std::char_traits<char>,std::allocator<char> >::basic_string<char,std::char_traits<char>,std::allocator<char> >
PUBLIC	?_Assign_lv_contents@?$basic_string@DU?$char_traits@D@std@@V?$allocator@D@2@@std@@QAEXABV12@@Z ; std::basic_string<char,std::char_traits<char>,std::allocator<char> >::_Assign_lv_contents
PUBLIC	??1?$basic_string@DU?$char_traits@D@std@@V?$allocator@D@2@@std@@QAE@XZ ; std::basic_string<char,std::char_traits<char>,std::allocator<char> >::~basic_string<char,std::char_traits<char>,std::allocator<char> >
PUBLIC	?assign@?$basic_string@DU?$char_traits@D@std@@V?$allocator@D@2@@std@@QAEAAV12@ABV12@II@Z ; std::basic_string<char,std::char_traits<char>,std::allocator<char> >::assign
PUBLIC	?erase@?$basic_string@DU?$char_traits@D@std@@V?$allocator@D@2@@std@@QAEAAV12@I@Z ; std::basic_string<char,std::char_traits<char>,std::allocator<char> >::erase
PUBLIC	?erase@?$basic_string@DU?$char_traits@D@std@@V?$allocator@D@2@@std@@QAEAAV12@II@Z ; std::basic_string<char,std::char_traits<char>,std::allocator<char> >::erase
PUBLIC	?c_str@?$basic_string@DU?$char_traits@D@std@@V?$allocator@D@2@@std@@QBEPBDXZ ; std::basic_string<char,std::char_traits<char>,std::allocator<char> >::c_str
PUBLIC	?max_size@?$basic_string@DU?$char_traits@D@std@@V?$allocator@D@2@@std@@QBEIXZ ; std::basic_string<char,std::char_traits<char>,std::allocator<char> >::max_size
PUBLIC	?_Clamp_suffix_size@?$basic_string@DU?$char_traits@D@std@@V?$allocator@D@2@@std@@QBEIII@Z ; std::basic_string<char,std::char_traits<char>,std::allocator<char> >::_Clamp_suffix_size
PUBLIC	?_Copy@?$basic_string@DU?$char_traits@D@std@@V?$allocator@D@2@@std@@QAEXI@Z ; std::basic_string<char,std::char_traits<char>,std::allocator<char> >::_Copy
PUBLIC	?_Eos@?$basic_string@DU?$char_traits@D@std@@V?$allocator@D@2@@std@@QAEXI@Z ; std::basic_string<char,std::char_traits<char>,std::allocator<char> >::_Eos
PUBLIC	?_Grow@?$basic_string@DU?$char_traits@D@std@@V?$allocator@D@2@@std@@QAE_NI@Z ; std::basic_string<char,std::char_traits<char>,std::allocator<char> >::_Grow
PUBLIC	?_Tidy_init@?$basic_string@DU?$char_traits@D@std@@V?$allocator@D@2@@std@@QAEXXZ ; std::basic_string<char,std::char_traits<char>,std::allocator<char> >::_Tidy_init
PUBLIC	?_Tidy_deallocate@?$basic_string@DU?$char_traits@D@std@@V?$allocator@D@2@@std@@QAEXXZ ; std::basic_string<char,std::char_traits<char>,std::allocator<char> >::_Tidy_deallocate
PUBLIC	?_Xlen@?$basic_string@DU?$char_traits@D@std@@V?$allocator@D@2@@std@@SAXXZ ; std::basic_string<char,std::char_traits<char>,std::allocator<char> >::_Xlen
PUBLIC	?_Check_offset@?$basic_string@DU?$char_traits@D@std@@V?$allocator@D@2@@std@@QBEXI@Z ; std::basic_string<char,std::char_traits<char>,std::allocator<char> >::_Check_offset
PUBLIC	?_Xran@?$basic_string@DU?$char_traits@D@std@@V?$allocator@D@2@@std@@SAXXZ ; std::basic_string<char,std::char_traits<char>,std::allocator<char> >::_Xran
PUBLIC	??0?$allocator@_W@std@@QAE@XZ			; std::allocator<wchar_t>::allocator<wchar_t>
PUBLIC	?deallocate@?$allocator@_W@std@@QAEXPA_WI@Z	; std::allocator<wchar_t>::deallocate
PUBLIC	?allocate@?$allocator@_W@std@@QAEPA_WI@Z	; std::allocator<wchar_t>::allocate
PUBLIC	?max_size@?$allocator@_W@std@@QBEIXZ		; std::allocator<wchar_t>::max_size
PUBLIC	?max_size@?$allocator_traits@V?$allocator@_W@std@@@std@@SAIABV?$allocator@_W@2@@Z ; std::allocator_traits<std::allocator<wchar_t> >::max_size
PUBLIC	??0?$_Wrap_alloc@V?$allocator@_W@std@@@std@@QAE@XZ ; std::_Wrap_alloc<std::allocator<wchar_t> >::_Wrap_alloc<std::allocator<wchar_t> >
PUBLIC	?allocate@?$_Wrap_alloc@V?$allocator@_W@std@@@std@@QAEPA_WI@Z ; std::_Wrap_alloc<std::allocator<wchar_t> >::allocate
PUBLIC	?deallocate@?$_Wrap_alloc@V?$allocator@_W@std@@@std@@QAEXPA_WI@Z ; std::_Wrap_alloc<std::allocator<wchar_t> >::deallocate
PUBLIC	?max_size@?$_Wrap_alloc@V?$allocator@_W@std@@@std@@QBEIU_Nil@2@@Z ; std::_Wrap_alloc<std::allocator<wchar_t> >::max_size
PUBLIC	??0?$_String_val@U?$_Simple_types@_W@std@@@std@@QAE@XZ ; std::_String_val<std::_Simple_types<wchar_t> >::_String_val<std::_Simple_types<wchar_t> >
PUBLIC	?_Myptr@?$_String_val@U?$_Simple_types@_W@std@@@std@@QAEPA_WXZ ; std::_String_val<std::_Simple_types<wchar_t> >::_Myptr
PUBLIC	?_Myptr@?$_String_val@U?$_Simple_types@_W@std@@@std@@QBEPB_WXZ ; std::_String_val<std::_Simple_types<wchar_t> >::_Myptr
PUBLIC	?_Large_string_engaged@?$_String_val@U?$_Simple_types@_W@std@@@std@@QBE_NXZ ; std::_String_val<std::_Simple_types<wchar_t> >::_Large_string_engaged
PUBLIC	??0_Bxty@?$_String_val@U?$_Simple_types@_W@std@@@std@@QAE@XZ ; std::_String_val<std::_Simple_types<wchar_t> >::_Bxty::_Bxty
PUBLIC	??1_Bxty@?$_String_val@U?$_Simple_types@_W@std@@@std@@QAE@XZ ; std::_String_val<std::_Simple_types<wchar_t> >::_Bxty::~_Bxty
PUBLIC	??1?$_String_val@U?$_Simple_types@_W@std@@@std@@QAE@XZ ; std::_String_val<std::_Simple_types<wchar_t> >::~_String_val<std::_Simple_types<wchar_t> >
PUBLIC	?_Myptr@?$_String_alloc@U?$_String_base_types@_WV?$allocator@_W@std@@@std@@@std@@QAEPA_WXZ ; std::_String_alloc<std::_String_base_types<wchar_t,std::allocator<wchar_t> > >::_Myptr
PUBLIC	?_Myptr@?$_String_alloc@U?$_String_base_types@_WV?$allocator@_W@std@@@std@@@std@@QBEPB_WXZ ; std::_String_alloc<std::_String_base_types<wchar_t,std::allocator<wchar_t> > >::_Myptr
PUBLIC	??0?$_String_alloc@U?$_String_base_types@_WV?$allocator@_W@std@@@std@@@std@@QAE@XZ ; std::_String_alloc<std::_String_base_types<wchar_t,std::allocator<wchar_t> > >::_String_alloc<std::_String_base_types<wchar_t,std::allocator<wchar_t> > >
PUBLIC	?_Orphan_all@?$_String_alloc@U?$_String_base_types@_WV?$allocator@_W@std@@@std@@@std@@QAEXXZ ; std::_String_alloc<std::_String_base_types<wchar_t,std::allocator<wchar_t> > >::_Orphan_all
PUBLIC	?_Getal@?$_String_alloc@U?$_String_base_types@_WV?$allocator@_W@std@@@std@@@std@@QAEAAU?$_Wrap_alloc@V?$allocator@_W@std@@@2@XZ ; std::_String_alloc<std::_String_base_types<wchar_t,std::allocator<wchar_t> > >::_Getal
PUBLIC	?_Getal@?$_String_alloc@U?$_String_base_types@_WV?$allocator@_W@std@@@std@@@std@@QBEABU?$_Wrap_alloc@V?$allocator@_W@std@@@2@XZ ; std::_String_alloc<std::_String_base_types<wchar_t,std::allocator<wchar_t> > >::_Getal
PUBLIC	?_Get_data@?$_String_alloc@U?$_String_base_types@_WV?$allocator@_W@std@@@std@@@std@@QAEAAV?$_String_val@U?$_Simple_types@_W@std@@@2@XZ ; std::_String_alloc<std::_String_base_types<wchar_t,std::allocator<wchar_t> > >::_Get_data
PUBLIC	?_Get_data@?$_String_alloc@U?$_String_base_types@_WV?$allocator@_W@std@@@std@@@std@@QBEABV?$_String_val@U?$_Simple_types@_W@std@@@2@XZ ; std::_String_alloc<std::_String_base_types<wchar_t,std::allocator<wchar_t> > >::_Get_data
PUBLIC	?_Mysize@?$_String_alloc@U?$_String_base_types@_WV?$allocator@_W@std@@@std@@@std@@QAEAAIXZ ; std::_String_alloc<std::_String_base_types<wchar_t,std::allocator<wchar_t> > >::_Mysize
PUBLIC	?_Mysize@?$_String_alloc@U?$_String_base_types@_WV?$allocator@_W@std@@@std@@@std@@QBEABIXZ ; std::_String_alloc<std::_String_base_types<wchar_t,std::allocator<wchar_t> > >::_Mysize
PUBLIC	?_Myres@?$_String_alloc@U?$_String_base_types@_WV?$allocator@_W@std@@@std@@@std@@QAEAAIXZ ; std::_String_alloc<std::_String_base_types<wchar_t,std::allocator<wchar_t> > >::_Myres
PUBLIC	?_Get_first@?$_Compressed_pair@U?$_Wrap_alloc@V?$allocator@_W@std@@@std@@V?$_String_val@U?$_Simple_types@_W@std@@@2@$00@std@@QAEAAU?$_Wrap_alloc@V?$allocator@_W@std@@@2@XZ ; std::_Compressed_pair<std::_Wrap_alloc<std::allocator<wchar_t> >,std::_String_val<std::_Simple_types<wchar_t> >,1>::_Get_first
PUBLIC	?_Get_first@?$_Compressed_pair@U?$_Wrap_alloc@V?$allocator@_W@std@@@std@@V?$_String_val@U?$_Simple_types@_W@std@@@2@$00@std@@QBEABU?$_Wrap_alloc@V?$allocator@_W@std@@@2@XZ ; std::_Compressed_pair<std::_Wrap_alloc<std::allocator<wchar_t> >,std::_String_val<std::_Simple_types<wchar_t> >,1>::_Get_first
PUBLIC	?_Get_second@?$_Compressed_pair@U?$_Wrap_alloc@V?$allocator@_W@std@@@std@@V?$_String_val@U?$_Simple_types@_W@std@@@2@$00@std@@QAEAAV?$_String_val@U?$_Simple_types@_W@std@@@2@XZ ; std::_Compressed_pair<std::_Wrap_alloc<std::allocator<wchar_t> >,std::_String_val<std::_Simple_types<wchar_t> >,1>::_Get_second
PUBLIC	?_Get_second@?$_Compressed_pair@U?$_Wrap_alloc@V?$allocator@_W@std@@@std@@V?$_String_val@U?$_Simple_types@_W@std@@@2@$00@std@@QBEABV?$_String_val@U?$_Simple_types@_W@std@@@2@XZ ; std::_Compressed_pair<std::_Wrap_alloc<std::allocator<wchar_t> >,std::_String_val<std::_Simple_types<wchar_t> >,1>::_Get_second
PUBLIC	??1?$_Compressed_pair@U?$_Wrap_alloc@V?$allocator@_W@std@@@std@@V?$_String_val@U?$_Simple_types@_W@std@@@2@$00@std@@QAE@XZ ; std::_Compressed_pair<std::_Wrap_alloc<std::allocator<wchar_t> >,std::_String_val<std::_Simple_types<wchar_t> >,1>::~_Compressed_pair<std::_Wrap_alloc<std::allocator<wchar_t> >,std::_String_val<std::_Simple_types<wchar_t> >,1>
PUBLIC	??1?$_String_alloc@U?$_String_base_types@_WV?$allocator@_W@std@@@std@@@std@@QAE@XZ ; std::_String_alloc<std::_String_base_types<wchar_t,std::allocator<wchar_t> > >::~_String_alloc<std::_String_base_types<wchar_t,std::allocator<wchar_t> > >
PUBLIC	??0?$basic_string@_WU?$char_traits@_W@std@@V?$allocator@_W@2@@std@@QAE@QB_W@Z ; std::basic_string<wchar_t,std::char_traits<wchar_t>,std::allocator<wchar_t> >::basic_string<wchar_t,std::char_traits<wchar_t>,std::allocator<wchar_t> >
PUBLIC	??1?$basic_string@_WU?$char_traits@_W@std@@V?$allocator@_W@2@@std@@QAE@XZ ; std::basic_string<wchar_t,std::char_traits<wchar_t>,std::allocator<wchar_t> >::~basic_string<wchar_t,std::char_traits<wchar_t>,std::allocator<wchar_t> >
PUBLIC	?assign@?$basic_string@_WU?$char_traits@_W@std@@V?$allocator@_W@2@@std@@QAEAAV12@ABV12@II@Z ; std::basic_string<wchar_t,std::char_traits<wchar_t>,std::allocator<wchar_t> >::assign
PUBLIC	?assign@?$basic_string@_WU?$char_traits@_W@std@@V?$allocator@_W@2@@std@@QAEAAV12@QB_WI@Z ; std::basic_string<wchar_t,std::char_traits<wchar_t>,std::allocator<wchar_t> >::assign
PUBLIC	?assign@?$basic_string@_WU?$char_traits@_W@std@@V?$allocator@_W@2@@std@@QAEAAV12@QB_W@Z ; std::basic_string<wchar_t,std::char_traits<wchar_t>,std::allocator<wchar_t> >::assign
PUBLIC	?erase@?$basic_string@_WU?$char_traits@_W@std@@V?$allocator@_W@2@@std@@QAEAAV12@I@Z ; std::basic_string<wchar_t,std::char_traits<wchar_t>,std::allocator<wchar_t> >::erase
PUBLIC	?erase@?$basic_string@_WU?$char_traits@_W@std@@V?$allocator@_W@2@@std@@QAEAAV12@II@Z ; std::basic_string<wchar_t,std::char_traits<wchar_t>,std::allocator<wchar_t> >::erase
PUBLIC	?c_str@?$basic_string@_WU?$char_traits@_W@std@@V?$allocator@_W@2@@std@@QBEPB_WXZ ; std::basic_string<wchar_t,std::char_traits<wchar_t>,std::allocator<wchar_t> >::c_str
PUBLIC	?max_size@?$basic_string@_WU?$char_traits@_W@std@@V?$allocator@_W@2@@std@@QBEIXZ ; std::basic_string<wchar_t,std::char_traits<wchar_t>,std::allocator<wchar_t> >::max_size
PUBLIC	?_Clamp_suffix_size@?$basic_string@_WU?$char_traits@_W@std@@V?$allocator@_W@2@@std@@QBEIII@Z ; std::basic_string<wchar_t,std::char_traits<wchar_t>,std::allocator<wchar_t> >::_Clamp_suffix_size
PUBLIC	?_Copy@?$basic_string@_WU?$char_traits@_W@std@@V?$allocator@_W@2@@std@@QAEXI@Z ; std::basic_string<wchar_t,std::char_traits<wchar_t>,std::allocator<wchar_t> >::_Copy
PUBLIC	?_Eos@?$basic_string@_WU?$char_traits@_W@std@@V?$allocator@_W@2@@std@@QAEXI@Z ; std::basic_string<wchar_t,std::char_traits<wchar_t>,std::allocator<wchar_t> >::_Eos
PUBLIC	?_Grow@?$basic_string@_WU?$char_traits@_W@std@@V?$allocator@_W@2@@std@@QAE_NI@Z ; std::basic_string<wchar_t,std::char_traits<wchar_t>,std::allocator<wchar_t> >::_Grow
PUBLIC	?_Inside@?$basic_string@_WU?$char_traits@_W@std@@V?$allocator@_W@2@@std@@QBE_NQB_W@Z ; std::basic_string<wchar_t,std::char_traits<wchar_t>,std::allocator<wchar_t> >::_Inside
PUBLIC	?_Tidy_init@?$basic_string@_WU?$char_traits@_W@std@@V?$allocator@_W@2@@std@@QAEXXZ ; std::basic_string<wchar_t,std::char_traits<wchar_t>,std::allocator<wchar_t> >::_Tidy_init
PUBLIC	?_Tidy_deallocate@?$basic_string@_WU?$char_traits@_W@std@@V?$allocator@_W@2@@std@@QAEXXZ ; std::basic_string<wchar_t,std::char_traits<wchar_t>,std::allocator<wchar_t> >::_Tidy_deallocate
PUBLIC	?_Xlen@?$basic_string@_WU?$char_traits@_W@std@@V?$allocator@_W@2@@std@@SAXXZ ; std::basic_string<wchar_t,std::char_traits<wchar_t>,std::allocator<wchar_t> >::_Xlen
PUBLIC	?_Check_offset@?$basic_string@_WU?$char_traits@_W@std@@V?$allocator@_W@2@@std@@QBEXI@Z ; std::basic_string<wchar_t,std::char_traits<wchar_t>,std::allocator<wchar_t> >::_Check_offset
PUBLIC	?_Xran@?$basic_string@_WU?$char_traits@_W@std@@V?$allocator@_W@2@@std@@SAXXZ ; std::basic_string<wchar_t,std::char_traits<wchar_t>,std::allocator<wchar_t> >::_Xran
PUBLIC	?SK_Inject_ValidateProcesses@@YAXXZ		; SK_Inject_ValidateProcesses
PUBLIC	?SK_Inject_InvadingProcess@@YA_NK@Z		; SK_Inject_InvadingProcess
PUBLIC	?ShellProc@@YGJHIJ@Z				; ShellProc
PUBLIC	?SK_TerminatePID@@YAHKI@Z			; SK_TerminatePID
PUBLIC	?SKX_InstallShellHook@@YGXXZ			; SKX_InstallShellHook
PUBLIC	?SKX_RemoveShellHook@@YGXXZ			; SKX_RemoveShellHook
PUBLIC	?SKX_IsHookingShell@@YG_NXZ			; SKX_IsHookingShell
PUBLIC	?RunDLL_InjectionManager@@YGXPAUHWND__@@PAUHINSTANCE__@@PADH@Z ; RunDLL_InjectionManager
PUBLIC	?SK_ExitRemoteProcess@@YA_NPB_WI@Z		; SK_ExitRemoteProcess
PUBLIC	?SK_Inject_Stop@@YAXXZ				; SK_Inject_Stop
PUBLIC	?SK_Inject_Start@@YAXXZ				; SK_Inject_Start
PUBLIC	??$move@AAU?$_Wrap_alloc@V?$allocator@D@std@@@std@@@std@@YA$$QAU?$_Wrap_alloc@V?$allocator@D@std@@@0@AAU10@@Z ; std::move<std::_Wrap_alloc<std::allocator<char> > &>
PUBLIC	??$?0U?$_Wrap_alloc@V?$allocator@D@std@@@std@@X@?$_String_alloc@U?$_String_base_types@DV?$allocator@D@std@@@std@@@std@@QAE@$$QAU?$_Wrap_alloc@V?$allocator@D@std@@@1@@Z ; std::_String_alloc<std::_String_base_types<char,std::allocator<char> > >::_String_alloc<std::_String_base_types<char,std::allocator<char> > ><std::_Wrap_alloc<std::allocator<char> >,void>
PUBLIC	??$?0$$V@?$_Compressed_pair@U?$_Wrap_alloc@V?$allocator@_W@std@@@std@@V?$_String_val@U?$_Simple_types@_W@std@@@2@$00@std@@QAE@U_Zero_then_variadic_args_t@1@@Z ; std::_Compressed_pair<std::_Wrap_alloc<std::allocator<wchar_t> >,std::_String_val<std::_Simple_types<wchar_t> >,1>::_Compressed_pair<std::_Wrap_alloc<std::allocator<wchar_t> >,std::_String_val<std::_Simple_types<wchar_t> >,1><>
PUBLIC	??$?0V?$allocator@D@std@@@?$_Wrap_alloc@V?$allocator@D@std@@@std@@QAE@$$QAV?$allocator@D@1@@Z ; std::_Wrap_alloc<std::allocator<char> >::_Wrap_alloc<std::allocator<char> ><std::allocator<char> >
PUBLIC	??$addressof@PA_W@std@@YAPAPA_WAAPA_W@Z		; std::addressof<wchar_t *>
PUBLIC	??$destroy@PA_W@?$_Wrap_alloc@V?$allocator@_W@std@@@std@@QAEXPAPA_W@Z ; std::_Wrap_alloc<std::allocator<wchar_t> >::destroy<wchar_t *>
PUBLIC	??$addressof@PAD@std@@YAPAPADAAPAD@Z		; std::addressof<char *>
PUBLIC	??$destroy@PAD@?$_Wrap_alloc@V?$allocator@D@std@@@std@@QAEXPAPAD@Z ; std::_Wrap_alloc<std::allocator<char> >::destroy<char *>
PUBLIC	??$_Unfancy@_W@std@@YAPA_WPA_W@Z		; std::_Unfancy<wchar_t>
PUBLIC	??$_Unfancy@D@std@@YAPADPAD@Z			; std::_Unfancy<char>
PUBLIC	??$addressof@$$CBV?$basic_string@_WU?$char_traits@_W@std@@V?$allocator@_W@2@@std@@@std@@YAPBV?$basic_string@_WU?$char_traits@_W@std@@V?$allocator@_W@2@@0@ABV10@@Z ; std::addressof<std::basic_string<wchar_t,std::char_traits<wchar_t>,std::allocator<wchar_t> > const >
PUBLIC	??$_Min_value@I@std@@YAABIABI0@Z		; std::_Min_value<unsigned int>
PUBLIC	??$addressof@$$CBV?$basic_string@DU?$char_traits@D@std@@V?$allocator@D@2@@std@@@std@@YAPBV?$basic_string@DU?$char_traits@D@std@@V?$allocator@D@2@@0@ABV10@@Z ; std::addressof<std::basic_string<char,std::char_traits<char>,std::allocator<char> > const >
PUBLIC	??$construct@PA_WAAPA_W@?$_Wrap_alloc@V?$allocator@_W@std@@@std@@QAEXPAPA_WAAPA_W@Z ; std::_Wrap_alloc<std::allocator<wchar_t> >::construct<wchar_t *,wchar_t * &>
PUBLIC	??$construct@PADAAPAD@?$_Wrap_alloc@V?$allocator@D@std@@@std@@QAEXPAPADAAPAD@Z ; std::_Wrap_alloc<std::allocator<char> >::construct<char *,char * &>
PUBLIC	??$forward@U?$_Wrap_alloc@V?$allocator@D@std@@@std@@@std@@YA$$QAU?$_Wrap_alloc@V?$allocator@D@std@@@0@AAU10@@Z ; std::forward<std::_Wrap_alloc<std::allocator<char> > >
PUBLIC	??$?0U?$_Wrap_alloc@V?$allocator@D@std@@@std@@$$V@?$_Compressed_pair@U?$_Wrap_alloc@V?$allocator@D@std@@@std@@V?$_String_val@U?$_Simple_types@D@std@@@2@$00@std@@QAE@U_One_then_variadic_args_t@1@$$QAU?$_Wrap_alloc@V?$allocator@D@std@@@1@@Z ; std::_Compressed_pair<std::_Wrap_alloc<std::allocator<char> >,std::_String_val<std::_Simple_types<char> >,1>::_Compressed_pair<std::_Wrap_alloc<std::allocator<char> >,std::_String_val<std::_Simple_types<char> >,1><std::_Wrap_alloc<std::allocator<char> > >
PUBLIC	??$forward@V?$allocator@D@std@@@std@@YA$$QAV?$allocator@D@0@AAV10@@Z ; std::forward<std::allocator<char> >
PUBLIC	??$destroy@PA_W@?$allocator_traits@V?$allocator@_W@std@@@std@@SAXAAV?$allocator@_W@1@PAPA_W@Z ; std::allocator_traits<std::allocator<wchar_t> >::destroy<wchar_t *>
PUBLIC	??$destroy@PAD@?$allocator_traits@V?$allocator@D@std@@@std@@SAXAAV?$allocator@D@1@PAPAD@Z ; std::allocator_traits<std::allocator<char> >::destroy<char *>
PUBLIC	??$forward@AAPA_W@std@@YAAAPA_WAAPA_W@Z		; std::forward<wchar_t * &>
PUBLIC	??$construct@PA_WAAPA_W@?$allocator_traits@V?$allocator@_W@std@@@std@@SAXAAV?$allocator@_W@1@PAPA_WAAPA_W@Z ; std::allocator_traits<std::allocator<wchar_t> >::construct<wchar_t *,wchar_t * &>
PUBLIC	??$forward@AAPAD@std@@YAAAPADAAPAD@Z		; std::forward<char * &>
PUBLIC	??$construct@PADAAPAD@?$allocator_traits@V?$allocator@D@std@@@std@@SAXAAV?$allocator@D@1@PAPADAAPAD@Z ; std::allocator_traits<std::allocator<char> >::construct<char *,char * &>
PUBLIC	??$destroy@PA_W@?$allocator@_W@std@@QAEXPAPA_W@Z ; std::allocator<wchar_t>::destroy<wchar_t *>
PUBLIC	??$destroy@PAD@?$allocator@D@std@@QAEXPAPAD@Z	; std::allocator<char>::destroy<char *>
PUBLIC	??$construct@PA_WAAPA_W@?$allocator@_W@std@@QAEXPAPA_WAAPA_W@Z ; std::allocator<wchar_t>::construct<wchar_t *,wchar_t * &>
PUBLIC	??$construct@PADAAPAD@?$allocator@D@std@@QAEXPAPADAAPAD@Z ; std::allocator<char>::construct<char *,char * &>
PUBLIC	??_C@_0BA@JFNIOLAK@string?5too?5long?$AA@	; `string'
PUBLIC	??_C@_0BI@CFPLBAOH@invalid?5string?5position?$AA@ ; `string'
EXTRN	??2@YAPAXI@Z:PROC				; operator new
EXTRN	??3@YAXPAX@Z:PROC				; operator delete
EXTRN	__imp___invalid_parameter_noinfo_noreturn:PROC
EXTRN	__imp__memmove:PROC
EXTRN	__imp__wcsncpy:PROC
EXTRN	__imp__SetCurrentDirectoryW@4:PROC
EXTRN	__imp__GetCurrentDirectoryW@8:PROC
EXTRN	__imp__CreateDirectoryA@8:PROC
EXTRN	__imp__DeleteFileA@4:PROC
EXTRN	__imp__DeleteFileW@4:PROC
EXTRN	__imp__GetFileAttributesA@4:PROC
EXTRN	__imp__GetFileAttributesW@4:PROC
EXTRN	__imp__GetTempFileNameW@16:PROC
EXTRN	__imp__CloseHandle@4:PROC
EXTRN	__imp__SetEvent@4:PROC
EXTRN	__imp__WaitForSingleObject@8:PROC
EXTRN	__imp__SleepEx@8:PROC
EXTRN	__imp__CreateEventW@16:PROC
EXTRN	__imp__GetCurrentProcessId@0:PROC
EXTRN	__imp__ExitProcess@4:PROC
EXTRN	__imp__TerminateProcess@8:PROC
EXTRN	__imp__GetExitCodeProcess@8:PROC
EXTRN	__imp__CreateThread@24:PROC
EXTRN	__imp__GetCurrentThread@0:PROC
EXTRN	__imp__OpenProcess@12:PROC
EXTRN	__imp__GetSystemDirectoryW@8:PROC
EXTRN	__imp__GetModuleHandleW@4:PROC
EXTRN	__imp__GetModuleHandleExW@12:PROC
EXTRN	__imp__lstrcatW@8:PROC
EXTRN	__imp__LoadLibraryW@4:PROC
EXTRN	__imp__GetSystemWow64DirectoryW@8:PROC
EXTRN	__imp__CopyFileW@12:PROC
EXTRN	__imp__MoveFileW@8:PROC
EXTRN	__imp__ReplaceFileW@24:PROC
EXTRN	__imp__SendMessageW@16:PROC
EXTRN	__imp__FindWindowW@8:PROC
EXTRN	__imp__SetWindowsHookExW@16:PROC
EXTRN	__imp__UnhookWindowsHookEx@4:PROC
EXTRN	__imp__CallNextHookEx@16:PROC
EXTRN	__imp__timeGetTime@0:PROC
EXTRN	__imp__ShellExecuteA@24:PROC
EXTRN	?SK_FindRootWindow@@YA?AUwindow_t@@K@Z:PROC	; SK_FindRootWindow
EXTRN	__imp__fputws:PROC
EXTRN	__imp___wfopen:PROC
EXTRN	__imp__fclose:PROC
EXTRN	__imp__fopen:PROC
EXTRN	_fprintf:PROC
EXTRN	_fscanf:PROC
EXTRN	__imp_?_Xbad_alloc@std@@YAXXZ:PROC
EXTRN	__imp_?_Xlength_error@std@@YAXPBD@Z:PROC
EXTRN	__imp_?_Xout_of_range@std@@YAXPBD@Z:PROC
EXTRN	?SK_GetConfigPath@@YGPB_WXZ:PROC		; SK_GetConfigPath
EXTRN	?SK_GetDLL@@YGPAUHINSTANCE__@@XZ:PROC		; SK_GetDLL
EXTRN	?SK_IsHostAppSKIM@@YA_NXZ:PROC			; SK_IsHostAppSKIM
EXTRN	?SK_IsInjected@@YG_N_N@Z:PROC			; SK_IsInjected
EXTRN	?SK_GetFramesDrawn@@YGKXZ:PROC			; SK_GetFramesDrawn
EXTRN	?SK_GetCurrentRenderBackend@@YGAAVSK_RenderBackend_V2@@XZ:PROC ; SK_GetCurrentRenderBackend
EXTRN	?SK_SaveConfig@@YAXV?$basic_string@_WU?$char_traits@_W@std@@V?$allocator@_W@2@@std@@_N@Z:PROC ; SK_SaveConfig
EXTRN	__imp___time64:PROC
EXTRN	?SK_GetHostPath@@YAPB_WXZ:PROC			; SK_GetHostPath
EXTRN	?SK_WideCharToUTF8@@YA?AV?$basic_string@DU?$char_traits@D@std@@V?$allocator@D@2@@std@@V?$basic_string@_WU?$char_traits@_W@std@@V?$allocator@_W@2@@2@@Z:PROC ; SK_WideCharToUTF8
EXTRN	?SK_UTF8ToWideChar@@YA?AV?$basic_string@_WU?$char_traits@_W@std@@V?$allocator@_W@2@@std@@V?$basic_string@DU?$char_traits@D@std@@V?$allocator@D@2@@2@@Z:PROC ; SK_UTF8ToWideChar
EXTRN	?SK_FormatString@@YA?AV?$basic_string@DU?$char_traits@D@std@@V?$allocator@D@2@@std@@QBDZZ:PROC ; SK_FormatString
EXTRN	?SK_SYS_GetInstallPath@@YA?AV?$basic_string@_WU?$char_traits@_W@std@@V?$allocator@_W@2@@std@@XZ:PROC ; SK_SYS_GetInstallPath
EXTRN	?SK_GetModuleFullName@@YA?AV?$basic_string@_WU?$char_traits@_W@std@@V?$allocator@_W@2@@std@@PAUHINSTANCE__@@@Z:PROC ; SK_GetModuleFullName
EXTRN	__imp__StrStrA@8:PROC
EXTRN	__imp__StrStrIW@8:PROC
EXTRN	__imp__PathAppendW@8:PROC
EXTRN	__imp__PathRemoveFileSpecW@4:PROC
EXTRN	__imp__PathStripPathW@4:PROC
EXTRN	?SK_EstablishRootPath@@YGXXZ:PROC		; SK_EstablishRootPath
EXTRN	_CreateToolhelp32Snapshot@8:PROC
EXTRN	_Process32FirstW@8:PROC
EXTRN	_Process32NextW@8:PROC
EXTRN	___CxxFrameHandler3:PROC
EXTRN	_memcpy:PROC
EXTRN	_memset:PROC
EXTRN	?config@@3Usk_config_t@@A:BYTE			; config
EXTRN	?__SK_DLL_Attached@@3JC:DWORD			; __SK_DLL_Attached
EXTRN	?__SK_HookContextOwner@@3JC:DWORD		; __SK_HookContextOwner
_BSS	SEGMENT
?__SK_InjectionHistory@@3PAUSK_InjectionRecord_s@@A DB 08e00H DUP (?) ; __SK_InjectionHistory
_BSS	ENDS
;	COMDAT ?lHookIters@?6??CBTProc@@YGJHIJ@Z@4JC
_BSS	SEGMENT
?lHookIters@?6??CBTProc@@YGJHIJ@Z@4JC DD 01H DUP (?)	; `CBTProc'::`7'::lHookIters
_BSS	ENDS
;	COMDAT ?lHookIters@?6??ShellProc@@YGJHIJ@Z@4JC
_BSS	SEGMENT
?lHookIters@?6??ShellProc@@YGJHIJ@Z@4JC DD 01H DUP (?)	; `ShellProc'::`7'::lHookIters
_BSS	ENDS
CRT$XCU	SEGMENT
?__SK_InjectionHistory$initializer$@@3P6AXXZA DD FLAT:??__E__SK_InjectionHistory@@YAXXZ ; __SK_InjectionHistory$initializer$
CRT$XCU	ENDS
;	COMDAT ??_C@_0BI@CFPLBAOH@invalid?5string?5position?$AA@
CONST	SEGMENT
??_C@_0BI@CFPLBAOH@invalid?5string?5position?$AA@ DB 'invalid string posi'
	DB	'tion', 00H					; `string'
CONST	ENDS
;	COMDAT ??_C@_0BA@JFNIOLAK@string?5too?5long?$AA@
CONST	SEGMENT
??_C@_0BA@JFNIOLAK@string?5too?5long?$AA@ DB 'string too long', 00H ; `string'
CONST	ENDS
;	COMDAT xdata$x
xdata$x	SEGMENT
__catchsym$?_Copy@?$basic_string@_WU?$char_traits@_W@std@@V?$allocator@_W@2@@std@@QAEXI@Z$18 DD 040H
	DD	00H
	DD	00H
	DD	FLAT:__catch$?_Copy@?$basic_string@_WU?$char_traits@_W@std@@V?$allocator@_W@2@@std@@QAEXI@Z$0
__unwindtable$?_Copy@?$basic_string@_WU?$char_traits@_W@std@@V?$allocator@_W@2@@std@@QAEXI@Z DD 0ffffffffH
	DD	00H
	DD	0ffffffffH
	DD	00H
__tryblocktable$?_Copy@?$basic_string@_WU?$char_traits@_W@std@@V?$allocator@_W@2@@std@@QAEXI@Z DD 00H
	DD	00H
	DD	01H
	DD	01H
	DD	FLAT:__catchsym$?_Copy@?$basic_string@_WU?$char_traits@_W@std@@V?$allocator@_W@2@@std@@QAEXI@Z$18
__ehfuncinfo$?_Copy@?$basic_string@_WU?$char_traits@_W@std@@V?$allocator@_W@2@@std@@QAEXI@Z DD 019930522H
	DD	02H
	DD	FLAT:__unwindtable$?_Copy@?$basic_string@_WU?$char_traits@_W@std@@V?$allocator@_W@2@@std@@QAEXI@Z
	DD	01H
	DD	FLAT:__tryblocktable$?_Copy@?$basic_string@_WU?$char_traits@_W@std@@V?$allocator@_W@2@@std@@QAEXI@Z
	DD	2 DUP(00H)
	DD	00H
	DD	01H
xdata$x	ENDS
;	COMDAT xdata$x
xdata$x	SEGMENT
__catchsym$?_Copy@?$basic_string@DU?$char_traits@D@std@@V?$allocator@D@2@@std@@QAEXI@Z$18 DD 040H
	DD	00H
	DD	00H
	DD	FLAT:__catch$?_Copy@?$basic_string@DU?$char_traits@D@std@@V?$allocator@D@2@@std@@QAEXI@Z$0
__unwindtable$?_Copy@?$basic_string@DU?$char_traits@D@std@@V?$allocator@D@2@@std@@QAEXI@Z DD 0ffffffffH
	DD	00H
	DD	0ffffffffH
	DD	00H
__tryblocktable$?_Copy@?$basic_string@DU?$char_traits@D@std@@V?$allocator@D@2@@std@@QAEXI@Z DD 00H
	DD	00H
	DD	01H
	DD	01H
	DD	FLAT:__catchsym$?_Copy@?$basic_string@DU?$char_traits@D@std@@V?$allocator@D@2@@std@@QAEXI@Z$18
__ehfuncinfo$?_Copy@?$basic_string@DU?$char_traits@D@std@@V?$allocator@D@2@@std@@QAEXI@Z DD 019930522H
	DD	02H
	DD	FLAT:__unwindtable$?_Copy@?$basic_string@DU?$char_traits@D@std@@V?$allocator@D@2@@std@@QAEXI@Z
	DD	01H
	DD	FLAT:__tryblocktable$?_Copy@?$basic_string@DU?$char_traits@D@std@@V?$allocator@D@2@@std@@QAEXI@Z
	DD	2 DUP(00H)
	DD	00H
	DD	01H
xdata$x	ENDS
xdata$x	SEGMENT
__unwindtable$?SK_Inject_SwitchToRenderWrapperEx@@YA_NW4DLL_ROLE@@@Z DD 0ffffffffH
	DD	FLAT:__unwindfunclet$?SK_Inject_SwitchToRenderWrapperEx@@YA_NW4DLL_ROLE@@@Z$6
__unwindtable$?SK_Inject_SwitchToRenderWrapper@@YA_NXZ DD 0ffffffffH
	DD	FLAT:__unwindfunclet$?SK_Inject_SwitchToRenderWrapper@@YA_NXZ$6
__ehfuncinfo$?SK_Inject_SwitchToRenderWrapperEx@@YA_NW4DLL_ROLE@@@Z DD 019930522H
	DD	01H
	DD	FLAT:__unwindtable$?SK_Inject_SwitchToRenderWrapperEx@@YA_NW4DLL_ROLE@@@Z
	DD	2 DUP(00H)
	DD	2 DUP(00H)
	DD	00H
	DD	01H
__ehfuncinfo$?SK_Inject_SwitchToRenderWrapper@@YA_NXZ DD 019930522H
	DD	01H
	DD	FLAT:__unwindtable$?SK_Inject_SwitchToRenderWrapper@@YA_NXZ
	DD	2 DUP(00H)
	DD	2 DUP(00H)
	DD	00H
	DD	01H
xdata$x	ENDS
; Function compile flags: /Ogtp
; File c:\program files (x86)\microsoft visual studio\2017\community\vc\tools\msvc\14.10.25017\include\xmemory0
;	COMDAT ??$construct@PADAAPAD@?$allocator@D@std@@QAEXPAPADAAPAD@Z
_TEXT	SEGMENT
__Ptr$ = 8						; size = 4
_<_Args_0>$ = 12					; size = 4
??$construct@PADAAPAD@?$allocator@D@std@@QAEXPAPADAAPAD@Z PROC ; std::allocator<char>::construct<char *,char * &>, COMDAT
; _this$ = ecx

; 839  : 		{	// construct _Objty(_Types...) at _Ptr

	npad	2
	push	ebp
	mov	ebp, esp

; 840  : 		::new ((void *)_Ptr) _Objty(_STD forward<_Types>(_Args)...);

	mov	ecx, DWORD PTR __Ptr$[ebp]
	test	ecx, ecx
	je	SHORT $LN3@construct
	mov	eax, DWORD PTR _<_Args_0>$[ebp]
	mov	eax, DWORD PTR [eax]
	mov	DWORD PTR [ecx], eax
$LN3@construct:

; 841  : 		}

	pop	ebp
	ret	8
??$construct@PADAAPAD@?$allocator@D@std@@QAEXPAPADAAPAD@Z ENDP ; std::allocator<char>::construct<char *,char * &>
_TEXT	ENDS
; Function compile flags: /Ogtp
; File c:\program files (x86)\microsoft visual studio\2017\community\vc\tools\msvc\14.10.25017\include\xmemory0
;	COMDAT ??$construct@PA_WAAPA_W@?$allocator@_W@std@@QAEXPAPA_WAAPA_W@Z
_TEXT	SEGMENT
__Ptr$ = 8						; size = 4
_<_Args_0>$ = 12					; size = 4
??$construct@PA_WAAPA_W@?$allocator@_W@std@@QAEXPAPA_WAAPA_W@Z PROC ; std::allocator<wchar_t>::construct<wchar_t *,wchar_t * &>, COMDAT
; _this$ = ecx

; 839  : 		{	// construct _Objty(_Types...) at _Ptr

	npad	2
	push	ebp
	mov	ebp, esp

; 840  : 		::new ((void *)_Ptr) _Objty(_STD forward<_Types>(_Args)...);

	mov	ecx, DWORD PTR __Ptr$[ebp]
	test	ecx, ecx
	je	SHORT $LN3@construct
	mov	eax, DWORD PTR _<_Args_0>$[ebp]
	mov	eax, DWORD PTR [eax]
	mov	DWORD PTR [ecx], eax
$LN3@construct:

; 841  : 		}

	pop	ebp
	ret	8
??$construct@PA_WAAPA_W@?$allocator@_W@std@@QAEXPAPA_WAAPA_W@Z ENDP ; std::allocator<wchar_t>::construct<wchar_t *,wchar_t * &>
_TEXT	ENDS
; Function compile flags: /Ogtp
; File c:\program files (x86)\microsoft visual studio\2017\community\vc\tools\msvc\14.10.25017\include\xmemory0
;	COMDAT ??$destroy@PAD@?$allocator@D@std@@QAEXPAPAD@Z
_TEXT	SEGMENT
__Ptr$ = 8						; size = 4
??$destroy@PAD@?$allocator@D@std@@QAEXPAPAD@Z PROC	; std::allocator<char>::destroy<char *>, COMDAT
; _this$ = ecx

; 846  : 		_Ptr->~_Uty();
; 847  : 		}

	ret	4
??$destroy@PAD@?$allocator@D@std@@QAEXPAPAD@Z ENDP	; std::allocator<char>::destroy<char *>
_TEXT	ENDS
; Function compile flags: /Ogtp
; File c:\program files (x86)\microsoft visual studio\2017\community\vc\tools\msvc\14.10.25017\include\xmemory0
;	COMDAT ??$destroy@PA_W@?$allocator@_W@std@@QAEXPAPA_W@Z
_TEXT	SEGMENT
__Ptr$ = 8						; size = 4
??$destroy@PA_W@?$allocator@_W@std@@QAEXPAPA_W@Z PROC	; std::allocator<wchar_t>::destroy<wchar_t *>, COMDAT
; _this$ = ecx

; 846  : 		_Ptr->~_Uty();
; 847  : 		}

	ret	4
??$destroy@PA_W@?$allocator@_W@std@@QAEXPAPA_W@Z ENDP	; std::allocator<wchar_t>::destroy<wchar_t *>
_TEXT	ENDS
; Function compile flags: /Ogtp
; File c:\program files (x86)\microsoft visual studio\2017\community\vc\tools\msvc\14.10.25017\include\xmemory0
;	COMDAT ??$construct@PADAAPAD@?$allocator_traits@V?$allocator@D@std@@@std@@SAXAAV?$allocator@D@1@PAPADAAPAD@Z
_TEXT	SEGMENT
__Al$ = 8						; size = 4
__Ptr$ = 12						; size = 4
_<_Args_0>$ = 16					; size = 4
??$construct@PADAAPAD@?$allocator_traits@V?$allocator@D@std@@@std@@SAXAAV?$allocator@D@1@PAPADAAPAD@Z PROC ; std::allocator_traits<std::allocator<char> >::construct<char *,char * &>, COMDAT

; 958  : 		{	// construct _Objty(_Types...) at _Ptr

	npad	2
	push	ebp
	mov	ebp, esp

; 840  : 		::new ((void *)_Ptr) _Objty(_STD forward<_Types>(_Args)...);

	mov	ecx, DWORD PTR __Ptr$[ebp]
	test	ecx, ecx
	je	SHORT $LN8@construct
	mov	eax, DWORD PTR _<_Args_0>$[ebp]
	mov	eax, DWORD PTR [eax]
	mov	DWORD PTR [ecx], eax
$LN8@construct:

; 959  : 		_Al.construct(_Ptr, _STD forward<_Types>(_Args)...);
; 960  : 		}

	pop	ebp
	ret	0
??$construct@PADAAPAD@?$allocator_traits@V?$allocator@D@std@@@std@@SAXAAV?$allocator@D@1@PAPADAAPAD@Z ENDP ; std::allocator_traits<std::allocator<char> >::construct<char *,char * &>
_TEXT	ENDS
; Function compile flags: /Ogtp
; File c:\program files (x86)\microsoft visual studio\2017\community\vc\tools\msvc\14.10.25017\include\type_traits
;	COMDAT ??$forward@AAPAD@std@@YAAAPADAAPAD@Z
_TEXT	SEGMENT
__Arg$ = 8						; size = 4
??$forward@AAPAD@std@@YAAAPADAAPAD@Z PROC		; std::forward<char * &>, COMDAT

; 1334 : 	{	// forward an lvalue as either an lvalue or an rvalue

	npad	2
	push	ebp
	mov	ebp, esp

; 1335 : 	return (static_cast<_Ty&&>(_Arg));

	mov	eax, DWORD PTR __Arg$[ebp]

; 1336 : 	}

	pop	ebp
	ret	0
??$forward@AAPAD@std@@YAAAPADAAPAD@Z ENDP		; std::forward<char * &>
_TEXT	ENDS
; Function compile flags: /Ogtp
; File c:\program files (x86)\microsoft visual studio\2017\community\vc\tools\msvc\14.10.25017\include\xmemory0
;	COMDAT ??$construct@PA_WAAPA_W@?$allocator_traits@V?$allocator@_W@std@@@std@@SAXAAV?$allocator@_W@1@PAPA_WAAPA_W@Z
_TEXT	SEGMENT
__Al$ = 8						; size = 4
__Ptr$ = 12						; size = 4
_<_Args_0>$ = 16					; size = 4
??$construct@PA_WAAPA_W@?$allocator_traits@V?$allocator@_W@std@@@std@@SAXAAV?$allocator@_W@1@PAPA_WAAPA_W@Z PROC ; std::allocator_traits<std::allocator<wchar_t> >::construct<wchar_t *,wchar_t * &>, COMDAT

; 958  : 		{	// construct _Objty(_Types...) at _Ptr

	npad	2
	push	ebp
	mov	ebp, esp

; 840  : 		::new ((void *)_Ptr) _Objty(_STD forward<_Types>(_Args)...);

	mov	ecx, DWORD PTR __Ptr$[ebp]
	test	ecx, ecx
	je	SHORT $LN8@construct
	mov	eax, DWORD PTR _<_Args_0>$[ebp]
	mov	eax, DWORD PTR [eax]
	mov	DWORD PTR [ecx], eax
$LN8@construct:

; 959  : 		_Al.construct(_Ptr, _STD forward<_Types>(_Args)...);
; 960  : 		}

	pop	ebp
	ret	0
??$construct@PA_WAAPA_W@?$allocator_traits@V?$allocator@_W@std@@@std@@SAXAAV?$allocator@_W@1@PAPA_WAAPA_W@Z ENDP ; std::allocator_traits<std::allocator<wchar_t> >::construct<wchar_t *,wchar_t * &>
_TEXT	ENDS
; Function compile flags: /Ogtp
; File c:\program files (x86)\microsoft visual studio\2017\community\vc\tools\msvc\14.10.25017\include\type_traits
;	COMDAT ??$forward@AAPA_W@std@@YAAAPA_WAAPA_W@Z
_TEXT	SEGMENT
__Arg$ = 8						; size = 4
??$forward@AAPA_W@std@@YAAAPA_WAAPA_W@Z PROC		; std::forward<wchar_t * &>, COMDAT

; 1334 : 	{	// forward an lvalue as either an lvalue or an rvalue

	npad	2
	push	ebp
	mov	ebp, esp

; 1335 : 	return (static_cast<_Ty&&>(_Arg));

	mov	eax, DWORD PTR __Arg$[ebp]

; 1336 : 	}

	pop	ebp
	ret	0
??$forward@AAPA_W@std@@YAAAPA_WAAPA_W@Z ENDP		; std::forward<wchar_t * &>
_TEXT	ENDS
; Function compile flags: /Ogtp
; File c:\program files (x86)\microsoft visual studio\2017\community\vc\tools\msvc\14.10.25017\include\xmemory0
;	COMDAT ??$destroy@PAD@?$allocator_traits@V?$allocator@D@std@@@std@@SAXAAV?$allocator@D@1@PAPAD@Z
_TEXT	SEGMENT
__Al$ = 8						; size = 4
__Ptr$ = 12						; size = 4
??$destroy@PAD@?$allocator_traits@V?$allocator@D@std@@@std@@SAXAAV?$allocator@D@1@PAPAD@Z PROC ; std::allocator_traits<std::allocator<char> >::destroy<char *>, COMDAT

; 965  : 		_Al.destroy(_Ptr);
; 966  : 		}

	ret	0
??$destroy@PAD@?$allocator_traits@V?$allocator@D@std@@@std@@SAXAAV?$allocator@D@1@PAPAD@Z ENDP ; std::allocator_traits<std::allocator<char> >::destroy<char *>
_TEXT	ENDS
; Function compile flags: /Ogtp
; File c:\program files (x86)\microsoft visual studio\2017\community\vc\tools\msvc\14.10.25017\include\xmemory0
;	COMDAT ??$destroy@PA_W@?$allocator_traits@V?$allocator@_W@std@@@std@@SAXAAV?$allocator@_W@1@PAPA_W@Z
_TEXT	SEGMENT
__Al$ = 8						; size = 4
__Ptr$ = 12						; size = 4
??$destroy@PA_W@?$allocator_traits@V?$allocator@_W@std@@@std@@SAXAAV?$allocator@_W@1@PAPA_W@Z PROC ; std::allocator_traits<std::allocator<wchar_t> >::destroy<wchar_t *>, COMDAT

; 965  : 		_Al.destroy(_Ptr);
; 966  : 		}

	ret	0
??$destroy@PA_W@?$allocator_traits@V?$allocator@_W@std@@@std@@SAXAAV?$allocator@_W@1@PAPA_W@Z ENDP ; std::allocator_traits<std::allocator<wchar_t> >::destroy<wchar_t *>
_TEXT	ENDS
; Function compile flags: /Ogtp
; File c:\program files (x86)\microsoft visual studio\2017\community\vc\tools\msvc\14.10.25017\include\type_traits
;	COMDAT ??$forward@V?$allocator@D@std@@@std@@YA$$QAV?$allocator@D@0@AAV10@@Z
_TEXT	SEGMENT
__Arg$ = 8						; size = 4
??$forward@V?$allocator@D@std@@@std@@YA$$QAV?$allocator@D@0@AAV10@@Z PROC ; std::forward<std::allocator<char> >, COMDAT

; 1334 : 	{	// forward an lvalue as either an lvalue or an rvalue

	npad	2
	push	ebp
	mov	ebp, esp

; 1335 : 	return (static_cast<_Ty&&>(_Arg));

	mov	eax, DWORD PTR __Arg$[ebp]

; 1336 : 	}

	pop	ebp
	ret	0
??$forward@V?$allocator@D@std@@@std@@YA$$QAV?$allocator@D@0@AAV10@@Z ENDP ; std::forward<std::allocator<char> >
_TEXT	ENDS
; Function compile flags: /Ogtp
; File c:\program files (x86)\microsoft visual studio\2017\community\vc\tools\msvc\14.10.25017\include\xutility
; File c:\program files (x86)\microsoft visual studio\2017\community\vc\tools\msvc\14.10.25017\include\xstring
; File c:\program files (x86)\microsoft visual studio\2017\community\vc\tools\msvc\14.10.25017\include\xutility
; File c:\program files (x86)\microsoft visual studio\2017\community\vc\tools\msvc\14.10.25017\include\xstring
; File c:\program files (x86)\microsoft visual studio\2017\community\vc\tools\msvc\14.10.25017\include\xutility
;	COMDAT ??$?0U?$_Wrap_alloc@V?$allocator@D@std@@@std@@$$V@?$_Compressed_pair@U?$_Wrap_alloc@V?$allocator@D@std@@@std@@V?$_String_val@U?$_Simple_types@D@std@@@2@$00@std@@QAE@U_One_then_variadic_args_t@1@$$QAU?$_Wrap_alloc@V?$allocator@D@std@@@1@@Z
_TEXT	SEGMENT
___formal$ = 8						; size = 1
__Val1$ = 12						; size = 4
??$?0U?$_Wrap_alloc@V?$allocator@D@std@@@std@@$$V@?$_Compressed_pair@U?$_Wrap_alloc@V?$allocator@D@std@@@std@@V?$_String_val@U?$_Simple_types@D@std@@@2@$00@std@@QAE@U_One_then_variadic_args_t@1@$$QAU?$_Wrap_alloc@V?$allocator@D@std@@@1@@Z PROC ; std::_Compressed_pair<std::_Wrap_alloc<std::allocator<char> >,std::_String_val<std::_Simple_types<char> >,1>::_Compressed_pair<std::_Wrap_alloc<std::allocator<char> >,std::_String_val<std::_Simple_types<char> >,1><std::_Wrap_alloc<std::allocator<char> > >, COMDAT
; _this$ = ecx
; File c:\program files (x86)\microsoft visual studio\2017\community\vc\tools\msvc\14.10.25017\include\xstring

; 1595 : 		_Mysize(0),

	mov	DWORD PTR [ecx+16], 0
; File c:\program files (x86)\microsoft visual studio\2017\community\vc\tools\msvc\14.10.25017\include\xutility

; 313  : 		}

	mov	eax, ecx
; File c:\program files (x86)\microsoft visual studio\2017\community\vc\tools\msvc\14.10.25017\include\xstring

; 1596 : 		_Myres(0)

	mov	DWORD PTR [ecx+20], 0
; File c:\program files (x86)\microsoft visual studio\2017\community\vc\tools\msvc\14.10.25017\include\xutility

; 313  : 		}

	ret	8
??$?0U?$_Wrap_alloc@V?$allocator@D@std@@@std@@$$V@?$_Compressed_pair@U?$_Wrap_alloc@V?$allocator@D@std@@@std@@V?$_String_val@U?$_Simple_types@D@std@@@2@$00@std@@QAE@U_One_then_variadic_args_t@1@$$QAU?$_Wrap_alloc@V?$allocator@D@std@@@1@@Z ENDP ; std::_Compressed_pair<std::_Wrap_alloc<std::allocator<char> >,std::_String_val<std::_Simple_types<char> >,1>::_Compressed_pair<std::_Wrap_alloc<std::allocator<char> >,std::_String_val<std::_Simple_types<char> >,1><std::_Wrap_alloc<std::allocator<char> > >
_TEXT	ENDS
; Function compile flags: /Ogtp
; File c:\program files (x86)\microsoft visual studio\2017\community\vc\tools\msvc\14.10.25017\include\type_traits
;	COMDAT ??$forward@U?$_Wrap_alloc@V?$allocator@D@std@@@std@@@std@@YA$$QAU?$_Wrap_alloc@V?$allocator@D@std@@@0@AAU10@@Z
_TEXT	SEGMENT
__Arg$ = 8						; size = 4
??$forward@U?$_Wrap_alloc@V?$allocator@D@std@@@std@@@std@@YA$$QAU?$_Wrap_alloc@V?$allocator@D@std@@@0@AAU10@@Z PROC ; std::forward<std::_Wrap_alloc<std::allocator<char> > >, COMDAT

; 1334 : 	{	// forward an lvalue as either an lvalue or an rvalue

	npad	2
	push	ebp
	mov	ebp, esp

; 1335 : 	return (static_cast<_Ty&&>(_Arg));

	mov	eax, DWORD PTR __Arg$[ebp]

; 1336 : 	}

	pop	ebp
	ret	0
??$forward@U?$_Wrap_alloc@V?$allocator@D@std@@@std@@@std@@YA$$QAU?$_Wrap_alloc@V?$allocator@D@std@@@0@AAU10@@Z ENDP ; std::forward<std::_Wrap_alloc<std::allocator<char> > >
_TEXT	ENDS
; Function compile flags: /Ogtp
; File c:\program files (x86)\microsoft visual studio\2017\community\vc\tools\msvc\14.10.25017\include\xmemory0
;	COMDAT ??$construct@PADAAPAD@?$_Wrap_alloc@V?$allocator@D@std@@@std@@QAEXPAPADAAPAD@Z
_TEXT	SEGMENT
__Ptr$ = 8						; size = 4
_<_Args_0>$ = 12					; size = 4
??$construct@PADAAPAD@?$_Wrap_alloc@V?$allocator@D@std@@@std@@QAEXPAPADAAPAD@Z PROC ; std::_Wrap_alloc<std::allocator<char> >::construct<char *,char * &>, COMDAT
; _this$ = ecx

; 1095 : 		{	// construct _Ty(_Types...) at _Ptr

	npad	2
	push	ebp
	mov	ebp, esp

; 840  : 		::new ((void *)_Ptr) _Objty(_STD forward<_Types>(_Args)...);

	mov	ecx, DWORD PTR __Ptr$[ebp]
	test	ecx, ecx
	je	SHORT $LN13@construct
	mov	eax, DWORD PTR _<_Args_0>$[ebp]
	mov	eax, DWORD PTR [eax]
	mov	DWORD PTR [ecx], eax
$LN13@construct:

; 1096 : 		_Mytraits::construct(*this, _Ptr,
; 1097 : 			_STD forward<_Types>(_Args)...);
; 1098 : 		}

	pop	ebp
	ret	8
??$construct@PADAAPAD@?$_Wrap_alloc@V?$allocator@D@std@@@std@@QAEXPAPADAAPAD@Z ENDP ; std::_Wrap_alloc<std::allocator<char> >::construct<char *,char * &>
_TEXT	ENDS
; Function compile flags: /Ogtp
; File c:\program files (x86)\microsoft visual studio\2017\community\vc\tools\msvc\14.10.25017\include\xmemory0
;	COMDAT ??$construct@PA_WAAPA_W@?$_Wrap_alloc@V?$allocator@_W@std@@@std@@QAEXPAPA_WAAPA_W@Z
_TEXT	SEGMENT
__Ptr$ = 8						; size = 4
_<_Args_0>$ = 12					; size = 4
??$construct@PA_WAAPA_W@?$_Wrap_alloc@V?$allocator@_W@std@@@std@@QAEXPAPA_WAAPA_W@Z PROC ; std::_Wrap_alloc<std::allocator<wchar_t> >::construct<wchar_t *,wchar_t * &>, COMDAT
; _this$ = ecx

; 1095 : 		{	// construct _Ty(_Types...) at _Ptr

	npad	2
	push	ebp
	mov	ebp, esp

; 840  : 		::new ((void *)_Ptr) _Objty(_STD forward<_Types>(_Args)...);

	mov	ecx, DWORD PTR __Ptr$[ebp]
	test	ecx, ecx
	je	SHORT $LN13@construct
	mov	eax, DWORD PTR _<_Args_0>$[ebp]
	mov	eax, DWORD PTR [eax]
	mov	DWORD PTR [ecx], eax
$LN13@construct:

; 1096 : 		_Mytraits::construct(*this, _Ptr,
; 1097 : 			_STD forward<_Types>(_Args)...);
; 1098 : 		}

	pop	ebp
	ret	8
??$construct@PA_WAAPA_W@?$_Wrap_alloc@V?$allocator@_W@std@@@std@@QAEXPAPA_WAAPA_W@Z ENDP ; std::_Wrap_alloc<std::allocator<wchar_t> >::construct<wchar_t *,wchar_t * &>
_TEXT	ENDS
; Function compile flags: /Ogtp
; File c:\program files (x86)\microsoft visual studio\2017\community\vc\tools\msvc\14.10.25017\include\xstddef
;	COMDAT ??$addressof@$$CBV?$basic_string@DU?$char_traits@D@std@@V?$allocator@D@2@@std@@@std@@YAPBV?$basic_string@DU?$char_traits@D@std@@V?$allocator@D@2@@0@ABV10@@Z
_TEXT	SEGMENT
__Val$ = 8						; size = 4
??$addressof@$$CBV?$basic_string@DU?$char_traits@D@std@@V?$allocator@D@2@@std@@@std@@YAPBV?$basic_string@DU?$char_traits@D@std@@V?$allocator@D@2@@0@ABV10@@Z PROC ; std::addressof<std::basic_string<char,std::char_traits<char>,std::allocator<char> > const >, COMDAT

; 629  : 	{	// return address of _Val

	npad	2
	push	ebp
	mov	ebp, esp

; 630  : 	return (__builtin_addressof(_Val));

	mov	eax, DWORD PTR __Val$[ebp]

; 631  : 	}

	pop	ebp
	ret	0
??$addressof@$$CBV?$basic_string@DU?$char_traits@D@std@@V?$allocator@D@2@@std@@@std@@YAPBV?$basic_string@DU?$char_traits@D@std@@V?$allocator@D@2@@0@ABV10@@Z ENDP ; std::addressof<std::basic_string<char,std::char_traits<char>,std::allocator<char> > const >
_TEXT	ENDS
; Function compile flags: /Ogtp
; File c:\program files (x86)\microsoft visual studio\2017\community\vc\tools\msvc\14.10.25017\include\utility
;	COMDAT ??$_Min_value@I@std@@YAABIABI0@Z
_TEXT	SEGMENT
__Left$ = 8						; size = 4
__Right$ = 12						; size = 4
??$_Min_value@I@std@@YAABIABI0@Z PROC			; std::_Min_value<unsigned int>, COMDAT

; 22   : 	{	// return smaller of _Left and _Right

	npad	2
	push	ebp
	mov	ebp, esp

; 23   : 	return (_Right < _Left ? _Right : _Left);

	mov	edx, DWORD PTR __Right$[ebp]
	mov	eax, DWORD PTR __Left$[ebp]
	mov	ecx, DWORD PTR [edx]
	cmp	ecx, DWORD PTR [eax]
	cmovb	eax, edx

; 24   : 	}

	pop	ebp
	ret	0
??$_Min_value@I@std@@YAABIABI0@Z ENDP			; std::_Min_value<unsigned int>
_TEXT	ENDS
; Function compile flags: /Ogtp
; File c:\program files (x86)\microsoft visual studio\2017\community\vc\tools\msvc\14.10.25017\include\xstddef
;	COMDAT ??$addressof@$$CBV?$basic_string@_WU?$char_traits@_W@std@@V?$allocator@_W@2@@std@@@std@@YAPBV?$basic_string@_WU?$char_traits@_W@std@@V?$allocator@_W@2@@0@ABV10@@Z
_TEXT	SEGMENT
__Val$ = 8						; size = 4
??$addressof@$$CBV?$basic_string@_WU?$char_traits@_W@std@@V?$allocator@_W@2@@std@@@std@@YAPBV?$basic_string@_WU?$char_traits@_W@std@@V?$allocator@_W@2@@0@ABV10@@Z PROC ; std::addressof<std::basic_string<wchar_t,std::char_traits<wchar_t>,std::allocator<wchar_t> > const >, COMDAT

; 629  : 	{	// return address of _Val

	npad	2
	push	ebp
	mov	ebp, esp

; 630  : 	return (__builtin_addressof(_Val));

	mov	eax, DWORD PTR __Val$[ebp]

; 631  : 	}

	pop	ebp
	ret	0
??$addressof@$$CBV?$basic_string@_WU?$char_traits@_W@std@@V?$allocator@_W@2@@std@@@std@@YAPBV?$basic_string@_WU?$char_traits@_W@std@@V?$allocator@_W@2@@0@ABV10@@Z ENDP ; std::addressof<std::basic_string<wchar_t,std::char_traits<wchar_t>,std::allocator<wchar_t> > const >
_TEXT	ENDS
; Function compile flags: /Ogtp
; File c:\program files (x86)\microsoft visual studio\2017\community\vc\tools\msvc\14.10.25017\include\xstddef
;	COMDAT ??$_Unfancy@D@std@@YAPADPAD@Z
_TEXT	SEGMENT
__Ptr$ = 8						; size = 4
??$_Unfancy@D@std@@YAPADPAD@Z PROC			; std::_Unfancy<char>, COMDAT

; 642  : 	{	// do nothing for plain pointers

	npad	2
	push	ebp
	mov	ebp, esp

; 643  : 	return (_Ptr);

	mov	eax, DWORD PTR __Ptr$[ebp]

; 644  : 	}

	pop	ebp
	ret	0
??$_Unfancy@D@std@@YAPADPAD@Z ENDP			; std::_Unfancy<char>
_TEXT	ENDS
; Function compile flags: /Ogtp
; File c:\program files (x86)\microsoft visual studio\2017\community\vc\tools\msvc\14.10.25017\include\xstddef
;	COMDAT ??$_Unfancy@_W@std@@YAPA_WPA_W@Z
_TEXT	SEGMENT
__Ptr$ = 8						; size = 4
??$_Unfancy@_W@std@@YAPA_WPA_W@Z PROC			; std::_Unfancy<wchar_t>, COMDAT

; 642  : 	{	// do nothing for plain pointers

	npad	2
	push	ebp
	mov	ebp, esp

; 643  : 	return (_Ptr);

	mov	eax, DWORD PTR __Ptr$[ebp]

; 644  : 	}

	pop	ebp
	ret	0
??$_Unfancy@_W@std@@YAPA_WPA_W@Z ENDP			; std::_Unfancy<wchar_t>
_TEXT	ENDS
; Function compile flags: /Ogtp
; File c:\program files (x86)\microsoft visual studio\2017\community\vc\tools\msvc\14.10.25017\include\xmemory0
;	COMDAT ??$destroy@PAD@?$_Wrap_alloc@V?$allocator@D@std@@@std@@QAEXPAPAD@Z
_TEXT	SEGMENT
__Ptr$ = 8						; size = 4
??$destroy@PAD@?$_Wrap_alloc@V?$allocator@D@std@@@std@@QAEXPAPAD@Z PROC ; std::_Wrap_alloc<std::allocator<char> >::destroy<char *>, COMDAT
; _this$ = ecx

; 1103 : 		_Mytraits::destroy(*this, _Ptr);
; 1104 : 		}

	ret	4
??$destroy@PAD@?$_Wrap_alloc@V?$allocator@D@std@@@std@@QAEXPAPAD@Z ENDP ; std::_Wrap_alloc<std::allocator<char> >::destroy<char *>
_TEXT	ENDS
; Function compile flags: /Ogtp
; File c:\program files (x86)\microsoft visual studio\2017\community\vc\tools\msvc\14.10.25017\include\xstddef
;	COMDAT ??$addressof@PAD@std@@YAPAPADAAPAD@Z
_TEXT	SEGMENT
__Val$ = 8						; size = 4
??$addressof@PAD@std@@YAPAPADAAPAD@Z PROC		; std::addressof<char *>, COMDAT

; 629  : 	{	// return address of _Val

	npad	2
	push	ebp
	mov	ebp, esp

; 630  : 	return (__builtin_addressof(_Val));

	mov	eax, DWORD PTR __Val$[ebp]

; 631  : 	}

	pop	ebp
	ret	0
??$addressof@PAD@std@@YAPAPADAAPAD@Z ENDP		; std::addressof<char *>
_TEXT	ENDS
; Function compile flags: /Ogtp
; File c:\program files (x86)\microsoft visual studio\2017\community\vc\tools\msvc\14.10.25017\include\xmemory0
;	COMDAT ??$destroy@PA_W@?$_Wrap_alloc@V?$allocator@_W@std@@@std@@QAEXPAPA_W@Z
_TEXT	SEGMENT
__Ptr$ = 8						; size = 4
??$destroy@PA_W@?$_Wrap_alloc@V?$allocator@_W@std@@@std@@QAEXPAPA_W@Z PROC ; std::_Wrap_alloc<std::allocator<wchar_t> >::destroy<wchar_t *>, COMDAT
; _this$ = ecx

; 1103 : 		_Mytraits::destroy(*this, _Ptr);
; 1104 : 		}

	ret	4
??$destroy@PA_W@?$_Wrap_alloc@V?$allocator@_W@std@@@std@@QAEXPAPA_W@Z ENDP ; std::_Wrap_alloc<std::allocator<wchar_t> >::destroy<wchar_t *>
_TEXT	ENDS
; Function compile flags: /Ogtp
; File c:\program files (x86)\microsoft visual studio\2017\community\vc\tools\msvc\14.10.25017\include\xstddef
;	COMDAT ??$addressof@PA_W@std@@YAPAPA_WAAPA_W@Z
_TEXT	SEGMENT
__Val$ = 8						; size = 4
??$addressof@PA_W@std@@YAPAPA_WAAPA_W@Z PROC		; std::addressof<wchar_t *>, COMDAT

; 629  : 	{	// return address of _Val

	npad	2
	push	ebp
	mov	ebp, esp

; 630  : 	return (__builtin_addressof(_Val));

	mov	eax, DWORD PTR __Val$[ebp]

; 631  : 	}

	pop	ebp
	ret	0
??$addressof@PA_W@std@@YAPAPA_WAAPA_W@Z ENDP		; std::addressof<wchar_t *>
_TEXT	ENDS
; Function compile flags: /Ogtp
; File c:\program files (x86)\microsoft visual studio\2017\community\vc\tools\msvc\14.10.25017\include\xmemory0
;	COMDAT ??$?0V?$allocator@D@std@@@?$_Wrap_alloc@V?$allocator@D@std@@@std@@QAE@$$QAV?$allocator@D@1@@Z
_TEXT	SEGMENT
__Right$ = 8						; size = 4
??$?0V?$allocator@D@std@@@?$_Wrap_alloc@V?$allocator@D@std@@@std@@QAE@$$QAV?$allocator@D@1@@Z PROC ; std::_Wrap_alloc<std::allocator<char> >::_Wrap_alloc<std::allocator<char> ><std::allocator<char> >, COMDAT
; _this$ = ecx

; 1054 : 		}

	mov	eax, ecx
	ret	4
??$?0V?$allocator@D@std@@@?$_Wrap_alloc@V?$allocator@D@std@@@std@@QAE@$$QAV?$allocator@D@1@@Z ENDP ; std::_Wrap_alloc<std::allocator<char> >::_Wrap_alloc<std::allocator<char> ><std::allocator<char> >
_TEXT	ENDS
; Function compile flags: /Ogtp
; File c:\program files (x86)\microsoft visual studio\2017\community\vc\tools\msvc\14.10.25017\include\xutility
; File c:\program files (x86)\microsoft visual studio\2017\community\vc\tools\msvc\14.10.25017\include\xstring
; File c:\program files (x86)\microsoft visual studio\2017\community\vc\tools\msvc\14.10.25017\include\xutility
; File c:\program files (x86)\microsoft visual studio\2017\community\vc\tools\msvc\14.10.25017\include\xstring
; File c:\program files (x86)\microsoft visual studio\2017\community\vc\tools\msvc\14.10.25017\include\xutility
;	COMDAT ??$?0$$V@?$_Compressed_pair@U?$_Wrap_alloc@V?$allocator@_W@std@@@std@@V?$_String_val@U?$_Simple_types@_W@std@@@2@$00@std@@QAE@U_Zero_then_variadic_args_t@1@@Z
_TEXT	SEGMENT
___formal$ = 8						; size = 1
??$?0$$V@?$_Compressed_pair@U?$_Wrap_alloc@V?$allocator@_W@std@@@std@@V?$_String_val@U?$_Simple_types@_W@std@@@2@$00@std@@QAE@U_Zero_then_variadic_args_t@1@@Z PROC ; std::_Compressed_pair<std::_Wrap_alloc<std::allocator<wchar_t> >,std::_String_val<std::_Simple_types<wchar_t> >,1>::_Compressed_pair<std::_Wrap_alloc<std::allocator<wchar_t> >,std::_String_val<std::_Simple_types<wchar_t> >,1><>, COMDAT
; _this$ = ecx
; File c:\program files (x86)\microsoft visual studio\2017\community\vc\tools\msvc\14.10.25017\include\xstring

; 1595 : 		_Mysize(0),

	mov	DWORD PTR [ecx+16], 0
; File c:\program files (x86)\microsoft visual studio\2017\community\vc\tools\msvc\14.10.25017\include\xutility

; 304  : 		}

	mov	eax, ecx
; File c:\program files (x86)\microsoft visual studio\2017\community\vc\tools\msvc\14.10.25017\include\xstring

; 1596 : 		_Myres(0)

	mov	DWORD PTR [ecx+20], 0
; File c:\program files (x86)\microsoft visual studio\2017\community\vc\tools\msvc\14.10.25017\include\xutility

; 304  : 		}

	ret	4
??$?0$$V@?$_Compressed_pair@U?$_Wrap_alloc@V?$allocator@_W@std@@@std@@V?$_String_val@U?$_Simple_types@_W@std@@@2@$00@std@@QAE@U_Zero_then_variadic_args_t@1@@Z ENDP ; std::_Compressed_pair<std::_Wrap_alloc<std::allocator<wchar_t> >,std::_String_val<std::_Simple_types<wchar_t> >,1>::_Compressed_pair<std::_Wrap_alloc<std::allocator<wchar_t> >,std::_String_val<std::_Simple_types<wchar_t> >,1><>
_TEXT	ENDS
; Function compile flags: /Ogtp
; File c:\program files (x86)\microsoft visual studio\2017\community\vc\tools\msvc\14.10.25017\include\xstring
;	COMDAT ??$?0U?$_Wrap_alloc@V?$allocator@D@std@@@std@@X@?$_String_alloc@U?$_String_base_types@DV?$allocator@D@std@@@std@@@std@@QAE@$$QAU?$_Wrap_alloc@V?$allocator@D@std@@@1@@Z
_TEXT	SEGMENT
__Al$ = 8						; size = 4
??$?0U?$_Wrap_alloc@V?$allocator@D@std@@@std@@X@?$_String_alloc@U?$_String_base_types@DV?$allocator@D@std@@@std@@@std@@QAE@$$QAU?$_Wrap_alloc@V?$allocator@D@std@@@1@@Z PROC ; std::_String_alloc<std::_String_base_types<char,std::allocator<char> > >::_String_alloc<std::_String_base_types<char,std::allocator<char> > ><std::_Wrap_alloc<std::allocator<char> >,void>, COMDAT
; _this$ = ecx

; 1595 : 		_Mysize(0),

	mov	DWORD PTR [ecx+16], 0

; 1705 : 		}

	mov	eax, ecx

; 1596 : 		_Myres(0)

	mov	DWORD PTR [ecx+20], 0

; 1705 : 		}

	ret	4
??$?0U?$_Wrap_alloc@V?$allocator@D@std@@@std@@X@?$_String_alloc@U?$_String_base_types@DV?$allocator@D@std@@@std@@@std@@QAE@$$QAU?$_Wrap_alloc@V?$allocator@D@std@@@1@@Z ENDP ; std::_String_alloc<std::_String_base_types<char,std::allocator<char> > >::_String_alloc<std::_String_base_types<char,std::allocator<char> > ><std::_Wrap_alloc<std::allocator<char> >,void>
_TEXT	ENDS
; Function compile flags: /Ogtp
; File c:\program files (x86)\microsoft visual studio\2017\community\vc\tools\msvc\14.10.25017\include\type_traits
;	COMDAT ??$move@AAU?$_Wrap_alloc@V?$allocator@D@std@@@std@@@std@@YA$$QAU?$_Wrap_alloc@V?$allocator@D@std@@@0@AAU10@@Z
_TEXT	SEGMENT
__Arg$ = 8						; size = 4
??$move@AAU?$_Wrap_alloc@V?$allocator@D@std@@@std@@@std@@YA$$QAU?$_Wrap_alloc@V?$allocator@D@std@@@0@AAU10@@Z PROC ; std::move<std::_Wrap_alloc<std::allocator<char> > &>, COMDAT

; 1350 : 	{	// forward _Arg as movable

	npad	2
	push	ebp
	mov	ebp, esp

; 1351 : 	return (static_cast<typename remove_reference<_Ty>::type&&>(_Arg));

	mov	eax, DWORD PTR __Arg$[ebp]

; 1352 : 	}

	pop	ebp
	ret	0
??$move@AAU?$_Wrap_alloc@V?$allocator@D@std@@@std@@@std@@YA$$QAU?$_Wrap_alloc@V?$allocator@D@std@@@0@AAU10@@Z ENDP ; std::move<std::_Wrap_alloc<std::allocator<char> > &>
_TEXT	ENDS
; Function compile flags: /Ogtp
; File c:\users\andon\source\repos\specialk\src\injection\injection.cpp
; File c:\program files (x86)\microsoft visual studio\2017\community\vc\tools\msvc\14.10.25017\include\xstring
; File c:\program files (x86)\microsoft visual studio\2017\community\vc\tools\msvc\14.10.25017\include\xstddef
; File c:\users\andon\source\repos\specialk\src\injection\injection.cpp
; File c:\program files (x86)\microsoft visual studio\2017\community\vc\tools\msvc\14.10.25017\include\xstring
; File c:\program files (x86)\microsoft visual studio\2017\community\vc\tools\msvc\14.10.25017\include\xmemory0
; File c:\users\andon\source\repos\specialk\src\injection\injection.cpp
; File c:\program files (x86)\microsoft visual studio\2017\community\vc\tools\msvc\14.10.25017\include\iosfwd
; File c:\users\andon\source\repos\specialk\src\injection\injection.cpp
; File c:\program files (x86)\microsoft visual studio\2017\community\vc\tools\msvc\14.10.25017\include\iosfwd
; File c:\program files (x86)\microsoft visual studio\2017\community\vc\tools\msvc\14.10.25017\include\xstring
; File c:\program files (x86)\microsoft visual studio\2017\community\vc\tools\msvc\14.10.25017\include\iosfwd
; File c:\program files (x86)\microsoft visual studio\2017\community\vc\tools\msvc\14.10.25017\include\xstring
; File c:\program files (x86)\microsoft visual studio\2017\community\vc\tools\msvc\14.10.25017\include\iosfwd
; File c:\program files (x86)\microsoft visual studio\2017\community\vc\tools\msvc\14.10.25017\include\xstring
; File c:\users\andon\source\repos\specialk\src\injection\injection.cpp
; File c:\program files (x86)\microsoft visual studio\2017\community\vc\tools\msvc\14.10.25017\include\xstring
; File c:\program files (x86)\microsoft visual studio\2017\community\vc\tools\msvc\14.10.25017\include\xstddef
; File c:\users\andon\source\repos\specialk\src\injection\injection.cpp
; File c:\program files (x86)\microsoft visual studio\2017\community\vc\tools\msvc\14.10.25017\include\xstring
; File c:\program files (x86)\microsoft visual studio\2017\community\vc\tools\msvc\14.10.25017\include\xmemory0
; File c:\users\andon\source\repos\specialk\src\injection\injection.cpp
; File c:\program files (x86)\microsoft visual studio\2017\community\vc\tools\msvc\14.10.25017\include\iosfwd
; File c:\users\andon\source\repos\specialk\src\injection\injection.cpp
; File c:\program files (x86)\microsoft visual studio\2017\community\vc\tools\msvc\14.10.25017\include\iosfwd
; File c:\program files (x86)\microsoft visual studio\2017\community\vc\tools\msvc\14.10.25017\include\xstring
; File c:\program files (x86)\microsoft visual studio\2017\community\vc\tools\msvc\14.10.25017\include\iosfwd
; File c:\program files (x86)\microsoft visual studio\2017\community\vc\tools\msvc\14.10.25017\include\xstring
; File c:\program files (x86)\microsoft visual studio\2017\community\vc\tools\msvc\14.10.25017\include\iosfwd
; File c:\program files (x86)\microsoft visual studio\2017\community\vc\tools\msvc\14.10.25017\include\xstring
; File c:\users\andon\source\repos\specialk\src\injection\injection.cpp
; File c:\program files (x86)\microsoft visual studio\2017\community\vc\tools\msvc\14.10.25017\include\xstring
; File c:\program files (x86)\microsoft visual studio\2017\community\vc\tools\msvc\14.10.25017\include\xstddef
; File c:\users\andon\source\repos\specialk\src\injection\injection.cpp
; File c:\program files (x86)\microsoft visual studio\2017\community\vc\tools\msvc\14.10.25017\include\xstring
; File c:\program files (x86)\microsoft visual studio\2017\community\vc\tools\msvc\14.10.25017\include\xstddef
; File c:\users\andon\source\repos\specialk\src\injection\injection.cpp
; File c:\program files (x86)\microsoft visual studio\2017\community\vc\tools\msvc\14.10.25017\include\xstring
; File c:\program files (x86)\microsoft visual studio\2017\community\vc\tools\msvc\14.10.25017\include\xmemory0
; File c:\program files (x86)\microsoft visual studio\2017\community\vc\tools\msvc\14.10.25017\include\xstring
; File c:\program files (x86)\microsoft visual studio\2017\community\vc\tools\msvc\14.10.25017\include\xmemory0
; File c:\users\andon\source\repos\specialk\src\injection\injection.cpp
_TEXT	SEGMENT
_wszCurrentDir$ = -2116					; size = 1040
_wszWOW64$ = -1076					; size = 524
_wszSys32$ = -552					; size = 524
$T1 = -28						; size = 24
$T2 = -28						; size = 24
$T3 = -28						; size = 24
$T4 = -28						; size = 24
?SK_Inject_Start@@YAXXZ PROC				; SK_Inject_Start

; 1129 : {

	npad	2
	push	ebp
	mov	ebp, esp
	sub	esp, 2116				; 00000844H

; 1130 :   wchar_t wszCurrentDir [MAX_PATH * 2] = { };

	lea	eax, DWORD PTR _wszCurrentDir$[ebp]
	push	esi
	push	edi
	push	1040					; 00000410H
	push	0
	push	eax
	call	_memset
	add	esp, 12					; 0000000cH

; 1131 :   GetCurrentDirectoryW  (MAX_PATH * 2 - 1, wszCurrentDir);

	lea	eax, DWORD PTR _wszCurrentDir$[ebp]
	push	eax
	push	519					; 00000207H
	call	DWORD PTR __imp__GetCurrentDirectoryW@8

; 1133 :   SetCurrentDirectory (SK_SYS_GetInstallPath ().c_str ());

	lea	eax, DWORD PTR $T4[ebp]
	push	eax
	call	?SK_SYS_GetInstallPath@@YA?AV?$basic_string@_WU?$char_traits@_W@std@@V?$allocator@_W@2@@std@@XZ ; SK_SYS_GetInstallPath
	add	esp, 4
; File c:\program files (x86)\microsoft visual studio\2017\community\vc\tools\msvc\14.10.25017\include\xstring

; 1628 : 		return (this->_BUF_SIZE <= _Myres);

	cmp	DWORD PTR [eax+20], 8

; 1621 : 		return (_Large_string_engaged()

	jb	SHORT $LN30@SK_Inject_
; File c:\program files (x86)\microsoft visual studio\2017\community\vc\tools\msvc\14.10.25017\include\xstddef

; 643  : 	return (_Ptr);

	mov	eax, DWORD PTR [eax]
$LN30@SK_Inject_:
; File c:\users\andon\source\repos\specialk\src\injection\injection.cpp

; 1133 :   SetCurrentDirectory (SK_SYS_GetInstallPath ().c_str ());

	push	eax
	call	DWORD PTR __imp__SetCurrentDirectoryW@4
; File c:\program files (x86)\microsoft visual studio\2017\community\vc\tools\msvc\14.10.25017\include\xstring

; 1628 : 		return (this->_BUF_SIZE <= _Myres);

	mov	eax, DWORD PTR $T4[ebp+20]
	cmp	eax, 8

; 3608 : 		if (_My_data._Large_string_engaged())

	jb	SHORT $LN39@SK_Inject_

; 3613 : 			_Al.deallocate(_Ptr, _My_data._Myres + 1);

	inc	eax
; File c:\program files (x86)\microsoft visual studio\2017\community\vc\tools\msvc\14.10.25017\include\xmemory0

; 823  : 		_Deallocate(_Ptr, _Count, sizeof (_Ty));

	push	2
	push	eax
	push	DWORD PTR $T4[ebp]
	call	?_Deallocate@std@@YAXPAXII@Z		; std::_Deallocate
	add	esp, 12					; 0000000cH
$LN39@SK_Inject_:
; File c:\users\andon\source\repos\specialk\src\injection\injection.cpp

; 1139 :   wchar_t wszWOW64 [MAX_PATH + 2] = { };

	push	524					; 0000020cH
	lea	eax, DWORD PTR _wszWOW64$[ebp]
	push	0
	push	eax
	call	_memset

; 1140 :   GetSystemDirectoryW      (wszWOW64, MAX_PATH);

	mov	esi, DWORD PTR __imp__GetSystemDirectoryW@8
	lea	eax, DWORD PTR _wszWOW64$[ebp]
	add	esp, 12					; 0000000cH
	push	260					; 00000104H
	push	eax
	call	esi

; 1141 : #endif
; 1142 : 
; 1143 :   wchar_t wszSys32 [MAX_PATH + 2] = { };

	push	524					; 0000020cH
	lea	eax, DWORD PTR _wszSys32$[ebp]
	push	0
	push	eax
	call	_memset
	add	esp, 12					; 0000000cH

; 1144 :   GetSystemDirectoryW      (wszSys32, MAX_PATH);

	lea	eax, DWORD PTR _wszSys32$[ebp]
	push	260					; 00000104H
	push	eax
	call	esi

; 1145 : 
; 1146 :   if (GetFileAttributes (L"SKIM64.exe") == INVALID_FILE_ATTRIBUTES)

	push	OFFSET $SG148222
	call	DWORD PTR __imp__GetFileAttributesW@4
	cmp	eax, -1
	jne	$LN2@SK_Inject_

; 1147 :   {
; 1148 :     if (SKX_IsHookingCBT ())

	call	?SKX_IsHookingCBT@@YG_NXZ		; SKX_IsHookingCBT
	test	al, al
	je	SHORT $LN4@SK_Inject_

; 1149 :     {
; 1150 :       RunDLL_InjectionManager ( nullptr, nullptr,

	push	-128					; ffffff80H
	push	OFFSET $SG148224
	push	0
	push	0
	call	?RunDLL_InjectionManager@@YGXPAUHWND__@@PAUHINSTANCE__@@PADH@Z ; RunDLL_InjectionManager
$LN4@SK_Inject_:

; 1151 :                                 "Remove", -128 );
; 1152 :     }
; 1153 : 
; 1154 :     PathAppendW   (wszSys32, L"rundll32.exe");

	mov	edi, DWORD PTR __imp__PathAppendW@8
	lea	eax, DWORD PTR _wszSys32$[ebp]
	push	OFFSET $SG148225
	push	eax
	call	edi

; 1155 :     ShellExecuteA (nullptr, "open", SK_WideCharToUTF8 (wszSys32).c_str (), "SpecialK64.dll,RunDLL_InjectionManager Install", nullptr, SW_HIDE);

	push	0
	push	0
	push	OFFSET $SG148226
	sub	esp, 24					; 00000018H
; File c:\program files (x86)\microsoft visual studio\2017\community\vc\tools\msvc\14.10.25017\include\iosfwd

; 289  : 		return (_CSTD wcslen(_First));

	lea	ecx, DWORD PTR _wszSys32$[ebp]
; File c:\users\andon\source\repos\specialk\src\injection\injection.cpp

; 1155 :     ShellExecuteA (nullptr, "open", SK_WideCharToUTF8 (wszSys32).c_str (), "SpecialK64.dll,RunDLL_InjectionManager Install", nullptr, SW_HIDE);

	mov	edx, esp
; File c:\program files (x86)\microsoft visual studio\2017\community\vc\tools\msvc\14.10.25017\include\iosfwd

; 289  : 		return (_CSTD wcslen(_First));

	lea	esi, DWORD PTR [ecx+2]

; 326  : 		_Left = _Right;

	xor	eax, eax
; File c:\program files (x86)\microsoft visual studio\2017\community\vc\tools\msvc\14.10.25017\include\xstring

; 3597 : 		_My_data._Mysize = 0;

	mov	DWORD PTR [edx+16], 0

; 3598 : 		_My_data._Myres = this->_BUF_SIZE - 1;

	mov	DWORD PTR [edx+20], 7
; File c:\program files (x86)\microsoft visual studio\2017\community\vc\tools\msvc\14.10.25017\include\iosfwd

; 326  : 		_Left = _Right;

	mov	WORD PTR [edx], ax
$LL260@SK_Inject_:

; 289  : 		return (_CSTD wcslen(_First));

	mov	ax, WORD PTR [ecx]
	add	ecx, 2
	test	ax, ax
	jne	SHORT $LL260@SK_Inject_
	sub	ecx, esi
; File c:\program files (x86)\microsoft visual studio\2017\community\vc\tools\msvc\14.10.25017\include\xstring

; 2429 : 		return (assign(_Ptr, _Traits::length(_Ptr)));

	lea	eax, DWORD PTR _wszSys32$[ebp]
; File c:\program files (x86)\microsoft visual studio\2017\community\vc\tools\msvc\14.10.25017\include\iosfwd

; 289  : 		return (_CSTD wcslen(_First));

	sar	ecx, 1
; File c:\program files (x86)\microsoft visual studio\2017\community\vc\tools\msvc\14.10.25017\include\xstring

; 2429 : 		return (assign(_Ptr, _Traits::length(_Ptr)));

	push	ecx
	push	eax
	mov	ecx, edx
	call	?assign@?$basic_string@_WU?$char_traits@_W@std@@V?$allocator@_W@2@@std@@QAEAAV12@QB_WI@Z ; std::basic_string<wchar_t,std::char_traits<wchar_t>,std::allocator<wchar_t> >::assign
; File c:\users\andon\source\repos\specialk\src\injection\injection.cpp

; 1155 :     ShellExecuteA (nullptr, "open", SK_WideCharToUTF8 (wszSys32).c_str (), "SpecialK64.dll,RunDLL_InjectionManager Install", nullptr, SW_HIDE);

	lea	eax, DWORD PTR $T3[ebp]
	push	eax
	call	?SK_WideCharToUTF8@@YA?AV?$basic_string@DU?$char_traits@D@std@@V?$allocator@D@2@@std@@V?$basic_string@_WU?$char_traits@_W@std@@V?$allocator@_W@2@@2@@Z ; SK_WideCharToUTF8
	add	esp, 28					; 0000001cH
; File c:\program files (x86)\microsoft visual studio\2017\community\vc\tools\msvc\14.10.25017\include\xstring

; 1628 : 		return (this->_BUF_SIZE <= _Myres);

	cmp	DWORD PTR [eax+20], 16			; 00000010H

; 1621 : 		return (_Large_string_engaged()

	jb	SHORT $LN103@SK_Inject_
; File c:\program files (x86)\microsoft visual studio\2017\community\vc\tools\msvc\14.10.25017\include\xstddef

; 643  : 	return (_Ptr);

	mov	eax, DWORD PTR [eax]
$LN103@SK_Inject_:
; File c:\users\andon\source\repos\specialk\src\injection\injection.cpp

; 1155 :     ShellExecuteA (nullptr, "open", SK_WideCharToUTF8 (wszSys32).c_str (), "SpecialK64.dll,RunDLL_InjectionManager Install", nullptr, SW_HIDE);

	mov	esi, DWORD PTR __imp__ShellExecuteA@24
	push	eax
	push	OFFSET $SG148227
	push	0
	call	esi
; File c:\program files (x86)\microsoft visual studio\2017\community\vc\tools\msvc\14.10.25017\include\xstring

; 1628 : 		return (this->_BUF_SIZE <= _Myres);

	mov	eax, DWORD PTR $T3[ebp+20]
	cmp	eax, 16					; 00000010H

; 3608 : 		if (_My_data._Large_string_engaged())

	jb	SHORT $LN112@SK_Inject_

; 3613 : 			_Al.deallocate(_Ptr, _My_data._Myres + 1);

	inc	eax
; File c:\program files (x86)\microsoft visual studio\2017\community\vc\tools\msvc\14.10.25017\include\xmemory0

; 823  : 		_Deallocate(_Ptr, _Count, sizeof (_Ty));

	push	1
	push	eax
	push	DWORD PTR $T3[ebp]
	call	?_Deallocate@std@@YAXPAXII@Z		; std::_Deallocate
	add	esp, 12					; 0000000cH
$LN112@SK_Inject_:
; File c:\users\andon\source\repos\specialk\src\injection\injection.cpp

; 1157 :     PathAppendW   (wszWOW64, L"rundll32.exe");

	push	OFFSET $SG148228
	lea	eax, DWORD PTR _wszWOW64$[ebp]
	push	eax
	call	edi

; 1158 :     ShellExecuteA (nullptr, "open", SK_WideCharToUTF8 (wszWOW64).c_str (), "SpecialK32.dll,RunDLL_InjectionManager Install", nullptr, SW_HIDE);

	push	0
	push	0
	push	OFFSET $SG148229
	sub	esp, 24					; 00000018H
; File c:\program files (x86)\microsoft visual studio\2017\community\vc\tools\msvc\14.10.25017\include\iosfwd

; 289  : 		return (_CSTD wcslen(_First));

	lea	ecx, DWORD PTR _wszWOW64$[ebp]
; File c:\users\andon\source\repos\specialk\src\injection\injection.cpp

; 1158 :     ShellExecuteA (nullptr, "open", SK_WideCharToUTF8 (wszWOW64).c_str (), "SpecialK32.dll,RunDLL_InjectionManager Install", nullptr, SW_HIDE);

	mov	edx, esp
; File c:\program files (x86)\microsoft visual studio\2017\community\vc\tools\msvc\14.10.25017\include\iosfwd

; 289  : 		return (_CSTD wcslen(_First));

	lea	edi, DWORD PTR [ecx+2]

; 326  : 		_Left = _Right;

	xor	eax, eax
; File c:\program files (x86)\microsoft visual studio\2017\community\vc\tools\msvc\14.10.25017\include\xstring

; 3597 : 		_My_data._Mysize = 0;

	mov	DWORD PTR [edx+16], 0

; 3598 : 		_My_data._Myres = this->_BUF_SIZE - 1;

	mov	DWORD PTR [edx+20], 7
; File c:\program files (x86)\microsoft visual studio\2017\community\vc\tools\msvc\14.10.25017\include\iosfwd

; 326  : 		_Left = _Right;

	mov	WORD PTR [edx], ax
$LL261@SK_Inject_:

; 289  : 		return (_CSTD wcslen(_First));

	mov	ax, WORD PTR [ecx]
	add	ecx, 2
	test	ax, ax
	jne	SHORT $LL261@SK_Inject_
	sub	ecx, edi
; File c:\program files (x86)\microsoft visual studio\2017\community\vc\tools\msvc\14.10.25017\include\xstring

; 2429 : 		return (assign(_Ptr, _Traits::length(_Ptr)));

	lea	eax, DWORD PTR _wszWOW64$[ebp]
; File c:\program files (x86)\microsoft visual studio\2017\community\vc\tools\msvc\14.10.25017\include\iosfwd

; 289  : 		return (_CSTD wcslen(_First));

	sar	ecx, 1
; File c:\program files (x86)\microsoft visual studio\2017\community\vc\tools\msvc\14.10.25017\include\xstring

; 2429 : 		return (assign(_Ptr, _Traits::length(_Ptr)));

	push	ecx
	push	eax
	mov	ecx, edx
	call	?assign@?$basic_string@_WU?$char_traits@_W@std@@V?$allocator@_W@2@@std@@QAEAAV12@QB_WI@Z ; std::basic_string<wchar_t,std::char_traits<wchar_t>,std::allocator<wchar_t> >::assign
; File c:\users\andon\source\repos\specialk\src\injection\injection.cpp

; 1158 :     ShellExecuteA (nullptr, "open", SK_WideCharToUTF8 (wszWOW64).c_str (), "SpecialK32.dll,RunDLL_InjectionManager Install", nullptr, SW_HIDE);

	lea	eax, DWORD PTR $T2[ebp]
	push	eax
	call	?SK_WideCharToUTF8@@YA?AV?$basic_string@DU?$char_traits@D@std@@V?$allocator@D@2@@std@@V?$basic_string@_WU?$char_traits@_W@std@@V?$allocator@_W@2@@2@@Z ; SK_WideCharToUTF8
	add	esp, 28					; 0000001cH
; File c:\program files (x86)\microsoft visual studio\2017\community\vc\tools\msvc\14.10.25017\include\xstring

; 1628 : 		return (this->_BUF_SIZE <= _Myres);

	cmp	DWORD PTR [eax+20], 16			; 00000010H

; 1621 : 		return (_Large_string_engaged()

	jb	SHORT $LN176@SK_Inject_
; File c:\program files (x86)\microsoft visual studio\2017\community\vc\tools\msvc\14.10.25017\include\xstddef

; 643  : 	return (_Ptr);

	mov	eax, DWORD PTR [eax]
$LN176@SK_Inject_:
; File c:\users\andon\source\repos\specialk\src\injection\injection.cpp

; 1158 :     ShellExecuteA (nullptr, "open", SK_WideCharToUTF8 (wszWOW64).c_str (), "SpecialK32.dll,RunDLL_InjectionManager Install", nullptr, SW_HIDE);

	push	eax
	push	OFFSET $SG148230
	push	0
	call	esi

; 1159 :   }
; 1160 : 
; 1161 :   else

	jmp	$LN263@SK_Inject_
$LN2@SK_Inject_:

; 1162 :   {
; 1163 :     if (SKX_IsHookingCBT ())

	call	?SKX_IsHookingCBT@@YG_NXZ		; SKX_IsHookingCBT
	test	al, al
	je	SHORT $LN5@SK_Inject_

; 1164 :     {
; 1165 :       RunDLL_InjectionManager ( nullptr, nullptr,

	push	-128					; ffffff80H
	push	OFFSET $SG148232
	push	0
	push	0
	call	?RunDLL_InjectionManager@@YGXPAUHWND__@@PAUHINSTANCE__@@PADH@Z ; RunDLL_InjectionManager
$LN5@SK_Inject_:

; 1166 :                                 "Remove", -128 );
; 1167 :     }
; 1168 : 
; 1169 :     HWND hWndExisting =
; 1170 :       FindWindow (L"SKIM_Frontend", nullptr);

	push	0
	push	OFFSET $SG148233
	call	DWORD PTR __imp__FindWindowW@8
	mov	edi, eax

; 1171 : 
; 1172 :     // Best-case, SKIM restarts itself
; 1173 :     if (hWndExisting)

	test	edi, edi
	je	SHORT $LN6@SK_Inject_

; 1174 :     {
; 1175 :       SendMessage (hWndExisting, WM_USER + 0x125, 0, 0);

	mov	esi, DWORD PTR __imp__SendMessageW@16
	push	0
	push	0
	push	1317					; 00000525H
	push	edi
	call	esi

; 1176 :       SleepEx     (100, FALSE);

	push	0
	push	100					; 00000064H
	call	DWORD PTR __imp__SleepEx@8

; 1177 :       SendMessage (hWndExisting, WM_USER + 0x124, 0, 0);

	push	0
	push	0
	push	1316					; 00000524H
	push	edi
	call	esi

; 1185 :   SetCurrentDirectoryW (wszCurrentDir);

	lea	eax, DWORD PTR _wszCurrentDir$[ebp]
	push	eax
	call	DWORD PTR __imp__SetCurrentDirectoryW@4

; 1186 : }

	pop	edi
	pop	esi
	mov	esp, ebp
	pop	ebp
	ret	0
$LN6@SK_Inject_:

; 1182 :       ShellExecuteA (nullptr, "open", "SKIM64.exe", "+Inject", SK_WideCharToUTF8 (SK_SYS_GetInstallPath ()).c_str (), SW_FORCEMINIMIZE);

	push	11					; 0000000bH
	sub	esp, 24					; 00000018H
	push	esp
	call	?SK_SYS_GetInstallPath@@YA?AV?$basic_string@_WU?$char_traits@_W@std@@V?$allocator@_W@2@@std@@XZ ; SK_SYS_GetInstallPath
	add	esp, 4
	lea	eax, DWORD PTR $T1[ebp]
	push	eax
	call	?SK_WideCharToUTF8@@YA?AV?$basic_string@DU?$char_traits@D@std@@V?$allocator@D@2@@std@@V?$basic_string@_WU?$char_traits@_W@std@@V?$allocator@_W@2@@2@@Z ; SK_WideCharToUTF8
	add	esp, 28					; 0000001cH
; File c:\program files (x86)\microsoft visual studio\2017\community\vc\tools\msvc\14.10.25017\include\xstring

; 1628 : 		return (this->_BUF_SIZE <= _Myres);

	cmp	DWORD PTR [eax+20], 16			; 00000010H

; 1621 : 		return (_Large_string_engaged()

	jb	SHORT $LN225@SK_Inject_
; File c:\program files (x86)\microsoft visual studio\2017\community\vc\tools\msvc\14.10.25017\include\xstddef

; 643  : 	return (_Ptr);

	mov	eax, DWORD PTR [eax]
$LN225@SK_Inject_:
; File c:\users\andon\source\repos\specialk\src\injection\injection.cpp

; 1182 :       ShellExecuteA (nullptr, "open", "SKIM64.exe", "+Inject", SK_WideCharToUTF8 (SK_SYS_GetInstallPath ()).c_str (), SW_FORCEMINIMIZE);

	push	eax
	push	OFFSET $SG148236
	push	OFFSET $SG148237
	push	OFFSET $SG148238
	push	0
	call	DWORD PTR __imp__ShellExecuteA@24
$LN263@SK_Inject_:
; File c:\program files (x86)\microsoft visual studio\2017\community\vc\tools\msvc\14.10.25017\include\xstring

; 1628 : 		return (this->_BUF_SIZE <= _Myres);

	mov	eax, DWORD PTR $T1[ebp+20]
	cmp	eax, 16					; 00000010H

; 3608 : 		if (_My_data._Large_string_engaged())

	jb	SHORT $LN234@SK_Inject_
; File c:\program files (x86)\microsoft visual studio\2017\community\vc\tools\msvc\14.10.25017\include\xmemory0

; 823  : 		_Deallocate(_Ptr, _Count, sizeof (_Ty));

	push	1
; File c:\program files (x86)\microsoft visual studio\2017\community\vc\tools\msvc\14.10.25017\include\xstring

; 3613 : 			_Al.deallocate(_Ptr, _My_data._Myres + 1);

	inc	eax
; File c:\program files (x86)\microsoft visual studio\2017\community\vc\tools\msvc\14.10.25017\include\xmemory0

; 823  : 		_Deallocate(_Ptr, _Count, sizeof (_Ty));

	push	eax
	push	DWORD PTR $T1[ebp]
	call	?_Deallocate@std@@YAXPAXII@Z		; std::_Deallocate
	add	esp, 12					; 0000000cH
$LN234@SK_Inject_:
; File c:\users\andon\source\repos\specialk\src\injection\injection.cpp

; 1185 :   SetCurrentDirectoryW (wszCurrentDir);

	lea	eax, DWORD PTR _wszCurrentDir$[ebp]
	push	eax
	call	DWORD PTR __imp__SetCurrentDirectoryW@4

; 1186 : }

	pop	edi
	pop	esi
	mov	esp, ebp
	pop	ebp
	ret	0
?SK_Inject_Start@@YAXXZ ENDP				; SK_Inject_Start
_TEXT	ENDS
; Function compile flags: /Ogtp
; File c:\users\andon\source\repos\specialk\src\injection\injection.cpp
; File c:\program files (x86)\microsoft visual studio\2017\community\vc\tools\msvc\14.10.25017\include\xstring
; File c:\program files (x86)\microsoft visual studio\2017\community\vc\tools\msvc\14.10.25017\include\xstddef
; File c:\users\andon\source\repos\specialk\src\injection\injection.cpp
; File c:\program files (x86)\microsoft visual studio\2017\community\vc\tools\msvc\14.10.25017\include\xstring
; File c:\program files (x86)\microsoft visual studio\2017\community\vc\tools\msvc\14.10.25017\include\xmemory0
; File c:\users\andon\source\repos\specialk\src\injection\injection.cpp
; File c:\program files (x86)\microsoft visual studio\2017\community\vc\tools\msvc\14.10.25017\include\iosfwd
; File c:\users\andon\source\repos\specialk\src\injection\injection.cpp
; File c:\program files (x86)\microsoft visual studio\2017\community\vc\tools\msvc\14.10.25017\include\iosfwd
; File c:\program files (x86)\microsoft visual studio\2017\community\vc\tools\msvc\14.10.25017\include\xstring
; File c:\program files (x86)\microsoft visual studio\2017\community\vc\tools\msvc\14.10.25017\include\iosfwd
; File c:\program files (x86)\microsoft visual studio\2017\community\vc\tools\msvc\14.10.25017\include\xstring
; File c:\program files (x86)\microsoft visual studio\2017\community\vc\tools\msvc\14.10.25017\include\iosfwd
; File c:\program files (x86)\microsoft visual studio\2017\community\vc\tools\msvc\14.10.25017\include\xstring
; File c:\users\andon\source\repos\specialk\src\injection\injection.cpp
; File c:\program files (x86)\microsoft visual studio\2017\community\vc\tools\msvc\14.10.25017\include\xstring
; File c:\program files (x86)\microsoft visual studio\2017\community\vc\tools\msvc\14.10.25017\include\xstddef
; File c:\users\andon\source\repos\specialk\src\injection\injection.cpp
; File c:\program files (x86)\microsoft visual studio\2017\community\vc\tools\msvc\14.10.25017\include\xstring
; File c:\program files (x86)\microsoft visual studio\2017\community\vc\tools\msvc\14.10.25017\include\xmemory0
; File c:\users\andon\source\repos\specialk\src\injection\injection.cpp
; File c:\program files (x86)\microsoft visual studio\2017\community\vc\tools\msvc\14.10.25017\include\iosfwd
; File c:\users\andon\source\repos\specialk\src\injection\injection.cpp
; File c:\program files (x86)\microsoft visual studio\2017\community\vc\tools\msvc\14.10.25017\include\iosfwd
; File c:\program files (x86)\microsoft visual studio\2017\community\vc\tools\msvc\14.10.25017\include\xstring
; File c:\program files (x86)\microsoft visual studio\2017\community\vc\tools\msvc\14.10.25017\include\iosfwd
; File c:\program files (x86)\microsoft visual studio\2017\community\vc\tools\msvc\14.10.25017\include\xstring
; File c:\program files (x86)\microsoft visual studio\2017\community\vc\tools\msvc\14.10.25017\include\iosfwd
; File c:\program files (x86)\microsoft visual studio\2017\community\vc\tools\msvc\14.10.25017\include\xstring
; File c:\users\andon\source\repos\specialk\src\injection\injection.cpp
; File c:\program files (x86)\microsoft visual studio\2017\community\vc\tools\msvc\14.10.25017\include\xstring
; File c:\program files (x86)\microsoft visual studio\2017\community\vc\tools\msvc\14.10.25017\include\xstddef
; File c:\users\andon\source\repos\specialk\src\injection\injection.cpp
; File c:\program files (x86)\microsoft visual studio\2017\community\vc\tools\msvc\14.10.25017\include\xstring
; File c:\program files (x86)\microsoft visual studio\2017\community\vc\tools\msvc\14.10.25017\include\xmemory0
; File c:\program files (x86)\microsoft visual studio\2017\community\vc\tools\msvc\14.10.25017\include\xstring
; File c:\program files (x86)\microsoft visual studio\2017\community\vc\tools\msvc\14.10.25017\include\xmemory0
; File c:\users\andon\source\repos\specialk\src\injection\injection.cpp
; File c:\program files (x86)\microsoft visual studio\2017\community\vc\tools\msvc\14.10.25017\include\xstring
; File c:\program files (x86)\microsoft visual studio\2017\community\vc\tools\msvc\14.10.25017\include\xstddef
; File c:\users\andon\source\repos\specialk\src\injection\injection.cpp
; File c:\program files (x86)\microsoft visual studio\2017\community\vc\tools\msvc\14.10.25017\include\xstring
; File c:\program files (x86)\microsoft visual studio\2017\community\vc\tools\msvc\14.10.25017\include\xmemory0
; File c:\program files (x86)\microsoft visual studio\2017\community\vc\tools\msvc\14.10.25017\include\xstring
; File c:\program files (x86)\microsoft visual studio\2017\community\vc\tools\msvc\14.10.25017\include\xmemory0
; File c:\users\andon\source\repos\specialk\src\injection\injection.cpp
_TEXT	SEGMENT
_wszCurrentDir$ = -2116					; size = 1040
_wszSys32$ = -1076					; size = 524
_wszWOW64$ = -552					; size = 524
$T1 = -28						; size = 24
$T2 = -28						; size = 24
$T3 = -28						; size = 24
$T4 = -28						; size = 24
?SK_Inject_Stop@@YAXXZ PROC				; SK_Inject_Stop

; 1069 : {

	npad	2
	push	ebp
	mov	ebp, esp
	sub	esp, 2116				; 00000844H

; 1070 :   wchar_t wszCurrentDir [MAX_PATH * 2] = { };

	lea	eax, DWORD PTR _wszCurrentDir$[ebp]
	push	ebx
	push	esi
	push	1040					; 00000410H
	push	0
	push	eax
	call	_memset
	add	esp, 12					; 0000000cH

; 1071 :   GetCurrentDirectoryW  (MAX_PATH * 2 - 1, wszCurrentDir);

	lea	eax, DWORD PTR _wszCurrentDir$[ebp]
	push	eax
	push	519					; 00000207H
	call	DWORD PTR __imp__GetCurrentDirectoryW@8

; 1073 :   SetCurrentDirectory (SK_SYS_GetInstallPath ().c_str ());

	lea	eax, DWORD PTR $T4[ebp]
	push	eax
	call	?SK_SYS_GetInstallPath@@YA?AV?$basic_string@_WU?$char_traits@_W@std@@V?$allocator@_W@2@@std@@XZ ; SK_SYS_GetInstallPath
	add	esp, 4
; File c:\program files (x86)\microsoft visual studio\2017\community\vc\tools\msvc\14.10.25017\include\xstring

; 1628 : 		return (this->_BUF_SIZE <= _Myres);

	cmp	DWORD PTR [eax+20], 8

; 1621 : 		return (_Large_string_engaged()

	jb	SHORT $LN28@SK_Inject_
; File c:\program files (x86)\microsoft visual studio\2017\community\vc\tools\msvc\14.10.25017\include\xstddef

; 643  : 	return (_Ptr);

	mov	eax, DWORD PTR [eax]
$LN28@SK_Inject_:
; File c:\users\andon\source\repos\specialk\src\injection\injection.cpp

; 1073 :   SetCurrentDirectory (SK_SYS_GetInstallPath ().c_str ());

	push	eax
	call	DWORD PTR __imp__SetCurrentDirectoryW@4
; File c:\program files (x86)\microsoft visual studio\2017\community\vc\tools\msvc\14.10.25017\include\xstring

; 1628 : 		return (this->_BUF_SIZE <= _Myres);

	mov	eax, DWORD PTR $T4[ebp+20]
	cmp	eax, 8

; 3608 : 		if (_My_data._Large_string_engaged())

	jb	SHORT $LN37@SK_Inject_

; 3613 : 			_Al.deallocate(_Ptr, _My_data._Myres + 1);

	inc	eax
; File c:\program files (x86)\microsoft visual studio\2017\community\vc\tools\msvc\14.10.25017\include\xmemory0

; 823  : 		_Deallocate(_Ptr, _Count, sizeof (_Ty));

	push	2
	push	eax
	push	DWORD PTR $T4[ebp]
	call	?_Deallocate@std@@YAXPAXII@Z		; std::_Deallocate
	add	esp, 12					; 0000000cH
$LN37@SK_Inject_:
; File c:\users\andon\source\repos\specialk\src\injection\injection.cpp

; 1076 :   LoadLibrary (L"SpecialK32.dll");

	push	OFFSET $SG148187
	call	DWORD PTR __imp__LoadLibraryW@4

; 1077 : #else
; 1078 :   LoadLibrary (L"SpecialK64.dll");
; 1079 : #endif
; 1080 : 
; 1081 : #ifdef _WIN64
; 1082 :   wchar_t wszWOW64 [MAX_PATH + 2] = { };
; 1083 :   GetSystemWow64DirectoryW (wszWOW64, MAX_PATH);
; 1084 : #else
; 1085 :   wchar_t wszWOW64 [MAX_PATH + 2] = { };

	push	524					; 0000020cH
	lea	eax, DWORD PTR _wszWOW64$[ebp]
	push	0
	push	eax
	call	_memset

; 1086 :   GetSystemDirectoryW      (wszWOW64, MAX_PATH);

	mov	esi, DWORD PTR __imp__GetSystemDirectoryW@8
	lea	eax, DWORD PTR _wszWOW64$[ebp]
	add	esp, 12					; 0000000cH
	push	260					; 00000104H
	push	eax
	call	esi

; 1087 : #endif
; 1088 : 
; 1089 :   wchar_t wszSys32 [MAX_PATH + 2] = { };

	push	524					; 0000020cH
	lea	eax, DWORD PTR _wszSys32$[ebp]
	push	0
	push	eax
	call	_memset
	add	esp, 12					; 0000000cH

; 1090 :   GetSystemDirectoryW      (wszSys32, MAX_PATH);

	lea	eax, DWORD PTR _wszSys32$[ebp]
	push	260					; 00000104H
	push	eax
	call	esi

; 1091 : 
; 1092 :   //SK_ExitRemoteProcess (L"SKIM64.exe", 0x00);
; 1093 : 
; 1094 :   if (GetFileAttributes (L"SKIM64.exe") == INVALID_FILE_ATTRIBUTES)

	push	OFFSET $SG148190
	call	DWORD PTR __imp__GetFileAttributesW@4
	cmp	eax, -1
	jne	$LN2@SK_Inject_

; 1095 :   {
; 1096 :     PathAppendW   (wszWOW64, L"rundll32.exe");

	mov	ebx, DWORD PTR __imp__PathAppendW@8
	lea	eax, DWORD PTR _wszWOW64$[ebp]
	push	OFFSET $SG148191
	push	eax
	call	ebx

; 1097 :     ShellExecuteA (nullptr, "open", SK_WideCharToUTF8 (wszWOW64).c_str (), "SpecialK32.dll,RunDLL_InjectionManager Remove", nullptr, SW_HIDE);

	push	0
	push	0
	push	OFFSET $SG148192
	sub	esp, 24					; 00000018H
; File c:\program files (x86)\microsoft visual studio\2017\community\vc\tools\msvc\14.10.25017\include\iosfwd

; 289  : 		return (_CSTD wcslen(_First));

	lea	ecx, DWORD PTR _wszWOW64$[ebp]
; File c:\users\andon\source\repos\specialk\src\injection\injection.cpp

; 1097 :     ShellExecuteA (nullptr, "open", SK_WideCharToUTF8 (wszWOW64).c_str (), "SpecialK32.dll,RunDLL_InjectionManager Remove", nullptr, SW_HIDE);

	mov	edx, esp
; File c:\program files (x86)\microsoft visual studio\2017\community\vc\tools\msvc\14.10.25017\include\iosfwd

; 289  : 		return (_CSTD wcslen(_First));

	lea	esi, DWORD PTR [ecx+2]

; 326  : 		_Left = _Right;

	xor	eax, eax
; File c:\program files (x86)\microsoft visual studio\2017\community\vc\tools\msvc\14.10.25017\include\xstring

; 3597 : 		_My_data._Mysize = 0;

	mov	DWORD PTR [edx+16], 0

; 3598 : 		_My_data._Myres = this->_BUF_SIZE - 1;

	mov	DWORD PTR [edx+20], 7
; File c:\program files (x86)\microsoft visual studio\2017\community\vc\tools\msvc\14.10.25017\include\iosfwd

; 326  : 		_Left = _Right;

	mov	WORD PTR [edx], ax
$LL258@SK_Inject_:

; 289  : 		return (_CSTD wcslen(_First));

	mov	ax, WORD PTR [ecx]
	add	ecx, 2
	test	ax, ax
	jne	SHORT $LL258@SK_Inject_
	sub	ecx, esi
; File c:\program files (x86)\microsoft visual studio\2017\community\vc\tools\msvc\14.10.25017\include\xstring

; 2429 : 		return (assign(_Ptr, _Traits::length(_Ptr)));

	lea	eax, DWORD PTR _wszWOW64$[ebp]
; File c:\program files (x86)\microsoft visual studio\2017\community\vc\tools\msvc\14.10.25017\include\iosfwd

; 289  : 		return (_CSTD wcslen(_First));

	sar	ecx, 1
; File c:\program files (x86)\microsoft visual studio\2017\community\vc\tools\msvc\14.10.25017\include\xstring

; 2429 : 		return (assign(_Ptr, _Traits::length(_Ptr)));

	push	ecx
	push	eax
	mov	ecx, edx
	call	?assign@?$basic_string@_WU?$char_traits@_W@std@@V?$allocator@_W@2@@std@@QAEAAV12@QB_WI@Z ; std::basic_string<wchar_t,std::char_traits<wchar_t>,std::allocator<wchar_t> >::assign
; File c:\users\andon\source\repos\specialk\src\injection\injection.cpp

; 1097 :     ShellExecuteA (nullptr, "open", SK_WideCharToUTF8 (wszWOW64).c_str (), "SpecialK32.dll,RunDLL_InjectionManager Remove", nullptr, SW_HIDE);

	lea	eax, DWORD PTR $T3[ebp]
	push	eax
	call	?SK_WideCharToUTF8@@YA?AV?$basic_string@DU?$char_traits@D@std@@V?$allocator@D@2@@std@@V?$basic_string@_WU?$char_traits@_W@std@@V?$allocator@_W@2@@2@@Z ; SK_WideCharToUTF8
	add	esp, 28					; 0000001cH
; File c:\program files (x86)\microsoft visual studio\2017\community\vc\tools\msvc\14.10.25017\include\xstring

; 1628 : 		return (this->_BUF_SIZE <= _Myres);

	cmp	DWORD PTR [eax+20], 16			; 00000010H

; 1621 : 		return (_Large_string_engaged()

	jb	SHORT $LN101@SK_Inject_
; File c:\program files (x86)\microsoft visual studio\2017\community\vc\tools\msvc\14.10.25017\include\xstddef

; 643  : 	return (_Ptr);

	mov	eax, DWORD PTR [eax]
$LN101@SK_Inject_:
; File c:\users\andon\source\repos\specialk\src\injection\injection.cpp

; 1097 :     ShellExecuteA (nullptr, "open", SK_WideCharToUTF8 (wszWOW64).c_str (), "SpecialK32.dll,RunDLL_InjectionManager Remove", nullptr, SW_HIDE);

	mov	esi, DWORD PTR __imp__ShellExecuteA@24
	push	eax
	push	OFFSET $SG148193
	push	0
	call	esi
; File c:\program files (x86)\microsoft visual studio\2017\community\vc\tools\msvc\14.10.25017\include\xstring

; 1628 : 		return (this->_BUF_SIZE <= _Myres);

	mov	eax, DWORD PTR $T3[ebp+20]
	cmp	eax, 16					; 00000010H

; 3608 : 		if (_My_data._Large_string_engaged())

	jb	SHORT $LN110@SK_Inject_

; 3613 : 			_Al.deallocate(_Ptr, _My_data._Myres + 1);

	inc	eax
; File c:\program files (x86)\microsoft visual studio\2017\community\vc\tools\msvc\14.10.25017\include\xmemory0

; 823  : 		_Deallocate(_Ptr, _Count, sizeof (_Ty));

	push	1
	push	eax
	push	DWORD PTR $T3[ebp]
	call	?_Deallocate@std@@YAXPAXII@Z		; std::_Deallocate
	add	esp, 12					; 0000000cH
$LN110@SK_Inject_:
; File c:\users\andon\source\repos\specialk\src\injection\injection.cpp

; 1099 :     PathAppendW   (wszSys32, L"rundll32.exe");

	push	OFFSET $SG148194
	lea	eax, DWORD PTR _wszSys32$[ebp]
	push	eax
	call	ebx

; 1100 :     ShellExecuteA (nullptr, "open", SK_WideCharToUTF8 (wszSys32).c_str (), "SpecialK64.dll,RunDLL_InjectionManager Remove", nullptr, SW_HIDE);

	push	0
	push	0
	push	OFFSET $SG148195
	sub	esp, 24					; 00000018H
; File c:\program files (x86)\microsoft visual studio\2017\community\vc\tools\msvc\14.10.25017\include\iosfwd

; 289  : 		return (_CSTD wcslen(_First));

	lea	ecx, DWORD PTR _wszSys32$[ebp]
; File c:\users\andon\source\repos\specialk\src\injection\injection.cpp

; 1100 :     ShellExecuteA (nullptr, "open", SK_WideCharToUTF8 (wszSys32).c_str (), "SpecialK64.dll,RunDLL_InjectionManager Remove", nullptr, SW_HIDE);

	mov	edx, esp
; File c:\program files (x86)\microsoft visual studio\2017\community\vc\tools\msvc\14.10.25017\include\iosfwd

; 289  : 		return (_CSTD wcslen(_First));

	lea	ebx, DWORD PTR [ecx+2]

; 326  : 		_Left = _Right;

	xor	eax, eax
; File c:\program files (x86)\microsoft visual studio\2017\community\vc\tools\msvc\14.10.25017\include\xstring

; 3597 : 		_My_data._Mysize = 0;

	mov	DWORD PTR [edx+16], 0

; 3598 : 		_My_data._Myres = this->_BUF_SIZE - 1;

	mov	DWORD PTR [edx+20], 7
; File c:\program files (x86)\microsoft visual studio\2017\community\vc\tools\msvc\14.10.25017\include\iosfwd

; 326  : 		_Left = _Right;

	mov	WORD PTR [edx], ax
$LL259@SK_Inject_:

; 289  : 		return (_CSTD wcslen(_First));

	mov	ax, WORD PTR [ecx]
	add	ecx, 2
	test	ax, ax
	jne	SHORT $LL259@SK_Inject_
	sub	ecx, ebx
; File c:\program files (x86)\microsoft visual studio\2017\community\vc\tools\msvc\14.10.25017\include\xstring

; 2429 : 		return (assign(_Ptr, _Traits::length(_Ptr)));

	lea	eax, DWORD PTR _wszSys32$[ebp]
; File c:\program files (x86)\microsoft visual studio\2017\community\vc\tools\msvc\14.10.25017\include\iosfwd

; 289  : 		return (_CSTD wcslen(_First));

	sar	ecx, 1
; File c:\program files (x86)\microsoft visual studio\2017\community\vc\tools\msvc\14.10.25017\include\xstring

; 2429 : 		return (assign(_Ptr, _Traits::length(_Ptr)));

	push	ecx
	push	eax
	mov	ecx, edx
	call	?assign@?$basic_string@_WU?$char_traits@_W@std@@V?$allocator@_W@2@@std@@QAEAAV12@QB_WI@Z ; std::basic_string<wchar_t,std::char_traits<wchar_t>,std::allocator<wchar_t> >::assign
; File c:\users\andon\source\repos\specialk\src\injection\injection.cpp

; 1100 :     ShellExecuteA (nullptr, "open", SK_WideCharToUTF8 (wszSys32).c_str (), "SpecialK64.dll,RunDLL_InjectionManager Remove", nullptr, SW_HIDE);

	lea	eax, DWORD PTR $T2[ebp]
	push	eax
	call	?SK_WideCharToUTF8@@YA?AV?$basic_string@DU?$char_traits@D@std@@V?$allocator@D@2@@std@@V?$basic_string@_WU?$char_traits@_W@std@@V?$allocator@_W@2@@2@@Z ; SK_WideCharToUTF8
	add	esp, 28					; 0000001cH
; File c:\program files (x86)\microsoft visual studio\2017\community\vc\tools\msvc\14.10.25017\include\xstring

; 1628 : 		return (this->_BUF_SIZE <= _Myres);

	cmp	DWORD PTR [eax+20], 16			; 00000010H

; 1621 : 		return (_Large_string_engaged()

	jb	SHORT $LN174@SK_Inject_
; File c:\program files (x86)\microsoft visual studio\2017\community\vc\tools\msvc\14.10.25017\include\xstddef

; 643  : 	return (_Ptr);

	mov	eax, DWORD PTR [eax]
$LN174@SK_Inject_:
; File c:\users\andon\source\repos\specialk\src\injection\injection.cpp

; 1100 :     ShellExecuteA (nullptr, "open", SK_WideCharToUTF8 (wszSys32).c_str (), "SpecialK64.dll,RunDLL_InjectionManager Remove", nullptr, SW_HIDE);

	push	eax
	push	OFFSET $SG148196
	push	0
	call	esi
; File c:\program files (x86)\microsoft visual studio\2017\community\vc\tools\msvc\14.10.25017\include\xstring

; 1628 : 		return (this->_BUF_SIZE <= _Myres);

	mov	eax, DWORD PTR $T2[ebp+20]
	cmp	eax, 16					; 00000010H

; 3608 : 		if (_My_data._Large_string_engaged())

	jb	$LN5@SK_Inject_
; File c:\program files (x86)\microsoft visual studio\2017\community\vc\tools\msvc\14.10.25017\include\xmemory0

; 823  : 		_Deallocate(_Ptr, _Count, sizeof (_Ty));

	push	1
; File c:\program files (x86)\microsoft visual studio\2017\community\vc\tools\msvc\14.10.25017\include\xstring

; 3613 : 			_Al.deallocate(_Ptr, _My_data._Myres + 1);

	inc	eax
; File c:\program files (x86)\microsoft visual studio\2017\community\vc\tools\msvc\14.10.25017\include\xmemory0

; 823  : 		_Deallocate(_Ptr, _Count, sizeof (_Ty));

	push	eax
	push	DWORD PTR $T2[ebp]
	call	?_Deallocate@std@@YAXPAXII@Z		; std::_Deallocate
	add	esp, 12					; 0000000cH
; File c:\users\andon\source\repos\specialk\src\injection\injection.cpp

; 1124 :   SetCurrentDirectoryW (wszCurrentDir);

	lea	eax, DWORD PTR _wszCurrentDir$[ebp]
	push	eax
	call	DWORD PTR __imp__SetCurrentDirectoryW@4

; 1125 : }

	pop	esi
	pop	ebx
	mov	esp, ebp
	pop	ebp
	ret	0
$LN2@SK_Inject_:

; 1101 :   }
; 1102 : 
; 1103 :   else
; 1104 :   {
; 1105 :     HWND hWndExisting =
; 1106 :       FindWindow (L"SKIM_Frontend", nullptr);

	push	0
	push	OFFSET $SG148197
	call	DWORD PTR __imp__FindWindowW@8

; 1107 : 
; 1108 :     // Best-case, SKIM restarts itself
; 1109 :     if (hWndExisting)

	test	eax, eax
	je	SHORT $LN4@SK_Inject_

; 1110 :     {
; 1111 :       SendMessage (hWndExisting, WM_USER + 0x122, 0, 0);

	push	0
	push	0
	push	1314					; 00000522H
	push	eax
	call	DWORD PTR __imp__SendMessageW@16

; 1112 :       SleepEx     (100UL, FALSE);

	push	0
	push	100					; 00000064H
	call	DWORD PTR __imp__SleepEx@8

; 1124 :   SetCurrentDirectoryW (wszCurrentDir);

	lea	eax, DWORD PTR _wszCurrentDir$[ebp]
	push	eax
	call	DWORD PTR __imp__SetCurrentDirectoryW@4

; 1125 : }

	pop	esi
	pop	ebx
	mov	esp, ebp
	pop	ebp
	ret	0
$LN4@SK_Inject_:

; 1118 :       ShellExecuteA        (nullptr, "open", "SKIM64.exe", "-Inject", SK_WideCharToUTF8 (SK_SYS_GetInstallPath ()).c_str (), SW_FORCEMINIMIZE);

	push	11					; 0000000bH
	sub	esp, 24					; 00000018H
	push	esp
	call	?SK_SYS_GetInstallPath@@YA?AV?$basic_string@_WU?$char_traits@_W@std@@V?$allocator@_W@2@@std@@XZ ; SK_SYS_GetInstallPath
	add	esp, 4
	lea	eax, DWORD PTR $T1[ebp]
	push	eax
	call	?SK_WideCharToUTF8@@YA?AV?$basic_string@DU?$char_traits@D@std@@V?$allocator@D@2@@std@@V?$basic_string@_WU?$char_traits@_W@std@@V?$allocator@_W@2@@2@@Z ; SK_WideCharToUTF8
	add	esp, 28					; 0000001cH
; File c:\program files (x86)\microsoft visual studio\2017\community\vc\tools\msvc\14.10.25017\include\xstring

; 1628 : 		return (this->_BUF_SIZE <= _Myres);

	cmp	DWORD PTR [eax+20], 16			; 00000010H

; 1621 : 		return (_Large_string_engaged()

	jb	SHORT $LN223@SK_Inject_
; File c:\program files (x86)\microsoft visual studio\2017\community\vc\tools\msvc\14.10.25017\include\xstddef

; 643  : 	return (_Ptr);

	mov	eax, DWORD PTR [eax]
$LN223@SK_Inject_:
; File c:\users\andon\source\repos\specialk\src\injection\injection.cpp

; 1118 :       ShellExecuteA        (nullptr, "open", "SKIM64.exe", "-Inject", SK_WideCharToUTF8 (SK_SYS_GetInstallPath ()).c_str (), SW_FORCEMINIMIZE);

	push	eax
	push	OFFSET $SG148200
	push	OFFSET $SG148201
	push	OFFSET $SG148202
	push	0
	call	DWORD PTR __imp__ShellExecuteA@24
; File c:\program files (x86)\microsoft visual studio\2017\community\vc\tools\msvc\14.10.25017\include\xstring

; 1628 : 		return (this->_BUF_SIZE <= _Myres);

	mov	eax, DWORD PTR $T1[ebp+20]
	cmp	eax, 16					; 00000010H

; 3608 : 		if (_My_data._Large_string_engaged())

	jb	SHORT $LN232@SK_Inject_
; File c:\program files (x86)\microsoft visual studio\2017\community\vc\tools\msvc\14.10.25017\include\xmemory0

; 823  : 		_Deallocate(_Ptr, _Count, sizeof (_Ty));

	push	1
; File c:\program files (x86)\microsoft visual studio\2017\community\vc\tools\msvc\14.10.25017\include\xstring

; 3613 : 			_Al.deallocate(_Ptr, _My_data._Myres + 1);

	inc	eax
; File c:\program files (x86)\microsoft visual studio\2017\community\vc\tools\msvc\14.10.25017\include\xmemory0

; 823  : 		_Deallocate(_Ptr, _Count, sizeof (_Ty));

	push	eax
	push	DWORD PTR $T1[ebp]
	call	?_Deallocate@std@@YAXPAXII@Z		; std::_Deallocate
	add	esp, 12					; 0000000cH
$LN232@SK_Inject_:
; File c:\users\andon\source\repos\specialk\src\injection\injection.cpp

; 1119 :       SleepEx              (100UL, FALSE);

	push	0
	push	100					; 00000064H
	call	DWORD PTR __imp__SleepEx@8

; 1120 :       SK_ExitRemoteProcess (L"SKIM64.exe", 0x00);

	push	0
	push	OFFSET $SG148203
	call	?SK_ExitRemoteProcess@@YA_NPB_WI@Z	; SK_ExitRemoteProcess
	add	esp, 8
$LN5@SK_Inject_:

; 1124 :   SetCurrentDirectoryW (wszCurrentDir);

	lea	eax, DWORD PTR _wszCurrentDir$[ebp]
	push	eax
	call	DWORD PTR __imp__SetCurrentDirectoryW@4

; 1125 : }

	pop	esi
	pop	ebx
	mov	esp, ebp
	pop	ebp
	ret	0
?SK_Inject_Stop@@YAXXZ ENDP				; SK_Inject_Stop
_TEXT	ENDS
; Function compile flags: /Ogtp
; File c:\users\andon\source\repos\specialk\src\injection\injection.cpp
_TEXT	SEGMENT
_pe32$ = -564						; size = 556
_wszProcName$ = 8					; size = 4
_uExitCode$ = 12					; size = 4
?SK_ExitRemoteProcess@@YA_NPB_WI@Z PROC			; SK_ExitRemoteProcess

; 1029 : {

	npad	2
	push	ebp
	mov	ebp, esp
	sub	esp, 564				; 00000234H

; 1030 :   UNREFERENCED_PARAMETER (uExitCode);
; 1031 : 
; 1032 : 
; 1033 :   PROCESSENTRY32 pe32      = { };

	lea	eax, DWORD PTR _pe32$[ebp]
	push	esi
	push	556					; 0000022cH
	push	0
	push	eax
	call	_memset
	add	esp, 12					; 0000000cH

; 1034 :   HANDLE         hProcSnap =
; 1035 :     CreateToolhelp32Snapshot (TH32CS_SNAPPROCESS, 0);

	push	0
	push	2
	call	_CreateToolhelp32Snapshot@8
	mov	esi, eax

; 1036 : 
; 1037 :   if (hProcSnap == INVALID_HANDLE_VALUE)

	cmp	esi, -1
	je	SHORT $LN21@SK_ExitRem

; 1038 :     return false;
; 1039 : 
; 1040 :   pe32.dwSize = sizeof PROCESSENTRY32;
; 1041 : 
; 1042 :   if (! Process32First (hProcSnap, &pe32))

	lea	eax, DWORD PTR _pe32$[ebp]
	mov	DWORD PTR _pe32$[ebp], 556		; 0000022cH
	push	eax
	push	esi
	call	_Process32FirstW@8
	test	eax, eax
	jne	SHORT $LN18@SK_ExitRem

; 1043 :   {
; 1044 :     CloseHandle (hProcSnap);

	push	esi
	call	DWORD PTR __imp__CloseHandle@4
$LN21@SK_ExitRem:

; 1045 :     return false;

	xor	al, al
	pop	esi

; 1064 : }

	mov	esp, ebp
	pop	ebp
	ret	0
$LN18@SK_ExitRem:
	push	ebx

; 1045 :     return false;

	mov	ebx, DWORD PTR __imp__StrStrIW@8
	push	edi
	mov	edi, DWORD PTR _wszProcName$[ebp]
$LL4@SK_ExitRem:

; 1046 :   }
; 1047 : 
; 1048 :   do
; 1049 :   {
; 1050 :     if (StrStrIW (wszProcName, pe32.szExeFile))

	lea	eax, DWORD PTR _pe32$[ebp+36]
	push	eax
	push	edi
	call	ebx
	test	eax, eax
	jne	SHORT $LN10@SK_ExitRem

; 1058 :     }
; 1059 :   } while (Process32Next (hProcSnap, &pe32));

	lea	eax, DWORD PTR _pe32$[ebp]
	push	eax
	push	esi
	call	_Process32NextW@8
	test	eax, eax
	jne	SHORT $LL4@SK_ExitRem

; 1060 : 
; 1061 :   CloseHandle (hProcSnap);

	push	esi
	call	DWORD PTR __imp__CloseHandle@4
	pop	edi
	pop	ebx

; 1062 : 
; 1063 :   return false;

	xor	al, al
	pop	esi

; 1064 : }

	mov	esp, ebp
	pop	ebp
	ret	0
$LN10@SK_ExitRem:

; 1051 :     {
; 1052 :       window_t win = SK_FindRootWindow (pe32.th32ProcessID);

	push	DWORD PTR _pe32$[ebp+8]
	call	?SK_FindRootWindow@@YA?AUwindow_t@@K@Z	; SK_FindRootWindow
	add	esp, 4

; 1053 : 
; 1054 :       SendMessage (win.root, WM_USER + 0x123, 0x00, 0x00);

	push	0
	push	0
	push	1315					; 00000523H
	push	edx
	call	DWORD PTR __imp__SendMessageW@16

; 1055 : 
; 1056 :       CloseHandle (hProcSnap);

	push	esi
	call	DWORD PTR __imp__CloseHandle@4
	pop	edi
	pop	ebx

; 1057 :       return true;

	mov	al, 1
	pop	esi

; 1064 : }

	mov	esp, ebp
	pop	ebp
	ret	0
?SK_ExitRemoteProcess@@YA_NPB_WI@Z ENDP			; SK_ExitRemoteProcess
_TEXT	ENDS
; Function compile flags: /Ogtp
; File c:\users\andon\source\repos\specialk\src\injection\injection.cpp
;	COMDAT ??B<lambda_f14ec5e87491314fd4de237527dc1a25>@@QBEP6GKPAX@ZXZ
_TEXT	SEGMENT
??B<lambda_f14ec5e87491314fd4de237527dc1a25>@@QBEP6GKPAX@ZXZ PROC ; <lambda_f14ec5e87491314fd4de237527dc1a25>::operator unsigned long (__stdcall*)(void *), COMDAT
; _this$ = ecx

; 557  :              },

	mov	eax, OFFSET ?<lambda_invoker_stdcall>@<lambda_f14ec5e87491314fd4de237527dc1a25>@@CGKPAX@Z ; <lambda_f14ec5e87491314fd4de237527dc1a25>::<lambda_invoker_stdcall>
	ret	0
??B<lambda_f14ec5e87491314fd4de237527dc1a25>@@QBEP6GKPAX@ZXZ ENDP ; <lambda_f14ec5e87491314fd4de237527dc1a25>::operator unsigned long (__stdcall*)(void *)
_TEXT	ENDS
; Function compile flags: /Ogtp
; File c:\users\andon\source\repos\specialk\src\injection\injection.cpp
;	COMDAT ?<lambda_invoker_stdcall>@<lambda_f14ec5e87491314fd4de237527dc1a25>@@CGKPAX@Z
_TEXT	SEGMENT
_user$ = 8						; size = 4
?<lambda_invoker_stdcall>@<lambda_f14ec5e87491314fd4de237527dc1a25>@@CGKPAX@Z PROC ; <lambda_f14ec5e87491314fd4de237527dc1a25>::<lambda_invoker_stdcall>, COMDAT

; 557  :              },

	npad	2
	push	ebp
	mov	ebp, esp
	xor	ecx, ecx
	pop	ebp
	jmp	??R<lambda_f14ec5e87491314fd4de237527dc1a25>@@QBEKPAX@Z ; <lambda_f14ec5e87491314fd4de237527dc1a25>::operator()
?<lambda_invoker_stdcall>@<lambda_f14ec5e87491314fd4de237527dc1a25>@@CGKPAX@Z ENDP ; <lambda_f14ec5e87491314fd4de237527dc1a25>::<lambda_invoker_stdcall>
_TEXT	ENDS
; Function compile flags: /Ogtp
; File c:\users\andon\source\repos\specialk\src\injection\injection.cpp
; File c:\program files (x86)\windows kits\8.1\include\um\winnt.h
; File c:\users\andon\source\repos\specialk\src\injection\injection.cpp
;	COMDAT ??R<lambda_f14ec5e87491314fd4de237527dc1a25>@@QBEKPAX@Z
_TEXT	SEGMENT
_user$ = 8						; size = 4
??R<lambda_f14ec5e87491314fd4de237527dc1a25>@@QBEKPAX@Z PROC ; <lambda_f14ec5e87491314fd4de237527dc1a25>::operator(), COMDAT
; _this$ = ecx

; 543  :              {

	npad	2
	push	ebp
	mov	ebp, esp

; 544  :                if (g_hShutdown != nullptr)

	cmp	DWORD PTR ?g_hShutdown@@3RAXA, 0	; g_hShutdown
	je	SHORT $LN21@operator

; 545  :                  WaitForSingleObject (g_hShutdown, INFINITE);

	mov	eax, DWORD PTR ?g_hShutdown@@3RAXA	; g_hShutdown
	push	-1
	push	eax
	call	DWORD PTR __imp__WaitForSingleObject@8
$LN21@operator:
	push	esi
	mov	esi, DWORD PTR __imp__SleepEx@8
$LL2@operator:
; File c:\program files (x86)\windows kits\8.1\include\um\winnt.h

; 8063 :     Value = *Source;

	mov	eax, DWORD PTR ?__SK_DLL_Attached@@3JC	; __SK_DLL_Attached
; File c:\users\andon\source\repos\specialk\src\injection\injection.cpp

; 547  :                while ( ReadAcquire (&__SK_DLL_Attached) || (! SK_IsHostAppSKIM ()))

	test	eax, eax
	jne	SHORT $LN5@operator
	call	?SK_IsHostAppSKIM@@YA_NXZ		; SK_IsHostAppSKIM
	test	al, al
	jne	SHORT $LN3@operator
$LN5@operator:

; 548  :                  SleepEx (250UL, FALSE);

	push	0
	push	250					; 000000faH
	call	esi
	jmp	SHORT $LL2@operator
$LN3@operator:

; 549  : 
; 550  : 
; 551  :                if (PtrToInt (user) != -128)

	cmp	DWORD PTR _user$[ebp], -128		; ffffff80H
	pop	esi
	je	SHORT $LN6@operator

; 552  :                  ExitProcess (0x00);

	push	0
	call	DWORD PTR __imp__ExitProcess@4
$LN24@operator:
$LN6@operator:

; 553  :                else
; 554  :                  CloseHandle (GetCurrentThread ());

	call	DWORD PTR __imp__GetCurrentThread@0
	push	eax
	call	DWORD PTR __imp__CloseHandle@4

; 555  : 
; 556  :                return 0;

	xor	eax, eax

; 557  :              },

	pop	ebp
	ret	4
$LN23@operator:
??R<lambda_f14ec5e87491314fd4de237527dc1a25>@@QBEKPAX@Z ENDP ; <lambda_f14ec5e87491314fd4de237527dc1a25>::operator()
_TEXT	ENDS
; Function compile flags: /Ogtp
; File c:\users\andon\source\repos\specialk\src\injection\injection.cpp
_TEXT	SEGMENT
_hwnd$ = 8						; size = 4
_hInst$ = 12						; size = 4
_dwPID$1 = 16						; size = 4
_lpszCmdLine$ = 16					; size = 4
_nCmdShow$ = 20						; size = 4
?RunDLL_InjectionManager@@YGXPAUHWND__@@PAUHINSTANCE__@@PADH@Z PROC ; RunDLL_InjectionManager

; 519  : {

	npad	2
	push	ebp
	mov	ebp, esp
	push	esi

; 520  :   UNREFERENCED_PARAMETER (hInst);
; 521  :   UNREFERENCED_PARAMETER (hwnd);
; 522  : 
; 523  :   if (StrStrA (lpszCmdLine, "Install") && (! SKX_IsHookingCBT ()))

	mov	esi, DWORD PTR _lpszCmdLine$[ebp]
	push	OFFSET $SG147763
	push	esi
	call	DWORD PTR __imp__StrStrA@8
	test	eax, eax
	je	SHORT $LN2@RunDLL_Inj
	call	?SKX_IsHookingCBT@@YG_NXZ		; SKX_IsHookingCBT
	test	al, al
	jne	SHORT $LN2@RunDLL_Inj

; 524  :   {
; 525  :     SKX_InstallCBTHook ();

	call	?SKX_InstallCBTHook@@YGXXZ		; SKX_InstallCBTHook

; 526  : 
; 527  :     if (SKX_IsHookingCBT ())

	call	?SKX_IsHookingCBT@@YG_NXZ		; SKX_IsHookingCBT
	test	al, al
	je	$LN8@RunDLL_Inj

; 528  :     {
; 529  : #ifndef _WIN64
; 530  :       FILE* fPID = fopen ("SpecialK32.pid", "w");

	push	OFFSET $SG147765
	push	OFFSET $SG147766
	call	DWORD PTR __imp__fopen
	mov	esi, eax
	add	esp, 8

; 531  : #else
; 532  :       FILE* fPID = fopen ("SpecialK64.pid", "w");
; 533  : #endif
; 534  : 
; 535  :       if (fPID)

	test	esi, esi
	je	$LN8@RunDLL_Inj

; 536  :       {
; 537  :         fprintf (fPID, "%lu\n", GetCurrentProcessId ());

	call	DWORD PTR __imp__GetCurrentProcessId@0
	push	eax
	push	OFFSET $SG147768
	push	esi
	call	_fprintf

; 538  :         fclose  (fPID);

	push	esi
	call	DWORD PTR __imp__fclose
	add	esp, 16					; 00000010H

; 539  : 
; 540  :         CreateThread ( nullptr, 0,

	push	0
	push	0
	push	DWORD PTR _nCmdShow$[ebp]
	push	OFFSET ?<lambda_invoker_stdcall>@<lambda_f14ec5e87491314fd4de237527dc1a25>@@CGKPAX@Z ; <lambda_f14ec5e87491314fd4de237527dc1a25>::<lambda_invoker_stdcall>
	push	0
	push	0
	call	DWORD PTR __imp__CreateThread@24

; 541  :          [](LPVOID user) ->
; 542  :            DWORD
; 543  :              {
; 544  :                if (g_hShutdown != nullptr)
; 545  :                  WaitForSingleObject (g_hShutdown, INFINITE);
; 546  : 
; 547  :                while ( ReadAcquire (&__SK_DLL_Attached) || (! SK_IsHostAppSKIM ()))
; 548  :                  SleepEx (250UL, FALSE);
; 549  : 
; 550  : 
; 551  :                if (PtrToInt (user) != -128)
; 552  :                  ExitProcess (0x00);
; 553  :                else
; 554  :                  CloseHandle (GetCurrentThread ());
; 555  : 
; 556  :                return 0;
; 557  :              },
; 558  :              UIntToPtr (nCmdShow),
; 559  :            0x00,
; 560  :          nullptr );
; 561  : 
; 562  :         SleepEx (INFINITE, FALSE);

	push	0
	push	-1
	call	DWORD PTR __imp__SleepEx@8

; 563  :       }
; 564  :     }
; 565  :   }

	jmp	SHORT $LN8@RunDLL_Inj
$LN2@RunDLL_Inj:

; 566  : 
; 567  :   else if (StrStrA (lpszCmdLine, "Remove"))

	push	OFFSET $SG147770
	push	esi
	call	DWORD PTR __imp__StrStrA@8
	test	eax, eax
	je	SHORT $LN8@RunDLL_Inj

; 568  :   {
; 569  :     SKX_RemoveCBTHook ();

	call	?SKX_RemoveCBTHook@@YGXXZ		; SKX_RemoveCBTHook

; 570  : 
; 571  : #ifndef _WIN64
; 572  :     FILE* fPID = fopen ("SpecialK32.pid", "r");

	push	OFFSET $SG147771
	push	OFFSET $SG147772
	call	DWORD PTR __imp__fopen
	mov	esi, eax
	add	esp, 8

; 573  : #else
; 574  :     FILE* fPID = fopen ("SpecialK64.pid", "r");
; 575  : #endif
; 576  : 
; 577  :     if (fPID != nullptr)

	test	esi, esi
	je	SHORT $LN8@RunDLL_Inj

; 578  :     {
; 579  :                       DWORD dwPID = 0;
; 580  :       fscanf (fPID, "%lu", &dwPID);

	lea	eax, DWORD PTR _dwPID$1[ebp]
	mov	DWORD PTR _dwPID$1[ebp], 0
	push	eax
	push	OFFSET $SG147774
	push	esi
	call	_fscanf

; 581  :       fclose (fPID);

	push	esi
	call	DWORD PTR __imp__fclose
	add	esp, 16					; 00000010H

; 582  : 
; 583  :       if (dwPID == GetCurrentProcessId () || SK_TerminatePID (dwPID, 0x00))

	call	DWORD PTR __imp__GetCurrentProcessId@0
	mov	ecx, DWORD PTR _dwPID$1[ebp]
	cmp	ecx, eax
	je	SHORT $LN9@RunDLL_Inj
	push	0
	push	ecx
	call	?SK_TerminatePID@@YAHKI@Z		; SK_TerminatePID
	add	esp, 8
	test	eax, eax
	je	SHORT $LN8@RunDLL_Inj
$LN9@RunDLL_Inj:

; 584  :       {
; 585  : #ifndef _WIN64
; 586  :         DeleteFileA ("SpecialK32.pid");

	push	OFFSET $SG147777
	call	DWORD PTR __imp__DeleteFileA@4
$LN8@RunDLL_Inj:

; 587  : #else
; 588  :         DeleteFileA ("SpecialK64.pid");
; 589  : #endif
; 590  :       }
; 591  :     }
; 592  :   }
; 593  : 
; 594  :   if (nCmdShow != -128)

	cmp	DWORD PTR _nCmdShow$[ebp], -128		; ffffff80H
	pop	esi
	je	SHORT $LN10@RunDLL_Inj

; 595  :    ExitProcess (0x00);

	push	0
	call	DWORD PTR __imp__ExitProcess@4
$LN17@RunDLL_Inj:
$LN10@RunDLL_Inj:

; 596  : }

	pop	ebp
	ret	16					; 00000010H
$LN16@RunDLL_Inj:
?RunDLL_InjectionManager@@YGXPAUHWND__@@PAUHINSTANCE__@@PADH@Z ENDP ; RunDLL_InjectionManager
_TEXT	ENDS
; Function compile flags: /Ogtp
; File c:\users\andon\source\repos\specialk\src\injection\injection.cpp
_TEXT	SEGMENT
?SKX_IsHookingShell@@YG_NXZ PROC			; SKX_IsHookingShell

; 507  :   return (g_hHookShell != nullptr);

	mov	eax, DWORD PTR ?g_hHookShell@@3RAUHHOOK__@@A ; g_hHookShell
	neg	eax
	sbb	eax, eax
	neg	eax

; 508  : }

	ret	0
?SKX_IsHookingShell@@YG_NXZ ENDP			; SKX_IsHookingShell
_TEXT	ENDS
; Function compile flags: /Ogtp
; File c:\users\andon\source\repos\specialk\src\injection\injection.cpp
_TEXT	SEGMENT
?SKX_RemoveShellHook@@YGXXZ PROC			; SKX_RemoveShellHook

; 490  :   if (g_hShutdown != nullptr)

	cmp	DWORD PTR ?g_hShutdown@@3RAXA, 0	; g_hShutdown
	je	SHORT $LN2@SKX_Remove

; 491  :     SetEvent (g_hShutdown);

	mov	eax, DWORD PTR ?g_hShutdown@@3RAXA	; g_hShutdown
	push	eax
	call	DWORD PTR __imp__SetEvent@4
$LN2@SKX_Remove:

; 492  : 
; 493  :   if (g_hHookShell)

	cmp	DWORD PTR ?g_hHookShell@@3RAUHHOOK__@@A, 0 ; g_hHookShell
	je	SHORT $LN4@SKX_Remove

; 494  :   {
; 495  :     if (UnhookWindowsHookEx (g_hHookShell))

	mov	eax, DWORD PTR ?g_hHookShell@@3RAUHHOOK__@@A ; g_hHookShell
	push	eax
	call	DWORD PTR __imp__UnhookWindowsHookEx@4
	test	eax, eax
	je	SHORT $LN4@SKX_Remove

; 496  :     {
; 497  :       __SK_HookContextOwner = false;

	mov	DWORD PTR ?__SK_HookContextOwner@@3JC, 0 ; __SK_HookContextOwner

; 498  :       g_hHookShell = nullptr;

	mov	DWORD PTR ?g_hHookShell@@3RAUHHOOK__@@A, 0 ; g_hHookShell
$LN4@SKX_Remove:

; 499  :     }
; 500  :   }
; 501  : }

	ret	0
?SKX_RemoveShellHook@@YGXXZ ENDP			; SKX_RemoveShellHook
_TEXT	ENDS
; Function compile flags: /Ogtp
; File c:\users\andon\source\repos\specialk\src\injection\injection.cpp
_TEXT	SEGMENT
_hMod$ = -4						; size = 4
?SKX_InstallShellHook@@YGXXZ PROC			; SKX_InstallShellHook

; 446  : {

	npad	2
	push	ebp
	mov	ebp, esp
	push	ecx

; 447  :   // Nothing to do here, move along.
; 448  :   if (g_hHookShell != nullptr)

	cmp	DWORD PTR ?g_hHookShell@@3RAUHHOOK__@@A, 0 ; g_hHookShell
	jne	SHORT $LN5@SKX_Instal

; 449  :     return;
; 450  : 
; 451  :   HMODULE hMod = nullptr;
; 452  : 
; 453  :   GetModuleHandleEx ( GET_MODULE_HANDLE_EX_FLAG_UNCHANGED_REFCOUNT,

	lea	eax, DWORD PTR _hMod$[ebp]
	mov	DWORD PTR _hMod$[ebp], 0
	push	eax
	push	OFFSET $SG147667
	push	2
	call	DWORD PTR __imp__GetModuleHandleExW@12

; 454  : #ifdef _WIN64
; 455  :                           L"SpecialK64.dll",
; 456  : #else
; 457  :                           L"SpecialK32.dll",
; 458  : #endif
; 459  :                           (HMODULE *) &hMod );
; 460  : 
; 461  :   extern HMODULE
; 462  :   __stdcall
; 463  :   SK_GetDLL (void);
; 464  : 
; 465  :   if (hMod == SK_GetDLL ())

	call	?SK_GetDLL@@YGPAUHINSTANCE__@@XZ	; SK_GetDLL
	cmp	DWORD PTR _hMod$[ebp], eax
	jne	SHORT $LN5@SKX_Instal

; 466  :   {
; 467  :     if (g_hShutdown == nullptr)

	cmp	DWORD PTR ?g_hShutdown@@3RAXA, 0	; g_hShutdown
	jne	SHORT $LN4@SKX_Instal

; 468  :     {
; 469  : #ifdef _WIN64
; 470  :       g_hShutdown = CreateEvent (nullptr, TRUE, FALSE, L"SpecialK64_Reset");
; 471  : #else
; 472  :       g_hShutdown = CreateEvent (nullptr, TRUE, FALSE, L"SpecialK32_Reset");

	push	OFFSET $SG147670
	push	0
	push	1
	push	0
	call	DWORD PTR __imp__CreateEventW@16
	mov	DWORD PTR ?g_hShutdown@@3RAXA, eax	; g_hShutdown
$LN4@SKX_Instal:

; 473  : #endif
; 474  :     }
; 475  : 
; 476  :     g_hHookShell =

	push	0
	push	DWORD PTR _hMod$[ebp]
	push	OFFSET ?ShellProc@@YGJHIJ@Z		; ShellProc
	push	10					; 0000000aH
	call	DWORD PTR __imp__SetWindowsHookExW@16
	mov	DWORD PTR ?g_hHookShell@@3RAUHHOOK__@@A, eax ; g_hHookShell

; 477  :       SetWindowsHookEx (WH_SHELL, ShellProc, hMod, 0);
; 478  : 
; 479  :     if (g_hHookShell != nullptr)

	cmp	DWORD PTR ?g_hHookShell@@3RAUHHOOK__@@A, 0 ; g_hHookShell
	je	SHORT $LN5@SKX_Instal

; 480  :     {
; 481  :       __SK_HookContextOwner = true;

	mov	DWORD PTR ?__SK_HookContextOwner@@3JC, 1 ; __SK_HookContextOwner
$LN5@SKX_Instal:

; 482  :     }
; 483  :   }
; 484  : }

	mov	esp, ebp
	pop	ebp
	ret	0
?SKX_InstallShellHook@@YGXXZ ENDP			; SKX_InstallShellHook
_TEXT	ENDS
; Function compile flags: /Ogtp
; File c:\users\andon\source\repos\specialk\src\injection\injection.cpp
_TEXT	SEGMENT
_dwProcessId$ = 8					; size = 4
_uExitCode$ = 12					; size = 4
?SK_TerminatePID@@YAHKI@Z PROC				; SK_TerminatePID

; 295  : {

	npad	2
	push	ebp
	mov	ebp, esp
	push	edi

; 296  :   DWORD dwDesiredAccess = PROCESS_TERMINATE;
; 297  :   BOOL  bInheritHandle  = FALSE;
; 298  : 
; 299  :   HANDLE hProcess =
; 300  :     OpenProcess ( dwDesiredAccess, bInheritHandle, dwProcessId );

	push	DWORD PTR _dwProcessId$[ebp]
	push	0
	push	1
	call	DWORD PTR __imp__OpenProcess@12
	mov	edi, eax

; 301  : 
; 302  :   if (hProcess == nullptr)

	test	edi, edi
	jne	SHORT $LN2@SK_Termina
	pop	edi

; 311  : }

	pop	ebp
	ret	0
$LN2@SK_Termina:
	push	esi

; 303  :     return FALSE;
; 304  :   
; 305  :   BOOL result =
; 306  :     TerminateProcess (hProcess, uExitCode);

	push	DWORD PTR _uExitCode$[ebp]
	push	edi
	call	DWORD PTR __imp__TerminateProcess@8

; 307  :   
; 308  :   CloseHandle (hProcess);

	push	edi
	mov	esi, eax
	call	DWORD PTR __imp__CloseHandle@4

; 309  :   
; 310  :   return result;

	mov	eax, esi
	pop	esi
	pop	edi

; 311  : }

	pop	ebp
	ret	0
?SK_TerminatePID@@YAHKI@Z ENDP				; SK_TerminatePID
_TEXT	ENDS
; Function compile flags: /Ogtp
; File c:\users\andon\source\repos\specialk\src\injection\injection.cpp
;	COMDAT ??B<lambda_90c74cd29502a5a993a6ec8518c919e5>@@QBEP6GKPAX@ZXZ
_TEXT	SEGMENT
??B<lambda_90c74cd29502a5a993a6ec8518c919e5>@@QBEP6GKPAX@ZXZ PROC ; <lambda_90c74cd29502a5a993a6ec8518c919e5>::operator unsigned long (__stdcall*)(void *), COMDAT
; _this$ = ecx

; 281  :              },

	mov	eax, OFFSET ?<lambda_invoker_stdcall>@<lambda_90c74cd29502a5a993a6ec8518c919e5>@@CGKPAX@Z ; <lambda_90c74cd29502a5a993a6ec8518c919e5>::<lambda_invoker_stdcall>
	ret	0
??B<lambda_90c74cd29502a5a993a6ec8518c919e5>@@QBEP6GKPAX@ZXZ ENDP ; <lambda_90c74cd29502a5a993a6ec8518c919e5>::operator unsigned long (__stdcall*)(void *)
_TEXT	ENDS
; Function compile flags: /Ogtp
; File c:\users\andon\source\repos\specialk\src\injection\injection.cpp
;	COMDAT ?<lambda_invoker_stdcall>@<lambda_90c74cd29502a5a993a6ec8518c919e5>@@CGKPAX@Z
_TEXT	SEGMENT
_user$ = 8						; size = 4
?<lambda_invoker_stdcall>@<lambda_90c74cd29502a5a993a6ec8518c919e5>@@CGKPAX@Z PROC ; <lambda_90c74cd29502a5a993a6ec8518c919e5>::<lambda_invoker_stdcall>, COMDAT

; 273  :                if (g_hShutdown != nullptr)

	cmp	DWORD PTR ?g_hShutdown@@3RAXA, 0	; g_hShutdown
	je	SHORT $LN4@

; 274  :                  WaitForSingleObject (g_hShutdown, INFINITE);

	mov	eax, DWORD PTR ?g_hShutdown@@3RAXA	; g_hShutdown
	push	-1
	push	eax
	call	DWORD PTR __imp__WaitForSingleObject@8
$LN4@:

; 275  : 
; 276  :                hModHookInstance = nullptr;

	mov	DWORD PTR ?hModHookInstance@@3PAUHINSTANCE__@@A, 0 ; hModHookInstance

; 277  : 
; 278  :                CloseHandle (GetCurrentThread ());

	call	DWORD PTR __imp__GetCurrentThread@0
	push	eax
	call	DWORD PTR __imp__CloseHandle@4

; 281  :              },

	xor	eax, eax
	ret	4
?<lambda_invoker_stdcall>@<lambda_90c74cd29502a5a993a6ec8518c919e5>@@CGKPAX@Z ENDP ; <lambda_90c74cd29502a5a993a6ec8518c919e5>::<lambda_invoker_stdcall>
_TEXT	ENDS
; Function compile flags: /Ogtp
; File c:\users\andon\source\repos\specialk\src\injection\injection.cpp
;	COMDAT ??R<lambda_90c74cd29502a5a993a6ec8518c919e5>@@QBEKPAX@Z
_TEXT	SEGMENT
_user$ = 8						; size = 4
??R<lambda_90c74cd29502a5a993a6ec8518c919e5>@@QBEKPAX@Z PROC ; <lambda_90c74cd29502a5a993a6ec8518c919e5>::operator(), COMDAT
; _this$ = ecx

; 271  :                UNREFERENCED_PARAMETER (user);
; 272  : 
; 273  :                if (g_hShutdown != nullptr)

	cmp	DWORD PTR ?g_hShutdown@@3RAXA, 0	; g_hShutdown
	je	SHORT $LN2@operator

; 274  :                  WaitForSingleObject (g_hShutdown, INFINITE);

	mov	eax, DWORD PTR ?g_hShutdown@@3RAXA	; g_hShutdown
	push	-1
	push	eax
	call	DWORD PTR __imp__WaitForSingleObject@8
$LN2@operator:

; 275  : 
; 276  :                hModHookInstance = nullptr;

	mov	DWORD PTR ?hModHookInstance@@3PAUHINSTANCE__@@A, 0 ; hModHookInstance

; 277  : 
; 278  :                CloseHandle (GetCurrentThread ());

	call	DWORD PTR __imp__GetCurrentThread@0
	push	eax
	call	DWORD PTR __imp__CloseHandle@4

; 279  : 
; 280  :                return 0;

	xor	eax, eax

; 281  :              },

	ret	4
??R<lambda_90c74cd29502a5a993a6ec8518c919e5>@@QBEKPAX@Z ENDP ; <lambda_90c74cd29502a5a993a6ec8518c919e5>::operator()
_TEXT	ENDS
; Function compile flags: /Ogtp
; File c:\users\andon\source\repos\specialk\src\injection\injection.cpp
_TEXT	SEGMENT
_nCode$ = 8						; size = 4
_wParam$ = 12						; size = 4
_lParam$ = 16						; size = 4
?ShellProc@@YGJHIJ@Z PROC				; ShellProc

; 244  : {

	npad	2
	push	ebp
	mov	ebp, esp
	push	esi

; 245  :   if (nCode < 0)

	mov	esi, DWORD PTR _nCode$[ebp]
	test	esi, esi
	js	SHORT $LN3@ShellProc

; 246  :     return CallNextHookEx (g_hHookShell, nCode, wParam, lParam);
; 247  : 
; 248  : 
; 249  :   if (hModHookInstance == nullptr && g_hHookShell)

	cmp	DWORD PTR ?hModHookInstance@@3PAUHINSTANCE__@@A, 0 ; hModHookInstance
	jne	SHORT $LN3@ShellProc
	cmp	DWORD PTR ?g_hHookShell@@3RAUHHOOK__@@A, 0 ; g_hHookShell
	je	SHORT $LN3@ShellProc

; 250  :   {
; 251  :     static volatile LONG lHookIters = 0L;
; 252  : 
; 253  :     // Don't create that thread more than once, but don't bother with a complete
; 254  :     //   critical section.
; 255  :     if (InterlockedIncrement (&lHookIters) > 1L)

	mov	eax, 1
	lock	 xadd	 DWORD PTR ?lHookIters@?6??ShellProc@@YGJHIJ@Z@4JC, eax
	inc	eax
	cmp	eax, 1
	jg	SHORT $LN3@ShellProc

; 256  :       return CallNextHookEx (g_hHookShell, nCode, wParam, lParam);
; 257  : 
; 258  :     GetModuleHandleEx ( GET_MODULE_HANDLE_EX_FLAG_UNCHANGED_REFCOUNT,

	push	OFFSET ?hModHookInstance@@3PAUHINSTANCE__@@A ; hModHookInstance
	push	OFFSET $SG147607
	push	2
	call	DWORD PTR __imp__GetModuleHandleExW@12

; 259  : #ifdef _WIN64
; 260  :                           L"SpecialK64.dll",
; 261  : #else
; 262  :                           L"SpecialK32.dll",
; 263  : #endif
; 264  :                             (HMODULE *) &hModHookInstance );
; 265  : 
; 266  :     // Get and keep a reference to this DLL if this is the first time we are injecting.
; 267  :     CreateThread ( nullptr, 0,

	push	0
	push	0
	push	0
	push	OFFSET ?<lambda_invoker_stdcall>@<lambda_90c74cd29502a5a993a6ec8518c919e5>@@CGKPAX@Z ; <lambda_90c74cd29502a5a993a6ec8518c919e5>::<lambda_invoker_stdcall>
	push	0
	push	0
	call	DWORD PTR __imp__CreateThread@24
$LN3@ShellProc:

; 268  :          [](LPVOID user) ->
; 269  :            DWORD
; 270  :              {
; 271  :                UNREFERENCED_PARAMETER (user);
; 272  : 
; 273  :                if (g_hShutdown != nullptr)
; 274  :                  WaitForSingleObject (g_hShutdown, INFINITE);
; 275  : 
; 276  :                hModHookInstance = nullptr;
; 277  : 
; 278  :                CloseHandle (GetCurrentThread ());
; 279  : 
; 280  :                return 0;
; 281  :              },
; 282  :            nullptr,
; 283  :          0x00,
; 284  :        nullptr
; 285  :     );
; 286  :   }
; 287  : 
; 288  : 
; 289  :   return CallNextHookEx (g_hHookShell, nCode, wParam, lParam);

	push	DWORD PTR _lParam$[ebp]
	mov	eax, DWORD PTR ?g_hHookShell@@3RAUHHOOK__@@A ; g_hHookShell
	push	DWORD PTR _wParam$[ebp]
	push	esi
	push	eax
	call	DWORD PTR __imp__CallNextHookEx@16
	pop	esi

; 290  : }

	pop	ebp
	ret	12					; 0000000cH
?ShellProc@@YGJHIJ@Z ENDP				; ShellProc
_TEXT	ENDS
; Function compile flags: /Ogtp
; File c:\users\andon\source\repos\specialk\src\injection\injection.cpp
;	COMDAT ??B<lambda_0b64b922eede83fc8ad9efc12102c151>@@QBEP6GKPAX@ZXZ
_TEXT	SEGMENT
??B<lambda_0b64b922eede83fc8ad9efc12102c151>@@QBEP6GKPAX@ZXZ PROC ; <lambda_0b64b922eede83fc8ad9efc12102c151>::operator unsigned long (__stdcall*)(void *), COMDAT
; _this$ = ecx

; 228  :              },

	mov	eax, OFFSET ?<lambda_invoker_stdcall>@<lambda_0b64b922eede83fc8ad9efc12102c151>@@CGKPAX@Z ; <lambda_0b64b922eede83fc8ad9efc12102c151>::<lambda_invoker_stdcall>
	ret	0
??B<lambda_0b64b922eede83fc8ad9efc12102c151>@@QBEP6GKPAX@ZXZ ENDP ; <lambda_0b64b922eede83fc8ad9efc12102c151>::operator unsigned long (__stdcall*)(void *)
_TEXT	ENDS
; Function compile flags: /Ogtp
; File c:\users\andon\source\repos\specialk\src\injection\injection.cpp
;	COMDAT ?<lambda_invoker_stdcall>@<lambda_0b64b922eede83fc8ad9efc12102c151>@@CGKPAX@Z
_TEXT	SEGMENT
_user$ = 8						; size = 4
?<lambda_invoker_stdcall>@<lambda_0b64b922eede83fc8ad9efc12102c151>@@CGKPAX@Z PROC ; <lambda_0b64b922eede83fc8ad9efc12102c151>::<lambda_invoker_stdcall>, COMDAT

; 220  :                if (g_hShutdown != nullptr)

	cmp	DWORD PTR ?g_hShutdown@@3RAXA, 0	; g_hShutdown
	je	SHORT $LN4@

; 221  :                  WaitForSingleObject (g_hShutdown, INFINITE);

	mov	eax, DWORD PTR ?g_hShutdown@@3RAXA	; g_hShutdown
	push	-1
	push	eax
	call	DWORD PTR __imp__WaitForSingleObject@8
$LN4@:

; 222  : 
; 223  :                hModHookInstance = nullptr;

	mov	DWORD PTR ?hModHookInstance@@3PAUHINSTANCE__@@A, 0 ; hModHookInstance

; 224  : 
; 225  :                CloseHandle (GetCurrentThread ());

	call	DWORD PTR __imp__GetCurrentThread@0
	push	eax
	call	DWORD PTR __imp__CloseHandle@4

; 228  :              },

	xor	eax, eax
	ret	4
?<lambda_invoker_stdcall>@<lambda_0b64b922eede83fc8ad9efc12102c151>@@CGKPAX@Z ENDP ; <lambda_0b64b922eede83fc8ad9efc12102c151>::<lambda_invoker_stdcall>
_TEXT	ENDS
; Function compile flags: /Ogtp
; File c:\users\andon\source\repos\specialk\src\injection\injection.cpp
;	COMDAT ??R<lambda_0b64b922eede83fc8ad9efc12102c151>@@QBEKPAX@Z
_TEXT	SEGMENT
_user$ = 8						; size = 4
??R<lambda_0b64b922eede83fc8ad9efc12102c151>@@QBEKPAX@Z PROC ; <lambda_0b64b922eede83fc8ad9efc12102c151>::operator(), COMDAT
; _this$ = ecx

; 218  :                UNREFERENCED_PARAMETER (user);
; 219  : 
; 220  :                if (g_hShutdown != nullptr)

	cmp	DWORD PTR ?g_hShutdown@@3RAXA, 0	; g_hShutdown
	je	SHORT $LN2@operator

; 221  :                  WaitForSingleObject (g_hShutdown, INFINITE);

	mov	eax, DWORD PTR ?g_hShutdown@@3RAXA	; g_hShutdown
	push	-1
	push	eax
	call	DWORD PTR __imp__WaitForSingleObject@8
$LN2@operator:

; 222  : 
; 223  :                hModHookInstance = nullptr;

	mov	DWORD PTR ?hModHookInstance@@3PAUHINSTANCE__@@A, 0 ; hModHookInstance

; 224  : 
; 225  :                CloseHandle (GetCurrentThread ());

	call	DWORD PTR __imp__GetCurrentThread@0
	push	eax
	call	DWORD PTR __imp__CloseHandle@4

; 226  : 
; 227  :                return 0;

	xor	eax, eax

; 228  :              },

	ret	4
??R<lambda_0b64b922eede83fc8ad9efc12102c151>@@QBEKPAX@Z ENDP ; <lambda_0b64b922eede83fc8ad9efc12102c151>::operator()
_TEXT	ENDS
; Function compile flags: /Ogtp
; File c:\users\andon\source\repos\specialk\src\injection\injection.cpp
; File c:\program files (x86)\windows kits\8.1\include\um\winnt.h
; File c:\users\andon\source\repos\specialk\src\injection\injection.cpp
_TEXT	SEGMENT
_<range>$L0$1 = -4					; size = 4
_dwThreadId$ = 8					; size = 4
?SK_Inject_InvadingProcess@@YA_NK@Z PROC		; SK_Inject_InvadingProcess

; 174  : {

	npad	2
	push	ebp
	mov	ebp, esp
	push	ecx

; 175  :   for (volatile LONG& g_sHookedPID : g_sHookedPIDs)

	mov	DWORD PTR _<range>$L0$1[ebp], OFFSET ?g_sHookedPIDs@@3RCJC
	mov	eax, DWORD PTR _<range>$L0$1[ebp]
	cmp	eax, OFFSET ?g_sHookedPIDs@@3RCJC+64
	je	SHORT $LN3@SK_Inject_
	mov	edx, DWORD PTR _dwThreadId$[ebp]
	npad	6
$LL4@SK_Inject_:
; File c:\program files (x86)\windows kits\8.1\include\um\winnt.h

; 8063 :     Value = *Source;

	mov	ecx, DWORD PTR [eax]
; File c:\users\andon\source\repos\specialk\src\injection\injection.cpp

; 177  :     if (ReadAcquire (&g_sHookedPID) == static_cast <LONG> (dwThreadId))

	cmp	ecx, edx
	je	SHORT $LN10@SK_Inject_

; 175  :   for (volatile LONG& g_sHookedPID : g_sHookedPIDs)

	add	eax, 4
	cmp	eax, OFFSET ?g_sHookedPIDs@@3RCJC+64
	jne	SHORT $LL4@SK_Inject_
$LN3@SK_Inject_:

; 179  :   }
; 180  : 
; 181  :   return false;

	xor	al, al

; 182  : }

	mov	esp, ebp
	pop	ebp
	ret	0
$LN10@SK_Inject_:

; 178  :       return true;

	mov	al, 1

; 182  : }

	mov	esp, ebp
	pop	ebp
	ret	0
?SK_Inject_InvadingProcess@@YA_NK@Z ENDP		; SK_Inject_InvadingProcess
_TEXT	ENDS
; Function compile flags: /Ogtp
; File c:\users\andon\source\repos\specialk\src\injection\injection.cpp
; File c:\program files (x86)\windows kits\8.1\include\um\winnt.h
; File c:\users\andon\source\repos\specialk\src\injection\injection.cpp
; File c:\program files (x86)\windows kits\8.1\include\um\winnt.h
; File c:\users\andon\source\repos\specialk\src\injection\injection.cpp
; File c:\program files (x86)\windows kits\8.1\include\um\winnt.h
; File c:\users\andon\source\repos\specialk\src\injection\injection.cpp
_TEXT	SEGMENT
_dwExitCode$1 = -4					; size = 4
_<range>$L0$2 = -4					; size = 4
?SK_Inject_ValidateProcesses@@YAXXZ PROC		; SK_Inject_ValidateProcesses

; 73   : {

	npad	2
	push	ebp
	mov	ebp, esp
	push	ecx
	push	esi

; 74   :   for (volatile LONG& g_sHookedPID : g_sHookedPIDs)

	mov	DWORD PTR _<range>$L0$2[ebp], OFFSET ?g_sHookedPIDs@@3RCJC
	mov	esi, DWORD PTR _<range>$L0$2[ebp]
	cmp	esi, OFFSET ?g_sHookedPIDs@@3RCJC+64
	je	SHORT $LN3@SK_Inject_
	push	ebx
	mov	ebx, DWORD PTR __imp__CloseHandle@4
	push	edi
$LL4@SK_Inject_:
; File c:\program files (x86)\windows kits\8.1\include\um\winnt.h

; 8063 :     Value = *Source;

	mov	eax, DWORD PTR [esi]
; File c:\users\andon\source\repos\specialk\src\injection\injection.cpp

; 77   :       OpenProcess ( PROCESS_QUERY_INFORMATION, FALSE, 

	push	eax
	push	0
	push	1024					; 00000400H
	call	DWORD PTR __imp__OpenProcess@12
	mov	edi, eax

; 78   :                       ReadAcquire (&g_sHookedPID) );
; 79   : 
; 80   :     if (hProc == nullptr)

	test	edi, edi
	jne	SHORT $LN5@SK_Inject_
; File c:\program files (x86)\windows kits\8.1\include\um\winnt.h

; 8063 :     Value = *Source;

	mov	eax, DWORD PTR [esi]
; File c:\users\andon\source\repos\specialk\src\injection\injection.cpp

; 85   :     else

	jmp	SHORT $LN2@SK_Inject_
$LN5@SK_Inject_:

; 86   :     {
; 87   :       DWORD dwExitCode = STILL_ACTIVE;
; 88   : 
; 89   :       GetExitCodeProcess (hProc, &dwExitCode);

	lea	eax, DWORD PTR _dwExitCode$1[ebp]
	mov	DWORD PTR _dwExitCode$1[ebp], 259	; 00000103H
	push	eax
	push	edi
	call	DWORD PTR __imp__GetExitCodeProcess@8

; 90   : 
; 91   :       if (dwExitCode != STILL_ACTIVE)

	cmp	DWORD PTR _dwExitCode$1[ebp], 259	; 00000103H
	je	SHORT $LN7@SK_Inject_
; File c:\program files (x86)\windows kits\8.1\include\um\winnt.h

; 8063 :     Value = *Source;

	mov	eax, DWORD PTR [esi]
$LN7@SK_Inject_:
; File c:\users\andon\source\repos\specialk\src\injection\injection.cpp

; 94   :       CloseHandle (hProc);

	push	edi
	call	ebx
$LN2@SK_Inject_:

; 74   :   for (volatile LONG& g_sHookedPID : g_sHookedPIDs)

	add	esi, 4
	cmp	esi, OFFSET ?g_sHookedPIDs@@3RCJC+64
	jne	SHORT $LL4@SK_Inject_
	pop	edi
	pop	ebx
$LN3@SK_Inject_:
	pop	esi

; 95   :     }
; 96   :   }
; 97   : }

	mov	esp, ebp
	pop	ebp
	ret	0
?SK_Inject_ValidateProcesses@@YAXXZ ENDP		; SK_Inject_ValidateProcesses
_TEXT	ENDS
; Function compile flags: /Ogtp
; File c:\users\andon\source\repos\specialk\src\injection\injection.cpp
;	COMDAT ??__E__SK_InjectionHistory@@YAXXZ
text$di	SEGMENT
??__E__SK_InjectionHistory@@YAXXZ PROC			; `dynamic initializer for '__SK_InjectionHistory'', COMDAT

; 45   :                                     [MAX_INJECTED_PROC_HISTORY];

	npad	2
	push	esi
	push	edi
	mov	edi, 64					; 00000040H
	mov	esi, OFFSET ?__SK_InjectionHistory@@3PAUSK_InjectionRecord_s@@A+561
	npad	2
$LL4@dynamic:
	push	520					; 00000208H
	lea	eax, DWORD PTR [esi-561]
	push	0
	push	eax
	call	_memset
	mov	DWORD PTR [esi-41], 0
	lea	esi, DWORD PTR [esi+568]
	mov	DWORD PTR [esi-601], 0
	add	esp, 12					; 0000000cH
	mov	DWORD PTR [esi-597], 0
	mov	DWORD PTR [esi-593], 0
	mov	DWORD PTR [esi-589], 0
	mov	DWORD PTR [esi-585], 1
	mov	DWORD PTR [esi-577], 0
	mov	DWORD PTR [esi-573], 0
	mov	DWORD PTR [esi-569], 0
	mov	BYTE PTR [esi-565], 0
	sub	edi, 1
	jne	SHORT $LL4@dynamic
	pop	edi
	pop	esi
	ret	0
??__E__SK_InjectionHistory@@YAXXZ ENDP			; `dynamic initializer for '__SK_InjectionHistory''
text$di	ENDS
; Function compile flags: /Ogtp
; File c:\program files (x86)\microsoft visual studio\2017\community\vc\tools\msvc\14.10.25017\include\xstring
;	COMDAT ?_Xran@?$basic_string@_WU?$char_traits@_W@std@@V?$allocator@_W@2@@std@@SAXXZ
_TEXT	SEGMENT
?_Xran@?$basic_string@_WU?$char_traits@_W@std@@V?$allocator@_W@2@@std@@SAXXZ PROC ; std::basic_string<wchar_t,std::char_traits<wchar_t>,std::allocator<wchar_t> >::_Xran, COMDAT

; 3646 : 		_Xout_of_range("invalid string position");

	push	OFFSET ??_C@_0BI@CFPLBAOH@invalid?5string?5position?$AA@
	call	DWORD PTR __imp_?_Xout_of_range@std@@YAXPBD@Z
$LN4@Xran:
$LN3@Xran:
	int	3
?_Xran@?$basic_string@_WU?$char_traits@_W@std@@V?$allocator@_W@2@@std@@SAXXZ ENDP ; std::basic_string<wchar_t,std::char_traits<wchar_t>,std::allocator<wchar_t> >::_Xran
_TEXT	ENDS
; Function compile flags: /Ogtp
; File c:\program files (x86)\microsoft visual studio\2017\community\vc\tools\msvc\14.10.25017\include\xstring
;	COMDAT ?_Check_offset@?$basic_string@_WU?$char_traits@_W@std@@V?$allocator@_W@2@@std@@QBEXI@Z
_TEXT	SEGMENT
__Off$ = 8						; size = 4
?_Check_offset@?$basic_string@_WU?$char_traits@_W@std@@V?$allocator@_W@2@@std@@QBEXI@Z PROC ; std::basic_string<wchar_t,std::char_traits<wchar_t>,std::allocator<wchar_t> >::_Check_offset, COMDAT
; _this$ = ecx

; 3629 : 		{	// checks whether _Off is in the bounds of [0, this->size()]

	npad	2
	push	ebp
	mov	ebp, esp

; 3630 : 		if (this->_Mysize() < _Off)

	mov	eax, DWORD PTR [ecx+16]
	cmp	eax, DWORD PTR __Off$[ebp]
	jb	SHORT $LN14@Check_offs

; 3633 : 			}
; 3634 : 		}

	pop	ebp
	ret	4
$LN14@Check_offs:

; 3631 : 			{
; 3632 : 			_Xran();

	call	?_Xran@?$basic_string@_WU?$char_traits@_W@std@@V?$allocator@_W@2@@std@@SAXXZ ; std::basic_string<wchar_t,std::char_traits<wchar_t>,std::allocator<wchar_t> >::_Xran
$LN16@Check_offs:
$LN13@Check_offs:
	int	3
?_Check_offset@?$basic_string@_WU?$char_traits@_W@std@@V?$allocator@_W@2@@std@@QBEXI@Z ENDP ; std::basic_string<wchar_t,std::char_traits<wchar_t>,std::allocator<wchar_t> >::_Check_offset
_TEXT	ENDS
; Function compile flags: /Ogtp
; File c:\program files (x86)\microsoft visual studio\2017\community\vc\tools\msvc\14.10.25017\include\xstring
;	COMDAT ?_Xlen@?$basic_string@_WU?$char_traits@_W@std@@V?$allocator@_W@2@@std@@SAXXZ
_TEXT	SEGMENT
?_Xlen@?$basic_string@_WU?$char_traits@_W@std@@V?$allocator@_W@2@@std@@SAXXZ PROC ; std::basic_string<wchar_t,std::char_traits<wchar_t>,std::allocator<wchar_t> >::_Xlen, COMDAT

; 3625 : 		_Xlength_error("string too long");

	push	OFFSET ??_C@_0BA@JFNIOLAK@string?5too?5long?$AA@
	call	DWORD PTR __imp_?_Xlength_error@std@@YAXPBD@Z
$LN4@Xlen:
$LN3@Xlen:
	int	3
?_Xlen@?$basic_string@_WU?$char_traits@_W@std@@V?$allocator@_W@2@@std@@SAXXZ ENDP ; std::basic_string<wchar_t,std::char_traits<wchar_t>,std::allocator<wchar_t> >::_Xlen
_TEXT	ENDS
; Function compile flags: /Ogtp
; File c:\program files (x86)\microsoft visual studio\2017\community\vc\tools\msvc\14.10.25017\include\xstring
; File c:\program files (x86)\microsoft visual studio\2017\community\vc\tools\msvc\14.10.25017\include\xmemory0
; File c:\program files (x86)\microsoft visual studio\2017\community\vc\tools\msvc\14.10.25017\include\xstring
; File c:\program files (x86)\microsoft visual studio\2017\community\vc\tools\msvc\14.10.25017\include\xmemory0
; File c:\program files (x86)\microsoft visual studio\2017\community\vc\tools\msvc\14.10.25017\include\xstring
; File c:\program files (x86)\microsoft visual studio\2017\community\vc\tools\msvc\14.10.25017\include\iosfwd
; File c:\program files (x86)\microsoft visual studio\2017\community\vc\tools\msvc\14.10.25017\include\xstring
; File c:\program files (x86)\microsoft visual studio\2017\community\vc\tools\msvc\14.10.25017\include\iosfwd
; File c:\program files (x86)\microsoft visual studio\2017\community\vc\tools\msvc\14.10.25017\include\xstring
;	COMDAT ?_Tidy_deallocate@?$basic_string@_WU?$char_traits@_W@std@@V?$allocator@_W@2@@std@@QAEXXZ
_TEXT	SEGMENT
?_Tidy_deallocate@?$basic_string@_WU?$char_traits@_W@std@@V?$allocator@_W@2@@std@@QAEXXZ PROC ; std::basic_string<wchar_t,std::char_traits<wchar_t>,std::allocator<wchar_t> >::_Tidy_deallocate, COMDAT
; _this$ = ecx

; 3605 : 		{	// initialize buffer, deallocating any storage

	npad	2
	push	esi
	mov	esi, ecx

; 1628 : 		return (this->_BUF_SIZE <= _Myres);

	mov	eax, DWORD PTR [esi+20]
	cmp	eax, 8

; 3606 : 		this->_Orphan_all();
; 3607 : 		auto& _My_data = this->_Get_data();
; 3608 : 		if (_My_data._Large_string_engaged())

	jb	SHORT $LN2@Tidy_deall
; File c:\program files (x86)\microsoft visual studio\2017\community\vc\tools\msvc\14.10.25017\include\xmemory0

; 823  : 		_Deallocate(_Ptr, _Count, sizeof (_Ty));

	push	2
; File c:\program files (x86)\microsoft visual studio\2017\community\vc\tools\msvc\14.10.25017\include\xstring

; 3613 : 			_Al.deallocate(_Ptr, _My_data._Myres + 1);

	inc	eax
; File c:\program files (x86)\microsoft visual studio\2017\community\vc\tools\msvc\14.10.25017\include\xmemory0

; 823  : 		_Deallocate(_Ptr, _Count, sizeof (_Ty));

	push	eax
	push	DWORD PTR [esi]
	call	?_Deallocate@std@@YAXPAXII@Z		; std::_Deallocate
	add	esp, 12					; 0000000cH
$LN2@Tidy_deall:
; File c:\program files (x86)\microsoft visual studio\2017\community\vc\tools\msvc\14.10.25017\include\xstring

; 3616 : 		_My_data._Mysize = 0;

	mov	DWORD PTR [esi+16], 0
; File c:\program files (x86)\microsoft visual studio\2017\community\vc\tools\msvc\14.10.25017\include\iosfwd

; 326  : 		_Left = _Right;

	xor	eax, eax
; File c:\program files (x86)\microsoft visual studio\2017\community\vc\tools\msvc\14.10.25017\include\xstring

; 3617 : 		_My_data._Myres = this->_BUF_SIZE - 1;

	mov	DWORD PTR [esi+20], 7
; File c:\program files (x86)\microsoft visual studio\2017\community\vc\tools\msvc\14.10.25017\include\iosfwd

; 326  : 		_Left = _Right;

	mov	WORD PTR [esi], ax
	pop	esi
; File c:\program files (x86)\microsoft visual studio\2017\community\vc\tools\msvc\14.10.25017\include\xstring

; 3621 : 		}

	ret	0
?_Tidy_deallocate@?$basic_string@_WU?$char_traits@_W@std@@V?$allocator@_W@2@@std@@QAEXXZ ENDP ; std::basic_string<wchar_t,std::char_traits<wchar_t>,std::allocator<wchar_t> >::_Tidy_deallocate
_TEXT	ENDS
; Function compile flags: /Ogtp
; File c:\program files (x86)\microsoft visual studio\2017\community\vc\tools\msvc\14.10.25017\include\xstring
; File c:\program files (x86)\microsoft visual studio\2017\community\vc\tools\msvc\14.10.25017\include\iosfwd
; File c:\program files (x86)\microsoft visual studio\2017\community\vc\tools\msvc\14.10.25017\include\xstring
; File c:\program files (x86)\microsoft visual studio\2017\community\vc\tools\msvc\14.10.25017\include\iosfwd
; File c:\program files (x86)\microsoft visual studio\2017\community\vc\tools\msvc\14.10.25017\include\xstring
;	COMDAT ?_Tidy_init@?$basic_string@_WU?$char_traits@_W@std@@V?$allocator@_W@2@@std@@QAEXXZ
_TEXT	SEGMENT
?_Tidy_init@?$basic_string@_WU?$char_traits@_W@std@@V?$allocator@_W@2@@std@@QAEXXZ PROC ; std::basic_string<wchar_t,std::char_traits<wchar_t>,std::allocator<wchar_t> >::_Tidy_init, COMDAT
; _this$ = ecx
; File c:\program files (x86)\microsoft visual studio\2017\community\vc\tools\msvc\14.10.25017\include\iosfwd

; 326  : 		_Left = _Right;

	xor	eax, eax
; File c:\program files (x86)\microsoft visual studio\2017\community\vc\tools\msvc\14.10.25017\include\xstring

; 3597 : 		_My_data._Mysize = 0;

	mov	DWORD PTR [ecx+16], 0

; 3598 : 		_My_data._Myres = this->_BUF_SIZE - 1;

	mov	DWORD PTR [ecx+20], 7
; File c:\program files (x86)\microsoft visual studio\2017\community\vc\tools\msvc\14.10.25017\include\iosfwd

; 326  : 		_Left = _Right;

	mov	WORD PTR [ecx], ax
; File c:\program files (x86)\microsoft visual studio\2017\community\vc\tools\msvc\14.10.25017\include\xstring

; 3602 : 		}

	ret	0
?_Tidy_init@?$basic_string@_WU?$char_traits@_W@std@@V?$allocator@_W@2@@std@@QAEXXZ ENDP ; std::basic_string<wchar_t,std::char_traits<wchar_t>,std::allocator<wchar_t> >::_Tidy_init
_TEXT	ENDS
; Function compile flags: /Ogtp
; File c:\program files (x86)\microsoft visual studio\2017\community\vc\tools\msvc\14.10.25017\include\xstring
; File c:\program files (x86)\microsoft visual studio\2017\community\vc\tools\msvc\14.10.25017\include\xstddef
; File c:\program files (x86)\microsoft visual studio\2017\community\vc\tools\msvc\14.10.25017\include\xstring
;	COMDAT ?_Inside@?$basic_string@_WU?$char_traits@_W@std@@V?$allocator@_W@2@@std@@QBE_NQB_W@Z
_TEXT	SEGMENT
__Ptr$ = 8						; size = 4
?_Inside@?$basic_string@_WU?$char_traits@_W@std@@V?$allocator@_W@2@@std@@QBE_NQB_W@Z PROC ; std::basic_string<wchar_t,std::char_traits<wchar_t>,std::allocator<wchar_t> >::_Inside, COMDAT
; _this$ = ecx

; 3588 : 		{	// test if _Ptr points inside string

	npad	2
	push	ebp
	mov	ebp, esp

; 1628 : 		return (this->_BUF_SIZE <= _Myres);

	cmp	DWORD PTR [ecx+20], 8

; 1621 : 		return (_Large_string_engaged()

	jb	SHORT $LN13@Inside
; File c:\program files (x86)\microsoft visual studio\2017\community\vc\tools\msvc\14.10.25017\include\xstddef

; 643  : 	return (_Ptr);

	mov	edx, DWORD PTR [ecx]
; File c:\program files (x86)\microsoft visual studio\2017\community\vc\tools\msvc\14.10.25017\include\xstring

; 1621 : 		return (_Large_string_engaged()

	jmp	SHORT $LN14@Inside
$LN13@Inside:
	mov	edx, ecx
$LN14@Inside:

; 3589 : 		const auto& _My_data = this->_Get_data();
; 3590 : 		const _Elem * const _My_chars = _My_data._Myptr();
; 3591 : 		return (_My_chars <= _Ptr && _Ptr < _My_chars + _My_data._Mysize);

	cmp	edx, DWORD PTR __Ptr$[ebp]
	ja	SHORT $LN3@Inside
	mov	eax, DWORD PTR [ecx+16]
	lea	eax, DWORD PTR [edx+eax*2]
	cmp	DWORD PTR __Ptr$[ebp], eax
	jae	SHORT $LN3@Inside
	mov	al, 1

; 3592 : 		}

	pop	ebp
	ret	4
$LN3@Inside:

; 3589 : 		const auto& _My_data = this->_Get_data();
; 3590 : 		const _Elem * const _My_chars = _My_data._Myptr();
; 3591 : 		return (_My_chars <= _Ptr && _Ptr < _My_chars + _My_data._Mysize);

	xor	al, al

; 3592 : 		}

	pop	ebp
	ret	4
?_Inside@?$basic_string@_WU?$char_traits@_W@std@@V?$allocator@_W@2@@std@@QBE_NQB_W@Z ENDP ; std::basic_string<wchar_t,std::char_traits<wchar_t>,std::allocator<wchar_t> >::_Inside
_TEXT	ENDS
; Function compile flags: /Ogtp
; File c:\program files (x86)\microsoft visual studio\2017\community\vc\tools\msvc\14.10.25017\include\xstring
; File c:\program files (x86)\microsoft visual studio\2017\community\vc\tools\msvc\14.10.25017\include\xstddef
; File c:\program files (x86)\microsoft visual studio\2017\community\vc\tools\msvc\14.10.25017\include\iosfwd
; File c:\program files (x86)\microsoft visual studio\2017\community\vc\tools\msvc\14.10.25017\include\xstring
;	COMDAT ?_Grow@?$basic_string@_WU?$char_traits@_W@std@@V?$allocator@_W@2@@std@@QAE_NI@Z
_TEXT	SEGMENT
__Newsize$ = 8						; size = 4
?_Grow@?$basic_string@_WU?$char_traits@_W@std@@V?$allocator@_W@2@@std@@QAE_NI@Z PROC ; std::basic_string<wchar_t,std::char_traits<wchar_t>,std::allocator<wchar_t> >::_Grow, COMDAT
; _this$ = ecx

; 3572 : 		{	// ensure buffer is big enough

	npad	2
	push	ebp
	mov	ebp, esp

; 3573 : 		if (_Newsize == 0)

	mov	eax, DWORD PTR __Newsize$[ebp]
	test	eax, eax
	jne	SHORT $LN2@Grow

; 1628 : 		return (this->_BUF_SIZE <= _Myres);

	cmp	DWORD PTR [ecx+20], 8

; 3568 : 		_Traits::assign(_My_data._Myptr()[_My_data._Mysize = _Newsize], _Elem());

	mov	DWORD PTR [ecx+16], eax

; 1614 : 		return (_Large_string_engaged()

	jb	SHORT $LN16@Grow
; File c:\program files (x86)\microsoft visual studio\2017\community\vc\tools\msvc\14.10.25017\include\xstddef

; 643  : 	return (_Ptr);

	mov	ecx, DWORD PTR [ecx]
$LN16@Grow:
; File c:\program files (x86)\microsoft visual studio\2017\community\vc\tools\msvc\14.10.25017\include\iosfwd

; 326  : 		_Left = _Right;

	xor	eax, eax
	mov	WORD PTR [ecx], ax
; File c:\program files (x86)\microsoft visual studio\2017\community\vc\tools\msvc\14.10.25017\include\xstring

; 3576 : 			return (false);

	xor	al, al

; 3585 : 		}

	pop	ebp
	ret	4
$LN2@Grow:

; 3577 : 			}
; 3578 : 
; 3579 : 		if (this->_Myres() < _Newsize)

	cmp	DWORD PTR [ecx+20], eax
	jae	SHORT $LN3@Grow

; 3580 : 			{	// reallocate to grow
; 3581 : 			_Copy(_Newsize);

	push	eax
	call	?_Copy@?$basic_string@_WU?$char_traits@_W@std@@V?$allocator@_W@2@@std@@QAEXI@Z ; std::basic_string<wchar_t,std::char_traits<wchar_t>,std::allocator<wchar_t> >::_Copy
$LN3@Grow:

; 3582 : 			}
; 3583 : 
; 3584 : 		return (true);	// return true only if more work to do

	mov	al, 1

; 3585 : 		}

	pop	ebp
	ret	4
?_Grow@?$basic_string@_WU?$char_traits@_W@std@@V?$allocator@_W@2@@std@@QAE_NI@Z ENDP ; std::basic_string<wchar_t,std::char_traits<wchar_t>,std::allocator<wchar_t> >::_Grow
_TEXT	ENDS
; Function compile flags: /Ogtp
; File c:\program files (x86)\microsoft visual studio\2017\community\vc\tools\msvc\14.10.25017\include\xstring
; File c:\program files (x86)\microsoft visual studio\2017\community\vc\tools\msvc\14.10.25017\include\xstddef
; File c:\program files (x86)\microsoft visual studio\2017\community\vc\tools\msvc\14.10.25017\include\iosfwd
; File c:\program files (x86)\microsoft visual studio\2017\community\vc\tools\msvc\14.10.25017\include\xstring
; File c:\program files (x86)\microsoft visual studio\2017\community\vc\tools\msvc\14.10.25017\include\iosfwd
; File c:\program files (x86)\microsoft visual studio\2017\community\vc\tools\msvc\14.10.25017\include\xstring
;	COMDAT ?_Eos@?$basic_string@_WU?$char_traits@_W@std@@V?$allocator@_W@2@@std@@QAEXI@Z
_TEXT	SEGMENT
__Newsize$ = 8						; size = 4
?_Eos@?$basic_string@_WU?$char_traits@_W@std@@V?$allocator@_W@2@@std@@QAEXI@Z PROC ; std::basic_string<wchar_t,std::char_traits<wchar_t>,std::allocator<wchar_t> >::_Eos, COMDAT
; _this$ = ecx

; 3566 : 		{	// set new length and null terminator

	npad	2
	push	ebp
	mov	ebp, esp

; 1628 : 		return (this->_BUF_SIZE <= _Myres);

	cmp	DWORD PTR [ecx+20], 8

; 3567 : 		auto& _My_data = this->_Get_data();
; 3568 : 		_Traits::assign(_My_data._Myptr()[_My_data._Mysize = _Newsize], _Elem());

	mov	edx, DWORD PTR __Newsize$[ebp]
	mov	DWORD PTR [ecx+16], edx

; 1614 : 		return (_Large_string_engaged()

	jb	SHORT $LN11@Eos
; File c:\program files (x86)\microsoft visual studio\2017\community\vc\tools\msvc\14.10.25017\include\xstddef

; 643  : 	return (_Ptr);

	mov	eax, DWORD PTR [ecx]
; File c:\program files (x86)\microsoft visual studio\2017\community\vc\tools\msvc\14.10.25017\include\iosfwd

; 326  : 		_Left = _Right;

	xor	ecx, ecx
	mov	WORD PTR [eax+edx*2], cx
; File c:\program files (x86)\microsoft visual studio\2017\community\vc\tools\msvc\14.10.25017\include\xstring

; 3569 : 		}

	pop	ebp
	ret	4
$LN11@Eos:
; File c:\program files (x86)\microsoft visual studio\2017\community\vc\tools\msvc\14.10.25017\include\iosfwd

; 326  : 		_Left = _Right;

	xor	eax, eax
	mov	WORD PTR [ecx+edx*2], ax
; File c:\program files (x86)\microsoft visual studio\2017\community\vc\tools\msvc\14.10.25017\include\xstring

; 3569 : 		}

	pop	ebp
	ret	4
?_Eos@?$basic_string@_WU?$char_traits@_W@std@@V?$allocator@_W@2@@std@@QAEXI@Z ENDP ; std::basic_string<wchar_t,std::char_traits<wchar_t>,std::allocator<wchar_t> >::_Eos
_TEXT	ENDS
; Function compile flags: /Ogtp
; File c:\program files (x86)\microsoft visual studio\2017\community\vc\tools\msvc\14.10.25017\include\xstring
; File c:\program files (x86)\microsoft visual studio\2017\community\vc\tools\msvc\14.10.25017\include\xmemory0
; File c:\program files (x86)\microsoft visual studio\2017\community\vc\tools\msvc\14.10.25017\include\xstring
; File c:\program files (x86)\microsoft visual studio\2017\community\vc\tools\msvc\14.10.25017\include\xmemory0
; File c:\program files (x86)\microsoft visual studio\2017\community\vc\tools\msvc\14.10.25017\include\xstring
; File c:\program files (x86)\microsoft visual studio\2017\community\vc\tools\msvc\14.10.25017\include\xmemory0
; File c:\program files (x86)\microsoft visual studio\2017\community\vc\tools\msvc\14.10.25017\include\xstring
; File c:\program files (x86)\windows kits\10\include\10.0.10240.0\ucrt\wchar.h
; File c:\program files (x86)\microsoft visual studio\2017\community\vc\tools\msvc\14.10.25017\include\xstring
; File c:\program files (x86)\windows kits\10\include\10.0.10240.0\ucrt\wchar.h
; File c:\program files (x86)\microsoft visual studio\2017\community\vc\tools\msvc\14.10.25017\include\xstring
; File c:\program files (x86)\windows kits\10\include\10.0.10240.0\ucrt\wchar.h
; File c:\program files (x86)\microsoft visual studio\2017\community\vc\tools\msvc\14.10.25017\include\xmemory0
; File c:\program files (x86)\microsoft visual studio\2017\community\vc\tools\msvc\14.10.25017\include\xstring
; File c:\program files (x86)\microsoft visual studio\2017\community\vc\tools\msvc\14.10.25017\include\xmemory0
; File c:\program files (x86)\microsoft visual studio\2017\community\vc\tools\msvc\14.10.25017\include\xstring
; File c:\program files (x86)\windows kits\10\include\10.0.10240.0\ucrt\wchar.h
; File c:\program files (x86)\microsoft visual studio\2017\community\vc\tools\msvc\14.10.25017\include\xmemory0
; File c:\program files (x86)\microsoft visual studio\2017\community\vc\tools\msvc\14.10.25017\include\xstring
; File c:\program files (x86)\microsoft visual studio\2017\community\vc\tools\msvc\14.10.25017\include\xmemory0
; File c:\program files (x86)\microsoft visual studio\2017\community\vc\tools\msvc\14.10.25017\include\xstring
;	COMDAT ?_Copy@?$basic_string@_WU?$char_traits@_W@std@@V?$allocator@_W@2@@std@@QAEXI@Z
_TEXT	SEGMENT
__Oldres$ = -28						; size = 4
_this$ = -24						; size = 4
__Ptr$1$ = -20						; size = 4
__Ptr$ = -20						; size = 4
__$EHRec$ = -16						; size = 16
__Newres$ = 8						; size = 4
__Newsize$ = 8						; size = 4
?_Copy@?$basic_string@_WU?$char_traits@_W@std@@V?$allocator@_W@2@@std@@QAEXI@Z PROC ; std::basic_string<wchar_t,std::char_traits<wchar_t>,std::allocator<wchar_t> >::_Copy, COMDAT
; _this$ = ecx

; 3514 : 		{	// reallocate to new buffer of at least _Newsize, copying existing elements there

	npad	2
	push	ebp
	mov	ebp, esp
	push	-1
	push	__ehhandler$?_Copy@?$basic_string@_WU?$char_traits@_W@std@@V?$allocator@_W@2@@std@@QAEXI@Z
	mov	eax, DWORD PTR fs:0
	push	eax
	mov	DWORD PTR fs:0, esp
	sub	esp, 16					; 00000010H

; 3515 : 		const auto _Max = max_size();
; 3516 : 		if (_Newsize > _Max)

	mov	eax, DWORD PTR __Newsize$[ebp]
	push	ebx
	push	esi
	mov	esi, ecx
	mov	DWORD PTR _this$[ebp], esi
	push	edi
	mov	DWORD PTR __$EHRec$[ebp], esp
	cmp	eax, 2147483646				; 7ffffffeH
	jbe	SHORT $LN2@Copy

; 3517 : 			{	// too long
; 3518 : 			_Xlen();

	call	?_Xlen@?$basic_string@_WU?$char_traits@_W@std@@V?$allocator@_W@2@@std@@SAXXZ ; std::basic_string<wchar_t,std::char_traits<wchar_t>,std::allocator<wchar_t> >::_Xlen
$LN102@Copy:
$LN2@Copy:

; 3519 : 			}
; 3520 : 
; 3521 : 		auto& _My_data = this->_Get_data();
; 3522 : 		const size_type _Oldres = _My_data._Myres;

	mov	ebx, DWORD PTR [esi+20]

; 3523 : 		size_type _Newres = _Newsize | this->_ALLOC_MASK;

	mov	edi, eax
	or	edi, 7
	mov	DWORD PTR __Oldres$[ebp], ebx

; 3524 : 		if (_Max < _Newres)

	cmp	edi, 2147483646				; 7ffffffeH
	jbe	SHORT $LN3@Copy

; 3525 : 			{
; 3526 : 			_Newres = _Newsize;	// undo roundup if too big

	mov	edi, eax
	jmp	SHORT $LN8@Copy
$LN3@Copy:

; 3527 : 			}
; 3528 : 		else if (_Oldres / 2 <= _Newres / 3)

	mov	eax, -1431655765			; aaaaaaabH
	mov	ecx, ebx
	mul	edi
	shr	ecx, 1
	shr	edx, 1
	cmp	ecx, edx
	jbe	SHORT $LN8@Copy

; 3529 : 			;
; 3530 : 		else if (_Oldres <= _Max - _Oldres / 2)

	mov	eax, 2147483646				; 7ffffffeH

; 3531 : 			{
; 3532 : 			_Newres = _Oldres + _Oldres / 2;	// grow exponentially if possible

	lea	edi, DWORD PTR [ecx+ebx]
	sub	eax, ecx
	cmp	ebx, eax
	jbe	SHORT $LN8@Copy

; 3533 : 			}
; 3534 : 		else
; 3535 : 			{
; 3536 : 			_Newres = _Max;	// settle for max_size()

	mov	edi, 2147483646				; 7ffffffeH
$LN8@Copy:

; 3537 : 			}
; 3538 : 
; 3539 : 		auto& _Al = this->_Getal();
; 3540 : 		pointer _Ptr;
; 3541 : 		_TRY_BEGIN
; 3542 : 			_Ptr = _Al.allocate(_Newres + 1);

	lea	eax, DWORD PTR [edi+1]
	mov	DWORD PTR __$EHRec$[ebp+12], 0
; File c:\program files (x86)\microsoft visual studio\2017\community\vc\tools\msvc\14.10.25017\include\xmemory0

; 1077 : 		return (_Mybase::allocate(_Count));

	push	eax
	mov	ecx, esi
	call	?allocate@?$allocator@_W@std@@QAEPA_WI@Z ; std::allocator<wchar_t>::allocate
	mov	ecx, eax
; File c:\program files (x86)\microsoft visual studio\2017\community\vc\tools\msvc\14.10.25017\include\xstring
	jmp	SHORT $LN100@Copy
__catch$?_Copy@?$basic_string@_WU?$char_traits@_W@std@@V?$allocator@_W@2@@std@@QAEXI@Z$0:

; 3544 : 			_Newres = _Newsize;	// allocation failed, undo roundup and retry

	mov	eax, DWORD PTR __Newsize$[ebp]
; File c:\program files (x86)\microsoft visual studio\2017\community\vc\tools\msvc\14.10.25017\include\xmemory0

; 1077 : 		return (_Mybase::allocate(_Count));

	mov	ecx, DWORD PTR _this$[ebp]
; File c:\program files (x86)\microsoft visual studio\2017\community\vc\tools\msvc\14.10.25017\include\xstring

; 3544 : 			_Newres = _Newsize;	// allocation failed, undo roundup and retry

	mov	DWORD PTR __Newres$[ebp], eax

; 3545 : 			_Ptr = _Al.allocate(_Newres + 1);	// if throws, *this unmodified

	inc	eax
; File c:\program files (x86)\microsoft visual studio\2017\community\vc\tools\msvc\14.10.25017\include\xmemory0

; 1077 : 		return (_Mybase::allocate(_Count));

	push	eax
	call	?allocate@?$allocator@_W@std@@QAEPA_WI@Z ; std::allocator<wchar_t>::allocate
; File c:\program files (x86)\microsoft visual studio\2017\community\vc\tools\msvc\14.10.25017\include\xstring

; 3545 : 			_Ptr = _Al.allocate(_Newres + 1);	// if throws, *this unmodified

	mov	DWORD PTR __Ptr$[ebp], eax

; 3546 : 		_CATCH_END

	mov	eax, $LN97@Copy
	ret	0
$LN97@Copy:
	mov	esi, DWORD PTR _this$[ebp]
	mov	ebx, DWORD PTR __Oldres$[ebp]
	mov	edi, DWORD PTR __Newres$[ebp]
	mov	ecx, DWORD PTR __Ptr$[ebp]
$LN100@Copy:

; 1628 : 		return (this->_BUF_SIZE <= _Myres);

	cmp	DWORD PTR [esi+20], 8
; File c:\program files (x86)\windows kits\10\include\10.0.10240.0\ucrt\wchar.h

; 234  :         return (wchar_t*)memcpy(_S1, _S2, _N*sizeof(wchar_t));

	mov	eax, DWORD PTR [esi+16]
; File c:\program files (x86)\microsoft visual studio\2017\community\vc\tools\msvc\14.10.25017\include\xstring

; 3546 : 		_CATCH_END

	mov	DWORD PTR __Ptr$1$[ebp], ecx
; File c:\program files (x86)\windows kits\10\include\10.0.10240.0\ucrt\wchar.h

; 234  :         return (wchar_t*)memcpy(_S1, _S2, _N*sizeof(wchar_t));

	lea	eax, DWORD PTR [eax*2+2]
	push	eax
; File c:\program files (x86)\microsoft visual studio\2017\community\vc\tools\msvc\14.10.25017\include\xstring

; 3550 : 		if (_My_data._Large_string_engaged())

	jb	SHORT $LN10@Copy
; File c:\program files (x86)\windows kits\10\include\10.0.10240.0\ucrt\wchar.h

; 234  :         return (wchar_t*)memcpy(_S1, _S2, _N*sizeof(wchar_t));

	push	DWORD PTR [esi]
	push	ecx
	call	_memcpy
; File c:\program files (x86)\microsoft visual studio\2017\community\vc\tools\msvc\14.10.25017\include\xmemory0

; 823  : 		_Deallocate(_Ptr, _Count, sizeof (_Ty));

	push	2
; File c:\program files (x86)\microsoft visual studio\2017\community\vc\tools\msvc\14.10.25017\include\xstring

; 3553 : 			_Al.deallocate(_My_data._Bx._Ptr, _Oldres + 1);

	lea	eax, DWORD PTR [ebx+1]
; File c:\program files (x86)\microsoft visual studio\2017\community\vc\tools\msvc\14.10.25017\include\xmemory0

; 823  : 		_Deallocate(_Ptr, _Count, sizeof (_Ty));

	push	eax
	push	DWORD PTR [esi]
	call	?_Deallocate@std@@YAXPAXII@Z		; std::_Deallocate
	add	esp, 24					; 00000018H
; File c:\program files (x86)\microsoft visual studio\2017\community\vc\tools\msvc\14.10.25017\include\xstring

; 3556 : 		else

	jmp	SHORT $LN101@Copy
$LN10@Copy:
; File c:\program files (x86)\windows kits\10\include\10.0.10240.0\ucrt\wchar.h

; 234  :         return (wchar_t*)memcpy(_S1, _S2, _N*sizeof(wchar_t));

	push	esi
	push	ecx
	call	_memcpy
	add	esp, 12					; 0000000cH
$LN101@Copy:
; File c:\program files (x86)\microsoft visual studio\2017\community\vc\tools\msvc\14.10.25017\include\xmemory0

; 840  : 		::new ((void *)_Ptr) _Objty(_STD forward<_Types>(_Args)...);

	mov	eax, DWORD PTR __Ptr$1$[ebp]
; File c:\program files (x86)\microsoft visual studio\2017\community\vc\tools\msvc\14.10.25017\include\xstring

; 3563 : 		}

	mov	ecx, DWORD PTR __$EHRec$[ebp+4]
; File c:\program files (x86)\microsoft visual studio\2017\community\vc\tools\msvc\14.10.25017\include\xmemory0

; 840  : 		::new ((void *)_Ptr) _Objty(_STD forward<_Types>(_Args)...);

	mov	DWORD PTR [esi], eax
; File c:\program files (x86)\microsoft visual studio\2017\community\vc\tools\msvc\14.10.25017\include\xstring

; 3562 : 		_My_data._Myres = _Newres;

	mov	DWORD PTR [esi+20], edi

; 3563 : 		}

	pop	edi
	pop	esi
	mov	DWORD PTR fs:0, ecx
	pop	ebx
	mov	esp, ebp
	pop	ebp
	ret	4
$LN99@Copy:
_TEXT	ENDS
;	COMDAT text$x
text$x	SEGMENT
__ehhandler$?_Copy@?$basic_string@_WU?$char_traits@_W@std@@V?$allocator@_W@2@@std@@QAEXI@Z:
	mov	eax, OFFSET __ehfuncinfo$?_Copy@?$basic_string@_WU?$char_traits@_W@std@@V?$allocator@_W@2@@std@@QAEXI@Z
	jmp	___CxxFrameHandler3
text$x	ENDS
?_Copy@?$basic_string@_WU?$char_traits@_W@std@@V?$allocator@_W@2@@std@@QAEXI@Z ENDP ; std::basic_string<wchar_t,std::char_traits<wchar_t>,std::allocator<wchar_t> >::_Copy
; Function compile flags: /Ogtp
; File c:\program files (x86)\microsoft visual studio\2017\community\vc\tools\msvc\14.10.25017\include\xstring
; File c:\program files (x86)\microsoft visual studio\2017\community\vc\tools\msvc\14.10.25017\include\utility
; File c:\program files (x86)\microsoft visual studio\2017\community\vc\tools\msvc\14.10.25017\include\xstring
;	COMDAT ?_Clamp_suffix_size@?$basic_string@_WU?$char_traits@_W@std@@V?$allocator@_W@2@@std@@QBEIII@Z
_TEXT	SEGMENT
__Off$ = 8						; size = 4
__Size$ = 12						; size = 4
?_Clamp_suffix_size@?$basic_string@_WU?$char_traits@_W@std@@V?$allocator@_W@2@@std@@QBEIII@Z PROC ; std::basic_string<wchar_t,std::char_traits<wchar_t>,std::allocator<wchar_t> >::_Clamp_suffix_size, COMDAT
; _this$ = ecx

; 3410 : 		{	// trims _Size to the longest it can be assuming a string at/after _Off

	npad	2
	push	ebp
	mov	ebp, esp

; 3411 : 		return (_Min_value(_Size, this->_Mysize() - _Off));

	mov	ecx, DWORD PTR [ecx+16]
	sub	ecx, DWORD PTR __Off$[ebp]
; File c:\program files (x86)\microsoft visual studio\2017\community\vc\tools\msvc\14.10.25017\include\utility

; 23   : 	return (_Right < _Left ? _Right : _Left);

	mov	eax, DWORD PTR __Size$[ebp]
	cmp	ecx, eax
	cmovb	eax, ecx
; File c:\program files (x86)\microsoft visual studio\2017\community\vc\tools\msvc\14.10.25017\include\xstring

; 3412 : 		}

	pop	ebp
	ret	8
?_Clamp_suffix_size@?$basic_string@_WU?$char_traits@_W@std@@V?$allocator@_W@2@@std@@QBEIII@Z ENDP ; std::basic_string<wchar_t,std::char_traits<wchar_t>,std::allocator<wchar_t> >::_Clamp_suffix_size
_TEXT	ENDS
; Function compile flags: /Ogtp
; File c:\program files (x86)\microsoft visual studio\2017\community\vc\tools\msvc\14.10.25017\include\xstring
;	COMDAT ?max_size@?$basic_string@_WU?$char_traits@_W@std@@V?$allocator@_W@2@@std@@QBEIXZ
_TEXT	SEGMENT
?max_size@?$basic_string@_WU?$char_traits@_W@std@@V?$allocator@_W@2@@std@@QBEIXZ PROC ; std::basic_string<wchar_t,std::char_traits<wchar_t>,std::allocator<wchar_t> >::max_size, COMDAT
; _this$ = ecx

; 3030 : 		const size_type _Num = this->_Getal().max_size();
; 3031 : 		return (_Num <= 1 ? 1 : _Num - 1);

	mov	eax, 2147483646				; 7ffffffeH

; 3032 : 		}

	ret	0
?max_size@?$basic_string@_WU?$char_traits@_W@std@@V?$allocator@_W@2@@std@@QBEIXZ ENDP ; std::basic_string<wchar_t,std::char_traits<wchar_t>,std::allocator<wchar_t> >::max_size
_TEXT	ENDS
; Function compile flags: /Ogtp
; File c:\program files (x86)\microsoft visual studio\2017\community\vc\tools\msvc\14.10.25017\include\xstring
;	COMDAT ?c_str@?$basic_string@_WU?$char_traits@_W@std@@V?$allocator@_W@2@@std@@QBEPB_WXZ
_TEXT	SEGMENT
?c_str@?$basic_string@_WU?$char_traits@_W@std@@V?$allocator@_W@2@@std@@QBEPB_WXZ PROC ; std::basic_string<wchar_t,std::char_traits<wchar_t>,std::allocator<wchar_t> >::c_str, COMDAT
; _this$ = ecx

; 1628 : 		return (this->_BUF_SIZE <= _Myres);

	cmp	DWORD PTR [ecx+20], 8

; 1621 : 		return (_Large_string_engaged()

	jb	SHORT $LN13@c_str

; 3003 : 		return (this->_Myptr());

	mov	eax, DWORD PTR [ecx]

; 3004 : 		}

	ret	0
$LN13@c_str:

; 3003 : 		return (this->_Myptr());

	mov	eax, ecx

; 3004 : 		}

	ret	0
?c_str@?$basic_string@_WU?$char_traits@_W@std@@V?$allocator@_W@2@@std@@QBEPB_WXZ ENDP ; std::basic_string<wchar_t,std::char_traits<wchar_t>,std::allocator<wchar_t> >::c_str
_TEXT	ENDS
; Function compile flags: /Ogtp
; File c:\program files (x86)\microsoft visual studio\2017\community\vc\tools\msvc\14.10.25017\include\xstring
; File c:\program files (x86)\microsoft visual studio\2017\community\vc\tools\msvc\14.10.25017\include\xstddef
; File c:\program files (x86)\microsoft visual studio\2017\community\vc\tools\msvc\14.10.25017\include\iosfwd
; File c:\program files (x86)\microsoft visual studio\2017\community\vc\tools\msvc\14.10.25017\include\xstring
; File c:\program files (x86)\microsoft visual studio\2017\community\vc\tools\msvc\14.10.25017\include\iosfwd
; File c:\program files (x86)\microsoft visual studio\2017\community\vc\tools\msvc\14.10.25017\include\xstring
; File c:\program files (x86)\microsoft visual studio\2017\community\vc\tools\msvc\14.10.25017\include\xstddef
; File c:\program files (x86)\microsoft visual studio\2017\community\vc\tools\msvc\14.10.25017\include\xstring
; File c:\program files (x86)\windows kits\10\include\10.0.10240.0\ucrt\wchar.h
; File c:\program files (x86)\microsoft visual studio\2017\community\vc\tools\msvc\14.10.25017\include\xstring
; File c:\program files (x86)\windows kits\10\include\10.0.10240.0\ucrt\wchar.h
; File c:\program files (x86)\microsoft visual studio\2017\community\vc\tools\msvc\14.10.25017\include\xstring
; File c:\program files (x86)\microsoft visual studio\2017\community\vc\tools\msvc\14.10.25017\include\xstddef
; File c:\program files (x86)\microsoft visual studio\2017\community\vc\tools\msvc\14.10.25017\include\iosfwd
; File c:\program files (x86)\microsoft visual studio\2017\community\vc\tools\msvc\14.10.25017\include\xstring
; File c:\program files (x86)\microsoft visual studio\2017\community\vc\tools\msvc\14.10.25017\include\iosfwd
; File c:\program files (x86)\microsoft visual studio\2017\community\vc\tools\msvc\14.10.25017\include\xstring
;	COMDAT ?erase@?$basic_string@_WU?$char_traits@_W@std@@V?$allocator@_W@2@@std@@QAEAAV12@II@Z
_TEXT	SEGMENT
__Off$ = 8						; size = 4
__Count$ = 12						; size = 4
?erase@?$basic_string@_WU?$char_traits@_W@std@@V?$allocator@_W@2@@std@@QAEAAV12@II@Z PROC ; std::basic_string<wchar_t,std::char_traits<wchar_t>,std::allocator<wchar_t> >::erase, COMDAT
; _this$ = ecx

; 2592 : 		{	// erase elements [_Off, _Off + _Count)

	npad	2
	push	ebp
	mov	ebp, esp

; 3630 : 		if (this->_Mysize() < _Off)

	mov	edx, DWORD PTR __Off$[ebp]
	push	ebx
	push	esi

; 2592 : 		{	// erase elements [_Off, _Off + _Count)

	mov	esi, ecx
	push	edi

; 3630 : 		if (this->_Mysize() < _Off)

	mov	edi, DWORD PTR [esi+16]
	cmp	edi, edx
	jb	$LN97@erase

; 2593 : 		_Check_offset(_Off);
; 2594 : 		if (this->_Mysize() - _Off <= _Count)

	mov	ebx, DWORD PTR __Count$[ebp]
	mov	eax, edi
	sub	eax, edx
	cmp	eax, ebx
	ja	SHORT $LN2@erase

; 3568 : 		_Traits::assign(_My_data._Myptr()[_My_data._Mysize = _Newsize], _Elem());

	mov	DWORD PTR [esi+16], edx

; 1628 : 		return (this->_BUF_SIZE <= _Myres);

	cmp	DWORD PTR [esi+20], 8

; 1614 : 		return (_Large_string_engaged()

	jb	SHORT $LN38@erase
; File c:\program files (x86)\microsoft visual studio\2017\community\vc\tools\msvc\14.10.25017\include\xstddef

; 643  : 	return (_Ptr);

	mov	eax, DWORD PTR [esi]
; File c:\program files (x86)\microsoft visual studio\2017\community\vc\tools\msvc\14.10.25017\include\iosfwd

; 326  : 		_Left = _Right;

	xor	ecx, ecx
	pop	edi
	mov	WORD PTR [eax+edx*2], cx
; File c:\program files (x86)\microsoft visual studio\2017\community\vc\tools\msvc\14.10.25017\include\xstring

; 2606 : 		return (*this);

	mov	eax, esi
	pop	esi
	pop	ebx

; 2607 : 		}

	pop	ebp
	ret	8
$LN38@erase:

; 1614 : 		return (_Large_string_engaged()

	mov	eax, esi
; File c:\program files (x86)\microsoft visual studio\2017\community\vc\tools\msvc\14.10.25017\include\iosfwd

; 326  : 		_Left = _Right;

	xor	ecx, ecx
	pop	edi
	pop	esi
	pop	ebx
	mov	WORD PTR [eax+edx*2], cx
; File c:\program files (x86)\microsoft visual studio\2017\community\vc\tools\msvc\14.10.25017\include\xstring

; 2607 : 		}

	pop	ebp
	ret	8
$LN2@erase:

; 2595 : 			{
; 2596 : 			_Eos(_Off);	// erase elements [_Off, ...)
; 2597 : 			}
; 2598 : 		else if (_Count != 0)

	test	ebx, ebx
	je	SHORT $LN94@erase

; 1628 : 		return (this->_BUF_SIZE <= _Myres);

	cmp	DWORD PTR [esi+20], 8

; 1614 : 		return (_Large_string_engaged()

	jb	SHORT $LN57@erase
; File c:\program files (x86)\microsoft visual studio\2017\community\vc\tools\msvc\14.10.25017\include\xstddef

; 643  : 	return (_Ptr);

	mov	eax, DWORD PTR [esi]
; File c:\program files (x86)\microsoft visual studio\2017\community\vc\tools\msvc\14.10.25017\include\xstring

; 1614 : 		return (_Large_string_engaged()

	jmp	SHORT $LN58@erase
$LN57@erase:
	mov	eax, esi
$LN58@erase:

; 2599 : 			{	// move elements down
; 2600 : 			value_type *_Ptr = this->_Myptr() + _Off;

	lea	ecx, DWORD PTR [eax+edx*2]

; 2601 : 			size_type _Newsize = this->_Mysize() - _Count;

	sub	edi, ebx
; File c:\program files (x86)\windows kits\10\include\10.0.10240.0\ucrt\wchar.h

; 247  :         return (wchar_t*)memmove(_S1, _S2, _N*sizeof(wchar_t));

	mov	eax, edi
	sub	eax, edx
	add	eax, eax
	push	eax
; File c:\program files (x86)\microsoft visual studio\2017\community\vc\tools\msvc\14.10.25017\include\xstring

; 2602 : 			_Traits::move(_Ptr, _Ptr + _Count, _Newsize - _Off);

	lea	eax, DWORD PTR [ecx+ebx*2]
; File c:\program files (x86)\windows kits\10\include\10.0.10240.0\ucrt\wchar.h

; 247  :         return (wchar_t*)memmove(_S1, _S2, _N*sizeof(wchar_t));

	push	eax
	push	ecx
	call	DWORD PTR __imp__memmove
	add	esp, 12					; 0000000cH
; File c:\program files (x86)\microsoft visual studio\2017\community\vc\tools\msvc\14.10.25017\include\xstring

; 3568 : 		_Traits::assign(_My_data._Myptr()[_My_data._Mysize = _Newsize], _Elem());

	mov	DWORD PTR [esi+16], edi

; 1628 : 		return (this->_BUF_SIZE <= _Myres);

	cmp	DWORD PTR [esi+20], 8

; 1614 : 		return (_Large_string_engaged()

	jb	SHORT $LN87@erase
; File c:\program files (x86)\microsoft visual studio\2017\community\vc\tools\msvc\14.10.25017\include\xstddef

; 643  : 	return (_Ptr);

	mov	eax, DWORD PTR [esi]
; File c:\program files (x86)\microsoft visual studio\2017\community\vc\tools\msvc\14.10.25017\include\iosfwd

; 326  : 		_Left = _Right;

	xor	ecx, ecx
	mov	WORD PTR [eax+edi*2], cx
; File c:\program files (x86)\microsoft visual studio\2017\community\vc\tools\msvc\14.10.25017\include\xstring

; 2606 : 		return (*this);

	mov	eax, esi
	pop	edi
	pop	esi
	pop	ebx

; 2607 : 		}

	pop	ebp
	ret	8
$LN87@erase:

; 1614 : 		return (_Large_string_engaged()

	mov	eax, esi
; File c:\program files (x86)\microsoft visual studio\2017\community\vc\tools\msvc\14.10.25017\include\iosfwd

; 326  : 		_Left = _Right;

	xor	ecx, ecx
	mov	WORD PTR [eax+edi*2], cx
$LN94@erase:
	pop	edi
; File c:\program files (x86)\microsoft visual studio\2017\community\vc\tools\msvc\14.10.25017\include\xstring

; 2606 : 		return (*this);

	mov	eax, esi
	pop	esi
	pop	ebx

; 2607 : 		}

	pop	ebp
	ret	8
$LN97@erase:

; 3632 : 			_Xran();

	call	?_Xran@?$basic_string@_WU?$char_traits@_W@std@@V?$allocator@_W@2@@std@@SAXXZ ; std::basic_string<wchar_t,std::char_traits<wchar_t>,std::allocator<wchar_t> >::_Xran
$LN99@erase:
$LN96@erase:
	int	3
?erase@?$basic_string@_WU?$char_traits@_W@std@@V?$allocator@_W@2@@std@@QAEAAV12@II@Z ENDP ; std::basic_string<wchar_t,std::char_traits<wchar_t>,std::allocator<wchar_t> >::erase
_TEXT	ENDS
; Function compile flags: /Ogtp
; File c:\program files (x86)\microsoft visual studio\2017\community\vc\tools\msvc\14.10.25017\include\xstring
; File c:\program files (x86)\microsoft visual studio\2017\community\vc\tools\msvc\14.10.25017\include\xstddef
; File c:\program files (x86)\microsoft visual studio\2017\community\vc\tools\msvc\14.10.25017\include\iosfwd
; File c:\program files (x86)\microsoft visual studio\2017\community\vc\tools\msvc\14.10.25017\include\xstring
; File c:\program files (x86)\microsoft visual studio\2017\community\vc\tools\msvc\14.10.25017\include\iosfwd
; File c:\program files (x86)\microsoft visual studio\2017\community\vc\tools\msvc\14.10.25017\include\xstring
;	COMDAT ?erase@?$basic_string@_WU?$char_traits@_W@std@@V?$allocator@_W@2@@std@@QAEAAV12@I@Z
_TEXT	SEGMENT
__Off$ = 8						; size = 4
?erase@?$basic_string@_WU?$char_traits@_W@std@@V?$allocator@_W@2@@std@@QAEAAV12@I@Z PROC ; std::basic_string<wchar_t,std::char_traits<wchar_t>,std::allocator<wchar_t> >::erase, COMDAT
; _this$ = ecx

; 2585 : 		{	// erase elements [_Off, ...)

	npad	2
	push	ebp
	mov	ebp, esp

; 3630 : 		if (this->_Mysize() < _Off)

	mov	eax, DWORD PTR __Off$[ebp]
	cmp	DWORD PTR [ecx+16], eax
	jb	SHORT $LN36@erase

; 3568 : 		_Traits::assign(_My_data._Myptr()[_My_data._Mysize = _Newsize], _Elem());

	mov	DWORD PTR [ecx+16], eax

; 1628 : 		return (this->_BUF_SIZE <= _Myres);

	cmp	DWORD PTR [ecx+20], 8

; 1614 : 		return (_Large_string_engaged()

	jb	SHORT $LN26@erase
; File c:\program files (x86)\microsoft visual studio\2017\community\vc\tools\msvc\14.10.25017\include\xstddef

; 643  : 	return (_Ptr);

	mov	edx, DWORD PTR [ecx]
	push	esi
; File c:\program files (x86)\microsoft visual studio\2017\community\vc\tools\msvc\14.10.25017\include\iosfwd

; 326  : 		_Left = _Right;

	xor	esi, esi
	mov	WORD PTR [edx+eax*2], si
; File c:\program files (x86)\microsoft visual studio\2017\community\vc\tools\msvc\14.10.25017\include\xstring

; 2588 : 		return (*this);

	mov	eax, ecx
	pop	esi

; 2589 : 		}

	pop	ebp
	ret	4
$LN26@erase:

; 1614 : 		return (_Large_string_engaged()

	mov	edx, ecx
	push	esi
; File c:\program files (x86)\microsoft visual studio\2017\community\vc\tools\msvc\14.10.25017\include\iosfwd

; 326  : 		_Left = _Right;

	xor	esi, esi
	mov	WORD PTR [edx+eax*2], si
; File c:\program files (x86)\microsoft visual studio\2017\community\vc\tools\msvc\14.10.25017\include\xstring

; 2588 : 		return (*this);

	mov	eax, ecx
	pop	esi

; 2589 : 		}

	pop	ebp
	ret	4
$LN36@erase:

; 3632 : 			_Xran();

	call	?_Xran@?$basic_string@_WU?$char_traits@_W@std@@V?$allocator@_W@2@@std@@SAXXZ ; std::basic_string<wchar_t,std::char_traits<wchar_t>,std::allocator<wchar_t> >::_Xran
$LN38@erase:
$LN35@erase:
	int	3
?erase@?$basic_string@_WU?$char_traits@_W@std@@V?$allocator@_W@2@@std@@QAEAAV12@I@Z ENDP ; std::basic_string<wchar_t,std::char_traits<wchar_t>,std::allocator<wchar_t> >::erase
_TEXT	ENDS
; Function compile flags: /Ogtp
; File c:\program files (x86)\microsoft visual studio\2017\community\vc\tools\msvc\14.10.25017\include\xstring
; File c:\program files (x86)\microsoft visual studio\2017\community\vc\tools\msvc\14.10.25017\include\iosfwd
; File c:\program files (x86)\microsoft visual studio\2017\community\vc\tools\msvc\14.10.25017\include\xstring
; File c:\program files (x86)\microsoft visual studio\2017\community\vc\tools\msvc\14.10.25017\include\iosfwd
; File c:\program files (x86)\microsoft visual studio\2017\community\vc\tools\msvc\14.10.25017\include\xstring
; File c:\program files (x86)\microsoft visual studio\2017\community\vc\tools\msvc\14.10.25017\include\iosfwd
; File c:\program files (x86)\microsoft visual studio\2017\community\vc\tools\msvc\14.10.25017\include\xstring
;	COMDAT ?assign@?$basic_string@_WU?$char_traits@_W@std@@V?$allocator@_W@2@@std@@QAEAAV12@QB_W@Z
_TEXT	SEGMENT
__Ptr$ = 8						; size = 4
?assign@?$basic_string@_WU?$char_traits@_W@std@@V?$allocator@_W@2@@std@@QAEAAV12@QB_W@Z PROC ; std::basic_string<wchar_t,std::char_traits<wchar_t>,std::allocator<wchar_t> >::assign, COMDAT
; _this$ = ecx

; 2428 : 		{	// assign [_Ptr, <null>)

	npad	2
	push	ebp
	mov	ebp, esp
; File c:\program files (x86)\microsoft visual studio\2017\community\vc\tools\msvc\14.10.25017\include\iosfwd

; 289  : 		return (_CSTD wcslen(_First));

	mov	edx, DWORD PTR __Ptr$[ebp]
	mov	eax, edx
	push	esi
	push	edi
; File c:\program files (x86)\microsoft visual studio\2017\community\vc\tools\msvc\14.10.25017\include\xstring

; 2428 : 		{	// assign [_Ptr, <null>)

	mov	esi, ecx
; File c:\program files (x86)\microsoft visual studio\2017\community\vc\tools\msvc\14.10.25017\include\iosfwd

; 289  : 		return (_CSTD wcslen(_First));

	lea	edi, DWORD PTR [eax+2]
$LL6@assign:
	mov	cx, WORD PTR [eax]
	add	eax, 2
	test	cx, cx
	jne	SHORT $LL6@assign
	sub	eax, edi
; File c:\program files (x86)\microsoft visual studio\2017\community\vc\tools\msvc\14.10.25017\include\xstring

; 2429 : 		return (assign(_Ptr, _Traits::length(_Ptr)));

	mov	ecx, esi
; File c:\program files (x86)\microsoft visual studio\2017\community\vc\tools\msvc\14.10.25017\include\iosfwd

; 289  : 		return (_CSTD wcslen(_First));

	sar	eax, 1
; File c:\program files (x86)\microsoft visual studio\2017\community\vc\tools\msvc\14.10.25017\include\xstring

; 2429 : 		return (assign(_Ptr, _Traits::length(_Ptr)));

	push	eax
	push	edx
	call	?assign@?$basic_string@_WU?$char_traits@_W@std@@V?$allocator@_W@2@@std@@QAEAAV12@QB_WI@Z ; std::basic_string<wchar_t,std::char_traits<wchar_t>,std::allocator<wchar_t> >::assign
	pop	edi
	pop	esi

; 2430 : 		}

	pop	ebp
	ret	4
?assign@?$basic_string@_WU?$char_traits@_W@std@@V?$allocator@_W@2@@std@@QAEAAV12@QB_W@Z ENDP ; std::basic_string<wchar_t,std::char_traits<wchar_t>,std::allocator<wchar_t> >::assign
_TEXT	ENDS
; Function compile flags: /Ogtp
; File c:\program files (x86)\microsoft visual studio\2017\community\vc\tools\msvc\14.10.25017\include\xstring
; File c:\program files (x86)\microsoft visual studio\2017\community\vc\tools\msvc\14.10.25017\include\xstddef
; File c:\program files (x86)\microsoft visual studio\2017\community\vc\tools\msvc\14.10.25017\include\xstring
; File c:\program files (x86)\microsoft visual studio\2017\community\vc\tools\msvc\14.10.25017\include\xstddef
; File c:\program files (x86)\microsoft visual studio\2017\community\vc\tools\msvc\14.10.25017\include\xstring
; File c:\program files (x86)\microsoft visual studio\2017\community\vc\tools\msvc\14.10.25017\include\xstddef
; File c:\program files (x86)\microsoft visual studio\2017\community\vc\tools\msvc\14.10.25017\include\iosfwd
; File c:\program files (x86)\microsoft visual studio\2017\community\vc\tools\msvc\14.10.25017\include\xstring
; File c:\program files (x86)\microsoft visual studio\2017\community\vc\tools\msvc\14.10.25017\include\iosfwd
; File c:\program files (x86)\microsoft visual studio\2017\community\vc\tools\msvc\14.10.25017\include\xstring
; File c:\program files (x86)\microsoft visual studio\2017\community\vc\tools\msvc\14.10.25017\include\xstddef
; File c:\program files (x86)\microsoft visual studio\2017\community\vc\tools\msvc\14.10.25017\include\xstring
; File c:\program files (x86)\windows kits\10\include\10.0.10240.0\ucrt\wchar.h
; File c:\program files (x86)\microsoft visual studio\2017\community\vc\tools\msvc\14.10.25017\include\xstring
; File c:\program files (x86)\microsoft visual studio\2017\community\vc\tools\msvc\14.10.25017\include\xstddef
; File c:\program files (x86)\microsoft visual studio\2017\community\vc\tools\msvc\14.10.25017\include\iosfwd
; File c:\program files (x86)\microsoft visual studio\2017\community\vc\tools\msvc\14.10.25017\include\xstring
; File c:\program files (x86)\microsoft visual studio\2017\community\vc\tools\msvc\14.10.25017\include\iosfwd
; File c:\program files (x86)\microsoft visual studio\2017\community\vc\tools\msvc\14.10.25017\include\xstring
;	COMDAT ?assign@?$basic_string@_WU?$char_traits@_W@std@@V?$allocator@_W@2@@std@@QAEAAV12@QB_WI@Z
_TEXT	SEGMENT
__Ptr$ = 8						; size = 4
__Count$ = 12						; size = 4
?assign@?$basic_string@_WU?$char_traits@_W@std@@V?$allocator@_W@2@@std@@QAEAAV12@QB_WI@Z PROC ; std::basic_string<wchar_t,std::char_traits<wchar_t>,std::allocator<wchar_t> >::assign, COMDAT
; _this$ = ecx

; 2412 : 		{	// assign [_Ptr, _Ptr + _Count)

	npad	2
	push	ebp
	mov	ebp, esp
	push	esi
	mov	esi, ecx
	push	edi

; 1628 : 		return (this->_BUF_SIZE <= _Myres);

	mov	ecx, DWORD PTR [esi+20]
	cmp	ecx, 8

; 1621 : 		return (_Large_string_engaged()

	jb	SHORT $LN17@assign
; File c:\program files (x86)\microsoft visual studio\2017\community\vc\tools\msvc\14.10.25017\include\xstddef

; 643  : 	return (_Ptr);

	mov	edx, DWORD PTR [esi]
; File c:\program files (x86)\microsoft visual studio\2017\community\vc\tools\msvc\14.10.25017\include\xstring

; 1621 : 		return (_Large_string_engaged()

	jmp	SHORT $LN18@assign
$LN17@assign:
	mov	edx, esi
$LN18@assign:

; 3591 : 		return (_My_chars <= _Ptr && _Ptr < _My_chars + _My_data._Mysize);

	mov	edi, DWORD PTR __Ptr$[ebp]
	cmp	edx, edi
	ja	SHORT $LN2@assign
	mov	eax, DWORD PTR [esi+16]
	lea	eax, DWORD PTR [edx+eax*2]
	cmp	edi, eax
	jae	SHORT $LN2@assign

; 1628 : 		return (this->_BUF_SIZE <= _Myres);

	cmp	ecx, 8

; 1614 : 		return (_Large_string_engaged()

	jb	SHORT $LN33@assign
; File c:\program files (x86)\microsoft visual studio\2017\community\vc\tools\msvc\14.10.25017\include\xstddef

; 643  : 	return (_Ptr);

	mov	eax, DWORD PTR [esi]
; File c:\program files (x86)\microsoft visual studio\2017\community\vc\tools\msvc\14.10.25017\include\xstring

; 1614 : 		return (_Large_string_engaged()

	jmp	SHORT $LN34@assign
$LN33@assign:
	mov	eax, esi
$LN34@assign:

; 2413 : 		if (_Inside(_Ptr))
; 2414 : 			{
; 2415 : 			return (assign(*this, _Ptr - this->_Myptr(), _Count));	// substring

	push	DWORD PTR __Count$[ebp]
	sub	edi, eax
	mov	ecx, esi
	sar	edi, 1
	push	edi
	push	esi
	call	?assign@?$basic_string@_WU?$char_traits@_W@std@@V?$allocator@_W@2@@std@@QAEAAV12@ABV12@II@Z ; std::basic_string<wchar_t,std::char_traits<wchar_t>,std::allocator<wchar_t> >::assign
	pop	edi
	pop	esi

; 2425 : 		}

	pop	ebp
	ret	8
$LN2@assign:
	push	ebx

; 3573 : 		if (_Newsize == 0)

	mov	ebx, DWORD PTR __Count$[ebp]
	test	ebx, ebx
	jne	SHORT $LN40@assign

; 3568 : 		_Traits::assign(_My_data._Myptr()[_My_data._Mysize = _Newsize], _Elem());

	mov	DWORD PTR [esi+16], ebx

; 1628 : 		return (this->_BUF_SIZE <= _Myres);

	cmp	ecx, 8

; 1614 : 		return (_Large_string_engaged()

	jb	SHORT $LN53@assign
; File c:\program files (x86)\microsoft visual studio\2017\community\vc\tools\msvc\14.10.25017\include\xstddef

; 643  : 	return (_Ptr);

	mov	eax, DWORD PTR [esi]
; File c:\program files (x86)\microsoft visual studio\2017\community\vc\tools\msvc\14.10.25017\include\iosfwd

; 326  : 		_Left = _Right;

	xor	ecx, ecx
	pop	ebx
	pop	edi
	mov	WORD PTR [eax], cx
; File c:\program files (x86)\microsoft visual studio\2017\community\vc\tools\msvc\14.10.25017\include\xstring

; 2424 : 		return (*this);

	mov	eax, esi
	pop	esi

; 2425 : 		}

	pop	ebp
	ret	8
$LN53@assign:

; 1614 : 		return (_Large_string_engaged()

	mov	eax, esi
; File c:\program files (x86)\microsoft visual studio\2017\community\vc\tools\msvc\14.10.25017\include\iosfwd

; 326  : 		_Left = _Right;

	xor	ecx, ecx
	pop	ebx
	pop	edi
	pop	esi
	mov	WORD PTR [eax], cx
; File c:\program files (x86)\microsoft visual studio\2017\community\vc\tools\msvc\14.10.25017\include\xstring

; 2425 : 		}

	pop	ebp
	ret	8
$LN40@assign:

; 3579 : 		if (this->_Myres() < _Newsize)

	cmp	ecx, ebx
	jae	SHORT $LN41@assign

; 3580 : 			{	// reallocate to grow
; 3581 : 			_Copy(_Newsize);

	push	ebx
	mov	ecx, esi
	call	?_Copy@?$basic_string@_WU?$char_traits@_W@std@@V?$allocator@_W@2@@std@@QAEXI@Z ; std::basic_string<wchar_t,std::char_traits<wchar_t>,std::allocator<wchar_t> >::_Copy
$LN41@assign:

; 1628 : 		return (this->_BUF_SIZE <= _Myres);

	cmp	DWORD PTR [esi+20], 8

; 1614 : 		return (_Large_string_engaged()

	jb	SHORT $LN81@assign
; File c:\program files (x86)\microsoft visual studio\2017\community\vc\tools\msvc\14.10.25017\include\xstddef

; 643  : 	return (_Ptr);

	mov	eax, DWORD PTR [esi]
; File c:\program files (x86)\microsoft visual studio\2017\community\vc\tools\msvc\14.10.25017\include\xstring

; 1614 : 		return (_Large_string_engaged()

	jmp	SHORT $LN82@assign
$LN81@assign:
	mov	eax, esi
$LN82@assign:
; File c:\program files (x86)\windows kits\10\include\10.0.10240.0\ucrt\wchar.h

; 234  :         return (wchar_t*)memcpy(_S1, _S2, _N*sizeof(wchar_t));

	lea	ecx, DWORD PTR [ebx+ebx]
	push	ecx
	push	edi
	push	eax
	call	_memcpy
	add	esp, 12					; 0000000cH
; File c:\program files (x86)\microsoft visual studio\2017\community\vc\tools\msvc\14.10.25017\include\xstring

; 3568 : 		_Traits::assign(_My_data._Myptr()[_My_data._Mysize = _Newsize], _Elem());

	mov	DWORD PTR [esi+16], ebx

; 1628 : 		return (this->_BUF_SIZE <= _Myres);

	cmp	DWORD PTR [esi+20], 8

; 1614 : 		return (_Large_string_engaged()

	jb	SHORT $LN102@assign
; File c:\program files (x86)\microsoft visual studio\2017\community\vc\tools\msvc\14.10.25017\include\xstddef

; 643  : 	return (_Ptr);

	mov	eax, DWORD PTR [esi]
; File c:\program files (x86)\microsoft visual studio\2017\community\vc\tools\msvc\14.10.25017\include\iosfwd

; 326  : 		_Left = _Right;

	xor	ecx, ecx
	mov	WORD PTR [eax+ebx*2], cx
; File c:\program files (x86)\microsoft visual studio\2017\community\vc\tools\msvc\14.10.25017\include\xstring

; 2424 : 		return (*this);

	mov	eax, esi
	pop	ebx
	pop	edi
	pop	esi

; 2425 : 		}

	pop	ebp
	ret	8
$LN102@assign:

; 1614 : 		return (_Large_string_engaged()

	mov	eax, esi
; File c:\program files (x86)\microsoft visual studio\2017\community\vc\tools\msvc\14.10.25017\include\iosfwd

; 326  : 		_Left = _Right;

	xor	ecx, ecx
	mov	WORD PTR [eax+ebx*2], cx
	pop	ebx
	pop	edi
	pop	esi
; File c:\program files (x86)\microsoft visual studio\2017\community\vc\tools\msvc\14.10.25017\include\xstring

; 2425 : 		}

	pop	ebp
	ret	8
?assign@?$basic_string@_WU?$char_traits@_W@std@@V?$allocator@_W@2@@std@@QAEAAV12@QB_WI@Z ENDP ; std::basic_string<wchar_t,std::char_traits<wchar_t>,std::allocator<wchar_t> >::assign
_TEXT	ENDS
; Function compile flags: /Ogtp
; File c:\program files (x86)\microsoft visual studio\2017\community\vc\tools\msvc\14.10.25017\include\xstring
; File c:\program files (x86)\microsoft visual studio\2017\community\vc\tools\msvc\14.10.25017\include\utility
; File c:\program files (x86)\microsoft visual studio\2017\community\vc\tools\msvc\14.10.25017\include\xstring
; File c:\program files (x86)\microsoft visual studio\2017\community\vc\tools\msvc\14.10.25017\include\utility
; File c:\program files (x86)\microsoft visual studio\2017\community\vc\tools\msvc\14.10.25017\include\xstring
; File c:\program files (x86)\microsoft visual studio\2017\community\vc\tools\msvc\14.10.25017\include\xstddef
; File c:\program files (x86)\microsoft visual studio\2017\community\vc\tools\msvc\14.10.25017\include\xstring
; File c:\program files (x86)\microsoft visual studio\2017\community\vc\tools\msvc\14.10.25017\include\iosfwd
; File c:\program files (x86)\microsoft visual studio\2017\community\vc\tools\msvc\14.10.25017\include\xstring
; File c:\program files (x86)\microsoft visual studio\2017\community\vc\tools\msvc\14.10.25017\include\iosfwd
; File c:\program files (x86)\microsoft visual studio\2017\community\vc\tools\msvc\14.10.25017\include\xstring
; File c:\program files (x86)\microsoft visual studio\2017\community\vc\tools\msvc\14.10.25017\include\xstddef
; File c:\program files (x86)\microsoft visual studio\2017\community\vc\tools\msvc\14.10.25017\include\iosfwd
; File c:\program files (x86)\microsoft visual studio\2017\community\vc\tools\msvc\14.10.25017\include\xstring
; File c:\program files (x86)\microsoft visual studio\2017\community\vc\tools\msvc\14.10.25017\include\iosfwd
; File c:\program files (x86)\microsoft visual studio\2017\community\vc\tools\msvc\14.10.25017\include\xstring
; File c:\program files (x86)\microsoft visual studio\2017\community\vc\tools\msvc\14.10.25017\include\xstddef
; File c:\program files (x86)\microsoft visual studio\2017\community\vc\tools\msvc\14.10.25017\include\xstring
; File c:\program files (x86)\microsoft visual studio\2017\community\vc\tools\msvc\14.10.25017\include\xstddef
; File c:\program files (x86)\microsoft visual studio\2017\community\vc\tools\msvc\14.10.25017\include\xstring
; File c:\program files (x86)\windows kits\10\include\10.0.10240.0\ucrt\wchar.h
; File c:\program files (x86)\microsoft visual studio\2017\community\vc\tools\msvc\14.10.25017\include\xstring
; File c:\program files (x86)\windows kits\10\include\10.0.10240.0\ucrt\wchar.h
; File c:\program files (x86)\microsoft visual studio\2017\community\vc\tools\msvc\14.10.25017\include\xstring
; File c:\program files (x86)\microsoft visual studio\2017\community\vc\tools\msvc\14.10.25017\include\xstddef
; File c:\program files (x86)\microsoft visual studio\2017\community\vc\tools\msvc\14.10.25017\include\iosfwd
; File c:\program files (x86)\microsoft visual studio\2017\community\vc\tools\msvc\14.10.25017\include\xstring
; File c:\program files (x86)\microsoft visual studio\2017\community\vc\tools\msvc\14.10.25017\include\iosfwd
; File c:\program files (x86)\microsoft visual studio\2017\community\vc\tools\msvc\14.10.25017\include\xstring
;	COMDAT ?assign@?$basic_string@_WU?$char_traits@_W@std@@V?$allocator@_W@2@@std@@QAEAAV12@ABV12@II@Z
_TEXT	SEGMENT
__Right$ = 8						; size = 4
__Roff$ = 12						; size = 4
__Count$ = 16						; size = 4
?assign@?$basic_string@_WU?$char_traits@_W@std@@V?$allocator@_W@2@@std@@QAEAAV12@ABV12@II@Z PROC ; std::basic_string<wchar_t,std::char_traits<wchar_t>,std::allocator<wchar_t> >::assign, COMDAT
; _this$ = ecx

; 2378 : 		{	// assign _Right [_Roff, _Roff + _Count)

	npad	2
	push	ebp
	mov	ebp, esp
	push	ebx

; 3630 : 		if (this->_Mysize() < _Off)

	mov	ebx, DWORD PTR __Right$[ebp]
	push	esi

; 2378 : 		{	// assign _Right [_Roff, _Roff + _Count)

	mov	esi, ecx

; 3630 : 		if (this->_Mysize() < _Off)

	mov	ecx, DWORD PTR __Roff$[ebp]
	push	edi
	mov	eax, DWORD PTR [ebx+16]
	cmp	eax, ecx
	jb	$LN161@assign
; File c:\program files (x86)\microsoft visual studio\2017\community\vc\tools\msvc\14.10.25017\include\utility

; 23   : 	return (_Right < _Left ? _Right : _Left);

	mov	edi, DWORD PTR __Count$[ebp]
; File c:\program files (x86)\microsoft visual studio\2017\community\vc\tools\msvc\14.10.25017\include\xstring

; 3411 : 		return (_Min_value(_Size, this->_Mysize() - _Off));

	sub	eax, ecx
; File c:\program files (x86)\microsoft visual studio\2017\community\vc\tools\msvc\14.10.25017\include\utility

; 23   : 	return (_Right < _Left ? _Right : _Left);

	cmp	eax, edi
	cmovb	edi, eax
; File c:\program files (x86)\microsoft visual studio\2017\community\vc\tools\msvc\14.10.25017\include\xstring

; 2382 : 		if (this == _STD addressof(_Right))

	cmp	esi, ebx
	jne	SHORT $LN2@assign

; 2383 : 			{	// substring
; 2384 : 			erase(_Roff + _Count);

	lea	eax, DWORD PTR [ecx+edi]

; 3630 : 		if (this->_Mysize() < _Off)

	cmp	DWORD PTR [esi+16], eax
	jb	$LN163@assign

; 3568 : 		_Traits::assign(_My_data._Myptr()[_My_data._Mysize = _Newsize], _Elem());

	mov	DWORD PTR [esi+16], eax

; 1628 : 		return (this->_BUF_SIZE <= _Myres);

	cmp	DWORD PTR [esi+20], 8

; 1614 : 		return (_Large_string_engaged()

	jb	SHORT $LN62@assign
; File c:\program files (x86)\microsoft visual studio\2017\community\vc\tools\msvc\14.10.25017\include\xstddef

; 643  : 	return (_Ptr);

	mov	edx, DWORD PTR [esi]
; File c:\program files (x86)\microsoft visual studio\2017\community\vc\tools\msvc\14.10.25017\include\xstring

; 1614 : 		return (_Large_string_engaged()

	jmp	SHORT $LN63@assign
$LN62@assign:
	mov	edx, esi
$LN63@assign:
; File c:\program files (x86)\microsoft visual studio\2017\community\vc\tools\msvc\14.10.25017\include\iosfwd

; 326  : 		_Left = _Right;

	xor	edi, edi
; File c:\program files (x86)\microsoft visual studio\2017\community\vc\tools\msvc\14.10.25017\include\xstring

; 2385 : 			erase(0, _Roff);

	push	ecx
	push	edi
	mov	ecx, esi
; File c:\program files (x86)\microsoft visual studio\2017\community\vc\tools\msvc\14.10.25017\include\iosfwd

; 326  : 		_Left = _Right;

	mov	WORD PTR [edx+eax*2], di
; File c:\program files (x86)\microsoft visual studio\2017\community\vc\tools\msvc\14.10.25017\include\xstring

; 2385 : 			erase(0, _Roff);

	call	?erase@?$basic_string@_WU?$char_traits@_W@std@@V?$allocator@_W@2@@std@@QAEAAV12@II@Z ; std::basic_string<wchar_t,std::char_traits<wchar_t>,std::allocator<wchar_t> >::erase
	pop	edi

; 2393 : 		return (*this);

	mov	eax, esi
	pop	esi
	pop	ebx

; 2394 : 		}

	pop	ebp
	ret	12					; 0000000cH
$LN2@assign:

; 3573 : 		if (_Newsize == 0)

	test	edi, edi
	jne	SHORT $LN72@assign

; 1628 : 		return (this->_BUF_SIZE <= _Myres);

	cmp	DWORD PTR [esi+20], 8

; 3568 : 		_Traits::assign(_My_data._Myptr()[_My_data._Mysize = _Newsize], _Elem());

	mov	DWORD PTR [esi+16], edi

; 1614 : 		return (_Large_string_engaged()

	jb	SHORT $LN85@assign
; File c:\program files (x86)\microsoft visual studio\2017\community\vc\tools\msvc\14.10.25017\include\xstddef

; 643  : 	return (_Ptr);

	mov	eax, DWORD PTR [esi]
; File c:\program files (x86)\microsoft visual studio\2017\community\vc\tools\msvc\14.10.25017\include\iosfwd

; 326  : 		_Left = _Right;

	xor	ecx, ecx
	pop	edi
	mov	WORD PTR [eax], cx
; File c:\program files (x86)\microsoft visual studio\2017\community\vc\tools\msvc\14.10.25017\include\xstring

; 2393 : 		return (*this);

	mov	eax, esi
	pop	esi
	pop	ebx

; 2394 : 		}

	pop	ebp
	ret	12					; 0000000cH
$LN85@assign:

; 1614 : 		return (_Large_string_engaged()

	mov	eax, esi
; File c:\program files (x86)\microsoft visual studio\2017\community\vc\tools\msvc\14.10.25017\include\iosfwd

; 326  : 		_Left = _Right;

	xor	ecx, ecx
	pop	edi
	pop	esi
	pop	ebx
	mov	WORD PTR [eax], cx
; File c:\program files (x86)\microsoft visual studio\2017\community\vc\tools\msvc\14.10.25017\include\xstring

; 2394 : 		}

	pop	ebp
	ret	12					; 0000000cH
$LN72@assign:

; 3579 : 		if (this->_Myres() < _Newsize)

	cmp	DWORD PTR [esi+20], edi
	jae	SHORT $LN73@assign

; 3580 : 			{	// reallocate to grow
; 3581 : 			_Copy(_Newsize);

	push	edi
	mov	ecx, esi
	call	?_Copy@?$basic_string@_WU?$char_traits@_W@std@@V?$allocator@_W@2@@std@@QAEXI@Z ; std::basic_string<wchar_t,std::char_traits<wchar_t>,std::allocator<wchar_t> >::_Copy
	mov	ecx, DWORD PTR __Roff$[ebp]
$LN73@assign:

; 1628 : 		return (this->_BUF_SIZE <= _Myres);

	cmp	DWORD PTR [ebx+20], 8

; 1621 : 		return (_Large_string_engaged()

	jb	SHORT $LN113@assign
; File c:\program files (x86)\microsoft visual studio\2017\community\vc\tools\msvc\14.10.25017\include\xstddef

; 643  : 	return (_Ptr);

	mov	ebx, DWORD PTR [ebx]
$LN113@assign:
; File c:\program files (x86)\microsoft visual studio\2017\community\vc\tools\msvc\14.10.25017\include\xstring

; 1628 : 		return (this->_BUF_SIZE <= _Myres);

	cmp	DWORD PTR [esi+20], 8

; 1614 : 		return (_Large_string_engaged()

	jb	SHORT $LN129@assign
; File c:\program files (x86)\microsoft visual studio\2017\community\vc\tools\msvc\14.10.25017\include\xstddef

; 643  : 	return (_Ptr);

	mov	edx, DWORD PTR [esi]
; File c:\program files (x86)\microsoft visual studio\2017\community\vc\tools\msvc\14.10.25017\include\xstring

; 1614 : 		return (_Large_string_engaged()

	jmp	SHORT $LN130@assign
$LN129@assign:
	mov	edx, esi
$LN130@assign:
; File c:\program files (x86)\windows kits\10\include\10.0.10240.0\ucrt\wchar.h

; 234  :         return (wchar_t*)memcpy(_S1, _S2, _N*sizeof(wchar_t));

	lea	eax, DWORD PTR [edi+edi]
	push	eax
; File c:\program files (x86)\microsoft visual studio\2017\community\vc\tools\msvc\14.10.25017\include\xstring

; 2389 : 			_Traits::copy(this->_Myptr(), _Right._Myptr() + _Roff, _Count);

	lea	eax, DWORD PTR [ebx+ecx*2]
; File c:\program files (x86)\windows kits\10\include\10.0.10240.0\ucrt\wchar.h

; 234  :         return (wchar_t*)memcpy(_S1, _S2, _N*sizeof(wchar_t));

	push	eax
	push	edx
	call	_memcpy
	add	esp, 12					; 0000000cH
; File c:\program files (x86)\microsoft visual studio\2017\community\vc\tools\msvc\14.10.25017\include\xstring

; 3568 : 		_Traits::assign(_My_data._Myptr()[_My_data._Mysize = _Newsize], _Elem());

	mov	DWORD PTR [esi+16], edi

; 1628 : 		return (this->_BUF_SIZE <= _Myres);

	cmp	DWORD PTR [esi+20], 8

; 1614 : 		return (_Large_string_engaged()

	jb	SHORT $LN150@assign
; File c:\program files (x86)\microsoft visual studio\2017\community\vc\tools\msvc\14.10.25017\include\xstddef

; 643  : 	return (_Ptr);

	mov	eax, DWORD PTR [esi]
; File c:\program files (x86)\microsoft visual studio\2017\community\vc\tools\msvc\14.10.25017\include\iosfwd

; 326  : 		_Left = _Right;

	xor	ecx, ecx
	mov	WORD PTR [eax+edi*2], cx
; File c:\program files (x86)\microsoft visual studio\2017\community\vc\tools\msvc\14.10.25017\include\xstring

; 2393 : 		return (*this);

	mov	eax, esi
	pop	edi
	pop	esi
	pop	ebx

; 2394 : 		}

	pop	ebp
	ret	12					; 0000000cH
$LN150@assign:

; 1614 : 		return (_Large_string_engaged()

	mov	eax, esi
; File c:\program files (x86)\microsoft visual studio\2017\community\vc\tools\msvc\14.10.25017\include\iosfwd

; 326  : 		_Left = _Right;

	xor	ecx, ecx
	mov	WORD PTR [eax+edi*2], cx
	pop	edi
	pop	esi
	pop	ebx
; File c:\program files (x86)\microsoft visual studio\2017\community\vc\tools\msvc\14.10.25017\include\xstring

; 2394 : 		}

	pop	ebp
	ret	12					; 0000000cH
$LN161@assign:

; 3632 : 			_Xran();

	call	?_Xran@?$basic_string@_WU?$char_traits@_W@std@@V?$allocator@_W@2@@std@@SAXXZ ; std::basic_string<wchar_t,std::char_traits<wchar_t>,std::allocator<wchar_t> >::_Xran
$LN164@assign:
$LN163@assign:
	call	?_Xran@?$basic_string@_WU?$char_traits@_W@std@@V?$allocator@_W@2@@std@@SAXXZ ; std::basic_string<wchar_t,std::char_traits<wchar_t>,std::allocator<wchar_t> >::_Xran
$LN165@assign:
$LN160@assign:
	int	3
?assign@?$basic_string@_WU?$char_traits@_W@std@@V?$allocator@_W@2@@std@@QAEAAV12@ABV12@II@Z ENDP ; std::basic_string<wchar_t,std::char_traits<wchar_t>,std::allocator<wchar_t> >::assign
_TEXT	ENDS
; Function compile flags: /Ogtp
; File c:\program files (x86)\microsoft visual studio\2017\community\vc\tools\msvc\14.10.25017\include\xstring
; File c:\program files (x86)\microsoft visual studio\2017\community\vc\tools\msvc\14.10.25017\include\xmemory0
; File c:\program files (x86)\microsoft visual studio\2017\community\vc\tools\msvc\14.10.25017\include\xstring
; File c:\program files (x86)\microsoft visual studio\2017\community\vc\tools\msvc\14.10.25017\include\xmemory0
; File c:\program files (x86)\microsoft visual studio\2017\community\vc\tools\msvc\14.10.25017\include\xstring
; File c:\program files (x86)\microsoft visual studio\2017\community\vc\tools\msvc\14.10.25017\include\iosfwd
; File c:\program files (x86)\microsoft visual studio\2017\community\vc\tools\msvc\14.10.25017\include\xstring
; File c:\program files (x86)\microsoft visual studio\2017\community\vc\tools\msvc\14.10.25017\include\iosfwd
; File c:\program files (x86)\microsoft visual studio\2017\community\vc\tools\msvc\14.10.25017\include\xstring
;	COMDAT ??1?$basic_string@_WU?$char_traits@_W@std@@V?$allocator@_W@2@@std@@QAE@XZ
_TEXT	SEGMENT
??1?$basic_string@_WU?$char_traits@_W@std@@V?$allocator@_W@2@@std@@QAE@XZ PROC ; std::basic_string<wchar_t,std::char_traits<wchar_t>,std::allocator<wchar_t> >::~basic_string<wchar_t,std::char_traits<wchar_t>,std::allocator<wchar_t> >, COMDAT
; _this$ = ecx

; 2215 : 		{	// destroy the string

	npad	2
	push	esi
	mov	esi, ecx

; 1628 : 		return (this->_BUF_SIZE <= _Myres);

	mov	eax, DWORD PTR [esi+20]
	cmp	eax, 8

; 3608 : 		if (_My_data._Large_string_engaged())

	jb	SHORT $LN4@basic_stri
; File c:\program files (x86)\microsoft visual studio\2017\community\vc\tools\msvc\14.10.25017\include\xmemory0

; 823  : 		_Deallocate(_Ptr, _Count, sizeof (_Ty));

	push	2
; File c:\program files (x86)\microsoft visual studio\2017\community\vc\tools\msvc\14.10.25017\include\xstring

; 3613 : 			_Al.deallocate(_Ptr, _My_data._Myres + 1);

	inc	eax
; File c:\program files (x86)\microsoft visual studio\2017\community\vc\tools\msvc\14.10.25017\include\xmemory0

; 823  : 		_Deallocate(_Ptr, _Count, sizeof (_Ty));

	push	eax
	push	DWORD PTR [esi]
	call	?_Deallocate@std@@YAXPAXII@Z		; std::_Deallocate
	add	esp, 12					; 0000000cH
$LN4@basic_stri:
; File c:\program files (x86)\microsoft visual studio\2017\community\vc\tools\msvc\14.10.25017\include\xstring

; 3616 : 		_My_data._Mysize = 0;

	mov	DWORD PTR [esi+16], 0
; File c:\program files (x86)\microsoft visual studio\2017\community\vc\tools\msvc\14.10.25017\include\iosfwd

; 326  : 		_Left = _Right;

	xor	eax, eax
; File c:\program files (x86)\microsoft visual studio\2017\community\vc\tools\msvc\14.10.25017\include\xstring

; 3617 : 		_My_data._Myres = this->_BUF_SIZE - 1;

	mov	DWORD PTR [esi+20], 7
; File c:\program files (x86)\microsoft visual studio\2017\community\vc\tools\msvc\14.10.25017\include\iosfwd

; 326  : 		_Left = _Right;

	mov	WORD PTR [esi], ax
	pop	esi
; File c:\program files (x86)\microsoft visual studio\2017\community\vc\tools\msvc\14.10.25017\include\xstring

; 2217 : 		}

	ret	0
??1?$basic_string@_WU?$char_traits@_W@std@@V?$allocator@_W@2@@std@@QAE@XZ ENDP ; std::basic_string<wchar_t,std::char_traits<wchar_t>,std::allocator<wchar_t> >::~basic_string<wchar_t,std::char_traits<wchar_t>,std::allocator<wchar_t> >
_TEXT	ENDS
; Function compile flags: /Ogtp
; File c:\program files (x86)\microsoft visual studio\2017\community\vc\tools\msvc\14.10.25017\include\xstring
; File c:\program files (x86)\microsoft visual studio\2017\community\vc\tools\msvc\14.10.25017\include\iosfwd
; File c:\program files (x86)\microsoft visual studio\2017\community\vc\tools\msvc\14.10.25017\include\xstring
; File c:\program files (x86)\microsoft visual studio\2017\community\vc\tools\msvc\14.10.25017\include\iosfwd
; File c:\program files (x86)\microsoft visual studio\2017\community\vc\tools\msvc\14.10.25017\include\xstring
; File c:\program files (x86)\microsoft visual studio\2017\community\vc\tools\msvc\14.10.25017\include\iosfwd
; File c:\program files (x86)\microsoft visual studio\2017\community\vc\tools\msvc\14.10.25017\include\xstring
;	COMDAT ??0?$basic_string@_WU?$char_traits@_W@std@@V?$allocator@_W@2@@std@@QAE@QB_W@Z
_TEXT	SEGMENT
__Ptr$ = 8						; size = 4
??0?$basic_string@_WU?$char_traits@_W@std@@V?$allocator@_W@2@@std@@QAE@QB_W@Z PROC ; std::basic_string<wchar_t,std::char_traits<wchar_t>,std::allocator<wchar_t> >::basic_string<wchar_t,std::char_traits<wchar_t>,std::allocator<wchar_t> >, COMDAT
; _this$ = ecx

; 1980 : 		{	// construct from [_Ptr, <null>)

	npad	2
	push	ebp
	mov	ebp, esp
; File c:\program files (x86)\microsoft visual studio\2017\community\vc\tools\msvc\14.10.25017\include\iosfwd

; 289  : 		return (_CSTD wcslen(_First));

	mov	edx, DWORD PTR __Ptr$[ebp]

; 326  : 		_Left = _Right;

	xor	eax, eax
	push	esi
; File c:\program files (x86)\microsoft visual studio\2017\community\vc\tools\msvc\14.10.25017\include\xstring

; 1980 : 		{	// construct from [_Ptr, <null>)

	mov	esi, ecx
	push	edi

; 3597 : 		_My_data._Mysize = 0;

	mov	DWORD PTR [esi+16], 0

; 3598 : 		_My_data._Myres = this->_BUF_SIZE - 1;

	mov	DWORD PTR [esi+20], 7
; File c:\program files (x86)\microsoft visual studio\2017\community\vc\tools\msvc\14.10.25017\include\iosfwd

; 326  : 		_Left = _Right;

	mov	WORD PTR [esi], ax

; 289  : 		return (_CSTD wcslen(_First));

	mov	eax, edx
	lea	edi, DWORD PTR [eax+2]
$LL25@basic_stri:
	mov	cx, WORD PTR [eax]
	add	eax, 2
	test	cx, cx
	jne	SHORT $LL25@basic_stri
	sub	eax, edi
; File c:\program files (x86)\microsoft visual studio\2017\community\vc\tools\msvc\14.10.25017\include\xstring

; 2429 : 		return (assign(_Ptr, _Traits::length(_Ptr)));

	mov	ecx, esi
; File c:\program files (x86)\microsoft visual studio\2017\community\vc\tools\msvc\14.10.25017\include\iosfwd

; 289  : 		return (_CSTD wcslen(_First));

	sar	eax, 1
; File c:\program files (x86)\microsoft visual studio\2017\community\vc\tools\msvc\14.10.25017\include\xstring

; 2429 : 		return (assign(_Ptr, _Traits::length(_Ptr)));

	push	eax
	push	edx
	call	?assign@?$basic_string@_WU?$char_traits@_W@std@@V?$allocator@_W@2@@std@@QAEAAV12@QB_WI@Z ; std::basic_string<wchar_t,std::char_traits<wchar_t>,std::allocator<wchar_t> >::assign
	pop	edi

; 1981 : 		_Tidy_init();
; 1982 : 		assign(_Ptr);
; 1983 : 		}

	mov	eax, esi
	pop	esi
	pop	ebp
	ret	4
??0?$basic_string@_WU?$char_traits@_W@std@@V?$allocator@_W@2@@std@@QAE@QB_W@Z ENDP ; std::basic_string<wchar_t,std::char_traits<wchar_t>,std::allocator<wchar_t> >::basic_string<wchar_t,std::char_traits<wchar_t>,std::allocator<wchar_t> >
_TEXT	ENDS
; Function compile flags: /Ogtp
;	COMDAT ??1?$_String_alloc@U?$_String_base_types@_WV?$allocator@_W@std@@@std@@@std@@QAE@XZ
_TEXT	SEGMENT
??1?$_String_alloc@U?$_String_base_types@_WV?$allocator@_W@std@@@std@@@std@@QAE@XZ PROC ; std::_String_alloc<std::_String_base_types<wchar_t,std::allocator<wchar_t> > >::~_String_alloc<std::_String_base_types<wchar_t,std::allocator<wchar_t> > >, COMDAT
; _this$ = ecx
	ret	0
??1?$_String_alloc@U?$_String_base_types@_WV?$allocator@_W@std@@@std@@@std@@QAE@XZ ENDP ; std::_String_alloc<std::_String_base_types<wchar_t,std::allocator<wchar_t> > >::~_String_alloc<std::_String_base_types<wchar_t,std::allocator<wchar_t> > >
_TEXT	ENDS
; Function compile flags: /Ogtp
;	COMDAT ??1?$_Compressed_pair@U?$_Wrap_alloc@V?$allocator@_W@std@@@std@@V?$_String_val@U?$_Simple_types@_W@std@@@2@$00@std@@QAE@XZ
_TEXT	SEGMENT
??1?$_Compressed_pair@U?$_Wrap_alloc@V?$allocator@_W@std@@@std@@V?$_String_val@U?$_Simple_types@_W@std@@@2@$00@std@@QAE@XZ PROC ; std::_Compressed_pair<std::_Wrap_alloc<std::allocator<wchar_t> >,std::_String_val<std::_Simple_types<wchar_t> >,1>::~_Compressed_pair<std::_Wrap_alloc<std::allocator<wchar_t> >,std::_String_val<std::_Simple_types<wchar_t> >,1>, COMDAT
; _this$ = ecx
	ret	0
??1?$_Compressed_pair@U?$_Wrap_alloc@V?$allocator@_W@std@@@std@@V?$_String_val@U?$_Simple_types@_W@std@@@2@$00@std@@QAE@XZ ENDP ; std::_Compressed_pair<std::_Wrap_alloc<std::allocator<wchar_t> >,std::_String_val<std::_Simple_types<wchar_t> >,1>::~_Compressed_pair<std::_Wrap_alloc<std::allocator<wchar_t> >,std::_String_val<std::_Simple_types<wchar_t> >,1>
_TEXT	ENDS
; Function compile flags: /Ogtp
; File c:\program files (x86)\microsoft visual studio\2017\community\vc\tools\msvc\14.10.25017\include\xutility
;	COMDAT ?_Get_second@?$_Compressed_pair@U?$_Wrap_alloc@V?$allocator@_W@std@@@std@@V?$_String_val@U?$_Simple_types@_W@std@@@2@$00@std@@QBEABV?$_String_val@U?$_Simple_types@_W@std@@@2@XZ
_TEXT	SEGMENT
?_Get_second@?$_Compressed_pair@U?$_Wrap_alloc@V?$allocator@_W@std@@@std@@V?$_String_val@U?$_Simple_types@_W@std@@@2@$00@std@@QBEABV?$_String_val@U?$_Simple_types@_W@std@@@2@XZ PROC ; std::_Compressed_pair<std::_Wrap_alloc<std::allocator<wchar_t> >,std::_String_val<std::_Simple_types<wchar_t> >,1>::_Get_second, COMDAT
; _this$ = ecx

; 343  : 		return (_Myval2);

	mov	eax, ecx

; 344  : 		}

	ret	0
?_Get_second@?$_Compressed_pair@U?$_Wrap_alloc@V?$allocator@_W@std@@@std@@V?$_String_val@U?$_Simple_types@_W@std@@@2@$00@std@@QBEABV?$_String_val@U?$_Simple_types@_W@std@@@2@XZ ENDP ; std::_Compressed_pair<std::_Wrap_alloc<std::allocator<wchar_t> >,std::_String_val<std::_Simple_types<wchar_t> >,1>::_Get_second
_TEXT	ENDS
; Function compile flags: /Ogtp
; File c:\program files (x86)\microsoft visual studio\2017\community\vc\tools\msvc\14.10.25017\include\xutility
;	COMDAT ?_Get_second@?$_Compressed_pair@U?$_Wrap_alloc@V?$allocator@_W@std@@@std@@V?$_String_val@U?$_Simple_types@_W@std@@@2@$00@std@@QAEAAV?$_String_val@U?$_Simple_types@_W@std@@@2@XZ
_TEXT	SEGMENT
?_Get_second@?$_Compressed_pair@U?$_Wrap_alloc@V?$allocator@_W@std@@@std@@V?$_String_val@U?$_Simple_types@_W@std@@@2@$00@std@@QAEAAV?$_String_val@U?$_Simple_types@_W@std@@@2@XZ PROC ; std::_Compressed_pair<std::_Wrap_alloc<std::allocator<wchar_t> >,std::_String_val<std::_Simple_types<wchar_t> >,1>::_Get_second, COMDAT
; _this$ = ecx

; 338  : 		return (_Myval2);

	mov	eax, ecx

; 339  : 		}

	ret	0
?_Get_second@?$_Compressed_pair@U?$_Wrap_alloc@V?$allocator@_W@std@@@std@@V?$_String_val@U?$_Simple_types@_W@std@@@2@$00@std@@QAEAAV?$_String_val@U?$_Simple_types@_W@std@@@2@XZ ENDP ; std::_Compressed_pair<std::_Wrap_alloc<std::allocator<wchar_t> >,std::_String_val<std::_Simple_types<wchar_t> >,1>::_Get_second
_TEXT	ENDS
; Function compile flags: /Ogtp
; File c:\program files (x86)\microsoft visual studio\2017\community\vc\tools\msvc\14.10.25017\include\xutility
;	COMDAT ?_Get_first@?$_Compressed_pair@U?$_Wrap_alloc@V?$allocator@_W@std@@@std@@V?$_String_val@U?$_Simple_types@_W@std@@@2@$00@std@@QBEABU?$_Wrap_alloc@V?$allocator@_W@std@@@2@XZ
_TEXT	SEGMENT
?_Get_first@?$_Compressed_pair@U?$_Wrap_alloc@V?$allocator@_W@std@@@std@@V?$_String_val@U?$_Simple_types@_W@std@@@2@$00@std@@QBEABU?$_Wrap_alloc@V?$allocator@_W@std@@@2@XZ PROC ; std::_Compressed_pair<std::_Wrap_alloc<std::allocator<wchar_t> >,std::_String_val<std::_Simple_types<wchar_t> >,1>::_Get_first, COMDAT
; _this$ = ecx

; 323  : 		return (*this);

	mov	eax, ecx

; 324  : 		}

	ret	0
?_Get_first@?$_Compressed_pair@U?$_Wrap_alloc@V?$allocator@_W@std@@@std@@V?$_String_val@U?$_Simple_types@_W@std@@@2@$00@std@@QBEABU?$_Wrap_alloc@V?$allocator@_W@std@@@2@XZ ENDP ; std::_Compressed_pair<std::_Wrap_alloc<std::allocator<wchar_t> >,std::_String_val<std::_Simple_types<wchar_t> >,1>::_Get_first
_TEXT	ENDS
; Function compile flags: /Ogtp
; File c:\program files (x86)\microsoft visual studio\2017\community\vc\tools\msvc\14.10.25017\include\xutility
;	COMDAT ?_Get_first@?$_Compressed_pair@U?$_Wrap_alloc@V?$allocator@_W@std@@@std@@V?$_String_val@U?$_Simple_types@_W@std@@@2@$00@std@@QAEAAU?$_Wrap_alloc@V?$allocator@_W@std@@@2@XZ
_TEXT	SEGMENT
?_Get_first@?$_Compressed_pair@U?$_Wrap_alloc@V?$allocator@_W@std@@@std@@V?$_String_val@U?$_Simple_types@_W@std@@@2@$00@std@@QAEAAU?$_Wrap_alloc@V?$allocator@_W@std@@@2@XZ PROC ; std::_Compressed_pair<std::_Wrap_alloc<std::allocator<wchar_t> >,std::_String_val<std::_Simple_types<wchar_t> >,1>::_Get_first, COMDAT
; _this$ = ecx

; 318  : 		return (*this);

	mov	eax, ecx

; 319  : 		}

	ret	0
?_Get_first@?$_Compressed_pair@U?$_Wrap_alloc@V?$allocator@_W@std@@@std@@V?$_String_val@U?$_Simple_types@_W@std@@@2@$00@std@@QAEAAU?$_Wrap_alloc@V?$allocator@_W@std@@@2@XZ ENDP ; std::_Compressed_pair<std::_Wrap_alloc<std::allocator<wchar_t> >,std::_String_val<std::_Simple_types<wchar_t> >,1>::_Get_first
_TEXT	ENDS
; Function compile flags: /Ogtp
; File c:\program files (x86)\microsoft visual studio\2017\community\vc\tools\msvc\14.10.25017\include\xstring
;	COMDAT ?_Myres@?$_String_alloc@U?$_String_base_types@_WV?$allocator@_W@std@@@std@@@std@@QAEAAIXZ
_TEXT	SEGMENT
?_Myres@?$_String_alloc@U?$_String_base_types@_WV?$allocator@_W@std@@@std@@@std@@QAEAAIXZ PROC ; std::_String_alloc<std::_String_base_types<wchar_t,std::allocator<wchar_t> > >::_Myres, COMDAT
; _this$ = ecx

; 1849 : 		return (_Get_data()._Myres);

	lea	eax, DWORD PTR [ecx+20]

; 1850 : 		}

	ret	0
?_Myres@?$_String_alloc@U?$_String_base_types@_WV?$allocator@_W@std@@@std@@@std@@QAEAAIXZ ENDP ; std::_String_alloc<std::_String_base_types<wchar_t,std::allocator<wchar_t> > >::_Myres
_TEXT	ENDS
; Function compile flags: /Ogtp
; File c:\program files (x86)\microsoft visual studio\2017\community\vc\tools\msvc\14.10.25017\include\xstring
;	COMDAT ?_Mysize@?$_String_alloc@U?$_String_base_types@_WV?$allocator@_W@std@@@std@@@std@@QBEABIXZ
_TEXT	SEGMENT
?_Mysize@?$_String_alloc@U?$_String_base_types@_WV?$allocator@_W@std@@@std@@@std@@QBEABIXZ PROC ; std::_String_alloc<std::_String_base_types<wchar_t,std::allocator<wchar_t> > >::_Mysize, COMDAT
; _this$ = ecx

; 1844 : 		return (_Get_data()._Mysize);

	lea	eax, DWORD PTR [ecx+16]

; 1845 : 		}

	ret	0
?_Mysize@?$_String_alloc@U?$_String_base_types@_WV?$allocator@_W@std@@@std@@@std@@QBEABIXZ ENDP ; std::_String_alloc<std::_String_base_types<wchar_t,std::allocator<wchar_t> > >::_Mysize
_TEXT	ENDS
; Function compile flags: /Ogtp
; File c:\program files (x86)\microsoft visual studio\2017\community\vc\tools\msvc\14.10.25017\include\xstring
;	COMDAT ?_Mysize@?$_String_alloc@U?$_String_base_types@_WV?$allocator@_W@std@@@std@@@std@@QAEAAIXZ
_TEXT	SEGMENT
?_Mysize@?$_String_alloc@U?$_String_base_types@_WV?$allocator@_W@std@@@std@@@std@@QAEAAIXZ PROC ; std::_String_alloc<std::_String_base_types<wchar_t,std::allocator<wchar_t> > >::_Mysize, COMDAT
; _this$ = ecx

; 1839 : 		return (_Get_data()._Mysize);

	lea	eax, DWORD PTR [ecx+16]

; 1840 : 		}

	ret	0
?_Mysize@?$_String_alloc@U?$_String_base_types@_WV?$allocator@_W@std@@@std@@@std@@QAEAAIXZ ENDP ; std::_String_alloc<std::_String_base_types<wchar_t,std::allocator<wchar_t> > >::_Mysize
_TEXT	ENDS
; Function compile flags: /Ogtp
; File c:\program files (x86)\microsoft visual studio\2017\community\vc\tools\msvc\14.10.25017\include\xstring
;	COMDAT ?_Get_data@?$_String_alloc@U?$_String_base_types@_WV?$allocator@_W@std@@@std@@@std@@QBEABV?$_String_val@U?$_Simple_types@_W@std@@@2@XZ
_TEXT	SEGMENT
?_Get_data@?$_String_alloc@U?$_String_base_types@_WV?$allocator@_W@std@@@std@@@std@@QBEABV?$_String_val@U?$_Simple_types@_W@std@@@2@XZ PROC ; std::_String_alloc<std::_String_base_types<wchar_t,std::allocator<wchar_t> > >::_Get_data, COMDAT
; _this$ = ecx

; 1834 : 		return (_Mypair._Get_second());

	mov	eax, ecx

; 1835 : 		}

	ret	0
?_Get_data@?$_String_alloc@U?$_String_base_types@_WV?$allocator@_W@std@@@std@@@std@@QBEABV?$_String_val@U?$_Simple_types@_W@std@@@2@XZ ENDP ; std::_String_alloc<std::_String_base_types<wchar_t,std::allocator<wchar_t> > >::_Get_data
_TEXT	ENDS
; Function compile flags: /Ogtp
; File c:\program files (x86)\microsoft visual studio\2017\community\vc\tools\msvc\14.10.25017\include\xstring
;	COMDAT ?_Get_data@?$_String_alloc@U?$_String_base_types@_WV?$allocator@_W@std@@@std@@@std@@QAEAAV?$_String_val@U?$_Simple_types@_W@std@@@2@XZ
_TEXT	SEGMENT
?_Get_data@?$_String_alloc@U?$_String_base_types@_WV?$allocator@_W@std@@@std@@@std@@QAEAAV?$_String_val@U?$_Simple_types@_W@std@@@2@XZ PROC ; std::_String_alloc<std::_String_base_types<wchar_t,std::allocator<wchar_t> > >::_Get_data, COMDAT
; _this$ = ecx

; 1829 : 		return (_Mypair._Get_second());

	mov	eax, ecx

; 1830 : 		}

	ret	0
?_Get_data@?$_String_alloc@U?$_String_base_types@_WV?$allocator@_W@std@@@std@@@std@@QAEAAV?$_String_val@U?$_Simple_types@_W@std@@@2@XZ ENDP ; std::_String_alloc<std::_String_base_types<wchar_t,std::allocator<wchar_t> > >::_Get_data
_TEXT	ENDS
; Function compile flags: /Ogtp
; File c:\program files (x86)\microsoft visual studio\2017\community\vc\tools\msvc\14.10.25017\include\xstring
;	COMDAT ?_Getal@?$_String_alloc@U?$_String_base_types@_WV?$allocator@_W@std@@@std@@@std@@QBEABU?$_Wrap_alloc@V?$allocator@_W@std@@@2@XZ
_TEXT	SEGMENT
?_Getal@?$_String_alloc@U?$_String_base_types@_WV?$allocator@_W@std@@@std@@@std@@QBEABU?$_Wrap_alloc@V?$allocator@_W@std@@@2@XZ PROC ; std::_String_alloc<std::_String_base_types<wchar_t,std::allocator<wchar_t> > >::_Getal, COMDAT
; _this$ = ecx

; 1824 : 		return (_Mypair._Get_first());

	mov	eax, ecx

; 1825 : 		}

	ret	0
?_Getal@?$_String_alloc@U?$_String_base_types@_WV?$allocator@_W@std@@@std@@@std@@QBEABU?$_Wrap_alloc@V?$allocator@_W@std@@@2@XZ ENDP ; std::_String_alloc<std::_String_base_types<wchar_t,std::allocator<wchar_t> > >::_Getal
_TEXT	ENDS
; Function compile flags: /Ogtp
; File c:\program files (x86)\microsoft visual studio\2017\community\vc\tools\msvc\14.10.25017\include\xstring
;	COMDAT ?_Getal@?$_String_alloc@U?$_String_base_types@_WV?$allocator@_W@std@@@std@@@std@@QAEAAU?$_Wrap_alloc@V?$allocator@_W@std@@@2@XZ
_TEXT	SEGMENT
?_Getal@?$_String_alloc@U?$_String_base_types@_WV?$allocator@_W@std@@@std@@@std@@QAEAAU?$_Wrap_alloc@V?$allocator@_W@std@@@2@XZ PROC ; std::_String_alloc<std::_String_base_types<wchar_t,std::allocator<wchar_t> > >::_Getal, COMDAT
; _this$ = ecx

; 1819 : 		return (_Mypair._Get_first());

	mov	eax, ecx

; 1820 : 		}

	ret	0
?_Getal@?$_String_alloc@U?$_String_base_types@_WV?$allocator@_W@std@@@std@@@std@@QAEAAU?$_Wrap_alloc@V?$allocator@_W@std@@@2@XZ ENDP ; std::_String_alloc<std::_String_base_types<wchar_t,std::allocator<wchar_t> > >::_Getal
_TEXT	ENDS
; Function compile flags: /Ogtp
; File c:\program files (x86)\microsoft visual studio\2017\community\vc\tools\msvc\14.10.25017\include\xstring
;	COMDAT ?_Orphan_all@?$_String_alloc@U?$_String_base_types@_WV?$allocator@_W@std@@@std@@@std@@QAEXXZ
_TEXT	SEGMENT
?_Orphan_all@?$_String_alloc@U?$_String_base_types@_WV?$allocator@_W@std@@@std@@@std@@QAEXXZ PROC ; std::_String_alloc<std::_String_base_types<wchar_t,std::allocator<wchar_t> > >::_Orphan_all, COMDAT
; _this$ = ecx

; 1809 : 		_Get_data()._Orphan_all();
; 1810 : 		}

	ret	0
?_Orphan_all@?$_String_alloc@U?$_String_base_types@_WV?$allocator@_W@std@@@std@@@std@@QAEXXZ ENDP ; std::_String_alloc<std::_String_base_types<wchar_t,std::allocator<wchar_t> > >::_Orphan_all
_TEXT	ENDS
; Function compile flags: /Ogtp
; File c:\program files (x86)\microsoft visual studio\2017\community\vc\tools\msvc\14.10.25017\include\xstring
;	COMDAT ??0?$_String_alloc@U?$_String_base_types@_WV?$allocator@_W@std@@@std@@@std@@QAE@XZ
_TEXT	SEGMENT
??0?$_String_alloc@U?$_String_base_types@_WV?$allocator@_W@std@@@std@@@std@@QAE@XZ PROC ; std::_String_alloc<std::_String_base_types<wchar_t,std::allocator<wchar_t> > >::_String_alloc<std::_String_base_types<wchar_t,std::allocator<wchar_t> > >, COMDAT
; _this$ = ecx

; 1595 : 		_Mysize(0),

	mov	DWORD PTR [ecx+16], 0

; 1697 : 		}

	mov	eax, ecx

; 1596 : 		_Myres(0)

	mov	DWORD PTR [ecx+20], 0

; 1697 : 		}

	ret	0
??0?$_String_alloc@U?$_String_base_types@_WV?$allocator@_W@std@@@std@@@std@@QAE@XZ ENDP ; std::_String_alloc<std::_String_base_types<wchar_t,std::allocator<wchar_t> > >::_String_alloc<std::_String_base_types<wchar_t,std::allocator<wchar_t> > >
_TEXT	ENDS
; Function compile flags: /Ogtp
; File c:\program files (x86)\microsoft visual studio\2017\community\vc\tools\msvc\14.10.25017\include\xstring
;	COMDAT ?_Myptr@?$_String_alloc@U?$_String_base_types@_WV?$allocator@_W@std@@@std@@@std@@QBEPB_WXZ
_TEXT	SEGMENT
?_Myptr@?$_String_alloc@U?$_String_base_types@_WV?$allocator@_W@std@@@std@@@std@@QBEPB_WXZ PROC ; std::_String_alloc<std::_String_base_types<wchar_t,std::allocator<wchar_t> > >::_Myptr, COMDAT
; _this$ = ecx

; 1628 : 		return (this->_BUF_SIZE <= _Myres);

	cmp	DWORD PTR [ecx+20], 8

; 1621 : 		return (_Large_string_engaged()

	jb	SHORT $LN11@Myptr

; 1690 : 		return (_Get_data()._Myptr());

	mov	eax, DWORD PTR [ecx]

; 1691 : 		}

	ret	0
$LN11@Myptr:

; 1690 : 		return (_Get_data()._Myptr());

	mov	eax, ecx

; 1691 : 		}

	ret	0
?_Myptr@?$_String_alloc@U?$_String_base_types@_WV?$allocator@_W@std@@@std@@@std@@QBEPB_WXZ ENDP ; std::_String_alloc<std::_String_base_types<wchar_t,std::allocator<wchar_t> > >::_Myptr
_TEXT	ENDS
; Function compile flags: /Ogtp
; File c:\program files (x86)\microsoft visual studio\2017\community\vc\tools\msvc\14.10.25017\include\xstring
;	COMDAT ?_Myptr@?$_String_alloc@U?$_String_base_types@_WV?$allocator@_W@std@@@std@@@std@@QAEPA_WXZ
_TEXT	SEGMENT
?_Myptr@?$_String_alloc@U?$_String_base_types@_WV?$allocator@_W@std@@@std@@@std@@QAEPA_WXZ PROC ; std::_String_alloc<std::_String_base_types<wchar_t,std::allocator<wchar_t> > >::_Myptr, COMDAT
; _this$ = ecx

; 1628 : 		return (this->_BUF_SIZE <= _Myres);

	cmp	DWORD PTR [ecx+20], 8

; 1614 : 		return (_Large_string_engaged()

	jb	SHORT $LN11@Myptr

; 1685 : 		return (_Get_data()._Myptr());

	mov	eax, DWORD PTR [ecx]

; 1686 : 		}

	ret	0
$LN11@Myptr:

; 1685 : 		return (_Get_data()._Myptr());

	mov	eax, ecx

; 1686 : 		}

	ret	0
?_Myptr@?$_String_alloc@U?$_String_base_types@_WV?$allocator@_W@std@@@std@@@std@@QAEPA_WXZ ENDP ; std::_String_alloc<std::_String_base_types<wchar_t,std::allocator<wchar_t> > >::_Myptr
_TEXT	ENDS
; Function compile flags: /Ogtp
;	COMDAT ??1?$_String_val@U?$_Simple_types@_W@std@@@std@@QAE@XZ
_TEXT	SEGMENT
??1?$_String_val@U?$_Simple_types@_W@std@@@std@@QAE@XZ PROC ; std::_String_val<std::_Simple_types<wchar_t> >::~_String_val<std::_Simple_types<wchar_t> >, COMDAT
; _this$ = ecx
	ret	0
??1?$_String_val@U?$_Simple_types@_W@std@@@std@@QAE@XZ ENDP ; std::_String_val<std::_Simple_types<wchar_t> >::~_String_val<std::_Simple_types<wchar_t> >
_TEXT	ENDS
; Function compile flags: /Ogtp
; File c:\program files (x86)\microsoft visual studio\2017\community\vc\tools\msvc\14.10.25017\include\xstring
;	COMDAT ??1_Bxty@?$_String_val@U?$_Simple_types@_W@std@@@std@@QAE@XZ
_TEXT	SEGMENT
??1_Bxty@?$_String_val@U?$_Simple_types@_W@std@@@std@@QAE@XZ PROC ; std::_String_val<std::_Simple_types<wchar_t> >::_Bxty::~_Bxty, COMDAT
; _this$ = ecx

; 1639 : 			}

	ret	0
??1_Bxty@?$_String_val@U?$_Simple_types@_W@std@@@std@@QAE@XZ ENDP ; std::_String_val<std::_Simple_types<wchar_t> >::_Bxty::~_Bxty
_TEXT	ENDS
; Function compile flags: /Ogtp
; File c:\program files (x86)\microsoft visual studio\2017\community\vc\tools\msvc\14.10.25017\include\xstring
;	COMDAT ??0_Bxty@?$_String_val@U?$_Simple_types@_W@std@@@std@@QAE@XZ
_TEXT	SEGMENT
??0_Bxty@?$_String_val@U?$_Simple_types@_W@std@@@std@@QAE@XZ PROC ; std::_String_val<std::_Simple_types<wchar_t> >::_Bxty::_Bxty, COMDAT
; _this$ = ecx

; 1634 : 			{	// user-provided, for fancy pointers
; 1635 : 			}

	mov	eax, ecx
	ret	0
??0_Bxty@?$_String_val@U?$_Simple_types@_W@std@@@std@@QAE@XZ ENDP ; std::_String_val<std::_Simple_types<wchar_t> >::_Bxty::_Bxty
_TEXT	ENDS
; Function compile flags: /Ogtp
; File c:\program files (x86)\microsoft visual studio\2017\community\vc\tools\msvc\14.10.25017\include\xstring
;	COMDAT ?_Large_string_engaged@?$_String_val@U?$_Simple_types@_W@std@@@std@@QBE_NXZ
_TEXT	SEGMENT
?_Large_string_engaged@?$_String_val@U?$_Simple_types@_W@std@@@std@@QBE_NXZ PROC ; std::_String_val<std::_Simple_types<wchar_t> >::_Large_string_engaged, COMDAT
; _this$ = ecx

; 1627 : 		{	// returns whether the large string mode (allocated memory) is engaged

	cmp	DWORD PTR [ecx+20], 8
	setae	al

; 1628 : 		return (this->_BUF_SIZE <= _Myres);
; 1629 : 		}

	ret	0
?_Large_string_engaged@?$_String_val@U?$_Simple_types@_W@std@@@std@@QBE_NXZ ENDP ; std::_String_val<std::_Simple_types<wchar_t> >::_Large_string_engaged
_TEXT	ENDS
; Function compile flags: /Ogtp
; File c:\program files (x86)\microsoft visual studio\2017\community\vc\tools\msvc\14.10.25017\include\xstring
;	COMDAT ?_Myptr@?$_String_val@U?$_Simple_types@_W@std@@@std@@QBEPB_WXZ
_TEXT	SEGMENT
?_Myptr@?$_String_val@U?$_Simple_types@_W@std@@@std@@QBEPB_WXZ PROC ; std::_String_val<std::_Simple_types<wchar_t> >::_Myptr, COMDAT
; _this$ = ecx

; 1628 : 		return (this->_BUF_SIZE <= _Myres);

	cmp	DWORD PTR [ecx+20], 8

; 1621 : 		return (_Large_string_engaged()

	jb	SHORT $LN3@Myptr
	mov	eax, DWORD PTR [ecx]

; 1622 : 			? _Unfancy(_Bx._Ptr)
; 1623 : 			: _Bx._Buf);
; 1624 : 		}

	ret	0
$LN3@Myptr:

; 1621 : 		return (_Large_string_engaged()

	mov	eax, ecx

; 1622 : 			? _Unfancy(_Bx._Ptr)
; 1623 : 			: _Bx._Buf);
; 1624 : 		}

	ret	0
?_Myptr@?$_String_val@U?$_Simple_types@_W@std@@@std@@QBEPB_WXZ ENDP ; std::_String_val<std::_Simple_types<wchar_t> >::_Myptr
_TEXT	ENDS
; Function compile flags: /Ogtp
; File c:\program files (x86)\microsoft visual studio\2017\community\vc\tools\msvc\14.10.25017\include\xstring
;	COMDAT ?_Myptr@?$_String_val@U?$_Simple_types@_W@std@@@std@@QAEPA_WXZ
_TEXT	SEGMENT
?_Myptr@?$_String_val@U?$_Simple_types@_W@std@@@std@@QAEPA_WXZ PROC ; std::_String_val<std::_Simple_types<wchar_t> >::_Myptr, COMDAT
; _this$ = ecx

; 1628 : 		return (this->_BUF_SIZE <= _Myres);

	cmp	DWORD PTR [ecx+20], 8

; 1614 : 		return (_Large_string_engaged()

	jb	SHORT $LN3@Myptr
	mov	eax, DWORD PTR [ecx]

; 1615 : 			? _Unfancy(_Bx._Ptr)
; 1616 : 			: _Bx._Buf);
; 1617 : 		}

	ret	0
$LN3@Myptr:

; 1614 : 		return (_Large_string_engaged()

	mov	eax, ecx

; 1615 : 			? _Unfancy(_Bx._Ptr)
; 1616 : 			: _Bx._Buf);
; 1617 : 		}

	ret	0
?_Myptr@?$_String_val@U?$_Simple_types@_W@std@@@std@@QAEPA_WXZ ENDP ; std::_String_val<std::_Simple_types<wchar_t> >::_Myptr
_TEXT	ENDS
; Function compile flags: /Ogtp
; File c:\program files (x86)\microsoft visual studio\2017\community\vc\tools\msvc\14.10.25017\include\xstring
;	COMDAT ??0?$_String_val@U?$_Simple_types@_W@std@@@std@@QAE@XZ
_TEXT	SEGMENT
??0?$_String_val@U?$_Simple_types@_W@std@@@std@@QAE@XZ PROC ; std::_String_val<std::_Simple_types<wchar_t> >::_String_val<std::_Simple_types<wchar_t> >, COMDAT
; _this$ = ecx

; 1595 : 		_Mysize(0),

	mov	DWORD PTR [ecx+16], 0

; 1598 : 		}

	mov	eax, ecx
	mov	DWORD PTR [ecx+20], 0
	ret	0
??0?$_String_val@U?$_Simple_types@_W@std@@@std@@QAE@XZ ENDP ; std::_String_val<std::_Simple_types<wchar_t> >::_String_val<std::_Simple_types<wchar_t> >
_TEXT	ENDS
; Function compile flags: /Ogtp
; File c:\program files (x86)\microsoft visual studio\2017\community\vc\tools\msvc\14.10.25017\include\xmemory0
;	COMDAT ?max_size@?$_Wrap_alloc@V?$allocator@_W@std@@@std@@QBEIU_Nil@2@@Z
_TEXT	SEGMENT
___formal$ = 8						; size = 1
?max_size@?$_Wrap_alloc@V?$allocator@_W@std@@@std@@QBEIU_Nil@2@@Z PROC ; std::_Wrap_alloc<std::allocator<wchar_t> >::max_size, COMDAT
; _this$ = ecx

; 1108 : 		return (_Mytraits::max_size(*this));

	mov	eax, 2147483647				; 7fffffffH

; 1109 : 		}

	ret	4
?max_size@?$_Wrap_alloc@V?$allocator@_W@std@@@std@@QBEIU_Nil@2@@Z ENDP ; std::_Wrap_alloc<std::allocator<wchar_t> >::max_size
_TEXT	ENDS
; Function compile flags: /Ogtp
; File c:\program files (x86)\microsoft visual studio\2017\community\vc\tools\msvc\14.10.25017\include\xmemory0
;	COMDAT ?deallocate@?$_Wrap_alloc@V?$allocator@_W@std@@@std@@QAEXPA_WI@Z
_TEXT	SEGMENT
__Ptr$ = 8						; size = 4
__Count$ = 12						; size = 4
?deallocate@?$_Wrap_alloc@V?$allocator@_W@std@@@std@@QAEXPA_WI@Z PROC ; std::_Wrap_alloc<std::allocator<wchar_t> >::deallocate, COMDAT
; _this$ = ecx

; 1087 : 		{	// deallocate object at _Ptr, ignore size

	npad	2
	push	ebp
	mov	ebp, esp

; 823  : 		_Deallocate(_Ptr, _Count, sizeof (_Ty));

	push	2
	push	DWORD PTR __Count$[ebp]
	push	DWORD PTR __Ptr$[ebp]
	call	?_Deallocate@std@@YAXPAXII@Z		; std::_Deallocate
	add	esp, 12					; 0000000cH

; 1088 : 		_Mybase::deallocate(_Ptr, _Count);
; 1089 : 		}

	pop	ebp
	ret	8
?deallocate@?$_Wrap_alloc@V?$allocator@_W@std@@@std@@QAEXPA_WI@Z ENDP ; std::_Wrap_alloc<std::allocator<wchar_t> >::deallocate
_TEXT	ENDS
; Function compile flags: /Ogtp
; File c:\program files (x86)\microsoft visual studio\2017\community\vc\tools\msvc\14.10.25017\include\xmemory0
;	COMDAT ?allocate@?$_Wrap_alloc@V?$allocator@_W@std@@@std@@QAEPA_WI@Z
_TEXT	SEGMENT
__Count$ = 8						; size = 4
?allocate@?$_Wrap_alloc@V?$allocator@_W@std@@@std@@QAEPA_WI@Z PROC ; std::_Wrap_alloc<std::allocator<wchar_t> >::allocate, COMDAT
; _this$ = ecx

; 1076 : 		{	// allocate array of _Count elements

	npad	2
	push	ebp
	mov	ebp, esp

; 1078 : 		}

	pop	ebp

; 1077 : 		return (_Mybase::allocate(_Count));

	jmp	?allocate@?$allocator@_W@std@@QAEPA_WI@Z ; std::allocator<wchar_t>::allocate
?allocate@?$_Wrap_alloc@V?$allocator@_W@std@@@std@@QAEPA_WI@Z ENDP ; std::_Wrap_alloc<std::allocator<wchar_t> >::allocate
_TEXT	ENDS
; Function compile flags: /Ogtp
; File c:\program files (x86)\microsoft visual studio\2017\community\vc\tools\msvc\14.10.25017\include\xmemory0
;	COMDAT ??0?$_Wrap_alloc@V?$allocator@_W@std@@@std@@QAE@XZ
_TEXT	SEGMENT
??0?$_Wrap_alloc@V?$allocator@_W@std@@@std@@QAE@XZ PROC	; std::_Wrap_alloc<std::allocator<wchar_t> >::_Wrap_alloc<std::allocator<wchar_t> >, COMDAT
; _this$ = ecx

; 1038 : 		}

	mov	eax, ecx
	ret	0
??0?$_Wrap_alloc@V?$allocator@_W@std@@@std@@QAE@XZ ENDP	; std::_Wrap_alloc<std::allocator<wchar_t> >::_Wrap_alloc<std::allocator<wchar_t> >
_TEXT	ENDS
; Function compile flags: /Ogtp
; File c:\program files (x86)\microsoft visual studio\2017\community\vc\tools\msvc\14.10.25017\include\xmemory0
;	COMDAT ?max_size@?$allocator_traits@V?$allocator@_W@std@@@std@@SAIABV?$allocator@_W@2@@Z
_TEXT	SEGMENT
__Al$ = 8						; size = 4
?max_size@?$allocator_traits@V?$allocator@_W@std@@@std@@SAIABV?$allocator@_W@2@@Z PROC ; std::allocator_traits<std::allocator<wchar_t> >::max_size, COMDAT

; 970  : 		return (_Al.max_size());

	mov	eax, 2147483647				; 7fffffffH

; 971  : 		}

	ret	0
?max_size@?$allocator_traits@V?$allocator@_W@std@@@std@@SAIABV?$allocator@_W@2@@Z ENDP ; std::allocator_traits<std::allocator<wchar_t> >::max_size
_TEXT	ENDS
; Function compile flags: /Ogtp
; File c:\program files (x86)\microsoft visual studio\2017\community\vc\tools\msvc\14.10.25017\include\xmemory0
;	COMDAT ?max_size@?$allocator@_W@std@@QBEIXZ
_TEXT	SEGMENT
?max_size@?$allocator@_W@std@@QBEIXZ PROC		; std::allocator<wchar_t>::max_size, COMDAT
; _this$ = ecx

; 851  : 		return ((size_t)(-1) / sizeof (_Ty));

	mov	eax, 2147483647				; 7fffffffH

; 852  : 		}

	ret	0
?max_size@?$allocator@_W@std@@QBEIXZ ENDP		; std::allocator<wchar_t>::max_size
_TEXT	ENDS
; Function compile flags: /Ogtp
; File c:\program files (x86)\microsoft visual studio\2017\community\vc\tools\msvc\14.10.25017\include\xmemory0
;	COMDAT ?allocate@?$allocator@_W@std@@QAEPA_WI@Z
_TEXT	SEGMENT
__Count$ = 8						; size = 4
?allocate@?$allocator@_W@std@@QAEPA_WI@Z PROC		; std::allocator<wchar_t>::allocate, COMDAT
; _this$ = ecx

; 827  : 		{	// allocate array of _Count elements

	npad	2
	push	ebp
	mov	ebp, esp

; 53   : 	if (_Count == 0)

	mov	eax, DWORD PTR __Count$[ebp]
	test	eax, eax
	jne	SHORT $LN4@allocate
$LN12@allocate:

; 828  : 		return (static_cast<pointer>(_Allocate(_Count, sizeof (_Ty))));
; 829  : 		}

	pop	ebp
	ret	4
$LN4@allocate:

; 57   : 	if ((size_t)(-1) / _Sz < _Count)

	cmp	eax, 2147483647				; 7fffffffH
	jbe	SHORT $LN5@allocate

; 58   : 		_Xbad_alloc();	// report no memory

	call	DWORD PTR __imp_?_Xbad_alloc@std@@YAXXZ
$LN15@allocate:
$LN5@allocate:

; 59   : 	const size_t _User_size = _Count * _Sz;

	add	eax, eax

; 60   : 
; 61   :  #if defined(_M_IX86) || defined(_M_X64)
; 62   : 	if (_Try_aligned_allocation
; 63   : 		&& _BIG_ALLOCATION_THRESHOLD <= _User_size)

	cmp	eax, 4096				; 00001000H
	jb	SHORT $LN6@allocate

; 64   : 		{	// allocate large block
; 65   : 		static_assert(sizeof (void *) < _BIG_ALLOCATION_ALIGNMENT,
; 66   : 			"Big allocations should at least match vector register size");
; 67   : 		const size_t _Block_size = _NON_USER_SIZE + _User_size;

	lea	ecx, DWORD PTR [eax+35]

; 68   : 		if (_Block_size <= _User_size)

	cmp	ecx, eax
	ja	SHORT $LN8@allocate

; 69   : 			_Xbad_alloc();	// report no memory

	call	DWORD PTR __imp_?_Xbad_alloc@std@@YAXXZ
$LN16@allocate:
$LN8@allocate:

; 70   : 		const uintptr_t _Ptr_container =
; 71   : 			reinterpret_cast<uintptr_t>(::operator new(_Block_size));

	push	ecx
	call	??2@YAPAXI@Z				; operator new
	mov	ecx, eax
	add	esp, 4

; 72   : 		_SCL_SECURE_ALWAYS_VALIDATE(_Ptr_container != 0);

	test	ecx, ecx
	jne	SHORT $LN9@allocate
	call	DWORD PTR __imp___invalid_parameter_noinfo_noreturn
$LN17@allocate:
$LN9@allocate:

; 73   : 		_Ptr = reinterpret_cast<void *>((_Ptr_container + _NON_USER_SIZE)

	lea	eax, DWORD PTR [ecx+35]
	and	eax, -32				; ffffffe0H

; 74   : 			& ~(_BIG_ALLOCATION_ALIGNMENT - 1));
; 75   : 		static_cast<uintptr_t *>(_Ptr)[-1] = _Ptr_container;

	mov	DWORD PTR [eax-4], ecx

; 828  : 		return (static_cast<pointer>(_Allocate(_Count, sizeof (_Ty))));
; 829  : 		}

	pop	ebp
	ret	4
$LN6@allocate:

; 87   : 		_Ptr = ::operator new(_User_size);

	push	eax
	call	??2@YAPAXI@Z				; operator new
	add	esp, 4

; 88   : 		_SCL_SECURE_ALWAYS_VALIDATE(_Ptr != 0);

	test	eax, eax
	jne	SHORT $LN12@allocate
	call	DWORD PTR __imp___invalid_parameter_noinfo_noreturn
$LN18@allocate:
$LN14@allocate:
	int	3
?allocate@?$allocator@_W@std@@QAEPA_WI@Z ENDP		; std::allocator<wchar_t>::allocate
_TEXT	ENDS
; Function compile flags: /Ogtp
; File c:\program files (x86)\microsoft visual studio\2017\community\vc\tools\msvc\14.10.25017\include\xmemory0
;	COMDAT ?deallocate@?$allocator@_W@std@@QAEXPA_WI@Z
_TEXT	SEGMENT
__Ptr$ = 8						; size = 4
__Count$ = 12						; size = 4
?deallocate@?$allocator@_W@std@@QAEXPA_WI@Z PROC	; std::allocator<wchar_t>::deallocate, COMDAT
; _this$ = ecx

; 822  : 		{	// deallocate object at _Ptr

	npad	2
	push	ebp
	mov	ebp, esp

; 823  : 		_Deallocate(_Ptr, _Count, sizeof (_Ty));

	push	2
	push	DWORD PTR __Count$[ebp]
	push	DWORD PTR __Ptr$[ebp]
	call	?_Deallocate@std@@YAXPAXII@Z		; std::_Deallocate
	add	esp, 12					; 0000000cH

; 824  : 		}

	pop	ebp
	ret	8
?deallocate@?$allocator@_W@std@@QAEXPA_WI@Z ENDP	; std::allocator<wchar_t>::deallocate
_TEXT	ENDS
; Function compile flags: /Ogtp
; File c:\program files (x86)\microsoft visual studio\2017\community\vc\tools\msvc\14.10.25017\include\xmemory0
;	COMDAT ??0?$allocator@_W@std@@QAE@XZ
_TEXT	SEGMENT
??0?$allocator@_W@std@@QAE@XZ PROC			; std::allocator<wchar_t>::allocator<wchar_t>, COMDAT
; _this$ = ecx

; 803  : 		{	// construct default allocator (do nothing)
; 804  : 		}

	mov	eax, ecx
	ret	0
??0?$allocator@_W@std@@QAE@XZ ENDP			; std::allocator<wchar_t>::allocator<wchar_t>
_TEXT	ENDS
; Function compile flags: /Ogtp
; File c:\program files (x86)\microsoft visual studio\2017\community\vc\tools\msvc\14.10.25017\include\xstring
;	COMDAT ?_Xran@?$basic_string@DU?$char_traits@D@std@@V?$allocator@D@2@@std@@SAXXZ
_TEXT	SEGMENT
?_Xran@?$basic_string@DU?$char_traits@D@std@@V?$allocator@D@2@@std@@SAXXZ PROC ; std::basic_string<char,std::char_traits<char>,std::allocator<char> >::_Xran, COMDAT

; 3646 : 		_Xout_of_range("invalid string position");

	push	OFFSET ??_C@_0BI@CFPLBAOH@invalid?5string?5position?$AA@
	call	DWORD PTR __imp_?_Xout_of_range@std@@YAXPBD@Z
$LN4@Xran:
$LN3@Xran:
	int	3
?_Xran@?$basic_string@DU?$char_traits@D@std@@V?$allocator@D@2@@std@@SAXXZ ENDP ; std::basic_string<char,std::char_traits<char>,std::allocator<char> >::_Xran
_TEXT	ENDS
; Function compile flags: /Ogtp
; File c:\program files (x86)\microsoft visual studio\2017\community\vc\tools\msvc\14.10.25017\include\xstring
;	COMDAT ?_Check_offset@?$basic_string@DU?$char_traits@D@std@@V?$allocator@D@2@@std@@QBEXI@Z
_TEXT	SEGMENT
__Off$ = 8						; size = 4
?_Check_offset@?$basic_string@DU?$char_traits@D@std@@V?$allocator@D@2@@std@@QBEXI@Z PROC ; std::basic_string<char,std::char_traits<char>,std::allocator<char> >::_Check_offset, COMDAT
; _this$ = ecx

; 3629 : 		{	// checks whether _Off is in the bounds of [0, this->size()]

	npad	2
	push	ebp
	mov	ebp, esp

; 3630 : 		if (this->_Mysize() < _Off)

	mov	eax, DWORD PTR [ecx+16]
	cmp	eax, DWORD PTR __Off$[ebp]
	jb	SHORT $LN14@Check_offs

; 3633 : 			}
; 3634 : 		}

	pop	ebp
	ret	4
$LN14@Check_offs:

; 3631 : 			{
; 3632 : 			_Xran();

	call	?_Xran@?$basic_string@DU?$char_traits@D@std@@V?$allocator@D@2@@std@@SAXXZ ; std::basic_string<char,std::char_traits<char>,std::allocator<char> >::_Xran
$LN16@Check_offs:
$LN13@Check_offs:
	int	3
?_Check_offset@?$basic_string@DU?$char_traits@D@std@@V?$allocator@D@2@@std@@QBEXI@Z ENDP ; std::basic_string<char,std::char_traits<char>,std::allocator<char> >::_Check_offset
_TEXT	ENDS
; Function compile flags: /Ogtp
; File c:\program files (x86)\microsoft visual studio\2017\community\vc\tools\msvc\14.10.25017\include\xstring
;	COMDAT ?_Xlen@?$basic_string@DU?$char_traits@D@std@@V?$allocator@D@2@@std@@SAXXZ
_TEXT	SEGMENT
?_Xlen@?$basic_string@DU?$char_traits@D@std@@V?$allocator@D@2@@std@@SAXXZ PROC ; std::basic_string<char,std::char_traits<char>,std::allocator<char> >::_Xlen, COMDAT

; 3625 : 		_Xlength_error("string too long");

	push	OFFSET ??_C@_0BA@JFNIOLAK@string?5too?5long?$AA@
	call	DWORD PTR __imp_?_Xlength_error@std@@YAXPBD@Z
$LN4@Xlen:
$LN3@Xlen:
	int	3
?_Xlen@?$basic_string@DU?$char_traits@D@std@@V?$allocator@D@2@@std@@SAXXZ ENDP ; std::basic_string<char,std::char_traits<char>,std::allocator<char> >::_Xlen
_TEXT	ENDS
; Function compile flags: /Ogtp
; File c:\program files (x86)\microsoft visual studio\2017\community\vc\tools\msvc\14.10.25017\include\xstring
; File c:\program files (x86)\microsoft visual studio\2017\community\vc\tools\msvc\14.10.25017\include\xmemory0
; File c:\program files (x86)\microsoft visual studio\2017\community\vc\tools\msvc\14.10.25017\include\xstring
; File c:\program files (x86)\microsoft visual studio\2017\community\vc\tools\msvc\14.10.25017\include\xmemory0
; File c:\program files (x86)\microsoft visual studio\2017\community\vc\tools\msvc\14.10.25017\include\xstring
; File c:\program files (x86)\microsoft visual studio\2017\community\vc\tools\msvc\14.10.25017\include\iosfwd
; File c:\program files (x86)\microsoft visual studio\2017\community\vc\tools\msvc\14.10.25017\include\xstring
;	COMDAT ?_Tidy_deallocate@?$basic_string@DU?$char_traits@D@std@@V?$allocator@D@2@@std@@QAEXXZ
_TEXT	SEGMENT
?_Tidy_deallocate@?$basic_string@DU?$char_traits@D@std@@V?$allocator@D@2@@std@@QAEXXZ PROC ; std::basic_string<char,std::char_traits<char>,std::allocator<char> >::_Tidy_deallocate, COMDAT
; _this$ = ecx

; 3605 : 		{	// initialize buffer, deallocating any storage

	npad	2
	push	esi
	mov	esi, ecx

; 1628 : 		return (this->_BUF_SIZE <= _Myres);

	mov	eax, DWORD PTR [esi+20]
	cmp	eax, 16					; 00000010H

; 3606 : 		this->_Orphan_all();
; 3607 : 		auto& _My_data = this->_Get_data();
; 3608 : 		if (_My_data._Large_string_engaged())

	jb	SHORT $LN2@Tidy_deall
; File c:\program files (x86)\microsoft visual studio\2017\community\vc\tools\msvc\14.10.25017\include\xmemory0

; 823  : 		_Deallocate(_Ptr, _Count, sizeof (_Ty));

	push	1
; File c:\program files (x86)\microsoft visual studio\2017\community\vc\tools\msvc\14.10.25017\include\xstring

; 3613 : 			_Al.deallocate(_Ptr, _My_data._Myres + 1);

	inc	eax
; File c:\program files (x86)\microsoft visual studio\2017\community\vc\tools\msvc\14.10.25017\include\xmemory0

; 823  : 		_Deallocate(_Ptr, _Count, sizeof (_Ty));

	push	eax
	push	DWORD PTR [esi]
	call	?_Deallocate@std@@YAXPAXII@Z		; std::_Deallocate
	add	esp, 12					; 0000000cH
$LN2@Tidy_deall:
; File c:\program files (x86)\microsoft visual studio\2017\community\vc\tools\msvc\14.10.25017\include\xstring

; 3616 : 		_My_data._Mysize = 0;

	mov	DWORD PTR [esi+16], 0

; 3617 : 		_My_data._Myres = this->_BUF_SIZE - 1;

	mov	DWORD PTR [esi+20], 15			; 0000000fH
; File c:\program files (x86)\microsoft visual studio\2017\community\vc\tools\msvc\14.10.25017\include\iosfwd

; 517  : 		_Left = _Right;

	mov	BYTE PTR [esi], 0
	pop	esi
; File c:\program files (x86)\microsoft visual studio\2017\community\vc\tools\msvc\14.10.25017\include\xstring

; 3621 : 		}

	ret	0
?_Tidy_deallocate@?$basic_string@DU?$char_traits@D@std@@V?$allocator@D@2@@std@@QAEXXZ ENDP ; std::basic_string<char,std::char_traits<char>,std::allocator<char> >::_Tidy_deallocate
_TEXT	ENDS
; Function compile flags: /Ogtp
; File c:\program files (x86)\microsoft visual studio\2017\community\vc\tools\msvc\14.10.25017\include\xstring
; File c:\program files (x86)\microsoft visual studio\2017\community\vc\tools\msvc\14.10.25017\include\iosfwd
; File c:\program files (x86)\microsoft visual studio\2017\community\vc\tools\msvc\14.10.25017\include\xstring
;	COMDAT ?_Tidy_init@?$basic_string@DU?$char_traits@D@std@@V?$allocator@D@2@@std@@QAEXXZ
_TEXT	SEGMENT
?_Tidy_init@?$basic_string@DU?$char_traits@D@std@@V?$allocator@D@2@@std@@QAEXXZ PROC ; std::basic_string<char,std::char_traits<char>,std::allocator<char> >::_Tidy_init, COMDAT
; _this$ = ecx

; 3596 : 		auto& _My_data = this->_Get_data();
; 3597 : 		_My_data._Mysize = 0;

	mov	DWORD PTR [ecx+16], 0

; 3598 : 		_My_data._Myres = this->_BUF_SIZE - 1;

	mov	DWORD PTR [ecx+20], 15			; 0000000fH
; File c:\program files (x86)\microsoft visual studio\2017\community\vc\tools\msvc\14.10.25017\include\iosfwd

; 517  : 		_Left = _Right;

	mov	BYTE PTR [ecx], 0
; File c:\program files (x86)\microsoft visual studio\2017\community\vc\tools\msvc\14.10.25017\include\xstring

; 3602 : 		}

	ret	0
?_Tidy_init@?$basic_string@DU?$char_traits@D@std@@V?$allocator@D@2@@std@@QAEXXZ ENDP ; std::basic_string<char,std::char_traits<char>,std::allocator<char> >::_Tidy_init
_TEXT	ENDS
; Function compile flags: /Ogtp
; File c:\program files (x86)\microsoft visual studio\2017\community\vc\tools\msvc\14.10.25017\include\xstring
; File c:\program files (x86)\microsoft visual studio\2017\community\vc\tools\msvc\14.10.25017\include\xstddef
; File c:\program files (x86)\microsoft visual studio\2017\community\vc\tools\msvc\14.10.25017\include\iosfwd
; File c:\program files (x86)\microsoft visual studio\2017\community\vc\tools\msvc\14.10.25017\include\xstring
;	COMDAT ?_Grow@?$basic_string@DU?$char_traits@D@std@@V?$allocator@D@2@@std@@QAE_NI@Z
_TEXT	SEGMENT
__Newsize$ = 8						; size = 4
