; Listing generated by Microsoft (R) Optimizing Compiler Version 19.10.25019.0 

	TITLE	C:\Users\andon\Source\Repos\SpecialK\src\nvapi.cpp
	.686P
	.XMM
	include listing.inc
	.model	flat

INCLUDELIB MSVCRT
INCLUDELIB OLDNAMES

PUBLIC	?bLibShutdown@@3HA				; bLibShutdown
PUBLIC	?bLibInit@@3HA					; bLibInit
PUBLIC	_NvAPI_GPU_GetRamType
PUBLIC	_NvAPI_GPU_GetFBWidthAndLocation
PUBLIC	_NvAPI_GPU_GetPCIEInfo
PUBLIC	_NvAPI_GetPhysicalGPUFromGPUID
PUBLIC	_NvAPI_GetGPUIDFromPhysicalGPU
PUBLIC	?nv_hardware@NVAPI@sk@@3_NA			; sk::NVAPI::nv_hardware
_BSS	SEGMENT
?nvapi_silent@@3_NA DB 01H DUP (?)			; nvapi_silent
	ALIGN	4

?_nv_dxgi_adapters@@3PAUDXGI_ADAPTER_DESC@@A DB 04900H DUP (?) ; _nv_dxgi_adapters
?_nv_dxgi_gpus@@3PAPAUNvPhysicalGpuHandle__@@A DD 040H DUP (?) ; _nv_dxgi_gpus
?phys@@3PAPAUNvPhysicalGpuHandle__@@A DD 040H DUP (?)	; phys
?bLibShutdown@@3HA DD 01H DUP (?)			; bLibShutdown
?bLibInit@@3HA DD 01H DUP (?)				; bLibInit
_NvAPI_GPU_GetRamType DD 01H DUP (?)
_NvAPI_GPU_GetFBWidthAndLocation DD 01H DUP (?)
_NvAPI_GPU_GetPCIEInfo DD 01H DUP (?)
_NvAPI_GetPhysicalGPUFromGPUID DD 01H DUP (?)
_NvAPI_GetGPUIDFromPhysicalGPU DD 01H DUP (?)
?nv_hardware@NVAPI@sk@@3_NA DB 01H DUP (?)		; sk::NVAPI::nv_hardware
_BSS	ENDS
CONST	SEGMENT
$SG165888 DB	'DRS_SetSetting (hSession, hProfile, &autobias_val)', 00H
	ORG $+1
$SG165891 DB	'E', 00H, 'r', 00H, 'r', 00H, 'o', 00H, 'r', 00H, ' ', 00H
	DB	'C', 00H, 'a', 00H, 'l', 00H, 'l', 00H, 'i', 00H, 'n', 00H, 'g'
	DB	00H, ' ', 00H, 'N', 00H, 'V', 00H, 'A', 00H, 'P', 00H, 'I', 00H
	DB	' ', 00H, 'F', 00H, 'u', 00H, 'n', 00H, 'c', 00H, 't', 00H, 'i'
	DB	00H, 'o', 00H, 'n', 00H, 00H, 00H
	ORG $+2
$SG165892 DB	'c:\users\andon\source\repos\specialk\src\nvapi.cpp', 00H
	ORG $+1
$SG165893 DB	'SK_NvAPI_SetAntiAliasingOverride', 00H
	ORG $+3
$SG165894 DB	'DRS_SetSetting (hSession, hProfile, &override_val)', 00H
	ORG $+1
$SG165897 DB	'E', 00H, 'r', 00H, 'r', 00H, 'o', 00H, 'r', 00H, ' ', 00H
	DB	'C', 00H, 'a', 00H, 'l', 00H, 'l', 00H, 'i', 00H, 'n', 00H, 'g'
	DB	00H, ' ', 00H, 'N', 00H, 'V', 00H, 'A', 00H, 'P', 00H, 'I', 00H
	DB	' ', 00H, 'F', 00H, 'u', 00H, 'n', 00H, 'c', 00H, 't', 00H, 'i'
	DB	00H, 'o', 00H, 'n', 00H, 00H, 00H
	ORG $+2
$SG165898 DB	'c:\users\andon\source\repos\specialk\src\nvapi.cpp', 00H
	ORG $+1
$SG165899 DB	'SK_NvAPI_SetAntiAliasingOverride', 00H
	ORG $+3
$SG165900 DB	'DRS_SaveSettings (hSession)', 00H
$SG165902 DB	'E', 00H, 'r', 00H, 'r', 00H, 'o', 00H, 'r', 00H, ' ', 00H
	DB	'C', 00H, 'a', 00H, 'l', 00H, 'l', 00H, 'i', 00H, 'n', 00H, 'g'
	DB	00H, ' ', 00H, 'N', 00H, 'V', 00H, 'A', 00H, 'P', 00H, 'I', 00H
	DB	' ', 00H, 'F', 00H, 'u', 00H, 'n', 00H, 'c', 00H, 't', 00H, 'i'
	DB	00H, 'o', 00H, 'n', 00H, 00H, 00H
	ORG $+2
$SG165903 DB	'c:\users\andon\source\repos\specialk\src\nvapi.cpp', 00H
	ORG $+1
$SG165904 DB	'SK_NvAPI_SetAntiAliasingOverride', 00H
	ORG $+3
$SG165905 DB	'DRS_DestroySession (hSession)', 00H
	ORG $+2
$SG166189 DB	'E', 00H, 'r', 00H, 'r', 00H, 'o', 00H, 'r', 00H, ' ', 00H
	DB	'C', 00H, 'a', 00H, 'l', 00H, 'l', 00H, 'i', 00H, 'n', 00H, 'g'
	DB	00H, ' ', 00H, 'N', 00H, 'V', 00H, 'A', 00H, 'P', 00H, 'I', 00H
	DB	' ', 00H, 'F', 00H, 'u', 00H, 'n', 00H, 'c', 00H, 't', 00H, 'i'
	DB	00H, 'o', 00H, 'n', 00H, 00H, 00H
	ORG $+2
$SG166190 DB	'c:\users\andon\source\repos\specialk\src\nvapi.cpp', 00H
	ORG $+1
$SG166191 DB	'sk::NVAPI::SetSLIOverride', 00H
	ORG $+2
$SG166192 DB	'DRS_CreateSession (&hSession)', 00H
	ORG $+2
$SG166194 DB	'E', 00H, 'r', 00H, 'r', 00H, 'o', 00H, 'r', 00H, ' ', 00H
	DB	'C', 00H, 'a', 00H, 'l', 00H, 'l', 00H, 'i', 00H, 'n', 00H, 'g'
	DB	00H, ' ', 00H, 'N', 00H, 'V', 00H, 'A', 00H, 'P', 00H, 'I', 00H
	DB	' ', 00H, 'F', 00H, 'u', 00H, 'n', 00H, 'c', 00H, 't', 00H, 'i'
	DB	00H, 'o', 00H, 'n', 00H, 00H, 00H
	ORG $+2
$SG166195 DB	'c:\users\andon\source\repos\specialk\src\nvapi.cpp', 00H
	ORG $+1
$SG166196 DB	'sk::NVAPI::SetSLIOverride', 00H
	ORG $+2
$SG166197 DB	'DRS_LoadSettings (hSession)', 00H
$SG166200 DB	'd', 00H, 'e', 00H, 'f', 00H, 'a', 00H, 'u', 00H, 'l', 00H
	DB	't', 00H, 00H, 00H
$SG166203 DB	'a', 00H, 'u', 00H, 't', 00H, 'o', 00H, 00H, 00H
	ORG $+2
$SG166206 DB	's', 00H, 'i', 00H, 'n', 00H, 'g', 00H, 'l', 00H, 'e', 00H
	DB	00H, 00H
	ORG $+2
$SG166209 DB	'a', 00H, 'f', 00H, 'r', 00H, 00H, 00H
$SG166212 DB	'a', 00H, 'f', 00H, 'r', 00H, '2', 00H, 00H, 00H
	ORG $+2
$SG166215 DB	's', 00H, 'f', 00H, 'r', 00H, 00H, 00H
$SG166219 DB	'3', 00H, 'a', 00H, 'f', 00H, 'r', 00H, 00H, 00H
	ORG $+2
$SG166220 DB	'a', 00H, 'f', 00H, 'r', 00H, ' ', 00H, 'o', 00H, 'f', 00H
	DB	' ', 00H, 's', 00H, 'f', 00H, 'r', 00H, 00H, 00H
	ORG $+2
$SG166221 DB	'a', 00H, 'f', 00H, 'r', 00H, '3', 00H, 00H, 00H
	ORG $+2
$SG166222 DB	'a', 00H, 'f', 00H, 'r', 00H, ' ', 00H, 'o', 00H, 'f', 00H
	DB	' ', 00H, 's', 00H, 'f', 00H, 'r', 00H, ' ', 00H, ' ', 00H, 'f'
	DB	00H, 'a', 00H, 'l', 00H, 'l', 00H, 'b', 00H, 'a', 00H, 'c', 00H
	DB	'k', 00H, ' ', 00H, '3', 00H, 'a', 00H, 'f', 00H, 'r', 00H, 00H
	DB	00H
$SG166223 DB	'[', 00H, ' ', 00H, ' ', 00H, 'N', 00H, 'v', 00H, 'A', 00H
	DB	'P', 00H, 'I', 00H, ' ', 00H, ' ', 00H, ' ', 00H, ']', 00H, ' '
	DB	00H, '>', 00H, '>', 00H, ' ', 00H, 'U', 00H, 'n', 00H, 'k', 00H
	DB	'n', 00H, 'o', 00H, 'w', 00H, 'n', 00H, ' ', 00H, 'S', 00H, 'L'
	DB	00H, 'I', 00H, ' ', 00H, 'M', 00H, 'o', 00H, 'd', 00H, 'e', 00H
	DB	':', 00H, ' ', 00H, '''', 00H, '%', 00H, 's', 00H, '''', 00H, ','
	DB	00H, ' ', 00H, 'f', 00H, 'a', 00H, 'l', 00H, 'l', 00H, 'i', 00H
	DB	'n', 00H, 'g', 00H, ' ', 00H, 'b', 00H, 'a', 00H, 'c', 00H, 'k'
	DB	00H, ' ', 00H, 't', 00H, 'o', 00H, ' ', 00H, '''', 00H, 'A', 00H
	DB	'u', 00H, 't', 00H, 'o', 00H, '''', 00H, 00H, 00H
	ORG $+2
$SG166226 DB	'd', 00H, 'e', 00H, 'f', 00H, 'a', 00H, 'u', 00H, 'l', 00H
	DB	't', 00H, 00H, 00H
$SG166229 DB	'a', 00H, 'u', 00H, 't', 00H, 'o', 00H, 00H, 00H
	ORG $+2
$SG166233 DB	'o', 00H, 'n', 00H, 'e', 00H, 00H, 00H
$SG166234 DB	'1', 00H, 00H, 00H
$SG166238 DB	't', 00H, 'w', 00H, 'o', 00H, 00H, 00H
$SG166239 DB	'2', 00H, 00H, 00H
$SG166243 DB	't', 00H, 'h', 00H, 'r', 00H, 'e', 00H, 'e', 00H, 00H, 00H
$SG166244 DB	'3', 00H, 00H, 00H
$SG166248 DB	'f', 00H, 'o', 00H, 'u', 00H, 'r', 00H, 00H, 00H
	ORG $+2
$SG166249 DB	'4', 00H, 00H, 00H
$SG166252 DB	'E', 00H, 'r', 00H, 'r', 00H, 'o', 00H, 'r', 00H, ' ', 00H
	DB	'C', 00H, 'a', 00H, 'l', 00H, 'l', 00H, 'i', 00H, 'n', 00H, 'g'
	DB	00H, ' ', 00H, 'N', 00H, 'V', 00H, 'A', 00H, 'P', 00H, 'I', 00H
	DB	' ', 00H, 'F', 00H, 'u', 00H, 'n', 00H, 'c', 00H, 't', 00H, 'i'
	DB	00H, 'o', 00H, 'n', 00H, 00H, 00H
	ORG $+2
$SG166250 DB	'[', 00H, ' ', 00H, ' ', 00H, 'N', 00H, 'v', 00H, 'A', 00H
	DB	'P', 00H, 'I', 00H, ' ', 00H, ' ', 00H, ' ', 00H, ']', 00H, ' '
	DB	00H, '>', 00H, '>', 00H, ' ', 00H, 'U', 00H, 'n', 00H, 'k', 00H
	DB	'n', 00H, 'o', 00H, 'w', 00H, 'n', 00H, ' ', 00H, 'S', 00H, 'L'
	DB	00H, 'I', 00H, ' ', 00H, 'G', 00H, 'P', 00H, 'U', 00H, ' ', 00H
	DB	'C', 00H, 'o', 00H, 'u', 00H, 'n', 00H, 't', 00H, ':', 00H, ' '
	DB	00H, '''', 00H, '%', 00H, 's', 00H, '''', 00H, ',', 00H, ' ', 00H
	DB	'f', 00H, 'a', 00H, 'l', 00H, 'l', 00H, 'i', 00H, 'n', 00H, 'g'
	DB	00H, ' ', 00H, 'b', 00H, 'a', 00H, 'c', 00H, 'k', 00H, ' ', 00H
	DB	't', 00H, 'o', 00H, ' ', 00H, '''', 00H, 'A', 00H, 'u', 00H, 't'
	DB	00H, 'o', 00H, '''', 00H, 00H, 00H
$SG166253 DB	'c:\users\andon\source\repos\specialk\src\nvapi.cpp', 00H
	ORG $+1
$SG166254 DB	'sk::NVAPI::SetSLIOverride', 00H
	ORG $+2
$SG166255 DB	'DRS_FindApplicationByName ( hSession, (NvU16 *)app_name.'
	DB	'c_str (), &hProfile, &app )', 00H
$SG166258 DB	'E', 00H, 'r', 00H, 'r', 00H, 'o', 00H, 'r', 00H, ' ', 00H
	DB	'C', 00H, 'a', 00H, 'l', 00H, 'l', 00H, 'i', 00H, 'n', 00H, 'g'
	DB	00H, ' ', 00H, 'N', 00H, 'V', 00H, 'A', 00H, 'P', 00H, 'I', 00H
	DB	' ', 00H, 'F', 00H, 'u', 00H, 'n', 00H, 'c', 00H, 't', 00H, 'i'
	DB	00H, 'o', 00H, 'n', 00H, 00H, 00H
	ORG $+2
$SG166259 DB	'c:\users\andon\source\repos\specialk\src\nvapi.cpp', 00H
	ORG $+1
$SG166260 DB	'sk::NVAPI::SetSLIOverride', 00H
	ORG $+2
$SG166261 DB	'DRS_CreateProfile (hSession, &custom_profile, &hProfile)'
	DB	00H
	ORG $+3
$SG166264 DB	'E', 00H, 'r', 00H, 'r', 00H, 'o', 00H, 'r', 00H, ' ', 00H
	DB	'C', 00H, 'a', 00H, 'l', 00H, 'l', 00H, 'i', 00H, 'n', 00H, 'g'
	DB	00H, ' ', 00H, 'N', 00H, 'V', 00H, 'A', 00H, 'P', 00H, 'I', 00H
	DB	' ', 00H, 'F', 00H, 'u', 00H, 'n', 00H, 'c', 00H, 't', 00H, 'i'
	DB	00H, 'o', 00H, 'n', 00H, 00H, 00H
	ORG $+2
$SG166265 DB	'c:\users\andon\source\repos\specialk\src\nvapi.cpp', 00H
	ORG $+1
$SG166266 DB	'sk::NVAPI::SetSLIOverride', 00H
	ORG $+2
$SG166267 DB	'DRS_FindProfileByName ( hSession, (NvU16 *)friendly_name'
	DB	'.c_str (), &hProfile)', 00H
	ORG $+2
$SG166270 DB	'E', 00H, 'r', 00H, 'r', 00H, 'o', 00H, 'r', 00H, ' ', 00H
	DB	'C', 00H, 'a', 00H, 'l', 00H, 'l', 00H, 'i', 00H, 'n', 00H, 'g'
	DB	00H, ' ', 00H, 'N', 00H, 'V', 00H, 'A', 00H, 'P', 00H, 'I', 00H
	DB	' ', 00H, 'F', 00H, 'u', 00H, 'n', 00H, 'c', 00H, 't', 00H, 'i'
	DB	00H, 'o', 00H, 'n', 00H, 00H, 00H
	ORG $+2
$SG166271 DB	'c:\users\andon\source\repos\specialk\src\nvapi.cpp', 00H
	ORG $+1
$SG166272 DB	'sk::NVAPI::SetSLIOverride', 00H
	ORG $+2
$SG166273 DB	'DRS_CreateApplication (hSession, hProfile, &app)', 00H
	ORG $+3
$SG166275 DB	'E', 00H, 'r', 00H, 'r', 00H, 'o', 00H, 'r', 00H, ' ', 00H
	DB	'C', 00H, 'a', 00H, 'l', 00H, 'l', 00H, 'i', 00H, 'n', 00H, 'g'
	DB	00H, ' ', 00H, 'N', 00H, 'V', 00H, 'A', 00H, 'P', 00H, 'I', 00H
	DB	' ', 00H, 'F', 00H, 'u', 00H, 'n', 00H, 'c', 00H, 't', 00H, 'i'
	DB	00H, 'o', 00H, 'n', 00H, 00H, 00H
	ORG $+2
$SG166276 DB	'c:\users\andon\source\repos\specialk\src\nvapi.cpp', 00H
	ORG $+1
$SG166277 DB	'sk::NVAPI::SetSLIOverride', 00H
	ORG $+2
$SG166278 DB	'DRS_SaveSettings (hSession)', 00H
$SG166280 DB	'E', 00H, 'r', 00H, 'r', 00H, 'o', 00H, 'r', 00H, ' ', 00H
	DB	'C', 00H, 'a', 00H, 'l', 00H, 'l', 00H, 'i', 00H, 'n', 00H, 'g'
	DB	00H, ' ', 00H, 'N', 00H, 'V', 00H, 'A', 00H, 'P', 00H, 'I', 00H
	DB	' ', 00H, 'F', 00H, 'u', 00H, 'n', 00H, 'c', 00H, 't', 00H, 'i'
	DB	00H, 'o', 00H, 'n', 00H, 00H, 00H
	ORG $+2
$SG166281 DB	'c:\users\andon\source\repos\specialk\src\nvapi.cpp', 00H
	ORG $+1
$SG166282 DB	'sk::NVAPI::SetSLIOverride', 00H
	ORG $+2
$SG166285 DB	'E', 00H, 'r', 00H, 'r', 00H, 'o', 00H, 'r', 00H, ' ', 00H
	DB	'C', 00H, 'a', 00H, 'l', 00H, 'l', 00H, 'i', 00H, 'n', 00H, 'g'
	DB	00H, ' ', 00H, 'N', 00H, 'V', 00H, 'A', 00H, 'P', 00H, 'I', 00H
	DB	' ', 00H, 'F', 00H, 'u', 00H, 'n', 00H, 'c', 00H, 't', 00H, 'i'
	DB	00H, 'o', 00H, 'n', 00H, 00H, 00H
	ORG $+2
$SG166283 DB	'DRS_GetSetting (hSession, hProfile, render_mode_enum, &m'
	DB	'ode_val)', 00H
	ORG $+3
$SG166286 DB	'c:\users\andon\source\repos\specialk\src\nvapi.cpp', 00H
	ORG $+1
$SG166287 DB	'sk::NVAPI::SetSLIOverride', 00H
	ORG $+2
$SG166290 DB	'E', 00H, 'r', 00H, 'r', 00H, 'o', 00H, 'r', 00H, ' ', 00H
	DB	'C', 00H, 'a', 00H, 'l', 00H, 'l', 00H, 'i', 00H, 'n', 00H, 'g'
	DB	00H, ' ', 00H, 'N', 00H, 'V', 00H, 'A', 00H, 'P', 00H, 'I', 00H
	DB	' ', 00H, 'F', 00H, 'u', 00H, 'n', 00H, 'c', 00H, 't', 00H, 'i'
	DB	00H, 'o', 00H, 'n', 00H, 00H, 00H
	ORG $+2
$SG166288 DB	'DRS_GetSetting (hSession, hProfile, gpu_count_enum, &gpu'
	DB	'_count_val)', 00H
$SG166291 DB	'c:\users\andon\source\repos\specialk\src\nvapi.cpp', 00H
	ORG $+1
$SG166292 DB	'sk::NVAPI::SetSLIOverride', 00H
	ORG $+2
$SG166296 DB	'E', 00H, 'r', 00H, 'r', 00H, 'o', 00H, 'r', 00H, ' ', 00H
	DB	'C', 00H, 'a', 00H, 'l', 00H, 'l', 00H, 'i', 00H, 'n', 00H, 'g'
	DB	00H, ' ', 00H, 'N', 00H, 'V', 00H, 'A', 00H, 'P', 00H, 'I', 00H
	DB	' ', 00H, 'F', 00H, 'u', 00H, 'n', 00H, 'c', 00H, 't', 00H, 'i'
	DB	00H, 'o', 00H, 'n', 00H, 00H, 00H
	ORG $+2
$SG166293 DB	'DRS_GetSetting (hSession, hProfile, compat_bits_enum, &c'
	DB	'ompat_bits_val)', 00H
$SG166297 DB	'c:\users\andon\source\repos\specialk\src\nvapi.cpp', 00H
	ORG $+1
$SG166298 DB	'sk::NVAPI::SetSLIOverride', 00H
	ORG $+2
$SG166299 DB	'DRS_SetSetting (hSession, hProfile, &compat_bits_val)', 00H
	ORG $+2
$SG166301 DB	'I', 00H, 'n', 00H, 's', 00H, 'u', 00H, 'f', 00H, 'f', 00H
	DB	'i', 00H, 'c', 00H, 'i', 00H, 'e', 00H, 'n', 00H, 't', 00H, ' '
	DB	00H, 'U', 00H, 's', 00H, 'e', 00H, 'r', 00H, ' ', 00H, 'P', 00H
	DB	'r', 00H, 'i', 00H, 'v', 00H, 'i', 00H, 'l', 00H, 'e', 00H, 'g'
	DB	00H, 'e', 00H, 's', 00H, 00H, 00H
	ORG $+2
$SG166305 DB	'E', 00H, 'r', 00H, 'r', 00H, 'o', 00H, 'r', 00H, ' ', 00H
	DB	'C', 00H, 'a', 00H, 'l', 00H, 'l', 00H, 'i', 00H, 'n', 00H, 'g'
	DB	00H, ' ', 00H, 'N', 00H, 'V', 00H, 'A', 00H, 'P', 00H, 'I', 00H
	DB	' ', 00H, 'F', 00H, 'u', 00H, 'n', 00H, 'c', 00H, 't', 00H, 'i'
	DB	00H, 'o', 00H, 'n', 00H, 00H, 00H
	ORG $+2
$SG166302 DB	'P', 00H, 'l', 00H, 'e', 00H, 'a', 00H, 's', 00H, 'e', 00H
	DB	' ', 00H, 'r', 00H, 'u', 00H, 'n', 00H, ' ', 00H, 't', 00H, 'h'
	DB	00H, 'i', 00H, 's', 00H, ' ', 00H, 'g', 00H, 'a', 00H, 'm', 00H
	DB	'e', 00H, ' ', 00H, 'a', 00H, 's', 00H, ' ', 00H, 'A', 00H, 'd'
	DB	00H, 'm', 00H, 'i', 00H, 'n', 00H, 'i', 00H, 's', 00H, 't', 00H
	DB	'r', 00H, 'a', 00H, 't', 00H, 'o', 00H, 'r', 00H, ' ', 00H, 't'
	DB	00H, 'o', 00H, ' ', 00H, 'i', 00H, 'n', 00H, 's', 00H, 't', 00H
	DB	'a', 00H, 'l', 00H, 'l', 00H, ' ', 00H, 'S', 00H, 'L', 00H, 'I'
	DB	00H, ' ', 00H, 'c', 00H, 'o', 00H, 'm', 00H, 'p', 00H, 'a', 00H
	DB	't', 00H, 'i', 00H, 'b', 00H, 'i', 00H, 'l', 00H, 'i', 00H, 't'
	DB	00H, 'y', 00H, ' ', 00H, 'b', 00H, 'i', 00H, 't', 00H, 's', 00H
	DB	0dH, 00H, 0aH, 00H, 0dH, 00H, 0aH, 00H, 09H, 00H, '>', 00H, '>'
	DB	00H, ' ', 00H, 'P', 00H, 'r', 00H, 'e', 00H, 's', 00H, 's', 00H
	DB	'i', 00H, 'n', 00H, 'g', 00H, ' ', 00H, 'C', 00H, 'a', 00H, 'n'
	DB	00H, 'c', 00H, 'e', 00H, 'l', 00H, ' ', 00H, 'w', 00H, 'i', 00H
	DB	'l', 00H, 'l', 00H, ' ', 00H, 'd', 00H, 'i', 00H, 's', 00H, 'a'
	DB	00H, 'b', 00H, 'l', 00H, 'e', 00H, ' ', 00H, 'S', 00H, 'L', 00H
	DB	'I', 00H, ' ', 00H, 'O', 00H, 'v', 00H, 'e', 00H, 'r', 00H, 'r'
	DB	00H, 'i', 00H, 'd', 00H, 'e', 00H, 00H, 00H
	ORG $+2
$SG166306 DB	'c:\users\andon\source\repos\specialk\src\nvapi.cpp', 00H
	ORG $+1
$SG166307 DB	'sk::NVAPI::SetSLIOverride', 00H
	ORG $+2
$SG166308 DB	'DRS_DestroySession (hSession)', 00H
	ORG $+2
$SG166312 DB	'E', 00H, 'r', 00H, 'r', 00H, 'o', 00H, 'r', 00H, ' ', 00H
	DB	'C', 00H, 'a', 00H, 'l', 00H, 'l', 00H, 'i', 00H, 'n', 00H, 'g'
	DB	00H, ' ', 00H, 'N', 00H, 'V', 00H, 'A', 00H, 'P', 00H, 'I', 00H
	DB	' ', 00H, 'F', 00H, 'u', 00H, 'n', 00H, 'c', 00H, 't', 00H, 'i'
	DB	00H, 'o', 00H, 'n', 00H, 00H, 00H
	ORG $+2
$SG166313 DB	'c:\users\andon\source\repos\specialk\src\nvapi.cpp', 00H
	ORG $+1
$SG166314 DB	'sk::NVAPI::SetSLIOverride', 00H
	ORG $+2
$SG166315 DB	'DRS_SetSetting (hSession, hProfile, &mode_val)', 00H
	ORG $+1
$SG166318 DB	'E', 00H, 'r', 00H, 'r', 00H, 'o', 00H, 'r', 00H, ' ', 00H
	DB	'C', 00H, 'a', 00H, 'l', 00H, 'l', 00H, 'i', 00H, 'n', 00H, 'g'
	DB	00H, ' ', 00H, 'N', 00H, 'V', 00H, 'A', 00H, 'P', 00H, 'I', 00H
	DB	' ', 00H, 'F', 00H, 'u', 00H, 'n', 00H, 'c', 00H, 't', 00H, 'i'
	DB	00H, 'o', 00H, 'n', 00H, 00H, 00H
	ORG $+2
$SG166319 DB	'c:\users\andon\source\repos\specialk\src\nvapi.cpp', 00H
	ORG $+1
$SG166320 DB	'sk::NVAPI::SetSLIOverride', 00H
	ORG $+2
$SG166321 DB	'DRS_SetSetting (hSession, hProfile, &gpu_count_val)', 00H
$SG166324 DB	'E', 00H, 'r', 00H, 'r', 00H, 'o', 00H, 'r', 00H, ' ', 00H
	DB	'C', 00H, 'a', 00H, 'l', 00H, 'l', 00H, 'i', 00H, 'n', 00H, 'g'
	DB	00H, ' ', 00H, 'N', 00H, 'V', 00H, 'A', 00H, 'P', 00H, 'I', 00H
	DB	' ', 00H, 'F', 00H, 'u', 00H, 'n', 00H, 'c', 00H, 't', 00H, 'i'
	DB	00H, 'o', 00H, 'n', 00H, 00H, 00H
	ORG $+2
$SG166325 DB	'c:\users\andon\source\repos\specialk\src\nvapi.cpp', 00H
	ORG $+1
$SG166326 DB	'sk::NVAPI::SetSLIOverride', 00H
	ORG $+2
$SG166327 DB	'DRS_SaveSettings (hSession)', 00H
$SG166329 DB	'E', 00H, 'r', 00H, 'r', 00H, 'o', 00H, 'r', 00H, ' ', 00H
	DB	'C', 00H, 'a', 00H, 'l', 00H, 'l', 00H, 'i', 00H, 'n', 00H, 'g'
	DB	00H, ' ', 00H, 'N', 00H, 'V', 00H, 'A', 00H, 'P', 00H, 'I', 00H
	DB	' ', 00H, 'F', 00H, 'u', 00H, 'n', 00H, 'c', 00H, 't', 00H, 'i'
	DB	00H, 'o', 00H, 'n', 00H, 00H, 00H
	ORG $+2
$SG166330 DB	'c:\users\andon\source\repos\specialk\src\nvapi.cpp', 00H
	ORG $+1
$SG166331 DB	'sk::NVAPI::SetSLIOverride', 00H
	ORG $+2
$SG166332 DB	'DRS_DestroySession (hSession)', 00H
	ORG $+2
$SG166390 DB	'E', 00H, 'r', 00H, 'r', 00H, 'o', 00H, 'r', 00H, ' ', 00H
	DB	'C', 00H, 'a', 00H, 'l', 00H, 'l', 00H, 'i', 00H, 'n', 00H, 'g'
	DB	00H, ' ', 00H, 'N', 00H, 'V', 00H, 'A', 00H, 'P', 00H, 'I', 00H
	DB	' ', 00H, 'F', 00H, 'u', 00H, 'n', 00H, 'c', 00H, 't', 00H, 'i'
	DB	00H, 'o', 00H, 'n', 00H, 00H, 00H
	ORG $+2
$SG166391 DB	'c:\users\andon\source\repos\specialk\src\nvapi.cpp', 00H
	ORG $+1
$SG166392 DB	'SK_NvAPI_AddLauncherToProf', 00H
	ORG $+1
$SG165368 DB	'L', 00H, 'i', 00H, 'n', 00H, 'e', 00H, ' ', 00H, '%', 00H
	DB	'u', 00H, ' ', 00H, 'o', 00H, 'f', 00H, ' ', 00H, '%', 00H, 'h'
	DB	00H, 's', 00H, ' ', 00H, '(', 00H, 'i', 00H, 'n', 00H, ' ', 00H
	DB	'%', 00H, 'h', 00H, 's', 00H, ' ', 00H, '(', 00H, '.', 00H, '.'
	DB	00H, '.', 00H, ')', 00H, ')', 00H, ':', 00H, 0aH, 00H, '-', 00H
	DB	'-', 00H, '-', 00H, '-', 00H, '-', 00H, '-', 00H, '-', 00H, '-'
	DB	00H, '-', 00H, '-', 00H, '-', 00H, '-', 00H, '-', 00H, '-', 00H
	DB	'-', 00H, '-', 00H, '-', 00H, '-', 00H, '-', 00H, '-', 00H, '-'
	DB	00H, '-', 00H, '-', 00H, '-', 00H, 0aH, 00H, 0aH, 00H, 'N', 00H
	DB	'v', 00H, 'A', 00H, 'P', 00H, 'I', 00H, '_', 00H, '%', 00H, 'h'
	DB	00H, 's', 00H, 0aH, 00H, 0aH, 00H, 09H, 00H, '>', 00H, '>', 00H
	DB	' ', 00H, '%', 00H, 'h', 00H, 's', 00H, ' ', 00H, '<', 00H, '<'
	DB	00H, 00H, 00H
	ORG $+2
$SG166393 DB	'DRS_CreateSession (&hSession)', 00H
	ORG $+2
$SG166395 DB	'E', 00H, 'r', 00H, 'r', 00H, 'o', 00H, 'r', 00H, ' ', 00H
	DB	'C', 00H, 'a', 00H, 'l', 00H, 'l', 00H, 'i', 00H, 'n', 00H, 'g'
	DB	00H, ' ', 00H, 'N', 00H, 'V', 00H, 'A', 00H, 'P', 00H, 'I', 00H
	DB	' ', 00H, 'F', 00H, 'u', 00H, 'n', 00H, 'c', 00H, 't', 00H, 'i'
	DB	00H, 'o', 00H, 'n', 00H, 00H, 00H
	ORG $+2
$SG166396 DB	'c:\users\andon\source\repos\specialk\src\nvapi.cpp', 00H
	ORG $+1
$SG166397 DB	'SK_NvAPI_AddLauncherToProf', 00H
	ORG $+1
$SG166398 DB	'DRS_LoadSettings (hSession)', 00H
$SG166400 DB	'E', 00H, 'r', 00H, 'r', 00H, 'o', 00H, 'r', 00H, ' ', 00H
	DB	'C', 00H, 'a', 00H, 'l', 00H, 'l', 00H, 'i', 00H, 'n', 00H, 'g'
	DB	00H, ' ', 00H, 'N', 00H, 'V', 00H, 'A', 00H, 'P', 00H, 'I', 00H
	DB	' ', 00H, 'F', 00H, 'u', 00H, 'n', 00H, 'c', 00H, 't', 00H, 'i'
	DB	00H, 'o', 00H, 'n', 00H, 00H, 00H
	ORG $+2
$SG166401 DB	'c:\users\andon\source\repos\specialk\src\nvapi.cpp', 00H
	ORG $+1
$SG166402 DB	'SK_NvAPI_AddLauncherToProf', 00H
	ORG $+1
$SG165382 DB	'E', 00H, 'r', 00H, 'r', 00H, 'o', 00H, 'r', 00H, ' ', 00H
	DB	'C', 00H, 'a', 00H, 'l', 00H, 'l', 00H, 'i', 00H, 'n', 00H, 'g'
	DB	00H, ' ', 00H, 'N', 00H, 'V', 00H, 'A', 00H, 'P', 00H, 'I', 00H
	DB	' ', 00H, 'F', 00H, 'u', 00H, 'n', 00H, 'c', 00H, 't', 00H, 'i'
	DB	00H, 'o', 00H, 'n', 00H, 00H, 00H
	ORG $+2
$SG166403 DB	'DRS_FindApplicationByName ( hSession, (NvU16 *)app_name.'
	DB	'c_str (), &hProfile, &app )', 00H
$SG166407 DB	'E', 00H, 'r', 00H, 'r', 00H, 'o', 00H, 'r', 00H, ' ', 00H
	DB	'C', 00H, 'a', 00H, 'l', 00H, 'l', 00H, 'i', 00H, 'n', 00H, 'g'
	DB	00H, ' ', 00H, 'N', 00H, 'V', 00H, 'A', 00H, 'P', 00H, 'I', 00H
	DB	' ', 00H, 'F', 00H, 'u', 00H, 'n', 00H, 'c', 00H, 't', 00H, 'i'
	DB	00H, 'o', 00H, 'n', 00H, 00H, 00H
	ORG $+2
$SG165383 DB	'c:\users\andon\source\repos\specialk\src\nvapi.cpp', 00H
	ORG $+1
$SG166408 DB	'c:\users\andon\source\repos\specialk\src\nvapi.cpp', 00H
	ORG $+1
$SG165384 DB	'sk::NVAPI::CountPhysicalGPUs', 00H
	ORG $+3
$SG166409 DB	'SK_NvAPI_AddLauncherToProf', 00H
	ORG $+1
$SG165385 DB	'EnumPhysicalGPUs (gpus, &gpu_count)', 00H
$SG166410 DB	'DRS_CreateProfile (hSession, &custom_profile, &hProfile)'
	DB	00H
	ORG $+3
$SG166413 DB	'E', 00H, 'r', 00H, 'r', 00H, 'o', 00H, 'r', 00H, ' ', 00H
	DB	'C', 00H, 'a', 00H, 'l', 00H, 'l', 00H, 'i', 00H, 'n', 00H, 'g'
	DB	00H, ' ', 00H, 'N', 00H, 'V', 00H, 'A', 00H, 'P', 00H, 'I', 00H
	DB	' ', 00H, 'F', 00H, 'u', 00H, 'n', 00H, 'c', 00H, 't', 00H, 'i'
	DB	00H, 'o', 00H, 'n', 00H, 00H, 00H
	ORG $+2
$SG166414 DB	'c:\users\andon\source\repos\specialk\src\nvapi.cpp', 00H
	ORG $+1
$SG166415 DB	'SK_NvAPI_AddLauncherToProf', 00H
	ORG $+1
$SG166416 DB	'DRS_FindProfileByName ( hSession, (NvU16 *)friendly_name'
	DB	'.c_str (), &hProfile)', 00H
	ORG $+2
$SG166419 DB	'E', 00H, 'r', 00H, 'r', 00H, 'o', 00H, 'r', 00H, ' ', 00H
	DB	'C', 00H, 'a', 00H, 'l', 00H, 'l', 00H, 'i', 00H, 'n', 00H, 'g'
	DB	00H, ' ', 00H, 'N', 00H, 'V', 00H, 'A', 00H, 'P', 00H, 'I', 00H
	DB	' ', 00H, 'F', 00H, 'u', 00H, 'n', 00H, 'c', 00H, 't', 00H, 'i'
	DB	00H, 'o', 00H, 'n', 00H, 00H, 00H
	ORG $+2
$SG166420 DB	'c:\users\andon\source\repos\specialk\src\nvapi.cpp', 00H
	ORG $+1
$SG166421 DB	'SK_NvAPI_AddLauncherToProf', 00H
	ORG $+1
$SG166422 DB	'DRS_CreateApplication (hSession, hProfile, &app)', 00H
	ORG $+3
$SG166424 DB	'E', 00H, 'r', 00H, 'r', 00H, 'o', 00H, 'r', 00H, ' ', 00H
	DB	'C', 00H, 'a', 00H, 'l', 00H, 'l', 00H, 'i', 00H, 'n', 00H, 'g'
	DB	00H, ' ', 00H, 'N', 00H, 'V', 00H, 'A', 00H, 'P', 00H, 'I', 00H
	DB	' ', 00H, 'F', 00H, 'u', 00H, 'n', 00H, 'c', 00H, 't', 00H, 'i'
	DB	00H, 'o', 00H, 'n', 00H, 00H, 00H
	ORG $+2
$SG166425 DB	'c:\users\andon\source\repos\specialk\src\nvapi.cpp', 00H
	ORG $+1
$SG166426 DB	'SK_NvAPI_AddLauncherToProf', 00H
	ORG $+1
$SG166427 DB	'DRS_SaveSettings (hSession)', 00H
$SG166429 DB	'E', 00H, 'r', 00H, 'r', 00H, 'o', 00H, 'r', 00H, ' ', 00H
	DB	'C', 00H, 'a', 00H, 'l', 00H, 'l', 00H, 'i', 00H, 'n', 00H, 'g'
	DB	00H, ' ', 00H, 'N', 00H, 'V', 00H, 'A', 00H, 'P', 00H, 'I', 00H
	DB	' ', 00H, 'F', 00H, 'u', 00H, 'n', 00H, 'c', 00H, 't', 00H, 'i'
	DB	00H, 'o', 00H, 'n', 00H, 00H, 00H
	ORG $+2
$SG166430 DB	'c:\users\andon\source\repos\specialk\src\nvapi.cpp', 00H
	ORG $+1
$SG166431 DB	'SK_NvAPI_AddLauncherToProf', 00H
	ORG $+1
$SG166432 DB	'DRS_CreateApplication (hSession, hProfile, &app)', 00H
	ORG $+3
$SG166434 DB	'E', 00H, 'r', 00H, 'r', 00H, 'o', 00H, 'r', 00H, ' ', 00H
	DB	'C', 00H, 'a', 00H, 'l', 00H, 'l', 00H, 'i', 00H, 'n', 00H, 'g'
	DB	00H, ' ', 00H, 'N', 00H, 'V', 00H, 'A', 00H, 'P', 00H, 'I', 00H
	DB	' ', 00H, 'F', 00H, 'u', 00H, 'n', 00H, 'c', 00H, 't', 00H, 'i'
	DB	00H, 'o', 00H, 'n', 00H, 00H, 00H
	ORG $+2
$SG166435 DB	'c:\users\andon\source\repos\specialk\src\nvapi.cpp', 00H
	ORG $+1
$SG166436 DB	'SK_NvAPI_AddLauncherToProf', 00H
	ORG $+1
$SG166437 DB	'DRS_SaveSettings (hSession)', 00H
$SG166439 DB	'E', 00H, 'r', 00H, 'r', 00H, 'o', 00H, 'r', 00H, ' ', 00H
	DB	'C', 00H, 'a', 00H, 'l', 00H, 'l', 00H, 'i', 00H, 'n', 00H, 'g'
	DB	00H, ' ', 00H, 'N', 00H, 'V', 00H, 'A', 00H, 'P', 00H, 'I', 00H
	DB	' ', 00H, 'F', 00H, 'u', 00H, 'n', 00H, 'c', 00H, 't', 00H, 'i'
	DB	00H, 'o', 00H, 'n', 00H, 00H, 00H
	ORG $+2
$SG166440 DB	'c:\users\andon\source\repos\specialk\src\nvapi.cpp', 00H
	ORG $+1
$SG166441 DB	'SK_NvAPI_AddLauncherToProf', 00H
	ORG $+1
$SG166442 DB	'DRS_SaveSettings (hSession)', 00H
$SG166444 DB	'E', 00H, 'r', 00H, 'r', 00H, 'o', 00H, 'r', 00H, ' ', 00H
	DB	'C', 00H, 'a', 00H, 'l', 00H, 'l', 00H, 'i', 00H, 'n', 00H, 'g'
	DB	00H, ' ', 00H, 'N', 00H, 'V', 00H, 'A', 00H, 'P', 00H, 'I', 00H
	DB	' ', 00H, 'F', 00H, 'u', 00H, 'n', 00H, 'c', 00H, 't', 00H, 'i'
	DB	00H, 'o', 00H, 'n', 00H, 00H, 00H
	ORG $+2
$SG166445 DB	'c:\users\andon\source\repos\specialk\src\nvapi.cpp', 00H
	ORG $+1
$SG166446 DB	'SK_NvAPI_AddLauncherToProf', 00H
	ORG $+1
$SG166447 DB	'DRS_DestroySession (hSession)', 00H
	ORG $+2
$SG166452 DB	'T', 00H, 'a', 00H, 'l', 00H, 'e', 00H, 's', 00H, ' ', 00H
	DB	'o', 00H, 'f', 00H, ' ', 00H, 'Z', 00H, 'e', 00H, 's', 00H, 't'
	DB	00H, 'i', 00H, 'r', 00H, 'i', 00H, 'a', 00H, 00H, 00H
$SG165448 DB	'E', 00H, 'r', 00H, 'r', 00H, 'o', 00H, 'r', 00H, ' ', 00H
	DB	'C', 00H, 'a', 00H, 'l', 00H, 'l', 00H, 'i', 00H, 'n', 00H, 'g'
	DB	00H, ' ', 00H, 'N', 00H, 'V', 00H, 'A', 00H, 'P', 00H, 'I', 00H
	DB	' ', 00H, 'F', 00H, 'u', 00H, 'n', 00H, 'c', 00H, 't', 00H, 'i'
	DB	00H, 'o', 00H, 'n', 00H, 00H, 00H
	ORG $+2
$SG165449 DB	'c:\users\andon\source\repos\specialk\src\nvapi.cpp', 00H
	ORG $+1
$SG165450 DB	'sk::NVAPI::EnumGPUs_DXGI', 00H
	ORG $+3
$SG165451 DB	'EnumPhysicalGPUs (_nv_dxgi_gpus, &gpu_count)', 00H
	ORG $+3
$SG165453 DB	'E', 00H, 'r', 00H, 'r', 00H, 'o', 00H, 'r', 00H, ' ', 00H
	DB	'C', 00H, 'a', 00H, 'l', 00H, 'l', 00H, 'i', 00H, 'n', 00H, 'g'
	DB	00H, ' ', 00H, 'N', 00H, 'V', 00H, 'A', 00H, 'P', 00H, 'I', 00H
	DB	' ', 00H, 'F', 00H, 'u', 00H, 'n', 00H, 'c', 00H, 't', 00H, 'i'
	DB	00H, 'o', 00H, 'n', 00H, 00H, 00H
	ORG $+2
$SG165454 DB	'c:\users\andon\source\repos\specialk\src\nvapi.cpp', 00H
	ORG $+1
$SG165455 DB	'sk::NVAPI::EnumGPUs_DXGI', 00H
	ORG $+3
$SG165456 DB	'EnumPhysicalGPUs (_nv_dxgi_gpus, &gpu_count)', 00H
	ORG $+3
$SG166482 DB	'T', 00H, 'a', 00H, 'l', 00H, 'e', 00H, 's', 00H, ' ', 00H
	DB	'O', 00H, 'f', 00H, ' ', 00H, 'Z', 00H, 'e', 00H, 's', 00H, 't'
	DB	00H, 'i', 00H, 'r', 00H, 'i', 00H, 'a', 00H, '.', 00H, 'e', 00H
	DB	'x', 00H, 'e', 00H, 00H, 00H
$SG165458 DB	'E', 00H, 'r', 00H, 'r', 00H, 'o', 00H, 'r', 00H, ' ', 00H
	DB	'C', 00H, 'a', 00H, 'l', 00H, 'l', 00H, 'i', 00H, 'n', 00H, 'g'
	DB	00H, ' ', 00H, 'N', 00H, 'V', 00H, 'A', 00H, 'P', 00H, 'I', 00H
	DB	' ', 00H, 'F', 00H, 'u', 00H, 'n', 00H, 'c', 00H, 't', 00H, 'i'
	DB	00H, 'o', 00H, 'n', 00H, 00H, 00H
	ORG $+2
$SG165459 DB	'c:\users\andon\source\repos\specialk\src\nvapi.cpp', 00H
	ORG $+1
$SG165460 DB	'sk::NVAPI::EnumGPUs_DXGI', 00H
	ORG $+3
$SG165461 DB	'GetLogicalGPUFromPhysicalGPU (_nv_dxgi_gpus [i], &logica'
	DB	'l)', 00H
	ORG $+1
$SG165463 DB	'E', 00H, 'r', 00H, 'r', 00H, 'o', 00H, 'r', 00H, ' ', 00H
	DB	'C', 00H, 'a', 00H, 'l', 00H, 'l', 00H, 'i', 00H, 'n', 00H, 'g'
	DB	00H, ' ', 00H, 'N', 00H, 'V', 00H, 'A', 00H, 'P', 00H, 'I', 00H
	DB	' ', 00H, 'F', 00H, 'u', 00H, 'n', 00H, 'c', 00H, 't', 00H, 'i'
	DB	00H, 'o', 00H, 'n', 00H, 00H, 00H
	ORG $+2
$SG166488 DB	00H, 00H
	ORG $+2
$SG165464 DB	'c:\users\andon\source\repos\specialk\src\nvapi.cpp', 00H
	ORG $+1
$SG165465 DB	'sk::NVAPI::EnumGPUs_DXGI', 00H
	ORG $+3
$SG165466 DB	'GetPhysicalGPUsFromLogicalGPU (logical, phys, &phys_coun'
	DB	't)', 00H
	ORG $+1
$SG165468 DB	'E', 00H, 'r', 00H, 'r', 00H, 'o', 00H, 'r', 00H, ' ', 00H
	DB	'C', 00H, 'a', 00H, 'l', 00H, 'l', 00H, 'i', 00H, 'n', 00H, 'g'
	DB	00H, ' ', 00H, 'N', 00H, 'V', 00H, 'A', 00H, 'P', 00H, 'I', 00H
	DB	' ', 00H, 'F', 00H, 'u', 00H, 'n', 00H, 'c', 00H, 't', 00H, 'i'
	DB	00H, 'o', 00H, 'n', 00H, 00H, 00H
	ORG $+2
$SG165469 DB	'c:\users\andon\source\repos\specialk\src\nvapi.cpp', 00H
	ORG $+1
$SG165470 DB	'sk::NVAPI::EnumGPUs_DXGI', 00H
	ORG $+3
$SG165471 DB	'GPU_GetFullName (_nv_dxgi_gpus [i], name)', 00H
	ORG $+2
$SG165473 DB	'E', 00H, 'r', 00H, 'r', 00H, 'o', 00H, 'r', 00H, ' ', 00H
	DB	'C', 00H, 'a', 00H, 'l', 00H, 'l', 00H, 'i', 00H, 'n', 00H, 'g'
	DB	00H, ' ', 00H, 'N', 00H, 'V', 00H, 'A', 00H, 'P', 00H, 'I', 00H
	DB	' ', 00H, 'F', 00H, 'u', 00H, 'n', 00H, 'c', 00H, 't', 00H, 'i'
	DB	00H, 'o', 00H, 'n', 00H, 00H, 00H
	ORG $+2
$SG165474 DB	'c:\users\andon\source\repos\specialk\src\nvapi.cpp', 00H
	ORG $+1
$SG165475 DB	'sk::NVAPI::EnumGPUs_DXGI', 00H
	ORG $+3
$SG165476 DB	'GPU_GetMemoryInfo (_nv_dxgi_gpus [i], &meminfo)', 00H
$SG165501 DB	'%', 00H, 'u', 00H, '.', 00H, '%', 00H, 'u', 00H, 00H, 00H
$SG165536 DB	'E', 00H, 'r', 00H, 'r', 00H, 'o', 00H, 'r', 00H, ' ', 00H
	DB	'C', 00H, 'a', 00H, 'l', 00H, 'l', 00H, 'i', 00H, 'n', 00H, 'g'
	DB	00H, ' ', 00H, 'N', 00H, 'V', 00H, 'A', 00H, 'P', 00H, 'I', 00H
	DB	' ', 00H, 'F', 00H, 'u', 00H, 'n', 00H, 'c', 00H, 't', 00H, 'i'
	DB	00H, 'o', 00H, 'n', 00H, 00H, 00H
	ORG $+2
$SG165537 DB	'c:\users\andon\source\repos\specialk\src\nvapi.cpp', 00H
	ORG $+1
$SG165538 DB	'sk::NVAPI::InitializeLibrary', 00H
	ORG $+3
$SG165539 DB	'Initialize ()', 00H
	ORG $+2
$SG165542 DB	'n', 00H, 'v', 00H, 'a', 00H, 'p', 00H, 'i', 00H, '.', 00H
	DB	'd', 00H, 'l', 00H, 'l', 00H, 00H, 00H
$SG165545 DB	'nvapi_QueryInterface', 00H
	ORG $+3
$SG165547 DB	'm', 00H, 'i', 00H, 's', 00H, 's', 00H, 'i', 00H, 'n', 00H
	DB	'g', 00H, ' ', 00H, 'N', 00H, 'v', 00H, 'A', 00H, 'P', 00H, 'I'
	DB	00H, '_', 00H, 'G', 00H, 'P', 00H, 'U', 00H, '_', 00H, 'G', 00H
	DB	'e', 00H, 't', 00H, 'R', 00H, 'a', 00H, 'm', 00H, 'T', 00H, 'y'
	DB	00H, 'p', 00H, 'e', 00H, ' ', 00H, 00H, 00H
$SG165549 DB	'm', 00H, 'i', 00H, 's', 00H, 's', 00H, 'i', 00H, 'n', 00H
	DB	'g', 00H, ' ', 00H, 'N', 00H, 'v', 00H, 'A', 00H, 'P', 00H, 'I'
	DB	00H, '_', 00H, 'G', 00H, 'P', 00H, 'U', 00H, '_', 00H, 'G', 00H
	DB	'e', 00H, 't', 00H, 'F', 00H, 'B', 00H, 'W', 00H, 'i', 00H, 'd'
	DB	00H, 't', 00H, 'h', 00H, 'A', 00H, 'n', 00H, 'd', 00H, 'L', 00H
	DB	'o', 00H, 'c', 00H, 'a', 00H, 't', 00H, 'i', 00H, 'o', 00H, 'n'
	DB	00H, ' ', 00H, 00H, 00H
	ORG $+2
$SG165551 DB	'm', 00H, 'i', 00H, 's', 00H, 's', 00H, 'i', 00H, 'n', 00H
	DB	'g', 00H, ' ', 00H, 'N', 00H, 'v', 00H, 'A', 00H, 'P', 00H, 'I'
	DB	00H, '_', 00H, 'G', 00H, 'P', 00H, 'U', 00H, '_', 00H, 'G', 00H
	DB	'e', 00H, 't', 00H, 'P', 00H, 'C', 00H, 'I', 00H, 'E', 00H, 'I'
	DB	00H, 'n', 00H, 'f', 00H, 'o', 00H, ' ', 00H, 00H, 00H
	ORG $+2
$SG165704 DB	'E', 00H, 'r', 00H, 'r', 00H, 'o', 00H, 'r', 00H, ' ', 00H
	DB	'C', 00H, 'a', 00H, 'l', 00H, 'l', 00H, 'i', 00H, 'n', 00H, 'g'
	DB	00H, ' ', 00H, 'N', 00H, 'V', 00H, 'A', 00H, 'P', 00H, 'I', 00H
	DB	' ', 00H, 'F', 00H, 'u', 00H, 'n', 00H, 'c', 00H, 't', 00H, 'i'
	DB	00H, 'o', 00H, 'n', 00H, 00H, 00H
	ORG $+2
$SG165553 DB	'm', 00H, 'i', 00H, 's', 00H, 's', 00H, 'i', 00H, 'n', 00H
	DB	'g', 00H, ' ', 00H, 'N', 00H, 'v', 00H, 'A', 00H, 'P', 00H, 'I'
	DB	00H, '_', 00H, 'G', 00H, 'e', 00H, 't', 00H, 'P', 00H, 'h', 00H
	DB	'y', 00H, 's', 00H, 'i', 00H, 'c', 00H, 'a', 00H, 'l', 00H, 'G'
	DB	00H, 'P', 00H, 'U', 00H, 'F', 00H, 'r', 00H, 'o', 00H, 'm', 00H
	DB	'G', 00H, 'P', 00H, 'U', 00H, 'I', 00H, 'D', 00H, ' ', 00H, 00H
	DB	00H
	ORG $+2
$SG165555 DB	'm', 00H, 'i', 00H, 's', 00H, 's', 00H, 'i', 00H, 'n', 00H
	DB	'g', 00H, ' ', 00H, 'N', 00H, 'v', 00H, 'A', 00H, 'P', 00H, 'I'
	DB	00H, '_', 00H, 'G', 00H, 'e', 00H, 't', 00H, 'G', 00H, 'P', 00H
	DB	'U', 00H, 'I', 00H, 'D', 00H, 'F', 00H, 'r', 00H, 'o', 00H, 'm'
	DB	00H, 'P', 00H, 'h', 00H, 'y', 00H, 's', 00H, 'i', 00H, 'c', 00H
	DB	'a', 00H, 'l', 00H, 'G', 00H, 'P', 00H, 'U', 00H, ' ', 00H, 00H
	DB	00H
	ORG $+2
$SG165556 DB	'u', 00H, 'n', 00H, 'a', 00H, 'b', 00H, 'l', 00H, 'e', 00H
	DB	' ', 00H, 't', 00H, 'o', 00H, ' ', 00H, 'c', 00H, 'o', 00H, 'm'
	DB	00H, 'p', 00H, 'l', 00H, 'e', 00H, 't', 00H, 'e', 00H, ' ', 00H
	DB	'L', 00H, 'o', 00H, 'a', 00H, 'd', 00H, 'L', 00H, 'i', 00H, 'b'
	DB	00H, 'r', 00H, 'a', 00H, 'r', 00H, 'y', 00H, ' ', 00H, '(', 00H
	DB	'.', 00H, '.', 00H, '.', 00H, ')', 00H, ' ', 00H, 00H, 00H
$SG165705 DB	'c:\users\andon\source\repos\specialk\src\nvapi.cpp', 00H
	ORG $+1
$SG165706 DB	'SK_NvAPI_SetAntiAliasingOverride', 00H
	ORG $+3
$SG165707 DB	'DRS_CreateSession (&hSession)', 00H
	ORG $+2
$SG165709 DB	'E', 00H, 'r', 00H, 'r', 00H, 'o', 00H, 'r', 00H, ' ', 00H
	DB	'C', 00H, 'a', 00H, 'l', 00H, 'l', 00H, 'i', 00H, 'n', 00H, 'g'
	DB	00H, ' ', 00H, 'N', 00H, 'V', 00H, 'A', 00H, 'P', 00H, 'I', 00H
	DB	' ', 00H, 'F', 00H, 'u', 00H, 'n', 00H, 'c', 00H, 't', 00H, 'i'
	DB	00H, 'o', 00H, 'n', 00H, 00H, 00H
	ORG $+2
$SG165710 DB	'c:\users\andon\source\repos\specialk\src\nvapi.cpp', 00H
	ORG $+1
$SG165711 DB	'SK_NvAPI_SetAntiAliasingOverride', 00H
	ORG $+3
$SG165712 DB	'DRS_LoadSettings (hSession)', 00H
$SG165715 DB	'O', 00H, 'v', 00H, 'e', 00H, 'r', 00H, 'r', 00H, 'i', 00H
	DB	'd', 00H, 'e', 00H, 00H, 00H
	ORG $+2
$SG165719 DB	'Y', 00H, 'e', 00H, 's', 00H, 00H, 00H
$SG165720 DB	'O', 00H, 'n', 00H, 00H, 00H
	ORG $+2
$SG165724 DB	'N', 00H, 'o', 00H, 00H, 00H
	ORG $+2
$SG165725 DB	'O', 00H, 'f', 00H, 'f', 00H, 00H, 00H
$SG165727 DB	'E', 00H, 'n', 00H, 'h', 00H, 'a', 00H, 'n', 00H, 'c', 00H
	DB	'e', 00H, 00H, 00H
$SG165730 DB	'M', 00H, 'e', 00H, 't', 00H, 'h', 00H, 'o', 00H, 'd', 00H
	DB	00H, 00H
	ORG $+2
$SG165733 DB	'2', 00H, 'x', 00H, 'M', 00H, 'S', 00H, 'A', 00H, 'A', 00H
	DB	00H, 00H
	ORG $+2
$SG165736 DB	'4', 00H, 'x', 00H, 'M', 00H, 'S', 00H, 'A', 00H, 'A', 00H
	DB	00H, 00H
	ORG $+2
$SG165739 DB	'8', 00H, 'x', 00H, 'M', 00H, 'S', 00H, 'A', 00H, 'A', 00H
	DB	00H, 00H
	ORG $+2
$SG165742 DB	'1', 00H, '6', 00H, 'x', 00H, 'M', 00H, 'S', 00H, 'A', 00H
	DB	'A', 00H, 00H, 00H
$SG165744 DB	'0', 00H, 'x', 00H, 00H, 00H
	ORG $+2
$SG165747 DB	'R', 00H, 'e', 00H, 'p', 00H, 'l', 00H, 'a', 00H, 'y', 00H
	DB	'M', 00H, 'o', 00H, 'd', 00H, 'e', 00H, 00H, 00H
	ORG $+2
$SG165750 DB	'2', 00H, 'x', 00H, 'S', 00H, 'G', 00H, 'S', 00H, 'S', 00H
	DB	'A', 00H, 'A', 00H, 00H, 00H
	ORG $+2
$SG165753 DB	'4', 00H, 'x', 00H, 'S', 00H, 'G', 00H, 'S', 00H, 'S', 00H
	DB	'A', 00H, 'A', 00H, 00H, 00H
	ORG $+2
$SG165756 DB	'8', 00H, 'x', 00H, 'S', 00H, 'G', 00H, 'S', 00H, 'S', 00H
	DB	'A', 00H, 'A', 00H, 00H, 00H
	ORG $+2
$SG165758 DB	'0', 00H, 'x', 00H, 00H, 00H
	ORG $+2
$SG165761 DB	'A', 00H, 'n', 00H, 't', 00H, 'i', 00H, 'A', 00H, 'l', 00H
	DB	'i', 00H, 'a', 00H, 's', 00H, 'F', 00H, 'i', 00H, 'x', 00H, 00H
	DB	00H
	ORG $+2
$SG165765 DB	'O', 00H, 'n', 00H, 00H, 00H
	ORG $+2
$SG165766 DB	'Y', 00H, 'e', 00H, 's', 00H, 00H, 00H
$SG165769 DB	'A', 00H, 'u', 00H, 't', 00H, 'o', 00H, 'B', 00H, 'i', 00H
	DB	'a', 00H, 's', 00H, 'A', 00H, 'd', 00H, 'j', 00H, 'u', 00H, 's'
	DB	00H, 't', 00H, 00H, 00H
	ORG $+2
$SG165773 DB	'O', 00H, 'n', 00H, 00H, 00H
	ORG $+2
$SG165774 DB	'Y', 00H, 'e', 00H, 's', 00H, 00H, 00H
$SG165776 DB	'C', 00H, 'o', 00H, 'm', 00H, 'p', 00H, 'a', 00H, 't', 00H
	DB	'i', 00H, 'b', 00H, 'i', 00H, 'l', 00H, 'i', 00H, 't', 00H, 'y'
	DB	00H, 'B', 00H, 'i', 00H, 't', 00H, 's', 00H, 00H, 00H
$SG165778 DB	'E', 00H, 'r', 00H, 'r', 00H, 'o', 00H, 'r', 00H, ' ', 00H
	DB	'C', 00H, 'a', 00H, 'l', 00H, 'l', 00H, 'i', 00H, 'n', 00H, 'g'
	DB	00H, ' ', 00H, 'N', 00H, 'V', 00H, 'A', 00H, 'P', 00H, 'I', 00H
	DB	' ', 00H, 'F', 00H, 'u', 00H, 'n', 00H, 'c', 00H, 't', 00H, 'i'
	DB	00H, 'o', 00H, 'n', 00H, 00H, 00H
	ORG $+2
$SG165779 DB	'c:\users\andon\source\repos\specialk\src\nvapi.cpp', 00H
	ORG $+1
$SG165780 DB	'SK_NvAPI_SetAntiAliasingOverride', 00H
	ORG $+3
$SG165781 DB	'DRS_FindApplicationByName ( hSession, (NvU16 *)app_name.'
	DB	'c_str (), &hProfile, &app )', 00H
$SG165784 DB	'E', 00H, 'r', 00H, 'r', 00H, 'o', 00H, 'r', 00H, ' ', 00H
	DB	'C', 00H, 'a', 00H, 'l', 00H, 'l', 00H, 'i', 00H, 'n', 00H, 'g'
	DB	00H, ' ', 00H, 'N', 00H, 'V', 00H, 'A', 00H, 'P', 00H, 'I', 00H
	DB	' ', 00H, 'F', 00H, 'u', 00H, 'n', 00H, 'c', 00H, 't', 00H, 'i'
	DB	00H, 'o', 00H, 'n', 00H, 00H, 00H
	ORG $+2
$SG165785 DB	'c:\users\andon\source\repos\specialk\src\nvapi.cpp', 00H
	ORG $+1
$SG165786 DB	'SK_NvAPI_SetAntiAliasingOverride', 00H
	ORG $+3
$SG165787 DB	'DRS_CreateProfile (hSession, &custom_profile, &hProfile)'
	DB	00H
	ORG $+3
$SG165790 DB	'E', 00H, 'r', 00H, 'r', 00H, 'o', 00H, 'r', 00H, ' ', 00H
	DB	'C', 00H, 'a', 00H, 'l', 00H, 'l', 00H, 'i', 00H, 'n', 00H, 'g'
	DB	00H, ' ', 00H, 'N', 00H, 'V', 00H, 'A', 00H, 'P', 00H, 'I', 00H
	DB	' ', 00H, 'F', 00H, 'u', 00H, 'n', 00H, 'c', 00H, 't', 00H, 'i'
	DB	00H, 'o', 00H, 'n', 00H, 00H, 00H
	ORG $+2
$SG165791 DB	'c:\users\andon\source\repos\specialk\src\nvapi.cpp', 00H
	ORG $+1
$SG165792 DB	'SK_NvAPI_SetAntiAliasingOverride', 00H
	ORG $+3
$SG165793 DB	'DRS_FindProfileByName ( hSession, (NvU16 *)friendly_name'
	DB	'.c_str (), &hProfile)', 00H
	ORG $+2
$SG165797 DB	'E', 00H, 'r', 00H, 'r', 00H, 'o', 00H, 'r', 00H, ' ', 00H
	DB	'C', 00H, 'a', 00H, 'l', 00H, 'l', 00H, 'i', 00H, 'n', 00H, 'g'
	DB	00H, ' ', 00H, 'N', 00H, 'V', 00H, 'A', 00H, 'P', 00H, 'I', 00H
	DB	' ', 00H, 'F', 00H, 'u', 00H, 'n', 00H, 'c', 00H, 't', 00H, 'i'
	DB	00H, 'o', 00H, 'n', 00H, 00H, 00H
	ORG $+2
$SG165798 DB	'c:\users\andon\source\repos\specialk\src\nvapi.cpp', 00H
	ORG $+1
$SG165799 DB	'SK_NvAPI_SetAntiAliasingOverride', 00H
	ORG $+3
$SG165800 DB	'DRS_CreateApplication (hSession, hProfile, &app)', 00H
	ORG $+3
$SG165802 DB	'E', 00H, 'r', 00H, 'r', 00H, 'o', 00H, 'r', 00H, ' ', 00H
	DB	'C', 00H, 'a', 00H, 'l', 00H, 'l', 00H, 'i', 00H, 'n', 00H, 'g'
	DB	00H, ' ', 00H, 'N', 00H, 'V', 00H, 'A', 00H, 'P', 00H, 'I', 00H
	DB	' ', 00H, 'F', 00H, 'u', 00H, 'n', 00H, 'c', 00H, 't', 00H, 'i'
	DB	00H, 'o', 00H, 'n', 00H, 00H, 00H
	ORG $+2
$SG165803 DB	'c:\users\andon\source\repos\specialk\src\nvapi.cpp', 00H
	ORG $+1
$SG165804 DB	'SK_NvAPI_SetAntiAliasingOverride', 00H
	ORG $+3
$SG165805 DB	'DRS_SaveSettings (hSession)', 00H
$SG165806 DB	'[', 00H, ' ', 00H, ' ', 00H, 'N', 00H, 'v', 00H, 'A', 00H
	DB	'P', 00H, 'I', 00H, ' ', 00H, ' ', 00H, ' ', 00H, ']', 00H, ' '
	DB	00H, 'C', 00H, 'o', 00H, 'u', 00H, 'l', 00H, 'd', 00H, ' ', 00H
	DB	'n', 00H, 'o', 00H, 't', 00H, ' ', 00H, 'f', 00H, 'i', 00H, 'n'
	DB	00H, 'd', 00H, ' ', 00H, 'o', 00H, 'r', 00H, ' ', 00H, 'c', 00H
	DB	'r', 00H, 'e', 00H, 'a', 00H, 't', 00H, 'e', 00H, ' ', 00H, 'a'
	DB	00H, 'p', 00H, 'p', 00H, 'l', 00H, 'i', 00H, 'c', 00H, 'a', 00H
	DB	't', 00H, 'i', 00H, 'o', 00H, 'n', 00H, ' ', 00H, 'p', 00H, 'r'
	DB	00H, 'o', 00H, 'f', 00H, 'i', 00H, 'l', 00H, 'e', 00H, ' ', 00H
	DB	'f', 00H, 'o', 00H, 'r', 00H, ' ', 00H, '''', 00H, '%', 00H, 's'
	DB	00H, '''', 00H, ' ', 00H, '(', 00H, '%', 00H, 's', 00H, ')', 00H
	DB	00H, 00H
$SG165808 DB	'E', 00H, 'r', 00H, 'r', 00H, 'o', 00H, 'r', 00H, ' ', 00H
	DB	'C', 00H, 'a', 00H, 'l', 00H, 'l', 00H, 'i', 00H, 'n', 00H, 'g'
	DB	00H, ' ', 00H, 'N', 00H, 'V', 00H, 'A', 00H, 'P', 00H, 'I', 00H
	DB	' ', 00H, 'F', 00H, 'u', 00H, 'n', 00H, 'c', 00H, 't', 00H, 'i'
	DB	00H, 'o', 00H, 'n', 00H, 00H, 00H
	ORG $+2
$SG165809 DB	'c:\users\andon\source\repos\specialk\src\nvapi.cpp', 00H
	ORG $+1
$SG165810 DB	'SK_NvAPI_SetAntiAliasingOverride', 00H
	ORG $+3
$SG165811 DB	'DRS_DestroySession (hSession)', 00H
	ORG $+2
$SG165813 DB	'E', 00H, 'r', 00H, 'r', 00H, 'o', 00H, 'r', 00H, ' ', 00H
	DB	'C', 00H, 'a', 00H, 'l', 00H, 'l', 00H, 'i', 00H, 'n', 00H, 'g'
	DB	00H, ' ', 00H, 'N', 00H, 'V', 00H, 'A', 00H, 'P', 00H, 'I', 00H
	DB	' ', 00H, 'F', 00H, 'u', 00H, 'n', 00H, 'c', 00H, 't', 00H, 'i'
	DB	00H, 'o', 00H, 'n', 00H, 00H, 00H
	ORG $+2
$SG165814 DB	'c:\users\andon\source\repos\specialk\src\nvapi.cpp', 00H
	ORG $+1
$SG165815 DB	'SK_NvAPI_SetAntiAliasingOverride', 00H
	ORG $+3
$SG165816 DB	'DRS_GetSetting (hSession, hProfile, method_enum, &method'
	DB	'_val)', 00H
	ORG $+2
$SG165818 DB	'E', 00H, 'r', 00H, 'r', 00H, 'o', 00H, 'r', 00H, ' ', 00H
	DB	'C', 00H, 'a', 00H, 'l', 00H, 'l', 00H, 'i', 00H, 'n', 00H, 'g'
	DB	00H, ' ', 00H, 'N', 00H, 'V', 00H, 'A', 00H, 'P', 00H, 'I', 00H
	DB	' ', 00H, 'F', 00H, 'u', 00H, 'n', 00H, 'c', 00H, 't', 00H, 'i'
	DB	00H, 'o', 00H, 'n', 00H, 00H, 00H
	ORG $+2
$SG165819 DB	'c:\users\andon\source\repos\specialk\src\nvapi.cpp', 00H
	ORG $+1
$SG165820 DB	'SK_NvAPI_SetAntiAliasingOverride', 00H
	ORG $+3
$SG165823 DB	'E', 00H, 'r', 00H, 'r', 00H, 'o', 00H, 'r', 00H, ' ', 00H
	DB	'C', 00H, 'a', 00H, 'l', 00H, 'l', 00H, 'i', 00H, 'n', 00H, 'g'
	DB	00H, ' ', 00H, 'N', 00H, 'V', 00H, 'A', 00H, 'P', 00H, 'I', 00H
	DB	' ', 00H, 'F', 00H, 'u', 00H, 'n', 00H, 'c', 00H, 't', 00H, 'i'
	DB	00H, 'o', 00H, 'n', 00H, 00H, 00H
	ORG $+2
$SG165821 DB	'DRS_GetSetting (hSession, hProfile, replay_mode_enum, &r'
	DB	'eplay_mode_val)', 00H
$SG165824 DB	'c:\users\andon\source\repos\specialk\src\nvapi.cpp', 00H
	ORG $+1
$SG165825 DB	'SK_NvAPI_SetAntiAliasingOverride', 00H
	ORG $+3
$SG165826 DB	'DRS_GetSetting (hSession, hProfile, aa_fix_enum, &aa_fix'
	DB	'_val)', 00H
	ORG $+2
$SG165828 DB	'E', 00H, 'r', 00H, 'r', 00H, 'o', 00H, 'r', 00H, ' ', 00H
	DB	'C', 00H, 'a', 00H, 'l', 00H, 'l', 00H, 'i', 00H, 'n', 00H, 'g'
	DB	00H, ' ', 00H, 'N', 00H, 'V', 00H, 'A', 00H, 'P', 00H, 'I', 00H
	DB	' ', 00H, 'F', 00H, 'u', 00H, 'n', 00H, 'c', 00H, 't', 00H, 'i'
	DB	00H, 'o', 00H, 'n', 00H, 00H, 00H
	ORG $+2
$SG165829 DB	'c:\users\andon\source\repos\specialk\src\nvapi.cpp', 00H
	ORG $+1
$SG165830 DB	'SK_NvAPI_SetAntiAliasingOverride', 00H
	ORG $+3
$SG165833 DB	'E', 00H, 'r', 00H, 'r', 00H, 'o', 00H, 'r', 00H, ' ', 00H
	DB	'C', 00H, 'a', 00H, 'l', 00H, 'l', 00H, 'i', 00H, 'n', 00H, 'g'
	DB	00H, ' ', 00H, 'N', 00H, 'V', 00H, 'A', 00H, 'P', 00H, 'I', 00H
	DB	' ', 00H, 'F', 00H, 'u', 00H, 'n', 00H, 'c', 00H, 't', 00H, 'i'
	DB	00H, 'o', 00H, 'n', 00H, 00H, 00H
	ORG $+2
$SG165831 DB	'DRS_GetSetting (hSession, hProfile, override_enum, &over'
	DB	'ride_val)', 00H
	ORG $+2
$SG165834 DB	'c:\users\andon\source\repos\specialk\src\nvapi.cpp', 00H
	ORG $+1
$SG165835 DB	'SK_NvAPI_SetAntiAliasingOverride', 00H
	ORG $+3
$SG165838 DB	'E', 00H, 'r', 00H, 'r', 00H, 'o', 00H, 'r', 00H, ' ', 00H
	DB	'C', 00H, 'a', 00H, 'l', 00H, 'l', 00H, 'i', 00H, 'n', 00H, 'g'
	DB	00H, ' ', 00H, 'N', 00H, 'V', 00H, 'A', 00H, 'P', 00H, 'I', 00H
	DB	' ', 00H, 'F', 00H, 'u', 00H, 'n', 00H, 'c', 00H, 't', 00H, 'i'
	DB	00H, 'o', 00H, 'n', 00H, 00H, 00H
	ORG $+2
$SG165836 DB	'DRS_GetSetting (hSession, hProfile, autobias_enum, &auto'
	DB	'bias_val)', 00H
	ORG $+2
$SG165839 DB	'c:\users\andon\source\repos\specialk\src\nvapi.cpp', 00H
	ORG $+1
$SG165840 DB	'SK_NvAPI_SetAntiAliasingOverride', 00H
	ORG $+3
$SG165844 DB	'E', 00H, 'r', 00H, 'r', 00H, 'o', 00H, 'r', 00H, ' ', 00H
	DB	'C', 00H, 'a', 00H, 'l', 00H, 'l', 00H, 'i', 00H, 'n', 00H, 'g'
	DB	00H, ' ', 00H, 'N', 00H, 'V', 00H, 'A', 00H, 'P', 00H, 'I', 00H
	DB	' ', 00H, 'F', 00H, 'u', 00H, 'n', 00H, 'c', 00H, 't', 00H, 'i'
	DB	00H, 'o', 00H, 'n', 00H, 00H, 00H
	ORG $+2
$SG165841 DB	'DRS_GetSetting (hSession, hProfile, compat_bits_enum, &c'
	DB	'ompat_bits_val)', 00H
$SG165845 DB	'c:\users\andon\source\repos\specialk\src\nvapi.cpp', 00H
	ORG $+1
$SG165846 DB	'SK_NvAPI_SetAntiAliasingOverride', 00H
	ORG $+3
$SG165847 DB	'DRS_SetSetting (hSession, hProfile, &compat_bits_val)', 00H
	ORG $+2
$SG165849 DB	'I', 00H, 'n', 00H, 's', 00H, 'u', 00H, 'f', 00H, 'f', 00H
	DB	'i', 00H, 'c', 00H, 'i', 00H, 'e', 00H, 'n', 00H, 't', 00H, ' '
	DB	00H, 'U', 00H, 's', 00H, 'e', 00H, 'r', 00H, ' ', 00H, 'P', 00H
	DB	'r', 00H, 'i', 00H, 'v', 00H, 'i', 00H, 'l', 00H, 'e', 00H, 'g'
	DB	00H, 'e', 00H, 's', 00H, 00H, 00H
	ORG $+2
$SG165853 DB	'E', 00H, 'r', 00H, 'r', 00H, 'o', 00H, 'r', 00H, ' ', 00H
	DB	'C', 00H, 'a', 00H, 'l', 00H, 'l', 00H, 'i', 00H, 'n', 00H, 'g'
	DB	00H, ' ', 00H, 'N', 00H, 'V', 00H, 'A', 00H, 'P', 00H, 'I', 00H
	DB	' ', 00H, 'F', 00H, 'u', 00H, 'n', 00H, 'c', 00H, 't', 00H, 'i'
	DB	00H, 'o', 00H, 'n', 00H, 00H, 00H
	ORG $+2
$SG165850 DB	'P', 00H, 'l', 00H, 'e', 00H, 'a', 00H, 's', 00H, 'e', 00H
	DB	' ', 00H, 'r', 00H, 'u', 00H, 'n', 00H, ' ', 00H, 't', 00H, 'h'
	DB	00H, 'i', 00H, 's', 00H, ' ', 00H, 'g', 00H, 'a', 00H, 'm', 00H
	DB	'e', 00H, ' ', 00H, 'a', 00H, 's', 00H, ' ', 00H, 'A', 00H, 'd'
	DB	00H, 'm', 00H, 'i', 00H, 'n', 00H, 'i', 00H, 's', 00H, 't', 00H
	DB	'r', 00H, 'a', 00H, 't', 00H, 'o', 00H, 'r', 00H, ' ', 00H, 't'
	DB	00H, 'o', 00H, ' ', 00H, 'i', 00H, 'n', 00H, 's', 00H, 't', 00H
	DB	'a', 00H, 'l', 00H, 'l', 00H, ' ', 00H, 'A', 00H, 'n', 00H, 't'
	DB	00H, 'i', 00H, '-', 00H, 'A', 00H, 'l', 00H, 'i', 00H, 'a', 00H
	DB	's', 00H, 'i', 00H, 'n', 00H, 'g', 00H, ' ', 00H, 'c', 00H, 'o'
	DB	00H, 'm', 00H, 'p', 00H, 'a', 00H, 't', 00H, 'i', 00H, 'b', 00H
	DB	'i', 00H, 'l', 00H, 'i', 00H, 't', 00H, 'y', 00H, ' ', 00H, 'b'
	DB	00H, 'i', 00H, 't', 00H, 's', 00H, 0dH, 00H, 0aH, 00H, 0dH, 00H
	DB	0aH, 00H, 09H, 00H, '>', 00H, '>', 00H, ' ', 00H, 'P', 00H, 'r'
	DB	00H, 'e', 00H, 's', 00H, 's', 00H, 'i', 00H, 'n', 00H, 'g', 00H
	DB	' ', 00H, 'C', 00H, 'a', 00H, 'n', 00H, 'c', 00H, 'e', 00H, 'l'
	DB	00H, ' ', 00H, 'w', 00H, 'i', 00H, 'l', 00H, 'l', 00H, ' ', 00H
	DB	'd', 00H, 'i', 00H, 's', 00H, 'a', 00H, 'b', 00H, 'l', 00H, 'e'
	DB	00H, ' ', 00H, 'A', 00H, 'A', 00H, ' ', 00H, 'O', 00H, 'v', 00H
	DB	'e', 00H, 'r', 00H, 'r', 00H, 'i', 00H, 'd', 00H, 'e', 00H, 00H
	DB	00H
$SG165854 DB	'c:\users\andon\source\repos\specialk\src\nvapi.cpp', 00H
	ORG $+1
$SG165855 DB	'SK_NvAPI_SetAntiAliasingOverride', 00H
	ORG $+3
$SG165856 DB	'DRS_DestroySession (hSession)', 00H
	ORG $+2
$SG165858 DB	'E', 00H, 'r', 00H, 'r', 00H, 'o', 00H, 'r', 00H, ' ', 00H
	DB	'C', 00H, 'a', 00H, 'l', 00H, 'l', 00H, 'i', 00H, 'n', 00H, 'g'
	DB	00H, ' ', 00H, 'N', 00H, 'V', 00H, 'A', 00H, 'P', 00H, 'I', 00H
	DB	' ', 00H, 'F', 00H, 'u', 00H, 'n', 00H, 'c', 00H, 't', 00H, 'i'
	DB	00H, 'o', 00H, 'n', 00H, 00H, 00H
	ORG $+2
$SG165859 DB	'c:\users\andon\source\repos\specialk\src\nvapi.cpp', 00H
	ORG $+1
$SG165860 DB	'SK_NvAPI_SetAntiAliasingOverride', 00H
	ORG $+3
$SG165861 DB	'DRS_DestroySession (hSession)', 00H
	ORG $+2
$SG165864 DB	'E', 00H, 'r', 00H, 'r', 00H, 'o', 00H, 'r', 00H, ' ', 00H
	DB	'C', 00H, 'a', 00H, 'l', 00H, 'l', 00H, 'i', 00H, 'n', 00H, 'g'
	DB	00H, ' ', 00H, 'N', 00H, 'V', 00H, 'A', 00H, 'P', 00H, 'I', 00H
	DB	' ', 00H, 'F', 00H, 'u', 00H, 'n', 00H, 'c', 00H, 't', 00H, 'i'
	DB	00H, 'o', 00H, 'n', 00H, 00H, 00H
	ORG $+2
$SG165865 DB	'c:\users\andon\source\repos\specialk\src\nvapi.cpp', 00H
	ORG $+1
$SG165866 DB	'SK_NvAPI_SetAntiAliasingOverride', 00H
	ORG $+3
$SG165867 DB	'DRS_SetSetting (hSession, hProfile, &method_val)', 00H
	ORG $+3
$SG165870 DB	'E', 00H, 'r', 00H, 'r', 00H, 'o', 00H, 'r', 00H, ' ', 00H
	DB	'C', 00H, 'a', 00H, 'l', 00H, 'l', 00H, 'i', 00H, 'n', 00H, 'g'
	DB	00H, ' ', 00H, 'N', 00H, 'V', 00H, 'A', 00H, 'P', 00H, 'I', 00H
	DB	' ', 00H, 'F', 00H, 'u', 00H, 'n', 00H, 'c', 00H, 't', 00H, 'i'
	DB	00H, 'o', 00H, 'n', 00H, 00H, 00H
	ORG $+2
$SG165871 DB	'c:\users\andon\source\repos\specialk\src\nvapi.cpp', 00H
	ORG $+1
$SG165872 DB	'SK_NvAPI_SetAntiAliasingOverride', 00H
	ORG $+3
$SG165873 DB	'DRS_SetSetting (hSession, hProfile, &replay_mode_val)', 00H
	ORG $+2
$SG165878 DB	'E', 00H, 'r', 00H, 'r', 00H, 'o', 00H, 'r', 00H, ' ', 00H
	DB	'C', 00H, 'a', 00H, 'l', 00H, 'l', 00H, 'i', 00H, 'n', 00H, 'g'
	DB	00H, ' ', 00H, 'N', 00H, 'V', 00H, 'A', 00H, 'P', 00H, 'I', 00H
	DB	' ', 00H, 'F', 00H, 'u', 00H, 'n', 00H, 'c', 00H, 't', 00H, 'i'
	DB	00H, 'o', 00H, 'n', 00H, 00H, 00H
	ORG $+2
$SG165879 DB	'c:\users\andon\source\repos\specialk\src\nvapi.cpp', 00H
	ORG $+1
$SG165880 DB	'SK_NvAPI_SetAntiAliasingOverride', 00H
	ORG $+3
$SG165881 DB	'DRS_SetSetting (hSession, hProfile, &aa_fix_val)', 00H
	ORG $+3
$SG165885 DB	'E', 00H, 'r', 00H, 'r', 00H, 'o', 00H, 'r', 00H, ' ', 00H
	DB	'C', 00H, 'a', 00H, 'l', 00H, 'l', 00H, 'i', 00H, 'n', 00H, 'g'
	DB	00H, ' ', 00H, 'N', 00H, 'V', 00H, 'A', 00H, 'P', 00H, 'I', 00H
	DB	' ', 00H, 'F', 00H, 'u', 00H, 'n', 00H, 'c', 00H, 't', 00H, 'i'
	DB	00H, 'o', 00H, 'n', 00H, 00H, 00H
	ORG $+2
$SG165882 DB	'[', 00H, ' ', 00H, ' ', 00H, 'N', 00H, 'v', 00H, 'A', 00H
	DB	'P', 00H, 'I', 00H, ' ', 00H, ' ', 00H, ' ', 00H, ']', 00H, ' '
	DB	00H, '*', 00H, '*', 00H, '*', 00H, ' ', 00H, 'C', 00H, 'a', 00H
	DB	'n', 00H, 'n', 00H, 'o', 00H, 't', 00H, ' ', 00H, 's', 00H, 'e'
	DB	00H, 't', 00H, ' ', 00H, 'N', 00H, 'v', 00H, 'D', 00H, 'R', 00H
	DB	'S', 00H, ' ', 00H, 'P', 00H, 'r', 00H, 'o', 00H, 'f', 00H, 'i'
	DB	00H, 'l', 00H, 'e', 00H, ' ', 00H, 'S', 00H, 'e', 00H, 't', 00H
	DB	't', 00H, 'i', 00H, 'n', 00H, 'g', 00H, ' ', 00H, '''', 00H, '%'
	DB	00H, 'x', 00H, '''', 00H, ' ', 00H, 'a', 00H, 's', 00H, ' ', 00H
	DB	'a', 00H, ' ', 00H, 'n', 00H, 'o', 00H, 'r', 00H, 'm', 00H, 'a'
	DB	00H, 'l', 00H, ' ', 00H, 'u', 00H, 's', 00H, 'e', 00H, 'r', 00H
	DB	',', 00H, ' ', 00H, 's', 00H, 'k', 00H, 'i', 00H, 'p', 00H, 'p'
	DB	00H, 'i', 00H, 'n', 00H, 'g', 00H, '.', 00H, '.', 00H, '.', 00H
	DB	00H, 00H
	ORG $+2
$SG165886 DB	'c:\users\andon\source\repos\specialk\src\nvapi.cpp', 00H
	ORG $+1
$SG165887 DB	'SK_NvAPI_SetAntiAliasingOverride', 00H
CONST	ENDS
PUBLIC	?wcsstr@@YAPA_WPA_WPB_W@Z			; wcsstr
PUBLIC	_wmemcmp
PUBLIC	_wmemcpy
PUBLIC	_wmemmove
PUBLIC	?max@?$numeric_limits@I@std@@SAIXZ		; std::numeric_limits<unsigned int>::max
PUBLIC	??2@YAPAXIPAX@Z					; operator new
PUBLIC	?compare@?$char_traits@_W@std@@SAHQB_W0I@Z	; std::char_traits<wchar_t>::compare
PUBLIC	?length@?$char_traits@_W@std@@SAIQB_W@Z		; std::char_traits<wchar_t>::length
PUBLIC	?copy@?$char_traits@_W@std@@SAPA_WQA_WQB_WI@Z	; std::char_traits<wchar_t>::copy
PUBLIC	?move@?$char_traits@_W@std@@SAPA_WQA_WQB_WI@Z	; std::char_traits<wchar_t>::move
PUBLIC	?assign@?$char_traits@_W@std@@SAXAA_WAB_W@Z	; std::char_traits<wchar_t>::assign
PUBLIC	?_Orphan_all@_Container_base0@std@@QAEXXZ	; std::_Container_base0::_Orphan_all
PUBLIC	?_Allocate@std@@YAPAXII_N@Z			; std::_Allocate
PUBLIC	?_Deallocate@std@@YAXPAXII@Z			; std::_Deallocate
PUBLIC	??0?$allocator@_W@std@@QAE@XZ			; std::allocator<wchar_t>::allocator<wchar_t>
PUBLIC	?deallocate@?$allocator@_W@std@@QAEXPA_WI@Z	; std::allocator<wchar_t>::deallocate
PUBLIC	?allocate@?$allocator@_W@std@@QAEPA_WI@Z	; std::allocator<wchar_t>::allocate
PUBLIC	?max_size@?$allocator@_W@std@@QBEIXZ		; std::allocator<wchar_t>::max_size
PUBLIC	?max_size@?$allocator_traits@V?$allocator@_W@std@@@std@@SAIABV?$allocator@_W@2@@Z ; std::allocator_traits<std::allocator<wchar_t> >::max_size
PUBLIC	??0?$_Wrap_alloc@V?$allocator@_W@std@@@std@@QAE@XZ ; std::_Wrap_alloc<std::allocator<wchar_t> >::_Wrap_alloc<std::allocator<wchar_t> >
PUBLIC	?allocate@?$_Wrap_alloc@V?$allocator@_W@std@@@std@@QAEPA_WI@Z ; std::_Wrap_alloc<std::allocator<wchar_t> >::allocate
PUBLIC	?deallocate@?$_Wrap_alloc@V?$allocator@_W@std@@@std@@QAEXPA_WI@Z ; std::_Wrap_alloc<std::allocator<wchar_t> >::deallocate
PUBLIC	?max_size@?$_Wrap_alloc@V?$allocator@_W@std@@@std@@QBEIU_Nil@2@@Z ; std::_Wrap_alloc<std::allocator<wchar_t> >::max_size
PUBLIC	??0?$_String_val@U?$_Simple_types@_W@std@@@std@@QAE@XZ ; std::_String_val<std::_Simple_types<wchar_t> >::_String_val<std::_Simple_types<wchar_t> >
PUBLIC	?_Myptr@?$_String_val@U?$_Simple_types@_W@std@@@std@@QAEPA_WXZ ; std::_String_val<std::_Simple_types<wchar_t> >::_Myptr
PUBLIC	?_Myptr@?$_String_val@U?$_Simple_types@_W@std@@@std@@QBEPB_WXZ ; std::_String_val<std::_Simple_types<wchar_t> >::_Myptr
PUBLIC	?_Large_string_engaged@?$_String_val@U?$_Simple_types@_W@std@@@std@@QBE_NXZ ; std::_String_val<std::_Simple_types<wchar_t> >::_Large_string_engaged
PUBLIC	??0_Bxty@?$_String_val@U?$_Simple_types@_W@std@@@std@@QAE@XZ ; std::_String_val<std::_Simple_types<wchar_t> >::_Bxty::_Bxty
PUBLIC	??1_Bxty@?$_String_val@U?$_Simple_types@_W@std@@@std@@QAE@XZ ; std::_String_val<std::_Simple_types<wchar_t> >::_Bxty::~_Bxty
PUBLIC	??1?$_String_val@U?$_Simple_types@_W@std@@@std@@QAE@XZ ; std::_String_val<std::_Simple_types<wchar_t> >::~_String_val<std::_Simple_types<wchar_t> >
PUBLIC	?_Myptr@?$_String_alloc@U?$_String_base_types@_WV?$allocator@_W@std@@@std@@@std@@QAEPA_WXZ ; std::_String_alloc<std::_String_base_types<wchar_t,std::allocator<wchar_t> > >::_Myptr
PUBLIC	?_Myptr@?$_String_alloc@U?$_String_base_types@_WV?$allocator@_W@std@@@std@@@std@@QBEPB_WXZ ; std::_String_alloc<std::_String_base_types<wchar_t,std::allocator<wchar_t> > >::_Myptr
PUBLIC	??0?$_String_alloc@U?$_String_base_types@_WV?$allocator@_W@std@@@std@@@std@@QAE@XZ ; std::_String_alloc<std::_String_base_types<wchar_t,std::allocator<wchar_t> > >::_String_alloc<std::_String_base_types<wchar_t,std::allocator<wchar_t> > >
PUBLIC	?_Orphan_all@?$_String_alloc@U?$_String_base_types@_WV?$allocator@_W@std@@@std@@@std@@QAEXXZ ; std::_String_alloc<std::_String_base_types<wchar_t,std::allocator<wchar_t> > >::_Orphan_all
PUBLIC	?_Getal@?$_String_alloc@U?$_String_base_types@_WV?$allocator@_W@std@@@std@@@std@@QAEAAU?$_Wrap_alloc@V?$allocator@_W@std@@@2@XZ ; std::_String_alloc<std::_String_base_types<wchar_t,std::allocator<wchar_t> > >::_Getal
PUBLIC	?_Getal@?$_String_alloc@U?$_String_base_types@_WV?$allocator@_W@std@@@std@@@std@@QBEABU?$_Wrap_alloc@V?$allocator@_W@std@@@2@XZ ; std::_String_alloc<std::_String_base_types<wchar_t,std::allocator<wchar_t> > >::_Getal
PUBLIC	?_Get_data@?$_String_alloc@U?$_String_base_types@_WV?$allocator@_W@std@@@std@@@std@@QAEAAV?$_String_val@U?$_Simple_types@_W@std@@@2@XZ ; std::_String_alloc<std::_String_base_types<wchar_t,std::allocator<wchar_t> > >::_Get_data
PUBLIC	?_Get_data@?$_String_alloc@U?$_String_base_types@_WV?$allocator@_W@std@@@std@@@std@@QBEABV?$_String_val@U?$_Simple_types@_W@std@@@2@XZ ; std::_String_alloc<std::_String_base_types<wchar_t,std::allocator<wchar_t> > >::_Get_data
PUBLIC	?_Mysize@?$_String_alloc@U?$_String_base_types@_WV?$allocator@_W@std@@@std@@@std@@QAEAAIXZ ; std::_String_alloc<std::_String_base_types<wchar_t,std::allocator<wchar_t> > >::_Mysize
PUBLIC	?_Mysize@?$_String_alloc@U?$_String_base_types@_WV?$allocator@_W@std@@@std@@@std@@QBEABIXZ ; std::_String_alloc<std::_String_base_types<wchar_t,std::allocator<wchar_t> > >::_Mysize
PUBLIC	?_Myres@?$_String_alloc@U?$_String_base_types@_WV?$allocator@_W@std@@@std@@@std@@QAEAAIXZ ; std::_String_alloc<std::_String_base_types<wchar_t,std::allocator<wchar_t> > >::_Myres
PUBLIC	?_Get_first@?$_Compressed_pair@U?$_Wrap_alloc@V?$allocator@_W@std@@@std@@V?$_String_val@U?$_Simple_types@_W@std@@@2@$00@std@@QAEAAU?$_Wrap_alloc@V?$allocator@_W@std@@@2@XZ ; std::_Compressed_pair<std::_Wrap_alloc<std::allocator<wchar_t> >,std::_String_val<std::_Simple_types<wchar_t> >,1>::_Get_first
PUBLIC	?_Get_first@?$_Compressed_pair@U?$_Wrap_alloc@V?$allocator@_W@std@@@std@@V?$_String_val@U?$_Simple_types@_W@std@@@2@$00@std@@QBEABU?$_Wrap_alloc@V?$allocator@_W@std@@@2@XZ ; std::_Compressed_pair<std::_Wrap_alloc<std::allocator<wchar_t> >,std::_String_val<std::_Simple_types<wchar_t> >,1>::_Get_first
PUBLIC	?_Get_second@?$_Compressed_pair@U?$_Wrap_alloc@V?$allocator@_W@std@@@std@@V?$_String_val@U?$_Simple_types@_W@std@@@2@$00@std@@QAEAAV?$_String_val@U?$_Simple_types@_W@std@@@2@XZ ; std::_Compressed_pair<std::_Wrap_alloc<std::allocator<wchar_t> >,std::_String_val<std::_Simple_types<wchar_t> >,1>::_Get_second
PUBLIC	?_Get_second@?$_Compressed_pair@U?$_Wrap_alloc@V?$allocator@_W@std@@@std@@V?$_String_val@U?$_Simple_types@_W@std@@@2@$00@std@@QBEABV?$_String_val@U?$_Simple_types@_W@std@@@2@XZ ; std::_Compressed_pair<std::_Wrap_alloc<std::allocator<wchar_t> >,std::_String_val<std::_Simple_types<wchar_t> >,1>::_Get_second
PUBLIC	??1?$_Compressed_pair@U?$_Wrap_alloc@V?$allocator@_W@std@@@std@@V?$_String_val@U?$_Simple_types@_W@std@@@2@$00@std@@QAE@XZ ; std::_Compressed_pair<std::_Wrap_alloc<std::allocator<wchar_t> >,std::_String_val<std::_Simple_types<wchar_t> >,1>::~_Compressed_pair<std::_Wrap_alloc<std::allocator<wchar_t> >,std::_String_val<std::_Simple_types<wchar_t> >,1>
PUBLIC	??1?$_String_alloc@U?$_String_base_types@_WV?$allocator@_W@std@@@std@@@std@@QAE@XZ ; std::_String_alloc<std::_String_base_types<wchar_t,std::allocator<wchar_t> > >::~_String_alloc<std::_String_base_types<wchar_t,std::allocator<wchar_t> > >
PUBLIC	??0?$basic_string@_WU?$char_traits@_W@std@@V?$allocator@_W@2@@std@@QAE@QB_W@Z ; std::basic_string<wchar_t,std::char_traits<wchar_t>,std::allocator<wchar_t> >::basic_string<wchar_t,std::char_traits<wchar_t>,std::allocator<wchar_t> >
PUBLIC	??1?$basic_string@_WU?$char_traits@_W@std@@V?$allocator@_W@2@@std@@QAE@XZ ; std::basic_string<wchar_t,std::char_traits<wchar_t>,std::allocator<wchar_t> >::~basic_string<wchar_t,std::char_traits<wchar_t>,std::allocator<wchar_t> >
PUBLIC	??4?$basic_string@_WU?$char_traits@_W@std@@V?$allocator@_W@2@@std@@QAEAAV01@QB_W@Z ; std::basic_string<wchar_t,std::char_traits<wchar_t>,std::allocator<wchar_t> >::operator=
PUBLIC	?assign@?$basic_string@_WU?$char_traits@_W@std@@V?$allocator@_W@2@@std@@QAEAAV12@ABV12@II@Z ; std::basic_string<wchar_t,std::char_traits<wchar_t>,std::allocator<wchar_t> >::assign
PUBLIC	?assign@?$basic_string@_WU?$char_traits@_W@std@@V?$allocator@_W@2@@std@@QAEAAV12@QB_WI@Z ; std::basic_string<wchar_t,std::char_traits<wchar_t>,std::allocator<wchar_t> >::assign
PUBLIC	?assign@?$basic_string@_WU?$char_traits@_W@std@@V?$allocator@_W@2@@std@@QAEAAV12@QB_W@Z ; std::basic_string<wchar_t,std::char_traits<wchar_t>,std::allocator<wchar_t> >::assign
PUBLIC	?erase@?$basic_string@_WU?$char_traits@_W@std@@V?$allocator@_W@2@@std@@QAEAAV12@I@Z ; std::basic_string<wchar_t,std::char_traits<wchar_t>,std::allocator<wchar_t> >::erase
PUBLIC	?erase@?$basic_string@_WU?$char_traits@_W@std@@V?$allocator@_W@2@@std@@QAEAAV12@II@Z ; std::basic_string<wchar_t,std::char_traits<wchar_t>,std::allocator<wchar_t> >::erase
PUBLIC	?c_str@?$basic_string@_WU?$char_traits@_W@std@@V?$allocator@_W@2@@std@@QBEPB_WXZ ; std::basic_string<wchar_t,std::char_traits<wchar_t>,std::allocator<wchar_t> >::c_str
PUBLIC	?max_size@?$basic_string@_WU?$char_traits@_W@std@@V?$allocator@_W@2@@std@@QBEIXZ ; std::basic_string<wchar_t,std::char_traits<wchar_t>,std::allocator<wchar_t> >::max_size
PUBLIC	?_Clamp_suffix_size@?$basic_string@_WU?$char_traits@_W@std@@V?$allocator@_W@2@@std@@QBEIII@Z ; std::basic_string<wchar_t,std::char_traits<wchar_t>,std::allocator<wchar_t> >::_Clamp_suffix_size
PUBLIC	?_Equal@?$basic_string@_WU?$char_traits@_W@std@@V?$allocator@_W@2@@std@@QBE_NQB_W@Z ; std::basic_string<wchar_t,std::char_traits<wchar_t>,std::allocator<wchar_t> >::_Equal
PUBLIC	?_Copy@?$basic_string@_WU?$char_traits@_W@std@@V?$allocator@_W@2@@std@@QAEXI@Z ; std::basic_string<wchar_t,std::char_traits<wchar_t>,std::allocator<wchar_t> >::_Copy
PUBLIC	?_Eos@?$basic_string@_WU?$char_traits@_W@std@@V?$allocator@_W@2@@std@@QAEXI@Z ; std::basic_string<wchar_t,std::char_traits<wchar_t>,std::allocator<wchar_t> >::_Eos
PUBLIC	?_Grow@?$basic_string@_WU?$char_traits@_W@std@@V?$allocator@_W@2@@std@@QAE_NI@Z ; std::basic_string<wchar_t,std::char_traits<wchar_t>,std::allocator<wchar_t> >::_Grow
PUBLIC	?_Inside@?$basic_string@_WU?$char_traits@_W@std@@V?$allocator@_W@2@@std@@QBE_NQB_W@Z ; std::basic_string<wchar_t,std::char_traits<wchar_t>,std::allocator<wchar_t> >::_Inside
PUBLIC	?_Tidy_init@?$basic_string@_WU?$char_traits@_W@std@@V?$allocator@_W@2@@std@@QAEXXZ ; std::basic_string<wchar_t,std::char_traits<wchar_t>,std::allocator<wchar_t> >::_Tidy_init
PUBLIC	?_Tidy_deallocate@?$basic_string@_WU?$char_traits@_W@std@@V?$allocator@_W@2@@std@@QAEXXZ ; std::basic_string<wchar_t,std::char_traits<wchar_t>,std::allocator<wchar_t> >::_Tidy_deallocate
PUBLIC	?_Xlen@?$basic_string@_WU?$char_traits@_W@std@@V?$allocator@_W@2@@std@@SAXXZ ; std::basic_string<wchar_t,std::char_traits<wchar_t>,std::allocator<wchar_t> >::_Xlen
PUBLIC	?_Check_offset@?$basic_string@_WU?$char_traits@_W@std@@V?$allocator@_W@2@@std@@QBEXI@Z ; std::basic_string<wchar_t,std::char_traits<wchar_t>,std::allocator<wchar_t> >::_Check_offset
PUBLIC	?_Xran@?$basic_string@_WU?$char_traits@_W@std@@V?$allocator@_W@2@@std@@SAXXZ ; std::basic_string<wchar_t,std::char_traits<wchar_t>,std::allocator<wchar_t> >::_Xran
PUBLIC	?InitializeLibrary@NVAPI@sk@@YAHPB_W@Z		; sk::NVAPI::InitializeLibrary
PUBLIC	?UnloadLibrary@NVAPI@sk@@YAHXZ			; sk::NVAPI::UnloadLibrary
PUBLIC	?CountSLIGPUs@NVAPI@sk@@YAHXZ			; sk::NVAPI::CountSLIGPUs
PUBLIC	?CountPhysicalGPUs@NVAPI@sk@@YAHXZ		; sk::NVAPI::CountPhysicalGPUs
PUBLIC	?EnumGPUs_DXGI@NVAPI@sk@@YAPAUDXGI_ADAPTER_DESC@@XZ ; sk::NVAPI::EnumGPUs_DXGI
PUBLIC	?EnumSLIGPUs@NVAPI@sk@@YAPAUDXGI_ADAPTER_DESC@@XZ ; sk::NVAPI::EnumSLIGPUs
PUBLIC	?GetSLIState@NVAPI@sk@@YA?AUNV_GET_CURRENT_SLI_STATE_V2@@PAUIUnknown@@@Z ; sk::NVAPI::GetSLIState
PUBLIC	?FindGPUByDXGIName@NVAPI@sk@@YAPAUDXGI_ADAPTER_DESC@@PB_W@Z ; sk::NVAPI::FindGPUByDXGIName
PUBLIC	?SetAppFriendlyName@NVAPI@sk@@YAXPB_W@Z		; sk::NVAPI::SetAppFriendlyName
PUBLIC	?SetFramerateLimit@NVAPI@sk@@YAHI@Z		; sk::NVAPI::SetFramerateLimit
PUBLIC	?SetAntiAliasingOverride@NVAPI@sk@@YAHPAPB_W@Z	; sk::NVAPI::SetAntiAliasingOverride
PUBLIC	?SetSLIOverride@NVAPI@sk@@YAHW4DLL_ROLE@@PB_W11@Z ; sk::NVAPI::SetSLIOverride
PUBLIC	?GetDriverVersion@NVAPI@sk@@YA?AV?$basic_string@_WU?$char_traits@_W@std@@V?$allocator@_W@2@@std@@PAK@Z ; sk::NVAPI::GetDriverVersion
PUBLIC	?ErrorMessage@NVAPI@sk@@YA?AV?$basic_string@_WU?$char_traits@_W@std@@V?$allocator@_W@2@@std@@W4_NvAPI_Status@@PBDI11@Z ; sk::NVAPI::ErrorMessage
PUBLIC	?SK_NvAPI_SetAntiAliasingOverride@@YGHPAPB_W@Z	; SK_NvAPI_SetAntiAliasingOverride
PUBLIC	?SK_NvAPI_SetFramerateLimit@@YGHI@Z		; SK_NvAPI_SetFramerateLimit
PUBLIC	??$?8_WU?$char_traits@_W@std@@V?$allocator@_W@1@@std@@YA_NABV?$basic_string@_WU?$char_traits@_W@std@@V?$allocator@_W@2@@0@QB_W@Z ; std::operator==<wchar_t,std::char_traits<wchar_t>,std::allocator<wchar_t> >
PUBLIC	?SK_NvAPI_SetAppFriendlyName@@YGXPB_W@Z		; SK_NvAPI_SetAppFriendlyName
PUBLIC	?SK_NvAPI_IsInit@@YGHXZ				; SK_NvAPI_IsInit
PUBLIC	?SK_NvAPI_SetAppName@@YGXPB_W@Z			; SK_NvAPI_SetAppName
PUBLIC	?SK_NvAPI_SetLauncher@@YGXPB_W@Z		; SK_NvAPI_SetLauncher
PUBLIC	?SK_NvAPI_AddLauncherToProf@@YGHXZ		; SK_NvAPI_AddLauncherToProf
PUBLIC	??$?0$$V@?$_Compressed_pair@U?$_Wrap_alloc@V?$allocator@_W@std@@@std@@V?$_String_val@U?$_Simple_types@_W@std@@@2@$00@std@@QAE@U_Zero_then_variadic_args_t@1@@Z ; std::_Compressed_pair<std::_Wrap_alloc<std::allocator<wchar_t> >,std::_String_val<std::_Simple_types<wchar_t> >,1>::_Compressed_pair<std::_Wrap_alloc<std::allocator<wchar_t> >,std::_String_val<std::_Simple_types<wchar_t> >,1><>
PUBLIC	??$addressof@PA_W@std@@YAPAPA_WAAPA_W@Z		; std::addressof<wchar_t *>
PUBLIC	??$destroy@PA_W@?$_Wrap_alloc@V?$allocator@_W@std@@@std@@QAEXPAPA_W@Z ; std::_Wrap_alloc<std::allocator<wchar_t> >::destroy<wchar_t *>
PUBLIC	??$_Unfancy@_W@std@@YAPA_WPA_W@Z		; std::_Unfancy<wchar_t>
PUBLIC	??$addressof@$$CBV?$basic_string@_WU?$char_traits@_W@std@@V?$allocator@_W@2@@std@@@std@@YAPBV?$basic_string@_WU?$char_traits@_W@std@@V?$allocator@_W@2@@0@ABV10@@Z ; std::addressof<std::basic_string<wchar_t,std::char_traits<wchar_t>,std::allocator<wchar_t> > const >
PUBLIC	??$_Min_value@I@std@@YAABIABI0@Z		; std::_Min_value<unsigned int>
PUBLIC	??$construct@PA_WAAPA_W@?$_Wrap_alloc@V?$allocator@_W@std@@@std@@QAEXPAPA_WAAPA_W@Z ; std::_Wrap_alloc<std::allocator<wchar_t> >::construct<wchar_t *,wchar_t * &>
PUBLIC	??$destroy@PA_W@?$allocator_traits@V?$allocator@_W@std@@@std@@SAXAAV?$allocator@_W@1@PAPA_W@Z ; std::allocator_traits<std::allocator<wchar_t> >::destroy<wchar_t *>
PUBLIC	??$forward@AAPA_W@std@@YAAAPA_WAAPA_W@Z		; std::forward<wchar_t * &>
PUBLIC	??$construct@PA_WAAPA_W@?$allocator_traits@V?$allocator@_W@std@@@std@@SAXAAV?$allocator@_W@1@PAPA_WAAPA_W@Z ; std::allocator_traits<std::allocator<wchar_t> >::construct<wchar_t *,wchar_t * &>
PUBLIC	??$_Traits_equal@U?$char_traits@_W@std@@@std@@YA_NQB_WI0I@Z ; std::_Traits_equal<std::char_traits<wchar_t> >
PUBLIC	??$destroy@PA_W@?$allocator@_W@std@@QAEXPAPA_W@Z ; std::allocator<wchar_t>::destroy<wchar_t *>
PUBLIC	??$construct@PA_WAAPA_W@?$allocator@_W@std@@QAEXPAPA_WAAPA_W@Z ; std::allocator<wchar_t>::construct<wchar_t *,wchar_t * &>
PUBLIC	?app_name@NVAPI@sk@@3V?$basic_string@_WU?$char_traits@_W@std@@V?$allocator@_W@2@@std@@A ; sk::NVAPI::app_name
PUBLIC	?friendly_name@NVAPI@sk@@3V?$basic_string@_WU?$char_traits@_W@std@@V?$allocator@_W@2@@std@@A ; sk::NVAPI::friendly_name
PUBLIC	?launcher_name@NVAPI@sk@@3V?$basic_string@_WU?$char_traits@_W@std@@V?$allocator@_W@2@@std@@A ; sk::NVAPI::launcher_name
PUBLIC	??_C@_0BA@JFNIOLAK@string?5too?5long?$AA@	; `string'
PUBLIC	??_C@_0BI@CFPLBAOH@invalid?5string?5position?$AA@ ; `string'
EXTRN	??2@YAPAXI@Z:PROC				; operator new
EXTRN	??3@YAXPAX@Z:PROC				; operator delete
EXTRN	??_V@YAXPAX@Z:PROC				; operator delete[]
EXTRN	_atexit:PROC
EXTRN	__Init_thread_header:PROC
EXTRN	__Init_thread_footer:PROC
EXTRN	__imp___invalid_parameter_noinfo_noreturn:PROC
EXTRN	__imp__memmove:PROC
EXTRN	__imp__wcsstr:PROC
EXTRN	__imp___wcsdup:PROC
EXTRN	__imp___wcsicmp:PROC
EXTRN	__imp___wcslwr:PROC
EXTRN	__imp__InitializeCriticalSection@4:PROC
EXTRN	__imp__EnterCriticalSection@4:PROC
EXTRN	__imp__LeaveCriticalSection@4:PROC
EXTRN	__imp__GetModuleHandleExW@12:PROC
EXTRN	__imp__GetProcAddress@8:PROC
EXTRN	__imp__lstrcpyW@8:PROC
EXTRN	__imp__lstrlenW@4:PROC
EXTRN	__imp__MessageBoxW@16:PROC
EXTRN	__imp__MultiByteToWideChar@24:PROC
EXTRN	__imp__free:PROC
EXTRN	__imp__wcstoul:PROC
EXTRN	__imp__exit:PROC
EXTRN	_NvAPI_SYS_GetDriverAndBranchVersion:PROC
EXTRN	_NvAPI_GPU_GetMemoryInfo:PROC
EXTRN	_NvAPI_EnumPhysicalGPUs:PROC
EXTRN	_NvAPI_D3D_GetCurrentSLIState:PROC
EXTRN	_NvAPI_Initialize:PROC
EXTRN	_NvAPI_Unload:PROC
EXTRN	_NvAPI_GetErrorMessage:PROC
EXTRN	_NvAPI_GetLogicalGPUFromPhysicalGPU:PROC
EXTRN	_NvAPI_GetPhysicalGPUsFromLogicalGPU:PROC
EXTRN	_NvAPI_GPU_GetFullName:PROC
EXTRN	_NvAPI_DRS_CreateSession:PROC
EXTRN	_NvAPI_DRS_DestroySession:PROC
EXTRN	_NvAPI_DRS_LoadSettings:PROC
EXTRN	_NvAPI_DRS_SaveSettings:PROC
EXTRN	_NvAPI_DRS_CreateProfile:PROC
EXTRN	_NvAPI_DRS_FindProfileByName:PROC
EXTRN	_NvAPI_DRS_CreateApplication:PROC
EXTRN	_NvAPI_DRS_FindApplicationByName:PROC
EXTRN	_NvAPI_DRS_SetSetting:PROC
EXTRN	_NvAPI_DRS_GetSetting:PROC
EXTRN	__snwprintf:PROC
EXTRN	_swprintf:PROC
EXTRN	__imp_?_Xbad_alloc@std@@YAXXZ:PROC
EXTRN	__imp_?_Xlength_error@std@@YAXPBD@Z:PROC
EXTRN	__imp_?_Xout_of_range@std@@YAXPBD@Z:PROC
EXTRN	?SK_GetDLLRole@@YG?AW4DLL_ROLE@@XZ:PROC		; SK_GetDLLRole
EXTRN	?LogEx@iSK_Logger@@UAAX_NQB_WZZ:PROC		; iSK_Logger::LogEx
EXTRN	?Log@iSK_Logger@@UAAXQB_WZZ:PROC		; iSK_Logger::Log
EXTRN	?SK_IsAdmin@@YA_NXZ:PROC			; SK_IsAdmin
EXTRN	?SK_ElevateToAdmin@@YAXXZ:PROC			; SK_ElevateToAdmin
EXTRN	___CxxFrameHandler3:PROC
EXTRN	__chkstk:PROC
EXTRN	_memcpy:PROC
EXTRN	_memset:PROC
EXTRN	__Init_thread_epoch:DWORD
EXTRN	?config@@3Usk_config_t@@A:BYTE			; config
EXTRN	?dll_log@@3UiSK_Logger@@A:BYTE			; dll_log
EXTRN	__tls_array:DWORD
EXTRN	__tls_index:DWORD
_BSS	SEGMENT
	ALIGN	4

?app_name@NVAPI@sk@@3V?$basic_string@_WU?$char_traits@_W@std@@V?$allocator@_W@2@@std@@A DB 018H DUP (?) ; sk::NVAPI::app_name
?friendly_name@NVAPI@sk@@3V?$basic_string@_WU?$char_traits@_W@std@@V?$allocator@_W@2@@std@@A DB 018H DUP (?) ; sk::NVAPI::friendly_name
?launcher_name@NVAPI@sk@@3V?$basic_string@_WU?$char_traits@_W@std@@V?$allocator@_W@2@@std@@A DB 018H DUP (?) ; sk::NVAPI::launcher_name
?_nv_sli_adapters@@3PAUDXGI_ADAPTER_DESC@@A DB 04900H DUP (?) ; _nv_sli_adapters
_BSS	ENDS
;	COMDAT ?enumerated@?1??EnumGPUs_DXGI@NVAPI@sk@@YAPAUDXGI_ADAPTER_DESC@@XZ@4_NA
_BSS	SEGMENT
?enumerated@?1??EnumGPUs_DXGI@NVAPI@sk@@YAPAUDXGI_ADAPTER_DESC@@XZ@4_NA DB 01H DUP (?) ; `sk::NVAPI::EnumGPUs_DXGI'::`2'::enumerated
_BSS	ENDS
;	COMDAT ?hLib@?BE@??InitializeLibrary@NVAPI@sk@@YAHPB_W@Z@4PAUHINSTANCE__@@A
_BSS	SEGMENT
?hLib@?BE@??InitializeLibrary@NVAPI@sk@@YAHPB_W@Z@4PAUHINSTANCE__@@A DD 01H DUP (?) ; `sk::NVAPI::InitializeLibrary'::`20'::hLib
_BSS	ENDS
;	COMDAT ?NvAPI_QueryInterface@?BH@??InitializeLibrary@NVAPI@sk@@YAHPB_W@Z@4P6APAXI@ZA
_BSS	SEGMENT
?NvAPI_QueryInterface@?BH@??InitializeLibrary@NVAPI@sk@@YAHPB_W@Z@4P6APAXI@ZA DD 01H DUP (?) ; `sk::NVAPI::InitializeLibrary'::`23'::NvAPI_QueryInterface
_BSS	ENDS
;	COMDAT ?$TSS0@?BH@??InitializeLibrary@NVAPI@sk@@YAHPB_W@Z@4HA
_BSS	SEGMENT
?$TSS0@?BH@??InitializeLibrary@NVAPI@sk@@YAHPB_W@Z@4HA DD 01H DUP (?) ; TSS0<`template-parameter-23',sk::NVAPI::itializeLibrary, ?? :: ?? ::HA::AHPB_W::Z::AHPB_W>
_BSS	ENDS
;	COMDAT ?init@?1??SK_NvAPI_SetAntiAliasingOverride@@YGHPAPB_W@Z@4_NA
_BSS	SEGMENT
?init@?1??SK_NvAPI_SetAntiAliasingOverride@@YGHPAPB_W@Z@4_NA DB 01H DUP (?) ; `SK_NvAPI_SetAntiAliasingOverride'::`2'::init
_BSS	ENDS
;	COMDAT ?cs_aa_override@?1??SK_NvAPI_SetAntiAliasingOverride@@YGHPAPB_W@Z@4U_RTL_CRITICAL_SECTION@@A
_BSS	SEGMENT
?cs_aa_override@?1??SK_NvAPI_SetAntiAliasingOverride@@YGHPAPB_W@Z@4U_RTL_CRITICAL_SECTION@@A DB 018H DUP (?) ; `SK_NvAPI_SetAntiAliasingOverride'::`2'::cs_aa_override
_BSS	ENDS
;	COMDAT ?app@?1??SetSLIOverride@NVAPI@sk@@YAHW4DLL_ROLE@@PB_W11@Z@4U_NVDRS_APPLICATION_V4@@A
_BSS	SEGMENT
?app@?1??SetSLIOverride@NVAPI@sk@@YAHW4DLL_ROLE@@PB_W11@Z@4U_NVDRS_APPLICATION_V4@@A DB 0500cH DUP (?) ; `sk::NVAPI::SetSLIOverride'::`2'::app
_BSS	ENDS
;	COMDAT ?app@?1??SK_NvAPI_AddLauncherToProf@@YGHXZ@4U_NVDRS_APPLICATION_V4@@A
_BSS	SEGMENT
?app@?1??SK_NvAPI_AddLauncherToProf@@YGHXZ@4U_NVDRS_APPLICATION_V4@@A DB 0500cH DUP (?) ; `SK_NvAPI_AddLauncherToProf'::`2'::app
_BSS	ENDS
CRT$XCU	SEGMENT
?friendly_name$initializer$@NVAPI@sk@@3P6AXXZA DD FLAT:??__Efriendly_name@NVAPI@sk@@YAXXZ ; sk::NVAPI::friendly_name$initializer$
CRT$XCU	ENDS
;	COMDAT ??_C@_0BI@CFPLBAOH@invalid?5string?5position?$AA@
CONST	SEGMENT
??_C@_0BI@CFPLBAOH@invalid?5string?5position?$AA@ DB 'invalid string posi'
	DB	'tion', 00H					; `string'
CONST	ENDS
;	COMDAT ??_C@_0BA@JFNIOLAK@string?5too?5long?$AA@
CONST	SEGMENT
??_C@_0BA@JFNIOLAK@string?5too?5long?$AA@ DB 'string too long', 00H ; `string'
CONST	ENDS
;	COMDAT ?nv_sli_count@?1??EnumSLIGPUs@NVAPI@sk@@YAPAUDXGI_ADAPTER_DESC@@XZ@4HA
_DATA	SEGMENT
?nv_sli_count@?1??EnumSLIGPUs@NVAPI@sk@@YAPAUDXGI_ADAPTER_DESC@@XZ@4HA DD 0ffffffffH ; `sk::NVAPI::EnumSLIGPUs'::`2'::nv_sli_count
_DATA	ENDS
;	COMDAT ?nv_sli_count@?1??CountSLIGPUs@NVAPI@sk@@YAHXZ@4HA
_DATA	SEGMENT
?nv_sli_count@?1??CountSLIGPUs@NVAPI@sk@@YAHXZ@4HA DD 0ffffffffH ; `sk::NVAPI::CountSLIGPUs'::`2'::nv_sli_count
_DATA	ENDS
;	COMDAT ?nv_gpu_count@?1??CountPhysicalGPUs@NVAPI@sk@@YAHXZ@4HA
_DATA	SEGMENT
?nv_gpu_count@?1??CountPhysicalGPUs@NVAPI@sk@@YAHXZ@4HA DD 0ffffffffH ; `sk::NVAPI::CountPhysicalGPUs'::`2'::nv_gpu_count
_DATA	ENDS
xdata$x	SEGMENT
__unwindtable$?SetSLIOverride@NVAPI@sk@@YAHW4DLL_ROLE@@PB_W11@Z DD 0ffffffffH
	DD	FLAT:__unwindfunclet$?SetSLIOverride@NVAPI@sk@@YAHW4DLL_ROLE@@PB_W11@Z$2
	DD	00H
	DD	FLAT:__unwindfunclet$?SetSLIOverride@NVAPI@sk@@YAHW4DLL_ROLE@@PB_W11@Z$3
__ehfuncinfo$?SetSLIOverride@NVAPI@sk@@YAHW4DLL_ROLE@@PB_W11@Z DD 019930522H
	DD	02H
	DD	FLAT:__unwindtable$?SetSLIOverride@NVAPI@sk@@YAHW4DLL_ROLE@@PB_W11@Z
	DD	2 DUP(00H)
	DD	2 DUP(00H)
	DD	00H
	DD	01H
xdata$x	ENDS
;	COMDAT xdata$x
xdata$x	SEGMENT
__catchsym$?_Copy@?$basic_string@_WU?$char_traits@_W@std@@V?$allocator@_W@2@@std@@QAEXI@Z$18 DD 040H
	DD	00H
	DD	00H
	DD	FLAT:__catch$?_Copy@?$basic_string@_WU?$char_traits@_W@std@@V?$allocator@_W@2@@std@@QAEXI@Z$0
__unwindtable$?_Copy@?$basic_string@_WU?$char_traits@_W@std@@V?$allocator@_W@2@@std@@QAEXI@Z DD 0ffffffffH
	DD	00H
	DD	0ffffffffH
	DD	00H
__tryblocktable$?_Copy@?$basic_string@_WU?$char_traits@_W@std@@V?$allocator@_W@2@@std@@QAEXI@Z DD 00H
	DD	00H
	DD	01H
	DD	01H
	DD	FLAT:__catchsym$?_Copy@?$basic_string@_WU?$char_traits@_W@std@@V?$allocator@_W@2@@std@@QAEXI@Z$18
__ehfuncinfo$?_Copy@?$basic_string@_WU?$char_traits@_W@std@@V?$allocator@_W@2@@std@@QAEXI@Z DD 019930522H
	DD	02H
	DD	FLAT:__unwindtable$?_Copy@?$basic_string@_WU?$char_traits@_W@std@@V?$allocator@_W@2@@std@@QAEXI@Z
	DD	01H
	DD	FLAT:__tryblocktable$?_Copy@?$basic_string@_WU?$char_traits@_W@std@@V?$allocator@_W@2@@std@@QAEXI@Z
	DD	2 DUP(00H)
	DD	00H
	DD	01H
xdata$x	ENDS
CRT$XCU	SEGMENT
?app_name$initializer$@NVAPI@sk@@3P6AXXZA DD FLAT:??__Eapp_name@NVAPI@sk@@YAXXZ ; sk::NVAPI::app_name$initializer$
CRT$XCU	ENDS
CRT$XCU	SEGMENT
?launcher_name$initializer$@NVAPI@sk@@3P6AXXZA DD FLAT:??__Elauncher_name@NVAPI@sk@@YAXXZ ; sk::NVAPI::launcher_name$initializer$
CRT$XCU	ENDS
; Function compile flags: /Ogtp
; File c:\program files (x86)\microsoft visual studio\2017\community\vc\tools\msvc\14.10.25017\include\xmemory0
;	COMDAT ??$construct@PA_WAAPA_W@?$allocator@_W@std@@QAEXPAPA_WAAPA_W@Z
_TEXT	SEGMENT
__Ptr$ = 8						; size = 4
_<_Args_0>$ = 12					; size = 4
??$construct@PA_WAAPA_W@?$allocator@_W@std@@QAEXPAPA_WAAPA_W@Z PROC ; std::allocator<wchar_t>::construct<wchar_t *,wchar_t * &>, COMDAT
; _this$ = ecx

; 839  : 		{	// construct _Objty(_Types...) at _Ptr

	npad	2
	push	ebp
	mov	ebp, esp

; 840  : 		::new ((void *)_Ptr) _Objty(_STD forward<_Types>(_Args)...);

	mov	ecx, DWORD PTR __Ptr$[ebp]
	test	ecx, ecx
	je	SHORT $LN3@construct
	mov	eax, DWORD PTR _<_Args_0>$[ebp]
	mov	eax, DWORD PTR [eax]
	mov	DWORD PTR [ecx], eax
$LN3@construct:

; 841  : 		}

	pop	ebp
	ret	8
??$construct@PA_WAAPA_W@?$allocator@_W@std@@QAEXPAPA_WAAPA_W@Z ENDP ; std::allocator<wchar_t>::construct<wchar_t *,wchar_t * &>
_TEXT	ENDS
; Function compile flags: /Ogtp
; File c:\program files (x86)\microsoft visual studio\2017\community\vc\tools\msvc\14.10.25017\include\xmemory0
;	COMDAT ??$destroy@PA_W@?$allocator@_W@std@@QAEXPAPA_W@Z
_TEXT	SEGMENT
__Ptr$ = 8						; size = 4
??$destroy@PA_W@?$allocator@_W@std@@QAEXPAPA_W@Z PROC	; std::allocator<wchar_t>::destroy<wchar_t *>, COMDAT
; _this$ = ecx

; 846  : 		_Ptr->~_Uty();
; 847  : 		}

	ret	4
??$destroy@PA_W@?$allocator@_W@std@@QAEXPAPA_W@Z ENDP	; std::allocator<wchar_t>::destroy<wchar_t *>
_TEXT	ENDS
; Function compile flags: /Ogtp
; File c:\program files (x86)\microsoft visual studio\2017\community\vc\tools\msvc\14.10.25017\include\xstring
; File c:\program files (x86)\microsoft visual studio\2017\community\vc\tools\msvc\14.10.25017\include\iosfwd
; File c:\program files (x86)\windows kits\10\include\10.0.10240.0\ucrt\wchar.h
; File c:\program files (x86)\microsoft visual studio\2017\community\vc\tools\msvc\14.10.25017\include\xstring
; File c:\program files (x86)\windows kits\10\include\10.0.10240.0\ucrt\wchar.h
; File c:\program files (x86)\microsoft visual studio\2017\community\vc\tools\msvc\14.10.25017\include\xstring
;	COMDAT ??$_Traits_equal@U?$char_traits@_W@std@@@std@@YA_NQB_WI0I@Z
_TEXT	SEGMENT
__Left$ = 8						; size = 4
__Left_size$ = 12					; size = 4
__Right$ = 16						; size = 4
__Right_size$ = 20					; size = 4
??$_Traits_equal@U?$char_traits@_W@std@@@std@@YA_NQB_WI0I@Z PROC ; std::_Traits_equal<std::char_traits<wchar_t> >, COMDAT

; 24   : 	{	// compare [_Left, _Left + _Left_size) to [_Right, _Right + _Right_size) for equality using _Traits

	npad	2
	push	ebp
	mov	ebp, esp
	push	esi

; 25   : 	return (_Left_size == _Right_size && _Traits::compare(_Left, _Right, _Left_size) == 0);

	mov	esi, DWORD PTR __Left_size$[ebp]
	cmp	esi, DWORD PTR __Right_size$[ebp]
	jne	SHORT $LN3@Traits_equ
; File c:\program files (x86)\microsoft visual studio\2017\community\vc\tools\msvc\14.10.25017\include\iosfwd

; 284  : 		return (_CSTD wmemcmp(_First1, _First2, _Count));

	mov	ecx, DWORD PTR __Right$[ebp]
	mov	edx, DWORD PTR __Left$[ebp]
; File c:\program files (x86)\windows kits\10\include\10.0.10240.0\ucrt\wchar.h

; 216  :         for (; 0 < _N; ++_S1, ++_S2, --_N)

	test	esi, esi
	je	SHORT $LN19@Traits_equ
$LL11@Traits_equ:

; 217  :             if (*_S1 != *_S2)

	mov	ax, WORD PTR [edx]
	cmp	ax, WORD PTR [ecx]
	jne	SHORT $LN15@Traits_equ

; 216  :         for (; 0 < _N; ++_S1, ++_S2, --_N)

	add	edx, 2
	add	ecx, 2
	sub	esi, 1
	jne	SHORT $LL11@Traits_equ
; File c:\program files (x86)\microsoft visual studio\2017\community\vc\tools\msvc\14.10.25017\include\xstring

; 25   : 	return (_Left_size == _Right_size && _Traits::compare(_Left, _Right, _Left_size) == 0);

	mov	al, 1
	pop	esi

; 26   : 	}

	pop	ebp
	ret	0
$LN15@Traits_equ:
; File c:\program files (x86)\windows kits\10\include\10.0.10240.0\ucrt\wchar.h

; 218  :                 return *_S1 < *_S2 ? -1 : 1;

	movzx	eax, WORD PTR [edx]
	cmp	ax, WORD PTR [ecx]
	sbb	eax, eax
	and	eax, -2					; fffffffeH
	add	eax, 1
; File c:\program files (x86)\microsoft visual studio\2017\community\vc\tools\msvc\14.10.25017\include\xstring

; 25   : 	return (_Left_size == _Right_size && _Traits::compare(_Left, _Right, _Left_size) == 0);

	jne	SHORT $LN3@Traits_equ
$LN19@Traits_equ:
	mov	al, 1
	pop	esi

; 26   : 	}

	pop	ebp
	ret	0
$LN3@Traits_equ:

; 25   : 	return (_Left_size == _Right_size && _Traits::compare(_Left, _Right, _Left_size) == 0);

	xor	al, al
	pop	esi

; 26   : 	}

	pop	ebp
	ret	0
??$_Traits_equal@U?$char_traits@_W@std@@@std@@YA_NQB_WI0I@Z ENDP ; std::_Traits_equal<std::char_traits<wchar_t> >
_TEXT	ENDS
; Function compile flags: /Ogtp
; File c:\program files (x86)\microsoft visual studio\2017\community\vc\tools\msvc\14.10.25017\include\xmemory0
;	COMDAT ??$construct@PA_WAAPA_W@?$allocator_traits@V?$allocator@_W@std@@@std@@SAXAAV?$allocator@_W@1@PAPA_WAAPA_W@Z
_TEXT	SEGMENT
__Al$ = 8						; size = 4
__Ptr$ = 12						; size = 4
_<_Args_0>$ = 16					; size = 4
??$construct@PA_WAAPA_W@?$allocator_traits@V?$allocator@_W@std@@@std@@SAXAAV?$allocator@_W@1@PAPA_WAAPA_W@Z PROC ; std::allocator_traits<std::allocator<wchar_t> >::construct<wchar_t *,wchar_t * &>, COMDAT

; 958  : 		{	// construct _Objty(_Types...) at _Ptr

	npad	2
	push	ebp
	mov	ebp, esp

; 840  : 		::new ((void *)_Ptr) _Objty(_STD forward<_Types>(_Args)...);

	mov	ecx, DWORD PTR __Ptr$[ebp]
	test	ecx, ecx
	je	SHORT $LN8@construct
	mov	eax, DWORD PTR _<_Args_0>$[ebp]
	mov	eax, DWORD PTR [eax]
	mov	DWORD PTR [ecx], eax
$LN8@construct:

; 959  : 		_Al.construct(_Ptr, _STD forward<_Types>(_Args)...);
; 960  : 		}

	pop	ebp
	ret	0
??$construct@PA_WAAPA_W@?$allocator_traits@V?$allocator@_W@std@@@std@@SAXAAV?$allocator@_W@1@PAPA_WAAPA_W@Z ENDP ; std::allocator_traits<std::allocator<wchar_t> >::construct<wchar_t *,wchar_t * &>
_TEXT	ENDS
; Function compile flags: /Ogtp
; File c:\program files (x86)\microsoft visual studio\2017\community\vc\tools\msvc\14.10.25017\include\type_traits
;	COMDAT ??$forward@AAPA_W@std@@YAAAPA_WAAPA_W@Z
_TEXT	SEGMENT
__Arg$ = 8						; size = 4
??$forward@AAPA_W@std@@YAAAPA_WAAPA_W@Z PROC		; std::forward<wchar_t * &>, COMDAT

; 1334 : 	{	// forward an lvalue as either an lvalue or an rvalue

	npad	2
	push	ebp
	mov	ebp, esp

; 1335 : 	return (static_cast<_Ty&&>(_Arg));

	mov	eax, DWORD PTR __Arg$[ebp]

; 1336 : 	}

	pop	ebp
	ret	0
??$forward@AAPA_W@std@@YAAAPA_WAAPA_W@Z ENDP		; std::forward<wchar_t * &>
_TEXT	ENDS
; Function compile flags: /Ogtp
; File c:\program files (x86)\microsoft visual studio\2017\community\vc\tools\msvc\14.10.25017\include\xmemory0
;	COMDAT ??$destroy@PA_W@?$allocator_traits@V?$allocator@_W@std@@@std@@SAXAAV?$allocator@_W@1@PAPA_W@Z
_TEXT	SEGMENT
__Al$ = 8						; size = 4
__Ptr$ = 12						; size = 4
??$destroy@PA_W@?$allocator_traits@V?$allocator@_W@std@@@std@@SAXAAV?$allocator@_W@1@PAPA_W@Z PROC ; std::allocator_traits<std::allocator<wchar_t> >::destroy<wchar_t *>, COMDAT

; 965  : 		_Al.destroy(_Ptr);
; 966  : 		}

	ret	0
??$destroy@PA_W@?$allocator_traits@V?$allocator@_W@std@@@std@@SAXAAV?$allocator@_W@1@PAPA_W@Z ENDP ; std::allocator_traits<std::allocator<wchar_t> >::destroy<wchar_t *>
_TEXT	ENDS
; Function compile flags: /Ogtp
; File c:\program files (x86)\microsoft visual studio\2017\community\vc\tools\msvc\14.10.25017\include\xmemory0
;	COMDAT ??$construct@PA_WAAPA_W@?$_Wrap_alloc@V?$allocator@_W@std@@@std@@QAEXPAPA_WAAPA_W@Z
_TEXT	SEGMENT
__Ptr$ = 8						; size = 4
_<_Args_0>$ = 12					; size = 4
??$construct@PA_WAAPA_W@?$_Wrap_alloc@V?$allocator@_W@std@@@std@@QAEXPAPA_WAAPA_W@Z PROC ; std::_Wrap_alloc<std::allocator<wchar_t> >::construct<wchar_t *,wchar_t * &>, COMDAT
; _this$ = ecx

; 1095 : 		{	// construct _Ty(_Types...) at _Ptr

	npad	2
	push	ebp
	mov	ebp, esp

; 840  : 		::new ((void *)_Ptr) _Objty(_STD forward<_Types>(_Args)...);

	mov	ecx, DWORD PTR __Ptr$[ebp]
	test	ecx, ecx
	je	SHORT $LN13@construct
	mov	eax, DWORD PTR _<_Args_0>$[ebp]
	mov	eax, DWORD PTR [eax]
	mov	DWORD PTR [ecx], eax
$LN13@construct:

; 1096 : 		_Mytraits::construct(*this, _Ptr,
; 1097 : 			_STD forward<_Types>(_Args)...);
; 1098 : 		}

	pop	ebp
	ret	8
??$construct@PA_WAAPA_W@?$_Wrap_alloc@V?$allocator@_W@std@@@std@@QAEXPAPA_WAAPA_W@Z ENDP ; std::_Wrap_alloc<std::allocator<wchar_t> >::construct<wchar_t *,wchar_t * &>
_TEXT	ENDS
; Function compile flags: /Ogtp
; File c:\program files (x86)\microsoft visual studio\2017\community\vc\tools\msvc\14.10.25017\include\utility
;	COMDAT ??$_Min_value@I@std@@YAABIABI0@Z
_TEXT	SEGMENT
__Left$ = 8						; size = 4
__Right$ = 12						; size = 4
??$_Min_value@I@std@@YAABIABI0@Z PROC			; std::_Min_value<unsigned int>, COMDAT

; 22   : 	{	// return smaller of _Left and _Right

	npad	2
	push	ebp
	mov	ebp, esp

; 23   : 	return (_Right < _Left ? _Right : _Left);

	mov	edx, DWORD PTR __Right$[ebp]
	mov	eax, DWORD PTR __Left$[ebp]
	mov	ecx, DWORD PTR [edx]
	cmp	ecx, DWORD PTR [eax]
	cmovb	eax, edx

; 24   : 	}

	pop	ebp
	ret	0
??$_Min_value@I@std@@YAABIABI0@Z ENDP			; std::_Min_value<unsigned int>
_TEXT	ENDS
; Function compile flags: /Ogtp
; File c:\program files (x86)\microsoft visual studio\2017\community\vc\tools\msvc\14.10.25017\include\xstddef
;	COMDAT ??$addressof@$$CBV?$basic_string@_WU?$char_traits@_W@std@@V?$allocator@_W@2@@std@@@std@@YAPBV?$basic_string@_WU?$char_traits@_W@std@@V?$allocator@_W@2@@0@ABV10@@Z
_TEXT	SEGMENT
__Val$ = 8						; size = 4
??$addressof@$$CBV?$basic_string@_WU?$char_traits@_W@std@@V?$allocator@_W@2@@std@@@std@@YAPBV?$basic_string@_WU?$char_traits@_W@std@@V?$allocator@_W@2@@0@ABV10@@Z PROC ; std::addressof<std::basic_string<wchar_t,std::char_traits<wchar_t>,std::allocator<wchar_t> > const >, COMDAT

; 629  : 	{	// return address of _Val

	npad	2
	push	ebp
	mov	ebp, esp

; 630  : 	return (__builtin_addressof(_Val));

	mov	eax, DWORD PTR __Val$[ebp]

; 631  : 	}

	pop	ebp
	ret	0
??$addressof@$$CBV?$basic_string@_WU?$char_traits@_W@std@@V?$allocator@_W@2@@std@@@std@@YAPBV?$basic_string@_WU?$char_traits@_W@std@@V?$allocator@_W@2@@0@ABV10@@Z ENDP ; std::addressof<std::basic_string<wchar_t,std::char_traits<wchar_t>,std::allocator<wchar_t> > const >
_TEXT	ENDS
; Function compile flags: /Ogtp
; File c:\program files (x86)\microsoft visual studio\2017\community\vc\tools\msvc\14.10.25017\include\xstddef
;	COMDAT ??$_Unfancy@_W@std@@YAPA_WPA_W@Z
_TEXT	SEGMENT
__Ptr$ = 8						; size = 4
??$_Unfancy@_W@std@@YAPA_WPA_W@Z PROC			; std::_Unfancy<wchar_t>, COMDAT

; 642  : 	{	// do nothing for plain pointers

	npad	2
	push	ebp
	mov	ebp, esp

; 643  : 	return (_Ptr);

	mov	eax, DWORD PTR __Ptr$[ebp]

; 644  : 	}

	pop	ebp
	ret	0
??$_Unfancy@_W@std@@YAPA_WPA_W@Z ENDP			; std::_Unfancy<wchar_t>
_TEXT	ENDS
; Function compile flags: /Ogtp
; File c:\program files (x86)\microsoft visual studio\2017\community\vc\tools\msvc\14.10.25017\include\xmemory0
;	COMDAT ??$destroy@PA_W@?$_Wrap_alloc@V?$allocator@_W@std@@@std@@QAEXPAPA_W@Z
_TEXT	SEGMENT
__Ptr$ = 8						; size = 4
??$destroy@PA_W@?$_Wrap_alloc@V?$allocator@_W@std@@@std@@QAEXPAPA_W@Z PROC ; std::_Wrap_alloc<std::allocator<wchar_t> >::destroy<wchar_t *>, COMDAT
; _this$ = ecx

; 1103 : 		_Mytraits::destroy(*this, _Ptr);
; 1104 : 		}

	ret	4
??$destroy@PA_W@?$_Wrap_alloc@V?$allocator@_W@std@@@std@@QAEXPAPA_W@Z ENDP ; std::_Wrap_alloc<std::allocator<wchar_t> >::destroy<wchar_t *>
_TEXT	ENDS
; Function compile flags: /Ogtp
; File c:\program files (x86)\microsoft visual studio\2017\community\vc\tools\msvc\14.10.25017\include\xstddef
;	COMDAT ??$addressof@PA_W@std@@YAPAPA_WAAPA_W@Z
_TEXT	SEGMENT
__Val$ = 8						; size = 4
??$addressof@PA_W@std@@YAPAPA_WAAPA_W@Z PROC		; std::addressof<wchar_t *>, COMDAT

; 629  : 	{	// return address of _Val

	npad	2
	push	ebp
	mov	ebp, esp

; 630  : 	return (__builtin_addressof(_Val));

	mov	eax, DWORD PTR __Val$[ebp]

; 631  : 	}

	pop	ebp
	ret	0
??$addressof@PA_W@std@@YAPAPA_WAAPA_W@Z ENDP		; std::addressof<wchar_t *>
_TEXT	ENDS
; Function compile flags: /Ogtp
; File c:\program files (x86)\microsoft visual studio\2017\community\vc\tools\msvc\14.10.25017\include\xutility
; File c:\program files (x86)\microsoft visual studio\2017\community\vc\tools\msvc\14.10.25017\include\xstring
; File c:\program files (x86)\microsoft visual studio\2017\community\vc\tools\msvc\14.10.25017\include\xutility
; File c:\program files (x86)\microsoft visual studio\2017\community\vc\tools\msvc\14.10.25017\include\xstring
; File c:\program files (x86)\microsoft visual studio\2017\community\vc\tools\msvc\14.10.25017\include\xutility
;	COMDAT ??$?0$$V@?$_Compressed_pair@U?$_Wrap_alloc@V?$allocator@_W@std@@@std@@V?$_String_val@U?$_Simple_types@_W@std@@@2@$00@std@@QAE@U_Zero_then_variadic_args_t@1@@Z
_TEXT	SEGMENT
___formal$ = 8						; size = 1
??$?0$$V@?$_Compressed_pair@U?$_Wrap_alloc@V?$allocator@_W@std@@@std@@V?$_String_val@U?$_Simple_types@_W@std@@@2@$00@std@@QAE@U_Zero_then_variadic_args_t@1@@Z PROC ; std::_Compressed_pair<std::_Wrap_alloc<std::allocator<wchar_t> >,std::_String_val<std::_Simple_types<wchar_t> >,1>::_Compressed_pair<std::_Wrap_alloc<std::allocator<wchar_t> >,std::_String_val<std::_Simple_types<wchar_t> >,1><>, COMDAT
; _this$ = ecx
; File c:\program files (x86)\microsoft visual studio\2017\community\vc\tools\msvc\14.10.25017\include\xstring

; 1595 : 		_Mysize(0),

	mov	DWORD PTR [ecx+16], 0
; File c:\program files (x86)\microsoft visual studio\2017\community\vc\tools\msvc\14.10.25017\include\xutility

; 304  : 		}

	mov	eax, ecx
; File c:\program files (x86)\microsoft visual studio\2017\community\vc\tools\msvc\14.10.25017\include\xstring

; 1596 : 		_Myres(0)

	mov	DWORD PTR [ecx+20], 0
; File c:\program files (x86)\microsoft visual studio\2017\community\vc\tools\msvc\14.10.25017\include\xutility

; 304  : 		}

	ret	4
??$?0$$V@?$_Compressed_pair@U?$_Wrap_alloc@V?$allocator@_W@std@@@std@@V?$_String_val@U?$_Simple_types@_W@std@@@2@$00@std@@QAE@U_Zero_then_variadic_args_t@1@@Z ENDP ; std::_Compressed_pair<std::_Wrap_alloc<std::allocator<wchar_t> >,std::_String_val<std::_Simple_types<wchar_t> >,1>::_Compressed_pair<std::_Wrap_alloc<std::allocator<wchar_t> >,std::_String_val<std::_Simple_types<wchar_t> >,1><>
_TEXT	ENDS
; Function compile flags: /Ogtp
; File c:\program files (x86)\microsoft visual studio\2017\community\vc\tools\msvc\14.10.25017\include\xstring
; File c:\program files (x86)\microsoft visual studio\2017\community\vc\tools\msvc\14.10.25017\include\xmemory0
; File c:\program files (x86)\microsoft visual studio\2017\community\vc\tools\msvc\14.10.25017\include\xstring
; File c:\program files (x86)\microsoft visual studio\2017\community\vc\tools\msvc\14.10.25017\include\xmemory0
; File c:\program files (x86)\microsoft visual studio\2017\community\vc\tools\msvc\14.10.25017\include\iosfwd
; File c:\program files (x86)\microsoft visual studio\2017\community\vc\tools\msvc\14.10.25017\include\xstring
; File c:\program files (x86)\microsoft visual studio\2017\community\vc\tools\msvc\14.10.25017\include\iosfwd
; File c:\program files (x86)\microsoft visual studio\2017\community\vc\tools\msvc\14.10.25017\include\xstring
;	COMDAT ??__Flauncher_name@NVAPI@sk@@YAXXZ
text$yd	SEGMENT
??__Flauncher_name@NVAPI@sk@@YAXXZ PROC			; sk::NVAPI::`dynamic atexit destructor for 'launcher_name'', COMDAT

; 3606 : 		this->_Orphan_all();

	mov	ecx, OFFSET ?launcher_name@NVAPI@sk@@3V?$basic_string@_WU?$char_traits@_W@std@@V?$allocator@_W@2@@std@@A ; sk::NVAPI::launcher_name
	call	?_Orphan_all@?$_String_alloc@U?$_String_base_types@_WV?$allocator@_W@std@@@std@@@std@@QAEXXZ ; std::_String_alloc<std::_String_base_types<wchar_t,std::allocator<wchar_t> > >::_Orphan_all

; 1628 : 		return (this->_BUF_SIZE <= _Myres);

	cmp	DWORD PTR ?launcher_name@NVAPI@sk@@3V?$basic_string@_WU?$char_traits@_W@std@@V?$allocator@_W@2@@std@@A+20, 8

; 3608 : 		if (_My_data._Large_string_engaged())

	jb	SHORT $LN7@dynamic
	push	esi

; 3609 : 			{
; 3610 : 			pointer _Ptr = _My_data._Bx._Ptr;

	mov	esi, DWORD PTR ?launcher_name@NVAPI@sk@@3V?$basic_string@_WU?$char_traits@_W@std@@V?$allocator@_W@2@@std@@A

; 3611 : 			auto& _Al = this->_Getal();
; 3612 : 			_Al.destroy(_STD addressof(_My_data._Bx._Ptr));

	mov	ecx, OFFSET ?launcher_name@NVAPI@sk@@3V?$basic_string@_WU?$char_traits@_W@std@@V?$allocator@_W@2@@std@@A ; sk::NVAPI::launcher_name
	push	OFFSET ?launcher_name@NVAPI@sk@@3V?$basic_string@_WU?$char_traits@_W@std@@V?$allocator@_W@2@@std@@A ; sk::NVAPI::launcher_name
	call	??$destroy@PA_W@?$_Wrap_alloc@V?$allocator@_W@std@@@std@@QAEXPAPA_W@Z ; std::_Wrap_alloc<std::allocator<wchar_t> >::destroy<wchar_t *>

; 3613 : 			_Al.deallocate(_Ptr, _My_data._Myres + 1);

	mov	eax, DWORD PTR ?launcher_name@NVAPI@sk@@3V?$basic_string@_WU?$char_traits@_W@std@@V?$allocator@_W@2@@std@@A+20
; File c:\program files (x86)\microsoft visual studio\2017\community\vc\tools\msvc\14.10.25017\include\xmemory0

; 823  : 		_Deallocate(_Ptr, _Count, sizeof (_Ty));

	push	2
; File c:\program files (x86)\microsoft visual studio\2017\community\vc\tools\msvc\14.10.25017\include\xstring

; 3613 : 			_Al.deallocate(_Ptr, _My_data._Myres + 1);

	inc	eax
; File c:\program files (x86)\microsoft visual studio\2017\community\vc\tools\msvc\14.10.25017\include\xmemory0

; 823  : 		_Deallocate(_Ptr, _Count, sizeof (_Ty));

	push	eax
	push	esi
	call	?_Deallocate@std@@YAXPAXII@Z		; std::_Deallocate
	add	esp, 12					; 0000000cH
	pop	esi
$LN7@dynamic:
; File c:\program files (x86)\microsoft visual studio\2017\community\vc\tools\msvc\14.10.25017\include\iosfwd

; 326  : 		_Left = _Right;

	xor	eax, eax
; File c:\program files (x86)\microsoft visual studio\2017\community\vc\tools\msvc\14.10.25017\include\xstring

; 3616 : 		_My_data._Mysize = 0;

	mov	DWORD PTR ?launcher_name@NVAPI@sk@@3V?$basic_string@_WU?$char_traits@_W@std@@V?$allocator@_W@2@@std@@A+16, 0

; 3617 : 		_My_data._Myres = this->_BUF_SIZE - 1;

	mov	DWORD PTR ?launcher_name@NVAPI@sk@@3V?$basic_string@_WU?$char_traits@_W@std@@V?$allocator@_W@2@@std@@A+20, 7

; 2217 : 		}

	mov	ecx, OFFSET ?launcher_name@NVAPI@sk@@3V?$basic_string@_WU?$char_traits@_W@std@@V?$allocator@_W@2@@std@@A ; sk::NVAPI::launcher_name
; File c:\program files (x86)\microsoft visual studio\2017\community\vc\tools\msvc\14.10.25017\include\iosfwd

; 326  : 		_Left = _Right;

	mov	WORD PTR ?launcher_name@NVAPI@sk@@3V?$basic_string@_WU?$char_traits@_W@std@@V?$allocator@_W@2@@std@@A, ax
; File c:\program files (x86)\microsoft visual studio\2017\community\vc\tools\msvc\14.10.25017\include\xstring

; 2217 : 		}

	jmp	??1?$_String_alloc@U?$_String_base_types@_WV?$allocator@_W@std@@@std@@@std@@QAE@XZ
??__Flauncher_name@NVAPI@sk@@YAXXZ ENDP			; sk::NVAPI::`dynamic atexit destructor for 'launcher_name''
text$yd	ENDS
; Function compile flags: /Ogtp
; File c:\users\andon\source\repos\specialk\src\nvapi.cpp
; File c:\program files (x86)\microsoft visual studio\2017\community\vc\tools\msvc\14.10.25017\include\xutility
; File c:\program files (x86)\microsoft visual studio\2017\community\vc\tools\msvc\14.10.25017\include\iosfwd
; File c:\program files (x86)\microsoft visual studio\2017\community\vc\tools\msvc\14.10.25017\include\xstring
; File c:\program files (x86)\microsoft visual studio\2017\community\vc\tools\msvc\14.10.25017\include\iosfwd
; File c:\program files (x86)\microsoft visual studio\2017\community\vc\tools\msvc\14.10.25017\include\xstring
; File c:\users\andon\source\repos\specialk\src\nvapi.cpp
;	COMDAT ??__Elauncher_name@NVAPI@sk@@YAXXZ
text$di	SEGMENT
??__Elauncher_name@NVAPI@sk@@YAXXZ PROC			; sk::NVAPI::`dynamic initializer for 'launcher_name'', COMDAT
; File c:\program files (x86)\microsoft visual studio\2017\community\vc\tools\msvc\14.10.25017\include\xutility

; 302  : 		: _Ty1(), _Myval2(_STD forward<_Other2>(_Val2)...)

	mov	ecx, OFFSET ?launcher_name@NVAPI@sk@@3V?$basic_string@_WU?$char_traits@_W@std@@V?$allocator@_W@2@@std@@A ; sk::NVAPI::launcher_name
	call	??0?$_Wrap_alloc@V?$allocator@_W@std@@@std@@QAE@XZ ; std::_Wrap_alloc<std::allocator<wchar_t> >::_Wrap_alloc<std::allocator<wchar_t> >
; File c:\program files (x86)\microsoft visual studio\2017\community\vc\tools\msvc\14.10.25017\include\iosfwd

; 326  : 		_Left = _Right;

	xor	eax, eax
; File c:\program files (x86)\microsoft visual studio\2017\community\vc\tools\msvc\14.10.25017\include\xstring

; 3597 : 		_My_data._Mysize = 0;

	mov	DWORD PTR ?launcher_name@NVAPI@sk@@3V?$basic_string@_WU?$char_traits@_W@std@@V?$allocator@_W@2@@std@@A+16, 0

; 2429 : 		return (assign(_Ptr, _Traits::length(_Ptr)));

	push	eax
	push	OFFSET $SG166488
	mov	ecx, OFFSET ?launcher_name@NVAPI@sk@@3V?$basic_string@_WU?$char_traits@_W@std@@V?$allocator@_W@2@@std@@A ; sk::NVAPI::launcher_name

; 3598 : 		_My_data._Myres = this->_BUF_SIZE - 1;

	mov	DWORD PTR ?launcher_name@NVAPI@sk@@3V?$basic_string@_WU?$char_traits@_W@std@@V?$allocator@_W@2@@std@@A+20, 7
; File c:\program files (x86)\microsoft visual studio\2017\community\vc\tools\msvc\14.10.25017\include\iosfwd

; 326  : 		_Left = _Right;

	mov	WORD PTR ?launcher_name@NVAPI@sk@@3V?$basic_string@_WU?$char_traits@_W@std@@V?$allocator@_W@2@@std@@A, ax
; File c:\program files (x86)\microsoft visual studio\2017\community\vc\tools\msvc\14.10.25017\include\xstring

; 2429 : 		return (assign(_Ptr, _Traits::length(_Ptr)));

	call	?assign@?$basic_string@_WU?$char_traits@_W@std@@V?$allocator@_W@2@@std@@QAEAAV12@QB_WI@Z ; std::basic_string<wchar_t,std::char_traits<wchar_t>,std::allocator<wchar_t> >::assign
; File c:\users\andon\source\repos\specialk\src\nvapi.cpp

; 1418 : std::wstring NVAPI::launcher_name = L"";

	push	OFFSET ??__Flauncher_name@NVAPI@sk@@YAXXZ ; sk::NVAPI::`dynamic atexit destructor for 'launcher_name''
	call	_atexit
	pop	ecx
	ret	0
??__Elauncher_name@NVAPI@sk@@YAXXZ ENDP			; sk::NVAPI::`dynamic initializer for 'launcher_name''
text$di	ENDS
; Function compile flags: /Ogtp
; File c:\program files (x86)\microsoft visual studio\2017\community\vc\tools\msvc\14.10.25017\include\xstring
; File c:\program files (x86)\microsoft visual studio\2017\community\vc\tools\msvc\14.10.25017\include\xmemory0
; File c:\program files (x86)\microsoft visual studio\2017\community\vc\tools\msvc\14.10.25017\include\xstring
; File c:\program files (x86)\microsoft visual studio\2017\community\vc\tools\msvc\14.10.25017\include\xmemory0
; File c:\program files (x86)\microsoft visual studio\2017\community\vc\tools\msvc\14.10.25017\include\iosfwd
; File c:\program files (x86)\microsoft visual studio\2017\community\vc\tools\msvc\14.10.25017\include\xstring
; File c:\program files (x86)\microsoft visual studio\2017\community\vc\tools\msvc\14.10.25017\include\iosfwd
; File c:\program files (x86)\microsoft visual studio\2017\community\vc\tools\msvc\14.10.25017\include\xstring
;	COMDAT ??__Fapp_name@NVAPI@sk@@YAXXZ
text$yd	SEGMENT
??__Fapp_name@NVAPI@sk@@YAXXZ PROC			; sk::NVAPI::`dynamic atexit destructor for 'app_name'', COMDAT

; 3606 : 		this->_Orphan_all();

	mov	ecx, OFFSET ?app_name@NVAPI@sk@@3V?$basic_string@_WU?$char_traits@_W@std@@V?$allocator@_W@2@@std@@A ; sk::NVAPI::app_name
	call	?_Orphan_all@?$_String_alloc@U?$_String_base_types@_WV?$allocator@_W@std@@@std@@@std@@QAEXXZ ; std::_String_alloc<std::_String_base_types<wchar_t,std::allocator<wchar_t> > >::_Orphan_all

; 1628 : 		return (this->_BUF_SIZE <= _Myres);

	cmp	DWORD PTR ?app_name@NVAPI@sk@@3V?$basic_string@_WU?$char_traits@_W@std@@V?$allocator@_W@2@@std@@A+20, 8

; 3608 : 		if (_My_data._Large_string_engaged())

	jb	SHORT $LN7@dynamic
	push	esi

; 3609 : 			{
; 3610 : 			pointer _Ptr = _My_data._Bx._Ptr;

	mov	esi, DWORD PTR ?app_name@NVAPI@sk@@3V?$basic_string@_WU?$char_traits@_W@std@@V?$allocator@_W@2@@std@@A

; 3611 : 			auto& _Al = this->_Getal();
; 3612 : 			_Al.destroy(_STD addressof(_My_data._Bx._Ptr));

	mov	ecx, OFFSET ?app_name@NVAPI@sk@@3V?$basic_string@_WU?$char_traits@_W@std@@V?$allocator@_W@2@@std@@A ; sk::NVAPI::app_name
	push	OFFSET ?app_name@NVAPI@sk@@3V?$basic_string@_WU?$char_traits@_W@std@@V?$allocator@_W@2@@std@@A ; sk::NVAPI::app_name
	call	??$destroy@PA_W@?$_Wrap_alloc@V?$allocator@_W@std@@@std@@QAEXPAPA_W@Z ; std::_Wrap_alloc<std::allocator<wchar_t> >::destroy<wchar_t *>

; 3613 : 			_Al.deallocate(_Ptr, _My_data._Myres + 1);

	mov	eax, DWORD PTR ?app_name@NVAPI@sk@@3V?$basic_string@_WU?$char_traits@_W@std@@V?$allocator@_W@2@@std@@A+20
; File c:\program files (x86)\microsoft visual studio\2017\community\vc\tools\msvc\14.10.25017\include\xmemory0

; 823  : 		_Deallocate(_Ptr, _Count, sizeof (_Ty));

	push	2
; File c:\program files (x86)\microsoft visual studio\2017\community\vc\tools\msvc\14.10.25017\include\xstring

; 3613 : 			_Al.deallocate(_Ptr, _My_data._Myres + 1);

	inc	eax
; File c:\program files (x86)\microsoft visual studio\2017\community\vc\tools\msvc\14.10.25017\include\xmemory0

; 823  : 		_Deallocate(_Ptr, _Count, sizeof (_Ty));

	push	eax
	push	esi
	call	?_Deallocate@std@@YAXPAXII@Z		; std::_Deallocate
	add	esp, 12					; 0000000cH
	pop	esi
$LN7@dynamic:
; File c:\program files (x86)\microsoft visual studio\2017\community\vc\tools\msvc\14.10.25017\include\iosfwd

; 326  : 		_Left = _Right;

	xor	eax, eax
; File c:\program files (x86)\microsoft visual studio\2017\community\vc\tools\msvc\14.10.25017\include\xstring

; 3616 : 		_My_data._Mysize = 0;

	mov	DWORD PTR ?app_name@NVAPI@sk@@3V?$basic_string@_WU?$char_traits@_W@std@@V?$allocator@_W@2@@std@@A+16, 0

; 3617 : 		_My_data._Myres = this->_BUF_SIZE - 1;

	mov	DWORD PTR ?app_name@NVAPI@sk@@3V?$basic_string@_WU?$char_traits@_W@std@@V?$allocator@_W@2@@std@@A+20, 7

; 2217 : 		}

	mov	ecx, OFFSET ?app_name@NVAPI@sk@@3V?$basic_string@_WU?$char_traits@_W@std@@V?$allocator@_W@2@@std@@A ; sk::NVAPI::app_name
; File c:\program files (x86)\microsoft visual studio\2017\community\vc\tools\msvc\14.10.25017\include\iosfwd

; 326  : 		_Left = _Right;

	mov	WORD PTR ?app_name@NVAPI@sk@@3V?$basic_string@_WU?$char_traits@_W@std@@V?$allocator@_W@2@@std@@A, ax
; File c:\program files (x86)\microsoft visual studio\2017\community\vc\tools\msvc\14.10.25017\include\xstring

; 2217 : 		}

	jmp	??1?$_String_alloc@U?$_String_base_types@_WV?$allocator@_W@std@@@std@@@std@@QAE@XZ
??__Fapp_name@NVAPI@sk@@YAXXZ ENDP			; sk::NVAPI::`dynamic atexit destructor for 'app_name''
text$yd	ENDS
; Function compile flags: /Ogtp
; File c:\users\andon\source\repos\specialk\src\nvapi.cpp
; File c:\program files (x86)\microsoft visual studio\2017\community\vc\tools\msvc\14.10.25017\include\xutility
; File c:\program files (x86)\microsoft visual studio\2017\community\vc\tools\msvc\14.10.25017\include\xstring
; File c:\program files (x86)\microsoft visual studio\2017\community\vc\tools\msvc\14.10.25017\include\iosfwd
; File c:\program files (x86)\microsoft visual studio\2017\community\vc\tools\msvc\14.10.25017\include\xstring
; File c:\program files (x86)\microsoft visual studio\2017\community\vc\tools\msvc\14.10.25017\include\iosfwd
; File c:\program files (x86)\microsoft visual studio\2017\community\vc\tools\msvc\14.10.25017\include\xstring
; File c:\users\andon\source\repos\specialk\src\nvapi.cpp
;	COMDAT ??__Eapp_name@NVAPI@sk@@YAXXZ
text$di	SEGMENT
??__Eapp_name@NVAPI@sk@@YAXXZ PROC			; sk::NVAPI::`dynamic initializer for 'app_name'', COMDAT
; File c:\program files (x86)\microsoft visual studio\2017\community\vc\tools\msvc\14.10.25017\include\xutility

; 302  : 		: _Ty1(), _Myval2(_STD forward<_Other2>(_Val2)...)

	mov	ecx, OFFSET ?app_name@NVAPI@sk@@3V?$basic_string@_WU?$char_traits@_W@std@@V?$allocator@_W@2@@std@@A ; sk::NVAPI::app_name
	call	??0?$_Wrap_alloc@V?$allocator@_W@std@@@std@@QAE@XZ ; std::_Wrap_alloc<std::allocator<wchar_t> >::_Wrap_alloc<std::allocator<wchar_t> >
; File c:\program files (x86)\microsoft visual studio\2017\community\vc\tools\msvc\14.10.25017\include\xstring

; 2429 : 		return (assign(_Ptr, _Traits::length(_Ptr)));

	push	21					; 00000015H
; File c:\program files (x86)\microsoft visual studio\2017\community\vc\tools\msvc\14.10.25017\include\iosfwd

; 326  : 		_Left = _Right;

	xor	eax, eax
; File c:\program files (x86)\microsoft visual studio\2017\community\vc\tools\msvc\14.10.25017\include\xstring

; 3597 : 		_My_data._Mysize = 0;

	mov	DWORD PTR ?app_name@NVAPI@sk@@3V?$basic_string@_WU?$char_traits@_W@std@@V?$allocator@_W@2@@std@@A+16, 0

; 2429 : 		return (assign(_Ptr, _Traits::length(_Ptr)));

	push	OFFSET $SG166482
	mov	ecx, OFFSET ?app_name@NVAPI@sk@@3V?$basic_string@_WU?$char_traits@_W@std@@V?$allocator@_W@2@@std@@A ; sk::NVAPI::app_name

; 3598 : 		_My_data._Myres = this->_BUF_SIZE - 1;

	mov	DWORD PTR ?app_name@NVAPI@sk@@3V?$basic_string@_WU?$char_traits@_W@std@@V?$allocator@_W@2@@std@@A+20, 7
; File c:\program files (x86)\microsoft visual studio\2017\community\vc\tools\msvc\14.10.25017\include\iosfwd

; 326  : 		_Left = _Right;

	mov	WORD PTR ?app_name@NVAPI@sk@@3V?$basic_string@_WU?$char_traits@_W@std@@V?$allocator@_W@2@@std@@A, ax
; File c:\program files (x86)\microsoft visual studio\2017\community\vc\tools\msvc\14.10.25017\include\xstring

; 2429 : 		return (assign(_Ptr, _Traits::length(_Ptr)));

	call	?assign@?$basic_string@_WU?$char_traits@_W@std@@V?$allocator@_W@2@@std@@QAEAAV12@QB_WI@Z ; std::basic_string<wchar_t,std::char_traits<wchar_t>,std::allocator<wchar_t> >::assign
; File c:\users\andon\source\repos\specialk\src\nvapi.cpp

; 1417 : std::wstring NVAPI::app_name      = L"Tales Of Zestiria.exe";

	push	OFFSET ??__Fapp_name@NVAPI@sk@@YAXXZ	; sk::NVAPI::`dynamic atexit destructor for 'app_name''
	call	_atexit
	pop	ecx
	ret	0
??__Eapp_name@NVAPI@sk@@YAXXZ ENDP			; sk::NVAPI::`dynamic initializer for 'app_name''
text$di	ENDS
; Function compile flags: /Ogtp
; File c:\program files (x86)\microsoft visual studio\2017\community\vc\tools\msvc\14.10.25017\include\xstring
; File c:\program files (x86)\microsoft visual studio\2017\community\vc\tools\msvc\14.10.25017\include\xmemory0
; File c:\program files (x86)\microsoft visual studio\2017\community\vc\tools\msvc\14.10.25017\include\xstring
; File c:\program files (x86)\microsoft visual studio\2017\community\vc\tools\msvc\14.10.25017\include\xmemory0
; File c:\program files (x86)\microsoft visual studio\2017\community\vc\tools\msvc\14.10.25017\include\iosfwd
; File c:\program files (x86)\microsoft visual studio\2017\community\vc\tools\msvc\14.10.25017\include\xstring
; File c:\program files (x86)\microsoft visual studio\2017\community\vc\tools\msvc\14.10.25017\include\iosfwd
; File c:\program files (x86)\microsoft visual studio\2017\community\vc\tools\msvc\14.10.25017\include\xstring
;	COMDAT ??__Ffriendly_name@NVAPI@sk@@YAXXZ
text$yd	SEGMENT
??__Ffriendly_name@NVAPI@sk@@YAXXZ PROC			; sk::NVAPI::`dynamic atexit destructor for 'friendly_name'', COMDAT

; 3606 : 		this->_Orphan_all();

	mov	ecx, OFFSET ?friendly_name@NVAPI@sk@@3V?$basic_string@_WU?$char_traits@_W@std@@V?$allocator@_W@2@@std@@A ; sk::NVAPI::friendly_name
	call	?_Orphan_all@?$_String_alloc@U?$_String_base_types@_WV?$allocator@_W@std@@@std@@@std@@QAEXXZ ; std::_String_alloc<std::_String_base_types<wchar_t,std::allocator<wchar_t> > >::_Orphan_all

; 1628 : 		return (this->_BUF_SIZE <= _Myres);

	cmp	DWORD PTR ?friendly_name@NVAPI@sk@@3V?$basic_string@_WU?$char_traits@_W@std@@V?$allocator@_W@2@@std@@A+20, 8

; 3608 : 		if (_My_data._Large_string_engaged())

	jb	SHORT $LN7@dynamic
	push	esi

; 3609 : 			{
; 3610 : 			pointer _Ptr = _My_data._Bx._Ptr;

	mov	esi, DWORD PTR ?friendly_name@NVAPI@sk@@3V?$basic_string@_WU?$char_traits@_W@std@@V?$allocator@_W@2@@std@@A

; 3611 : 			auto& _Al = this->_Getal();
; 3612 : 			_Al.destroy(_STD addressof(_My_data._Bx._Ptr));

	mov	ecx, OFFSET ?friendly_name@NVAPI@sk@@3V?$basic_string@_WU?$char_traits@_W@std@@V?$allocator@_W@2@@std@@A ; sk::NVAPI::friendly_name
	push	OFFSET ?friendly_name@NVAPI@sk@@3V?$basic_string@_WU?$char_traits@_W@std@@V?$allocator@_W@2@@std@@A ; sk::NVAPI::friendly_name
	call	??$destroy@PA_W@?$_Wrap_alloc@V?$allocator@_W@std@@@std@@QAEXPAPA_W@Z ; std::_Wrap_alloc<std::allocator<wchar_t> >::destroy<wchar_t *>

; 3613 : 			_Al.deallocate(_Ptr, _My_data._Myres + 1);

	mov	eax, DWORD PTR ?friendly_name@NVAPI@sk@@3V?$basic_string@_WU?$char_traits@_W@std@@V?$allocator@_W@2@@std@@A+20
; File c:\program files (x86)\microsoft visual studio\2017\community\vc\tools\msvc\14.10.25017\include\xmemory0

; 823  : 		_Deallocate(_Ptr, _Count, sizeof (_Ty));

	push	2
; File c:\program files (x86)\microsoft visual studio\2017\community\vc\tools\msvc\14.10.25017\include\xstring

; 3613 : 			_Al.deallocate(_Ptr, _My_data._Myres + 1);

	inc	eax
; File c:\program files (x86)\microsoft visual studio\2017\community\vc\tools\msvc\14.10.25017\include\xmemory0

; 823  : 		_Deallocate(_Ptr, _Count, sizeof (_Ty));

	push	eax
	push	esi
	call	?_Deallocate@std@@YAXPAXII@Z		; std::_Deallocate
	add	esp, 12					; 0000000cH
	pop	esi
$LN7@dynamic:
; File c:\program files (x86)\microsoft visual studio\2017\community\vc\tools\msvc\14.10.25017\include\iosfwd

; 326  : 		_Left = _Right;

	xor	eax, eax
; File c:\program files (x86)\microsoft visual studio\2017\community\vc\tools\msvc\14.10.25017\include\xstring

; 3616 : 		_My_data._Mysize = 0;

	mov	DWORD PTR ?friendly_name@NVAPI@sk@@3V?$basic_string@_WU?$char_traits@_W@std@@V?$allocator@_W@2@@std@@A+16, 0

; 3617 : 		_My_data._Myres = this->_BUF_SIZE - 1;

	mov	DWORD PTR ?friendly_name@NVAPI@sk@@3V?$basic_string@_WU?$char_traits@_W@std@@V?$allocator@_W@2@@std@@A+20, 7

; 2217 : 		}

	mov	ecx, OFFSET ?friendly_name@NVAPI@sk@@3V?$basic_string@_WU?$char_traits@_W@std@@V?$allocator@_W@2@@std@@A ; sk::NVAPI::friendly_name
; File c:\program files (x86)\microsoft visual studio\2017\community\vc\tools\msvc\14.10.25017\include\iosfwd

; 326  : 		_Left = _Right;

	mov	WORD PTR ?friendly_name@NVAPI@sk@@3V?$basic_string@_WU?$char_traits@_W@std@@V?$allocator@_W@2@@std@@A, ax
; File c:\program files (x86)\microsoft visual studio\2017\community\vc\tools\msvc\14.10.25017\include\xstring

; 2217 : 		}

	jmp	??1?$_String_alloc@U?$_String_base_types@_WV?$allocator@_W@std@@@std@@@std@@QAE@XZ
??__Ffriendly_name@NVAPI@sk@@YAXXZ ENDP			; sk::NVAPI::`dynamic atexit destructor for 'friendly_name''
text$yd	ENDS
; Function compile flags: /Ogtp
; File c:\users\andon\source\repos\specialk\src\nvapi.cpp
; File c:\program files (x86)\microsoft visual studio\2017\community\vc\tools\msvc\14.10.25017\include\xutility
; File c:\program files (x86)\microsoft visual studio\2017\community\vc\tools\msvc\14.10.25017\include\xstring
; File c:\program files (x86)\microsoft visual studio\2017\community\vc\tools\msvc\14.10.25017\include\iosfwd
; File c:\program files (x86)\microsoft visual studio\2017\community\vc\tools\msvc\14.10.25017\include\xstring
; File c:\program files (x86)\microsoft visual studio\2017\community\vc\tools\msvc\14.10.25017\include\iosfwd
; File c:\program files (x86)\microsoft visual studio\2017\community\vc\tools\msvc\14.10.25017\include\xstring
; File c:\users\andon\source\repos\specialk\src\nvapi.cpp
;	COMDAT ??__Efriendly_name@NVAPI@sk@@YAXXZ
text$di	SEGMENT
??__Efriendly_name@NVAPI@sk@@YAXXZ PROC			; sk::NVAPI::`dynamic initializer for 'friendly_name'', COMDAT
; File c:\program files (x86)\microsoft visual studio\2017\community\vc\tools\msvc\14.10.25017\include\xutility

; 302  : 		: _Ty1(), _Myval2(_STD forward<_Other2>(_Val2)...)

	mov	ecx, OFFSET ?friendly_name@NVAPI@sk@@3V?$basic_string@_WU?$char_traits@_W@std@@V?$allocator@_W@2@@std@@A ; sk::NVAPI::friendly_name
	call	??0?$_Wrap_alloc@V?$allocator@_W@std@@@std@@QAE@XZ ; std::_Wrap_alloc<std::allocator<wchar_t> >::_Wrap_alloc<std::allocator<wchar_t> >
; File c:\program files (x86)\microsoft visual studio\2017\community\vc\tools\msvc\14.10.25017\include\xstring

; 2429 : 		return (assign(_Ptr, _Traits::length(_Ptr)));

	push	17					; 00000011H
; File c:\program files (x86)\microsoft visual studio\2017\community\vc\tools\msvc\14.10.25017\include\iosfwd

; 326  : 		_Left = _Right;

	xor	eax, eax
; File c:\program files (x86)\microsoft visual studio\2017\community\vc\tools\msvc\14.10.25017\include\xstring

; 3597 : 		_My_data._Mysize = 0;

	mov	DWORD PTR ?friendly_name@NVAPI@sk@@3V?$basic_string@_WU?$char_traits@_W@std@@V?$allocator@_W@2@@std@@A+16, 0

; 2429 : 		return (assign(_Ptr, _Traits::length(_Ptr)));

	push	OFFSET $SG166452
	mov	ecx, OFFSET ?friendly_name@NVAPI@sk@@3V?$basic_string@_WU?$char_traits@_W@std@@V?$allocator@_W@2@@std@@A ; sk::NVAPI::friendly_name

; 3598 : 		_My_data._Myres = this->_BUF_SIZE - 1;

	mov	DWORD PTR ?friendly_name@NVAPI@sk@@3V?$basic_string@_WU?$char_traits@_W@std@@V?$allocator@_W@2@@std@@A+20, 7
; File c:\program files (x86)\microsoft visual studio\2017\community\vc\tools\msvc\14.10.25017\include\iosfwd

; 326  : 		_Left = _Right;

	mov	WORD PTR ?friendly_name@NVAPI@sk@@3V?$basic_string@_WU?$char_traits@_W@std@@V?$allocator@_W@2@@std@@A, ax
; File c:\program files (x86)\microsoft visual studio\2017\community\vc\tools\msvc\14.10.25017\include\xstring

; 2429 : 		return (assign(_Ptr, _Traits::length(_Ptr)));

	call	?assign@?$basic_string@_WU?$char_traits@_W@std@@V?$allocator@_W@2@@std@@QAEAAV12@QB_WI@Z ; std::basic_string<wchar_t,std::char_traits<wchar_t>,std::allocator<wchar_t> >::assign
; File c:\users\andon\source\repos\specialk\src\nvapi.cpp

; 1416 : std::wstring NVAPI::friendly_name = L"Tales of Zestiria";

	push	OFFSET ??__Ffriendly_name@NVAPI@sk@@YAXXZ ; sk::NVAPI::`dynamic atexit destructor for 'friendly_name''
	call	_atexit
	pop	ecx
	ret	0
??__Efriendly_name@NVAPI@sk@@YAXXZ ENDP			; sk::NVAPI::`dynamic initializer for 'friendly_name''
text$di	ENDS
; Function compile flags: /Ogtp
; File c:\users\andon\source\repos\specialk\src\nvapi.cpp
; File c:\program files (x86)\microsoft visual studio\2017\community\vc\tools\msvc\14.10.25017\include\xstring
; File c:\program files (x86)\microsoft visual studio\2017\community\vc\tools\msvc\14.10.25017\include\xstddef
; File c:\users\andon\source\repos\specialk\src\nvapi.cpp
; File c:\program files (x86)\microsoft visual studio\2017\community\vc\tools\msvc\14.10.25017\include\xstring
; File c:\program files (x86)\microsoft visual studio\2017\community\vc\tools\msvc\14.10.25017\include\xmemory0
; File c:\program files (x86)\microsoft visual studio\2017\community\vc\tools\msvc\14.10.25017\include\xstring
; File c:\program files (x86)\microsoft visual studio\2017\community\vc\tools\msvc\14.10.25017\include\xmemory0
; File c:\users\andon\source\repos\specialk\src\nvapi.cpp
; File c:\program files (x86)\microsoft visual studio\2017\community\vc\tools\msvc\14.10.25017\include\xstring
; File c:\program files (x86)\microsoft visual studio\2017\community\vc\tools\msvc\14.10.25017\include\xstddef
; File c:\users\andon\source\repos\specialk\src\nvapi.cpp
; File c:\program files (x86)\microsoft visual studio\2017\community\vc\tools\msvc\14.10.25017\include\xstring
; File c:\program files (x86)\microsoft visual studio\2017\community\vc\tools\msvc\14.10.25017\include\xmemory0
; File c:\program files (x86)\microsoft visual studio\2017\community\vc\tools\msvc\14.10.25017\include\xstring
; File c:\program files (x86)\microsoft visual studio\2017\community\vc\tools\msvc\14.10.25017\include\xmemory0
; File c:\program files (x86)\microsoft visual studio\2017\community\vc\tools\msvc\14.10.25017\include\xstring
; File c:\users\andon\source\repos\specialk\src\nvapi.cpp
; File c:\program files (x86)\microsoft visual studio\2017\community\vc\tools\msvc\14.10.25017\include\xstring
; File c:\users\andon\source\repos\specialk\src\nvapi.cpp
; File c:\program files (x86)\microsoft visual studio\2017\community\vc\tools\msvc\14.10.25017\include\xstring
; File c:\users\andon\source\repos\specialk\src\nvapi.cpp
; File c:\program files (x86)\microsoft visual studio\2017\community\vc\tools\msvc\14.10.25017\include\xstring
; File c:\program files (x86)\microsoft visual studio\2017\community\vc\tools\msvc\14.10.25017\include\xstddef
; File c:\users\andon\source\repos\specialk\src\nvapi.cpp
; File c:\program files (x86)\microsoft visual studio\2017\community\vc\tools\msvc\14.10.25017\include\xstring
; File c:\program files (x86)\microsoft visual studio\2017\community\vc\tools\msvc\14.10.25017\include\xmemory0
; File c:\program files (x86)\microsoft visual studio\2017\community\vc\tools\msvc\14.10.25017\include\xstring
; File c:\program files (x86)\microsoft visual studio\2017\community\vc\tools\msvc\14.10.25017\include\xmemory0
; File c:\users\andon\source\repos\specialk\src\nvapi.cpp
; File c:\program files (x86)\microsoft visual studio\2017\community\vc\tools\msvc\14.10.25017\include\xstring
; File c:\users\andon\source\repos\specialk\src\nvapi.cpp
; File c:\program files (x86)\microsoft visual studio\2017\community\vc\tools\msvc\14.10.25017\include\xstring
; File c:\program files (x86)\microsoft visual studio\2017\community\vc\tools\msvc\14.10.25017\include\xstddef
; File c:\users\andon\source\repos\specialk\src\nvapi.cpp
; File c:\program files (x86)\microsoft visual studio\2017\community\vc\tools\msvc\14.10.25017\include\xstring
; File c:\users\andon\source\repos\specialk\src\nvapi.cpp
; File c:\program files (x86)\microsoft visual studio\2017\community\vc\tools\msvc\14.10.25017\include\xstring
; File c:\users\andon\source\repos\specialk\src\nvapi.cpp
; File c:\program files (x86)\microsoft visual studio\2017\community\vc\tools\msvc\14.10.25017\include\xstring
; File c:\program files (x86)\microsoft visual studio\2017\community\vc\tools\msvc\14.10.25017\include\xstddef
; File c:\users\andon\source\repos\specialk\src\nvapi.cpp
; File c:\program files (x86)\microsoft visual studio\2017\community\vc\tools\msvc\14.10.25017\include\xstring
; File c:\users\andon\source\repos\specialk\src\nvapi.cpp
; File c:\program files (x86)\microsoft visual studio\2017\community\vc\tools\msvc\14.10.25017\include\xstring
; File c:\users\andon\source\repos\specialk\src\nvapi.cpp
; File c:\program files (x86)\microsoft visual studio\2017\community\vc\tools\msvc\14.10.25017\include\xstring
; File c:\users\andon\source\repos\specialk\src\nvapi.cpp
; File c:\program files (x86)\microsoft visual studio\2017\community\vc\tools\msvc\14.10.25017\include\xstring
; File c:\program files (x86)\microsoft visual studio\2017\community\vc\tools\msvc\14.10.25017\include\xstddef
; File c:\users\andon\source\repos\specialk\src\nvapi.cpp
; File c:\program files (x86)\microsoft visual studio\2017\community\vc\tools\msvc\14.10.25017\include\xstring
; File c:\program files (x86)\microsoft visual studio\2017\community\vc\tools\msvc\14.10.25017\include\xstddef
; File c:\users\andon\source\repos\specialk\src\nvapi.cpp
; File c:\program files (x86)\microsoft visual studio\2017\community\vc\tools\msvc\14.10.25017\include\xstring
; File c:\users\andon\source\repos\specialk\src\nvapi.cpp
; File c:\program files (x86)\microsoft visual studio\2017\community\vc\tools\msvc\14.10.25017\include\xstring
; File c:\users\andon\source\repos\specialk\src\nvapi.cpp
; File c:\program files (x86)\microsoft visual studio\2017\community\vc\tools\msvc\14.10.25017\include\xstring
; File c:\program files (x86)\microsoft visual studio\2017\community\vc\tools\msvc\14.10.25017\include\xstddef
; File c:\users\andon\source\repos\specialk\src\nvapi.cpp
; File c:\program files (x86)\microsoft visual studio\2017\community\vc\tools\msvc\14.10.25017\include\xstring
; File c:\program files (x86)\microsoft visual studio\2017\community\vc\tools\msvc\14.10.25017\include\xstddef
; File c:\users\andon\source\repos\specialk\src\nvapi.cpp
; File c:\program files (x86)\microsoft visual studio\2017\community\vc\tools\msvc\14.10.25017\include\xstring
; File c:\program files (x86)\microsoft visual studio\2017\community\vc\tools\msvc\14.10.25017\include\xstddef
; File c:\users\andon\source\repos\specialk\src\nvapi.cpp
; File c:\program files (x86)\microsoft visual studio\2017\community\vc\tools\msvc\14.10.25017\include\xstring
; File c:\program files (x86)\microsoft visual studio\2017\community\vc\tools\msvc\14.10.25017\include\xmemory0
; File c:\program files (x86)\microsoft visual studio\2017\community\vc\tools\msvc\14.10.25017\include\xstring
; File c:\program files (x86)\microsoft visual studio\2017\community\vc\tools\msvc\14.10.25017\include\xmemory0
; File c:\users\andon\source\repos\specialk\src\nvapi.cpp
; File c:\program files (x86)\microsoft visual studio\2017\community\vc\tools\msvc\14.10.25017\include\xstring
; File c:\program files (x86)\microsoft visual studio\2017\community\vc\tools\msvc\14.10.25017\include\xstddef
; File c:\users\andon\source\repos\specialk\src\nvapi.cpp
; File c:\program files (x86)\microsoft visual studio\2017\community\vc\tools\msvc\14.10.25017\include\xstring
; File c:\program files (x86)\microsoft visual studio\2017\community\vc\tools\msvc\14.10.25017\include\xmemory0
; File c:\program files (x86)\microsoft visual studio\2017\community\vc\tools\msvc\14.10.25017\include\xstring
; File c:\program files (x86)\microsoft visual studio\2017\community\vc\tools\msvc\14.10.25017\include\xmemory0
; File c:\users\andon\source\repos\specialk\src\nvapi.cpp
_TEXT	SEGMENT
$T1 = -24640						; size = 20492
$T2 = -24640						; size = 20492
_custom_profile$3 = -4148				; size = 4116
$T4 = -32						; size = 24
$T5 = -32						; size = 24
$T6 = -32						; size = 24
$T7 = -32						; size = 24
$T8 = -32						; size = 24
$T9 = -32						; size = 24
$T10 = -32						; size = 24
$T11 = -32						; size = 24
$T12 = -32						; size = 24
$T13 = -32						; size = 24
$T14 = -32						; size = 24
_hProfile$ = -8						; size = 4
_hSession$ = -4						; size = 4
?SK_NvAPI_AddLauncherToProf@@YGHXZ PROC			; SK_NvAPI_AddLauncherToProf

; 1310 : {

	npad	2
	push	ebp
	mov	ebp, esp
	mov	eax, 24640				; 00006040H
	call	__chkstk

; 1311 :   if (! nv_hardware)

	cmp	BYTE PTR ?nv_hardware@NVAPI@sk@@3_NA, 0	; sk::NVAPI::nv_hardware
	jne	SHORT $LN2@SK_NvAPI_A

; 1312 :     return FALSE;

	xor	eax, eax

; 1413 : }

	mov	esp, ebp
	pop	ebp
	ret	0
$LN2@SK_NvAPI_A:

; 1317 :   NVAPI_CALL (DRS_CreateSession (&hSession));

	lea	eax, DWORD PTR _hSession$[ebp]
	mov	DWORD PTR _hSession$[ebp], 0
	push	edi
	push	eax
	call	_NvAPI_DRS_CreateSession
	mov	edi, DWORD PTR __imp__MessageBoxW@16
	add	esp, 4
	cmp	BYTE PTR ?nvapi_silent@@3_NA, 1
	je	SHORT $LN53@SK_NvAPI_A
	test	eax, eax
	je	SHORT $LN53@SK_NvAPI_A
	push	OFFSET $SG166391
	push	OFFSET $SG166392
	push	1317					; 00000525H
	push	OFFSET $SG166393
	push	eax
	lea	eax, DWORD PTR $T14[ebp]
	push	eax
	call	?ErrorMessage@NVAPI@sk@@YA?AV?$basic_string@_WU?$char_traits@_W@std@@V?$allocator@_W@2@@std@@W4_NvAPI_Status@@PBDI11@Z ; sk::NVAPI::ErrorMessage
	add	esp, 24					; 00000018H
; File c:\program files (x86)\microsoft visual studio\2017\community\vc\tools\msvc\14.10.25017\include\xstring

; 1628 : 		return (this->_BUF_SIZE <= _Myres);

	cmp	DWORD PTR [eax+20], 8

; 1621 : 		return (_Large_string_engaged()

	jb	SHORT $LN43@SK_NvAPI_A
; File c:\program files (x86)\microsoft visual studio\2017\community\vc\tools\msvc\14.10.25017\include\xstddef

; 643  : 	return (_Ptr);

	mov	eax, DWORD PTR [eax]
$LN43@SK_NvAPI_A:
; File c:\users\andon\source\repos\specialk\src\nvapi.cpp

; 1317 :   NVAPI_CALL (DRS_CreateSession (&hSession));

	push	327744					; 00050040H
	push	OFFSET $SG166390
	push	eax
	push	0
	call	edi
; File c:\program files (x86)\microsoft visual studio\2017\community\vc\tools\msvc\14.10.25017\include\xstring

; 1628 : 		return (this->_BUF_SIZE <= _Myres);

	mov	eax, DWORD PTR $T14[ebp+20]
	cmp	eax, 8

; 3608 : 		if (_My_data._Large_string_engaged())

	jb	SHORT $LN53@SK_NvAPI_A
; File c:\program files (x86)\microsoft visual studio\2017\community\vc\tools\msvc\14.10.25017\include\xmemory0

; 823  : 		_Deallocate(_Ptr, _Count, sizeof (_Ty));

	push	2
; File c:\program files (x86)\microsoft visual studio\2017\community\vc\tools\msvc\14.10.25017\include\xstring

; 3613 : 			_Al.deallocate(_Ptr, _My_data._Myres + 1);

	inc	eax
; File c:\program files (x86)\microsoft visual studio\2017\community\vc\tools\msvc\14.10.25017\include\xmemory0

; 823  : 		_Deallocate(_Ptr, _Count, sizeof (_Ty));

	push	eax
	push	DWORD PTR $T14[ebp]
	call	?_Deallocate@std@@YAXPAXII@Z		; std::_Deallocate
	add	esp, 12					; 0000000cH
$LN53@SK_NvAPI_A:
; File c:\users\andon\source\repos\specialk\src\nvapi.cpp

; 1318 :   NVAPI_CALL (DRS_LoadSettings  (hSession));

	push	DWORD PTR _hSession$[ebp]
	call	_NvAPI_DRS_LoadSettings
	add	esp, 4
	cmp	BYTE PTR ?nvapi_silent@@3_NA, 1
	je	SHORT $LN102@SK_NvAPI_A
	test	eax, eax
	je	SHORT $LN102@SK_NvAPI_A
	push	OFFSET $SG166396
	push	OFFSET $SG166397
	push	1318					; 00000526H
	push	OFFSET $SG166398
	push	eax
	lea	eax, DWORD PTR $T13[ebp]
	push	eax
	call	?ErrorMessage@NVAPI@sk@@YA?AV?$basic_string@_WU?$char_traits@_W@std@@V?$allocator@_W@2@@std@@W4_NvAPI_Status@@PBDI11@Z ; sk::NVAPI::ErrorMessage
	add	esp, 24					; 00000018H
; File c:\program files (x86)\microsoft visual studio\2017\community\vc\tools\msvc\14.10.25017\include\xstring

; 1628 : 		return (this->_BUF_SIZE <= _Myres);

	cmp	DWORD PTR [eax+20], 8

; 1621 : 		return (_Large_string_engaged()

	jb	SHORT $LN92@SK_NvAPI_A
; File c:\program files (x86)\microsoft visual studio\2017\community\vc\tools\msvc\14.10.25017\include\xstddef

; 643  : 	return (_Ptr);

	mov	eax, DWORD PTR [eax]
$LN92@SK_NvAPI_A:
; File c:\users\andon\source\repos\specialk\src\nvapi.cpp

; 1318 :   NVAPI_CALL (DRS_LoadSettings  (hSession));

	push	327744					; 00050040H
	push	OFFSET $SG166395
	push	eax
	push	0
	call	edi
; File c:\program files (x86)\microsoft visual studio\2017\community\vc\tools\msvc\14.10.25017\include\xstring

; 1628 : 		return (this->_BUF_SIZE <= _Myres);

	mov	eax, DWORD PTR $T13[ebp+20]
	cmp	eax, 8

; 3608 : 		if (_My_data._Large_string_engaged())

	jb	SHORT $LN102@SK_NvAPI_A
; File c:\program files (x86)\microsoft visual studio\2017\community\vc\tools\msvc\14.10.25017\include\xmemory0

; 823  : 		_Deallocate(_Ptr, _Count, sizeof (_Ty));

	push	2
; File c:\program files (x86)\microsoft visual studio\2017\community\vc\tools\msvc\14.10.25017\include\xstring

; 3613 : 			_Al.deallocate(_Ptr, _My_data._Myres + 1);

	inc	eax
; File c:\program files (x86)\microsoft visual studio\2017\community\vc\tools\msvc\14.10.25017\include\xmemory0

; 823  : 		_Deallocate(_Ptr, _Count, sizeof (_Ty));

	push	eax
	push	DWORD PTR $T13[ebp]
	call	?_Deallocate@std@@YAXPAXII@Z		; std::_Deallocate
	add	esp, 12					; 0000000cH
$LN102@SK_NvAPI_A:
; File c:\program files (x86)\microsoft visual studio\2017\community\vc\tools\msvc\14.10.25017\include\xstring

; 1628 : 		return (this->_BUF_SIZE <= _Myres);

	cmp	DWORD PTR ?app_name@NVAPI@sk@@3V?$basic_string@_WU?$char_traits@_W@std@@V?$allocator@_W@2@@std@@A+20, 8
; File c:\users\andon\source\repos\specialk\src\nvapi.cpp

; 1329 :   NVAPI_CALL2 ( DRS_FindApplicationByName ( hSession,

	lea	ecx, DWORD PTR _hProfile$[ebp]
	push	ebx
	push	esi
	push	OFFSET ?app@?1??SK_NvAPI_AddLauncherToProf@@YGHXZ@4U_NVDRS_APPLICATION_V4@@A
; File c:\program files (x86)\microsoft visual studio\2017\community\vc\tools\msvc\14.10.25017\include\xstring

; 1621 : 		return (_Large_string_engaged()

	mov	eax, OFFSET ?app_name@NVAPI@sk@@3V?$basic_string@_WU?$char_traits@_W@std@@V?$allocator@_W@2@@std@@A ; sk::NVAPI::app_name
; File c:\users\andon\source\repos\specialk\src\nvapi.cpp

; 1320 :   NvDRSProfileHandle hProfile  = { };

	mov	DWORD PTR _hProfile$[ebp], 0
; File c:\program files (x86)\microsoft visual studio\2017\community\vc\tools\msvc\14.10.25017\include\xstring

; 1621 : 		return (_Large_string_engaged()

	cmovae	eax, DWORD PTR ?app_name@NVAPI@sk@@3V?$basic_string@_WU?$char_traits@_W@std@@V?$allocator@_W@2@@std@@A
; File c:\users\andon\source\repos\specialk\src\nvapi.cpp

; 1329 :   NVAPI_CALL2 ( DRS_FindApplicationByName ( hSession,

	push	ecx
	push	eax
	push	DWORD PTR _hSession$[ebp]
	mov	BYTE PTR ?nvapi_silent@@3_NA, 1
	mov	DWORD PTR ?app@?1??SK_NvAPI_AddLauncherToProf@@YGHXZ@4U_NVDRS_APPLICATION_V4@@A, 282636 ; 0004500cH
	call	_NvAPI_DRS_FindApplicationByName
	add	esp, 16					; 00000010H
	mov	esi, eax
	cmp	BYTE PTR ?nvapi_silent@@3_NA, 1
	je	SHORT $LN170@SK_NvAPI_A
	test	esi, esi
	je	SHORT $LN170@SK_NvAPI_A
	push	OFFSET $SG166401
	push	OFFSET $SG166402
	push	1333					; 00000535H
	push	OFFSET $SG166403
	lea	eax, DWORD PTR $T12[ebp]
	push	esi
	push	eax
	call	?ErrorMessage@NVAPI@sk@@YA?AV?$basic_string@_WU?$char_traits@_W@std@@V?$allocator@_W@2@@std@@W4_NvAPI_Status@@PBDI11@Z ; sk::NVAPI::ErrorMessage
	add	esp, 24					; 00000018H
; File c:\program files (x86)\microsoft visual studio\2017\community\vc\tools\msvc\14.10.25017\include\xstring

; 1628 : 		return (this->_BUF_SIZE <= _Myres);

	cmp	DWORD PTR [eax+20], 8

; 1621 : 		return (_Large_string_engaged()

	jb	SHORT $LN160@SK_NvAPI_A
; File c:\program files (x86)\microsoft visual studio\2017\community\vc\tools\msvc\14.10.25017\include\xstddef

; 643  : 	return (_Ptr);

	mov	eax, DWORD PTR [eax]
$LN160@SK_NvAPI_A:
; File c:\users\andon\source\repos\specialk\src\nvapi.cpp

; 1329 :   NVAPI_CALL2 ( DRS_FindApplicationByName ( hSession,

	push	327744					; 00050040H
	push	OFFSET $SG166400
	push	eax
	push	0
	call	edi
; File c:\program files (x86)\microsoft visual studio\2017\community\vc\tools\msvc\14.10.25017\include\xstring

; 1628 : 		return (this->_BUF_SIZE <= _Myres);

	mov	eax, DWORD PTR $T12[ebp+20]
	cmp	eax, 8

; 3608 : 		if (_My_data._Large_string_engaged())

	jb	SHORT $LN170@SK_NvAPI_A
; File c:\program files (x86)\microsoft visual studio\2017\community\vc\tools\msvc\14.10.25017\include\xmemory0

; 823  : 		_Deallocate(_Ptr, _Count, sizeof (_Ty));

	push	2
; File c:\program files (x86)\microsoft visual studio\2017\community\vc\tools\msvc\14.10.25017\include\xstring

; 3613 : 			_Al.deallocate(_Ptr, _My_data._Myres + 1);

	inc	eax
; File c:\program files (x86)\microsoft visual studio\2017\community\vc\tools\msvc\14.10.25017\include\xmemory0

; 823  : 		_Deallocate(_Ptr, _Count, sizeof (_Ty));

	push	eax
	push	DWORD PTR $T12[ebp]
	call	?_Deallocate@std@@YAXPAXII@Z		; std::_Deallocate
	add	esp, 12					; 0000000cH
$LN170@SK_NvAPI_A:
; File c:\users\andon\source\repos\specialk\src\nvapi.cpp

; 1337 :   if (ret == NVAPI_EXECUTABLE_NOT_FOUND)

	cmp	esi, -166				; ffffff5aH
	jne	$LN6@SK_NvAPI_A

; 1338 :   {
; 1339 :     NVDRS_PROFILE custom_profile = { };

	push	4116					; 00001014H
	lea	eax, DWORD PTR _custom_profile$3[ebp]
	push	0
	push	eax
	call	_memset
	add	esp, 12					; 0000000cH

; 1340 : 
; 1341 :     custom_profile.isPredefined = false;

	mov	DWORD PTR _custom_profile$3[ebp+4104], 0
; File c:\program files (x86)\microsoft visual studio\2017\community\vc\tools\msvc\14.10.25017\include\xstring

; 1628 : 		return (this->_BUF_SIZE <= _Myres);

	cmp	DWORD PTR ?friendly_name@NVAPI@sk@@3V?$basic_string@_WU?$char_traits@_W@std@@V?$allocator@_W@2@@std@@A+20, 8

; 1621 : 		return (_Large_string_engaged()

	mov	ebx, OFFSET ?friendly_name@NVAPI@sk@@3V?$basic_string@_WU?$char_traits@_W@std@@V?$allocator@_W@2@@std@@A ; sk::NVAPI::friendly_name
	mov	eax, ebx
	cmovae	eax, DWORD PTR ?friendly_name@NVAPI@sk@@3V?$basic_string@_WU?$char_traits@_W@std@@V?$allocator@_W@2@@std@@A
; File c:\users\andon\source\repos\specialk\src\nvapi.cpp

; 1342 :     lstrcpyW ((wchar_t *)custom_profile.profileName, friendly_name.c_str ());

	push	eax
	lea	eax, DWORD PTR _custom_profile$3[ebp+4]
	push	eax
	call	DWORD PTR __imp__lstrcpyW@8

; 1349 :       NVAPI_CALL2 (DRS_CreateProfile (hSession, &custom_profile, &hProfile), ret);

	lea	eax, DWORD PTR _hProfile$[ebp]
	mov	DWORD PTR _custom_profile$3[ebp], 69652	; 00011014H
	push	eax
	lea	eax, DWORD PTR _custom_profile$3[ebp]
	mov	BYTE PTR ?nvapi_silent@@3_NA, 1
	push	eax
	push	DWORD PTR _hSession$[ebp]
	call	_NvAPI_DRS_CreateProfile
	add	esp, 12					; 0000000cH
	mov	esi, eax
	cmp	BYTE PTR ?nvapi_silent@@3_NA, 1
	je	SHORT $LN8@SK_NvAPI_A
	test	esi, esi
	je	SHORT $LN8@SK_NvAPI_A
	push	OFFSET $SG166408
	push	OFFSET $SG166409
	push	1349					; 00000545H
	push	OFFSET $SG166410
	lea	eax, DWORD PTR $T11[ebp]
	push	esi
	push	eax
	call	?ErrorMessage@NVAPI@sk@@YA?AV?$basic_string@_WU?$char_traits@_W@std@@V?$allocator@_W@2@@std@@W4_NvAPI_Status@@PBDI11@Z ; sk::NVAPI::ErrorMessage
	add	esp, 24					; 00000018H
; File c:\program files (x86)\microsoft visual studio\2017\community\vc\tools\msvc\14.10.25017\include\xstring

; 1628 : 		return (this->_BUF_SIZE <= _Myres);

	cmp	DWORD PTR [eax+20], 8

; 1621 : 		return (_Large_string_engaged()

	jb	SHORT $LN228@SK_NvAPI_A
; File c:\program files (x86)\microsoft visual studio\2017\community\vc\tools\msvc\14.10.25017\include\xstddef

; 643  : 	return (_Ptr);

	mov	eax, DWORD PTR [eax]
$LN228@SK_NvAPI_A:
; File c:\users\andon\source\repos\specialk\src\nvapi.cpp

; 1349 :       NVAPI_CALL2 (DRS_CreateProfile (hSession, &custom_profile, &hProfile), ret);

	push	327744					; 00050040H
	push	OFFSET $SG166407
	push	eax
	push	0
	call	edi
	lea	ecx, DWORD PTR $T11[ebp]
	call	??1?$basic_string@_WU?$char_traits@_W@std@@V?$allocator@_W@2@@std@@QAE@XZ ; std::basic_string<wchar_t,std::char_traits<wchar_t>,std::allocator<wchar_t> >::~basic_string<wchar_t,std::char_traits<wchar_t>,std::allocator<wchar_t> >
$LN8@SK_NvAPI_A:

; 1350 :     }
; 1351 :     NVAPI_VERBOSE ()

	mov	BYTE PTR ?nvapi_silent@@3_NA, 0

; 1352 : 
; 1353 :     // Add the application name to the profile, if a profile already exists
; 1354 :     if (ret == NVAPI_PROFILE_NAME_IN_USE)

	cmp	esi, -164				; ffffff5cH
	jne	SHORT $LN10@SK_NvAPI_A
; File c:\program files (x86)\microsoft visual studio\2017\community\vc\tools\msvc\14.10.25017\include\xstring

; 1628 : 		return (this->_BUF_SIZE <= _Myres);

	cmp	DWORD PTR ?friendly_name@NVAPI@sk@@3V?$basic_string@_WU?$char_traits@_W@std@@V?$allocator@_W@2@@std@@A+20, 8
; File c:\users\andon\source\repos\specialk\src\nvapi.cpp

; 1355 :       NVAPI_CALL2 ( DRS_FindProfileByName ( hSession,

	lea	ecx, DWORD PTR _hProfile$[ebp]
; File c:\program files (x86)\microsoft visual studio\2017\community\vc\tools\msvc\14.10.25017\include\xstring

; 1621 : 		return (_Large_string_engaged()

	mov	eax, ebx
	cmovae	eax, DWORD PTR ?friendly_name@NVAPI@sk@@3V?$basic_string@_WU?$char_traits@_W@std@@V?$allocator@_W@2@@std@@A
; File c:\users\andon\source\repos\specialk\src\nvapi.cpp

; 1355 :       NVAPI_CALL2 ( DRS_FindProfileByName ( hSession,

	push	ecx
	push	eax
	push	DWORD PTR _hSession$[ebp]
	call	_NvAPI_DRS_FindProfileByName
	add	esp, 12					; 0000000cH
	mov	esi, eax
	cmp	BYTE PTR ?nvapi_silent@@3_NA, 1
	je	SHORT $LN10@SK_NvAPI_A
	test	esi, esi
	je	SHORT $LN522@SK_NvAPI_A
	push	OFFSET $SG166414
	push	OFFSET $SG166415
	push	1358					; 0000054eH
	push	OFFSET $SG166416
	lea	eax, DWORD PTR $T10[ebp]
	push	esi
	push	eax
	call	?ErrorMessage@NVAPI@sk@@YA?AV?$basic_string@_WU?$char_traits@_W@std@@V?$allocator@_W@2@@std@@W4_NvAPI_Status@@PBDI11@Z ; sk::NVAPI::ErrorMessage
	add	esp, 24					; 00000018H
; File c:\program files (x86)\microsoft visual studio\2017\community\vc\tools\msvc\14.10.25017\include\xstring

; 1628 : 		return (this->_BUF_SIZE <= _Myres);

	cmp	DWORD PTR [eax+20], 8

; 1621 : 		return (_Large_string_engaged()

	jb	SHORT $LN266@SK_NvAPI_A
; File c:\program files (x86)\microsoft visual studio\2017\community\vc\tools\msvc\14.10.25017\include\xstddef

; 643  : 	return (_Ptr);

	mov	eax, DWORD PTR [eax]
$LN266@SK_NvAPI_A:
; File c:\users\andon\source\repos\specialk\src\nvapi.cpp

; 1355 :       NVAPI_CALL2 ( DRS_FindProfileByName ( hSession,

	push	327744					; 00050040H
	push	OFFSET $SG166413
	push	eax
	push	0
	call	edi
	lea	ecx, DWORD PTR $T10[ebp]
	call	??1?$basic_string@_WU?$char_traits@_W@std@@V?$allocator@_W@2@@std@@QAE@XZ ; std::basic_string<wchar_t,std::char_traits<wchar_t>,std::allocator<wchar_t> >::~basic_string<wchar_t,std::char_traits<wchar_t>,std::allocator<wchar_t> >
$LN10@SK_NvAPI_A:

; 1356 :                                               (NvU16 *)friendly_name.c_str (),
; 1357 :                                                 &hProfile),
; 1358 :                       ret );
; 1359 : 
; 1360 :     if (ret == NVAPI_OK)

	test	esi, esi
	jne	$LN15@SK_NvAPI_A
$LN522@SK_NvAPI_A:

; 1361 :     {
; 1362 :        app         = {   };

	push	20492					; 0000500cH
	lea	eax, DWORD PTR $T2[ebp]
	push	0
	push	eax
	call	_memset
	push	20492					; 0000500cH
	lea	eax, DWORD PTR $T2[ebp]
	push	eax
	push	OFFSET ?app@?1??SK_NvAPI_AddLauncherToProf@@YGHXZ@4U_NVDRS_APPLICATION_V4@@A
	call	_memcpy

; 1366 :       lstrcpyW ((wchar_t *)app.userFriendlyName, friendly_name.c_str ());

	mov	esi, DWORD PTR __imp__lstrcpyW@8
	add	esp, 24					; 00000018H
	xor	eax, eax
; File c:\program files (x86)\microsoft visual studio\2017\community\vc\tools\msvc\14.10.25017\include\xstring

; 1628 : 		return (this->_BUF_SIZE <= _Myres);

	cmp	DWORD PTR ?friendly_name@NVAPI@sk@@3V?$basic_string@_WU?$char_traits@_W@std@@V?$allocator@_W@2@@std@@A+20, 8
; File c:\users\andon\source\repos\specialk\src\nvapi.cpp

; 1363 :       *app.appName = L'\0';

	mov	WORD PTR ?app@?1??SK_NvAPI_AddLauncherToProf@@YGHXZ@4U_NVDRS_APPLICATION_V4@@A+8, ax
; File c:\program files (x86)\microsoft visual studio\2017\community\vc\tools\msvc\14.10.25017\include\xstring

; 1621 : 		return (_Large_string_engaged()

	cmovae	ebx, DWORD PTR ?friendly_name@NVAPI@sk@@3V?$basic_string@_WU?$char_traits@_W@std@@V?$allocator@_W@2@@std@@A
; File c:\users\andon\source\repos\specialk\src\nvapi.cpp

; 1366 :       lstrcpyW ((wchar_t *)app.userFriendlyName, friendly_name.c_str ());

	push	ebx
	push	OFFSET ?app@?1??SK_NvAPI_AddLauncherToProf@@YGHXZ@4U_NVDRS_APPLICATION_V4@@A+4104
	call	esi
; File c:\program files (x86)\microsoft visual studio\2017\community\vc\tools\msvc\14.10.25017\include\xstring

; 1628 : 		return (this->_BUF_SIZE <= _Myres);

	cmp	DWORD PTR ?launcher_name@NVAPI@sk@@3V?$basic_string@_WU?$char_traits@_W@std@@V?$allocator@_W@2@@std@@A+20, 8

; 1621 : 		return (_Large_string_engaged()

	mov	eax, OFFSET ?launcher_name@NVAPI@sk@@3V?$basic_string@_WU?$char_traits@_W@std@@V?$allocator@_W@2@@std@@A ; sk::NVAPI::launcher_name
	cmovae	eax, DWORD PTR ?launcher_name@NVAPI@sk@@3V?$basic_string@_WU?$char_traits@_W@std@@V?$allocator@_W@2@@std@@A
; File c:\users\andon\source\repos\specialk\src\nvapi.cpp

; 1367 :       lstrcpyW ((wchar_t *)app.launcher,         launcher_name.c_str ());

	push	eax
	push	OFFSET ?app@?1??SK_NvAPI_AddLauncherToProf@@YGHXZ@4U_NVDRS_APPLICATION_V4@@A+8200
	call	esi

; 1368 :       app.version      = NVDRS_APPLICATION_VER;
; 1369 :       app.isPredefined = false;
; 1370 :       app.isMetro      = false;

	and	DWORD PTR ?app@?1??SK_NvAPI_AddLauncherToProf@@YGHXZ@4U_NVDRS_APPLICATION_V4@@A+16392, -2 ; fffffffeH

; 1372 :       NVAPI_CALL2 (DRS_CreateApplication (hSession, hProfile, &app), ret);

	push	OFFSET ?app@?1??SK_NvAPI_AddLauncherToProf@@YGHXZ@4U_NVDRS_APPLICATION_V4@@A
	push	DWORD PTR _hProfile$[ebp]
	mov	DWORD PTR ?app@?1??SK_NvAPI_AddLauncherToProf@@YGHXZ@4U_NVDRS_APPLICATION_V4@@A, 282636 ; 0004500cH
	push	DWORD PTR _hSession$[ebp]
	mov	DWORD PTR ?app@?1??SK_NvAPI_AddLauncherToProf@@YGHXZ@4U_NVDRS_APPLICATION_V4@@A+4, 0
	call	_NvAPI_DRS_CreateApplication
	add	esp, 12					; 0000000cH
	cmp	BYTE PTR ?nvapi_silent@@3_NA, 1
	je	SHORT $LN12@SK_NvAPI_A
	test	eax, eax
	je	SHORT $LN12@SK_NvAPI_A
	push	OFFSET $SG166420
	push	OFFSET $SG166421
	push	1372					; 0000055cH
	push	OFFSET $SG166422
	push	eax
	lea	eax, DWORD PTR $T9[ebp]
	push	eax
	call	?ErrorMessage@NVAPI@sk@@YA?AV?$basic_string@_WU?$char_traits@_W@std@@V?$allocator@_W@2@@std@@W4_NvAPI_Status@@PBDI11@Z ; sk::NVAPI::ErrorMessage
	add	esp, 24					; 00000018H
; File c:\program files (x86)\microsoft visual studio\2017\community\vc\tools\msvc\14.10.25017\include\xstring

; 1628 : 		return (this->_BUF_SIZE <= _Myres);

	cmp	DWORD PTR [eax+20], 8

; 1621 : 		return (_Large_string_engaged()

	jb	SHORT $LN323@SK_NvAPI_A
; File c:\program files (x86)\microsoft visual studio\2017\community\vc\tools\msvc\14.10.25017\include\xstddef

; 643  : 	return (_Ptr);

	mov	eax, DWORD PTR [eax]
$LN323@SK_NvAPI_A:
; File c:\users\andon\source\repos\specialk\src\nvapi.cpp

; 1372 :       NVAPI_CALL2 (DRS_CreateApplication (hSession, hProfile, &app), ret);

	push	327744					; 00050040H
	push	OFFSET $SG166419
	push	eax
	push	0
	call	edi
	lea	ecx, DWORD PTR $T9[ebp]
	call	??1?$basic_string@_WU?$char_traits@_W@std@@V?$allocator@_W@2@@std@@QAE@XZ ; std::basic_string<wchar_t,std::char_traits<wchar_t>,std::allocator<wchar_t> >::~basic_string<wchar_t,std::char_traits<wchar_t>,std::allocator<wchar_t> >
$LN12@SK_NvAPI_A:

; 1373 :       NVAPI_CALL2 (DRS_SaveSettings      (hSession), ret);

	push	DWORD PTR _hSession$[ebp]
	call	_NvAPI_DRS_SaveSettings
	add	esp, 4
	cmp	BYTE PTR ?nvapi_silent@@3_NA, 1
	je	$LN15@SK_NvAPI_A
	test	eax, eax
	je	$LN15@SK_NvAPI_A
	push	OFFSET $SG166425
	push	OFFSET $SG166426
	push	1373					; 0000055dH
	push	OFFSET $SG166427
	push	eax
	lea	eax, DWORD PTR $T8[ebp]
	push	eax
	call	?ErrorMessage@NVAPI@sk@@YA?AV?$basic_string@_WU?$char_traits@_W@std@@V?$allocator@_W@2@@std@@W4_NvAPI_Status@@PBDI11@Z ; sk::NVAPI::ErrorMessage
	add	esp, 24					; 00000018H
; File c:\program files (x86)\microsoft visual studio\2017\community\vc\tools\msvc\14.10.25017\include\xstring

; 1628 : 		return (this->_BUF_SIZE <= _Myres);

	cmp	DWORD PTR [eax+20], 8

; 1621 : 		return (_Large_string_engaged()

	jb	SHORT $LN342@SK_NvAPI_A
; File c:\program files (x86)\microsoft visual studio\2017\community\vc\tools\msvc\14.10.25017\include\xstddef

; 643  : 	return (_Ptr);

	mov	eax, DWORD PTR [eax]
$LN342@SK_NvAPI_A:
; File c:\users\andon\source\repos\specialk\src\nvapi.cpp

; 1373 :       NVAPI_CALL2 (DRS_SaveSettings      (hSession), ret);

	push	327744					; 00050040H
	push	OFFSET $SG166424

; 1374 :     }
; 1375 :   } else {

	jmp	$LN523@SK_NvAPI_A
$LN6@SK_NvAPI_A:

; 1376 :      app         = {   };

	push	20492					; 0000500cH
	lea	eax, DWORD PTR $T1[ebp]
	push	0
	push	eax
	call	_memset
	push	20492					; 0000500cH
	lea	eax, DWORD PTR $T1[ebp]
	push	eax
	push	OFFSET ?app@?1??SK_NvAPI_AddLauncherToProf@@YGHXZ@4U_NVDRS_APPLICATION_V4@@A
	call	_memcpy

; 1380 :     lstrcpyW ((wchar_t *)app.userFriendlyName, friendly_name.c_str ());

	mov	esi, DWORD PTR __imp__lstrcpyW@8
	xor	eax, eax
	add	esp, 24					; 00000018H
	mov	WORD PTR ?app@?1??SK_NvAPI_AddLauncherToProf@@YGHXZ@4U_NVDRS_APPLICATION_V4@@A+8, ax
; File c:\program files (x86)\microsoft visual studio\2017\community\vc\tools\msvc\14.10.25017\include\xstring

; 1628 : 		return (this->_BUF_SIZE <= _Myres);

	cmp	DWORD PTR ?friendly_name@NVAPI@sk@@3V?$basic_string@_WU?$char_traits@_W@std@@V?$allocator@_W@2@@std@@A+20, 8

; 1621 : 		return (_Large_string_engaged()

	mov	eax, OFFSET ?friendly_name@NVAPI@sk@@3V?$basic_string@_WU?$char_traits@_W@std@@V?$allocator@_W@2@@std@@A ; sk::NVAPI::friendly_name
	cmovae	eax, DWORD PTR ?friendly_name@NVAPI@sk@@3V?$basic_string@_WU?$char_traits@_W@std@@V?$allocator@_W@2@@std@@A
; File c:\users\andon\source\repos\specialk\src\nvapi.cpp

; 1380 :     lstrcpyW ((wchar_t *)app.userFriendlyName, friendly_name.c_str ());

	push	eax
	push	OFFSET ?app@?1??SK_NvAPI_AddLauncherToProf@@YGHXZ@4U_NVDRS_APPLICATION_V4@@A+4104
	call	esi
; File c:\program files (x86)\microsoft visual studio\2017\community\vc\tools\msvc\14.10.25017\include\xstring

; 1628 : 		return (this->_BUF_SIZE <= _Myres);

	cmp	DWORD PTR ?launcher_name@NVAPI@sk@@3V?$basic_string@_WU?$char_traits@_W@std@@V?$allocator@_W@2@@std@@A+20, 8

; 1621 : 		return (_Large_string_engaged()

	mov	eax, OFFSET ?launcher_name@NVAPI@sk@@3V?$basic_string@_WU?$char_traits@_W@std@@V?$allocator@_W@2@@std@@A ; sk::NVAPI::launcher_name
	cmovae	eax, DWORD PTR ?launcher_name@NVAPI@sk@@3V?$basic_string@_WU?$char_traits@_W@std@@V?$allocator@_W@2@@std@@A
; File c:\users\andon\source\repos\specialk\src\nvapi.cpp

; 1381 :     lstrcpyW ((wchar_t *)app.launcher,         launcher_name.c_str ());

	push	eax
	push	OFFSET ?app@?1??SK_NvAPI_AddLauncherToProf@@YGHXZ@4U_NVDRS_APPLICATION_V4@@A+8200
	call	esi

; 1382 :     app.version      = NVDRS_APPLICATION_VER;
; 1383 :     app.isPredefined = false;
; 1384 :     app.isMetro      = false;

	and	DWORD PTR ?app@?1??SK_NvAPI_AddLauncherToProf@@YGHXZ@4U_NVDRS_APPLICATION_V4@@A+16392, -2 ; fffffffeH

; 1386 :     NVAPI_CALL2 (DRS_CreateApplication (hSession, hProfile, &app), ret);

	push	OFFSET ?app@?1??SK_NvAPI_AddLauncherToProf@@YGHXZ@4U_NVDRS_APPLICATION_V4@@A
	push	DWORD PTR _hProfile$[ebp]
	mov	DWORD PTR ?app@?1??SK_NvAPI_AddLauncherToProf@@YGHXZ@4U_NVDRS_APPLICATION_V4@@A, 282636 ; 0004500cH
	push	DWORD PTR _hSession$[ebp]
	mov	DWORD PTR ?app@?1??SK_NvAPI_AddLauncherToProf@@YGHXZ@4U_NVDRS_APPLICATION_V4@@A+4, 0
	call	_NvAPI_DRS_CreateApplication
	add	esp, 12					; 0000000cH
	cmp	BYTE PTR ?nvapi_silent@@3_NA, 1
	je	SHORT $LN14@SK_NvAPI_A
	test	eax, eax
	je	SHORT $LN14@SK_NvAPI_A
	push	OFFSET $SG166430
	push	OFFSET $SG166431
	push	1386					; 0000056aH
	push	OFFSET $SG166432
	push	eax
	lea	eax, DWORD PTR $T7[ebp]
	push	eax
	call	?ErrorMessage@NVAPI@sk@@YA?AV?$basic_string@_WU?$char_traits@_W@std@@V?$allocator@_W@2@@std@@W4_NvAPI_Status@@PBDI11@Z ; sk::NVAPI::ErrorMessage
	add	esp, 24					; 00000018H
; File c:\program files (x86)\microsoft visual studio\2017\community\vc\tools\msvc\14.10.25017\include\xstring

; 1628 : 		return (this->_BUF_SIZE <= _Myres);

	cmp	DWORD PTR [eax+20], 8

; 1621 : 		return (_Large_string_engaged()

	jb	SHORT $LN399@SK_NvAPI_A
; File c:\program files (x86)\microsoft visual studio\2017\community\vc\tools\msvc\14.10.25017\include\xstddef

; 643  : 	return (_Ptr);

	mov	eax, DWORD PTR [eax]
$LN399@SK_NvAPI_A:
; File c:\users\andon\source\repos\specialk\src\nvapi.cpp

; 1386 :     NVAPI_CALL2 (DRS_CreateApplication (hSession, hProfile, &app), ret);

	push	327744					; 00050040H
	push	OFFSET $SG166429
	push	eax
	push	0
	call	edi
	lea	ecx, DWORD PTR $T7[ebp]
	call	??1?$basic_string@_WU?$char_traits@_W@std@@V?$allocator@_W@2@@std@@QAE@XZ ; std::basic_string<wchar_t,std::char_traits<wchar_t>,std::allocator<wchar_t> >::~basic_string<wchar_t,std::char_traits<wchar_t>,std::allocator<wchar_t> >
$LN14@SK_NvAPI_A:

; 1387 :     NVAPI_CALL2 (DRS_SaveSettings      (hSession), ret);

	push	DWORD PTR _hSession$[ebp]
	call	_NvAPI_DRS_SaveSettings
	add	esp, 4
	cmp	BYTE PTR ?nvapi_silent@@3_NA, 1
	je	SHORT $LN15@SK_NvAPI_A
	test	eax, eax
	je	SHORT $LN15@SK_NvAPI_A
	push	OFFSET $SG166435
	push	OFFSET $SG166436
	push	1387					; 0000056bH
	push	OFFSET $SG166437
	push	eax
	lea	eax, DWORD PTR $T6[ebp]
	push	eax
	call	?ErrorMessage@NVAPI@sk@@YA?AV?$basic_string@_WU?$char_traits@_W@std@@V?$allocator@_W@2@@std@@W4_NvAPI_Status@@PBDI11@Z ; sk::NVAPI::ErrorMessage
	add	esp, 24					; 00000018H
; File c:\program files (x86)\microsoft visual studio\2017\community\vc\tools\msvc\14.10.25017\include\xstring

; 1628 : 		return (this->_BUF_SIZE <= _Myres);

	cmp	DWORD PTR [eax+20], 8

; 1621 : 		return (_Large_string_engaged()

	jb	SHORT $LN418@SK_NvAPI_A
; File c:\program files (x86)\microsoft visual studio\2017\community\vc\tools\msvc\14.10.25017\include\xstddef

; 643  : 	return (_Ptr);

	mov	eax, DWORD PTR [eax]
$LN418@SK_NvAPI_A:
; File c:\users\andon\source\repos\specialk\src\nvapi.cpp

; 1387 :     NVAPI_CALL2 (DRS_SaveSettings      (hSession), ret);

	push	327744					; 00050040H
	push	OFFSET $SG166434
$LN523@SK_NvAPI_A:
	push	eax
	push	0
	call	edi
	lea	ecx, DWORD PTR $T6[ebp]
	call	??1?$basic_string@_WU?$char_traits@_W@std@@V?$allocator@_W@2@@std@@QAE@XZ ; std::basic_string<wchar_t,std::char_traits<wchar_t>,std::allocator<wchar_t> >::~basic_string<wchar_t,std::char_traits<wchar_t>,std::allocator<wchar_t> >
$LN15@SK_NvAPI_A:

; 1390 :   NVAPI_CALL (DRS_SaveSettings   (hSession));

	push	DWORD PTR _hSession$[ebp]
	call	_NvAPI_DRS_SaveSettings
	add	esp, 4
	cmp	BYTE PTR ?nvapi_silent@@3_NA, 1
	pop	esi
	pop	ebx
	je	SHORT $LN447@SK_NvAPI_A
	test	eax, eax
	je	SHORT $LN447@SK_NvAPI_A
	push	OFFSET $SG166440
	push	OFFSET $SG166441
	push	1390					; 0000056eH
	push	OFFSET $SG166442
	push	eax
	lea	eax, DWORD PTR $T5[ebp]
	push	eax
	call	?ErrorMessage@NVAPI@sk@@YA?AV?$basic_string@_WU?$char_traits@_W@std@@V?$allocator@_W@2@@std@@W4_NvAPI_Status@@PBDI11@Z ; sk::NVAPI::ErrorMessage
	add	esp, 24					; 00000018H
; File c:\program files (x86)\microsoft visual studio\2017\community\vc\tools\msvc\14.10.25017\include\xstring

; 1628 : 		return (this->_BUF_SIZE <= _Myres);

	cmp	DWORD PTR [eax+20], 8

; 1621 : 		return (_Large_string_engaged()

	jb	SHORT $LN437@SK_NvAPI_A
; File c:\program files (x86)\microsoft visual studio\2017\community\vc\tools\msvc\14.10.25017\include\xstddef

; 643  : 	return (_Ptr);

	mov	eax, DWORD PTR [eax]
$LN437@SK_NvAPI_A:
; File c:\users\andon\source\repos\specialk\src\nvapi.cpp

; 1390 :   NVAPI_CALL (DRS_SaveSettings   (hSession));

	push	327744					; 00050040H
	push	OFFSET $SG166439
	push	eax
	push	0
	call	edi
; File c:\program files (x86)\microsoft visual studio\2017\community\vc\tools\msvc\14.10.25017\include\xstring

; 1628 : 		return (this->_BUF_SIZE <= _Myres);

	mov	eax, DWORD PTR $T5[ebp+20]
	cmp	eax, 8

; 3608 : 		if (_My_data._Large_string_engaged())

	jb	SHORT $LN447@SK_NvAPI_A
; File c:\program files (x86)\microsoft visual studio\2017\community\vc\tools\msvc\14.10.25017\include\xmemory0

; 823  : 		_Deallocate(_Ptr, _Count, sizeof (_Ty));

	push	2
; File c:\program files (x86)\microsoft visual studio\2017\community\vc\tools\msvc\14.10.25017\include\xstring

; 3613 : 			_Al.deallocate(_Ptr, _My_data._Myres + 1);

	inc	eax
; File c:\program files (x86)\microsoft visual studio\2017\community\vc\tools\msvc\14.10.25017\include\xmemory0

; 823  : 		_Deallocate(_Ptr, _Count, sizeof (_Ty));

	push	eax
	push	DWORD PTR $T5[ebp]
	call	?_Deallocate@std@@YAXPAXII@Z		; std::_Deallocate
	add	esp, 12					; 0000000cH
$LN447@SK_NvAPI_A:
; File c:\users\andon\source\repos\specialk\src\nvapi.cpp

; 1391 :   NVAPI_CALL (DRS_DestroySession (hSession));

	push	DWORD PTR _hSession$[ebp]
	call	_NvAPI_DRS_DestroySession
	add	esp, 4
	cmp	BYTE PTR ?nvapi_silent@@3_NA, 1
	je	SHORT $LN496@SK_NvAPI_A
	test	eax, eax
	je	SHORT $LN496@SK_NvAPI_A
	push	OFFSET $SG166445
	push	OFFSET $SG166446
	push	1391					; 0000056fH
	push	OFFSET $SG166447
	push	eax
	lea	eax, DWORD PTR $T4[ebp]
	push	eax
	call	?ErrorMessage@NVAPI@sk@@YA?AV?$basic_string@_WU?$char_traits@_W@std@@V?$allocator@_W@2@@std@@W4_NvAPI_Status@@PBDI11@Z ; sk::NVAPI::ErrorMessage
	add	esp, 24					; 00000018H
; File c:\program files (x86)\microsoft visual studio\2017\community\vc\tools\msvc\14.10.25017\include\xstring

; 1628 : 		return (this->_BUF_SIZE <= _Myres);

	cmp	DWORD PTR [eax+20], 8

; 1621 : 		return (_Large_string_engaged()

	jb	SHORT $LN486@SK_NvAPI_A
; File c:\program files (x86)\microsoft visual studio\2017\community\vc\tools\msvc\14.10.25017\include\xstddef

; 643  : 	return (_Ptr);

	mov	eax, DWORD PTR [eax]
$LN486@SK_NvAPI_A:
; File c:\users\andon\source\repos\specialk\src\nvapi.cpp

; 1391 :   NVAPI_CALL (DRS_DestroySession (hSession));

	push	327744					; 00050040H
	push	OFFSET $SG166444
	push	eax
	push	0
	call	edi
; File c:\program files (x86)\microsoft visual studio\2017\community\vc\tools\msvc\14.10.25017\include\xstring

; 1628 : 		return (this->_BUF_SIZE <= _Myres);

	mov	eax, DWORD PTR $T4[ebp+20]
	cmp	eax, 8

; 3608 : 		if (_My_data._Large_string_engaged())

	jb	SHORT $LN496@SK_NvAPI_A
; File c:\program files (x86)\microsoft visual studio\2017\community\vc\tools\msvc\14.10.25017\include\xmemory0

; 823  : 		_Deallocate(_Ptr, _Count, sizeof (_Ty));

	push	2
; File c:\program files (x86)\microsoft visual studio\2017\community\vc\tools\msvc\14.10.25017\include\xstring

; 3613 : 			_Al.deallocate(_Ptr, _My_data._Myres + 1);

	inc	eax
; File c:\program files (x86)\microsoft visual studio\2017\community\vc\tools\msvc\14.10.25017\include\xmemory0

; 823  : 		_Deallocate(_Ptr, _Count, sizeof (_Ty));

	push	eax
	push	DWORD PTR $T4[ebp]
	call	?_Deallocate@std@@YAXPAXII@Z		; std::_Deallocate
	add	esp, 12					; 0000000cH
$LN496@SK_NvAPI_A:
; File c:\users\andon\source\repos\specialk\src\nvapi.cpp

; 1412 :   return true;

	mov	eax, 1
	pop	edi

; 1413 : }

	mov	esp, ebp
	pop	ebp
	ret	0
?SK_NvAPI_AddLauncherToProf@@YGHXZ ENDP			; SK_NvAPI_AddLauncherToProf
_TEXT	ENDS
; Function compile flags: /Ogtp
; File c:\users\andon\source\repos\specialk\src\nvapi.cpp
; File c:\program files (x86)\microsoft visual studio\2017\community\vc\tools\msvc\14.10.25017\include\iosfwd
; File c:\program files (x86)\microsoft visual studio\2017\community\vc\tools\msvc\14.10.25017\include\xstring
; File c:\program files (x86)\microsoft visual studio\2017\community\vc\tools\msvc\14.10.25017\include\iosfwd
; File c:\program files (x86)\microsoft visual studio\2017\community\vc\tools\msvc\14.10.25017\include\xstring
; File c:\users\andon\source\repos\specialk\src\nvapi.cpp
_TEXT	SEGMENT
_wszLauncherName$ = 8					; size = 4
?SK_NvAPI_SetLauncher@@YGXPB_W@Z PROC			; SK_NvAPI_SetLauncher

; 1303 : {

	npad	2
	push	ebp
	mov	ebp, esp
; File c:\program files (x86)\microsoft visual studio\2017\community\vc\tools\msvc\14.10.25017\include\iosfwd

; 289  : 		return (_CSTD wcslen(_First));

	mov	edx, DWORD PTR _wszLauncherName$[ebp]
	mov	eax, edx
	push	esi
	lea	esi, DWORD PTR [eax+2]
	npad	2
$LL10@SK_NvAPI_S:
	mov	cx, WORD PTR [eax]
	add	eax, 2
	test	cx, cx
	jne	SHORT $LL10@SK_NvAPI_S
	sub	eax, esi
; File c:\program files (x86)\microsoft visual studio\2017\community\vc\tools\msvc\14.10.25017\include\xstring

; 2429 : 		return (assign(_Ptr, _Traits::length(_Ptr)));

	mov	ecx, OFFSET ?launcher_name@NVAPI@sk@@3V?$basic_string@_WU?$char_traits@_W@std@@V?$allocator@_W@2@@std@@A ; sk::NVAPI::launcher_name
; File c:\program files (x86)\microsoft visual studio\2017\community\vc\tools\msvc\14.10.25017\include\iosfwd

; 289  : 		return (_CSTD wcslen(_First));

	sar	eax, 1
; File c:\program files (x86)\microsoft visual studio\2017\community\vc\tools\msvc\14.10.25017\include\xstring

; 2429 : 		return (assign(_Ptr, _Traits::length(_Ptr)));

	push	eax
	push	edx
	call	?assign@?$basic_string@_WU?$char_traits@_W@std@@V?$allocator@_W@2@@std@@QAEAAV12@QB_WI@Z ; std::basic_string<wchar_t,std::char_traits<wchar_t>,std::allocator<wchar_t> >::assign
	pop	esi
; File c:\users\andon\source\repos\specialk\src\nvapi.cpp

; 1305 : }

	pop	ebp
	ret	4
?SK_NvAPI_SetLauncher@@YGXPB_W@Z ENDP			; SK_NvAPI_SetLauncher
_TEXT	ENDS
; Function compile flags: /Ogtp
; File c:\users\andon\source\repos\specialk\src\nvapi.cpp
; File c:\program files (x86)\microsoft visual studio\2017\community\vc\tools\msvc\14.10.25017\include\iosfwd
; File c:\program files (x86)\microsoft visual studio\2017\community\vc\tools\msvc\14.10.25017\include\xstring
; File c:\program files (x86)\microsoft visual studio\2017\community\vc\tools\msvc\14.10.25017\include\iosfwd
; File c:\program files (x86)\microsoft visual studio\2017\community\vc\tools\msvc\14.10.25017\include\xstring
; File c:\users\andon\source\repos\specialk\src\nvapi.cpp
_TEXT	SEGMENT
_wszAppName$ = 8					; size = 4
?SK_NvAPI_SetAppName@@YGXPB_W@Z PROC			; SK_NvAPI_SetAppName

; 1296 : {

	npad	2
	push	ebp
	mov	ebp, esp
; File c:\program files (x86)\microsoft visual studio\2017\community\vc\tools\msvc\14.10.25017\include\iosfwd

; 289  : 		return (_CSTD wcslen(_First));

	mov	edx, DWORD PTR _wszAppName$[ebp]
	mov	eax, edx
	push	esi
	lea	esi, DWORD PTR [eax+2]
	npad	2
$LL10@SK_NvAPI_S:
	mov	cx, WORD PTR [eax]
	add	eax, 2
	test	cx, cx
	jne	SHORT $LL10@SK_NvAPI_S
	sub	eax, esi
; File c:\program files (x86)\microsoft visual studio\2017\community\vc\tools\msvc\14.10.25017\include\xstring

; 2429 : 		return (assign(_Ptr, _Traits::length(_Ptr)));

	mov	ecx, OFFSET ?app_name@NVAPI@sk@@3V?$basic_string@_WU?$char_traits@_W@std@@V?$allocator@_W@2@@std@@A ; sk::NVAPI::app_name
; File c:\program files (x86)\microsoft visual studio\2017\community\vc\tools\msvc\14.10.25017\include\iosfwd

; 289  : 		return (_CSTD wcslen(_First));

	sar	eax, 1
; File c:\program files (x86)\microsoft visual studio\2017\community\vc\tools\msvc\14.10.25017\include\xstring

; 2429 : 		return (assign(_Ptr, _Traits::length(_Ptr)));

	push	eax
	push	edx
	call	?assign@?$basic_string@_WU?$char_traits@_W@std@@V?$allocator@_W@2@@std@@QAEAAV12@QB_WI@Z ; std::basic_string<wchar_t,std::char_traits<wchar_t>,std::allocator<wchar_t> >::assign
	pop	esi
; File c:\users\andon\source\repos\specialk\src\nvapi.cpp

; 1298 : }

	pop	ebp
	ret	4
?SK_NvAPI_SetAppName@@YGXPB_W@Z ENDP			; SK_NvAPI_SetAppName
_TEXT	ENDS
; Function compile flags: /Ogtp
; File c:\users\andon\source\repos\specialk\src\nvapi.cpp
_TEXT	SEGMENT
?SK_NvAPI_IsInit@@YGHXZ PROC				; SK_NvAPI_IsInit

; 1290 :   return NVAPI::nv_hardware;

	movzx	eax, BYTE PTR ?nv_hardware@NVAPI@sk@@3_NA ; sk::NVAPI::nv_hardware

; 1291 : }

	ret	0
?SK_NvAPI_IsInit@@YGHXZ ENDP				; SK_NvAPI_IsInit
_TEXT	ENDS
; Function compile flags: /Ogtp
; File c:\users\andon\source\repos\specialk\src\nvapi.cpp
; File c:\program files (x86)\microsoft visual studio\2017\community\vc\tools\msvc\14.10.25017\include\iosfwd
; File c:\program files (x86)\microsoft visual studio\2017\community\vc\tools\msvc\14.10.25017\include\xstring
; File c:\program files (x86)\microsoft visual studio\2017\community\vc\tools\msvc\14.10.25017\include\iosfwd
; File c:\program files (x86)\microsoft visual studio\2017\community\vc\tools\msvc\14.10.25017\include\xstring
; File c:\users\andon\source\repos\specialk\src\nvapi.cpp
_TEXT	SEGMENT
_wszFriendlyName$ = 8					; size = 4
?SK_NvAPI_SetAppFriendlyName@@YGXPB_W@Z PROC		; SK_NvAPI_SetAppFriendlyName

; 1276 : {

	npad	2
	push	ebp
	mov	ebp, esp
; File c:\program files (x86)\microsoft visual studio\2017\community\vc\tools\msvc\14.10.25017\include\iosfwd

; 289  : 		return (_CSTD wcslen(_First));

	mov	edx, DWORD PTR _wszFriendlyName$[ebp]
	mov	eax, edx
	push	esi
	lea	esi, DWORD PTR [eax+2]
	npad	2
$LL10@SK_NvAPI_S:
	mov	cx, WORD PTR [eax]
	add	eax, 2
	test	cx, cx
	jne	SHORT $LL10@SK_NvAPI_S
	sub	eax, esi
; File c:\program files (x86)\microsoft visual studio\2017\community\vc\tools\msvc\14.10.25017\include\xstring

; 2429 : 		return (assign(_Ptr, _Traits::length(_Ptr)));

	mov	ecx, OFFSET ?friendly_name@NVAPI@sk@@3V?$basic_string@_WU?$char_traits@_W@std@@V?$allocator@_W@2@@std@@A ; sk::NVAPI::friendly_name
; File c:\program files (x86)\microsoft visual studio\2017\community\vc\tools\msvc\14.10.25017\include\iosfwd

; 289  : 		return (_CSTD wcslen(_First));

	sar	eax, 1
; File c:\program files (x86)\microsoft visual studio\2017\community\vc\tools\msvc\14.10.25017\include\xstring

; 2429 : 		return (assign(_Ptr, _Traits::length(_Ptr)));

	push	eax
	push	edx
	call	?assign@?$basic_string@_WU?$char_traits@_W@std@@V?$allocator@_W@2@@std@@QAEAAV12@QB_WI@Z ; std::basic_string<wchar_t,std::char_traits<wchar_t>,std::allocator<wchar_t> >::assign
	pop	esi
; File c:\users\andon\source\repos\specialk\src\nvapi.cpp

; 1278 : }

	pop	ebp
	ret	4
?SK_NvAPI_SetAppFriendlyName@@YGXPB_W@Z ENDP		; SK_NvAPI_SetAppFriendlyName
_TEXT	ENDS
; Function compile flags: /Ogtp
; File c:\program files (x86)\microsoft visual studio\2017\community\vc\tools\msvc\14.10.25017\include\xstring
;	COMDAT ??$?8_WU?$char_traits@_W@std@@V?$allocator@_W@1@@std@@YA_NABV?$basic_string@_WU?$char_traits@_W@std@@V?$allocator@_W@2@@0@QB_W@Z
_TEXT	SEGMENT
__Left$ = 8						; size = 4
__Right$ = 12						; size = 4
??$?8_WU?$char_traits@_W@std@@V?$allocator@_W@1@@std@@YA_NABV?$basic_string@_WU?$char_traits@_W@std@@V?$allocator@_W@2@@0@QB_W@Z PROC ; std::operator==<wchar_t,std::char_traits<wchar_t>,std::allocator<wchar_t> >, COMDAT

; 3843 : 	{	// test for string vs. NTCTS equality

	npad	2
	push	ebp
	mov	ebp, esp

; 3844 : 	return (_Left._Equal(_Right));

	push	DWORD PTR __Right$[ebp]
	mov	ecx, DWORD PTR __Left$[ebp]
	call	?_Equal@?$basic_string@_WU?$char_traits@_W@std@@V?$allocator@_W@2@@std@@QBE_NQB_W@Z ; std::basic_string<wchar_t,std::char_traits<wchar_t>,std::allocator<wchar_t> >::_Equal

; 3845 : 	}

	pop	ebp
	ret	0
??$?8_WU?$char_traits@_W@std@@V?$allocator@_W@1@@std@@YA_NABV?$basic_string@_WU?$char_traits@_W@std@@V?$allocator@_W@2@@0@QB_W@Z ENDP ; std::operator==<wchar_t,std::char_traits<wchar_t>,std::allocator<wchar_t> >
_TEXT	ENDS
; Function compile flags: /Ogtp
; File c:\users\andon\source\repos\specialk\src\nvapi.cpp
_TEXT	SEGMENT
_limit$ = 8						; size = 4
?SK_NvAPI_SetFramerateLimit@@YGHI@Z PROC		; SK_NvAPI_SetFramerateLimit

; 890  :   UNREFERENCED_PARAMETER (limit);
; 891  : 
; 892  :   return TRUE;

	mov	eax, 1

; 893  : 
; 894  : #if 0
; 895  :   // Allow the end-user to override this using the INI file
; 896  :   if (config.render.framerate.target_fps != 0)
; 897  :     limit = (uint32_t)config.render.framerate.target_fps;
; 898  : 
; 899  :   // Don't set anything up.
; 900  :   if (limit == 0)
; 901  :     return true;
; 902  : 
; 903  :   NvDRSSessionHandle hSession;
; 904  :   NVAPI_CALL (DRS_CreateSession (&hSession));
; 905  :   NVAPI_CALL (DRS_LoadSettings  (hSession));
; 906  : 
; 907  :   NvDRSProfileHandle hProfile;
; 908  :   static NVDRS_APPLICATION app = { };
; 909  : 
; 910  :   //SK_NvAPI_GetAppProfile (hSession, &hProfile, &app);
; 911  :   NVAPI_SILENT ();
; 912  : 
; 913  :   app.version = NVDRS_APPLICATION_VER;
; 914  : 
; 915  :   NvAPI_Status ret;
; 916  :   NVAPI_CALL2 ( DRS_FindApplicationByName ( hSession,
; 917  :                                               (NvU16 *)app_name.c_str (),
; 918  :                                                 &hProfile,
; 919  :                                                   &app ),
; 920  :                 ret );
; 921  : 
; 922  :   // If no executable exists anywhere by this name, create a profile for it
; 923  :   //   and then add the executable to it.
; 924  :   if (ret == NVAPI_EXECUTABLE_NOT_FOUND) {
; 925  :     NVDRS_PROFILE custom_profile = { };
; 926  : 
; 927  :     custom_profile.isPredefined = false;
; 928  :     lstrcpyW ((wchar_t *)custom_profile.profileName, friendly_name.c_str ());
; 929  :     custom_profile.version = NVDRS_PROFILE_VER;
; 930  : 
; 931  :     // It's not necessarily wrong if this does not return NVAPI_OK, so don't
; 932  :     //   raise a fuss if it happens.
; 933  :     NVAPI_SILENT ()
; 934  :     {
; 935  :       NVAPI_CALL2 (DRS_CreateProfile (hSession, &custom_profile, &hProfile), ret);
; 936  :     }
; 937  :     NVAPI_VERBOSE ()
; 938  : 
; 939  :     // Add the application name to the profile, if a profile already exists
; 940  :     if (ret == NVAPI_PROFILE_NAME_IN_USE)
; 941  :       NVAPI_CALL2 ( DRS_FindProfileByName ( hSession,
; 942  :                                               (NvU16 *)friendly_name.c_str (),
; 943  :                                                 &hProfile),
; 944  :                       ret );
; 945  : 
; 946  :     if (ret == NVAPI_OK) {
; 947  :       memset (&app, 0, sizeof (NVDRS_APPLICATION));
; 948  : 
; 949  :       lstrcpyW ((wchar_t *)app.appName,          app_name.c_str      ());
; 950  :       lstrcpyW ((wchar_t *)app.userFriendlyName, friendly_name.c_str ());
; 951  :       app.version      = NVDRS_APPLICATION_VER;
; 952  :       app.isPredefined = false;
; 953  :       app.isMetro      = false;
; 954  : 
; 955  :       NVAPI_CALL2 (DRS_CreateApplication (hSession, hProfile, &app), ret);
; 956  :       NVAPI_CALL2 (DRS_SaveSettings      (hSession), ret);
; 957  :     }
; 958  :   }
; 959  : 
; 960  :   NVDRS_SETTING fps_limiter = { };
; 961  :   fps_limiter.version = NVDRS_SETTING_VER;
; 962  : 
; 963  :   NVDRS_SETTING prerendered_frames = { };
; 964  :   prerendered_frames.version = NVDRS_SETTING_VER;
; 965  : 
; 966  :   // These settings may not exist, and getting back a value of 0 is okay...
; 967  :   NVAPI_SILENT  ();
; 968  :   NVAPI_CALL    (DRS_GetSetting (hSession, hProfile, PS_FRAMERATE_LIMITER_ID, &fps_limiter));
; 969  :   NVAPI_CALL    (DRS_GetSetting (hSession, hProfile, PRERENDERLIMIT_ID,       &prerendered_frames));
; 970  :   NVAPI_VERBOSE ();
; 971  : 
; 972  :   NvU32 limit_mask = ( PS_FRAMERATE_LIMITER_ENABLED        |
; 973  :                        PS_FRAMERATE_LIMITER_FORCEON        |
; 974  :                        PS_FRAMERATE_LIMITER_ALLOW_WINDOWED |
; 975  :                        PS_FRAMERATE_LIMITER_ACCURATE );
; 976  : 
; 977  :   limit_mask |= (limit & PS_FRAMERATE_LIMITER_FPSMASK);
; 978  : 
; 979  :   // We need a way to forcefully disable this
; 980  :   if (limit == 255)
; 981  :     limit_mask = 0;
; 982  : 
; 983  :   // Default to application preference
; 984  :   uint32_t target_prerender = config.render.framerate.pre_render_limit;
; 985  : 
; 986  :   BOOL already_set = TRUE;
; 987  : 
; 988  :   if (fps_limiter.u32CurrentValue != limit_mask) {
; 989  :     ZeroMemory (&fps_limiter, sizeof NVDRS_SETTING);
; 990  :     fps_limiter.version = NVDRS_SETTING_VER;
; 991  : 
; 992  :     already_set = FALSE;
; 993  : 
; 994  :     NVAPI_SET_DWORD (fps_limiter, PS_FRAMERATE_LIMITER_ID, limit_mask);
; 995  :     NVAPI_CALL      (DRS_SetSetting (hSession, hProfile, &fps_limiter));
; 996  :   }
; 997  : 
; 998  :   // If this == -1, then don't make any changes...
; 999  :   if (target_prerender != -1 && prerendered_frames.u32CurrentValue != target_prerender) {
; 1000 :     ZeroMemory (&prerendered_frames, sizeof NVDRS_SETTING);
; 1001 :     prerendered_frames.version = NVDRS_SETTING_VER;
; 1002 : 
; 1003 :     already_set = FALSE;
; 1004 : 
; 1005 :     NVAPI_SET_DWORD (prerendered_frames, PRERENDERLIMIT_ID, target_prerender);
; 1006 :     NVAPI_CALL      (DRS_SetSetting (hSession, hProfile, &prerendered_frames));
; 1007 :   }
; 1008 : 
; 1009 :   NVAPI_VERBOSE ();
; 1010 : 
; 1011 :   NVAPI_CALL (DRS_SaveSettings   (hSession));
; 1012 :   NVAPI_CALL (DRS_DestroySession (hSession));
; 1013 : 
; 1014 :   if (! already_set) {
; 1015 : #ifdef WIN32
; 1016 :     HMODULE hLib = LoadLibraryW_Original (L"nvapi.dll");
; 1017 : #else
; 1018 :     HMODULE hLib = LoadLibraryW+_Original (L"nvapi64.dll");
; 1019 : #endif
; 1020 : #define __NvAPI_RestartDisplayDriver                      0xB4B26B65
; 1021 :     typedef void* (*NvAPI_QueryInterface_pfn)(unsigned int offset);
; 1022 :     typedef NvAPI_Status(__cdecl *NvAPI_RestartDisplayDriver_pfn)(void);
; 1023 :     NvAPI_QueryInterface_pfn       NvAPI_QueryInterface       =
; 1024 :       (NvAPI_QueryInterface_pfn)GetProcAddress (hLib, "nvapi_QueryInterface");
; 1025 :     NvAPI_RestartDisplayDriver_pfn NvAPI_RestartDisplayDriver =
; 1026 :       (NvAPI_RestartDisplayDriver_pfn)NvAPI_QueryInterface (__NvAPI_RestartDisplayDriver);
; 1027 : 
; 1028 :     NvAPI_RestartDisplayDriver ();
; 1029 :   }
; 1030 : 
; 1031 :   return already_set;
; 1032 : #endif
; 1033 : }

	ret	4
?SK_NvAPI_SetFramerateLimit@@YGHI@Z ENDP		; SK_NvAPI_SetFramerateLimit
_TEXT	ENDS
; Function compile flags: /Ogtp
;	COMDAT ??0property_pair_s@?1??SK_NvAPI_SetAntiAliasingOverride@@YGHPAPB_W@Z@QAE@XZ
_TEXT	SEGMENT
??0property_pair_s@?1??SK_NvAPI_SetAntiAliasingOverride@@YGHPAPB_W@Z@QAE@XZ PROC ; `SK_NvAPI_SetAntiAliasingOverride'::`2'::property_pair_s::property_pair_s, COMDAT
; _this$ = ecx
	mov	DWORD PTR [ecx], 0
	mov	eax, ecx
	mov	DWORD PTR [ecx+4], 0
	ret	0
??0property_pair_s@?1??SK_NvAPI_SetAntiAliasingOverride@@YGHPAPB_W@Z@QAE@XZ ENDP ; `SK_NvAPI_SetAntiAliasingOverride'::`2'::property_pair_s::property_pair_s
_TEXT	ENDS
; Function compile flags: /Ogtp
; File c:\users\andon\source\repos\specialk\src\nvapi.cpp
; File c:\program files (x86)\microsoft visual studio\2017\community\vc\tools\msvc\14.10.25017\include\xstring
; File c:\program files (x86)\microsoft visual studio\2017\community\vc\tools\msvc\14.10.25017\include\xstddef
; File c:\users\andon\source\repos\specialk\src\nvapi.cpp
; File c:\program files (x86)\microsoft visual studio\2017\community\vc\tools\msvc\14.10.25017\include\xstring
; File c:\program files (x86)\microsoft visual studio\2017\community\vc\tools\msvc\14.10.25017\include\xstddef
; File c:\users\andon\source\repos\specialk\src\nvapi.cpp
; File c:\program files (x86)\microsoft visual studio\2017\community\vc\tools\msvc\14.10.25017\include\limits
; File c:\users\andon\source\repos\specialk\src\nvapi.cpp
; File c:\program files (x86)\microsoft visual studio\2017\community\vc\tools\msvc\14.10.25017\include\limits
; File c:\users\andon\source\repos\specialk\src\nvapi.cpp
; File c:\program files (x86)\microsoft visual studio\2017\community\vc\tools\msvc\14.10.25017\include\limits
; File c:\users\andon\source\repos\specialk\src\nvapi.cpp
; File c:\program files (x86)\microsoft visual studio\2017\community\vc\tools\msvc\14.10.25017\include\limits
; File c:\users\andon\source\repos\specialk\src\nvapi.cpp
; File c:\program files (x86)\microsoft visual studio\2017\community\vc\tools\msvc\14.10.25017\include\limits
; File c:\users\andon\source\repos\specialk\src\nvapi.cpp
; File c:\program files (x86)\microsoft visual studio\2017\community\vc\tools\msvc\14.10.25017\include\limits
; File c:\users\andon\source\repos\specialk\src\nvapi.cpp
; File c:\program files (x86)\microsoft visual studio\2017\community\vc\tools\msvc\14.10.25017\include\xstring
; File c:\users\andon\source\repos\specialk\src\nvapi.cpp
; File c:\program files (x86)\microsoft visual studio\2017\community\vc\tools\msvc\14.10.25017\include\xstring
; File c:\users\andon\source\repos\specialk\src\nvapi.cpp
; File c:\program files (x86)\microsoft visual studio\2017\community\vc\tools\msvc\14.10.25017\include\xstring
; File c:\users\andon\source\repos\specialk\src\nvapi.cpp
; File c:\program files (x86)\microsoft visual studio\2017\community\vc\tools\msvc\14.10.25017\include\xstring
; File c:\program files (x86)\microsoft visual studio\2017\community\vc\tools\msvc\14.10.25017\include\xstddef
; File c:\users\andon\source\repos\specialk\src\nvapi.cpp
; File c:\program files (x86)\microsoft visual studio\2017\community\vc\tools\msvc\14.10.25017\include\xstring
; File c:\users\andon\source\repos\specialk\src\nvapi.cpp
; File c:\program files (x86)\microsoft visual studio\2017\community\vc\tools\msvc\14.10.25017\include\xstring
; File c:\program files (x86)\microsoft visual studio\2017\community\vc\tools\msvc\14.10.25017\include\xstddef
; File c:\users\andon\source\repos\specialk\src\nvapi.cpp
; File c:\program files (x86)\microsoft visual studio\2017\community\vc\tools\msvc\14.10.25017\include\xstring
; File c:\users\andon\source\repos\specialk\src\nvapi.cpp
; File c:\program files (x86)\microsoft visual studio\2017\community\vc\tools\msvc\14.10.25017\include\xstring
; File c:\users\andon\source\repos\specialk\src\nvapi.cpp
; File c:\program files (x86)\microsoft visual studio\2017\community\vc\tools\msvc\14.10.25017\include\xstring
; File c:\program files (x86)\microsoft visual studio\2017\community\vc\tools\msvc\14.10.25017\include\xstddef
; File c:\users\andon\source\repos\specialk\src\nvapi.cpp
; File c:\program files (x86)\microsoft visual studio\2017\community\vc\tools\msvc\14.10.25017\include\xstring
; File c:\users\andon\source\repos\specialk\src\nvapi.cpp
; File c:\program files (x86)\microsoft visual studio\2017\community\vc\tools\msvc\14.10.25017\include\xstring
; File c:\users\andon\source\repos\specialk\src\nvapi.cpp
; File c:\program files (x86)\microsoft visual studio\2017\community\vc\tools\msvc\14.10.25017\include\xstring
; File c:\users\andon\source\repos\specialk\src\nvapi.cpp
; File c:\program files (x86)\microsoft visual studio\2017\community\vc\tools\msvc\14.10.25017\include\xstring
; File c:\program files (x86)\microsoft visual studio\2017\community\vc\tools\msvc\14.10.25017\include\xstddef
; File c:\users\andon\source\repos\specialk\src\nvapi.cpp
; File c:\program files (x86)\microsoft visual studio\2017\community\vc\tools\msvc\14.10.25017\include\xstring
; File c:\program files (x86)\microsoft visual studio\2017\community\vc\tools\msvc\14.10.25017\include\xstddef
; File c:\users\andon\source\repos\specialk\src\nvapi.cpp
; File c:\program files (x86)\microsoft visual studio\2017\community\vc\tools\msvc\14.10.25017\include\xstring
; File c:\program files (x86)\microsoft visual studio\2017\community\vc\tools\msvc\14.10.25017\include\xstddef
; File c:\users\andon\source\repos\specialk\src\nvapi.cpp
; File c:\program files (x86)\microsoft visual studio\2017\community\vc\tools\msvc\14.10.25017\include\xstring
; File c:\program files (x86)\microsoft visual studio\2017\community\vc\tools\msvc\14.10.25017\include\xstddef
; File c:\users\andon\source\repos\specialk\src\nvapi.cpp
; File c:\program files (x86)\microsoft visual studio\2017\community\vc\tools\msvc\14.10.25017\include\xstring
; File c:\program files (x86)\microsoft visual studio\2017\community\vc\tools\msvc\14.10.25017\include\xstddef
; File c:\users\andon\source\repos\specialk\src\nvapi.cpp
; File c:\program files (x86)\microsoft visual studio\2017\community\vc\tools\msvc\14.10.25017\include\xstring
; File c:\program files (x86)\microsoft visual studio\2017\community\vc\tools\msvc\14.10.25017\include\xstddef
; File c:\users\andon\source\repos\specialk\src\nvapi.cpp
; File c:\program files (x86)\microsoft visual studio\2017\community\vc\tools\msvc\14.10.25017\include\xstring
; File c:\program files (x86)\microsoft visual studio\2017\community\vc\tools\msvc\14.10.25017\include\xstddef
; File c:\users\andon\source\repos\specialk\src\nvapi.cpp
; File c:\program files (x86)\microsoft visual studio\2017\community\vc\tools\msvc\14.10.25017\include\xstring
; File c:\program files (x86)\microsoft visual studio\2017\community\vc\tools\msvc\14.10.25017\include\xstddef
; File c:\users\andon\source\repos\specialk\src\nvapi.cpp
; File c:\program files (x86)\microsoft visual studio\2017\community\vc\tools\msvc\14.10.25017\include\xstring
; File c:\program files (x86)\microsoft visual studio\2017\community\vc\tools\msvc\14.10.25017\include\xstddef
; File c:\users\andon\source\repos\specialk\src\nvapi.cpp
; File c:\program files (x86)\microsoft visual studio\2017\community\vc\tools\msvc\14.10.25017\include\xstring
; File c:\program files (x86)\microsoft visual studio\2017\community\vc\tools\msvc\14.10.25017\include\xstddef
; File c:\users\andon\source\repos\specialk\src\nvapi.cpp
; File c:\program files (x86)\microsoft visual studio\2017\community\vc\tools\msvc\14.10.25017\include\xstring
; File c:\users\andon\source\repos\specialk\src\nvapi.cpp
; File c:\program files (x86)\microsoft visual studio\2017\community\vc\tools\msvc\14.10.25017\include\xstring
; File c:\users\andon\source\repos\specialk\src\nvapi.cpp
; File c:\program files (x86)\microsoft visual studio\2017\community\vc\tools\msvc\14.10.25017\include\xstring
; File c:\program files (x86)\microsoft visual studio\2017\community\vc\tools\msvc\14.10.25017\include\xstddef
; File c:\users\andon\source\repos\specialk\src\nvapi.cpp
; File c:\program files (x86)\microsoft visual studio\2017\community\vc\tools\msvc\14.10.25017\include\xstring
; File c:\program files (x86)\microsoft visual studio\2017\community\vc\tools\msvc\14.10.25017\include\xstddef
; File c:\users\andon\source\repos\specialk\src\nvapi.cpp
; File c:\program files (x86)\microsoft visual studio\2017\community\vc\tools\msvc\14.10.25017\include\xstring
; File c:\program files (x86)\microsoft visual studio\2017\community\vc\tools\msvc\14.10.25017\include\xstddef
; File c:\users\andon\source\repos\specialk\src\nvapi.cpp
; File c:\program files (x86)\microsoft visual studio\2017\community\vc\tools\msvc\14.10.25017\include\xstring
; File c:\program files (x86)\microsoft visual studio\2017\community\vc\tools\msvc\14.10.25017\include\xstddef
; File c:\users\andon\source\repos\specialk\src\nvapi.cpp
; File c:\program files (x86)\microsoft visual studio\2017\community\vc\tools\msvc\14.10.25017\include\xstring
; File c:\program files (x86)\microsoft visual studio\2017\community\vc\tools\msvc\14.10.25017\include\xstddef
; File c:\users\andon\source\repos\specialk\src\nvapi.cpp
; File c:\program files (x86)\microsoft visual studio\2017\community\vc\tools\msvc\14.10.25017\include\xstring
; File c:\program files (x86)\microsoft visual studio\2017\community\vc\tools\msvc\14.10.25017\include\xstddef
; File c:\users\andon\source\repos\specialk\src\nvapi.cpp
; File c:\program files (x86)\microsoft visual studio\2017\community\vc\tools\msvc\14.10.25017\include\xstring
; File c:\program files (x86)\microsoft visual studio\2017\community\vc\tools\msvc\14.10.25017\include\xstddef
; File c:\users\andon\source\repos\specialk\src\nvapi.cpp
; File c:\program files (x86)\microsoft visual studio\2017\community\vc\tools\msvc\14.10.25017\include\xstring
; File c:\program files (x86)\microsoft visual studio\2017\community\vc\tools\msvc\14.10.25017\include\xstddef
; File c:\users\andon\source\repos\specialk\src\nvapi.cpp
; File c:\program files (x86)\microsoft visual studio\2017\community\vc\tools\msvc\14.10.25017\include\xstring
; File c:\program files (x86)\microsoft visual studio\2017\community\vc\tools\msvc\14.10.25017\include\xstddef
; File c:\users\andon\source\repos\specialk\src\nvapi.cpp
_TEXT	SEGMENT
_app$ = -119080						; size = 20492
$T1 = -98588						; size = 20492
$T2 = -90416						; size = 12320
$T3 = -90416						; size = 12320
$T4 = -90416						; size = 12320
$T5 = -90416						; size = 12320
$T6 = -90416						; size = 12320
$T7 = -90416						; size = 12320
_override_val$ = -78096					; size = 12320
_autobias_val$ = -65776					; size = 12320
_aa_fix_val$ = -53456					; size = 12320
_replay_mode_val$ = -41136				; size = 12320
_method_val$ = -28816					; size = 12320
_compat_bits_val$ = -16496				; size = 12320
_custom_profile$8 = -4176				; size = 4116
_compat_bits_enum$1$ = -60				; size = 4
_pwszPropertyListEntry$1$ = -56				; size = 4
_auto_bias$1$ = -52					; size = 4
_aa_fix$1$ = -48					; size = 4
_compat_bits$1$ = -44					; size = 4
_override$1$ = -40					; size = 4
_replay_mode$1$ = -36					; size = 4
$T9 = -32						; size = 24
$T10 = -32						; size = 24
$T11 = -32						; size = 24
$T12 = -32						; size = 24
$T13 = -32						; size = 24
$T14 = -32						; size = 24
$T15 = -32						; size = 24
$T16 = -32						; size = 24
$T17 = -32						; size = 24
$T18 = -32						; size = 24
$T19 = -32						; size = 24
$T20 = -32						; size = 24
$T21 = -32						; size = 24
$T22 = -32						; size = 24
$T23 = -32						; size = 24
$T24 = -32						; size = 24
$T25 = -32						; size = 24
$T26 = -32						; size = 24
$T27 = -32						; size = 24
$T28 = -32						; size = 24
$T29 = -32						; size = 24
$T30 = -32						; size = 24
$T31 = -32						; size = 24
$T32 = -32						; size = 24
_hProfile$ = -8						; size = 4
_hSession$ = -4						; size = 4
_method$1$ = 8						; size = 4
_pwszPropertyList$ = 8					; size = 4
?SK_NvAPI_SetAntiAliasingOverride@@YGHPAPB_W@Z PROC	; SK_NvAPI_SetAntiAliasingOverride

; 504  : {

	npad	2
	push	ebp
	mov	ebp, esp
	mov	eax, 119080				; 0001d128H
	call	__chkstk

; 505  :   // This stuff only works in DirectX.
; 506  :   if (SK_GetDLLRole () != DXGI && SK_GetDLLRole () != D3D9)

	call	?SK_GetDLLRole@@YG?AW4DLL_ROLE@@XZ	; SK_GetDLLRole
	cmp	eax, 1
	je	SHORT $LN4@SK_NvAPI_S
	call	?SK_GetDLLRole@@YG?AW4DLL_ROLE@@XZ	; SK_GetDLLRole
	cmp	eax, 2
	je	SHORT $LN4@SK_NvAPI_S
$LN733@SK_NvAPI_S:

; 507  :     return FALSE;

	xor	eax, eax

; 883  : }

	mov	esp, ebp
	pop	ebp
	ret	4
$LN4@SK_NvAPI_S:

; 508  : 
; 509  :   if (! nv_hardware)

	cmp	BYTE PTR ?nv_hardware@NVAPI@sk@@3_NA, 0	; sk::NVAPI::nv_hardware
	je	SHORT $LN733@SK_NvAPI_S

; 510  :     return FALSE;
; 511  : 
; 512  :   static bool             init           = false;
; 513  :   static CRITICAL_SECTION cs_aa_override = { };
; 514  : 
; 515  :   if (! init)

	cmp	BYTE PTR ?init@?1??SK_NvAPI_SetAntiAliasingOverride@@YGHPAPB_W@Z@4_NA, 0
	jne	SHORT $LN6@SK_NvAPI_S

; 516  :   {
; 517  :     InitializeCriticalSection (&cs_aa_override);

	push	OFFSET ?cs_aa_override@?1??SK_NvAPI_SetAntiAliasingOverride@@YGHPAPB_W@Z@4U_RTL_CRITICAL_SECTION@@A
	call	DWORD PTR __imp__InitializeCriticalSection@4

; 518  :     init = true;

	mov	BYTE PTR ?init@?1??SK_NvAPI_SetAntiAliasingOverride@@YGHPAPB_W@Z@4_NA, 1
$LN6@SK_NvAPI_S:

; 519  :   }
; 520  : 
; 521  :   EnterCriticalSection (&cs_aa_override);

	push	esi
	push	OFFSET ?cs_aa_override@?1??SK_NvAPI_SetAntiAliasingOverride@@YGHPAPB_W@Z@4U_RTL_CRITICAL_SECTION@@A
	call	DWORD PTR __imp__EnterCriticalSection@4

; 526  :   NVAPI_CALL (DRS_CreateSession (&hSession));

	lea	eax, DWORD PTR _hSession$[ebp]
	mov	DWORD PTR _hSession$[ebp], 0
	push	eax
	call	_NvAPI_DRS_CreateSession
	mov	esi, DWORD PTR __imp__MessageBoxW@16
	add	esp, 4
	cmp	BYTE PTR ?nvapi_silent@@3_NA, 1
	je	SHORT $LN7@SK_NvAPI_S
	test	eax, eax
	je	SHORT $LN7@SK_NvAPI_S
	push	OFFSET $SG165705
	push	OFFSET $SG165706
	push	526					; 0000020eH
	push	OFFSET $SG165707
	push	eax
	lea	eax, DWORD PTR $T32[ebp]
	push	eax
	call	?ErrorMessage@NVAPI@sk@@YA?AV?$basic_string@_WU?$char_traits@_W@std@@V?$allocator@_W@2@@std@@W4_NvAPI_Status@@PBDI11@Z ; sk::NVAPI::ErrorMessage
	add	esp, 24					; 00000018H
; File c:\program files (x86)\microsoft visual studio\2017\community\vc\tools\msvc\14.10.25017\include\xstring

; 1628 : 		return (this->_BUF_SIZE <= _Myres);

	cmp	DWORD PTR [eax+20], 8

; 1621 : 		return (_Large_string_engaged()

	jb	SHORT $LN124@SK_NvAPI_S
; File c:\program files (x86)\microsoft visual studio\2017\community\vc\tools\msvc\14.10.25017\include\xstddef

; 643  : 	return (_Ptr);

	mov	eax, DWORD PTR [eax]
$LN124@SK_NvAPI_S:
; File c:\users\andon\source\repos\specialk\src\nvapi.cpp

; 526  :   NVAPI_CALL (DRS_CreateSession (&hSession));

	push	327744					; 00050040H
	push	OFFSET $SG165704
	push	eax
	push	0
	call	esi
	lea	ecx, DWORD PTR $T32[ebp]
	call	??1?$basic_string@_WU?$char_traits@_W@std@@V?$allocator@_W@2@@std@@QAE@XZ ; std::basic_string<wchar_t,std::char_traits<wchar_t>,std::allocator<wchar_t> >::~basic_string<wchar_t,std::char_traits<wchar_t>,std::allocator<wchar_t> >
$LN7@SK_NvAPI_S:

; 527  :   NVAPI_CALL (DRS_LoadSettings  (hSession));

	push	DWORD PTR _hSession$[ebp]
	call	_NvAPI_DRS_LoadSettings
	add	esp, 4
	cmp	BYTE PTR ?nvapi_silent@@3_NA, 1
	je	SHORT $LN8@SK_NvAPI_S
	test	eax, eax
	je	SHORT $LN8@SK_NvAPI_S
	push	OFFSET $SG165710
	push	OFFSET $SG165711
	push	527					; 0000020fH
	push	OFFSET $SG165712
	push	eax
	lea	eax, DWORD PTR $T31[ebp]
	push	eax
	call	?ErrorMessage@NVAPI@sk@@YA?AV?$basic_string@_WU?$char_traits@_W@std@@V?$allocator@_W@2@@std@@W4_NvAPI_Status@@PBDI11@Z ; sk::NVAPI::ErrorMessage
	add	esp, 24					; 00000018H
; File c:\program files (x86)\microsoft visual studio\2017\community\vc\tools\msvc\14.10.25017\include\xstring

; 1628 : 		return (this->_BUF_SIZE <= _Myres);

	cmp	DWORD PTR [eax+20], 8

; 1621 : 		return (_Large_string_engaged()

	jb	SHORT $LN143@SK_NvAPI_S
; File c:\program files (x86)\microsoft visual studio\2017\community\vc\tools\msvc\14.10.25017\include\xstddef

; 643  : 	return (_Ptr);

	mov	eax, DWORD PTR [eax]
$LN143@SK_NvAPI_S:
; File c:\users\andon\source\repos\specialk\src\nvapi.cpp

; 527  :   NVAPI_CALL (DRS_LoadSettings  (hSession));

	push	327744					; 00050040H
	push	OFFSET $SG165709
	push	eax
	push	0
	call	esi
	lea	ecx, DWORD PTR $T31[ebp]
	call	??1?$basic_string@_WU?$char_traits@_W@std@@V?$allocator@_W@2@@std@@QAE@XZ ; std::basic_string<wchar_t,std::char_traits<wchar_t>,std::allocator<wchar_t> >::~basic_string<wchar_t,std::char_traits<wchar_t>,std::allocator<wchar_t> >
$LN8@SK_NvAPI_S:

; 528  : 
; 529  :   NvDRSProfileHandle hProfile;
; 530  :   NVDRS_APPLICATION  app = { };

	push	ebx
	push	edi
	push	20492					; 0000500cH
	lea	eax, DWORD PTR _app$[ebp]
	push	0
	push	eax
	call	_memset
	add	esp, 12					; 0000000cH

; 533  :     (SK_GetDLLRole () == DXGI ? AA_COMPAT_BITS_DXGI_ID :

	call	?SK_GetDLLRole@@YG?AW4DLL_ROLE@@XZ	; SK_GetDLLRole

; 546  :   prop.wszName  = *(pwszPropertyListEntry++);

	mov	ecx, DWORD PTR _pwszPropertyList$[ebp]
	dec	eax
	neg	eax
	sbb	eax, eax
; File c:\program files (x86)\microsoft visual studio\2017\community\vc\tools\msvc\14.10.25017\include\limits

; 741  : 		return (UINT_MAX);

	or	edi, -1
; File c:\users\andon\source\repos\specialk\src\nvapi.cpp

; 546  :   prop.wszName  = *(pwszPropertyListEntry++);

	mov	ebx, DWORD PTR [ecx]
	and	eax, -905229				; fff22ff3H

; 547  :   prop.wszValue = *(pwszPropertyListEntry++);

	mov	esi, DWORD PTR [ecx+4]
	add	eax, 14888842				; 00e32f8aH
; File c:\program files (x86)\microsoft visual studio\2017\community\vc\tools\msvc\14.10.25017\include\limits

; 741  : 		return (UINT_MAX);

	mov	DWORD PTR _method$1$[ebp], edi
; File c:\users\andon\source\repos\specialk\src\nvapi.cpp

; 547  :   prop.wszValue = *(pwszPropertyListEntry++);

	add	ecx, 8
; File c:\program files (x86)\microsoft visual studio\2017\community\vc\tools\msvc\14.10.25017\include\limits

; 741  : 		return (UINT_MAX);

	or	edi, -1
; File c:\users\andon\source\repos\specialk\src\nvapi.cpp

; 533  :     (SK_GetDLLRole () == DXGI ? AA_COMPAT_BITS_DXGI_ID :

	mov	DWORD PTR _compat_bits_enum$1$[ebp], eax
; File c:\program files (x86)\microsoft visual studio\2017\community\vc\tools\msvc\14.10.25017\include\limits

; 741  : 		return (UINT_MAX);

	mov	DWORD PTR _replay_mode$1$[ebp], edi
; File c:\users\andon\source\repos\specialk\src\nvapi.cpp

; 536  :   NvU32 compat_bits = 0xFFFFFFFF;

	or	eax, -1
; File c:\program files (x86)\microsoft visual studio\2017\community\vc\tools\msvc\14.10.25017\include\limits

; 741  : 		return (UINT_MAX);

	or	edi, -1
; File c:\users\andon\source\repos\specialk\src\nvapi.cpp

; 536  :   NvU32 compat_bits = 0xFFFFFFFF;

	mov	DWORD PTR _compat_bits$1$[ebp], eax
; File c:\program files (x86)\microsoft visual studio\2017\community\vc\tools\msvc\14.10.25017\include\limits

; 741  : 		return (UINT_MAX);

	mov	DWORD PTR _aa_fix$1$[ebp], edi
	or	edi, -1
	mov	DWORD PTR _override$1$[ebp], edi
	or	edi, -1
	mov	DWORD PTR _auto_bias$1$[ebp], edi
	mov	edi, DWORD PTR __imp___wcsicmp
; File c:\users\andon\source\repos\specialk\src\nvapi.cpp

; 547  :   prop.wszValue = *(pwszPropertyListEntry++);

	mov	DWORD PTR _pwszPropertyListEntry$1$[ebp], ecx
$LL2@SK_NvAPI_S:

; 548  : 
; 549  : 
; 550  :   unsigned int method      = std::numeric_limits <unsigned int>::max ();
; 551  :   unsigned int replay_mode = std::numeric_limits <unsigned int>::max ();
; 552  :   unsigned int aa_fix      = std::numeric_limits <unsigned int>::max ();
; 553  :   unsigned int override    = std::numeric_limits <unsigned int>::max ();
; 554  :   unsigned int auto_bias   = std::numeric_limits <unsigned int>::max ();
; 555  : 
; 556  :   while (! ( prop.wszName  == nullptr && 

	test	ebx, ebx
	jne	SHORT $LN9@SK_NvAPI_S
	test	esi, esi
	je	$LN3@SK_NvAPI_S
$LN9@SK_NvAPI_S:

; 557  :              prop.wszValue == nullptr ) )
; 558  :   {
; 559  :     // ...
; 560  : 
; 561  :     if (! _wcsicmp (prop.wszName, L"Override"))

	push	OFFSET $SG165715
	push	ebx
	call	edi
	add	esp, 8
	test	eax, eax
	jne	SHORT $LN17@SK_NvAPI_S

; 562  :     {
; 563  :       if ( (! _wcsicmp (prop.wszValue, L"Yes")) ||

	push	OFFSET $SG165719
	push	esi
	call	edi
	add	esp, 8
	test	eax, eax
	je	SHORT $LN13@SK_NvAPI_S
	push	OFFSET $SG165720
	push	esi
	call	edi
	add	esp, 8
	test	eax, eax
	je	SHORT $LN13@SK_NvAPI_S

; 566  : 
; 567  :       else if ( (! _wcsicmp (prop.wszValue, L"No")) ||

	push	OFFSET $SG165724
	push	esi
	call	edi
	add	esp, 8
	test	eax, eax
	je	SHORT $LN16@SK_NvAPI_S
	push	OFFSET $SG165725
	push	esi
	call	edi
	add	esp, 8
	test	eax, eax
	je	SHORT $LN16@SK_NvAPI_S

; 570  : 
; 571  :       else if ( (! _wcsicmp (prop.wszValue, L"Enhance")) )

	push	OFFSET $SG165727
	push	esi
	call	edi
	add	esp, 8
	test	eax, eax
	jne	SHORT $LN17@SK_NvAPI_S

; 572  :         override = AA_MODE_SELECTOR_ENHANCE;

	mov	DWORD PTR _override$1$[ebp], 2
	jmp	SHORT $LN17@SK_NvAPI_S
$LN16@SK_NvAPI_S:

; 568  :                 (! _wcsicmp (prop.wszValue, L"Off")) )
; 569  :         override = AA_MODE_SELECTOR_APP_CONTROL;

	mov	DWORD PTR _override$1$[ebp], 0
	jmp	SHORT $LN17@SK_NvAPI_S
$LN13@SK_NvAPI_S:

; 564  :            (! _wcsicmp (prop.wszValue, L"On")) )
; 565  :         override = AA_MODE_SELECTOR_OVERRIDE;

	mov	DWORD PTR _override$1$[ebp], 1
$LN17@SK_NvAPI_S:

; 573  :     }
; 574  : 
; 575  :     if (! _wcsicmp (prop.wszName, L"Method"))

	push	OFFSET $SG165730
	push	ebx
	call	edi
	add	esp, 8
	test	eax, eax
	jne	$LN18@SK_NvAPI_S

; 576  :     {
; 577  :       if (! _wcsicmp (prop.wszValue, L"2xMSAA"))

	push	OFFSET $SG165733
	push	esi
	call	edi
	add	esp, 8
	test	eax, eax
	jne	SHORT $LN20@SK_NvAPI_S

; 637  :     }
; 638  : 
; 639  :     prop.wszName  = *(pwszPropertyListEntry++);

	mov	eax, DWORD PTR _pwszPropertyListEntry$1$[ebp]
	mov	DWORD PTR _method$1$[ebp], 14		; 0000000eH
	mov	ebx, DWORD PTR [eax]

; 640  :     prop.wszValue = *(pwszPropertyListEntry++);

	mov	esi, DWORD PTR [eax+4]
	add	eax, 8
	mov	DWORD PTR _pwszPropertyListEntry$1$[ebp], eax

; 641  :   }

	jmp	$LL2@SK_NvAPI_S
$LN20@SK_NvAPI_S:

; 578  :         method = AA_MODE_METHOD_MULTISAMPLE_2X_DIAGONAL;
; 579  : 
; 580  :       else if (! _wcsicmp (prop.wszValue, L"4xMSAA"))

	push	OFFSET $SG165736
	push	esi
	call	edi
	add	esp, 8
	test	eax, eax
	jne	SHORT $LN22@SK_NvAPI_S

; 637  :     }
; 638  : 
; 639  :     prop.wszName  = *(pwszPropertyListEntry++);

	mov	eax, DWORD PTR _pwszPropertyListEntry$1$[ebp]
	mov	DWORD PTR _method$1$[ebp], 16		; 00000010H
	mov	ebx, DWORD PTR [eax]

; 640  :     prop.wszValue = *(pwszPropertyListEntry++);

	mov	esi, DWORD PTR [eax+4]
	add	eax, 8
	mov	DWORD PTR _pwszPropertyListEntry$1$[ebp], eax

; 641  :   }

	jmp	$LL2@SK_NvAPI_S
$LN22@SK_NvAPI_S:

; 581  :         method = AA_MODE_METHOD_MULTISAMPLE_4X;
; 582  : 
; 583  :       else if (! _wcsicmp (prop.wszValue, L"8xMSAA"))

	push	OFFSET $SG165739
	push	esi
	call	edi
	add	esp, 8
	test	eax, eax
	jne	SHORT $LN24@SK_NvAPI_S

; 637  :     }
; 638  : 
; 639  :     prop.wszName  = *(pwszPropertyListEntry++);

	mov	eax, DWORD PTR _pwszPropertyListEntry$1$[ebp]
	mov	DWORD PTR _method$1$[ebp], 37		; 00000025H
	mov	ebx, DWORD PTR [eax]

; 640  :     prop.wszValue = *(pwszPropertyListEntry++);

	mov	esi, DWORD PTR [eax+4]
	add	eax, 8
	mov	DWORD PTR _pwszPropertyListEntry$1$[ebp], eax

; 641  :   }

	jmp	$LL2@SK_NvAPI_S
$LN24@SK_NvAPI_S:

; 584  :         method = AA_MODE_METHOD_MULTISAMPLE_8X;
; 585  : 
; 586  :       else if (! _wcsicmp (prop.wszValue, L"16xMSAA"))

	push	OFFSET $SG165742
	push	esi
	call	edi
	add	esp, 8
	test	eax, eax
	jne	SHORT $LN26@SK_NvAPI_S

; 637  :     }
; 638  : 
; 639  :     prop.wszName  = *(pwszPropertyListEntry++);

	mov	eax, DWORD PTR _pwszPropertyListEntry$1$[ebp]
	mov	DWORD PTR _method$1$[ebp], 28		; 0000001cH
	mov	ebx, DWORD PTR [eax]

; 640  :     prop.wszValue = *(pwszPropertyListEntry++);

	mov	esi, DWORD PTR [eax+4]
	add	eax, 8
	mov	DWORD PTR _pwszPropertyListEntry$1$[ebp], eax

; 641  :   }

	jmp	$LL2@SK_NvAPI_S
$LN26@SK_NvAPI_S:

; 587  :         method = AA_MODE_METHOD_MULTISAMPLE_16X;
; 588  : 
; 589  :       //else if (! wcsicmp (prop.wszValue, L"32xMSAA"))
; 590  :         //method = AA_MODE_METHOD_MULTISAMPLE_32;
; 591  : 
; 592  :       // Allow an arbitrary value to be set if it is expressed as a
; 593  :       //   hexadecimal number.
; 594  :       else if (wcsstr (prop.wszValue, L"0x") == prop.wszValue)

	push	OFFSET $SG165744
	push	esi
	call	DWORD PTR __imp__wcsstr
	add	esp, 8
	cmp	eax, esi
	jne	$LN48@SK_NvAPI_S

; 595  :         method = wcstoul (prop.wszValue, nullptr, 16);

	push	16					; 00000010H
	push	0
	push	esi
	call	DWORD PTR __imp__wcstoul
	mov	DWORD PTR _method$1$[ebp], eax

; 596  :     }

	jmp	$LN731@SK_NvAPI_S
$LN18@SK_NvAPI_S:

; 597  : 
; 598  :     else if (! _wcsicmp (prop.wszName, L"ReplayMode"))

	push	OFFSET $SG165747
	push	ebx
	call	edi
	add	esp, 8
	test	eax, eax
	jne	$LN29@SK_NvAPI_S

; 599  :     {
; 600  :       if (! _wcsicmp (prop.wszValue, L"2xSGSSAA"))

	push	OFFSET $SG165750
	push	esi
	call	edi
	add	esp, 8
	test	eax, eax
	jne	SHORT $LN31@SK_NvAPI_S

; 637  :     }
; 638  : 
; 639  :     prop.wszName  = *(pwszPropertyListEntry++);

	mov	eax, DWORD PTR _pwszPropertyListEntry$1$[ebp]
	mov	DWORD PTR _replay_mode$1$[ebp], 24	; 00000018H
	mov	ebx, DWORD PTR [eax]

; 640  :     prop.wszValue = *(pwszPropertyListEntry++);

	mov	esi, DWORD PTR [eax+4]
	add	eax, 8
	mov	DWORD PTR _pwszPropertyListEntry$1$[ebp], eax

; 641  :   }

	jmp	$LL2@SK_NvAPI_S
$LN31@SK_NvAPI_S:

; 601  :         replay_mode= AA_MODE_REPLAY_SAMPLES_TWO | AA_MODE_REPLAY_MODE_ALL;
; 602  : 
; 603  :       else if (! _wcsicmp (prop.wszValue, L"4xSGSSAA"))

	push	OFFSET $SG165753
	push	esi
	call	edi
	add	esp, 8
	test	eax, eax
	jne	SHORT $LN33@SK_NvAPI_S

; 637  :     }
; 638  : 
; 639  :     prop.wszName  = *(pwszPropertyListEntry++);

	mov	eax, DWORD PTR _pwszPropertyListEntry$1$[ebp]
	mov	DWORD PTR _replay_mode$1$[ebp], 40	; 00000028H
	mov	ebx, DWORD PTR [eax]

; 640  :     prop.wszValue = *(pwszPropertyListEntry++);

	mov	esi, DWORD PTR [eax+4]
	add	eax, 8
	mov	DWORD PTR _pwszPropertyListEntry$1$[ebp], eax

; 641  :   }

	jmp	$LL2@SK_NvAPI_S
$LN33@SK_NvAPI_S:

; 604  :         replay_mode = AA_MODE_REPLAY_SAMPLES_FOUR| AA_MODE_REPLAY_MODE_ALL;
; 605  : 
; 606  :       else if (! _wcsicmp (prop.wszValue, L"8xSGSSAA"))

	push	OFFSET $SG165756
	push	esi
	call	edi
	add	esp, 8
	test	eax, eax
	jne	SHORT $LN35@SK_NvAPI_S

; 637  :     }
; 638  : 
; 639  :     prop.wszName  = *(pwszPropertyListEntry++);

	mov	eax, DWORD PTR _pwszPropertyListEntry$1$[ebp]
	mov	DWORD PTR _replay_mode$1$[ebp], 56	; 00000038H
	mov	ebx, DWORD PTR [eax]

; 640  :     prop.wszValue = *(pwszPropertyListEntry++);

	mov	esi, DWORD PTR [eax+4]
	add	eax, 8
	mov	DWORD PTR _pwszPropertyListEntry$1$[ebp], eax

; 641  :   }

	jmp	$LL2@SK_NvAPI_S
$LN35@SK_NvAPI_S:

; 607  :         replay_mode = AA_MODE_REPLAY_SAMPLES_EIGHT | AA_MODE_REPLAY_MODE_ALL;
; 608  : 
; 609  :       // Allow an arbitrary value to be set if it is expressed as a
; 610  :       //   hexadecimal number.
; 611  :       else if (wcsstr (prop.wszValue, L"0x") == prop.wszValue)

	push	OFFSET $SG165758
	push	esi
	call	DWORD PTR __imp__wcsstr
	add	esp, 8
	cmp	eax, esi
	jne	$LN48@SK_NvAPI_S

; 612  :         replay_mode = wcstoul (prop.wszValue, nullptr, 16);

	push	16					; 00000010H
	push	0
	push	esi
	call	DWORD PTR __imp__wcstoul
	mov	DWORD PTR _replay_mode$1$[ebp], eax

; 613  :     }

	jmp	$LN731@SK_NvAPI_S
$LN29@SK_NvAPI_S:

; 614  : 
; 615  :     else if (! _wcsicmp (prop.wszName, L"AntiAliasFix"))

	push	OFFSET $SG165761
	push	ebx
	call	edi
	add	esp, 8
	test	eax, eax
	jne	SHORT $LN38@SK_NvAPI_S

; 616  :     {
; 617  :       if ( (! _wcsicmp (prop.wszValue, L"On")) ||

	push	OFFSET $SG165765
	push	esi
	call	edi
	add	esp, 8
	test	eax, eax
	je	SHORT $LN42@SK_NvAPI_S
	push	OFFSET $SG165766
	push	esi
	call	edi
	add	esp, 8
	test	eax, eax
	je	SHORT $LN42@SK_NvAPI_S

; 637  :     }
; 638  : 
; 639  :     prop.wszName  = *(pwszPropertyListEntry++);

	mov	eax, DWORD PTR _pwszPropertyListEntry$1$[ebp]
	mov	DWORD PTR _aa_fix$1$[ebp], 1
	mov	ebx, DWORD PTR [eax]

; 640  :     prop.wszValue = *(pwszPropertyListEntry++);

	mov	esi, DWORD PTR [eax+4]
	add	eax, 8
	mov	DWORD PTR _pwszPropertyListEntry$1$[ebp], eax

; 641  :   }

	jmp	$LL2@SK_NvAPI_S
$LN42@SK_NvAPI_S:

; 637  :     }
; 638  : 
; 639  :     prop.wszName  = *(pwszPropertyListEntry++);

	mov	eax, DWORD PTR _pwszPropertyListEntry$1$[ebp]
	mov	DWORD PTR _aa_fix$1$[ebp], 0
	mov	ebx, DWORD PTR [eax]

; 640  :     prop.wszValue = *(pwszPropertyListEntry++);

	mov	esi, DWORD PTR [eax+4]
	add	eax, 8
	mov	DWORD PTR _pwszPropertyListEntry$1$[ebp], eax

; 641  :   }

	jmp	$LL2@SK_NvAPI_S
$LN38@SK_NvAPI_S:

; 618  :            (! _wcsicmp (prop.wszValue, L"Yes")) )
; 619  :         aa_fix = 0x00;
; 620  : 
; 621  :       else
; 622  :         aa_fix = 0x01;
; 623  :     }
; 624  : 
; 625  :     else if (! _wcsicmp (prop.wszName, L"AutoBiasAdjust"))

	push	OFFSET $SG165769
	push	ebx
	call	edi
	add	esp, 8
	test	eax, eax
	jne	SHORT $LN43@SK_NvAPI_S

; 626  :     {
; 627  :       if ( (! _wcsicmp (prop.wszValue, L"On")) ||

	push	OFFSET $SG165773
	push	esi
	call	edi
	add	esp, 8
	test	eax, eax
	je	SHORT $LN47@SK_NvAPI_S
	push	OFFSET $SG165774
	push	esi
	call	edi
	add	esp, 8
	test	eax, eax
	je	SHORT $LN47@SK_NvAPI_S

; 637  :     }
; 638  : 
; 639  :     prop.wszName  = *(pwszPropertyListEntry++);

	mov	eax, DWORD PTR _pwszPropertyListEntry$1$[ebp]
	mov	DWORD PTR _auto_bias$1$[ebp], 0
	mov	ebx, DWORD PTR [eax]

; 640  :     prop.wszValue = *(pwszPropertyListEntry++);

	mov	esi, DWORD PTR [eax+4]
	add	eax, 8
	mov	DWORD PTR _pwszPropertyListEntry$1$[ebp], eax

; 641  :   }

	jmp	$LL2@SK_NvAPI_S
$LN47@SK_NvAPI_S:

; 637  :     }
; 638  : 
; 639  :     prop.wszName  = *(pwszPropertyListEntry++);

	mov	eax, DWORD PTR _pwszPropertyListEntry$1$[ebp]
	mov	DWORD PTR _auto_bias$1$[ebp], 1
	mov	ebx, DWORD PTR [eax]

; 640  :     prop.wszValue = *(pwszPropertyListEntry++);

	mov	esi, DWORD PTR [eax+4]
	add	eax, 8
	mov	DWORD PTR _pwszPropertyListEntry$1$[ebp], eax

; 641  :   }

	jmp	$LL2@SK_NvAPI_S
$LN43@SK_NvAPI_S:

; 628  :            (! _wcsicmp (prop.wszValue, L"Yes")) )
; 629  :         auto_bias = AUTO_LODBIASADJUST_ON;
; 630  :       else
; 631  :         auto_bias = AUTO_LODBIASADJUST_OFF;
; 632  :     }
; 633  : 
; 634  :     else if (! _wcsicmp (prop.wszName, L"CompatibilityBits"))

	push	OFFSET $SG165776
	push	ebx
	call	edi
	add	esp, 8
	test	eax, eax
	jne	SHORT $LN48@SK_NvAPI_S

; 635  :     {
; 636  :       compat_bits = wcstoul (prop.wszValue, nullptr, 16);

	push	16					; 00000010H
	push	eax
	push	esi
	call	DWORD PTR __imp__wcstoul
	mov	DWORD PTR _compat_bits$1$[ebp], eax
$LN731@SK_NvAPI_S:
	add	esp, 12					; 0000000cH
$LN48@SK_NvAPI_S:

; 637  :     }
; 638  : 
; 639  :     prop.wszName  = *(pwszPropertyListEntry++);

	mov	eax, DWORD PTR _pwszPropertyListEntry$1$[ebp]
	mov	ebx, DWORD PTR [eax]

; 640  :     prop.wszValue = *(pwszPropertyListEntry++);

	mov	esi, DWORD PTR [eax+4]
	add	eax, 8
	mov	DWORD PTR _pwszPropertyListEntry$1$[ebp], eax

; 641  :   }

	jmp	$LL2@SK_NvAPI_S
$LN3@SK_NvAPI_S:
; File c:\program files (x86)\microsoft visual studio\2017\community\vc\tools\msvc\14.10.25017\include\xstring

; 1628 : 		return (this->_BUF_SIZE <= _Myres);

	cmp	DWORD PTR ?app_name@NVAPI@sk@@3V?$basic_string@_WU?$char_traits@_W@std@@V?$allocator@_W@2@@std@@A+20, 8
; File c:\users\andon\source\repos\specialk\src\nvapi.cpp

; 648  :   NVAPI_CALL2 ( DRS_FindApplicationByName ( hSession,

	lea	ecx, DWORD PTR _app$[ebp]
	push	ecx
	lea	ecx, DWORD PTR _hProfile$[ebp]
	mov	BYTE PTR ?nvapi_silent@@3_NA, 1
; File c:\program files (x86)\microsoft visual studio\2017\community\vc\tools\msvc\14.10.25017\include\xstring

; 1621 : 		return (_Large_string_engaged()

	mov	eax, OFFSET ?app_name@NVAPI@sk@@3V?$basic_string@_WU?$char_traits@_W@std@@V?$allocator@_W@2@@std@@A ; sk::NVAPI::app_name
; File c:\users\andon\source\repos\specialk\src\nvapi.cpp

; 645  :   app.version = NVDRS_APPLICATION_VER;

	mov	DWORD PTR _app$[ebp], 282636		; 0004500cH
; File c:\program files (x86)\microsoft visual studio\2017\community\vc\tools\msvc\14.10.25017\include\xstring

; 1621 : 		return (_Large_string_engaged()

	cmovae	eax, DWORD PTR ?app_name@NVAPI@sk@@3V?$basic_string@_WU?$char_traits@_W@std@@V?$allocator@_W@2@@std@@A
; File c:\users\andon\source\repos\specialk\src\nvapi.cpp

; 648  :   NVAPI_CALL2 ( DRS_FindApplicationByName ( hSession,

	push	ecx
	push	eax
	push	DWORD PTR _hSession$[ebp]
	call	_NvAPI_DRS_FindApplicationByName
	add	esp, 16					; 00000010H
	mov	esi, eax
	cmp	BYTE PTR ?nvapi_silent@@3_NA, 1
	je	SHORT $LN727@SK_NvAPI_S
	test	esi, esi
	je	SHORT $LN727@SK_NvAPI_S
	push	OFFSET $SG165779
	push	OFFSET $SG165780
	push	652					; 0000028cH
	push	OFFSET $SG165781
	lea	eax, DWORD PTR $T30[ebp]
	push	esi
	push	eax
	call	?ErrorMessage@NVAPI@sk@@YA?AV?$basic_string@_WU?$char_traits@_W@std@@V?$allocator@_W@2@@std@@W4_NvAPI_Status@@PBDI11@Z ; sk::NVAPI::ErrorMessage
	add	esp, 24					; 00000018H
; File c:\program files (x86)\microsoft visual studio\2017\community\vc\tools\msvc\14.10.25017\include\xstring

; 1628 : 		return (this->_BUF_SIZE <= _Myres);

	cmp	DWORD PTR [eax+20], 8

; 1621 : 		return (_Large_string_engaged()

	jb	SHORT $LN199@SK_NvAPI_S
; File c:\program files (x86)\microsoft visual studio\2017\community\vc\tools\msvc\14.10.25017\include\xstddef

; 643  : 	return (_Ptr);

	mov	eax, DWORD PTR [eax]
$LN199@SK_NvAPI_S:
; File c:\users\andon\source\repos\specialk\src\nvapi.cpp

; 648  :   NVAPI_CALL2 ( DRS_FindApplicationByName ( hSession,

	mov	ebx, DWORD PTR __imp__MessageBoxW@16
	push	327744					; 00050040H
	push	OFFSET $SG165778
	push	eax
	push	0
	call	ebx
	lea	ecx, DWORD PTR $T30[ebp]
	call	??1?$basic_string@_WU?$char_traits@_W@std@@V?$allocator@_W@2@@std@@QAE@XZ ; std::basic_string<wchar_t,std::char_traits<wchar_t>,std::allocator<wchar_t> >::~basic_string<wchar_t,std::char_traits<wchar_t>,std::allocator<wchar_t> >
	jmp	SHORT $LN49@SK_NvAPI_S
$LN727@SK_NvAPI_S:
	mov	ebx, DWORD PTR __imp__MessageBoxW@16
$LN49@SK_NvAPI_S:

; 649  :                                               (NvU16 *)app_name.c_str (),
; 650  :                                                 &hProfile,
; 651  :                                                   &app ),
; 652  :                 ret );
; 653  : 
; 654  :   // If no executable exists anywhere by this name, create a profile for it
; 655  :   //   and then add the executable to it.
; 656  :   if (ret == NVAPI_EXECUTABLE_NOT_FOUND)

	cmp	esi, -166				; ffffff5aH
	jne	$LN55@SK_NvAPI_S

; 657  :   {
; 658  :     NVDRS_PROFILE custom_profile = { };

	push	4116					; 00001014H
	lea	eax, DWORD PTR _custom_profile$8[ebp]
	push	0
	push	eax
	call	_memset
	add	esp, 12					; 0000000cH

; 659  : 
; 660  :     custom_profile.isPredefined = false;

	mov	DWORD PTR _custom_profile$8[ebp+4104], 0
; File c:\program files (x86)\microsoft visual studio\2017\community\vc\tools\msvc\14.10.25017\include\xstring

; 1628 : 		return (this->_BUF_SIZE <= _Myres);

	cmp	DWORD PTR ?friendly_name@NVAPI@sk@@3V?$basic_string@_WU?$char_traits@_W@std@@V?$allocator@_W@2@@std@@A+20, 8

; 1621 : 		return (_Large_string_engaged()

	mov	edi, OFFSET ?friendly_name@NVAPI@sk@@3V?$basic_string@_WU?$char_traits@_W@std@@V?$allocator@_W@2@@std@@A ; sk::NVAPI::friendly_name
	mov	eax, edi
	cmovae	eax, DWORD PTR ?friendly_name@NVAPI@sk@@3V?$basic_string@_WU?$char_traits@_W@std@@V?$allocator@_W@2@@std@@A
; File c:\users\andon\source\repos\specialk\src\nvapi.cpp

; 661  :     lstrcpyW ((wchar_t *)custom_profile.profileName, friendly_name.c_str ());

	push	eax
	lea	eax, DWORD PTR _custom_profile$8[ebp+4]
	push	eax
	call	DWORD PTR __imp__lstrcpyW@8

; 668  :       NVAPI_CALL2 (DRS_CreateProfile (hSession, &custom_profile, &hProfile), ret);

	lea	eax, DWORD PTR _hProfile$[ebp]
	mov	DWORD PTR _custom_profile$8[ebp], 69652	; 00011014H
	push	eax
	lea	eax, DWORD PTR _custom_profile$8[ebp]
	mov	BYTE PTR ?nvapi_silent@@3_NA, 1
	push	eax
	push	DWORD PTR _hSession$[ebp]
	call	_NvAPI_DRS_CreateProfile
	add	esp, 12					; 0000000cH
	mov	esi, eax
	cmp	BYTE PTR ?nvapi_silent@@3_NA, 1
	je	SHORT $LN51@SK_NvAPI_S
	test	esi, esi
	je	SHORT $LN51@SK_NvAPI_S
	push	OFFSET $SG165785
	push	OFFSET $SG165786
	push	668					; 0000029cH
	push	OFFSET $SG165787
	lea	eax, DWORD PTR $T29[ebp]
	push	esi
	push	eax
	call	?ErrorMessage@NVAPI@sk@@YA?AV?$basic_string@_WU?$char_traits@_W@std@@V?$allocator@_W@2@@std@@W4_NvAPI_Status@@PBDI11@Z ; sk::NVAPI::ErrorMessage
	add	esp, 24					; 00000018H
; File c:\program files (x86)\microsoft visual studio\2017\community\vc\tools\msvc\14.10.25017\include\xstring

; 1628 : 		return (this->_BUF_SIZE <= _Myres);

	cmp	DWORD PTR [eax+20], 8

; 1621 : 		return (_Large_string_engaged()

	jb	SHORT $LN237@SK_NvAPI_S
; File c:\program files (x86)\microsoft visual studio\2017\community\vc\tools\msvc\14.10.25017\include\xstddef

; 643  : 	return (_Ptr);

	mov	eax, DWORD PTR [eax]
$LN237@SK_NvAPI_S:
; File c:\users\andon\source\repos\specialk\src\nvapi.cpp

; 668  :       NVAPI_CALL2 (DRS_CreateProfile (hSession, &custom_profile, &hProfile), ret);

	push	327744					; 00050040H
	push	OFFSET $SG165784
	push	eax
	push	0
	call	ebx
	lea	ecx, DWORD PTR $T29[ebp]
	call	??1?$basic_string@_WU?$char_traits@_W@std@@V?$allocator@_W@2@@std@@QAE@XZ ; std::basic_string<wchar_t,std::char_traits<wchar_t>,std::allocator<wchar_t> >::~basic_string<wchar_t,std::char_traits<wchar_t>,std::allocator<wchar_t> >
$LN51@SK_NvAPI_S:

; 669  :     }
; 670  :     NVAPI_VERBOSE ()

	mov	BYTE PTR ?nvapi_silent@@3_NA, 0

; 671  : 
; 672  :     // Add the application name to the profile, if a profile already exists
; 673  :     if (ret == NVAPI_PROFILE_NAME_IN_USE)

	cmp	esi, -164				; ffffff5cH
	jne	SHORT $LN53@SK_NvAPI_S
; File c:\program files (x86)\microsoft visual studio\2017\community\vc\tools\msvc\14.10.25017\include\xstring

; 1628 : 		return (this->_BUF_SIZE <= _Myres);

	cmp	DWORD PTR ?friendly_name@NVAPI@sk@@3V?$basic_string@_WU?$char_traits@_W@std@@V?$allocator@_W@2@@std@@A+20, 8
; File c:\users\andon\source\repos\specialk\src\nvapi.cpp

; 674  :       NVAPI_CALL2 ( DRS_FindProfileByName ( hSession,

	lea	ecx, DWORD PTR _hProfile$[ebp]
; File c:\program files (x86)\microsoft visual studio\2017\community\vc\tools\msvc\14.10.25017\include\xstring

; 1621 : 		return (_Large_string_engaged()

	mov	eax, edi
	cmovae	eax, DWORD PTR ?friendly_name@NVAPI@sk@@3V?$basic_string@_WU?$char_traits@_W@std@@V?$allocator@_W@2@@std@@A
; File c:\users\andon\source\repos\specialk\src\nvapi.cpp

; 674  :       NVAPI_CALL2 ( DRS_FindProfileByName ( hSession,

	push	ecx
	push	eax
	push	DWORD PTR _hSession$[ebp]
	call	_NvAPI_DRS_FindProfileByName
	add	esp, 12					; 0000000cH
	mov	esi, eax
	cmp	BYTE PTR ?nvapi_silent@@3_NA, 1
	je	SHORT $LN53@SK_NvAPI_S
	test	esi, esi
	je	SHORT $LN722@SK_NvAPI_S
	push	OFFSET $SG165791
	push	OFFSET $SG165792
	push	677					; 000002a5H
	push	OFFSET $SG165793
	lea	eax, DWORD PTR $T28[ebp]
	push	esi
	push	eax
	call	?ErrorMessage@NVAPI@sk@@YA?AV?$basic_string@_WU?$char_traits@_W@std@@V?$allocator@_W@2@@std@@W4_NvAPI_Status@@PBDI11@Z ; sk::NVAPI::ErrorMessage
	add	esp, 24					; 00000018H
; File c:\program files (x86)\microsoft visual studio\2017\community\vc\tools\msvc\14.10.25017\include\xstring

; 1628 : 		return (this->_BUF_SIZE <= _Myres);

	cmp	DWORD PTR [eax+20], 8

; 1621 : 		return (_Large_string_engaged()

	jb	SHORT $LN275@SK_NvAPI_S
; File c:\program files (x86)\microsoft visual studio\2017\community\vc\tools\msvc\14.10.25017\include\xstddef

; 643  : 	return (_Ptr);

	mov	eax, DWORD PTR [eax]
$LN275@SK_NvAPI_S:
; File c:\users\andon\source\repos\specialk\src\nvapi.cpp

; 674  :       NVAPI_CALL2 ( DRS_FindProfileByName ( hSession,

	push	327744					; 00050040H
	push	OFFSET $SG165790
	push	eax
	push	0
	call	ebx
	lea	ecx, DWORD PTR $T28[ebp]
	call	??1?$basic_string@_WU?$char_traits@_W@std@@V?$allocator@_W@2@@std@@QAE@XZ ; std::basic_string<wchar_t,std::char_traits<wchar_t>,std::allocator<wchar_t> >::~basic_string<wchar_t,std::char_traits<wchar_t>,std::allocator<wchar_t> >
$LN53@SK_NvAPI_S:

; 675  :                                               (NvU16 *)friendly_name.c_str (),
; 676  :                                                 &hProfile),
; 677  :                       ret );
; 678  : 
; 679  :     if (ret == NVAPI_OK)

	test	esi, esi
	jne	$LN54@SK_NvAPI_S
$LN722@SK_NvAPI_S:

; 680  :     {
; 681  :       app = { };

	push	20492					; 0000500cH
	lea	eax, DWORD PTR $T1[ebp]
	push	0
	push	eax
	call	_memset
	push	20492					; 0000500cH
	lea	eax, DWORD PTR $T1[ebp]
	push	eax
	lea	eax, DWORD PTR _app$[ebp]
	push	eax
	call	_memcpy

; 683  :       lstrcpyW ((wchar_t *)app.appName,          app_name.c_str      ());

	mov	esi, DWORD PTR __imp__lstrcpyW@8
	add	esp, 24					; 00000018H
; File c:\program files (x86)\microsoft visual studio\2017\community\vc\tools\msvc\14.10.25017\include\xstring

; 1628 : 		return (this->_BUF_SIZE <= _Myres);

	cmp	DWORD PTR ?app_name@NVAPI@sk@@3V?$basic_string@_WU?$char_traits@_W@std@@V?$allocator@_W@2@@std@@A+20, 8

; 1621 : 		return (_Large_string_engaged()

	mov	eax, OFFSET ?app_name@NVAPI@sk@@3V?$basic_string@_WU?$char_traits@_W@std@@V?$allocator@_W@2@@std@@A ; sk::NVAPI::app_name
	cmovae	eax, DWORD PTR ?app_name@NVAPI@sk@@3V?$basic_string@_WU?$char_traits@_W@std@@V?$allocator@_W@2@@std@@A
; File c:\users\andon\source\repos\specialk\src\nvapi.cpp

; 683  :       lstrcpyW ((wchar_t *)app.appName,          app_name.c_str      ());

	push	eax
	lea	eax, DWORD PTR _app$[ebp+8]
	push	eax
	call	esi
; File c:\program files (x86)\microsoft visual studio\2017\community\vc\tools\msvc\14.10.25017\include\xstring

; 1628 : 		return (this->_BUF_SIZE <= _Myres);

	cmp	DWORD PTR ?friendly_name@NVAPI@sk@@3V?$basic_string@_WU?$char_traits@_W@std@@V?$allocator@_W@2@@std@@A+20, 8
; File c:\users\andon\source\repos\specialk\src\nvapi.cpp

; 684  :       lstrcpyW ((wchar_t *)app.userFriendlyName, friendly_name.c_str ());

	lea	eax, DWORD PTR _app$[ebp+4104]
; File c:\program files (x86)\microsoft visual studio\2017\community\vc\tools\msvc\14.10.25017\include\xstring

; 1621 : 		return (_Large_string_engaged()

	cmovae	edi, DWORD PTR ?friendly_name@NVAPI@sk@@3V?$basic_string@_WU?$char_traits@_W@std@@V?$allocator@_W@2@@std@@A
; File c:\users\andon\source\repos\specialk\src\nvapi.cpp

; 684  :       lstrcpyW ((wchar_t *)app.userFriendlyName, friendly_name.c_str ());

	push	edi
	push	eax
	call	esi

; 685  : 
; 686  :       app.version      = NVDRS_APPLICATION_VER;
; 687  :       app.isPredefined = false;
; 688  :       app.isMetro      = false;

	and	DWORD PTR _app$[ebp+16392], -2		; fffffffeH

; 690  :       NVAPI_CALL2 (DRS_CreateApplication (hSession, hProfile, &app), ret);

	lea	eax, DWORD PTR _app$[ebp]
	push	eax
	push	DWORD PTR _hProfile$[ebp]
	mov	DWORD PTR _app$[ebp], 282636		; 0004500cH
	push	DWORD PTR _hSession$[ebp]
	mov	DWORD PTR _app$[ebp+4], 0
	call	_NvAPI_DRS_CreateApplication
	add	esp, 12					; 0000000cH
	cmp	BYTE PTR ?nvapi_silent@@3_NA, 1
	je	SHORT $LN56@SK_NvAPI_S
	test	eax, eax
	je	SHORT $LN56@SK_NvAPI_S
	push	OFFSET $SG165798
	push	OFFSET $SG165799
	push	690					; 000002b2H
	push	OFFSET $SG165800
	push	eax
	lea	eax, DWORD PTR $T27[ebp]
	push	eax
	call	?ErrorMessage@NVAPI@sk@@YA?AV?$basic_string@_WU?$char_traits@_W@std@@V?$allocator@_W@2@@std@@W4_NvAPI_Status@@PBDI11@Z ; sk::NVAPI::ErrorMessage
	add	esp, 24					; 00000018H
; File c:\program files (x86)\microsoft visual studio\2017\community\vc\tools\msvc\14.10.25017\include\xstring

; 1628 : 		return (this->_BUF_SIZE <= _Myres);

	cmp	DWORD PTR [eax+20], 8

; 1621 : 		return (_Large_string_engaged()

	jb	SHORT $LN332@SK_NvAPI_S
; File c:\program files (x86)\microsoft visual studio\2017\community\vc\tools\msvc\14.10.25017\include\xstddef

; 643  : 	return (_Ptr);

	mov	eax, DWORD PTR [eax]
$LN332@SK_NvAPI_S:
; File c:\users\andon\source\repos\specialk\src\nvapi.cpp

; 690  :       NVAPI_CALL2 (DRS_CreateApplication (hSession, hProfile, &app), ret);

	push	327744					; 00050040H
	push	OFFSET $SG165797
	push	eax
	push	0
	call	ebx
	lea	ecx, DWORD PTR $T27[ebp]
	call	??1?$basic_string@_WU?$char_traits@_W@std@@V?$allocator@_W@2@@std@@QAE@XZ ; std::basic_string<wchar_t,std::char_traits<wchar_t>,std::allocator<wchar_t> >::~basic_string<wchar_t,std::char_traits<wchar_t>,std::allocator<wchar_t> >
$LN56@SK_NvAPI_S:

; 691  :       NVAPI_CALL2 (DRS_SaveSettings      (hSession), ret);

	push	DWORD PTR _hSession$[ebp]
	call	_NvAPI_DRS_SaveSettings
	add	esp, 4
	cmp	BYTE PTR ?nvapi_silent@@3_NA, 1
	je	SHORT $LN55@SK_NvAPI_S
	test	eax, eax
	je	SHORT $LN55@SK_NvAPI_S
	push	OFFSET $SG165803
	push	OFFSET $SG165804
	push	691					; 000002b3H
	push	OFFSET $SG165805
	push	eax
	lea	eax, DWORD PTR $T26[ebp]
	push	eax
	call	?ErrorMessage@NVAPI@sk@@YA?AV?$basic_string@_WU?$char_traits@_W@std@@V?$allocator@_W@2@@std@@W4_NvAPI_Status@@PBDI11@Z ; sk::NVAPI::ErrorMessage
	add	esp, 24					; 00000018H
; File c:\program files (x86)\microsoft visual studio\2017\community\vc\tools\msvc\14.10.25017\include\xstring

; 1628 : 		return (this->_BUF_SIZE <= _Myres);

	cmp	DWORD PTR [eax+20], 8

; 1621 : 		return (_Large_string_engaged()

	jb	SHORT $LN351@SK_NvAPI_S
; File c:\program files (x86)\microsoft visual studio\2017\community\vc\tools\msvc\14.10.25017\include\xstddef

; 643  : 	return (_Ptr);

	mov	eax, DWORD PTR [eax]
$LN351@SK_NvAPI_S:
; File c:\users\andon\source\repos\specialk\src\nvapi.cpp

; 691  :       NVAPI_CALL2 (DRS_SaveSettings      (hSession), ret);

	push	327744					; 00050040H
	push	OFFSET $SG165802
	push	eax
	push	0
	call	ebx
	lea	ecx, DWORD PTR $T26[ebp]
	call	??1?$basic_string@_WU?$char_traits@_W@std@@V?$allocator@_W@2@@std@@QAE@XZ ; std::basic_string<wchar_t,std::char_traits<wchar_t>,std::allocator<wchar_t> >::~basic_string<wchar_t,std::char_traits<wchar_t>,std::allocator<wchar_t> >
$LN55@SK_NvAPI_S:

; 704  :     }
; 705  :   }
; 706  : 
; 707  :   NvU32         method_enum             = AA_MODE_METHOD_ID;
; 708  :   NVDRS_SETTING method_val              = {               };

	push	12320					; 00003020H
	lea	eax, DWORD PTR _method_val$[ebp]
	push	0
	push	eax
	call	_memset

; 709  :                 method_val.version      = NVDRS_SETTING_VER;
; 710  : 
; 711  :   NvU32         replay_mode_enum        = AA_MODE_REPLAY_ID;
; 712  :   NVDRS_SETTING replay_mode_val         = {               };

	push	12320					; 00003020H
	lea	eax, DWORD PTR _replay_mode_val$[ebp]
	mov	DWORD PTR _method_val$[ebp], 77856	; 00013020H
	push	0
	push	eax
	call	_memset

; 713  :                 replay_mode_val.version = NVDRS_SETTING_VER;
; 714  : 
; 715  :   NvU32         aa_fix_enum             = 0x000858F7;
; 716  :   NVDRS_SETTING aa_fix_val              = {               };

	push	12320					; 00003020H
	lea	eax, DWORD PTR _aa_fix_val$[ebp]
	mov	DWORD PTR _replay_mode_val$[ebp], 77856	; 00013020H
	push	0
	push	eax
	call	_memset

; 717  :                 aa_fix_val.version      = NVDRS_SETTING_VER;
; 718  : 
; 719  :   NvU32         override_enum           = AA_MODE_SELECTOR_ID;
; 720  :   NVDRS_SETTING override_val            = {               };

	push	12320					; 00003020H
	lea	eax, DWORD PTR _override_val$[ebp]
	mov	DWORD PTR _aa_fix_val$[ebp], 77856	; 00013020H
	push	0
	push	eax
	call	_memset

; 721  :                 override_val.version    = NVDRS_SETTING_VER;
; 722  : 
; 723  :   NvU32         autobias_enum           = AUTO_LODBIASADJUST_ID;
; 724  :   NVDRS_SETTING autobias_val            = {               };

	push	12320					; 00003020H
	lea	eax, DWORD PTR _autobias_val$[ebp]
	mov	DWORD PTR _override_val$[ebp], 77856	; 00013020H
	push	0
	push	eax
	call	_memset

; 725  :                 autobias_val.version    = NVDRS_SETTING_VER;
; 726  : 
; 727  :   NVDRS_SETTING compat_bits_val         = {               };

	push	12320					; 00003020H
	lea	eax, DWORD PTR _compat_bits_val$[ebp]
	mov	DWORD PTR _autobias_val$[ebp], 77856	; 00013020H
	push	0
	push	eax
	call	_memset
	add	esp, 72					; 00000048H

; 728  :                 compat_bits_val.version = NVDRS_SETTING_VER;

	mov	DWORD PTR _compat_bits_val$[ebp], 77856	; 00013020H

; 732  :   NVAPI_CALL (DRS_GetSetting (hSession, hProfile, method_enum,      &method_val));

	lea	eax, DWORD PTR _method_val$[ebp]
	mov	BYTE PTR ?nvapi_silent@@3_NA, 1
	push	eax
	push	282555346				; 10d773d2H
	push	DWORD PTR _hProfile$[ebp]
	push	DWORD PTR _hSession$[ebp]
	call	_NvAPI_DRS_GetSetting
	add	esp, 16					; 00000010H
	cmp	BYTE PTR ?nvapi_silent@@3_NA, 1
	je	SHORT $LN59@SK_NvAPI_S
	test	eax, eax
	je	SHORT $LN59@SK_NvAPI_S
	push	OFFSET $SG165814
	push	OFFSET $SG165815
	push	732					; 000002dcH
	push	OFFSET $SG165816
	push	eax
	lea	eax, DWORD PTR $T24[ebp]
	push	eax
	call	?ErrorMessage@NVAPI@sk@@YA?AV?$basic_string@_WU?$char_traits@_W@std@@V?$allocator@_W@2@@std@@W4_NvAPI_Status@@PBDI11@Z ; sk::NVAPI::ErrorMessage
	add	esp, 24					; 00000018H
; File c:\program files (x86)\microsoft visual studio\2017\community\vc\tools\msvc\14.10.25017\include\xstring

; 1628 : 		return (this->_BUF_SIZE <= _Myres);

	cmp	DWORD PTR [eax+20], 8

; 1621 : 		return (_Large_string_engaged()

	jb	SHORT $LN427@SK_NvAPI_S
; File c:\program files (x86)\microsoft visual studio\2017\community\vc\tools\msvc\14.10.25017\include\xstddef

; 643  : 	return (_Ptr);

	mov	eax, DWORD PTR [eax]
$LN427@SK_NvAPI_S:
; File c:\users\andon\source\repos\specialk\src\nvapi.cpp

; 732  :   NVAPI_CALL (DRS_GetSetting (hSession, hProfile, method_enum,      &method_val));

	push	327744					; 00050040H
	push	OFFSET $SG165813
	push	eax
	push	0
	call	ebx
	lea	ecx, DWORD PTR $T24[ebp]
	call	??1?$basic_string@_WU?$char_traits@_W@std@@V?$allocator@_W@2@@std@@QAE@XZ ; std::basic_string<wchar_t,std::char_traits<wchar_t>,std::allocator<wchar_t> >::~basic_string<wchar_t,std::char_traits<wchar_t>,std::allocator<wchar_t> >
$LN59@SK_NvAPI_S:

; 733  :   NVAPI_CALL (DRS_GetSetting (hSession, hProfile, replay_mode_enum, &replay_mode_val));

	lea	eax, DWORD PTR _replay_mode_val$[ebp]
	push	eax
	push	282364549				; 10d48a85H
	push	DWORD PTR _hProfile$[ebp]
	push	DWORD PTR _hSession$[ebp]
	call	_NvAPI_DRS_GetSetting
	add	esp, 16					; 00000010H
	cmp	BYTE PTR ?nvapi_silent@@3_NA, 1
	je	SHORT $LN60@SK_NvAPI_S
	test	eax, eax
	je	SHORT $LN60@SK_NvAPI_S
	push	OFFSET $SG165819
	push	OFFSET $SG165820
	push	733					; 000002ddH
	push	OFFSET $SG165821
	push	eax
	lea	eax, DWORD PTR $T23[ebp]
	push	eax
	call	?ErrorMessage@NVAPI@sk@@YA?AV?$basic_string@_WU?$char_traits@_W@std@@V?$allocator@_W@2@@std@@W4_NvAPI_Status@@PBDI11@Z ; sk::NVAPI::ErrorMessage
	add	esp, 24					; 00000018H
; File c:\program files (x86)\microsoft visual studio\2017\community\vc\tools\msvc\14.10.25017\include\xstring

; 1628 : 		return (this->_BUF_SIZE <= _Myres);

	cmp	DWORD PTR [eax+20], 8

; 1621 : 		return (_Large_string_engaged()

	jb	SHORT $LN446@SK_NvAPI_S
; File c:\program files (x86)\microsoft visual studio\2017\community\vc\tools\msvc\14.10.25017\include\xstddef

; 643  : 	return (_Ptr);

	mov	eax, DWORD PTR [eax]
$LN446@SK_NvAPI_S:
; File c:\users\andon\source\repos\specialk\src\nvapi.cpp

; 733  :   NVAPI_CALL (DRS_GetSetting (hSession, hProfile, replay_mode_enum, &replay_mode_val));

	push	327744					; 00050040H
	push	OFFSET $SG165818
	push	eax
	push	0
	call	ebx
	lea	ecx, DWORD PTR $T23[ebp]
	call	??1?$basic_string@_WU?$char_traits@_W@std@@V?$allocator@_W@2@@std@@QAE@XZ ; std::basic_string<wchar_t,std::char_traits<wchar_t>,std::allocator<wchar_t> >::~basic_string<wchar_t,std::char_traits<wchar_t>,std::allocator<wchar_t> >
$LN60@SK_NvAPI_S:

; 734  :   NVAPI_CALL (DRS_GetSetting (hSession, hProfile, aa_fix_enum,      &aa_fix_val));

	lea	eax, DWORD PTR _aa_fix_val$[ebp]
	push	eax
	push	547063					; 000858f7H
	push	DWORD PTR _hProfile$[ebp]
	push	DWORD PTR _hSession$[ebp]
	call	_NvAPI_DRS_GetSetting
	add	esp, 16					; 00000010H
	cmp	BYTE PTR ?nvapi_silent@@3_NA, 1
	je	SHORT $LN61@SK_NvAPI_S
	test	eax, eax
	je	SHORT $LN61@SK_NvAPI_S
	push	OFFSET $SG165824
	push	OFFSET $SG165825
	push	734					; 000002deH
	push	OFFSET $SG165826
	push	eax
	lea	eax, DWORD PTR $T22[ebp]
	push	eax
	call	?ErrorMessage@NVAPI@sk@@YA?AV?$basic_string@_WU?$char_traits@_W@std@@V?$allocator@_W@2@@std@@W4_NvAPI_Status@@PBDI11@Z ; sk::NVAPI::ErrorMessage
	add	esp, 24					; 00000018H
; File c:\program files (x86)\microsoft visual studio\2017\community\vc\tools\msvc\14.10.25017\include\xstring

; 1628 : 		return (this->_BUF_SIZE <= _Myres);

	cmp	DWORD PTR [eax+20], 8

; 1621 : 		return (_Large_string_engaged()

	jb	SHORT $LN465@SK_NvAPI_S
; File c:\program files (x86)\microsoft visual studio\2017\community\vc\tools\msvc\14.10.25017\include\xstddef

; 643  : 	return (_Ptr);

	mov	eax, DWORD PTR [eax]
$LN465@SK_NvAPI_S:
; File c:\users\andon\source\repos\specialk\src\nvapi.cpp

; 734  :   NVAPI_CALL (DRS_GetSetting (hSession, hProfile, aa_fix_enum,      &aa_fix_val));

	push	327744					; 00050040H
	push	OFFSET $SG165823
	push	eax
	push	0
	call	ebx
	lea	ecx, DWORD PTR $T22[ebp]
	call	??1?$basic_string@_WU?$char_traits@_W@std@@V?$allocator@_W@2@@std@@QAE@XZ ; std::basic_string<wchar_t,std::char_traits<wchar_t>,std::allocator<wchar_t> >::~basic_string<wchar_t,std::char_traits<wchar_t>,std::allocator<wchar_t> >
$LN61@SK_NvAPI_S:

; 735  :   NVAPI_CALL (DRS_GetSetting (hSession, hProfile, override_enum,    &override_val));

	lea	eax, DWORD PTR _override_val$[ebp]
	push	eax
	push	276757595				; 107efc5bH
	push	DWORD PTR _hProfile$[ebp]
	push	DWORD PTR _hSession$[ebp]
	call	_NvAPI_DRS_GetSetting
	add	esp, 16					; 00000010H
	cmp	BYTE PTR ?nvapi_silent@@3_NA, 1
	je	SHORT $LN62@SK_NvAPI_S
	test	eax, eax
	je	SHORT $LN62@SK_NvAPI_S
	push	OFFSET $SG165829
	push	OFFSET $SG165830
	push	735					; 000002dfH
	push	OFFSET $SG165831
	push	eax
	lea	eax, DWORD PTR $T21[ebp]
	push	eax
	call	?ErrorMessage@NVAPI@sk@@YA?AV?$basic_string@_WU?$char_traits@_W@std@@V?$allocator@_W@2@@std@@W4_NvAPI_Status@@PBDI11@Z ; sk::NVAPI::ErrorMessage
	add	esp, 24					; 00000018H
; File c:\program files (x86)\microsoft visual studio\2017\community\vc\tools\msvc\14.10.25017\include\xstring

; 1628 : 		return (this->_BUF_SIZE <= _Myres);

	cmp	DWORD PTR [eax+20], 8

; 1621 : 		return (_Large_string_engaged()

	jb	SHORT $LN484@SK_NvAPI_S
; File c:\program files (x86)\microsoft visual studio\2017\community\vc\tools\msvc\14.10.25017\include\xstddef

; 643  : 	return (_Ptr);

	mov	eax, DWORD PTR [eax]
$LN484@SK_NvAPI_S:
; File c:\users\andon\source\repos\specialk\src\nvapi.cpp

; 735  :   NVAPI_CALL (DRS_GetSetting (hSession, hProfile, override_enum,    &override_val));

	push	327744					; 00050040H
	push	OFFSET $SG165828
	push	eax
	push	0
	call	ebx
	lea	ecx, DWORD PTR $T21[ebp]
	call	??1?$basic_string@_WU?$char_traits@_W@std@@V?$allocator@_W@2@@std@@QAE@XZ ; std::basic_string<wchar_t,std::char_traits<wchar_t>,std::allocator<wchar_t> >::~basic_string<wchar_t,std::char_traits<wchar_t>,std::allocator<wchar_t> >
$LN62@SK_NvAPI_S:

; 736  :   NVAPI_CALL (DRS_GetSetting (hSession, hProfile, autobias_enum,    &autobias_val));

	lea	eax, DWORD PTR _autobias_val$[ebp]
	push	eax
	push	6524559					; 00638e8fH
	push	DWORD PTR _hProfile$[ebp]
	push	DWORD PTR _hSession$[ebp]
	call	_NvAPI_DRS_GetSetting
	add	esp, 16					; 00000010H
	cmp	BYTE PTR ?nvapi_silent@@3_NA, 1
	je	SHORT $LN63@SK_NvAPI_S
	test	eax, eax
	je	SHORT $LN63@SK_NvAPI_S
	push	OFFSET $SG165834
	push	OFFSET $SG165835
	push	736					; 000002e0H
	push	OFFSET $SG165836
	push	eax
	lea	eax, DWORD PTR $T20[ebp]
	push	eax
	call	?ErrorMessage@NVAPI@sk@@YA?AV?$basic_string@_WU?$char_traits@_W@std@@V?$allocator@_W@2@@std@@W4_NvAPI_Status@@PBDI11@Z ; sk::NVAPI::ErrorMessage
	add	esp, 24					; 00000018H
; File c:\program files (x86)\microsoft visual studio\2017\community\vc\tools\msvc\14.10.25017\include\xstring

; 1628 : 		return (this->_BUF_SIZE <= _Myres);

	cmp	DWORD PTR [eax+20], 8

; 1621 : 		return (_Large_string_engaged()

	jb	SHORT $LN503@SK_NvAPI_S
; File c:\program files (x86)\microsoft visual studio\2017\community\vc\tools\msvc\14.10.25017\include\xstddef

; 643  : 	return (_Ptr);

	mov	eax, DWORD PTR [eax]
$LN503@SK_NvAPI_S:
; File c:\users\andon\source\repos\specialk\src\nvapi.cpp

; 736  :   NVAPI_CALL (DRS_GetSetting (hSession, hProfile, autobias_enum,    &autobias_val));

	push	327744					; 00050040H
	push	OFFSET $SG165833
	push	eax
	push	0
	call	ebx
	lea	ecx, DWORD PTR $T20[ebp]
	call	??1?$basic_string@_WU?$char_traits@_W@std@@V?$allocator@_W@2@@std@@QAE@XZ ; std::basic_string<wchar_t,std::char_traits<wchar_t>,std::allocator<wchar_t> >::~basic_string<wchar_t,std::char_traits<wchar_t>,std::allocator<wchar_t> >
$LN63@SK_NvAPI_S:

; 737  :   NVAPI_CALL (DRS_GetSetting (hSession, hProfile, compat_bits_enum, &compat_bits_val));

	mov	edi, DWORD PTR _compat_bits_enum$1$[ebp]
	lea	eax, DWORD PTR _compat_bits_val$[ebp]
	push	eax
	push	edi
	push	DWORD PTR _hProfile$[ebp]
	push	DWORD PTR _hSession$[ebp]
	call	_NvAPI_DRS_GetSetting
	add	esp, 16					; 00000010H
	cmp	BYTE PTR ?nvapi_silent@@3_NA, 1
	je	SHORT $LN64@SK_NvAPI_S
	test	eax, eax
	je	SHORT $LN64@SK_NvAPI_S
	push	OFFSET $SG165839
	push	OFFSET $SG165840
	push	737					; 000002e1H
	push	OFFSET $SG165841
	push	eax
	lea	eax, DWORD PTR $T19[ebp]
	push	eax
	call	?ErrorMessage@NVAPI@sk@@YA?AV?$basic_string@_WU?$char_traits@_W@std@@V?$allocator@_W@2@@std@@W4_NvAPI_Status@@PBDI11@Z ; sk::NVAPI::ErrorMessage
	add	esp, 24					; 00000018H
; File c:\program files (x86)\microsoft visual studio\2017\community\vc\tools\msvc\14.10.25017\include\xstring

; 1628 : 		return (this->_BUF_SIZE <= _Myres);

	cmp	DWORD PTR [eax+20], 8

; 1621 : 		return (_Large_string_engaged()

	jb	SHORT $LN522@SK_NvAPI_S
; File c:\program files (x86)\microsoft visual studio\2017\community\vc\tools\msvc\14.10.25017\include\xstddef

; 643  : 	return (_Ptr);

	mov	eax, DWORD PTR [eax]
$LN522@SK_NvAPI_S:
; File c:\users\andon\source\repos\specialk\src\nvapi.cpp

; 737  :   NVAPI_CALL (DRS_GetSetting (hSession, hProfile, compat_bits_enum, &compat_bits_val));

	push	327744					; 00050040H
	push	OFFSET $SG165838
	push	eax
	push	0
	call	ebx
	lea	ecx, DWORD PTR $T19[ebp]
	call	??1?$basic_string@_WU?$char_traits@_W@std@@V?$allocator@_W@2@@std@@QAE@XZ ; std::basic_string<wchar_t,std::char_traits<wchar_t>,std::allocator<wchar_t> >::~basic_string<wchar_t,std::char_traits<wchar_t>,std::allocator<wchar_t> >
$LN64@SK_NvAPI_S:

; 738  :   NVAPI_VERBOSE ();
; 739  : 
; 740  :   BOOL already_set = TRUE;
; 741  : 
; 742  :   // Do this first so we don't touch other settings if this fails
; 743  :   if (compat_bits_val.u32CurrentValue != compat_bits && compat_bits != 0xffffffff)

	mov	eax, DWORD PTR _compat_bits$1$[ebp]
	mov	esi, 1
	mov	BYTE PTR ?nvapi_silent@@3_NA, 0
	cmp	DWORD PTR _compat_bits_val$[ebp+8220], eax
	je	$LN65@SK_NvAPI_S
	cmp	eax, -1
	je	$LN65@SK_NvAPI_S

; 744  :   {
; 745  :     compat_bits_val         = {               };

	push	12320					; 00003020H
	lea	eax, DWORD PTR $T7[ebp]
	push	0
	push	eax
	call	_memset
	push	12320					; 00003020H
	lea	eax, DWORD PTR $T7[ebp]
	push	eax
	lea	eax, DWORD PTR _compat_bits_val$[ebp]
	push	eax
	call	_memcpy

; 746  :     compat_bits_val.version = NVDRS_SETTING_VER;
; 747  : 
; 748  :     ret = NVAPI_ERROR;
; 749  : 
; 750  :     // This requires admin privs, and we will handle that gracefully...
; 751  :     NVAPI_SILENT ();
; 752  :     NVAPI_SET_DWORD (compat_bits_val, compat_bits_enum, compat_bits);

	mov	eax, DWORD PTR _compat_bits$1$[ebp]
	mov	DWORD PTR _compat_bits_val$[ebp+8220], eax

; 753  :     NVAPI_CALL2     (DRS_SetSetting (hSession, hProfile, &compat_bits_val), ret);

	lea	eax, DWORD PTR _compat_bits_val$[ebp]
	push	eax
	push	DWORD PTR _hProfile$[ebp]
	mov	BYTE PTR ?nvapi_silent@@3_NA, 1
	push	DWORD PTR _hSession$[ebp]
	mov	DWORD PTR _compat_bits_val$[ebp], 77856	; 00013020H
	mov	DWORD PTR _compat_bits_val$[ebp+4100], edi
	mov	DWORD PTR _compat_bits_val$[ebp+4104], 0
	mov	DWORD PTR _compat_bits_val$[ebp+4112], 0
	call	_NvAPI_DRS_SetSetting
	add	esp, 36					; 00000024H
	mov	esi, eax
	cmp	BYTE PTR ?nvapi_silent@@3_NA, 1
	je	SHORT $LN66@SK_NvAPI_S
	test	esi, esi
	je	SHORT $LN66@SK_NvAPI_S
	push	OFFSET $SG165845
	push	OFFSET $SG165846
	push	753					; 000002f1H
	push	OFFSET $SG165847
	lea	eax, DWORD PTR $T18[ebp]
	push	esi
	push	eax
	call	?ErrorMessage@NVAPI@sk@@YA?AV?$basic_string@_WU?$char_traits@_W@std@@V?$allocator@_W@2@@std@@W4_NvAPI_Status@@PBDI11@Z ; sk::NVAPI::ErrorMessage
	add	esp, 24					; 00000018H
; File c:\program files (x86)\microsoft visual studio\2017\community\vc\tools\msvc\14.10.25017\include\xstring

; 1628 : 		return (this->_BUF_SIZE <= _Myres);

	cmp	DWORD PTR [eax+20], 8

; 1621 : 		return (_Large_string_engaged()

	jb	SHORT $LN541@SK_NvAPI_S
; File c:\program files (x86)\microsoft visual studio\2017\community\vc\tools\msvc\14.10.25017\include\xstddef

; 643  : 	return (_Ptr);

	mov	eax, DWORD PTR [eax]
$LN541@SK_NvAPI_S:
; File c:\users\andon\source\repos\specialk\src\nvapi.cpp

; 753  :     NVAPI_CALL2     (DRS_SetSetting (hSession, hProfile, &compat_bits_val), ret);

	push	327744					; 00050040H
	push	OFFSET $SG165844
	push	eax
	push	0
	call	ebx
	lea	ecx, DWORD PTR $T18[ebp]
	call	??1?$basic_string@_WU?$char_traits@_W@std@@V?$allocator@_W@2@@std@@QAE@XZ ; std::basic_string<wchar_t,std::char_traits<wchar_t>,std::allocator<wchar_t> >::~basic_string<wchar_t,std::char_traits<wchar_t>,std::allocator<wchar_t> >
$LN66@SK_NvAPI_S:

; 754  :     NVAPI_VERBOSE ();

	mov	BYTE PTR ?nvapi_silent@@3_NA, 0

; 755  : 
; 756  :     // Not running as admin, don't do the override!
; 757  :     if (ret == NVAPI_INVALID_USER_PRIVILEGE)

	cmp	esi, -137				; ffffff77H
	jne	$LN67@SK_NvAPI_S

; 758  :     {
; 759  :       int result = 
; 760  :         MessageBox ( nullptr,

	push	327745					; 00050041H
	push	OFFSET $SG165849
	push	OFFSET $SG165850
	push	0
	call	ebx

; 771  :         NVAPI_CALL (DRS_DestroySession (hSession));

	push	DWORD PTR _hSession$[ebp]
	cmp	eax, 2
	jne	$LN68@SK_NvAPI_S
	call	_NvAPI_DRS_DestroySession
	add	esp, 4
	cmp	BYTE PTR ?nvapi_silent@@3_NA, 1
	je	SHORT $LN69@SK_NvAPI_S
	test	eax, eax
	je	SHORT $LN69@SK_NvAPI_S
	push	OFFSET $SG165854
	push	OFFSET $SG165855
	push	771					; 00000303H
	push	OFFSET $SG165856
	push	eax
	lea	eax, DWORD PTR $T17[ebp]
	push	eax
	call	?ErrorMessage@NVAPI@sk@@YA?AV?$basic_string@_WU?$char_traits@_W@std@@V?$allocator@_W@2@@std@@W4_NvAPI_Status@@PBDI11@Z ; sk::NVAPI::ErrorMessage
	add	esp, 24					; 00000018H
; File c:\program files (x86)\microsoft visual studio\2017\community\vc\tools\msvc\14.10.25017\include\xstring

; 1628 : 		return (this->_BUF_SIZE <= _Myres);

	cmp	DWORD PTR [eax+20], 8

; 1621 : 		return (_Large_string_engaged()

	jb	SHORT $LN560@SK_NvAPI_S
; File c:\program files (x86)\microsoft visual studio\2017\community\vc\tools\msvc\14.10.25017\include\xstddef

; 643  : 	return (_Ptr);

	mov	eax, DWORD PTR [eax]
$LN560@SK_NvAPI_S:
; File c:\users\andon\source\repos\specialk\src\nvapi.cpp

; 771  :         NVAPI_CALL (DRS_DestroySession (hSession));

	push	327744					; 00050040H
	push	OFFSET $SG165853
$LN732@SK_NvAPI_S:
	push	eax
	push	0
	call	ebx
	lea	ecx, DWORD PTR $T17[ebp]
	call	??1?$basic_string@_WU?$char_traits@_W@std@@V?$allocator@_W@2@@std@@QAE@XZ ; std::basic_string<wchar_t,std::char_traits<wchar_t>,std::allocator<wchar_t> >::~basic_string<wchar_t,std::char_traits<wchar_t>,std::allocator<wchar_t> >
$LN69@SK_NvAPI_S:

; 772  : 
; 773  :         LeaveCriticalSection (&cs_aa_override);

	push	OFFSET ?cs_aa_override@?1??SK_NvAPI_SetAntiAliasingOverride@@YGHPAPB_W@Z@4U_RTL_CRITICAL_SECTION@@A
	call	DWORD PTR __imp__LeaveCriticalSection@4
	pop	edi
	pop	ebx

; 774  : 
; 775  :         return FALSE;

	xor	eax, eax
	pop	esi

; 883  : }

	mov	esp, ebp
	pop	ebp
	ret	4
$LN54@SK_NvAPI_S:
; File c:\program files (x86)\microsoft visual studio\2017\community\vc\tools\msvc\14.10.25017\include\xstring

; 1628 : 		return (this->_BUF_SIZE <= _Myres);

	cmp	DWORD PTR ?app_name@NVAPI@sk@@3V?$basic_string@_WU?$char_traits@_W@std@@V?$allocator@_W@2@@std@@A+20, 8

; 1621 : 		return (_Large_string_engaged()

	mov	eax, OFFSET ?app_name@NVAPI@sk@@3V?$basic_string@_WU?$char_traits@_W@std@@V?$allocator@_W@2@@std@@A ; sk::NVAPI::app_name
	cmovae	eax, DWORD PTR ?app_name@NVAPI@sk@@3V?$basic_string@_WU?$char_traits@_W@std@@V?$allocator@_W@2@@std@@A

; 1628 : 		return (this->_BUF_SIZE <= _Myres);

	cmp	DWORD PTR ?friendly_name@NVAPI@sk@@3V?$basic_string@_WU?$char_traits@_W@std@@V?$allocator@_W@2@@std@@A+20, 8
; File c:\users\andon\source\repos\specialk\src\nvapi.cpp

; 696  :       dll_log.Log ( L"[  NvAPI   ] Could not find or create application profile for '%s' (%s)",

	push	eax
; File c:\program files (x86)\microsoft visual studio\2017\community\vc\tools\msvc\14.10.25017\include\xstring

; 1621 : 		return (_Large_string_engaged()

	cmovae	edi, DWORD PTR ?friendly_name@NVAPI@sk@@3V?$basic_string@_WU?$char_traits@_W@std@@V?$allocator@_W@2@@std@@A
; File c:\users\andon\source\repos\specialk\src\nvapi.cpp

; 696  :       dll_log.Log ( L"[  NvAPI   ] Could not find or create application profile for '%s' (%s)",

	push	edi
	push	OFFSET $SG165806
	push	OFFSET ?dll_log@@3UiSK_Logger@@A	; dll_log
	call	?Log@iSK_Logger@@UAAXQB_WZZ		; iSK_Logger::Log

; 699  :       NVAPI_CALL (DRS_DestroySession (hSession));

	push	DWORD PTR _hSession$[ebp]
	call	_NvAPI_DRS_DestroySession
	add	esp, 20					; 00000014H
	cmp	BYTE PTR ?nvapi_silent@@3_NA, 1
	je	SHORT $LN69@SK_NvAPI_S
	test	eax, eax
	je	SHORT $LN69@SK_NvAPI_S
	push	OFFSET $SG165809
	push	OFFSET $SG165810
	push	699					; 000002bbH
	push	OFFSET $SG165811
	push	eax
	lea	eax, DWORD PTR $T25[ebp]
	push	eax
	call	?ErrorMessage@NVAPI@sk@@YA?AV?$basic_string@_WU?$char_traits@_W@std@@V?$allocator@_W@2@@std@@W4_NvAPI_Status@@PBDI11@Z ; sk::NVAPI::ErrorMessage
	add	esp, 24					; 00000018H
; File c:\program files (x86)\microsoft visual studio\2017\community\vc\tools\msvc\14.10.25017\include\xstring

; 1628 : 		return (this->_BUF_SIZE <= _Myres);

	cmp	DWORD PTR [eax+20], 8

; 1621 : 		return (_Large_string_engaged()

	jb	SHORT $LN408@SK_NvAPI_S
; File c:\program files (x86)\microsoft visual studio\2017\community\vc\tools\msvc\14.10.25017\include\xstddef

; 643  : 	return (_Ptr);

	mov	eax, DWORD PTR [eax]
$LN408@SK_NvAPI_S:
; File c:\users\andon\source\repos\specialk\src\nvapi.cpp

; 699  :       NVAPI_CALL (DRS_DestroySession (hSession));

	push	327744					; 00050040H
	push	OFFSET $SG165808

; 700  : 
; 701  :       LeaveCriticalSection (&cs_aa_override);
; 702  : 
; 703  :       return FALSE;

	jmp	$LN732@SK_NvAPI_S
$LN68@SK_NvAPI_S:

; 778  :       NVAPI_CALL (DRS_DestroySession (hSession));

	call	_NvAPI_DRS_DestroySession
	add	esp, 4
	cmp	BYTE PTR ?nvapi_silent@@3_NA, 1
	je	SHORT $LN70@SK_NvAPI_S
	test	eax, eax
	je	SHORT $LN70@SK_NvAPI_S
	push	OFFSET $SG165859
	push	OFFSET $SG165860
	push	778					; 0000030aH
	push	OFFSET $SG165861
	push	eax
	lea	eax, DWORD PTR $T16[ebp]
	push	eax
	call	?ErrorMessage@NVAPI@sk@@YA?AV?$basic_string@_WU?$char_traits@_W@std@@V?$allocator@_W@2@@std@@W4_NvAPI_Status@@PBDI11@Z ; sk::NVAPI::ErrorMessage
	add	esp, 24					; 00000018H
; File c:\program files (x86)\microsoft visual studio\2017\community\vc\tools\msvc\14.10.25017\include\xstring

; 1628 : 		return (this->_BUF_SIZE <= _Myres);

	cmp	DWORD PTR [eax+20], 8

; 1621 : 		return (_Large_string_engaged()

	jb	SHORT $LN579@SK_NvAPI_S
; File c:\program files (x86)\microsoft visual studio\2017\community\vc\tools\msvc\14.10.25017\include\xstddef

; 643  : 	return (_Ptr);

	mov	eax, DWORD PTR [eax]
$LN579@SK_NvAPI_S:
; File c:\users\andon\source\repos\specialk\src\nvapi.cpp

; 778  :       NVAPI_CALL (DRS_DestroySession (hSession));

	push	327744					; 00050040H
	push	OFFSET $SG165858
	push	eax
	push	0
	call	ebx
	lea	ecx, DWORD PTR $T16[ebp]
	call	??1?$basic_string@_WU?$char_traits@_W@std@@V?$allocator@_W@2@@std@@QAE@XZ ; std::basic_string<wchar_t,std::char_traits<wchar_t>,std::allocator<wchar_t> >::~basic_string<wchar_t,std::char_traits<wchar_t>,std::allocator<wchar_t> >
$LN70@SK_NvAPI_S:

; 779  : 
; 780  :       SK_ElevateToAdmin ();

	call	?SK_ElevateToAdmin@@YAXXZ		; SK_ElevateToAdmin
	pop	edi
	pop	ebx

; 781  : 
; 782  :       // Formality, ElevateToAdmin actually kills the process...
; 783  :       return FALSE;

	xor	eax, eax
	pop	esi

; 883  : }

	mov	esp, ebp
	pop	ebp
	ret	4
$LN67@SK_NvAPI_S:

; 784  :     }
; 785  : 
; 786  :     already_set = FALSE;

	xor	esi, esi
$LN65@SK_NvAPI_S:

; 787  :   }
; 788  : 
; 789  :   if (method_val.u32CurrentValue != method && method != -1)

	mov	edi, DWORD PTR _method$1$[ebp]
	cmp	DWORD PTR _method_val$[ebp+8220], edi
	je	$LN71@SK_NvAPI_S
	cmp	edi, -1
	je	$LN71@SK_NvAPI_S

; 790  :   {
; 791  :     method_val         = { };

	push	12320					; 00003020H
	lea	eax, DWORD PTR $T6[ebp]
	push	0
	push	eax
	call	_memset
	push	12320					; 00003020H
	lea	eax, DWORD PTR $T6[ebp]
	push	eax
	lea	eax, DWORD PTR _method_val$[ebp]
	push	eax
	call	_memcpy

; 795  :     NVAPI_CALL      (DRS_SetSetting (hSession, hProfile, &method_val));

	lea	eax, DWORD PTR _method_val$[ebp]
	mov	DWORD PTR _method_val$[ebp], 77856	; 00013020H
	push	eax
	push	DWORD PTR _hProfile$[ebp]
	mov	DWORD PTR _method_val$[ebp+4100], 282555346 ; 10d773d2H
	push	DWORD PTR _hSession$[ebp]
	mov	DWORD PTR _method_val$[ebp+4104], 0
	mov	DWORD PTR _method_val$[ebp+8220], edi
	mov	DWORD PTR _method_val$[ebp+4112], 0
	call	_NvAPI_DRS_SetSetting
	add	esp, 36					; 00000024H
	cmp	BYTE PTR ?nvapi_silent@@3_NA, 1
	je	SHORT $LN72@SK_NvAPI_S
	test	eax, eax
	je	SHORT $LN72@SK_NvAPI_S
	push	OFFSET $SG165865
	push	OFFSET $SG165866
	push	795					; 0000031bH
	push	OFFSET $SG165867
	push	eax
	lea	eax, DWORD PTR $T15[ebp]
	push	eax
	call	?ErrorMessage@NVAPI@sk@@YA?AV?$basic_string@_WU?$char_traits@_W@std@@V?$allocator@_W@2@@std@@W4_NvAPI_Status@@PBDI11@Z ; sk::NVAPI::ErrorMessage
	add	esp, 24					; 00000018H
; File c:\program files (x86)\microsoft visual studio\2017\community\vc\tools\msvc\14.10.25017\include\xstring

; 1628 : 		return (this->_BUF_SIZE <= _Myres);

	cmp	DWORD PTR [eax+20], 8

; 1621 : 		return (_Large_string_engaged()

	jb	SHORT $LN598@SK_NvAPI_S
; File c:\program files (x86)\microsoft visual studio\2017\community\vc\tools\msvc\14.10.25017\include\xstddef

; 643  : 	return (_Ptr);

	mov	eax, DWORD PTR [eax]
$LN598@SK_NvAPI_S:
; File c:\users\andon\source\repos\specialk\src\nvapi.cpp

; 795  :     NVAPI_CALL      (DRS_SetSetting (hSession, hProfile, &method_val));

	push	327744					; 00050040H
	push	OFFSET $SG165864
	push	eax
	push	0
	call	ebx
	lea	ecx, DWORD PTR $T15[ebp]
	call	??1?$basic_string@_WU?$char_traits@_W@std@@V?$allocator@_W@2@@std@@QAE@XZ ; std::basic_string<wchar_t,std::char_traits<wchar_t>,std::allocator<wchar_t> >::~basic_string<wchar_t,std::char_traits<wchar_t>,std::allocator<wchar_t> >
$LN72@SK_NvAPI_S:

; 796  : 
; 797  :     already_set = FALSE;

	xor	esi, esi
$LN71@SK_NvAPI_S:

; 798  :   }
; 799  : 
; 800  :   if (replay_mode_val.u32CurrentValue != replay_mode && replay_mode != -1)

	mov	edi, DWORD PTR _replay_mode$1$[ebp]
	cmp	DWORD PTR _replay_mode_val$[ebp+8220], edi
	je	$LN73@SK_NvAPI_S
	cmp	edi, -1
	je	$LN73@SK_NvAPI_S

; 801  :   {
; 802  :     replay_mode_val         = { };

	push	12320					; 00003020H
	lea	eax, DWORD PTR $T5[ebp]
	push	0
	push	eax
	call	_memset
	push	12320					; 00003020H
	lea	eax, DWORD PTR $T5[ebp]
	push	eax
	lea	eax, DWORD PTR _replay_mode_val$[ebp]
	push	eax
	call	_memcpy

; 806  :     NVAPI_CALL      (DRS_SetSetting (hSession, hProfile, &replay_mode_val));

	lea	eax, DWORD PTR _replay_mode_val$[ebp]
	mov	DWORD PTR _replay_mode_val$[ebp], 77856	; 00013020H
	push	eax
	push	DWORD PTR _hProfile$[ebp]
	mov	DWORD PTR _replay_mode_val$[ebp+4100], 282364549 ; 10d48a85H
	push	DWORD PTR _hSession$[ebp]
	mov	DWORD PTR _replay_mode_val$[ebp+4104], 0
	mov	DWORD PTR _replay_mode_val$[ebp+8220], edi
	mov	DWORD PTR _replay_mode_val$[ebp+4112], 0
	call	_NvAPI_DRS_SetSetting
	add	esp, 36					; 00000024H
	cmp	BYTE PTR ?nvapi_silent@@3_NA, 1
	je	SHORT $LN74@SK_NvAPI_S
	test	eax, eax
	je	SHORT $LN74@SK_NvAPI_S
	push	OFFSET $SG165871
	push	OFFSET $SG165872
	push	806					; 00000326H
	push	OFFSET $SG165873
	push	eax
	lea	eax, DWORD PTR $T14[ebp]
	push	eax
	call	?ErrorMessage@NVAPI@sk@@YA?AV?$basic_string@_WU?$char_traits@_W@std@@V?$allocator@_W@2@@std@@W4_NvAPI_Status@@PBDI11@Z ; sk::NVAPI::ErrorMessage
	add	esp, 24					; 00000018H
; File c:\program files (x86)\microsoft visual studio\2017\community\vc\tools\msvc\14.10.25017\include\xstring

; 1628 : 		return (this->_BUF_SIZE <= _Myres);

	cmp	DWORD PTR [eax+20], 8

; 1621 : 		return (_Large_string_engaged()

	jb	SHORT $LN617@SK_NvAPI_S
; File c:\program files (x86)\microsoft visual studio\2017\community\vc\tools\msvc\14.10.25017\include\xstddef

; 643  : 	return (_Ptr);

	mov	eax, DWORD PTR [eax]
$LN617@SK_NvAPI_S:
; File c:\users\andon\source\repos\specialk\src\nvapi.cpp

; 806  :     NVAPI_CALL      (DRS_SetSetting (hSession, hProfile, &replay_mode_val));

	push	327744					; 00050040H
	push	OFFSET $SG165870
	push	eax
	push	0
	call	ebx
	lea	ecx, DWORD PTR $T14[ebp]
	call	??1?$basic_string@_WU?$char_traits@_W@std@@V?$allocator@_W@2@@std@@QAE@XZ ; std::basic_string<wchar_t,std::char_traits<wchar_t>,std::allocator<wchar_t> >::~basic_string<wchar_t,std::char_traits<wchar_t>,std::allocator<wchar_t> >
$LN74@SK_NvAPI_S:

; 807  : 
; 808  :     already_set = FALSE;

	xor	esi, esi
$LN73@SK_NvAPI_S:

; 809  :   }
; 810  : 
; 811  :   if (SK_IsAdmin ())

	call	?SK_IsAdmin@@YA_NXZ			; SK_IsAdmin
	test	al, al
	je	$LN75@SK_NvAPI_S

; 812  :   {
; 813  :     if (aa_fix_val.u32CurrentValue != aa_fix && aa_fix != -1)

	mov	edi, DWORD PTR _aa_fix$1$[ebp]
	cmp	DWORD PTR _aa_fix_val$[ebp+8220], edi
	je	$LN76@SK_NvAPI_S
	cmp	edi, -1
	je	$LN76@SK_NvAPI_S

; 814  :     {
; 815  :       aa_fix_val         = { };

	push	12320					; 00003020H
	lea	eax, DWORD PTR $T4[ebp]
	push	0
	push	eax
	call	_memset
	push	12320					; 00003020H
	lea	eax, DWORD PTR $T4[ebp]
	push	eax
	lea	eax, DWORD PTR _aa_fix_val$[ebp]
	push	eax
	call	_memcpy

; 819  :       NVAPI_CALL      (DRS_SetSetting (hSession, hProfile, &aa_fix_val));

	lea	eax, DWORD PTR _aa_fix_val$[ebp]
	mov	DWORD PTR _aa_fix_val$[ebp], 77856	; 00013020H
	push	eax
	push	DWORD PTR _hProfile$[ebp]
	mov	DWORD PTR _aa_fix_val$[ebp+4100], 547063 ; 000858f7H
	push	DWORD PTR _hSession$[ebp]
	mov	DWORD PTR _aa_fix_val$[ebp+4104], 0
	mov	DWORD PTR _aa_fix_val$[ebp+8220], edi
	mov	DWORD PTR _aa_fix_val$[ebp+4112], 0
	call	_NvAPI_DRS_SetSetting
	add	esp, 36					; 00000024H
	cmp	BYTE PTR ?nvapi_silent@@3_NA, 1
	je	SHORT $LN78@SK_NvAPI_S
	test	eax, eax
	je	SHORT $LN78@SK_NvAPI_S
	push	OFFSET $SG165879
	push	OFFSET $SG165880
	push	819					; 00000333H
	push	OFFSET $SG165881
	push	eax
	lea	eax, DWORD PTR $T13[ebp]
	push	eax
	call	?ErrorMessage@NVAPI@sk@@YA?AV?$basic_string@_WU?$char_traits@_W@std@@V?$allocator@_W@2@@std@@W4_NvAPI_Status@@PBDI11@Z ; sk::NVAPI::ErrorMessage
	add	esp, 24					; 00000018H
; File c:\program files (x86)\microsoft visual studio\2017\community\vc\tools\msvc\14.10.25017\include\xstring

; 1628 : 		return (this->_BUF_SIZE <= _Myres);

	cmp	DWORD PTR [eax+20], 8

; 1621 : 		return (_Large_string_engaged()

	jb	SHORT $LN636@SK_NvAPI_S
; File c:\program files (x86)\microsoft visual studio\2017\community\vc\tools\msvc\14.10.25017\include\xstddef

; 643  : 	return (_Ptr);

	mov	eax, DWORD PTR [eax]
$LN636@SK_NvAPI_S:
; File c:\users\andon\source\repos\specialk\src\nvapi.cpp

; 819  :       NVAPI_CALL      (DRS_SetSetting (hSession, hProfile, &aa_fix_val));

	push	327744					; 00050040H
	push	OFFSET $SG165878
	push	eax
	push	0
	call	ebx
	lea	ecx, DWORD PTR $T13[ebp]
	call	??1?$basic_string@_WU?$char_traits@_W@std@@V?$allocator@_W@2@@std@@QAE@XZ ; std::basic_string<wchar_t,std::char_traits<wchar_t>,std::allocator<wchar_t> >::~basic_string<wchar_t,std::char_traits<wchar_t>,std::allocator<wchar_t> >
$LN78@SK_NvAPI_S:

; 820  : 
; 821  :       already_set = FALSE;

	xor	esi, esi

; 822  :     }
; 823  :   }
; 824  : 
; 825  :   else

	jmp	SHORT $LN76@SK_NvAPI_S
$LN75@SK_NvAPI_S:

; 826  :   {
; 827  :     dll_log.Log ( L"[  NvAPI   ] *** Cannot set NvDRS Profile Setting '%x' as a normal user, skipping...",

	push	547063					; 000858f7H
	push	OFFSET $SG165882
	push	OFFSET ?dll_log@@3UiSK_Logger@@A	; dll_log
	call	?Log@iSK_Logger@@UAAXQB_WZZ		; iSK_Logger::Log
	add	esp, 12					; 0000000cH
$LN76@SK_NvAPI_S:

; 828  :                     aa_fix_enum );
; 829  :   }
; 830  : 
; 831  :   if (autobias_val.u32CurrentValue != auto_bias && auto_bias != -1)

	mov	edi, DWORD PTR _auto_bias$1$[ebp]
	cmp	DWORD PTR _autobias_val$[ebp+8220], edi
	je	$LN79@SK_NvAPI_S
	cmp	edi, -1
	je	$LN79@SK_NvAPI_S

; 832  :   {
; 833  :     autobias_val         = { };

	push	12320					; 00003020H
	lea	eax, DWORD PTR $T3[ebp]
	push	0
	push	eax
	call	_memset
	push	12320					; 00003020H
	lea	eax, DWORD PTR $T3[ebp]
	push	eax
	lea	eax, DWORD PTR _autobias_val$[ebp]
	push	eax
	call	_memcpy

; 839  :     NVAPI_CALL      (DRS_SetSetting (hSession, hProfile, &autobias_val));

	lea	eax, DWORD PTR _autobias_val$[ebp]
	mov	BYTE PTR ?nvapi_silent@@3_NA, 1
	push	eax
	push	DWORD PTR _hProfile$[ebp]
	mov	DWORD PTR _autobias_val$[ebp], 77856	; 00013020H
	push	DWORD PTR _hSession$[ebp]
	mov	DWORD PTR _autobias_val$[ebp+4100], 6524559 ; 00638e8fH
	mov	DWORD PTR _autobias_val$[ebp+4104], 0
	mov	DWORD PTR _autobias_val$[ebp+8220], edi
	mov	DWORD PTR _autobias_val$[ebp+4112], 0
	call	_NvAPI_DRS_SetSetting
	add	esp, 36					; 00000024H
	cmp	BYTE PTR ?nvapi_silent@@3_NA, 1
	je	SHORT $LN80@SK_NvAPI_S
	test	eax, eax
	je	SHORT $LN80@SK_NvAPI_S
	push	OFFSET $SG165886
	push	OFFSET $SG165887
	push	839					; 00000347H
	push	OFFSET $SG165888
	push	eax
	lea	eax, DWORD PTR $T12[ebp]
	push	eax
	call	?ErrorMessage@NVAPI@sk@@YA?AV?$basic_string@_WU?$char_traits@_W@std@@V?$allocator@_W@2@@std@@W4_NvAPI_Status@@PBDI11@Z ; sk::NVAPI::ErrorMessage
	add	esp, 24					; 00000018H
; File c:\program files (x86)\microsoft visual studio\2017\community\vc\tools\msvc\14.10.25017\include\xstring

; 1628 : 		return (this->_BUF_SIZE <= _Myres);

	cmp	DWORD PTR [eax+20], 8

; 1621 : 		return (_Large_string_engaged()

	jb	SHORT $LN655@SK_NvAPI_S
; File c:\program files (x86)\microsoft visual studio\2017\community\vc\tools\msvc\14.10.25017\include\xstddef

; 643  : 	return (_Ptr);

	mov	eax, DWORD PTR [eax]
$LN655@SK_NvAPI_S:
; File c:\users\andon\source\repos\specialk\src\nvapi.cpp

; 839  :     NVAPI_CALL      (DRS_SetSetting (hSession, hProfile, &autobias_val));

	push	327744					; 00050040H
	push	OFFSET $SG165885
	push	eax
	push	0
	call	ebx
	lea	ecx, DWORD PTR $T12[ebp]
	call	??1?$basic_string@_WU?$char_traits@_W@std@@V?$allocator@_W@2@@std@@QAE@XZ ; std::basic_string<wchar_t,std::char_traits<wchar_t>,std::allocator<wchar_t> >::~basic_string<wchar_t,std::char_traits<wchar_t>,std::allocator<wchar_t> >
$LN80@SK_NvAPI_S:

; 840  :     NVAPI_VERBOSE   ();

	mov	BYTE PTR ?nvapi_silent@@3_NA, 0

; 841  : 
; 842  :     already_set = FALSE;    

	xor	esi, esi
$LN79@SK_NvAPI_S:

; 843  :   }
; 844  : 
; 845  :   if (override_val.u32CurrentValue != override && override != -1)

	mov	edi, DWORD PTR _override$1$[ebp]
	cmp	DWORD PTR _override_val$[ebp+8220], edi
	je	$LN81@SK_NvAPI_S
	cmp	edi, -1
	je	$LN81@SK_NvAPI_S

; 846  :   {
; 847  :     override_val         = { };

	push	12320					; 00003020H
	lea	eax, DWORD PTR $T2[ebp]
	push	0
	push	eax
	call	_memset
	push	12320					; 00003020H
	lea	eax, DWORD PTR $T2[ebp]
	push	eax
	lea	eax, DWORD PTR _override_val$[ebp]
	push	eax
	call	_memcpy

; 851  :     NVAPI_CALL      (DRS_SetSetting (hSession, hProfile, &override_val));

	lea	eax, DWORD PTR _override_val$[ebp]
	mov	DWORD PTR _override_val$[ebp], 77856	; 00013020H
	push	eax
	push	DWORD PTR _hProfile$[ebp]
	mov	DWORD PTR _override_val$[ebp+4100], 276757595 ; 107efc5bH
	push	DWORD PTR _hSession$[ebp]
	mov	DWORD PTR _override_val$[ebp+4104], 0
	mov	DWORD PTR _override_val$[ebp+8220], edi
	mov	DWORD PTR _override_val$[ebp+4112], 0
	call	_NvAPI_DRS_SetSetting
	add	esp, 36					; 00000024H
	cmp	BYTE PTR ?nvapi_silent@@3_NA, 1
	je	SHORT $LN82@SK_NvAPI_S
	test	eax, eax
	je	SHORT $LN82@SK_NvAPI_S
	push	OFFSET $SG165892
	push	OFFSET $SG165893
	push	851					; 00000353H
	push	OFFSET $SG165894
	push	eax
	lea	eax, DWORD PTR $T11[ebp]
	push	eax
	call	?ErrorMessage@NVAPI@sk@@YA?AV?$basic_string@_WU?$char_traits@_W@std@@V?$allocator@_W@2@@std@@W4_NvAPI_Status@@PBDI11@Z ; sk::NVAPI::ErrorMessage
	add	esp, 24					; 00000018H
; File c:\program files (x86)\microsoft visual studio\2017\community\vc\tools\msvc\14.10.25017\include\xstring

; 1628 : 		return (this->_BUF_SIZE <= _Myres);

	cmp	DWORD PTR [eax+20], 8

; 1621 : 		return (_Large_string_engaged()

	jb	SHORT $LN674@SK_NvAPI_S
; File c:\program files (x86)\microsoft visual studio\2017\community\vc\tools\msvc\14.10.25017\include\xstddef

; 643  : 	return (_Ptr);

	mov	eax, DWORD PTR [eax]
$LN674@SK_NvAPI_S:
; File c:\users\andon\source\repos\specialk\src\nvapi.cpp

; 851  :     NVAPI_CALL      (DRS_SetSetting (hSession, hProfile, &override_val));

	push	327744					; 00050040H
	push	OFFSET $SG165891
	push	eax
	push	0
	call	ebx
	lea	ecx, DWORD PTR $T11[ebp]
	call	??1?$basic_string@_WU?$char_traits@_W@std@@V?$allocator@_W@2@@std@@QAE@XZ ; std::basic_string<wchar_t,std::char_traits<wchar_t>,std::allocator<wchar_t> >::~basic_string<wchar_t,std::char_traits<wchar_t>,std::allocator<wchar_t> >
$LN82@SK_NvAPI_S:

; 852  : 
; 853  :     already_set = FALSE;

	xor	esi, esi

; 854  :   }
; 855  : 
; 856  :   if (! already_set)

	jmp	SHORT $LN723@SK_NvAPI_S
$LN81@SK_NvAPI_S:
	test	esi, esi
	jne	SHORT $LN84@SK_NvAPI_S
$LN723@SK_NvAPI_S:

; 875  :     NVAPI_CALL (DRS_SaveSettings (hSession));

	push	DWORD PTR _hSession$[ebp]
	call	_NvAPI_DRS_SaveSettings
	add	esp, 4
	cmp	BYTE PTR ?nvapi_silent@@3_NA, 1
	je	SHORT $LN84@SK_NvAPI_S
	test	eax, eax
	je	SHORT $LN84@SK_NvAPI_S
	push	OFFSET $SG165898
	push	OFFSET $SG165899
	push	875					; 0000036bH
	push	OFFSET $SG165900
	push	eax
	lea	eax, DWORD PTR $T10[ebp]
	push	eax
	call	?ErrorMessage@NVAPI@sk@@YA?AV?$basic_string@_WU?$char_traits@_W@std@@V?$allocator@_W@2@@std@@W4_NvAPI_Status@@PBDI11@Z ; sk::NVAPI::ErrorMessage
	add	esp, 24					; 00000018H
; File c:\program files (x86)\microsoft visual studio\2017\community\vc\tools\msvc\14.10.25017\include\xstring

; 1628 : 		return (this->_BUF_SIZE <= _Myres);

	cmp	DWORD PTR [eax+20], 8

; 1621 : 		return (_Large_string_engaged()

	jb	SHORT $LN693@SK_NvAPI_S
; File c:\program files (x86)\microsoft visual studio\2017\community\vc\tools\msvc\14.10.25017\include\xstddef

; 643  : 	return (_Ptr);

	mov	eax, DWORD PTR [eax]
$LN693@SK_NvAPI_S:
; File c:\users\andon\source\repos\specialk\src\nvapi.cpp

; 875  :     NVAPI_CALL (DRS_SaveSettings (hSession));

	push	327744					; 00050040H
	push	OFFSET $SG165897
	push	eax
	push	0
	call	ebx
	lea	ecx, DWORD PTR $T10[ebp]
	call	??1?$basic_string@_WU?$char_traits@_W@std@@V?$allocator@_W@2@@std@@QAE@XZ ; std::basic_string<wchar_t,std::char_traits<wchar_t>,std::allocator<wchar_t> >::~basic_string<wchar_t,std::char_traits<wchar_t>,std::allocator<wchar_t> >
$LN84@SK_NvAPI_S:

; 878  :   NVAPI_CALL (DRS_DestroySession (hSession));

	push	DWORD PTR _hSession$[ebp]
	call	_NvAPI_DRS_DestroySession
	add	esp, 4
	cmp	BYTE PTR ?nvapi_silent@@3_NA, 1
	je	SHORT $LN85@SK_NvAPI_S
	test	eax, eax
	je	SHORT $LN85@SK_NvAPI_S
	push	OFFSET $SG165903
	push	OFFSET $SG165904
	push	878					; 0000036eH
	push	OFFSET $SG165905
	push	eax
	lea	eax, DWORD PTR $T9[ebp]
	push	eax
	call	?ErrorMessage@NVAPI@sk@@YA?AV?$basic_string@_WU?$char_traits@_W@std@@V?$allocator@_W@2@@std@@W4_NvAPI_Status@@PBDI11@Z ; sk::NVAPI::ErrorMessage
	add	esp, 24					; 00000018H
; File c:\program files (x86)\microsoft visual studio\2017\community\vc\tools\msvc\14.10.25017\include\xstring

; 1628 : 		return (this->_BUF_SIZE <= _Myres);

	cmp	DWORD PTR [eax+20], 8

; 1621 : 		return (_Large_string_engaged()

	jb	SHORT $LN712@SK_NvAPI_S
; File c:\program files (x86)\microsoft visual studio\2017\community\vc\tools\msvc\14.10.25017\include\xstddef

; 643  : 	return (_Ptr);

	mov	eax, DWORD PTR [eax]
$LN712@SK_NvAPI_S:
; File c:\users\andon\source\repos\specialk\src\nvapi.cpp

; 878  :   NVAPI_CALL (DRS_DestroySession (hSession));

	push	327744					; 00050040H
	push	OFFSET $SG165902
	push	eax
	push	0
	call	ebx
	lea	ecx, DWORD PTR $T9[ebp]
	call	??1?$basic_string@_WU?$char_traits@_W@std@@V?$allocator@_W@2@@std@@QAE@XZ ; std::basic_string<wchar_t,std::char_traits<wchar_t>,std::allocator<wchar_t> >::~basic_string<wchar_t,std::char_traits<wchar_t>,std::allocator<wchar_t> >
$LN85@SK_NvAPI_S:

; 879  : 
; 880  :   LeaveCriticalSection (&cs_aa_override);

	push	OFFSET ?cs_aa_override@?1??SK_NvAPI_SetAntiAliasingOverride@@YGHPAPB_W@Z@4U_RTL_CRITICAL_SECTION@@A
	call	DWORD PTR __imp__LeaveCriticalSection@4
	pop	edi
	pop	ebx

; 881  : 
; 882  :   return already_set;

	mov	eax, esi
	pop	esi

; 883  : }

	mov	esp, ebp
	pop	ebp
	ret	4
?SK_NvAPI_SetAntiAliasingOverride@@YGHPAPB_W@Z ENDP	; SK_NvAPI_SetAntiAliasingOverride
_TEXT	ENDS
; Function compile flags: /Ogtp
; File c:\users\andon\source\repos\specialk\src\nvapi.cpp
; File c:\program files (x86)\microsoft visual studio\2017\community\vc\tools\msvc\14.10.25017\include\xstring
; File c:\program files (x86)\microsoft visual studio\2017\community\vc\tools\msvc\14.10.25017\include\iosfwd
; File c:\users\andon\source\repos\specialk\src\nvapi.cpp
; File c:\program files (x86)\microsoft visual studio\2017\community\vc\tools\msvc\14.10.25017\include\iosfwd
; File c:\program files (x86)\microsoft visual studio\2017\community\vc\tools\msvc\14.10.25017\include\xstring
; File c:\program files (x86)\microsoft visual studio\2017\community\vc\tools\msvc\14.10.25017\include\iosfwd
; File c:\program files (x86)\microsoft visual studio\2017\community\vc\tools\msvc\14.10.25017\include\xstring
; File c:\program files (x86)\microsoft visual studio\2017\community\vc\tools\msvc\14.10.25017\include\iosfwd
; File c:\program files (x86)\microsoft visual studio\2017\community\vc\tools\msvc\14.10.25017\include\xstring
; File c:\users\andon\source\repos\specialk\src\nvapi.cpp
_TEXT	SEGMENT
_wszFormattedError$ = -2308				; size = 2048
_szError$ = -260					; size = 256
$T1 = -4						; size = 4
___$ReturnUdt$ = 8					; size = 4
_err$ = 12						; size = 4
_args$ = 16						; size = 4
_line_no$ = 20						; size = 4
_function_name$ = 24					; size = 4
_file_name$ = 28					; size = 4
?ErrorMessage@NVAPI@sk@@YA?AV?$basic_string@_WU?$char_traits@_W@std@@V?$allocator@_W@2@@std@@W4_NvAPI_Status@@PBDI11@Z PROC ; sk::NVAPI::ErrorMessage

; 95   : { char szError [256];

	npad	2
	push	ebp
	mov	ebp, esp
	sub	esp, 2308				; 00000904H
	push	esi

; 96   : 
; 97   :   NvAPI_GetErrorMessage (err, szError);

	lea	eax, DWORD PTR _szError$[ebp]
	mov	DWORD PTR $T1[ebp], 0
	push	eax
	push	DWORD PTR _err$[ebp]
	call	_NvAPI_GetErrorMessage

; 98   : 
; 99   :   wchar_t wszFormattedError [1024] = { };

	push	2048					; 00000800H
	lea	eax, DWORD PTR _wszFormattedError$[ebp]
	push	0
	push	eax
	call	_memset

; 101  :   swprintf ( wszFormattedError, 1024,

	lea	eax, DWORD PTR _szError$[ebp]
	push	eax
	push	DWORD PTR _args$[ebp]
	lea	eax, DWORD PTR _wszFormattedError$[ebp]
	push	DWORD PTR _function_name$[ebp]
	push	DWORD PTR _file_name$[ebp]
	push	DWORD PTR _line_no$[ebp]
	push	OFFSET $SG165368
	push	1024					; 00000400H
	push	eax
	call	_swprintf
; File c:\program files (x86)\microsoft visual studio\2017\community\vc\tools\msvc\14.10.25017\include\xstring

; 3597 : 		_My_data._Mysize = 0;

	mov	esi, DWORD PTR ___$ReturnUdt$[ebp]
; File c:\program files (x86)\microsoft visual studio\2017\community\vc\tools\msvc\14.10.25017\include\iosfwd

; 289  : 		return (_CSTD wcslen(_First));

	lea	ecx, DWORD PTR _wszFormattedError$[ebp]
; File c:\users\andon\source\repos\specialk\src\nvapi.cpp

; 101  :   swprintf ( wszFormattedError, 1024,

	add	esp, 52					; 00000034H
; File c:\program files (x86)\microsoft visual studio\2017\community\vc\tools\msvc\14.10.25017\include\iosfwd

; 289  : 		return (_CSTD wcslen(_First));

	lea	edx, DWORD PTR [ecx+2]

; 326  : 		_Left = _Right;

	xor	eax, eax
; File c:\program files (x86)\microsoft visual studio\2017\community\vc\tools\msvc\14.10.25017\include\xstring

; 3597 : 		_My_data._Mysize = 0;

	mov	DWORD PTR [esi+16], 0

; 3598 : 		_My_data._Myres = this->_BUF_SIZE - 1;

	mov	DWORD PTR [esi+20], 7
; File c:\program files (x86)\microsoft visual studio\2017\community\vc\tools\msvc\14.10.25017\include\iosfwd

; 326  : 		_Left = _Right;

	mov	WORD PTR [esi], ax
$LL29@ErrorMessa:

; 289  : 		return (_CSTD wcslen(_First));

	mov	ax, WORD PTR [ecx]
	add	ecx, 2
	test	ax, ax
	jne	SHORT $LL29@ErrorMessa
	sub	ecx, edx
; File c:\program files (x86)\microsoft visual studio\2017\community\vc\tools\msvc\14.10.25017\include\xstring

; 2429 : 		return (assign(_Ptr, _Traits::length(_Ptr)));

	lea	eax, DWORD PTR _wszFormattedError$[ebp]
; File c:\program files (x86)\microsoft visual studio\2017\community\vc\tools\msvc\14.10.25017\include\iosfwd

; 289  : 		return (_CSTD wcslen(_First));

	sar	ecx, 1
; File c:\program files (x86)\microsoft visual studio\2017\community\vc\tools\msvc\14.10.25017\include\xstring

; 2429 : 		return (assign(_Ptr, _Traits::length(_Ptr)));

	push	ecx
	push	eax
	mov	ecx, esi
	call	?assign@?$basic_string@_WU?$char_traits@_W@std@@V?$allocator@_W@2@@std@@QAEAAV12@QB_WI@Z ; std::basic_string<wchar_t,std::char_traits<wchar_t>,std::allocator<wchar_t> >::assign
