; Listing generated by Microsoft (R) Optimizing Compiler Version 19.10.25019.0 

	TITLE	C:\Users\andon\Source\Repos\SpecialK\src\opengl.cpp
	.686P
	.XMM
	include listing.inc
	.model	flat

INCLUDELIB MSVCRT
INCLUDELIB OLDNAMES

PUBLIC	_imp_glRectdv
PUBLIC	_imp_glCopyTexImage2D
PUBLIC	_imp_glGetPolygonStipple
PUBLIC	_imp_glMultMatrixf
PUBLIC	_imp_glRectf
PUBLIC	_imp_glTexImage2D
PUBLIC	_imp_glGetString
PUBLIC	_imp_glNewList
PUBLIC	_imp_glCopyTexSubImage1D
PUBLIC	_imp_glRectfv
PUBLIC	_imp_glGetTexEnvfv
PUBLIC	_imp_glNormal3b
PUBLIC	_imp_glTexParameterf
PUBLIC	_imp_glRecti
PUBLIC	_imp_glCopyTexSubImage2D
PUBLIC	_imp_glNormal3bv
PUBLIC	_imp_glGetTexEnviv
PUBLIC	_imp_glTexParameterfv
PUBLIC	_imp_glRectiv
PUBLIC	_imp_glNormal3d
PUBLIC	_imp_glGetTexGendv
PUBLIC	_imp_glCullFace
PUBLIC	_imp_glTexParameteri
PUBLIC	?local_gl@@3PAUHINSTANCE__@@A			; local_gl
PUBLIC	_imp_glNormal3dv
PUBLIC	_imp_glRects
PUBLIC	_imp_glDebugEntry
PUBLIC	_imp_wglSwapMultipleBuffers
PUBLIC	_imp_glGetTexGenfv
PUBLIC	_imp_glTexParameteriv
PUBLIC	_imp_wglSwapLayerBuffers
PUBLIC	_imp_glNormal3f
PUBLIC	_imp_glDeleteLists
PUBLIC	_imp_glRectsv
PUBLIC	_imp_glAccum
PUBLIC	_imp_glGetTexGeniv
PUBLIC	_imp_glTexSubImage1D
PUBLIC	_imp_glNormal3fv
PUBLIC	_imp_glRenderMode
PUBLIC	_imp_glDeleteTextures
PUBLIC	_imp_glAlphaFunc
PUBLIC	_imp_glGetTexImage
PUBLIC	_imp_glNormal3i
PUBLIC	_imp_glDepthFunc
PUBLIC	_imp_glRotated
PUBLIC	_imp_glAreTexturesResident
PUBLIC	_imp_glTexSubImage2D
PUBLIC	_imp_glGetTexLevelParameterfv
PUBLIC	_imp_glDepthMask
PUBLIC	_imp_glNormal3iv
PUBLIC	_imp_glArrayElement
PUBLIC	_imp_wglUseFontOutlinesA
PUBLIC	_imp_glRotatef
PUBLIC	_imp_glDepthRange
PUBLIC	_imp_glNormal3s
PUBLIC	_imp_glGetTexLevelParameteriv
PUBLIC	_imp_glTranslated
PUBLIC	_imp_glBegin
PUBLIC	_imp_glScaled
PUBLIC	_imp_glDisable
PUBLIC	_imp_glNormal3sv
PUBLIC	_imp_glBindTexture
PUBLIC	_imp_wglUseFontOutlinesW
PUBLIC	_imp_glGetTexParameterfv
PUBLIC	_imp_glTranslatef
PUBLIC	_imp_glScalef
PUBLIC	_imp_glDisableClientState
PUBLIC	_imp_glNormalPointer
PUBLIC	_imp_glVertex2d
PUBLIC	_imp_glBitmap
PUBLIC	_imp_glGetTexParameteriv
PUBLIC	_imp_glDrawArrays
PUBLIC	_imp_glScissor
PUBLIC	_imp_glOrtho
PUBLIC	_imp_glVertex2dv
PUBLIC	_imp_glHint
PUBLIC	_imp_glDrawBuffer
PUBLIC	_imp_glBlendFunc
PUBLIC	_imp_glSelectBuffer
PUBLIC	_imp_glVertex2f
PUBLIC	_imp_glIndexMask
PUBLIC	_imp_glPassThrough
PUBLIC	_imp_glCallList
PUBLIC	_imp_glDrawElements
PUBLIC	_imp_glShadeModel
PUBLIC	_imp_glVertex2fv
PUBLIC	_imp_glIndexPointer
PUBLIC	_imp_glPixelMapfv
PUBLIC	_imp_glCallLists
PUBLIC	_imp_glStencilFunc
PUBLIC	_imp_glDrawPixels
PUBLIC	_imp_glVertex2i
PUBLIC	_imp_glIndexd
PUBLIC	_imp_glPixelMapuiv
PUBLIC	_imp_glClear
PUBLIC	_imp_glStencilMask
PUBLIC	_imp_glVertex2iv
PUBLIC	_imp_glEdgeFlag
PUBLIC	_imp_glIndexdv
PUBLIC	_imp_glPixelMapusv
PUBLIC	_imp_glClearAccum
PUBLIC	_imp_glStencilOp
PUBLIC	_imp_glVertex2s
PUBLIC	_imp_glEdgeFlagPointer
PUBLIC	_imp_glIndexf
PUBLIC	_imp_glPixelStoref
PUBLIC	?HAS_pipeline_query@GLPerf@@3_NA		; GLPerf::HAS_pipeline_query
PUBLIC	_imp_glVertex2sv
PUBLIC	_imp_glTexCoord1d
PUBLIC	_imp_glClearColor
PUBLIC	_imp_glEdgeFlagv
PUBLIC	_imp_glIndexfv
PUBLIC	_imp_glPixelStorei
PUBLIC	?pipeline_states@GLPerf@@3PAPAVPipelineQuery@1@A ; GLPerf::pipeline_states
PUBLIC	_imp_glTexCoord1dv
PUBLIC	_imp_glIndexi
PUBLIC	_imp_glVertex3d
PUBLIC	_imp_glEnable
PUBLIC	_imp_glClearDepth
PUBLIC	_imp_glTexCoord1f
PUBLIC	_imp_glPixelTransferf
PUBLIC	_imp_glEnableClientState
PUBLIC	_imp_glIndexiv
PUBLIC	_imp_glVertex3dv
PUBLIC	_imp_glClearIndex
PUBLIC	_imp_glTexCoord1fv
PUBLIC	_imp_glIndexs
PUBLIC	_imp_glEnd
PUBLIC	_imp_glPixelTransferi
PUBLIC	_imp_glClearStencil
PUBLIC	_imp_glVertex3f
PUBLIC	_imp_glTexCoord1i
PUBLIC	_imp_glEndList
PUBLIC	_imp_glIndexsv
PUBLIC	_imp_glClipPlane
PUBLIC	_imp_glPixelZoom
PUBLIC	_imp_glVertex3fv
PUBLIC	_imp_glTexCoord1iv
PUBLIC	_imp_glEvalCoord1d
PUBLIC	_imp_glIndexub
PUBLIC	_imp_glPointSize
PUBLIC	_imp_glColor3b
PUBLIC	_imp_glVertex3i
PUBLIC	_imp_glTexCoord1s
PUBLIC	_imp_glIndexubv
PUBLIC	_imp_glEvalCoord1dv
PUBLIC	_imp_glPolygonMode
PUBLIC	_imp_glColor3bv
PUBLIC	_imp_glVertex3iv
PUBLIC	_imp_glTexCoord1sv
PUBLIC	_imp_glEvalCoord1f
PUBLIC	_imp_glInitNames
PUBLIC	_imp_glPolygonOffset
PUBLIC	_imp_glColor3d
PUBLIC	_imp_glVertex3s
PUBLIC	_imp_glTexCoord2d
PUBLIC	_imp_glEvalCoord1fv
PUBLIC	_imp_glInterleavedArrays
PUBLIC	_imp_glPolygonStipple
PUBLIC	_imp_glColor3dv
PUBLIC	_imp_glVertex3sv
PUBLIC	_imp_glTexCoord2dv
PUBLIC	_imp_glEvalCoord2d
PUBLIC	_imp_glIsEnabled
PUBLIC	_imp_glPopAttrib
PUBLIC	_imp_glColor3f
PUBLIC	_imp_glTexCoord2f
PUBLIC	_imp_glEvalCoord2dv
PUBLIC	_imp_glVertex4d
PUBLIC	_imp_glIsList
PUBLIC	_imp_glPopClientAttrib
PUBLIC	_imp_glTexCoord2fv
PUBLIC	_imp_glColor3fv
PUBLIC	_imp_glEvalCoord2f
PUBLIC	_imp_glIsTexture
PUBLIC	_imp_glVertex4dv
PUBLIC	_imp_glPopMatrix
PUBLIC	_imp_glTexCoord2i
PUBLIC	_imp_glColor3i
PUBLIC	_imp_glEvalCoord2fv
PUBLIC	_imp_glLightModelf
PUBLIC	_imp_glPopName
PUBLIC	_imp_glVertex4f
PUBLIC	_imp_glTexCoord2iv
PUBLIC	_imp_glColor3iv
PUBLIC	_imp_glEvalMesh1
PUBLIC	_imp_glLightModelfv
PUBLIC	_imp_glPrioritizeTextures
PUBLIC	_imp_glVertex4fv
PUBLIC	_imp_glTexCoord2s
PUBLIC	_imp_glColor3s
PUBLIC	_imp_glLightModeli
PUBLIC	_imp_glPushAttrib
PUBLIC	_imp_glEvalMesh2
PUBLIC	_imp_glVertex4i
PUBLIC	_imp_glTexCoord2sv
PUBLIC	_imp_glColor3sv
PUBLIC	_imp_glLightModeliv
PUBLIC	_imp_glPushClientAttrib
PUBLIC	_imp_glEvalPoint1
PUBLIC	_imp_glVertex4iv
PUBLIC	_imp_glTexCoord3d
PUBLIC	_imp_glColor3ub
PUBLIC	_imp_glPushMatrix
PUBLIC	_imp_glLightf
PUBLIC	_imp_glEvalPoint2
PUBLIC	_imp_glVertex4s
PUBLIC	_imp_glTexCoord3dv
PUBLIC	_imp_glPushName
PUBLIC	_imp_glColor3ubv
PUBLIC	_imp_glLightfv
PUBLIC	_imp_glFeedbackBuffer
PUBLIC	_imp_glVertex4sv
PUBLIC	_imp_glTexCoord3f
PUBLIC	_imp_glRasterPos2d
PUBLIC	_imp_glColor3ui
PUBLIC	_imp_glLighti
PUBLIC	_imp_glFinish
PUBLIC	_imp_glVertexPointer
PUBLIC	_imp_glTexCoord3fv
PUBLIC	_imp_glRasterPos2dv
PUBLIC	_imp_glColor3uiv
PUBLIC	_imp_glFlush
PUBLIC	_imp_glLightiv
PUBLIC	_imp_glRasterPos2f
PUBLIC	_imp_glTexCoord3i
PUBLIC	_imp_glViewport
PUBLIC	_imp_glColor3us
PUBLIC	_imp_glFogf
PUBLIC	_imp_glLineStipple
PUBLIC	_imp_glRasterPos2fv
PUBLIC	_imp_glTexCoord3iv
PUBLIC	_imp_glColor3usv
PUBLIC	_imp_wglCopyContext
PUBLIC	_imp_glFogfv
PUBLIC	_imp_glLineWidth
PUBLIC	_imp_glRasterPos2i
PUBLIC	_imp_glTexCoord3s
PUBLIC	_imp_glColor4b
PUBLIC	_imp_wglCreateContext
PUBLIC	_imp_glFogi
PUBLIC	_imp_glListBase
PUBLIC	_imp_glRasterPos2iv
PUBLIC	_imp_glTexCoord3sv
PUBLIC	_imp_wglCreateLayerContext
PUBLIC	_imp_glColor4bv
PUBLIC	_imp_glFogiv
PUBLIC	_imp_glLoadIdentity
PUBLIC	_imp_glRasterPos2s
PUBLIC	_imp_glTexCoord4d
PUBLIC	_imp_wglDeleteContext
PUBLIC	_imp_glFrontFace
PUBLIC	_imp_glLoadMatrixd
PUBLIC	_imp_glColor4d
PUBLIC	_imp_glRasterPos2sv
PUBLIC	_imp_glTexCoord4dv
PUBLIC	_imp_wglGetCurrentContext
PUBLIC	_imp_glLoadMatrixf
PUBLIC	_imp_glColor4dv
PUBLIC	_imp_glFrustum
PUBLIC	_imp_glRasterPos3d
PUBLIC	_imp_wglGetCurrentDC
PUBLIC	_imp_glLoadName
PUBLIC	_imp_glTexCoord4f
PUBLIC	_imp_glColor4f
PUBLIC	_imp_glRasterPos3dv
PUBLIC	_imp_glGenLists
PUBLIC	_imp_wglGetProcAddress
PUBLIC	_imp_glLogicOp
PUBLIC	_imp_glTexCoord4fv
PUBLIC	_imp_glRasterPos3f
PUBLIC	_imp_glColor4fv
PUBLIC	_imp_glGenTextures
PUBLIC	_imp_wglMakeCurrent
PUBLIC	_imp_glMap1d
PUBLIC	_imp_glTexCoord4i
PUBLIC	_imp_glRasterPos3fv
PUBLIC	_imp_glGetBooleanv
PUBLIC	_imp_glColor4i
PUBLIC	_imp_wglShareLists
PUBLIC	_imp_glTexCoord4iv
PUBLIC	_imp_glRasterPos3i
PUBLIC	_imp_glGetClipPlane
PUBLIC	_imp_glMap1f
PUBLIC	_imp_glColor4iv
PUBLIC	_imp_wglUseFontBitmapsA
PUBLIC	_imp_glTexCoord4s
PUBLIC	_imp_glRasterPos3iv
PUBLIC	_imp_glGetDoublev
PUBLIC	_imp_glColor4s
PUBLIC	_imp_wglUseFontBitmapsW
PUBLIC	_imp_glMap2d
PUBLIC	_imp_glTexCoord4sv
PUBLIC	_imp_glGetError
PUBLIC	_imp_glRasterPos3s
PUBLIC	_imp_glColor4sv
PUBLIC	_imp_wglChoosePixelFormat
PUBLIC	_imp_glTexCoordPointer
PUBLIC	_imp_glGetFloatv
PUBLIC	_imp_glRasterPos3sv
PUBLIC	_imp_glColor4ub
PUBLIC	?cegGL@@3PAVOpenGL3Renderer@CEGUI@@A		; cegGL
PUBLIC	_imp_glMap2f
PUBLIC	_imp_glGetIntegerv
PUBLIC	_imp_glRasterPos4d
PUBLIC	_imp_glTexEnvf
PUBLIC	_imp_glColor4ubv
PUBLIC	_imp_glGetLightfv
PUBLIC	_imp_glRasterPos4dv
PUBLIC	_imp_glTexEnvfv
PUBLIC	_imp_glMapGrid1d
PUBLIC	_imp_glColor4ui
PUBLIC	_imp_glGetLightiv
PUBLIC	_imp_glRasterPos4f
PUBLIC	_imp_wglDescribeLayerPlane
PUBLIC	_imp_glTexEnvi
PUBLIC	_imp_glMapGrid1f
PUBLIC	_imp_glColor4uiv
PUBLIC	_imp_glGetMapdv
PUBLIC	_imp_glRasterPos4fv
PUBLIC	_imp_glTexEnviv
PUBLIC	_imp_glColor4us
PUBLIC	_imp_wglDescribePixelFormat
PUBLIC	_imp_glMapGrid2d
PUBLIC	_imp_glRasterPos4i
PUBLIC	_imp_glGetMapfv
PUBLIC	_imp_glColor4usv
PUBLIC	_imp_glTexGend
PUBLIC	_imp_wglGetLayerPaletteEntries
PUBLIC	_imp_glMapGrid2f
PUBLIC	_imp_glRasterPos4iv
PUBLIC	_imp_glGetMapiv
PUBLIC	_imp_glColorMask
PUBLIC	_imp_glTexGendv
PUBLIC	_imp_wglGetPixelFormat
PUBLIC	_imp_glRasterPos4s
PUBLIC	_imp_glGetMaterialfv
PUBLIC	_imp_glMaterialf
PUBLIC	_imp_glColorMaterial
PUBLIC	_imp_glTexGenf
PUBLIC	_imp_glRasterPos4sv
PUBLIC	_imp_wglRealizeLayerPalette
PUBLIC	_imp_glMaterialfv
PUBLIC	_imp_glGetMaterialiv
PUBLIC	_imp_glColorPointer
PUBLIC	_imp_glTexGenfv
PUBLIC	_imp_glReadBuffer
PUBLIC	?__gl_ready@@3JC				; __gl_ready
PUBLIC	_imp_glGetPixelMapfv
PUBLIC	_imp_wglSetLayerPaletteEntries
PUBLIC	_imp_glMateriali
PUBLIC	_imp_glTexGeni
PUBLIC	_imp_glCopyPixels
PUBLIC	?gdi_swap_buffers@@3P6GHPAUHDC__@@@ZA		; gdi_swap_buffers
PUBLIC	?wgl_swap_buffers@@3P6GHPAUHDC__@@@ZA		; wgl_swap_buffers
PUBLIC	_imp_glReadPixels
PUBLIC	?GL_HOOKED@@3HA					; GL_HOOKED
PUBLIC	?GL_HOOKS@@3KA					; GL_HOOKS
PUBLIC	_imp_glGetPixelMapuiv
PUBLIC	_imp_glMaterialiv
PUBLIC	_imp_wglSetPixelFormat
PUBLIC	_imp_glTexGeniv
PUBLIC	_imp_glCopyTexImage1D
PUBLIC	_imp_glGetPixelMapusv
PUBLIC	_imp_glMatrixMode
PUBLIC	_imp_glRectd
PUBLIC	_imp_glTexImage1D
PUBLIC	_imp_glGetPointerv
PUBLIC	_imp_glMultMatrixd
_BSS	SEGMENT
_imp_glRectdv DD 01H DUP (?)
_imp_glCopyTexImage2D DD 01H DUP (?)
_imp_glGetPolygonStipple DD 01H DUP (?)
_imp_glMultMatrixf DD 01H DUP (?)
_imp_glRectf DD	01H DUP (?)
_imp_glTexImage2D DD 01H DUP (?)
_imp_glGetString DD 01H DUP (?)
_imp_glNewList DD 01H DUP (?)
_imp_glCopyTexSubImage1D DD 01H DUP (?)
_imp_glRectfv DD 01H DUP (?)
_imp_glGetTexEnvfv DD 01H DUP (?)
_imp_glNormal3b DD 01H DUP (?)
_imp_glTexParameterf DD 01H DUP (?)
_imp_glRecti DD	01H DUP (?)
_imp_glCopyTexSubImage2D DD 01H DUP (?)
_imp_glNormal3bv DD 01H DUP (?)
_imp_glGetTexEnviv DD 01H DUP (?)
_imp_glTexParameterfv DD 01H DUP (?)
_imp_glRectiv DD 01H DUP (?)
_imp_glNormal3d DD 01H DUP (?)
_imp_glGetTexGendv DD 01H DUP (?)
_imp_glCullFace DD 01H DUP (?)
_imp_glTexParameteri DD 01H DUP (?)
?local_gl@@3PAUHINSTANCE__@@A DD 01H DUP (?)		; local_gl
_imp_glNormal3dv DD 01H DUP (?)
_imp_glRects DD	01H DUP (?)
_imp_glDebugEntry DD 01H DUP (?)
_imp_wglSwapMultipleBuffers DD 01H DUP (?)
_imp_glGetTexGenfv DD 01H DUP (?)
_imp_glTexParameteriv DD 01H DUP (?)
_imp_wglSwapLayerBuffers DD 01H DUP (?)
_imp_glNormal3f DD 01H DUP (?)
_imp_glDeleteLists DD 01H DUP (?)
_imp_glRectsv DD 01H DUP (?)
_imp_glAccum DD	01H DUP (?)
_imp_glGetTexGeniv DD 01H DUP (?)
_imp_glTexSubImage1D DD 01H DUP (?)
_imp_glNormal3fv DD 01H DUP (?)
_imp_glRenderMode DD 01H DUP (?)
_imp_glDeleteTextures DD 01H DUP (?)
_imp_glAlphaFunc DD 01H DUP (?)
_imp_glGetTexImage DD 01H DUP (?)
_imp_glNormal3i DD 01H DUP (?)
_imp_glDepthFunc DD 01H DUP (?)
_imp_glRotated DD 01H DUP (?)
_imp_glAreTexturesResident DD 01H DUP (?)
_imp_glTexSubImage2D DD 01H DUP (?)
_imp_glGetTexLevelParameterfv DD 01H DUP (?)
_imp_glDepthMask DD 01H DUP (?)
_imp_glNormal3iv DD 01H DUP (?)
_imp_glArrayElement DD 01H DUP (?)
_imp_wglUseFontOutlinesA DD 01H DUP (?)
_imp_glRotatef DD 01H DUP (?)
_imp_glDepthRange DD 01H DUP (?)
_imp_glNormal3s DD 01H DUP (?)
_imp_glGetTexLevelParameteriv DD 01H DUP (?)
_imp_glTranslated DD 01H DUP (?)
_imp_glBegin DD	01H DUP (?)
_imp_glScaled DD 01H DUP (?)
_imp_glDisable DD 01H DUP (?)
_imp_glNormal3sv DD 01H DUP (?)
_imp_glBindTexture DD 01H DUP (?)
_imp_wglUseFontOutlinesW DD 01H DUP (?)
_imp_glGetTexParameterfv DD 01H DUP (?)
_imp_glTranslatef DD 01H DUP (?)
_imp_glScalef DD 01H DUP (?)
_imp_glDisableClientState DD 01H DUP (?)
_imp_glNormalPointer DD 01H DUP (?)
_imp_glVertex2d DD 01H DUP (?)
_imp_glBitmap DD 01H DUP (?)
_imp_glGetTexParameteriv DD 01H DUP (?)
_imp_glDrawArrays DD 01H DUP (?)
_imp_glScissor DD 01H DUP (?)
_imp_glOrtho DD	01H DUP (?)
_imp_glVertex2dv DD 01H DUP (?)
_imp_glHint DD	01H DUP (?)
_imp_glDrawBuffer DD 01H DUP (?)
_imp_glBlendFunc DD 01H DUP (?)
_imp_glSelectBuffer DD 01H DUP (?)
_imp_glVertex2f DD 01H DUP (?)
_imp_glIndexMask DD 01H DUP (?)
_imp_glPassThrough DD 01H DUP (?)
_imp_glCallList DD 01H DUP (?)
_imp_glDrawElements DD 01H DUP (?)
_imp_glShadeModel DD 01H DUP (?)
_imp_glVertex2fv DD 01H DUP (?)
_imp_glIndexPointer DD 01H DUP (?)
_imp_glPixelMapfv DD 01H DUP (?)
_imp_glCallLists DD 01H DUP (?)
_imp_glStencilFunc DD 01H DUP (?)
_imp_glDrawPixels DD 01H DUP (?)
_imp_glVertex2i DD 01H DUP (?)
_imp_glIndexd DD 01H DUP (?)
_imp_glPixelMapuiv DD 01H DUP (?)
_imp_glClear DD	01H DUP (?)
_imp_glStencilMask DD 01H DUP (?)
_imp_glVertex2iv DD 01H DUP (?)
_imp_glEdgeFlag DD 01H DUP (?)
_imp_glIndexdv DD 01H DUP (?)
_imp_glPixelMapusv DD 01H DUP (?)
_imp_glClearAccum DD 01H DUP (?)
_imp_glStencilOp DD 01H DUP (?)
_imp_glVertex2s DD 01H DUP (?)
_imp_glEdgeFlagPointer DD 01H DUP (?)
_imp_glIndexf DD 01H DUP (?)
_imp_glPixelStoref DD 01H DUP (?)
?HAS_pipeline_query@GLPerf@@3_NA DB 01H DUP (?)		; GLPerf::HAS_pipeline_query
	ALIGN	4

_imp_glVertex2sv DD 01H DUP (?)
_imp_glTexCoord1d DD 01H DUP (?)
_imp_glClearColor DD 01H DUP (?)
_imp_glEdgeFlagv DD 01H DUP (?)
_imp_glIndexfv DD 01H DUP (?)
_imp_glPixelStorei DD 01H DUP (?)
?pipeline_states@GLPerf@@3PAPAVPipelineQuery@1@A DD 0bH DUP (?) ; GLPerf::pipeline_states
_imp_glTexCoord1dv DD 01H DUP (?)
_imp_glIndexi DD 01H DUP (?)
_imp_glVertex3d DD 01H DUP (?)
_imp_glEnable DD 01H DUP (?)
_imp_glClearDepth DD 01H DUP (?)
_imp_glTexCoord1f DD 01H DUP (?)
_imp_glPixelTransferf DD 01H DUP (?)
_imp_glEnableClientState DD 01H DUP (?)
_imp_glIndexiv DD 01H DUP (?)
_imp_glVertex3dv DD 01H DUP (?)
_imp_glClearIndex DD 01H DUP (?)
_imp_glTexCoord1fv DD 01H DUP (?)
_imp_glIndexs DD 01H DUP (?)
_imp_glEnd DD	01H DUP (?)
_imp_glPixelTransferi DD 01H DUP (?)
_imp_glClearStencil DD 01H DUP (?)
_imp_glVertex3f DD 01H DUP (?)
_imp_glTexCoord1i DD 01H DUP (?)
_imp_glEndList DD 01H DUP (?)
_imp_glIndexsv DD 01H DUP (?)
_imp_glClipPlane DD 01H DUP (?)
_imp_glPixelZoom DD 01H DUP (?)
_imp_glVertex3fv DD 01H DUP (?)
_imp_glTexCoord1iv DD 01H DUP (?)
_imp_glEvalCoord1d DD 01H DUP (?)
_imp_glIndexub DD 01H DUP (?)
_imp_glPointSize DD 01H DUP (?)
_imp_glColor3b DD 01H DUP (?)
_imp_glVertex3i DD 01H DUP (?)
_imp_glTexCoord1s DD 01H DUP (?)
_imp_glIndexubv DD 01H DUP (?)
_imp_glEvalCoord1dv DD 01H DUP (?)
_imp_glPolygonMode DD 01H DUP (?)
_imp_glColor3bv DD 01H DUP (?)
_imp_glVertex3iv DD 01H DUP (?)
_imp_glTexCoord1sv DD 01H DUP (?)
_imp_glEvalCoord1f DD 01H DUP (?)
_imp_glInitNames DD 01H DUP (?)
_imp_glPolygonOffset DD 01H DUP (?)
_imp_glColor3d DD 01H DUP (?)
_imp_glVertex3s DD 01H DUP (?)
_imp_glTexCoord2d DD 01H DUP (?)
_imp_glEvalCoord1fv DD 01H DUP (?)
_imp_glInterleavedArrays DD 01H DUP (?)
_imp_glPolygonStipple DD 01H DUP (?)
_imp_glColor3dv DD 01H DUP (?)
_imp_glVertex3sv DD 01H DUP (?)
_imp_glTexCoord2dv DD 01H DUP (?)
_imp_glEvalCoord2d DD 01H DUP (?)
_imp_glIsEnabled DD 01H DUP (?)
_imp_glPopAttrib DD 01H DUP (?)
_imp_glColor3f DD 01H DUP (?)
_imp_glTexCoord2f DD 01H DUP (?)
_imp_glEvalCoord2dv DD 01H DUP (?)
_imp_glVertex4d DD 01H DUP (?)
_imp_glIsList DD 01H DUP (?)
_imp_glPopClientAttrib DD 01H DUP (?)
_imp_glTexCoord2fv DD 01H DUP (?)
_imp_glColor3fv DD 01H DUP (?)
_imp_glEvalCoord2f DD 01H DUP (?)
_imp_glIsTexture DD 01H DUP (?)
_imp_glVertex4dv DD 01H DUP (?)
_imp_glPopMatrix DD 01H DUP (?)
_imp_glTexCoord2i DD 01H DUP (?)
_imp_glColor3i DD 01H DUP (?)
_imp_glEvalCoord2fv DD 01H DUP (?)
_imp_glLightModelf DD 01H DUP (?)
_imp_glPopName DD 01H DUP (?)
_imp_glVertex4f DD 01H DUP (?)
_imp_glTexCoord2iv DD 01H DUP (?)
_imp_glColor3iv DD 01H DUP (?)
_imp_glEvalMesh1 DD 01H DUP (?)
_imp_glLightModelfv DD 01H DUP (?)
_imp_glPrioritizeTextures DD 01H DUP (?)
_imp_glVertex4fv DD 01H DUP (?)
_imp_glTexCoord2s DD 01H DUP (?)
_imp_glColor3s DD 01H DUP (?)
_imp_glLightModeli DD 01H DUP (?)
_imp_glPushAttrib DD 01H DUP (?)
_imp_glEvalMesh2 DD 01H DUP (?)
_imp_glVertex4i DD 01H DUP (?)
_imp_glTexCoord2sv DD 01H DUP (?)
_imp_glColor3sv DD 01H DUP (?)
_imp_glLightModeliv DD 01H DUP (?)
_imp_glPushClientAttrib DD 01H DUP (?)
_imp_glEvalPoint1 DD 01H DUP (?)
_imp_glVertex4iv DD 01H DUP (?)
_imp_glTexCoord3d DD 01H DUP (?)
_imp_glColor3ub DD 01H DUP (?)
_imp_glPushMatrix DD 01H DUP (?)
_imp_glLightf DD 01H DUP (?)
_imp_glEvalPoint2 DD 01H DUP (?)
_imp_glVertex4s DD 01H DUP (?)
_imp_glTexCoord3dv DD 01H DUP (?)
_imp_glPushName DD 01H DUP (?)
_imp_glColor3ubv DD 01H DUP (?)
_imp_glLightfv DD 01H DUP (?)
_imp_glFeedbackBuffer DD 01H DUP (?)
_imp_glVertex4sv DD 01H DUP (?)
_imp_glTexCoord3f DD 01H DUP (?)
_imp_glRasterPos2d DD 01H DUP (?)
_imp_glColor3ui DD 01H DUP (?)
_imp_glLighti DD 01H DUP (?)
_imp_glFinish DD 01H DUP (?)
_imp_glVertexPointer DD 01H DUP (?)
_imp_glTexCoord3fv DD 01H DUP (?)
_imp_glRasterPos2dv DD 01H DUP (?)
_imp_glColor3uiv DD 01H DUP (?)
_imp_glFlush DD	01H DUP (?)
_imp_glLightiv DD 01H DUP (?)
_imp_glRasterPos2f DD 01H DUP (?)
_imp_glTexCoord3i DD 01H DUP (?)
_imp_glViewport DD 01H DUP (?)
_imp_glColor3us DD 01H DUP (?)
_imp_glFogf DD	01H DUP (?)
_imp_glLineStipple DD 01H DUP (?)
_imp_glRasterPos2fv DD 01H DUP (?)
_imp_glTexCoord3iv DD 01H DUP (?)
_imp_glColor3usv DD 01H DUP (?)
_imp_wglCopyContext DD 01H DUP (?)
_imp_glFogfv DD	01H DUP (?)
_imp_glLineWidth DD 01H DUP (?)
_imp_glRasterPos2i DD 01H DUP (?)
_imp_glTexCoord3s DD 01H DUP (?)
_imp_glColor4b DD 01H DUP (?)
_imp_wglCreateContext DD 01H DUP (?)
_imp_glFogi DD	01H DUP (?)
_imp_glListBase DD 01H DUP (?)
_imp_glRasterPos2iv DD 01H DUP (?)
_imp_glTexCoord3sv DD 01H DUP (?)
_imp_wglCreateLayerContext DD 01H DUP (?)
_imp_glColor4bv DD 01H DUP (?)
_imp_glFogiv DD	01H DUP (?)
_imp_glLoadIdentity DD 01H DUP (?)
_imp_glRasterPos2s DD 01H DUP (?)
_imp_glTexCoord4d DD 01H DUP (?)
_imp_wglDeleteContext DD 01H DUP (?)
_imp_glFrontFace DD 01H DUP (?)
_imp_glLoadMatrixd DD 01H DUP (?)
_imp_glColor4d DD 01H DUP (?)
_imp_glRasterPos2sv DD 01H DUP (?)
_imp_glTexCoord4dv DD 01H DUP (?)
_imp_wglGetCurrentContext DD 01H DUP (?)
_imp_glLoadMatrixf DD 01H DUP (?)
_imp_glColor4dv DD 01H DUP (?)
_imp_glFrustum DD 01H DUP (?)
_imp_glRasterPos3d DD 01H DUP (?)
_imp_wglGetCurrentDC DD 01H DUP (?)
_imp_glLoadName DD 01H DUP (?)
_imp_glTexCoord4f DD 01H DUP (?)
_imp_glColor4f DD 01H DUP (?)
_imp_glRasterPos3dv DD 01H DUP (?)
_imp_glGenLists DD 01H DUP (?)
_imp_wglGetProcAddress DD 01H DUP (?)
_imp_glLogicOp DD 01H DUP (?)
_imp_glTexCoord4fv DD 01H DUP (?)
_imp_glRasterPos3f DD 01H DUP (?)
_imp_glColor4fv DD 01H DUP (?)
_imp_glGenTextures DD 01H DUP (?)
_imp_wglMakeCurrent DD 01H DUP (?)
_imp_glMap1d DD	01H DUP (?)
_imp_glTexCoord4i DD 01H DUP (?)
_imp_glRasterPos3fv DD 01H DUP (?)
_imp_glGetBooleanv DD 01H DUP (?)
_imp_glColor4i DD 01H DUP (?)
_imp_wglShareLists DD 01H DUP (?)
_imp_glTexCoord4iv DD 01H DUP (?)
_imp_glRasterPos3i DD 01H DUP (?)
_imp_glGetClipPlane DD 01H DUP (?)
_imp_glMap1f DD	01H DUP (?)
_imp_glColor4iv DD 01H DUP (?)
_imp_wglUseFontBitmapsA DD 01H DUP (?)
_imp_glTexCoord4s DD 01H DUP (?)
_imp_glRasterPos3iv DD 01H DUP (?)
_imp_glGetDoublev DD 01H DUP (?)
_imp_glColor4s DD 01H DUP (?)
_imp_wglUseFontBitmapsW DD 01H DUP (?)
_imp_glMap2d DD	01H DUP (?)
_imp_glTexCoord4sv DD 01H DUP (?)
_imp_glGetError DD 01H DUP (?)
_imp_glRasterPos3s DD 01H DUP (?)
_imp_glColor4sv DD 01H DUP (?)
_imp_wglChoosePixelFormat DD 01H DUP (?)
_imp_glTexCoordPointer DD 01H DUP (?)
_imp_glGetFloatv DD 01H DUP (?)
_imp_glRasterPos3sv DD 01H DUP (?)
_imp_glColor4ub DD 01H DUP (?)
?cegGL@@3PAVOpenGL3Renderer@CEGUI@@A DD 01H DUP (?)	; cegGL
_imp_glMap2f DD	01H DUP (?)
_imp_glGetIntegerv DD 01H DUP (?)
?__cegui_frames_drawn@@3JC DD 01H DUP (?)		; __cegui_frames_drawn
_imp_glRasterPos4d DD 01H DUP (?)
_imp_glTexEnvf DD 01H DUP (?)
_imp_glColor4ubv DD 01H DUP (?)
_imp_glGetLightfv DD 01H DUP (?)
_imp_glRasterPos4dv DD 01H DUP (?)
_imp_glTexEnvfv DD 01H DUP (?)
_imp_glMapGrid1d DD 01H DUP (?)
_imp_glColor4ui DD 01H DUP (?)
_imp_glGetLightiv DD 01H DUP (?)
_imp_glRasterPos4f DD 01H DUP (?)
_imp_wglDescribeLayerPlane DD 01H DUP (?)
_imp_glTexEnvi DD 01H DUP (?)
_imp_glMapGrid1f DD 01H DUP (?)
_imp_glColor4uiv DD 01H DUP (?)
_imp_glGetMapdv DD 01H DUP (?)
_imp_glRasterPos4fv DD 01H DUP (?)
_imp_glTexEnviv DD 01H DUP (?)
_imp_glColor4us DD 01H DUP (?)
_imp_wglDescribePixelFormat DD 01H DUP (?)
_imp_glMapGrid2d DD 01H DUP (?)
_imp_glRasterPos4i DD 01H DUP (?)
_imp_glGetMapfv DD 01H DUP (?)
_imp_glColor4usv DD 01H DUP (?)
_imp_glTexGend DD 01H DUP (?)
_imp_wglGetLayerPaletteEntries DD 01H DUP (?)
_imp_glMapGrid2f DD 01H DUP (?)
_imp_glRasterPos4iv DD 01H DUP (?)
_imp_glGetMapiv DD 01H DUP (?)
_imp_glColorMask DD 01H DUP (?)
_imp_glTexGendv DD 01H DUP (?)
_imp_wglGetPixelFormat DD 01H DUP (?)
_imp_glRasterPos4s DD 01H DUP (?)
_imp_glGetMaterialfv DD 01H DUP (?)
_imp_glMaterialf DD 01H DUP (?)
_imp_glColorMaterial DD 01H DUP (?)
_imp_glTexGenf DD 01H DUP (?)
_imp_glRasterPos4sv DD 01H DUP (?)
_imp_wglRealizeLayerPalette DD 01H DUP (?)
_imp_glMaterialfv DD 01H DUP (?)
_imp_glGetMaterialiv DD 01H DUP (?)
_imp_glColorPointer DD 01H DUP (?)
_imp_glTexGenfv DD 01H DUP (?)
_imp_glReadBuffer DD 01H DUP (?)
?__gl_ready@@3JC DD 01H DUP (?)				; __gl_ready
_imp_glGetPixelMapfv DD 01H DUP (?)
_imp_wglSetLayerPaletteEntries DD 01H DUP (?)
_imp_glMateriali DD 01H DUP (?)
_imp_glTexGeni DD 01H DUP (?)
_imp_glCopyPixels DD 01H DUP (?)
?gdi_swap_buffers@@3P6GHPAUHDC__@@@ZA DD 01H DUP (?)	; gdi_swap_buffers
?wgl_swap_buffers@@3P6GHPAUHDC__@@@ZA DD 01H DUP (?)	; wgl_swap_buffers
_imp_glReadPixels DD 01H DUP (?)
?GL_HOOKED@@3HA DD 01H DUP (?)				; GL_HOOKED
?GL_HOOKS@@3KA DD 01H DUP (?)				; GL_HOOKS
_imp_glGetPixelMapuiv DD 01H DUP (?)
_imp_glMaterialiv DD 01H DUP (?)
_imp_wglSetPixelFormat DD 01H DUP (?)
_imp_glTexGeniv DD 01H DUP (?)
_imp_glCopyTexImage1D DD 01H DUP (?)
_imp_glGetPixelMapusv DD 01H DUP (?)
_imp_glMatrixMode DD 01H DUP (?)
_imp_glRectd DD	01H DUP (?)
_imp_glTexImage1D DD 01H DUP (?)
_imp_glGetPointerv DD 01H DUP (?)
_imp_glMultMatrixd DD 01H DUP (?)
_BSS	ENDS
CONST	SEGMENT
$SG320513 DB	'glMultMatrixd', 00H
?piecewise_construct@std@@3Upiecewise_construct_t@1@B	ORG $+1 ; std::piecewise_construct
	ORG $+1
$SG319489 DB	'glGetPointerv', 00H
	ORG $+2
$SG322565 DB	'glTexImage1D', 00H
	ORG $+3
$SG320517 DB	'g', 00H, 'l', 00H, 'M', 00H, 'u', 00H, 'l', 00H, 't', 00H
	DB	'M', 00H, 'a', 00H, 't', 00H, 'r', 00H, 'i', 00H, 'x', 00H, 'd'
	DB	00H, 00H, 00H
$SG319493 DB	'g', 00H, 'l', 00H, 'G', 00H, 'e', 00H, 't', 00H, 'P', 00H
	DB	'o', 00H, 'i', 00H, 'n', 00H, 't', 00H, 'e', 00H, 'r', 00H, 'v'
	DB	00H, 00H, 00H
$SG320518 DB	'[', 00H, ' ', 00H, 'O', 00H, 'p', 00H, 'e', 00H, 'n', 00H
	DB	'G', 00H, 'L', 00H, '3', 00H, '2', 00H, ' ', 00H, ']', 00H, ' '
	DB	00H, 'U', 00H, 'n', 00H, 'a', 00H, 'b', 00H, 'l', 00H, 'e', 00H
	DB	' ', 00H, 't', 00H, 'o', 00H, ' ', 00H, 'l', 00H, 'o', 00H, 'c'
	DB	00H, 'a', 00H, 't', 00H, 'e', 00H, ' ', 00H, 's', 00H, 'y', 00H
	DB	'm', 00H, 'b', 00H, 'o', 00H, 'l', 00H, ' ', 00H, ' ', 00H, '%'
	DB	00H, 's', 00H, ' ', 00H, 'i', 00H, 'n', 00H, ' ', 00H, 'O', 00H
	DB	'p', 00H, 'e', 00H, 'n', 00H, 'G', 00H, 'L', 00H, '3', 00H, '2'
	DB	00H, '.', 00H, 'd', 00H, 'l', 00H, 'l', 00H, 00H, 00H
	ORG $+2
$SG321543 DB	'glRectdv', 00H
	ORG $+3
$SG319494 DB	'[', 00H, ' ', 00H, 'O', 00H, 'p', 00H, 'e', 00H, 'n', 00H
	DB	'G', 00H, 'L', 00H, '3', 00H, '2', 00H, ' ', 00H, ']', 00H, ' '
	DB	00H, 'U', 00H, 'n', 00H, 'a', 00H, 'b', 00H, 'l', 00H, 'e', 00H
	DB	' ', 00H, 't', 00H, 'o', 00H, ' ', 00H, 'l', 00H, 'o', 00H, 'c'
	DB	00H, 'a', 00H, 't', 00H, 'e', 00H, ' ', 00H, 's', 00H, 'y', 00H
	DB	'm', 00H, 'b', 00H, 'o', 00H, 'l', 00H, ' ', 00H, ' ', 00H, '%'
	DB	00H, 's', 00H, ' ', 00H, 'i', 00H, 'n', 00H, ' ', 00H, 'O', 00H
	DB	'p', 00H, 'e', 00H, 'n', 00H, 'G', 00H, 'L', 00H, '3', 00H, '2'
	DB	00H, '.', 00H, 'd', 00H, 'l', 00H, 'l', 00H, 00H, 00H
	ORG $+2
$SG322569 DB	'g', 00H, 'l', 00H, 'T', 00H, 'e', 00H, 'x', 00H, 'I', 00H
	DB	'm', 00H, 'a', 00H, 'g', 00H, 'e', 00H, '1', 00H, 'D', 00H, 00H
	DB	00H
	ORG $+2
$SG322570 DB	'[', 00H, ' ', 00H, 'O', 00H, 'p', 00H, 'e', 00H, 'n', 00H
	DB	'G', 00H, 'L', 00H, '3', 00H, '2', 00H, ' ', 00H, ']', 00H, ' '
	DB	00H, 'U', 00H, 'n', 00H, 'a', 00H, 'b', 00H, 'l', 00H, 'e', 00H
	DB	' ', 00H, 't', 00H, 'o', 00H, ' ', 00H, 'l', 00H, 'o', 00H, 'c'
	DB	00H, 'a', 00H, 't', 00H, 'e', 00H, ' ', 00H, 's', 00H, 'y', 00H
	DB	'm', 00H, 'b', 00H, 'o', 00H, 'l', 00H, ' ', 00H, ' ', 00H, '%'
	DB	00H, 's', 00H, ' ', 00H, 'i', 00H, 'n', 00H, ' ', 00H, 'O', 00H
	DB	'p', 00H, 'e', 00H, 'n', 00H, 'G', 00H, 'L', 00H, '3', 00H, '2'
	DB	00H, '.', 00H, 'd', 00H, 'l', 00H, 'l', 00H, 00H, 00H
	ORG $+2
$SG321547 DB	'g', 00H, 'l', 00H, 'R', 00H, 'e', 00H, 'c', 00H, 't', 00H
	DB	'd', 00H, 'v', 00H, 00H, 00H
	ORG $+2
$SG321548 DB	'[', 00H, ' ', 00H, 'O', 00H, 'p', 00H, 'e', 00H, 'n', 00H
	DB	'G', 00H, 'L', 00H, '3', 00H, '2', 00H, ' ', 00H, ']', 00H, ' '
	DB	00H, 'U', 00H, 'n', 00H, 'a', 00H, 'b', 00H, 'l', 00H, 'e', 00H
	DB	' ', 00H, 't', 00H, 'o', 00H, ' ', 00H, 'l', 00H, 'o', 00H, 'c'
	DB	00H, 'a', 00H, 't', 00H, 'e', 00H, ' ', 00H, 's', 00H, 'y', 00H
	DB	'm', 00H, 'b', 00H, 'o', 00H, 'l', 00H, ' ', 00H, ' ', 00H, '%'
	DB	00H, 's', 00H, ' ', 00H, 'i', 00H, 'n', 00H, ' ', 00H, 'O', 00H
	DB	'p', 00H, 'e', 00H, 'n', 00H, 'G', 00H, 'L', 00H, '3', 00H, '2'
	DB	00H, '.', 00H, 'd', 00H, 'l', 00H, 'l', 00H, 00H, 00H
	ORG $+2
$SG320527 DB	'glMultMatrixf', 00H
	ORG $+2
$SG319503 DB	'glGetPolygonStipple', 00H
$SG318481 DB	'glCopyTexImage2D', 00H
	ORG $+3
$SG320531 DB	'g', 00H, 'l', 00H, 'M', 00H, 'u', 00H, 'l', 00H, 't', 00H
	DB	'M', 00H, 'a', 00H, 't', 00H, 'r', 00H, 'i', 00H, 'x', 00H, 'f'
	DB	00H, 00H, 00H
$SG319507 DB	'g', 00H, 'l', 00H, 'G', 00H, 'e', 00H, 't', 00H, 'P', 00H
	DB	'o', 00H, 'l', 00H, 'y', 00H, 'g', 00H, 'o', 00H, 'n', 00H, 'S'
	DB	00H, 't', 00H, 'i', 00H, 'p', 00H, 'p', 00H, 'l', 00H, 'e', 00H
	DB	00H, 00H
$SG320532 DB	'[', 00H, ' ', 00H, 'O', 00H, 'p', 00H, 'e', 00H, 'n', 00H
	DB	'G', 00H, 'L', 00H, '3', 00H, '2', 00H, ' ', 00H, ']', 00H, ' '
	DB	00H, 'U', 00H, 'n', 00H, 'a', 00H, 'b', 00H, 'l', 00H, 'e', 00H
	DB	' ', 00H, 't', 00H, 'o', 00H, ' ', 00H, 'l', 00H, 'o', 00H, 'c'
	DB	00H, 'a', 00H, 't', 00H, 'e', 00H, ' ', 00H, 's', 00H, 'y', 00H
	DB	'm', 00H, 'b', 00H, 'o', 00H, 'l', 00H, ' ', 00H, ' ', 00H, '%'
	DB	00H, 's', 00H, ' ', 00H, 'i', 00H, 'n', 00H, ' ', 00H, 'O', 00H
	DB	'p', 00H, 'e', 00H, 'n', 00H, 'G', 00H, 'L', 00H, '3', 00H, '2'
	DB	00H, '.', 00H, 'd', 00H, 'l', 00H, 'l', 00H, 00H, 00H
	ORG $+2
$SG318485 DB	'g', 00H, 'l', 00H, 'C', 00H, 'o', 00H, 'p', 00H, 'y', 00H
	DB	'T', 00H, 'e', 00H, 'x', 00H, 'I', 00H, 'm', 00H, 'a', 00H, 'g'
	DB	00H, 'e', 00H, '2', 00H, 'D', 00H, 00H, 00H
	ORG $+2
$SG319508 DB	'[', 00H, ' ', 00H, 'O', 00H, 'p', 00H, 'e', 00H, 'n', 00H
	DB	'G', 00H, 'L', 00H, '3', 00H, '2', 00H, ' ', 00H, ']', 00H, ' '
	DB	00H, 'U', 00H, 'n', 00H, 'a', 00H, 'b', 00H, 'l', 00H, 'e', 00H
	DB	' ', 00H, 't', 00H, 'o', 00H, ' ', 00H, 'l', 00H, 'o', 00H, 'c'
	DB	00H, 'a', 00H, 't', 00H, 'e', 00H, ' ', 00H, 's', 00H, 'y', 00H
	DB	'm', 00H, 'b', 00H, 'o', 00H, 'l', 00H, ' ', 00H, ' ', 00H, '%'
	DB	00H, 's', 00H, ' ', 00H, 'i', 00H, 'n', 00H, ' ', 00H, 'O', 00H
	DB	'p', 00H, 'e', 00H, 'n', 00H, 'G', 00H, 'L', 00H, '3', 00H, '2'
	DB	00H, '.', 00H, 'd', 00H, 'l', 00H, 'l', 00H, 00H, 00H
	ORG $+2
$SG321563 DB	'glRectf', 00H
$SG319517 DB	'glGetString', 00H
$SG318486 DB	'[', 00H, ' ', 00H, 'O', 00H, 'p', 00H, 'e', 00H, 'n', 00H
	DB	'G', 00H, 'L', 00H, '3', 00H, '2', 00H, ' ', 00H, ']', 00H, ' '
	DB	00H, 'U', 00H, 'n', 00H, 'a', 00H, 'b', 00H, 'l', 00H, 'e', 00H
	DB	' ', 00H, 't', 00H, 'o', 00H, ' ', 00H, 'l', 00H, 'o', 00H, 'c'
	DB	00H, 'a', 00H, 't', 00H, 'e', 00H, ' ', 00H, 's', 00H, 'y', 00H
	DB	'm', 00H, 'b', 00H, 'o', 00H, 'l', 00H, ' ', 00H, ' ', 00H, '%'
	DB	00H, 's', 00H, ' ', 00H, 'i', 00H, 'n', 00H, ' ', 00H, 'O', 00H
	DB	'p', 00H, 'e', 00H, 'n', 00H, 'G', 00H, 'L', 00H, '3', 00H, '2'
	DB	00H, '.', 00H, 'd', 00H, 'l', 00H, 'l', 00H, 00H, 00H
	ORG $+2
$SG321567 DB	'g', 00H, 'l', 00H, 'R', 00H, 'e', 00H, 'c', 00H, 't', 00H
	DB	'f', 00H, 00H, 00H
$SG320543 DB	'glNewList', 00H
	ORG $+2
$SG321568 DB	'[', 00H, ' ', 00H, 'O', 00H, 'p', 00H, 'e', 00H, 'n', 00H
	DB	'G', 00H, 'L', 00H, '3', 00H, '2', 00H, ' ', 00H, ']', 00H, ' '
	DB	00H, 'U', 00H, 'n', 00H, 'a', 00H, 'b', 00H, 'l', 00H, 'e', 00H
	DB	' ', 00H, 't', 00H, 'o', 00H, ' ', 00H, 'l', 00H, 'o', 00H, 'c'
	DB	00H, 'a', 00H, 't', 00H, 'e', 00H, ' ', 00H, 's', 00H, 'y', 00H
	DB	'm', 00H, 'b', 00H, 'o', 00H, 'l', 00H, ' ', 00H, ' ', 00H, '%'
	DB	00H, 's', 00H, ' ', 00H, 'i', 00H, 'n', 00H, ' ', 00H, 'O', 00H
	DB	'p', 00H, 'e', 00H, 'n', 00H, 'G', 00H, 'L', 00H, '3', 00H, '2'
	DB	00H, '.', 00H, 'd', 00H, 'l', 00H, 'l', 00H, 00H, 00H
	ORG $+2
$SG319521 DB	'g', 00H, 'l', 00H, 'G', 00H, 'e', 00H, 't', 00H, 'S', 00H
	DB	't', 00H, 'r', 00H, 'i', 00H, 'n', 00H, 'g', 00H, 00H, 00H
$SG320547 DB	'g', 00H, 'l', 00H, 'N', 00H, 'e', 00H, 'w', 00H, 'L', 00H
	DB	'i', 00H, 's', 00H, 't', 00H, 00H, 00H
$SG319522 DB	'[', 00H, ' ', 00H, 'O', 00H, 'p', 00H, 'e', 00H, 'n', 00H
	DB	'G', 00H, 'L', 00H, '3', 00H, '2', 00H, ' ', 00H, ']', 00H, ' '
	DB	00H, 'U', 00H, 'n', 00H, 'a', 00H, 'b', 00H, 'l', 00H, 'e', 00H
	DB	' ', 00H, 't', 00H, 'o', 00H, ' ', 00H, 'l', 00H, 'o', 00H, 'c'
	DB	00H, 'a', 00H, 't', 00H, 'e', 00H, ' ', 00H, 's', 00H, 'y', 00H
	DB	'm', 00H, 'b', 00H, 'o', 00H, 'l', 00H, ' ', 00H, ' ', 00H, '%'
	DB	00H, 's', 00H, ' ', 00H, 'i', 00H, 'n', 00H, ' ', 00H, 'O', 00H
	DB	'p', 00H, 'e', 00H, 'n', 00H, 'G', 00H, 'L', 00H, '3', 00H, '2'
	DB	00H, '.', 00H, 'd', 00H, 'l', 00H, 'l', 00H, 00H, 00H
	ORG $+2
$SG322595 DB	'glTexImage2D', 00H
	ORG $+3
$SG322599 DB	'g', 00H, 'l', 00H, 'T', 00H, 'e', 00H, 'x', 00H, 'I', 00H
	DB	'm', 00H, 'a', 00H, 'g', 00H, 'e', 00H, '2', 00H, 'D', 00H, 00H
	DB	00H
	ORG $+2
$SG320548 DB	'[', 00H, ' ', 00H, 'O', 00H, 'p', 00H, 'e', 00H, 'n', 00H
	DB	'G', 00H, 'L', 00H, '3', 00H, '2', 00H, ' ', 00H, ']', 00H, ' '
	DB	00H, 'U', 00H, 'n', 00H, 'a', 00H, 'b', 00H, 'l', 00H, 'e', 00H
	DB	' ', 00H, 't', 00H, 'o', 00H, ' ', 00H, 'l', 00H, 'o', 00H, 'c'
	DB	00H, 'a', 00H, 't', 00H, 'e', 00H, ' ', 00H, 's', 00H, 'y', 00H
	DB	'm', 00H, 'b', 00H, 'o', 00H, 'l', 00H, ' ', 00H, ' ', 00H, '%'
	DB	00H, 's', 00H, ' ', 00H, 'i', 00H, 'n', 00H, ' ', 00H, 'O', 00H
	DB	'p', 00H, 'e', 00H, 'n', 00H, 'G', 00H, 'L', 00H, '3', 00H, '2'
	DB	00H, '.', 00H, 'd', 00H, 'l', 00H, 'l', 00H, 00H, 00H
	ORG $+2
$SG318505 DB	'glCopyTexSubImage1D', 00H
$SG322600 DB	'[', 00H, ' ', 00H, 'O', 00H, 'p', 00H, 'e', 00H, 'n', 00H
	DB	'G', 00H, 'L', 00H, '3', 00H, '2', 00H, ' ', 00H, ']', 00H, ' '
	DB	00H, 'U', 00H, 'n', 00H, 'a', 00H, 'b', 00H, 'l', 00H, 'e', 00H
	DB	' ', 00H, 't', 00H, 'o', 00H, ' ', 00H, 'l', 00H, 'o', 00H, 'c'
	DB	00H, 'a', 00H, 't', 00H, 'e', 00H, ' ', 00H, 's', 00H, 'y', 00H
	DB	'm', 00H, 'b', 00H, 'o', 00H, 'l', 00H, ' ', 00H, ' ', 00H, '%'
	DB	00H, 's', 00H, ' ', 00H, 'i', 00H, 'n', 00H, ' ', 00H, 'O', 00H
	DB	'p', 00H, 'e', 00H, 'n', 00H, 'G', 00H, 'L', 00H, '3', 00H, '2'
	DB	00H, '.', 00H, 'd', 00H, 'l', 00H, 'l', 00H, 00H, 00H
	ORG $+2
$SG321579 DB	'glRectfv', 00H
	ORG $+3
$SG318509 DB	'g', 00H, 'l', 00H, 'C', 00H, 'o', 00H, 'p', 00H, 'y', 00H
	DB	'T', 00H, 'e', 00H, 'x', 00H, 'S', 00H, 'u', 00H, 'b', 00H, 'I'
	DB	00H, 'm', 00H, 'a', 00H, 'g', 00H, 'e', 00H, '1', 00H, 'D', 00H
	DB	00H, 00H
$SG318510 DB	'[', 00H, ' ', 00H, 'O', 00H, 'p', 00H, 'e', 00H, 'n', 00H
	DB	'G', 00H, 'L', 00H, '3', 00H, '2', 00H, ' ', 00H, ']', 00H, ' '
	DB	00H, 'U', 00H, 'n', 00H, 'a', 00H, 'b', 00H, 'l', 00H, 'e', 00H
	DB	' ', 00H, 't', 00H, 'o', 00H, ' ', 00H, 'l', 00H, 'o', 00H, 'c'
	DB	00H, 'a', 00H, 't', 00H, 'e', 00H, ' ', 00H, 's', 00H, 'y', 00H
	DB	'm', 00H, 'b', 00H, 'o', 00H, 'l', 00H, ' ', 00H, ' ', 00H, '%'
	DB	00H, 's', 00H, ' ', 00H, 'i', 00H, 'n', 00H, ' ', 00H, 'O', 00H
	DB	'p', 00H, 'e', 00H, 'n', 00H, 'G', 00H, 'L', 00H, '3', 00H, '2'
	DB	00H, '.', 00H, 'd', 00H, 'l', 00H, 'l', 00H, 00H, 00H
	ORG $+2
$SG321583 DB	'g', 00H, 'l', 00H, 'R', 00H, 'e', 00H, 'c', 00H, 't', 00H
	DB	'f', 00H, 'v', 00H, 00H, 00H
	ORG $+2
$SG319535 DB	'glGetTexEnvfv', 00H
	ORG $+2
$SG321584 DB	'[', 00H, ' ', 00H, 'O', 00H, 'p', 00H, 'e', 00H, 'n', 00H
	DB	'G', 00H, 'L', 00H, '3', 00H, '2', 00H, ' ', 00H, ']', 00H, ' '
	DB	00H, 'U', 00H, 'n', 00H, 'a', 00H, 'b', 00H, 'l', 00H, 'e', 00H
	DB	' ', 00H, 't', 00H, 'o', 00H, ' ', 00H, 'l', 00H, 'o', 00H, 'c'
	DB	00H, 'a', 00H, 't', 00H, 'e', 00H, ' ', 00H, 's', 00H, 'y', 00H
	DB	'm', 00H, 'b', 00H, 'o', 00H, 'l', 00H, ' ', 00H, ' ', 00H, '%'
	DB	00H, 's', 00H, ' ', 00H, 'i', 00H, 'n', 00H, ' ', 00H, 'O', 00H
	DB	'p', 00H, 'e', 00H, 'n', 00H, 'G', 00H, 'L', 00H, '3', 00H, '2'
	DB	00H, '.', 00H, 'd', 00H, 'l', 00H, 'l', 00H, 00H, 00H
	ORG $+2
$SG320561 DB	'glNormal3b', 00H
	ORG $+1
$SG319539 DB	'g', 00H, 'l', 00H, 'G', 00H, 'e', 00H, 't', 00H, 'T', 00H
	DB	'e', 00H, 'x', 00H, 'E', 00H, 'n', 00H, 'v', 00H, 'f', 00H, 'v'
	DB	00H, 00H, 00H
$SG323637 DB	'g', 00H, 'd', 00H, 'i', 00H, '3', 00H, '2', 00H, '.', 00H
	DB	'd', 00H, 'l', 00H, 'l', 00H, 00H, 00H
$SG319540 DB	'[', 00H, ' ', 00H, 'O', 00H, 'p', 00H, 'e', 00H, 'n', 00H
	DB	'G', 00H, 'L', 00H, '3', 00H, '2', 00H, ' ', 00H, ']', 00H, ' '
	DB	00H, 'U', 00H, 'n', 00H, 'a', 00H, 'b', 00H, 'l', 00H, 'e', 00H
	DB	' ', 00H, 't', 00H, 'o', 00H, ' ', 00H, 'l', 00H, 'o', 00H, 'c'
	DB	00H, 'a', 00H, 't', 00H, 'e', 00H, ' ', 00H, 's', 00H, 'y', 00H
	DB	'm', 00H, 'b', 00H, 'o', 00H, 'l', 00H, ' ', 00H, ' ', 00H, '%'
	DB	00H, 's', 00H, ' ', 00H, 'i', 00H, 'n', 00H, ' ', 00H, 'O', 00H
	DB	'p', 00H, 'e', 00H, 'n', 00H, 'G', 00H, 'L', 00H, '3', 00H, '2'
	DB	00H, '.', 00H, 'd', 00H, 'l', 00H, 'l', 00H, 00H, 00H
	ORG $+2
$SG322613 DB	'glTexParameterf', 00H
$SG320565 DB	'g', 00H, 'l', 00H, 'N', 00H, 'o', 00H, 'r', 00H, 'm', 00H
	DB	'a', 00H, 'l', 00H, '3', 00H, 'b', 00H, 00H, 00H
	ORG $+2
$SG323638 DB	'SwapBuffers', 00H
$SG320566 DB	'[', 00H, ' ', 00H, 'O', 00H, 'p', 00H, 'e', 00H, 'n', 00H
	DB	'G', 00H, 'L', 00H, '3', 00H, '2', 00H, ' ', 00H, ']', 00H, ' '
	DB	00H, 'U', 00H, 'n', 00H, 'a', 00H, 'b', 00H, 'l', 00H, 'e', 00H
	DB	' ', 00H, 't', 00H, 'o', 00H, ' ', 00H, 'l', 00H, 'o', 00H, 'c'
	DB	00H, 'a', 00H, 't', 00H, 'e', 00H, ' ', 00H, 's', 00H, 'y', 00H
	DB	'm', 00H, 'b', 00H, 'o', 00H, 'l', 00H, ' ', 00H, ' ', 00H, '%'
	DB	00H, 's', 00H, ' ', 00H, 'i', 00H, 'n', 00H, ' ', 00H, 'O', 00H
	DB	'p', 00H, 'e', 00H, 'n', 00H, 'G', 00H, 'L', 00H, '3', 00H, '2'
	DB	00H, '.', 00H, 'd', 00H, 'l', 00H, 'l', 00H, 00H, 00H
	ORG $+2
$SG322617 DB	'g', 00H, 'l', 00H, 'T', 00H, 'e', 00H, 'x', 00H, 'P', 00H
	DB	'a', 00H, 'r', 00H, 'a', 00H, 'm', 00H, 'e', 00H, 't', 00H, 'e'
	DB	00H, 'r', 00H, 'f', 00H, 00H, 00H
$SG320575 DB	'glNormal3bv', 00H
$SG322618 DB	'[', 00H, ' ', 00H, 'O', 00H, 'p', 00H, 'e', 00H, 'n', 00H
	DB	'G', 00H, 'L', 00H, '3', 00H, '2', 00H, ' ', 00H, ']', 00H, ' '
	DB	00H, 'U', 00H, 'n', 00H, 'a', 00H, 'b', 00H, 'l', 00H, 'e', 00H
	DB	' ', 00H, 't', 00H, 'o', 00H, ' ', 00H, 'l', 00H, 'o', 00H, 'c'
	DB	00H, 'a', 00H, 't', 00H, 'e', 00H, ' ', 00H, 's', 00H, 'y', 00H
	DB	'm', 00H, 'b', 00H, 'o', 00H, 'l', 00H, ' ', 00H, ' ', 00H, '%'
	DB	00H, 's', 00H, ' ', 00H, 'i', 00H, 'n', 00H, ' ', 00H, 'O', 00H
	DB	'p', 00H, 'e', 00H, 'n', 00H, 'G', 00H, 'L', 00H, '3', 00H, '2'
	DB	00H, '.', 00H, 'd', 00H, 'l', 00H, 'l', 00H, 00H, 00H
	ORG $+2
$SG321599 DB	'glRecti', 00H
$SG319553 DB	'glGetTexEnviv', 00H
	ORG $+2
$SG321603 DB	'g', 00H, 'l', 00H, 'R', 00H, 'e', 00H, 'c', 00H, 't', 00H
	DB	'i', 00H, 00H, 00H
$SG320579 DB	'g', 00H, 'l', 00H, 'N', 00H, 'o', 00H, 'r', 00H, 'm', 00H
	DB	'a', 00H, 'l', 00H, '3', 00H, 'b', 00H, 'v', 00H, 00H, 00H
$SG319557 DB	'g', 00H, 'l', 00H, 'G', 00H, 'e', 00H, 't', 00H, 'T', 00H
	DB	'e', 00H, 'x', 00H, 'E', 00H, 'n', 00H, 'v', 00H, 'i', 00H, 'v'
	DB	00H, 00H, 00H
$SG321604 DB	'[', 00H, ' ', 00H, 'O', 00H, 'p', 00H, 'e', 00H, 'n', 00H
	DB	'G', 00H, 'L', 00H, '3', 00H, '2', 00H, ' ', 00H, ']', 00H, ' '
	DB	00H, 'U', 00H, 'n', 00H, 'a', 00H, 'b', 00H, 'l', 00H, 'e', 00H
	DB	' ', 00H, 't', 00H, 'o', 00H, ' ', 00H, 'l', 00H, 'o', 00H, 'c'
	DB	00H, 'a', 00H, 't', 00H, 'e', 00H, ' ', 00H, 's', 00H, 'y', 00H
	DB	'm', 00H, 'b', 00H, 'o', 00H, 'l', 00H, ' ', 00H, ' ', 00H, '%'
	DB	00H, 's', 00H, ' ', 00H, 'i', 00H, 'n', 00H, ' ', 00H, 'O', 00H
	DB	'p', 00H, 'e', 00H, 'n', 00H, 'G', 00H, 'L', 00H, '3', 00H, '2'
	DB	00H, '.', 00H, 'd', 00H, 'l', 00H, 'l', 00H, 00H, 00H
	ORG $+2
$SG318533 DB	'glCopyTexSubImage2D', 00H
$SG320580 DB	'[', 00H, ' ', 00H, 'O', 00H, 'p', 00H, 'e', 00H, 'n', 00H
	DB	'G', 00H, 'L', 00H, '3', 00H, '2', 00H, ' ', 00H, ']', 00H, ' '
	DB	00H, 'U', 00H, 'n', 00H, 'a', 00H, 'b', 00H, 'l', 00H, 'e', 00H
	DB	' ', 00H, 't', 00H, 'o', 00H, ' ', 00H, 'l', 00H, 'o', 00H, 'c'
	DB	00H, 'a', 00H, 't', 00H, 'e', 00H, ' ', 00H, 's', 00H, 'y', 00H
	DB	'm', 00H, 'b', 00H, 'o', 00H, 'l', 00H, ' ', 00H, ' ', 00H, '%'
	DB	00H, 's', 00H, ' ', 00H, 'i', 00H, 'n', 00H, ' ', 00H, 'O', 00H
	DB	'p', 00H, 'e', 00H, 'n', 00H, 'G', 00H, 'L', 00H, '3', 00H, '2'
	DB	00H, '.', 00H, 'd', 00H, 'l', 00H, 'l', 00H, 00H, 00H
	ORG $+2
$SG323654 DB	'wglSwapBuffers', 00H
	ORG $+1
$SG322631 DB	'glTexParameterfv', 00H
	ORG $+3
$SG319558 DB	'[', 00H, ' ', 00H, 'O', 00H, 'p', 00H, 'e', 00H, 'n', 00H
	DB	'G', 00H, 'L', 00H, '3', 00H, '2', 00H, ' ', 00H, ']', 00H, ' '
	DB	00H, 'U', 00H, 'n', 00H, 'a', 00H, 'b', 00H, 'l', 00H, 'e', 00H
	DB	' ', 00H, 't', 00H, 'o', 00H, ' ', 00H, 'l', 00H, 'o', 00H, 'c'
	DB	00H, 'a', 00H, 't', 00H, 'e', 00H, ' ', 00H, 's', 00H, 'y', 00H
	DB	'm', 00H, 'b', 00H, 'o', 00H, 'l', 00H, ' ', 00H, ' ', 00H, '%'
	DB	00H, 's', 00H, ' ', 00H, 'i', 00H, 'n', 00H, ' ', 00H, 'O', 00H
	DB	'p', 00H, 'e', 00H, 'n', 00H, 'G', 00H, 'L', 00H, '3', 00H, '2'
	DB	00H, '.', 00H, 'd', 00H, 'l', 00H, 'l', 00H, 00H, 00H
	ORG $+2
$SG318537 DB	'g', 00H, 'l', 00H, 'C', 00H, 'o', 00H, 'p', 00H, 'y', 00H
	DB	'T', 00H, 'e', 00H, 'x', 00H, 'S', 00H, 'u', 00H, 'b', 00H, 'I'
	DB	00H, 'm', 00H, 'a', 00H, 'g', 00H, 'e', 00H, '2', 00H, 'D', 00H
	DB	00H, 00H
$SG322635 DB	'g', 00H, 'l', 00H, 'T', 00H, 'e', 00H, 'x', 00H, 'P', 00H
	DB	'a', 00H, 'r', 00H, 'a', 00H, 'm', 00H, 'e', 00H, 't', 00H, 'e'
	DB	00H, 'r', 00H, 'f', 00H, 'v', 00H, 00H, 00H
	ORG $+2
$SG318538 DB	'[', 00H, ' ', 00H, 'O', 00H, 'p', 00H, 'e', 00H, 'n', 00H
	DB	'G', 00H, 'L', 00H, '3', 00H, '2', 00H, ' ', 00H, ']', 00H, ' '
	DB	00H, 'U', 00H, 'n', 00H, 'a', 00H, 'b', 00H, 'l', 00H, 'e', 00H
	DB	' ', 00H, 't', 00H, 'o', 00H, ' ', 00H, 'l', 00H, 'o', 00H, 'c'
	DB	00H, 'a', 00H, 't', 00H, 'e', 00H, ' ', 00H, 's', 00H, 'y', 00H
	DB	'm', 00H, 'b', 00H, 'o', 00H, 'l', 00H, ' ', 00H, ' ', 00H, '%'
	DB	00H, 's', 00H, ' ', 00H, 'i', 00H, 'n', 00H, ' ', 00H, 'O', 00H
	DB	'p', 00H, 'e', 00H, 'n', 00H, 'G', 00H, 'L', 00H, '3', 00H, '2'
	DB	00H, '.', 00H, 'd', 00H, 'l', 00H, 'l', 00H, 00H, 00H
	ORG $+2
$SG321615 DB	'glRectiv', 00H
	ORG $+3
$SG322636 DB	'[', 00H, ' ', 00H, 'O', 00H, 'p', 00H, 'e', 00H, 'n', 00H
	DB	'G', 00H, 'L', 00H, '3', 00H, '2', 00H, ' ', 00H, ']', 00H, ' '
	DB	00H, 'U', 00H, 'n', 00H, 'a', 00H, 'b', 00H, 'l', 00H, 'e', 00H
	DB	' ', 00H, 't', 00H, 'o', 00H, ' ', 00H, 'l', 00H, 'o', 00H, 'c'
	DB	00H, 'a', 00H, 't', 00H, 'e', 00H, ' ', 00H, 's', 00H, 'y', 00H
	DB	'm', 00H, 'b', 00H, 'o', 00H, 'l', 00H, ' ', 00H, ' ', 00H, '%'
	DB	00H, 's', 00H, ' ', 00H, 'i', 00H, 'n', 00H, ' ', 00H, 'O', 00H
	DB	'p', 00H, 'e', 00H, 'n', 00H, 'G', 00H, 'L', 00H, '3', 00H, '2'
	DB	00H, '.', 00H, 'd', 00H, 'l', 00H, 'l', 00H, 00H, 00H
	ORG $+2
$SG320593 DB	'glNormal3d', 00H
	ORG $+1
$SG321619 DB	'g', 00H, 'l', 00H, 'R', 00H, 'e', 00H, 'c', 00H, 't', 00H
	DB	'i', 00H, 'v', 00H, 00H, 00H
	ORG $+2
$SG319571 DB	'glGetTexGendv', 00H
	ORG $+2
$SG318547 DB	'glCullFace', 00H
	ORG $+1
$SG321620 DB	'[', 00H, ' ', 00H, 'O', 00H, 'p', 00H, 'e', 00H, 'n', 00H
	DB	'G', 00H, 'L', 00H, '3', 00H, '2', 00H, ' ', 00H, ']', 00H, ' '
	DB	00H, 'U', 00H, 'n', 00H, 'a', 00H, 'b', 00H, 'l', 00H, 'e', 00H
	DB	' ', 00H, 't', 00H, 'o', 00H, ' ', 00H, 'l', 00H, 'o', 00H, 'c'
	DB	00H, 'a', 00H, 't', 00H, 'e', 00H, ' ', 00H, 's', 00H, 'y', 00H
	DB	'm', 00H, 'b', 00H, 'o', 00H, 'l', 00H, ' ', 00H, ' ', 00H, '%'
	DB	00H, 's', 00H, ' ', 00H, 'i', 00H, 'n', 00H, ' ', 00H, 'O', 00H
	DB	'p', 00H, 'e', 00H, 'n', 00H, 'G', 00H, 'L', 00H, '3', 00H, '2'
	DB	00H, '.', 00H, 'd', 00H, 'l', 00H, 'l', 00H, 00H, 00H
	ORG $+2
$SG320597 DB	'g', 00H, 'l', 00H, 'N', 00H, 'o', 00H, 'r', 00H, 'm', 00H
	DB	'a', 00H, 'l', 00H, '3', 00H, 'd', 00H, 00H, 00H
	ORG $+2
$SG319575 DB	'g', 00H, 'l', 00H, 'G', 00H, 'e', 00H, 't', 00H, 'T', 00H
	DB	'e', 00H, 'x', 00H, 'G', 00H, 'e', 00H, 'n', 00H, 'd', 00H, 'v'
	DB	00H, 00H, 00H
$SG320598 DB	'[', 00H, ' ', 00H, 'O', 00H, 'p', 00H, 'e', 00H, 'n', 00H
	DB	'G', 00H, 'L', 00H, '3', 00H, '2', 00H, ' ', 00H, ']', 00H, ' '
	DB	00H, 'U', 00H, 'n', 00H, 'a', 00H, 'b', 00H, 'l', 00H, 'e', 00H
	DB	' ', 00H, 't', 00H, 'o', 00H, ' ', 00H, 'l', 00H, 'o', 00H, 'c'
	DB	00H, 'a', 00H, 't', 00H, 'e', 00H, ' ', 00H, 's', 00H, 'y', 00H
	DB	'm', 00H, 'b', 00H, 'o', 00H, 'l', 00H, ' ', 00H, ' ', 00H, '%'
	DB	00H, 's', 00H, ' ', 00H, 'i', 00H, 'n', 00H, ' ', 00H, 'O', 00H
	DB	'p', 00H, 'e', 00H, 'n', 00H, 'G', 00H, 'L', 00H, '3', 00H, '2'
	DB	00H, '.', 00H, 'd', 00H, 'l', 00H, 'l', 00H, 00H, 00H
	ORG $+2
$SG318551 DB	'g', 00H, 'l', 00H, 'C', 00H, 'u', 00H, 'l', 00H, 'l', 00H
	DB	'F', 00H, 'a', 00H, 'c', 00H, 'e', 00H, 00H, 00H
	ORG $+2
$SG322649 DB	'glTexParameteri', 00H
$SG317532 DB	'\', 00H, 00H, 00H
$SG319576 DB	'[', 00H, ' ', 00H, 'O', 00H, 'p', 00H, 'e', 00H, 'n', 00H
	DB	'G', 00H, 'L', 00H, '3', 00H, '2', 00H, ' ', 00H, ']', 00H, ' '
	DB	00H, 'U', 00H, 'n', 00H, 'a', 00H, 'b', 00H, 'l', 00H, 'e', 00H
	DB	' ', 00H, 't', 00H, 'o', 00H, ' ', 00H, 'l', 00H, 'o', 00H, 'c'
	DB	00H, 'a', 00H, 't', 00H, 'e', 00H, ' ', 00H, 's', 00H, 'y', 00H
	DB	'm', 00H, 'b', 00H, 'o', 00H, 'l', 00H, ' ', 00H, ' ', 00H, '%'
	DB	00H, 's', 00H, ' ', 00H, 'i', 00H, 'n', 00H, ' ', 00H, 'O', 00H
	DB	'p', 00H, 'e', 00H, 'n', 00H, 'G', 00H, 'L', 00H, '3', 00H, '2'
	DB	00H, '.', 00H, 'd', 00H, 'l', 00H, 'l', 00H, 00H, 00H
	ORG $+2
$SG322653 DB	'g', 00H, 'l', 00H, 'T', 00H, 'e', 00H, 'x', 00H, 'P', 00H
	DB	'a', 00H, 'r', 00H, 'a', 00H, 'm', 00H, 'e', 00H, 't', 00H, 'e'
	DB	00H, 'r', 00H, 'i', 00H, 00H, 00H
$SG317533 DB	'O', 00H, 'p', 00H, 'e', 00H, 'n', 00H, 'G', 00H, 'L', 00H
	DB	'3', 00H, '2', 00H, '.', 00H, 'd', 00H, 'l', 00H, 'l', 00H, 00H
	DB	00H
	ORG $+2
$SG318552 DB	'[', 00H, ' ', 00H, 'O', 00H, 'p', 00H, 'e', 00H, 'n', 00H
	DB	'G', 00H, 'L', 00H, '3', 00H, '2', 00H, ' ', 00H, ']', 00H, ' '
	DB	00H, 'U', 00H, 'n', 00H, 'a', 00H, 'b', 00H, 'l', 00H, 'e', 00H
	DB	' ', 00H, 't', 00H, 'o', 00H, ' ', 00H, 'l', 00H, 'o', 00H, 'c'
	DB	00H, 'a', 00H, 't', 00H, 'e', 00H, ' ', 00H, 's', 00H, 'y', 00H
	DB	'm', 00H, 'b', 00H, 'o', 00H, 'l', 00H, ' ', 00H, ' ', 00H, '%'
	DB	00H, 's', 00H, ' ', 00H, 'i', 00H, 'n', 00H, ' ', 00H, 'O', 00H
	DB	'p', 00H, 'e', 00H, 'n', 00H, 'G', 00H, 'L', 00H, '3', 00H, '2'
	DB	00H, '.', 00H, 'd', 00H, 'l', 00H, 'l', 00H, 00H, 00H
	ORG $+2
$SG320607 DB	'glNormal3dv', 00H
$SG322654 DB	'[', 00H, ' ', 00H, 'O', 00H, 'p', 00H, 'e', 00H, 'n', 00H
	DB	'G', 00H, 'L', 00H, '3', 00H, '2', 00H, ' ', 00H, ']', 00H, ' '
	DB	00H, 'U', 00H, 'n', 00H, 'a', 00H, 'b', 00H, 'l', 00H, 'e', 00H
	DB	' ', 00H, 't', 00H, 'o', 00H, ' ', 00H, 'l', 00H, 'o', 00H, 'c'
	DB	00H, 'a', 00H, 't', 00H, 'e', 00H, ' ', 00H, 's', 00H, 'y', 00H
	DB	'm', 00H, 'b', 00H, 'o', 00H, 'l', 00H, ' ', 00H, ' ', 00H, '%'
	DB	00H, 's', 00H, ' ', 00H, 'i', 00H, 'n', 00H, ' ', 00H, 'O', 00H
	DB	'p', 00H, 'e', 00H, 'n', 00H, 'G', 00H, 'L', 00H, '3', 00H, '2'
	DB	00H, '.', 00H, 'd', 00H, 'l', 00H, 'l', 00H, 00H, 00H
	ORG $+2
$SG321635 DB	'glRects', 00H
$SG320611 DB	'g', 00H, 'l', 00H, 'N', 00H, 'o', 00H, 'r', 00H, 'm', 00H
	DB	'a', 00H, 'l', 00H, '3', 00H, 'd', 00H, 'v', 00H, 00H, 00H
$SG318563 DB	'glDebugEntry', 00H
	ORG $+3
$SG319589 DB	'glGetTexGenfv', 00H
	ORG $+2
$SG317542 DB	'O', 00H, 'p', 00H, 'e', 00H, 'n', 00H, 'G', 00H, 'L', 00H
	DB	'3', 00H, '2', 00H, 00H, 00H
	ORG $+2
$SG320612 DB	'[', 00H, ' ', 00H, 'O', 00H, 'p', 00H, 'e', 00H, 'n', 00H
	DB	'G', 00H, 'L', 00H, '3', 00H, '2', 00H, ' ', 00H, ']', 00H, ' '
	DB	00H, 'U', 00H, 'n', 00H, 'a', 00H, 'b', 00H, 'l', 00H, 'e', 00H
	DB	' ', 00H, 't', 00H, 'o', 00H, ' ', 00H, 'l', 00H, 'o', 00H, 'c'
	DB	00H, 'a', 00H, 't', 00H, 'e', 00H, ' ', 00H, 's', 00H, 'y', 00H
	DB	'm', 00H, 'b', 00H, 'o', 00H, 'l', 00H, ' ', 00H, ' ', 00H, '%'
	DB	00H, 's', 00H, ' ', 00H, 'i', 00H, 'n', 00H, ' ', 00H, 'O', 00H
	DB	'p', 00H, 'e', 00H, 'n', 00H, 'G', 00H, 'L', 00H, '3', 00H, '2'
	DB	00H, '.', 00H, 'd', 00H, 'l', 00H, 'l', 00H, 00H, 00H
	ORG $+2
$SG321639 DB	'g', 00H, 'l', 00H, 'R', 00H, 'e', 00H, 'c', 00H, 't', 00H
	DB	's', 00H, 00H, 00H
$SG318567 DB	'g', 00H, 'l', 00H, 'D', 00H, 'e', 00H, 'b', 00H, 'u', 00H
	DB	'g', 00H, 'E', 00H, 'n', 00H, 't', 00H, 'r', 00H, 'y', 00H, 00H
	DB	00H
	ORG $+2
$SG324710 DB	'[', 00H, ' ', 00H, 'O', 00H, 'p', 00H, 'e', 00H, 'n', 00H
	DB	'G', 00H, 'L', 00H, '3', 00H, '2', 00H, ' ', 00H, ']', 00H, ' '
	DB	00H, 'A', 00H, 'd', 00H, 'd', 00H, 'i', 00H, 't', 00H, 'i', 00H
	DB	'o', 00H, 'n', 00H, 'a', 00H, 'l', 00H, ' ', 00H, 'O', 00H, 'p'
	DB	00H, 'e', 00H, 'n', 00H, 'G', 00H, 'L', 00H, ' ', 00H, 'I', 00H
	DB	'n', 00H, 'i', 00H, 't', 00H, 'i', 00H, 'a', 00H, 'l', 00H, 'i'
	DB	00H, 'z', 00H, 'a', 00H, 't', 00H, 'i', 00H, 'o', 00H, 'n', 00H
	DB	00H, 00H
$SG319593 DB	'g', 00H, 'l', 00H, 'G', 00H, 'e', 00H, 't', 00H, 'T', 00H
	DB	'e', 00H, 'x', 00H, 'G', 00H, 'e', 00H, 'n', 00H, 'f', 00H, 'v'
	DB	00H, 00H, 00H
$SG324711 DB	'[', 00H, ' ', 00H, 'O', 00H, 'p', 00H, 'e', 00H, 'n', 00H
	DB	'G', 00H, 'L', 00H, '3', 00H, '2', 00H, ' ', 00H, ']', 00H, ' '
	DB	00H, '=', 00H, '=', 00H, '=', 00H, '=', 00H, '=', 00H, '=', 00H
	DB	'=', 00H, '=', 00H, '=', 00H, '=', 00H, '=', 00H, '=', 00H, '='
	DB	00H, '=', 00H, '=', 00H, '=', 00H, '=', 00H, '=', 00H, '=', 00H
	DB	'=', 00H, '=', 00H, '=', 00H, '=', 00H, '=', 00H, '=', 00H, '='
	DB	00H, '=', 00H, '=', 00H, '=', 00H, '=', 00H, '=', 00H, '=', 00H
	DB	00H, 00H
$SG324714 DB	'O', 00H, 'P', 00H, 'E', 00H, 'N', 00H, 'G', 00H, 'L', 00H
	DB	'3', 00H, '2', 00H, '.', 00H, 'd', 00H, 'l', 00H, 'l', 00H, 00H
	DB	00H
	ORG $+2
$SG321640 DB	'[', 00H, ' ', 00H, 'O', 00H, 'p', 00H, 'e', 00H, 'n', 00H
	DB	'G', 00H, 'L', 00H, '3', 00H, '2', 00H, ' ', 00H, ']', 00H, ' '
	DB	00H, 'U', 00H, 'n', 00H, 'a', 00H, 'b', 00H, 'l', 00H, 'e', 00H
	DB	' ', 00H, 't', 00H, 'o', 00H, ' ', 00H, 'l', 00H, 'o', 00H, 'c'
	DB	00H, 'a', 00H, 't', 00H, 'e', 00H, ' ', 00H, 's', 00H, 'y', 00H
	DB	'm', 00H, 'b', 00H, 'o', 00H, 'l', 00H, ' ', 00H, ' ', 00H, '%'
	DB	00H, 's', 00H, ' ', 00H, 'i', 00H, 'n', 00H, ' ', 00H, 'O', 00H
	DB	'p', 00H, 'e', 00H, 'n', 00H, 'G', 00H, 'L', 00H, '3', 00H, '2'
	DB	00H, '.', 00H, 'd', 00H, 'l', 00H, 'l', 00H, 00H, 00H
	ORG $+2
$SG317546 DB	'O', 00H, 'p', 00H, 'e', 00H, 'n', 00H, 'G', 00H, 'L', 00H
	DB	'3', 00H, '2', 00H, 00H, 00H
	ORG $+2
$SG318568 DB	'[', 00H, ' ', 00H, 'O', 00H, 'p', 00H, 'e', 00H, 'n', 00H
	DB	'G', 00H, 'L', 00H, '3', 00H, '2', 00H, ' ', 00H, ']', 00H, ' '
	DB	00H, 'U', 00H, 'n', 00H, 'a', 00H, 'b', 00H, 'l', 00H, 'e', 00H
	DB	' ', 00H, 't', 00H, 'o', 00H, ' ', 00H, 'l', 00H, 'o', 00H, 'c'
	DB	00H, 'a', 00H, 't', 00H, 'e', 00H, ' ', 00H, 's', 00H, 'y', 00H
	DB	'm', 00H, 'b', 00H, 'o', 00H, 'l', 00H, ' ', 00H, ' ', 00H, '%'
	DB	00H, 's', 00H, ' ', 00H, 'i', 00H, 'n', 00H, ' ', 00H, 'O', 00H
	DB	'p', 00H, 'e', 00H, 'n', 00H, 'G', 00H, 'L', 00H, '3', 00H, '2'
	DB	00H, '.', 00H, 'd', 00H, 'l', 00H, 'l', 00H, 00H, 00H
	ORG $+2
$SG324715 DB	'[', 00H, ' ', 00H, 'O', 00H, 'p', 00H, 'e', 00H, 'n', 00H
	DB	'G', 00H, 'L', 00H, '3', 00H, '2', 00H, ' ', 00H, ']', 00H, ' '
	DB	00H, 'H', 00H, 'o', 00H, 'o', 00H, 'k', 00H, 'i', 00H, 'n', 00H
	DB	'g', 00H, ' ', 00H, 'O', 00H, 'p', 00H, 'e', 00H, 'n', 00H, 'G'
	DB	00H, 'L', 00H, 00H, 00H
$SG322667 DB	'glTexParameteriv', 00H
	ORG $+3
$SG319594 DB	'[', 00H, ' ', 00H, 'O', 00H, 'p', 00H, 'e', 00H, 'n', 00H
	DB	'G', 00H, 'L', 00H, '3', 00H, '2', 00H, ' ', 00H, ']', 00H, ' '
	DB	00H, 'U', 00H, 'n', 00H, 'a', 00H, 'b', 00H, 'l', 00H, 'e', 00H
	DB	' ', 00H, 't', 00H, 'o', 00H, ' ', 00H, 'l', 00H, 'o', 00H, 'c'
	DB	00H, 'a', 00H, 't', 00H, 'e', 00H, ' ', 00H, 's', 00H, 'y', 00H
	DB	'm', 00H, 'b', 00H, 'o', 00H, 'l', 00H, ' ', 00H, ' ', 00H, '%'
	DB	00H, 's', 00H, ' ', 00H, 'i', 00H, 'n', 00H, ' ', 00H, 'O', 00H
	DB	'p', 00H, 'e', 00H, 'n', 00H, 'G', 00H, 'L', 00H, '3', 00H, '2'
	DB	00H, '.', 00H, 'd', 00H, 'l', 00H, 'l', 00H, 00H, 00H
	ORG $+2
$SG324717 DB	'O', 00H, 'p', 00H, 'e', 00H, 'n', 00H, 'G', 00H, 'L', 00H
	DB	'3', 00H, '2', 00H, '.', 00H, 'd', 00H, 'l', 00H, 'l', 00H, 00H
	DB	00H
	ORG $+2
$SG324718 DB	'wglSwapBuffers', 00H
	ORG $+1
$SG324719 DB	'glAccum', 00H
$SG323695 DB	'wglSwapLayerBuffers', 00H
$SG322671 DB	'g', 00H, 'l', 00H, 'T', 00H, 'e', 00H, 'x', 00H, 'P', 00H
	DB	'a', 00H, 'r', 00H, 'a', 00H, 'm', 00H, 'e', 00H, 't', 00H, 'e'
	DB	00H, 'r', 00H, 'i', 00H, 'v', 00H, 00H, 00H
	ORG $+2
$SG324720 DB	'glAlphaFunc', 00H
$SG320625 DB	'glNormal3f', 00H
	ORG $+1
$SG322672 DB	'[', 00H, ' ', 00H, 'O', 00H, 'p', 00H, 'e', 00H, 'n', 00H
	DB	'G', 00H, 'L', 00H, '3', 00H, '2', 00H, ' ', 00H, ']', 00H, ' '
	DB	00H, 'U', 00H, 'n', 00H, 'a', 00H, 'b', 00H, 'l', 00H, 'e', 00H
	DB	' ', 00H, 't', 00H, 'o', 00H, ' ', 00H, 'l', 00H, 'o', 00H, 'c'
	DB	00H, 'a', 00H, 't', 00H, 'e', 00H, ' ', 00H, 's', 00H, 'y', 00H
	DB	'm', 00H, 'b', 00H, 'o', 00H, 'l', 00H, ' ', 00H, ' ', 00H, '%'
	DB	00H, 's', 00H, ' ', 00H, 'i', 00H, 'n', 00H, ' ', 00H, 'O', 00H
	DB	'p', 00H, 'e', 00H, 'n', 00H, 'G', 00H, 'L', 00H, '3', 00H, '2'
	DB	00H, '.', 00H, 'd', 00H, 'l', 00H, 'l', 00H, 00H, 00H
	ORG $+2
$SG324721 DB	'glAreTexturesResident', 00H
	ORG $+2
$SG324722 DB	'glArrayElement', 00H
	ORG $+1
$SG324723 DB	'glBegin', 00H
$SG323699 DB	'w', 00H, 'g', 00H, 'l', 00H, 'S', 00H, 'w', 00H, 'a', 00H
	DB	'p', 00H, 'L', 00H, 'a', 00H, 'y', 00H, 'e', 00H, 'r', 00H, 'B'
	DB	00H, 'u', 00H, 'f', 00H, 'f', 00H, 'e', 00H, 'r', 00H, 's', 00H
	DB	00H, 00H
$SG321651 DB	'glRectsv', 00H
	ORG $+3
$SG318579 DB	'glDeleteLists', 00H
	ORG $+2
$SG324724 DB	'glBindTexture', 00H
	ORG $+2
$SG323700 DB	'[', 00H, ' ', 00H, 'O', 00H, 'p', 00H, 'e', 00H, 'n', 00H
	DB	'G', 00H, 'L', 00H, '3', 00H, '2', 00H, ' ', 00H, ']', 00H, ' '
	DB	00H, 'U', 00H, 'n', 00H, 'a', 00H, 'b', 00H, 'l', 00H, 'e', 00H
	DB	' ', 00H, 't', 00H, 'o', 00H, ' ', 00H, 'l', 00H, 'o', 00H, 'c'
	DB	00H, 'a', 00H, 't', 00H, 'e', 00H, ' ', 00H, 's', 00H, 'y', 00H
	DB	'm', 00H, 'b', 00H, 'o', 00H, 'l', 00H, ' ', 00H, ' ', 00H, '%'
	DB	00H, 's', 00H, ' ', 00H, 'i', 00H, 'n', 00H, ' ', 00H, 'O', 00H
	DB	'p', 00H, 'e', 00H, 'n', 00H, 'G', 00H, 'L', 00H, '3', 00H, '2'
	DB	00H, '.', 00H, 'd', 00H, 'l', 00H, 'l', 00H, 00H, 00H
	ORG $+2
$SG324725 DB	'glBitmap', 00H
	ORG $+3
$SG320629 DB	'g', 00H, 'l', 00H, 'N', 00H, 'o', 00H, 'r', 00H, 'm', 00H
	DB	'a', 00H, 'l', 00H, '3', 00H, 'f', 00H, 00H, 00H
	ORG $+2
$SG317557 DB	'glAccum', 00H
$SG324726 DB	'glBlendFunc', 00H
$SG324727 DB	'glCallList', 00H
	ORG $+1
$SG320630 DB	'[', 00H, ' ', 00H, 'O', 00H, 'p', 00H, 'e', 00H, 'n', 00H
	DB	'G', 00H, 'L', 00H, '3', 00H, '2', 00H, ' ', 00H, ']', 00H, ' '
	DB	00H, 'U', 00H, 'n', 00H, 'a', 00H, 'b', 00H, 'l', 00H, 'e', 00H
	DB	' ', 00H, 't', 00H, 'o', 00H, ' ', 00H, 'l', 00H, 'o', 00H, 'c'
	DB	00H, 'a', 00H, 't', 00H, 'e', 00H, ' ', 00H, 's', 00H, 'y', 00H
	DB	'm', 00H, 'b', 00H, 'o', 00H, 'l', 00H, ' ', 00H, ' ', 00H, '%'
	DB	00H, 's', 00H, ' ', 00H, 'i', 00H, 'n', 00H, ' ', 00H, 'O', 00H
	DB	'p', 00H, 'e', 00H, 'n', 00H, 'G', 00H, 'L', 00H, '3', 00H, '2'
	DB	00H, '.', 00H, 'd', 00H, 'l', 00H, 'l', 00H, 00H, 00H
	ORG $+2
$SG321655 DB	'g', 00H, 'l', 00H, 'R', 00H, 'e', 00H, 'c', 00H, 't', 00H
	DB	's', 00H, 'v', 00H, 00H, 00H
	ORG $+2
$SG319607 DB	'glGetTexGeniv', 00H
	ORG $+2
$SG318583 DB	'g', 00H, 'l', 00H, 'D', 00H, 'e', 00H, 'l', 00H, 'e', 00H
	DB	't', 00H, 'e', 00H, 'L', 00H, 'i', 00H, 's', 00H, 't', 00H, 's'
	DB	00H, 00H, 00H
$SG324728 DB	'glCallLists', 00H
$SG321656 DB	'[', 00H, ' ', 00H, 'O', 00H, 'p', 00H, 'e', 00H, 'n', 00H
	DB	'G', 00H, 'L', 00H, '3', 00H, '2', 00H, ' ', 00H, ']', 00H, ' '
	DB	00H, 'U', 00H, 'n', 00H, 'a', 00H, 'b', 00H, 'l', 00H, 'e', 00H
	DB	' ', 00H, 't', 00H, 'o', 00H, ' ', 00H, 'l', 00H, 'o', 00H, 'c'
	DB	00H, 'a', 00H, 't', 00H, 'e', 00H, ' ', 00H, 's', 00H, 'y', 00H
	DB	'm', 00H, 'b', 00H, 'o', 00H, 'l', 00H, ' ', 00H, ' ', 00H, '%'
	DB	00H, 's', 00H, ' ', 00H, 'i', 00H, 'n', 00H, ' ', 00H, 'O', 00H
	DB	'p', 00H, 'e', 00H, 'n', 00H, 'G', 00H, 'L', 00H, '3', 00H, '2'
	DB	00H, '.', 00H, 'd', 00H, 'l', 00H, 'l', 00H, 00H, 00H
	ORG $+2
$SG324729 DB	'glClear', 00H
$SG319611 DB	'g', 00H, 'l', 00H, 'G', 00H, 'e', 00H, 't', 00H, 'T', 00H
	DB	'e', 00H, 'x', 00H, 'G', 00H, 'e', 00H, 'n', 00H, 'i', 00H, 'v'
	DB	00H, 00H, 00H
$SG318584 DB	'[', 00H, ' ', 00H, 'O', 00H, 'p', 00H, 'e', 00H, 'n', 00H
	DB	'G', 00H, 'L', 00H, '3', 00H, '2', 00H, ' ', 00H, ']', 00H, ' '
	DB	00H, 'U', 00H, 'n', 00H, 'a', 00H, 'b', 00H, 'l', 00H, 'e', 00H
	DB	' ', 00H, 't', 00H, 'o', 00H, ' ', 00H, 'l', 00H, 'o', 00H, 'c'
	DB	00H, 'a', 00H, 't', 00H, 'e', 00H, ' ', 00H, 's', 00H, 'y', 00H
	DB	'm', 00H, 'b', 00H, 'o', 00H, 'l', 00H, ' ', 00H, ' ', 00H, '%'
	DB	00H, 's', 00H, ' ', 00H, 'i', 00H, 'n', 00H, ' ', 00H, 'O', 00H
	DB	'p', 00H, 'e', 00H, 'n', 00H, 'G', 00H, 'L', 00H, '3', 00H, '2'
	DB	00H, '.', 00H, 'd', 00H, 'l', 00H, 'l', 00H, 00H, 00H
	ORG $+2
$SG317561 DB	'g', 00H, 'l', 00H, 'A', 00H, 'c', 00H, 'c', 00H, 'u', 00H
	DB	'm', 00H, 00H, 00H
$SG324730 DB	'glClearAccum', 00H
	ORG $+3
$SG324734 DB	'glClearStencil', 00H
	ORG $+1
$SG324735 DB	'glClipPlane', 00H
$SG317562 DB	'[', 00H, ' ', 00H, 'O', 00H, 'p', 00H, 'e', 00H, 'n', 00H
	DB	'G', 00H, 'L', 00H, '3', 00H, '2', 00H, ' ', 00H, ']', 00H, ' '
	DB	00H, 'U', 00H, 'n', 00H, 'a', 00H, 'b', 00H, 'l', 00H, 'e', 00H
	DB	' ', 00H, 't', 00H, 'o', 00H, ' ', 00H, 'l', 00H, 'o', 00H, 'c'
	DB	00H, 'a', 00H, 't', 00H, 'e', 00H, ' ', 00H, 's', 00H, 'y', 00H
	DB	'm', 00H, 'b', 00H, 'o', 00H, 'l', 00H, ' ', 00H, ' ', 00H, '%'
	DB	00H, 's', 00H, ' ', 00H, 'i', 00H, 'n', 00H, ' ', 00H, 'O', 00H
	DB	'p', 00H, 'e', 00H, 'n', 00H, 'G', 00H, 'L', 00H, '3', 00H, '2'
	DB	00H, '.', 00H, 'd', 00H, 'l', 00H, 'l', 00H, 00H, 00H
	ORG $+2
$SG324731 DB	'glClearColor', 00H
	ORG $+3
$SG324732 DB	'glClearDepth', 00H
	ORG $+3
$SG320639 DB	'glNormal3fv', 00H
$SG319612 DB	'[', 00H, ' ', 00H, 'O', 00H, 'p', 00H, 'e', 00H, 'n', 00H
	DB	'G', 00H, 'L', 00H, '3', 00H, '2', 00H, ' ', 00H, ']', 00H, ' '
	DB	00H, 'U', 00H, 'n', 00H, 'a', 00H, 'b', 00H, 'l', 00H, 'e', 00H
	DB	' ', 00H, 't', 00H, 'o', 00H, ' ', 00H, 'l', 00H, 'o', 00H, 'c'
	DB	00H, 'a', 00H, 't', 00H, 'e', 00H, ' ', 00H, 's', 00H, 'y', 00H
	DB	'm', 00H, 'b', 00H, 'o', 00H, 'l', 00H, ' ', 00H, ' ', 00H, '%'
	DB	00H, 's', 00H, ' ', 00H, 'i', 00H, 'n', 00H, ' ', 00H, 'O', 00H
	DB	'p', 00H, 'e', 00H, 'n', 00H, 'G', 00H, 'L', 00H, '3', 00H, '2'
	DB	00H, '.', 00H, 'd', 00H, 'l', 00H, 'l', 00H, 00H, 00H
	ORG $+2
$SG324733 DB	'glClearIndex', 00H
	ORG $+3
$SG324736 DB	'glColor3b', 00H
	ORG $+2
$SG324737 DB	'glColor3bv', 00H
	ORG $+1
$SG321665 DB	'glRenderMode', 00H
	ORG $+3
$SG324738 DB	'glColor3d', 00H
	ORG $+2
$SG324739 DB	'glColor3dv', 00H
	ORG $+1
$SG320643 DB	'g', 00H, 'l', 00H, 'N', 00H, 'o', 00H, 'r', 00H, 'm', 00H
	DB	'a', 00H, 'l', 00H, '3', 00H, 'f', 00H, 'v', 00H, 00H, 00H
$SG318595 DB	'glDeleteTextures', 00H
	ORG $+3
$SG324740 DB	'glColor3f', 00H
	ORG $+2
$SG324741 DB	'glColor3fv', 00H
	ORG $+1
$SG320644 DB	'[', 00H, ' ', 00H, 'O', 00H, 'p', 00H, 'e', 00H, 'n', 00H
	DB	'G', 00H, 'L', 00H, '3', 00H, '2', 00H, ' ', 00H, ']', 00H, ' '
	DB	00H, 'U', 00H, 'n', 00H, 'a', 00H, 'b', 00H, 'l', 00H, 'e', 00H
	DB	' ', 00H, 't', 00H, 'o', 00H, ' ', 00H, 'l', 00H, 'o', 00H, 'c'
	DB	00H, 'a', 00H, 't', 00H, 'e', 00H, ' ', 00H, 's', 00H, 'y', 00H
	DB	'm', 00H, 'b', 00H, 'o', 00H, 'l', 00H, ' ', 00H, ' ', 00H, '%'
	DB	00H, 's', 00H, ' ', 00H, 'i', 00H, 'n', 00H, ' ', 00H, 'O', 00H
	DB	'p', 00H, 'e', 00H, 'n', 00H, 'G', 00H, 'L', 00H, '3', 00H, '2'
	DB	00H, '.', 00H, 'd', 00H, 'l', 00H, 'l', 00H, 00H, 00H
	ORG $+2
$SG322693 DB	'glTexSubImage1D', 00H
$SG321669 DB	'g', 00H, 'l', 00H, 'R', 00H, 'e', 00H, 'n', 00H, 'd', 00H
	DB	'e', 00H, 'r', 00H, 'M', 00H, 'o', 00H, 'd', 00H, 'e', 00H, 00H
	DB	00H
	ORG $+2
$SG317573 DB	'glAlphaFunc', 00H
$SG324742 DB	'glColor3i', 00H
	ORG $+2
$SG321670 DB	'[', 00H, ' ', 00H, 'O', 00H, 'p', 00H, 'e', 00H, 'n', 00H
	DB	'G', 00H, 'L', 00H, '3', 00H, '2', 00H, ' ', 00H, ']', 00H, ' '
	DB	00H, 'U', 00H, 'n', 00H, 'a', 00H, 'b', 00H, 'l', 00H, 'e', 00H
	DB	' ', 00H, 't', 00H, 'o', 00H, ' ', 00H, 'l', 00H, 'o', 00H, 'c'
	DB	00H, 'a', 00H, 't', 00H, 'e', 00H, ' ', 00H, 's', 00H, 'y', 00H
	DB	'm', 00H, 'b', 00H, 'o', 00H, 'l', 00H, ' ', 00H, ' ', 00H, '%'
	DB	00H, 's', 00H, ' ', 00H, 'i', 00H, 'n', 00H, ' ', 00H, 'O', 00H
	DB	'p', 00H, 'e', 00H, 'n', 00H, 'G', 00H, 'L', 00H, '3', 00H, '2'
	DB	00H, '.', 00H, 'd', 00H, 'l', 00H, 'l', 00H, 00H, 00H
	ORG $+2
$SG324743 DB	'glColor3iv', 00H
	ORG $+1
$SG318599 DB	'g', 00H, 'l', 00H, 'D', 00H, 'e', 00H, 'l', 00H, 'e', 00H
	DB	't', 00H, 'e', 00H, 'T', 00H, 'e', 00H, 'x', 00H, 't', 00H, 'u'
	DB	00H, 'r', 00H, 'e', 00H, 's', 00H, 00H, 00H
	ORG $+2
$SG324744 DB	'glColor3s', 00H
	ORG $+2
$SG318600 DB	'[', 00H, ' ', 00H, 'O', 00H, 'p', 00H, 'e', 00H, 'n', 00H
	DB	'G', 00H, 'L', 00H, '3', 00H, '2', 00H, ' ', 00H, ']', 00H, ' '
	DB	00H, 'U', 00H, 'n', 00H, 'a', 00H, 'b', 00H, 'l', 00H, 'e', 00H
	DB	' ', 00H, 't', 00H, 'o', 00H, ' ', 00H, 'l', 00H, 'o', 00H, 'c'
	DB	00H, 'a', 00H, 't', 00H, 'e', 00H, ' ', 00H, 's', 00H, 'y', 00H
	DB	'm', 00H, 'b', 00H, 'o', 00H, 'l', 00H, ' ', 00H, ' ', 00H, '%'
	DB	00H, 's', 00H, ' ', 00H, 'i', 00H, 'n', 00H, ' ', 00H, 'O', 00H
	DB	'p', 00H, 'e', 00H, 'n', 00H, 'G', 00H, 'L', 00H, '3', 00H, '2'
	DB	00H, '.', 00H, 'd', 00H, 'l', 00H, 'l', 00H, 00H, 00H
	ORG $+2
$SG324745 DB	'glColor3sv', 00H
	ORG $+1
$SG322697 DB	'g', 00H, 'l', 00H, 'T', 00H, 'e', 00H, 'x', 00H, 'S', 00H
	DB	'u', 00H, 'b', 00H, 'I', 00H, 'm', 00H, 'a', 00H, 'g', 00H, 'e'
	DB	00H, '1', 00H, 'D', 00H, 00H, 00H
$SG317577 DB	'g', 00H, 'l', 00H, 'A', 00H, 'l', 00H, 'p', 00H, 'h', 00H
	DB	'a', 00H, 'F', 00H, 'u', 00H, 'n', 00H, 'c', 00H, 00H, 00H
$SG324746 DB	'glColor3ub', 00H
	ORG $+1
$SG324747 DB	'glColor3ubv', 00H
$SG322698 DB	'[', 00H, ' ', 00H, 'O', 00H, 'p', 00H, 'e', 00H, 'n', 00H
	DB	'G', 00H, 'L', 00H, '3', 00H, '2', 00H, ' ', 00H, ']', 00H, ' '
	DB	00H, 'U', 00H, 'n', 00H, 'a', 00H, 'b', 00H, 'l', 00H, 'e', 00H
	DB	' ', 00H, 't', 00H, 'o', 00H, ' ', 00H, 'l', 00H, 'o', 00H, 'c'
	DB	00H, 'a', 00H, 't', 00H, 'e', 00H, ' ', 00H, 's', 00H, 'y', 00H
	DB	'm', 00H, 'b', 00H, 'o', 00H, 'l', 00H, ' ', 00H, ' ', 00H, '%'
	DB	00H, 's', 00H, ' ', 00H, 'i', 00H, 'n', 00H, ' ', 00H, 'O', 00H
	DB	'p', 00H, 'e', 00H, 'n', 00H, 'G', 00H, 'L', 00H, '3', 00H, '2'
	DB	00H, '.', 00H, 'd', 00H, 'l', 00H, 'l', 00H, 00H, 00H
	ORG $+2
$SG324748 DB	'glColor3ui', 00H
	ORG $+1
$SG317578 DB	'[', 00H, ' ', 00H, 'O', 00H, 'p', 00H, 'e', 00H, 'n', 00H
	DB	'G', 00H, 'L', 00H, '3', 00H, '2', 00H, ' ', 00H, ']', 00H, ' '
	DB	00H, 'U', 00H, 'n', 00H, 'a', 00H, 'b', 00H, 'l', 00H, 'e', 00H
	DB	' ', 00H, 't', 00H, 'o', 00H, ' ', 00H, 'l', 00H, 'o', 00H, 'c'
	DB	00H, 'a', 00H, 't', 00H, 'e', 00H, ' ', 00H, 's', 00H, 'y', 00H
	DB	'm', 00H, 'b', 00H, 'o', 00H, 'l', 00H, ' ', 00H, ' ', 00H, '%'
	DB	00H, 's', 00H, ' ', 00H, 'i', 00H, 'n', 00H, ' ', 00H, 'O', 00H
	DB	'p', 00H, 'e', 00H, 'n', 00H, 'G', 00H, 'L', 00H, '3', 00H, '2'
	DB	00H, '.', 00H, 'd', 00H, 'l', 00H, 'l', 00H, 00H, 00H
	ORG $+2
$SG324749 DB	'glColor3uiv', 00H
$SG319629 DB	'glGetTexImage', 00H
	ORG $+2
$SG324750 DB	'glColor3us', 00H
	ORG $+1
$SG324751 DB	'glColor3usv', 00H
$SG324752 DB	'glColor4b', 00H
	ORG $+2
$SG324753 DB	'glColor4bv', 00H
	ORG $+1
$SG320657 DB	'glNormal3i', 00H
	ORG $+1
$SG319633 DB	'g', 00H, 'l', 00H, 'G', 00H, 'e', 00H, 't', 00H, 'T', 00H
	DB	'e', 00H, 'x', 00H, 'I', 00H, 'm', 00H, 'a', 00H, 'g', 00H, 'e'
	DB	00H, 00H, 00H
$SG318609 DB	'glDepthFunc', 00H
$SG324754 DB	'glColor4d', 00H
	ORG $+2
$SG319634 DB	'[', 00H, ' ', 00H, 'O', 00H, 'p', 00H, 'e', 00H, 'n', 00H
	DB	'G', 00H, 'L', 00H, '3', 00H, '2', 00H, ' ', 00H, ']', 00H, ' '
	DB	00H, 'U', 00H, 'n', 00H, 'a', 00H, 'b', 00H, 'l', 00H, 'e', 00H
	DB	' ', 00H, 't', 00H, 'o', 00H, ' ', 00H, 'l', 00H, 'o', 00H, 'c'
	DB	00H, 'a', 00H, 't', 00H, 'e', 00H, ' ', 00H, 's', 00H, 'y', 00H
	DB	'm', 00H, 'b', 00H, 'o', 00H, 'l', 00H, ' ', 00H, ' ', 00H, '%'
	DB	00H, 's', 00H, ' ', 00H, 'i', 00H, 'n', 00H, ' ', 00H, 'O', 00H
	DB	'p', 00H, 'e', 00H, 'n', 00H, 'G', 00H, 'L', 00H, '3', 00H, '2'
	DB	00H, '.', 00H, 'd', 00H, 'l', 00H, 'l', 00H, 00H, 00H
	ORG $+2
$SG324755 DB	'glColor4dv', 00H
	ORG $+1
$SG324756 DB	'glColor4f', 00H
	ORG $+2
$SG324757 DB	'glColor4fv', 00H
	ORG $+1
$SG321685 DB	'glRotated', 00H
	ORG $+2
$SG320661 DB	'g', 00H, 'l', 00H, 'N', 00H, 'o', 00H, 'r', 00H, 'm', 00H
	DB	'a', 00H, 'l', 00H, '3', 00H, 'i', 00H, 00H, 00H
	ORG $+2
$SG318613 DB	'g', 00H, 'l', 00H, 'D', 00H, 'e', 00H, 'p', 00H, 't', 00H
	DB	'h', 00H, 'F', 00H, 'u', 00H, 'n', 00H, 'c', 00H, 00H, 00H
$SG324758 DB	'glColor4i', 00H
	ORG $+2
$SG320662 DB	'[', 00H, ' ', 00H, 'O', 00H, 'p', 00H, 'e', 00H, 'n', 00H
	DB	'G', 00H, 'L', 00H, '3', 00H, '2', 00H, ' ', 00H, ']', 00H, ' '
	DB	00H, 'U', 00H, 'n', 00H, 'a', 00H, 'b', 00H, 'l', 00H, 'e', 00H
	DB	' ', 00H, 't', 00H, 'o', 00H, ' ', 00H, 'l', 00H, 'o', 00H, 'c'
	DB	00H, 'a', 00H, 't', 00H, 'e', 00H, ' ', 00H, 's', 00H, 'y', 00H
	DB	'm', 00H, 'b', 00H, 'o', 00H, 'l', 00H, ' ', 00H, ' ', 00H, '%'
	DB	00H, 's', 00H, ' ', 00H, 'i', 00H, 'n', 00H, ' ', 00H, 'O', 00H
	DB	'p', 00H, 'e', 00H, 'n', 00H, 'G', 00H, 'L', 00H, '3', 00H, '2'
	DB	00H, '.', 00H, 'd', 00H, 'l', 00H, 'l', 00H, 00H, 00H
	ORG $+2
$SG324759 DB	'glColor4iv', 00H
	ORG $+1
$SG318614 DB	'[', 00H, ' ', 00H, 'O', 00H, 'p', 00H, 'e', 00H, 'n', 00H
	DB	'G', 00H, 'L', 00H, '3', 00H, '2', 00H, ' ', 00H, ']', 00H, ' '
	DB	00H, 'U', 00H, 'n', 00H, 'a', 00H, 'b', 00H, 'l', 00H, 'e', 00H
	DB	' ', 00H, 't', 00H, 'o', 00H, ' ', 00H, 'l', 00H, 'o', 00H, 'c'
	DB	00H, 'a', 00H, 't', 00H, 'e', 00H, ' ', 00H, 's', 00H, 'y', 00H
	DB	'm', 00H, 'b', 00H, 'o', 00H, 'l', 00H, ' ', 00H, ' ', 00H, '%'
	DB	00H, 's', 00H, ' ', 00H, 'i', 00H, 'n', 00H, ' ', 00H, 'O', 00H
	DB	'p', 00H, 'e', 00H, 'n', 00H, 'G', 00H, 'L', 00H, '3', 00H, '2'
	DB	00H, '.', 00H, 'd', 00H, 'l', 00H, 'l', 00H, 00H, 00H
	ORG $+2
$SG317591 DB	'glAreTexturesResident', 00H
	ORG $+2
$SG324760 DB	'glColor4s', 00H
	ORG $+2
$SG324761 DB	'glColor4sv', 00H
	ORG $+1
$SG321689 DB	'g', 00H, 'l', 00H, 'R', 00H, 'o', 00H, 't', 00H, 'a', 00H
	DB	't', 00H, 'e', 00H, 'd', 00H, 00H, 00H
$SG324762 DB	'glColor4ub', 00H
	ORG $+1
$SG324763 DB	'glColor4ubv', 00H
$SG321690 DB	'[', 00H, ' ', 00H, 'O', 00H, 'p', 00H, 'e', 00H, 'n', 00H
	DB	'G', 00H, 'L', 00H, '3', 00H, '2', 00H, ' ', 00H, ']', 00H, ' '
	DB	00H, 'U', 00H, 'n', 00H, 'a', 00H, 'b', 00H, 'l', 00H, 'e', 00H
	DB	' ', 00H, 't', 00H, 'o', 00H, ' ', 00H, 'l', 00H, 'o', 00H, 'c'
	DB	00H, 'a', 00H, 't', 00H, 'e', 00H, ' ', 00H, 's', 00H, 'y', 00H
	DB	'm', 00H, 'b', 00H, 'o', 00H, 'l', 00H, ' ', 00H, ' ', 00H, '%'
	DB	00H, 's', 00H, ' ', 00H, 'i', 00H, 'n', 00H, ' ', 00H, 'O', 00H
	DB	'p', 00H, 'e', 00H, 'n', 00H, 'G', 00H, 'L', 00H, '3', 00H, '2'
	DB	00H, '.', 00H, 'd', 00H, 'l', 00H, 'l', 00H, 00H, 00H
	ORG $+2
$SG317595 DB	'g', 00H, 'l', 00H, 'A', 00H, 'r', 00H, 'e', 00H, 'T', 00H
	DB	'e', 00H, 'x', 00H, 't', 00H, 'u', 00H, 'r', 00H, 'e', 00H, 's'
	DB	00H, 'R', 00H, 'e', 00H, 's', 00H, 'i', 00H, 'd', 00H, 'e', 00H
	DB	'n', 00H, 't', 00H, 00H, 00H
$SG324764 DB	'glColor4ui', 00H
	ORG $+1
$SG324765 DB	'glColor4uiv', 00H
$SG317596 DB	'[', 00H, ' ', 00H, 'O', 00H, 'p', 00H, 'e', 00H, 'n', 00H
	DB	'G', 00H, 'L', 00H, '3', 00H, '2', 00H, ' ', 00H, ']', 00H, ' '
	DB	00H, 'U', 00H, 'n', 00H, 'a', 00H, 'b', 00H, 'l', 00H, 'e', 00H
	DB	' ', 00H, 't', 00H, 'o', 00H, ' ', 00H, 'l', 00H, 'o', 00H, 'c'
	DB	00H, 'a', 00H, 't', 00H, 'e', 00H, ' ', 00H, 's', 00H, 'y', 00H
	DB	'm', 00H, 'b', 00H, 'o', 00H, 'l', 00H, ' ', 00H, ' ', 00H, '%'
	DB	00H, 's', 00H, ' ', 00H, 'i', 00H, 'n', 00H, ' ', 00H, 'O', 00H
	DB	'p', 00H, 'e', 00H, 'n', 00H, 'G', 00H, 'L', 00H, '3', 00H, '2'
	DB	00H, '.', 00H, 'd', 00H, 'l', 00H, 'l', 00H, 00H, 00H
	ORG $+2
$SG324766 DB	'glColor4us', 00H
	ORG $+1
$SG324767 DB	'glColor4usv', 00H
$SG320671 DB	'glNormal3iv', 00H
$SG318623 DB	'glDepthMask', 00H
$SG324768 DB	'glColorMask', 00H
$SG324769 DB	'glColorMaterial', 00H
$SG319649 DB	'glGetTexLevelParameterfv', 00H
	ORG $+3
$SG324770 DB	'glColorPointer', 00H
	ORG $+1
$SG324771 DB	'glCopyPixels', 00H
	ORG $+3
$SG322723 DB	'glTexSubImage2D', 00H
$SG320675 DB	'g', 00H, 'l', 00H, 'N', 00H, 'o', 00H, 'r', 00H, 'm', 00H
	DB	'a', 00H, 'l', 00H, '3', 00H, 'i', 00H, 'v', 00H, 00H, 00H
$SG318627 DB	'g', 00H, 'l', 00H, 'D', 00H, 'e', 00H, 'p', 00H, 't', 00H
	DB	'h', 00H, 'M', 00H, 'a', 00H, 's', 00H, 'k', 00H, 00H, 00H
$SG324772 DB	'glCopyTexImage1D', 00H
	ORG $+3
$SG320676 DB	'[', 00H, ' ', 00H, 'O', 00H, 'p', 00H, 'e', 00H, 'n', 00H
	DB	'G', 00H, 'L', 00H, '3', 00H, '2', 00H, ' ', 00H, ']', 00H, ' '
	DB	00H, 'U', 00H, 'n', 00H, 'a', 00H, 'b', 00H, 'l', 00H, 'e', 00H
	DB	' ', 00H, 't', 00H, 'o', 00H, ' ', 00H, 'l', 00H, 'o', 00H, 'c'
	DB	00H, 'a', 00H, 't', 00H, 'e', 00H, ' ', 00H, 's', 00H, 'y', 00H
	DB	'm', 00H, 'b', 00H, 'o', 00H, 'l', 00H, ' ', 00H, ' ', 00H, '%'
	DB	00H, 's', 00H, ' ', 00H, 'i', 00H, 'n', 00H, ' ', 00H, 'O', 00H
	DB	'p', 00H, 'e', 00H, 'n', 00H, 'G', 00H, 'L', 00H, '3', 00H, '2'
	DB	00H, '.', 00H, 'd', 00H, 'l', 00H, 'l', 00H, 00H, 00H
	ORG $+2
$SG324773 DB	'glCopyTexImage2D', 00H
	ORG $+3
$SG318628 DB	'[', 00H, ' ', 00H, 'O', 00H, 'p', 00H, 'e', 00H, 'n', 00H
	DB	'G', 00H, 'L', 00H, '3', 00H, '2', 00H, ' ', 00H, ']', 00H, ' '
	DB	00H, 'U', 00H, 'n', 00H, 'a', 00H, 'b', 00H, 'l', 00H, 'e', 00H
	DB	' ', 00H, 't', 00H, 'o', 00H, ' ', 00H, 'l', 00H, 'o', 00H, 'c'
	DB	00H, 'a', 00H, 't', 00H, 'e', 00H, ' ', 00H, 's', 00H, 'y', 00H
	DB	'm', 00H, 'b', 00H, 'o', 00H, 'l', 00H, ' ', 00H, ' ', 00H, '%'
	DB	00H, 's', 00H, ' ', 00H, 'i', 00H, 'n', 00H, ' ', 00H, 'O', 00H
	DB	'p', 00H, 'e', 00H, 'n', 00H, 'G', 00H, 'L', 00H, '3', 00H, '2'
	DB	00H, '.', 00H, 'd', 00H, 'l', 00H, 'l', 00H, 00H, 00H
	ORG $+2
$SG319653 DB	'g', 00H, 'l', 00H, 'G', 00H, 'e', 00H, 't', 00H, 'T', 00H
	DB	'e', 00H, 'x', 00H, 'L', 00H, 'e', 00H, 'v', 00H, 'e', 00H, 'l'
	DB	00H, 'P', 00H, 'a', 00H, 'r', 00H, 'a', 00H, 'm', 00H, 'e', 00H
	DB	't', 00H, 'e', 00H, 'r', 00H, 'f', 00H, 'v', 00H, 00H, 00H
	ORG $+2
$SG317605 DB	'glArrayElement', 00H
	ORG $+1
$SG324774 DB	'glCopyTexSubImage1D', 00H
$SG324775 DB	'glCopyTexSubImage2D', 00H
$SG319654 DB	'[', 00H, ' ', 00H, 'O', 00H, 'p', 00H, 'e', 00H, 'n', 00H
	DB	'G', 00H, 'L', 00H, '3', 00H, '2', 00H, ' ', 00H, ']', 00H, ' '
	DB	00H, 'U', 00H, 'n', 00H, 'a', 00H, 'b', 00H, 'l', 00H, 'e', 00H
	DB	' ', 00H, 't', 00H, 'o', 00H, ' ', 00H, 'l', 00H, 'o', 00H, 'c'
	DB	00H, 'a', 00H, 't', 00H, 'e', 00H, ' ', 00H, 's', 00H, 'y', 00H
	DB	'm', 00H, 'b', 00H, 'o', 00H, 'l', 00H, ' ', 00H, ' ', 00H, '%'
	DB	00H, 's', 00H, ' ', 00H, 'i', 00H, 'n', 00H, ' ', 00H, 'O', 00H
	DB	'p', 00H, 'e', 00H, 'n', 00H, 'G', 00H, 'L', 00H, '3', 00H, '2'
	DB	00H, '.', 00H, 'd', 00H, 'l', 00H, 'l', 00H, 00H, 00H
	ORG $+2
$SG322727 DB	'g', 00H, 'l', 00H, 'T', 00H, 'e', 00H, 'x', 00H, 'S', 00H
	DB	'u', 00H, 'b', 00H, 'I', 00H, 'm', 00H, 'a', 00H, 'g', 00H, 'e'
	DB	00H, '2', 00H, 'D', 00H, 00H, 00H
$SG324776 DB	'glCullFace', 00H
	ORG $+1
$SG322728 DB	'[', 00H, ' ', 00H, 'O', 00H, 'p', 00H, 'e', 00H, 'n', 00H
	DB	'G', 00H, 'L', 00H, '3', 00H, '2', 00H, ' ', 00H, ']', 00H, ' '
	DB	00H, 'U', 00H, 'n', 00H, 'a', 00H, 'b', 00H, 'l', 00H, 'e', 00H
	DB	' ', 00H, 't', 00H, 'o', 00H, ' ', 00H, 'l', 00H, 'o', 00H, 'c'
	DB	00H, 'a', 00H, 't', 00H, 'e', 00H, ' ', 00H, 's', 00H, 'y', 00H
	DB	'm', 00H, 'b', 00H, 'o', 00H, 'l', 00H, ' ', 00H, ' ', 00H, '%'
	DB	00H, 's', 00H, ' ', 00H, 'i', 00H, 'n', 00H, ' ', 00H, 'O', 00H
	DB	'p', 00H, 'e', 00H, 'n', 00H, 'G', 00H, 'L', 00H, '3', 00H, '2'
	DB	00H, '.', 00H, 'd', 00H, 'l', 00H, 'l', 00H, 00H, 00H
	ORG $+2
$SG324777 DB	'glDeleteLists', 00H
	ORG $+2
$SG321705 DB	'glRotatef', 00H
	ORG $+2
$SG317609 DB	'g', 00H, 'l', 00H, 'A', 00H, 'r', 00H, 'r', 00H, 'a', 00H
	DB	'y', 00H, 'E', 00H, 'l', 00H, 'e', 00H, 'm', 00H, 'e', 00H, 'n'
	DB	00H, 't', 00H, 00H, 00H
	ORG $+2
$SG324778 DB	'glDeleteTextures', 00H
	ORG $+3
$SG324779 DB	'glDepthFunc', 00H
$SG317610 DB	'[', 00H, ' ', 00H, 'O', 00H, 'p', 00H, 'e', 00H, 'n', 00H
	DB	'G', 00H, 'L', 00H, '3', 00H, '2', 00H, ' ', 00H, ']', 00H, ' '
	DB	00H, 'U', 00H, 'n', 00H, 'a', 00H, 'b', 00H, 'l', 00H, 'e', 00H
	DB	' ', 00H, 't', 00H, 'o', 00H, ' ', 00H, 'l', 00H, 'o', 00H, 'c'
	DB	00H, 'a', 00H, 't', 00H, 'e', 00H, ' ', 00H, 's', 00H, 'y', 00H
	DB	'm', 00H, 'b', 00H, 'o', 00H, 'l', 00H, ' ', 00H, ' ', 00H, '%'
	DB	00H, 's', 00H, ' ', 00H, 'i', 00H, 'n', 00H, ' ', 00H, 'O', 00H
	DB	'p', 00H, 'e', 00H, 'n', 00H, 'G', 00H, 'L', 00H, '3', 00H, '2'
	DB	00H, '.', 00H, 'd', 00H, 'l', 00H, 'l', 00H, 00H, 00H
	ORG $+2
$SG324780 DB	'glDepthMask', 00H
$SG324781 DB	'glDepthRange', 00H
	ORG $+3
$SG323757 DB	'wglUseFontOutlinesA', 00H
$SG321709 DB	'g', 00H, 'l', 00H, 'R', 00H, 'o', 00H, 't', 00H, 'a', 00H
	DB	't', 00H, 'e', 00H, 'f', 00H, 00H, 00H
$SG324782 DB	'glDisable', 00H
	ORG $+2
$SG323761 DB	'w', 00H, 'g', 00H, 'l', 00H, 'U', 00H, 's', 00H, 'e', 00H
	DB	'F', 00H, 'o', 00H, 'n', 00H, 't', 00H, 'O', 00H, 'u', 00H, 't'
	DB	00H, 'l', 00H, 'i', 00H, 'n', 00H, 'e', 00H, 's', 00H, 'A', 00H
	DB	00H, 00H
$SG320689 DB	'glNormal3s', 00H
	ORG $+1
$SG321710 DB	'[', 00H, ' ', 00H, 'O', 00H, 'p', 00H, 'e', 00H, 'n', 00H
	DB	'G', 00H, 'L', 00H, '3', 00H, '2', 00H, ' ', 00H, ']', 00H, ' '
	DB	00H, 'U', 00H, 'n', 00H, 'a', 00H, 'b', 00H, 'l', 00H, 'e', 00H
	DB	' ', 00H, 't', 00H, 'o', 00H, ' ', 00H, 'l', 00H, 'o', 00H, 'c'
	DB	00H, 'a', 00H, 't', 00H, 'e', 00H, ' ', 00H, 's', 00H, 'y', 00H
	DB	'm', 00H, 'b', 00H, 'o', 00H, 'l', 00H, ' ', 00H, ' ', 00H, '%'
	DB	00H, 's', 00H, ' ', 00H, 'i', 00H, 'n', 00H, ' ', 00H, 'O', 00H
	DB	'p', 00H, 'e', 00H, 'n', 00H, 'G', 00H, 'L', 00H, '3', 00H, '2'
	DB	00H, '.', 00H, 'd', 00H, 'l', 00H, 'l', 00H, 00H, 00H
	ORG $+2
$SG324783 DB	'glDisableClientState', 00H
	ORG $+3
$SG318639 DB	'glDepthRange', 00H
	ORG $+3
$SG324784 DB	'glDrawArrays', 00H
	ORG $+3
$SG324785 DB	'glDrawBuffer', 00H
	ORG $+3
$SG324786 DB	'glDrawElements', 00H
	ORG $+1
$SG318643 DB	'g', 00H, 'l', 00H, 'D', 00H, 'e', 00H, 'p', 00H, 't', 00H
	DB	'h', 00H, 'R', 00H, 'a', 00H, 'n', 00H, 'g', 00H, 'e', 00H, 00H
	DB	00H
	ORG $+2
$SG323762 DB	'[', 00H, ' ', 00H, 'O', 00H, 'p', 00H, 'e', 00H, 'n', 00H
	DB	'G', 00H, 'L', 00H, '3', 00H, '2', 00H, ' ', 00H, ']', 00H, ' '
	DB	00H, 'U', 00H, 'n', 00H, 'a', 00H, 'b', 00H, 'l', 00H, 'e', 00H
	DB	' ', 00H, 't', 00H, 'o', 00H, ' ', 00H, 'l', 00H, 'o', 00H, 'c'
	DB	00H, 'a', 00H, 't', 00H, 'e', 00H, ' ', 00H, 's', 00H, 'y', 00H
	DB	'm', 00H, 'b', 00H, 'o', 00H, 'l', 00H, ' ', 00H, ' ', 00H, '%'
	DB	00H, 's', 00H, ' ', 00H, 'i', 00H, 'n', 00H, ' ', 00H, 'O', 00H
	DB	'p', 00H, 'e', 00H, 'n', 00H, 'G', 00H, 'L', 00H, '3', 00H, '2'
	DB	00H, '.', 00H, 'd', 00H, 'l', 00H, 'l', 00H, 00H, 00H
	ORG $+2
$SG324787 DB	'glDrawPixels', 00H
	ORG $+3
$SG317619 DB	'glBegin', 00H
$SG324788 DB	'glEdgeFlag', 00H
	ORG $+1
$SG318644 DB	'[', 00H, ' ', 00H, 'O', 00H, 'p', 00H, 'e', 00H, 'n', 00H
	DB	'G', 00H, 'L', 00H, '3', 00H, '2', 00H, ' ', 00H, ']', 00H, ' '
	DB	00H, 'U', 00H, 'n', 00H, 'a', 00H, 'b', 00H, 'l', 00H, 'e', 00H
	DB	' ', 00H, 't', 00H, 'o', 00H, ' ', 00H, 'l', 00H, 'o', 00H, 'c'
	DB	00H, 'a', 00H, 't', 00H, 'e', 00H, ' ', 00H, 's', 00H, 'y', 00H
	DB	'm', 00H, 'b', 00H, 'o', 00H, 'l', 00H, ' ', 00H, ' ', 00H, '%'
	DB	00H, 's', 00H, ' ', 00H, 'i', 00H, 'n', 00H, ' ', 00H, 'O', 00H
	DB	'p', 00H, 'e', 00H, 'n', 00H, 'G', 00H, 'L', 00H, '3', 00H, '2'
	DB	00H, '.', 00H, 'd', 00H, 'l', 00H, 'l', 00H, 00H, 00H
	ORG $+2
$SG324789 DB	'glEdgeFlagPointer', 00H
	ORG $+2
$SG322741 DB	'glTranslated', 00H
	ORG $+3
$SG320693 DB	'g', 00H, 'l', 00H, 'N', 00H, 'o', 00H, 'r', 00H, 'm', 00H
	DB	'a', 00H, 'l', 00H, '3', 00H, 's', 00H, 00H, 00H
	ORG $+2
$SG319669 DB	'glGetTexLevelParameteriv', 00H
	ORG $+3
$SG324790 DB	'glEdgeFlagv', 00H
$SG320694 DB	'[', 00H, ' ', 00H, 'O', 00H, 'p', 00H, 'e', 00H, 'n', 00H
	DB	'G', 00H, 'L', 00H, '3', 00H, '2', 00H, ' ', 00H, ']', 00H, ' '
	DB	00H, 'U', 00H, 'n', 00H, 'a', 00H, 'b', 00H, 'l', 00H, 'e', 00H
	DB	' ', 00H, 't', 00H, 'o', 00H, ' ', 00H, 'l', 00H, 'o', 00H, 'c'
	DB	00H, 'a', 00H, 't', 00H, 'e', 00H, ' ', 00H, 's', 00H, 'y', 00H
	DB	'm', 00H, 'b', 00H, 'o', 00H, 'l', 00H, ' ', 00H, ' ', 00H, '%'
	DB	00H, 's', 00H, ' ', 00H, 'i', 00H, 'n', 00H, ' ', 00H, 'O', 00H
	DB	'p', 00H, 'e', 00H, 'n', 00H, 'G', 00H, 'L', 00H, '3', 00H, '2'
	DB	00H, '.', 00H, 'd', 00H, 'l', 00H, 'l', 00H, 00H, 00H
	ORG $+2
$SG324791 DB	'glEnable', 00H
	ORG $+3
$SG317623 DB	'g', 00H, 'l', 00H, 'B', 00H, 'e', 00H, 'g', 00H, 'i', 00H
	DB	'n', 00H, 00H, 00H
$SG324792 DB	'glEnableClientState', 00H
$SG322745 DB	'g', 00H, 'l', 00H, 'T', 00H, 'r', 00H, 'a', 00H, 'n', 00H
	DB	's', 00H, 'l', 00H, 'a', 00H, 't', 00H, 'e', 00H, 'd', 00H, 00H
	DB	00H
	ORG $+2
$SG317624 DB	'[', 00H, ' ', 00H, 'O', 00H, 'p', 00H, 'e', 00H, 'n', 00H
	DB	'G', 00H, 'L', 00H, '3', 00H, '2', 00H, ' ', 00H, ']', 00H, ' '
	DB	00H, 'U', 00H, 'n', 00H, 'a', 00H, 'b', 00H, 'l', 00H, 'e', 00H
	DB	' ', 00H, 't', 00H, 'o', 00H, ' ', 00H, 'l', 00H, 'o', 00H, 'c'
	DB	00H, 'a', 00H, 't', 00H, 'e', 00H, ' ', 00H, 's', 00H, 'y', 00H
	DB	'm', 00H, 'b', 00H, 'o', 00H, 'l', 00H, ' ', 00H, ' ', 00H, '%'
	DB	00H, 's', 00H, ' ', 00H, 'i', 00H, 'n', 00H, ' ', 00H, 'O', 00H
	DB	'p', 00H, 'e', 00H, 'n', 00H, 'G', 00H, 'L', 00H, '3', 00H, '2'
	DB	00H, '.', 00H, 'd', 00H, 'l', 00H, 'l', 00H, 00H, 00H
	ORG $+2
$SG324793 DB	'glEnd', 00H
	ORG $+2
$SG319673 DB	'g', 00H, 'l', 00H, 'G', 00H, 'e', 00H, 't', 00H, 'T', 00H
	DB	'e', 00H, 'x', 00H, 'L', 00H, 'e', 00H, 'v', 00H, 'e', 00H, 'l'
	DB	00H, 'P', 00H, 'a', 00H, 'r', 00H, 'a', 00H, 'm', 00H, 'e', 00H
	DB	't', 00H, 'e', 00H, 'r', 00H, 'i', 00H, 'v', 00H, 00H, 00H
	ORG $+2
$SG324794 DB	'glEndList', 00H
	ORG $+2
$SG321723 DB	'glScaled', 00H
	ORG $+3
$SG322746 DB	'[', 00H, ' ', 00H, 'O', 00H, 'p', 00H, 'e', 00H, 'n', 00H
	DB	'G', 00H, 'L', 00H, '3', 00H, '2', 00H, ' ', 00H, ']', 00H, ' '
	DB	00H, 'U', 00H, 'n', 00H, 'a', 00H, 'b', 00H, 'l', 00H, 'e', 00H
	DB	' ', 00H, 't', 00H, 'o', 00H, ' ', 00H, 'l', 00H, 'o', 00H, 'c'
	DB	00H, 'a', 00H, 't', 00H, 'e', 00H, ' ', 00H, 's', 00H, 'y', 00H
	DB	'm', 00H, 'b', 00H, 'o', 00H, 'l', 00H, ' ', 00H, ' ', 00H, '%'
	DB	00H, 's', 00H, ' ', 00H, 'i', 00H, 'n', 00H, ' ', 00H, 'O', 00H
	DB	'p', 00H, 'e', 00H, 'n', 00H, 'G', 00H, 'L', 00H, '3', 00H, '2'
	DB	00H, '.', 00H, 'd', 00H, 'l', 00H, 'l', 00H, 00H, 00H
	ORG $+2
$SG324796 DB	'glEvalCoord1dv', 00H
	ORG $+1
$SG318653 DB	'glDisable', 00H
	ORG $+2
$SG319674 DB	'[', 00H, ' ', 00H, 'O', 00H, 'p', 00H, 'e', 00H, 'n', 00H
	DB	'G', 00H, 'L', 00H, '3', 00H, '2', 00H, ' ', 00H, ']', 00H, ' '
	DB	00H, 'U', 00H, 'n', 00H, 'a', 00H, 'b', 00H, 'l', 00H, 'e', 00H
	DB	' ', 00H, 't', 00H, 'o', 00H, ' ', 00H, 'l', 00H, 'o', 00H, 'c'
	DB	00H, 'a', 00H, 't', 00H, 'e', 00H, ' ', 00H, 's', 00H, 'y', 00H
	DB	'm', 00H, 'b', 00H, 'o', 00H, 'l', 00H, ' ', 00H, ' ', 00H, '%'
	DB	00H, 's', 00H, ' ', 00H, 'i', 00H, 'n', 00H, ' ', 00H, 'O', 00H
	DB	'p', 00H, 'e', 00H, 'n', 00H, 'G', 00H, 'L', 00H, '3', 00H, '2'
	DB	00H, '.', 00H, 'd', 00H, 'l', 00H, 'l', 00H, 00H, 00H
	ORG $+2
$SG324795 DB	'glEvalCoord1d', 00H
	ORG $+2
$SG324797 DB	'glEvalCoord1f', 00H
	ORG $+2
$SG324798 DB	'glEvalCoord1fv', 00H
	ORG $+1
$SG324799 DB	'glEvalCoord2d', 00H
	ORG $+2
$SG321727 DB	'g', 00H, 'l', 00H, 'S', 00H, 'c', 00H, 'a', 00H, 'l', 00H
	DB	'e', 00H, 'd', 00H, 00H, 00H
	ORG $+2
$SG320703 DB	'glNormal3sv', 00H
$SG324800 DB	'glEvalCoord2dv', 00H
	ORG $+1
$SG318657 DB	'g', 00H, 'l', 00H, 'D', 00H, 'i', 00H, 's', 00H, 'a', 00H
	DB	'b', 00H, 'l', 00H, 'e', 00H, 00H, 00H
$SG321728 DB	'[', 00H, ' ', 00H, 'O', 00H, 'p', 00H, 'e', 00H, 'n', 00H
	DB	'G', 00H, 'L', 00H, '3', 00H, '2', 00H, ' ', 00H, ']', 00H, ' '
	DB	00H, 'U', 00H, 'n', 00H, 'a', 00H, 'b', 00H, 'l', 00H, 'e', 00H
	DB	' ', 00H, 't', 00H, 'o', 00H, ' ', 00H, 'l', 00H, 'o', 00H, 'c'
	DB	00H, 'a', 00H, 't', 00H, 'e', 00H, ' ', 00H, 's', 00H, 'y', 00H
	DB	'm', 00H, 'b', 00H, 'o', 00H, 'l', 00H, ' ', 00H, ' ', 00H, '%'
	DB	00H, 's', 00H, ' ', 00H, 'i', 00H, 'n', 00H, ' ', 00H, 'O', 00H
	DB	'p', 00H, 'e', 00H, 'n', 00H, 'G', 00H, 'L', 00H, '3', 00H, '2'
	DB	00H, '.', 00H, 'd', 00H, 'l', 00H, 'l', 00H, 00H, 00H
	ORG $+2
$SG324801 DB	'glEvalCoord2f', 00H
	ORG $+2
$SG324802 DB	'glEvalCoord2fv', 00H
	ORG $+1
$SG324803 DB	'glEvalMesh1', 00H
$SG318658 DB	'[', 00H, ' ', 00H, 'O', 00H, 'p', 00H, 'e', 00H, 'n', 00H
	DB	'G', 00H, 'L', 00H, '3', 00H, '2', 00H, ' ', 00H, ']', 00H, ' '
	DB	00H, 'U', 00H, 'n', 00H, 'a', 00H, 'b', 00H, 'l', 00H, 'e', 00H
	DB	' ', 00H, 't', 00H, 'o', 00H, ' ', 00H, 'l', 00H, 'o', 00H, 'c'
	DB	00H, 'a', 00H, 't', 00H, 'e', 00H, ' ', 00H, 's', 00H, 'y', 00H
	DB	'm', 00H, 'b', 00H, 'o', 00H, 'l', 00H, ' ', 00H, ' ', 00H, '%'
	DB	00H, 's', 00H, ' ', 00H, 'i', 00H, 'n', 00H, ' ', 00H, 'O', 00H
	DB	'p', 00H, 'e', 00H, 'n', 00H, 'G', 00H, 'L', 00H, '3', 00H, '2'
	DB	00H, '.', 00H, 'd', 00H, 'l', 00H, 'l', 00H, 00H, 00H
	ORG $+2
$SG320707 DB	'g', 00H, 'l', 00H, 'N', 00H, 'o', 00H, 'r', 00H, 'm', 00H
	DB	'a', 00H, 'l', 00H, '3', 00H, 's', 00H, 'v', 00H, 00H, 00H
$SG317635 DB	'glBindTexture', 00H
	ORG $+2
$SG324804 DB	'glEvalMesh2', 00H
$SG320708 DB	'[', 00H, ' ', 00H, 'O', 00H, 'p', 00H, 'e', 00H, 'n', 00H
	DB	'G', 00H, 'L', 00H, '3', 00H, '2', 00H, ' ', 00H, ']', 00H, ' '
	DB	00H, 'U', 00H, 'n', 00H, 'a', 00H, 'b', 00H, 'l', 00H, 'e', 00H
	DB	' ', 00H, 't', 00H, 'o', 00H, ' ', 00H, 'l', 00H, 'o', 00H, 'c'
	DB	00H, 'a', 00H, 't', 00H, 'e', 00H, ' ', 00H, 's', 00H, 'y', 00H
	DB	'm', 00H, 'b', 00H, 'o', 00H, 'l', 00H, ' ', 00H, ' ', 00H, '%'
	DB	00H, 's', 00H, ' ', 00H, 'i', 00H, 'n', 00H, ' ', 00H, 'O', 00H
	DB	'p', 00H, 'e', 00H, 'n', 00H, 'G', 00H, 'L', 00H, '3', 00H, '2'
	DB	00H, '.', 00H, 'd', 00H, 'l', 00H, 'l', 00H, 00H, 00H
	ORG $+2
$SG324805 DB	'glEvalPoint1', 00H
	ORG $+3
$SG324806 DB	'glEvalPoint2', 00H
	ORG $+3
$SG324807 DB	'glFeedbackBuffer', 00H
	ORG $+3
$SG322759 DB	'glTranslatef', 00H
	ORG $+3
$SG319687 DB	'glGetTexParameterfv', 00H
$SG317639 DB	'g', 00H, 'l', 00H, 'B', 00H, 'i', 00H, 'n', 00H, 'd', 00H
	DB	'T', 00H, 'e', 00H, 'x', 00H, 't', 00H, 'u', 00H, 'r', 00H, 'e'
	DB	00H, 00H, 00H
$SG324808 DB	'glFinish', 00H
	ORG $+3
$SG324809 DB	'glFlush', 00H
$SG323785 DB	'wglUseFontOutlinesW', 00H
$SG317640 DB	'[', 00H, ' ', 00H, 'O', 00H, 'p', 00H, 'e', 00H, 'n', 00H
	DB	'G', 00H, 'L', 00H, '3', 00H, '2', 00H, ' ', 00H, ']', 00H, ' '
	DB	00H, 'U', 00H, 'n', 00H, 'a', 00H, 'b', 00H, 'l', 00H, 'e', 00H
	DB	' ', 00H, 't', 00H, 'o', 00H, ' ', 00H, 'l', 00H, 'o', 00H, 'c'
	DB	00H, 'a', 00H, 't', 00H, 'e', 00H, ' ', 00H, 's', 00H, 'y', 00H
	DB	'm', 00H, 'b', 00H, 'o', 00H, 'l', 00H, ' ', 00H, ' ', 00H, '%'
	DB	00H, 's', 00H, ' ', 00H, 'i', 00H, 'n', 00H, ' ', 00H, 'O', 00H
	DB	'p', 00H, 'e', 00H, 'n', 00H, 'G', 00H, 'L', 00H, '3', 00H, '2'
	DB	00H, '.', 00H, 'd', 00H, 'l', 00H, 'l', 00H, 00H, 00H
	ORG $+2
$SG324810 DB	'glFogf', 00H
	ORG $+1
$SG324811 DB	'glFogfv', 00H
$SG322763 DB	'g', 00H, 'l', 00H, 'T', 00H, 'r', 00H, 'a', 00H, 'n', 00H
	DB	's', 00H, 'l', 00H, 'a', 00H, 't', 00H, 'e', 00H, 'f', 00H, 00H
	DB	00H
	ORG $+2
$SG319691 DB	'g', 00H, 'l', 00H, 'G', 00H, 'e', 00H, 't', 00H, 'T', 00H
	DB	'e', 00H, 'x', 00H, 'P', 00H, 'a', 00H, 'r', 00H, 'a', 00H, 'm'
	DB	00H, 'e', 00H, 't', 00H, 'e', 00H, 'r', 00H, 'f', 00H, 'v', 00H
	DB	00H, 00H
$SG318667 DB	'glDisableClientState', 00H
	ORG $+3
$SG324812 DB	'glFogi', 00H
	ORG $+1
$SG322764 DB	'[', 00H, ' ', 00H, 'O', 00H, 'p', 00H, 'e', 00H, 'n', 00H
	DB	'G', 00H, 'L', 00H, '3', 00H, '2', 00H, ' ', 00H, ']', 00H, ' '
	DB	00H, 'U', 00H, 'n', 00H, 'a', 00H, 'b', 00H, 'l', 00H, 'e', 00H
	DB	' ', 00H, 't', 00H, 'o', 00H, ' ', 00H, 'l', 00H, 'o', 00H, 'c'
	DB	00H, 'a', 00H, 't', 00H, 'e', 00H, ' ', 00H, 's', 00H, 'y', 00H
	DB	'm', 00H, 'b', 00H, 'o', 00H, 'l', 00H, ' ', 00H, ' ', 00H, '%'
	DB	00H, 's', 00H, ' ', 00H, 'i', 00H, 'n', 00H, ' ', 00H, 'O', 00H
	DB	'p', 00H, 'e', 00H, 'n', 00H, 'G', 00H, 'L', 00H, '3', 00H, '2'
	DB	00H, '.', 00H, 'd', 00H, 'l', 00H, 'l', 00H, 00H, 00H
	ORG $+2
$SG324813 DB	'glFogiv', 00H
$SG321741 DB	'glScalef', 00H
	ORG $+3
$SG319692 DB	'[', 00H, ' ', 00H, 'O', 00H, 'p', 00H, 'e', 00H, 'n', 00H
	DB	'G', 00H, 'L', 00H, '3', 00H, '2', 00H, ' ', 00H, ']', 00H, ' '
	DB	00H, 'U', 00H, 'n', 00H, 'a', 00H, 'b', 00H, 'l', 00H, 'e', 00H
	DB	' ', 00H, 't', 00H, 'o', 00H, ' ', 00H, 'l', 00H, 'o', 00H, 'c'
	DB	00H, 'a', 00H, 't', 00H, 'e', 00H, ' ', 00H, 's', 00H, 'y', 00H
	DB	'm', 00H, 'b', 00H, 'o', 00H, 'l', 00H, ' ', 00H, ' ', 00H, '%'
	DB	00H, 's', 00H, ' ', 00H, 'i', 00H, 'n', 00H, ' ', 00H, 'O', 00H
	DB	'p', 00H, 'e', 00H, 'n', 00H, 'G', 00H, 'L', 00H, '3', 00H, '2'
	DB	00H, '.', 00H, 'd', 00H, 'l', 00H, 'l', 00H, 00H, 00H
	ORG $+2
$SG323789 DB	'w', 00H, 'g', 00H, 'l', 00H, 'U', 00H, 's', 00H, 'e', 00H
	DB	'F', 00H, 'o', 00H, 'n', 00H, 't', 00H, 'O', 00H, 'u', 00H, 't'
	DB	00H, 'l', 00H, 'i', 00H, 'n', 00H, 'e', 00H, 's', 00H, 'W', 00H
	DB	00H, 00H
$SG324814 DB	'glFrontFace', 00H
$SG323790 DB	'[', 00H, ' ', 00H, 'O', 00H, 'p', 00H, 'e', 00H, 'n', 00H
	DB	'G', 00H, 'L', 00H, '3', 00H, '2', 00H, ' ', 00H, ']', 00H, ' '
	DB	00H, 'U', 00H, 'n', 00H, 'a', 00H, 'b', 00H, 'l', 00H, 'e', 00H
	DB	' ', 00H, 't', 00H, 'o', 00H, ' ', 00H, 'l', 00H, 'o', 00H, 'c'
	DB	00H, 'a', 00H, 't', 00H, 'e', 00H, ' ', 00H, 's', 00H, 'y', 00H
	DB	'm', 00H, 'b', 00H, 'o', 00H, 'l', 00H, ' ', 00H, ' ', 00H, '%'
	DB	00H, 's', 00H, ' ', 00H, 'i', 00H, 'n', 00H, ' ', 00H, 'O', 00H
	DB	'p', 00H, 'e', 00H, 'n', 00H, 'G', 00H, 'L', 00H, '3', 00H, '2'
	DB	00H, '.', 00H, 'd', 00H, 'l', 00H, 'l', 00H, 00H, 00H
	ORG $+2
$SG324815 DB	'glFrustum', 00H
	ORG $+2
$SG318671 DB	'g', 00H, 'l', 00H, 'D', 00H, 'i', 00H, 's', 00H, 'a', 00H
	DB	'b', 00H, 'l', 00H, 'e', 00H, 'C', 00H, 'l', 00H, 'i', 00H, 'e'
	DB	00H, 'n', 00H, 't', 00H, 'S', 00H, 't', 00H, 'a', 00H, 't', 00H
	DB	'e', 00H, 00H, 00H
	ORG $+2
$SG324816 DB	'glGenLists', 00H
	ORG $+1
$SG318672 DB	'[', 00H, ' ', 00H, 'O', 00H, 'p', 00H, 'e', 00H, 'n', 00H
	DB	'G', 00H, 'L', 00H, '3', 00H, '2', 00H, ' ', 00H, ']', 00H, ' '
	DB	00H, 'U', 00H, 'n', 00H, 'a', 00H, 'b', 00H, 'l', 00H, 'e', 00H
	DB	' ', 00H, 't', 00H, 'o', 00H, ' ', 00H, 'l', 00H, 'o', 00H, 'c'
	DB	00H, 'a', 00H, 't', 00H, 'e', 00H, ' ', 00H, 's', 00H, 'y', 00H
	DB	'm', 00H, 'b', 00H, 'o', 00H, 'l', 00H, ' ', 00H, ' ', 00H, '%'
	DB	00H, 's', 00H, ' ', 00H, 'i', 00H, 'n', 00H, ' ', 00H, 'O', 00H
	DB	'p', 00H, 'e', 00H, 'n', 00H, 'G', 00H, 'L', 00H, '3', 00H, '2'
	DB	00H, '.', 00H, 'd', 00H, 'l', 00H, 'l', 00H, 00H, 00H
	ORG $+2
$SG324817 DB	'glGenTextures', 00H
	ORG $+2
$SG321745 DB	'g', 00H, 'l', 00H, 'S', 00H, 'c', 00H, 'a', 00H, 'l', 00H
	DB	'e', 00H, 'f', 00H, 00H, 00H
	ORG $+2
$SG320721 DB	'glNormalPointer', 00H
$SG324818 DB	'glGetBooleanv', 00H
	ORG $+2
$SG321746 DB	'[', 00H, ' ', 00H, 'O', 00H, 'p', 00H, 'e', 00H, 'n', 00H
	DB	'G', 00H, 'L', 00H, '3', 00H, '2', 00H, ' ', 00H, ']', 00H, ' '
	DB	00H, 'U', 00H, 'n', 00H, 'a', 00H, 'b', 00H, 'l', 00H, 'e', 00H
	DB	' ', 00H, 't', 00H, 'o', 00H, ' ', 00H, 'l', 00H, 'o', 00H, 'c'
	DB	00H, 'a', 00H, 't', 00H, 'e', 00H, ' ', 00H, 's', 00H, 'y', 00H
	DB	'm', 00H, 'b', 00H, 'o', 00H, 'l', 00H, ' ', 00H, ' ', 00H, '%'
	DB	00H, 's', 00H, ' ', 00H, 'i', 00H, 'n', 00H, ' ', 00H, 'O', 00H
	DB	'p', 00H, 'e', 00H, 'n', 00H, 'G', 00H, 'L', 00H, '3', 00H, '2'
	DB	00H, '.', 00H, 'd', 00H, 'l', 00H, 'l', 00H, 00H, 00H
	ORG $+2
$SG324819 DB	'glGetClipPlane', 00H
	ORG $+1
$SG324820 DB	'glGetDoublev', 00H
	ORG $+3
$SG324821 DB	'glGetError', 00H
	ORG $+1
$SG320725 DB	'g', 00H, 'l', 00H, 'N', 00H, 'o', 00H, 'r', 00H, 'm', 00H
	DB	'a', 00H, 'l', 00H, 'P', 00H, 'o', 00H, 'i', 00H, 'n', 00H, 't'
	DB	00H, 'e', 00H, 'r', 00H, 00H, 00H
$SG324822 DB	'glGetFloatv', 00H
$SG322775 DB	'glVertex2d', 00H
	ORG $+1
$SG320726 DB	'[', 00H, ' ', 00H, 'O', 00H, 'p', 00H, 'e', 00H, 'n', 00H
	DB	'G', 00H, 'L', 00H, '3', 00H, '2', 00H, ' ', 00H, ']', 00H, ' '
	DB	00H, 'U', 00H, 'n', 00H, 'a', 00H, 'b', 00H, 'l', 00H, 'e', 00H
	DB	' ', 00H, 't', 00H, 'o', 00H, ' ', 00H, 'l', 00H, 'o', 00H, 'c'
	DB	00H, 'a', 00H, 't', 00H, 'e', 00H, ' ', 00H, 's', 00H, 'y', 00H
	DB	'm', 00H, 'b', 00H, 'o', 00H, 'l', 00H, ' ', 00H, ' ', 00H, '%'
	DB	00H, 's', 00H, ' ', 00H, 'i', 00H, 'n', 00H, ' ', 00H, 'O', 00H
	DB	'p', 00H, 'e', 00H, 'n', 00H, 'G', 00H, 'L', 00H, '3', 00H, '2'
	DB	00H, '.', 00H, 'd', 00H, 'l', 00H, 'l', 00H, 00H, 00H
	ORG $+2
$SG324823 DB	'glGetIntegerv', 00H
	ORG $+2
$SG324824 DB	'glGetLightfv', 00H
	ORG $+3
$SG324825 DB	'glGetLightiv', 00H
	ORG $+3
$SG319705 DB	'glGetTexParameteriv', 00H
$SG324826 DB	'glGetMapdv', 00H
	ORG $+1
$SG324827 DB	'glGetMapfv', 00H
	ORG $+1
$SG322779 DB	'g', 00H, 'l', 00H, 'V', 00H, 'e', 00H, 'r', 00H, 't', 00H
	DB	'e', 00H, 'x', 00H, '2', 00H, 'd', 00H, 00H, 00H
	ORG $+2
$SG324828 DB	'glGetMapiv', 00H
	ORG $+1
$SG324829 DB	'glGetMaterialfv', 00H
$SG317661 DB	'glBitmap', 00H
	ORG $+3
$SG322780 DB	'[', 00H, ' ', 00H, 'O', 00H, 'p', 00H, 'e', 00H, 'n', 00H
	DB	'G', 00H, 'L', 00H, '3', 00H, '2', 00H, ' ', 00H, ']', 00H, ' '
	DB	00H, 'U', 00H, 'n', 00H, 'a', 00H, 'b', 00H, 'l', 00H, 'e', 00H
	DB	' ', 00H, 't', 00H, 'o', 00H, ' ', 00H, 'l', 00H, 'o', 00H, 'c'
	DB	00H, 'a', 00H, 't', 00H, 'e', 00H, ' ', 00H, 's', 00H, 'y', 00H
	DB	'm', 00H, 'b', 00H, 'o', 00H, 'l', 00H, ' ', 00H, ' ', 00H, '%'
	DB	00H, 's', 00H, ' ', 00H, 'i', 00H, 'n', 00H, ' ', 00H, 'O', 00H
	DB	'p', 00H, 'e', 00H, 'n', 00H, 'G', 00H, 'L', 00H, '3', 00H, '2'
	DB	00H, '.', 00H, 'd', 00H, 'l', 00H, 'l', 00H, 00H, 00H
	ORG $+2
$SG319709 DB	'g', 00H, 'l', 00H, 'G', 00H, 'e', 00H, 't', 00H, 'T', 00H
	DB	'e', 00H, 'x', 00H, 'P', 00H, 'a', 00H, 'r', 00H, 'a', 00H, 'm'
	DB	00H, 'e', 00H, 't', 00H, 'e', 00H, 'r', 00H, 'i', 00H, 'v', 00H
	DB	00H, 00H
$SG318685 DB	'glDrawArrays', 00H
	ORG $+3
$SG324830 DB	'glGetMaterialiv', 00H
$SG324832 DB	'glGetPixelMapuiv', 00H
	ORG $+3
$SG319710 DB	'[', 00H, ' ', 00H, 'O', 00H, 'p', 00H, 'e', 00H, 'n', 00H
	DB	'G', 00H, 'L', 00H, '3', 00H, '2', 00H, ' ', 00H, ']', 00H, ' '
	DB	00H, 'U', 00H, 'n', 00H, 'a', 00H, 'b', 00H, 'l', 00H, 'e', 00H
	DB	' ', 00H, 't', 00H, 'o', 00H, ' ', 00H, 'l', 00H, 'o', 00H, 'c'
	DB	00H, 'a', 00H, 't', 00H, 'e', 00H, ' ', 00H, 's', 00H, 'y', 00H
	DB	'm', 00H, 'b', 00H, 'o', 00H, 'l', 00H, ' ', 00H, ' ', 00H, '%'
	DB	00H, 's', 00H, ' ', 00H, 'i', 00H, 'n', 00H, ' ', 00H, 'O', 00H
	DB	'p', 00H, 'e', 00H, 'n', 00H, 'G', 00H, 'L', 00H, '3', 00H, '2'
	DB	00H, '.', 00H, 'd', 00H, 'l', 00H, 'l', 00H, 00H, 00H
	ORG $+2
$SG324831 DB	'glGetPixelMapfv', 00H
$SG324833 DB	'glGetPixelMapusv', 00H
	ORG $+3
$SG321761 DB	'glScissor', 00H
	ORG $+2
$SG318689 DB	'g', 00H, 'l', 00H, 'D', 00H, 'r', 00H, 'a', 00H, 'w', 00H
	DB	'A', 00H, 'r', 00H, 'r', 00H, 'a', 00H, 'y', 00H, 's', 00H, 00H
	DB	00H
	ORG $+2
$SG317665 DB	'g', 00H, 'l', 00H, 'B', 00H, 'i', 00H, 't', 00H, 'm', 00H
	DB	'a', 00H, 'p', 00H, 00H, 00H
	ORG $+2
$SG324834 DB	'glGetPointerv', 00H
	ORG $+2
$SG324835 DB	'glGetPolygonStipple', 00H
$SG318690 DB	'[', 00H, ' ', 00H, 'O', 00H, 'p', 00H, 'e', 00H, 'n', 00H
	DB	'G', 00H, 'L', 00H, '3', 00H, '2', 00H, ' ', 00H, ']', 00H, ' '
	DB	00H, 'U', 00H, 'n', 00H, 'a', 00H, 'b', 00H, 'l', 00H, 'e', 00H
	DB	' ', 00H, 't', 00H, 'o', 00H, ' ', 00H, 'l', 00H, 'o', 00H, 'c'
	DB	00H, 'a', 00H, 't', 00H, 'e', 00H, ' ', 00H, 's', 00H, 'y', 00H
	DB	'm', 00H, 'b', 00H, 'o', 00H, 'l', 00H, ' ', 00H, ' ', 00H, '%'
	DB	00H, 's', 00H, ' ', 00H, 'i', 00H, 'n', 00H, ' ', 00H, 'O', 00H
	DB	'p', 00H, 'e', 00H, 'n', 00H, 'G', 00H, 'L', 00H, '3', 00H, '2'
	DB	00H, '.', 00H, 'd', 00H, 'l', 00H, 'l', 00H, 00H, 00H
	ORG $+2
$SG324836 DB	'glGetString', 00H
$SG317666 DB	'[', 00H, ' ', 00H, 'O', 00H, 'p', 00H, 'e', 00H, 'n', 00H
	DB	'G', 00H, 'L', 00H, '3', 00H, '2', 00H, ' ', 00H, ']', 00H, ' '
	DB	00H, 'U', 00H, 'n', 00H, 'a', 00H, 'b', 00H, 'l', 00H, 'e', 00H
	DB	' ', 00H, 't', 00H, 'o', 00H, ' ', 00H, 'l', 00H, 'o', 00H, 'c'
	DB	00H, 'a', 00H, 't', 00H, 'e', 00H, ' ', 00H, 's', 00H, 'y', 00H
	DB	'm', 00H, 'b', 00H, 'o', 00H, 'l', 00H, ' ', 00H, ' ', 00H, '%'
	DB	00H, 's', 00H, ' ', 00H, 'i', 00H, 'n', 00H, ' ', 00H, 'O', 00H
	DB	'p', 00H, 'e', 00H, 'n', 00H, 'G', 00H, 'L', 00H, '3', 00H, '2'
	DB	00H, '.', 00H, 'd', 00H, 'l', 00H, 'l', 00H, 00H, 00H
	ORG $+2
$SG324837 DB	'glGetTexEnvfv', 00H
	ORG $+2
$SG322789 DB	'glVertex2dv', 00H
$SG321765 DB	'g', 00H, 'l', 00H, 'S', 00H, 'c', 00H, 'i', 00H, 's', 00H
	DB	's', 00H, 'o', 00H, 'r', 00H, 00H, 00H
$SG324838 DB	'glGetTexEnviv', 00H
	ORG $+2
$SG322793 DB	'g', 00H, 'l', 00H, 'V', 00H, 'e', 00H, 'r', 00H, 't', 00H
	DB	'e', 00H, 'x', 00H, '2', 00H, 'd', 00H, 'v', 00H, 00H, 00H
$SG324843 DB	'glGetTexLevelParameterfv', 00H
	ORG $+3
$SG321766 DB	'[', 00H, ' ', 00H, 'O', 00H, 'p', 00H, 'e', 00H, 'n', 00H
	DB	'G', 00H, 'L', 00H, '3', 00H, '2', 00H, ' ', 00H, ']', 00H, ' '
	DB	00H, 'U', 00H, 'n', 00H, 'a', 00H, 'b', 00H, 'l', 00H, 'e', 00H
	DB	' ', 00H, 't', 00H, 'o', 00H, ' ', 00H, 'l', 00H, 'o', 00H, 'c'
	DB	00H, 'a', 00H, 't', 00H, 'e', 00H, ' ', 00H, 's', 00H, 'y', 00H
	DB	'm', 00H, 'b', 00H, 'o', 00H, 'l', 00H, ' ', 00H, ' ', 00H, '%'
	DB	00H, 's', 00H, ' ', 00H, 'i', 00H, 'n', 00H, ' ', 00H, 'O', 00H
	DB	'p', 00H, 'e', 00H, 'n', 00H, 'G', 00H, 'L', 00H, '3', 00H, '2'
	DB	00H, '.', 00H, 'd', 00H, 'l', 00H, 'l', 00H, 00H, 00H
	ORG $+2
$SG324839 DB	'glGetTexGendv', 00H
	ORG $+2
$SG324840 DB	'glGetTexGenfv', 00H
	ORG $+2
$SG324841 DB	'glGetTexGeniv', 00H
	ORG $+2
$SG320745 DB	'glOrtho', 00H
$SG319721 DB	'glHint', 00H
	ORG $+1
$SG324842 DB	'glGetTexImage', 00H
	ORG $+2
$SG324844 DB	'glGetTexLevelParameteriv', 00H
	ORG $+3
$SG322794 DB	'[', 00H, ' ', 00H, 'O', 00H, 'p', 00H, 'e', 00H, 'n', 00H
	DB	'G', 00H, 'L', 00H, '3', 00H, '2', 00H, ' ', 00H, ']', 00H, ' '
	DB	00H, 'U', 00H, 'n', 00H, 'a', 00H, 'b', 00H, 'l', 00H, 'e', 00H
	DB	' ', 00H, 't', 00H, 'o', 00H, ' ', 00H, 'l', 00H, 'o', 00H, 'c'
	DB	00H, 'a', 00H, 't', 00H, 'e', 00H, ' ', 00H, 's', 00H, 'y', 00H
	DB	'm', 00H, 'b', 00H, 'o', 00H, 'l', 00H, ' ', 00H, ' ', 00H, '%'
	DB	00H, 's', 00H, ' ', 00H, 'i', 00H, 'n', 00H, ' ', 00H, 'O', 00H
	DB	'p', 00H, 'e', 00H, 'n', 00H, 'G', 00H, 'L', 00H, '3', 00H, '2'
	DB	00H, '.', 00H, 'd', 00H, 'l', 00H, 'l', 00H, 00H, 00H
	ORG $+2
$SG318699 DB	'glDrawBuffer', 00H
	ORG $+3
$SG324845 DB	'glGetTexParameterfv', 00H
$SG320749 DB	'g', 00H, 'l', 00H, 'O', 00H, 'r', 00H, 't', 00H, 'h', 00H
	DB	'o', 00H, 00H, 00H
$SG319725 DB	'g', 00H, 'l', 00H, 'H', 00H, 'i', 00H, 'n', 00H, 't', 00H
	DB	00H, 00H
	ORG $+2
$SG317677 DB	'glBlendFunc', 00H
$SG324846 DB	'glGetTexParameteriv', 00H
$SG320750 DB	'[', 00H, ' ', 00H, 'O', 00H, 'p', 00H, 'e', 00H, 'n', 00H
	DB	'G', 00H, 'L', 00H, '3', 00H, '2', 00H, ' ', 00H, ']', 00H, ' '
	DB	00H, 'U', 00H, 'n', 00H, 'a', 00H, 'b', 00H, 'l', 00H, 'e', 00H
	DB	' ', 00H, 't', 00H, 'o', 00H, ' ', 00H, 'l', 00H, 'o', 00H, 'c'
	DB	00H, 'a', 00H, 't', 00H, 'e', 00H, ' ', 00H, 's', 00H, 'y', 00H
	DB	'm', 00H, 'b', 00H, 'o', 00H, 'l', 00H, ' ', 00H, ' ', 00H, '%'
	DB	00H, 's', 00H, ' ', 00H, 'i', 00H, 'n', 00H, ' ', 00H, 'O', 00H
	DB	'p', 00H, 'e', 00H, 'n', 00H, 'G', 00H, 'L', 00H, '3', 00H, '2'
	DB	00H, '.', 00H, 'd', 00H, 'l', 00H, 'l', 00H, 00H, 00H
	ORG $+2
$SG324847 DB	'glHint', 00H
	ORG $+1
$SG318703 DB	'g', 00H, 'l', 00H, 'D', 00H, 'r', 00H, 'a', 00H, 'w', 00H
	DB	'B', 00H, 'u', 00H, 'f', 00H, 'f', 00H, 'e', 00H, 'r', 00H, 00H
	DB	00H
	ORG $+2
$SG319726 DB	'[', 00H, ' ', 00H, 'O', 00H, 'p', 00H, 'e', 00H, 'n', 00H
	DB	'G', 00H, 'L', 00H, '3', 00H, '2', 00H, ' ', 00H, ']', 00H, ' '
	DB	00H, 'U', 00H, 'n', 00H, 'a', 00H, 'b', 00H, 'l', 00H, 'e', 00H
	DB	' ', 00H, 't', 00H, 'o', 00H, ' ', 00H, 'l', 00H, 'o', 00H, 'c'
	DB	00H, 'a', 00H, 't', 00H, 'e', 00H, ' ', 00H, 's', 00H, 'y', 00H
	DB	'm', 00H, 'b', 00H, 'o', 00H, 'l', 00H, ' ', 00H, ' ', 00H, '%'
	DB	00H, 's', 00H, ' ', 00H, 'i', 00H, 'n', 00H, ' ', 00H, 'O', 00H
	DB	'p', 00H, 'e', 00H, 'n', 00H, 'G', 00H, 'L', 00H, '3', 00H, '2'
	DB	00H, '.', 00H, 'd', 00H, 'l', 00H, 'l', 00H, 00H, 00H
	ORG $+2
$SG324848 DB	'glIndexMask', 00H
$SG318704 DB	'[', 00H, ' ', 00H, 'O', 00H, 'p', 00H, 'e', 00H, 'n', 00H
	DB	'G', 00H, 'L', 00H, '3', 00H, '2', 00H, ' ', 00H, ']', 00H, ' '
	DB	00H, 'U', 00H, 'n', 00H, 'a', 00H, 'b', 00H, 'l', 00H, 'e', 00H
	DB	' ', 00H, 't', 00H, 'o', 00H, ' ', 00H, 'l', 00H, 'o', 00H, 'c'
	DB	00H, 'a', 00H, 't', 00H, 'e', 00H, ' ', 00H, 's', 00H, 'y', 00H
	DB	'm', 00H, 'b', 00H, 'o', 00H, 'l', 00H, ' ', 00H, ' ', 00H, '%'
	DB	00H, 's', 00H, ' ', 00H, 'i', 00H, 'n', 00H, ' ', 00H, 'O', 00H
	DB	'p', 00H, 'e', 00H, 'n', 00H, 'G', 00H, 'L', 00H, '3', 00H, '2'
	DB	00H, '.', 00H, 'd', 00H, 'l', 00H, 'l', 00H, 00H, 00H
	ORG $+2
$SG324849 DB	'glIndexPointer', 00H
	ORG $+1
$SG321777 DB	'glSelectBuffer', 00H
	ORG $+1
$SG317681 DB	'g', 00H, 'l', 00H, 'B', 00H, 'l', 00H, 'e', 00H, 'n', 00H
	DB	'd', 00H, 'F', 00H, 'u', 00H, 'n', 00H, 'c', 00H, 00H, 00H
$SG324850 DB	'glIndexd', 00H
	ORG $+3
$SG317682 DB	'[', 00H, ' ', 00H, 'O', 00H, 'p', 00H, 'e', 00H, 'n', 00H
	DB	'G', 00H, 'L', 00H, '3', 00H, '2', 00H, ' ', 00H, ']', 00H, ' '
	DB	00H, 'U', 00H, 'n', 00H, 'a', 00H, 'b', 00H, 'l', 00H, 'e', 00H
	DB	' ', 00H, 't', 00H, 'o', 00H, ' ', 00H, 'l', 00H, 'o', 00H, 'c'
	DB	00H, 'a', 00H, 't', 00H, 'e', 00H, ' ', 00H, 's', 00H, 'y', 00H
	DB	'm', 00H, 'b', 00H, 'o', 00H, 'l', 00H, ' ', 00H, ' ', 00H, '%'
	DB	00H, 's', 00H, ' ', 00H, 'i', 00H, 'n', 00H, ' ', 00H, 'O', 00H
	DB	'p', 00H, 'e', 00H, 'n', 00H, 'G', 00H, 'L', 00H, '3', 00H, '2'
	DB	00H, '.', 00H, 'd', 00H, 'l', 00H, 'l', 00H, 00H, 00H
	ORG $+2
$SG324851 DB	'glIndexdv', 00H
	ORG $+2
$SG324852 DB	'glIndexf', 00H
	ORG $+3
$SG324853 DB	'glIndexfv', 00H
	ORG $+2
$SG322805 DB	'glVertex2f', 00H
	ORG $+1
$SG321781 DB	'g', 00H, 'l', 00H, 'S', 00H, 'e', 00H, 'l', 00H, 'e', 00H
	DB	'c', 00H, 't', 00H, 'B', 00H, 'u', 00H, 'f', 00H, 'f', 00H, 'e'
	DB	00H, 'r', 00H, 00H, 00H
	ORG $+2
$SG324854 DB	'glIndexi', 00H
	ORG $+3
$SG321782 DB	'[', 00H, ' ', 00H, 'O', 00H, 'p', 00H, 'e', 00H, 'n', 00H
	DB	'G', 00H, 'L', 00H, '3', 00H, '2', 00H, ' ', 00H, ']', 00H, ' '
	DB	00H, 'U', 00H, 'n', 00H, 'a', 00H, 'b', 00H, 'l', 00H, 'e', 00H
	DB	' ', 00H, 't', 00H, 'o', 00H, ' ', 00H, 'l', 00H, 'o', 00H, 'c'
	DB	00H, 'a', 00H, 't', 00H, 'e', 00H, ' ', 00H, 's', 00H, 'y', 00H
	DB	'm', 00H, 'b', 00H, 'o', 00H, 'l', 00H, ' ', 00H, ' ', 00H, '%'
	DB	00H, 's', 00H, ' ', 00H, 'i', 00H, 'n', 00H, ' ', 00H, 'O', 00H
	DB	'p', 00H, 'e', 00H, 'n', 00H, 'G', 00H, 'L', 00H, '3', 00H, '2'
	DB	00H, '.', 00H, 'd', 00H, 'l', 00H, 'l', 00H, 00H, 00H
	ORG $+2
$SG324855 DB	'glIndexiv', 00H
	ORG $+2
$SG320759 DB	'glPassThrough', 00H
	ORG $+2
$SG319735 DB	'glIndexMask', 00H
$SG324856 DB	'glIndexs', 00H
	ORG $+3
$SG324857 DB	'glIndexsv', 00H
	ORG $+2
$SG322809 DB	'g', 00H, 'l', 00H, 'V', 00H, 'e', 00H, 'r', 00H, 't', 00H
	DB	'e', 00H, 'x', 00H, '2', 00H, 'f', 00H, 00H, 00H
	ORG $+2
$SG324858 DB	'glIndexub', 00H
	ORG $+2
$SG322810 DB	'[', 00H, ' ', 00H, 'O', 00H, 'p', 00H, 'e', 00H, 'n', 00H
	DB	'G', 00H, 'L', 00H, '3', 00H, '2', 00H, ' ', 00H, ']', 00H, ' '
	DB	00H, 'U', 00H, 'n', 00H, 'a', 00H, 'b', 00H, 'l', 00H, 'e', 00H
	DB	' ', 00H, 't', 00H, 'o', 00H, ' ', 00H, 'l', 00H, 'o', 00H, 'c'
	DB	00H, 'a', 00H, 't', 00H, 'e', 00H, ' ', 00H, 's', 00H, 'y', 00H
	DB	'm', 00H, 'b', 00H, 'o', 00H, 'l', 00H, ' ', 00H, ' ', 00H, '%'
	DB	00H, 's', 00H, ' ', 00H, 'i', 00H, 'n', 00H, ' ', 00H, 'O', 00H
	DB	'p', 00H, 'e', 00H, 'n', 00H, 'G', 00H, 'L', 00H, '3', 00H, '2'
	DB	00H, '.', 00H, 'd', 00H, 'l', 00H, 'l', 00H, 00H, 00H
	ORG $+2
$SG324859 DB	'glIndexubv', 00H
	ORG $+1
$SG320763 DB	'g', 00H, 'l', 00H, 'P', 00H, 'a', 00H, 's', 00H, 's', 00H
	DB	'T', 00H, 'h', 00H, 'r', 00H, 'o', 00H, 'u', 00H, 'g', 00H, 'h'
	DB	00H, 00H, 00H
$SG319739 DB	'g', 00H, 'l', 00H, 'I', 00H, 'n', 00H, 'd', 00H, 'e', 00H
	DB	'x', 00H, 'M', 00H, 'a', 00H, 's', 00H, 'k', 00H, 00H, 00H
$SG317691 DB	'glCallList', 00H
	ORG $+1
$SG324860 DB	'glInitNames', 00H
$SG324861 DB	'glInterleavedArrays', 00H
$SG320764 DB	'[', 00H, ' ', 00H, 'O', 00H, 'p', 00H, 'e', 00H, 'n', 00H
	DB	'G', 00H, 'L', 00H, '3', 00H, '2', 00H, ' ', 00H, ']', 00H, ' '
	DB	00H, 'U', 00H, 'n', 00H, 'a', 00H, 'b', 00H, 'l', 00H, 'e', 00H
	DB	' ', 00H, 't', 00H, 'o', 00H, ' ', 00H, 'l', 00H, 'o', 00H, 'c'
	DB	00H, 'a', 00H, 't', 00H, 'e', 00H, ' ', 00H, 's', 00H, 'y', 00H
	DB	'm', 00H, 'b', 00H, 'o', 00H, 'l', 00H, ' ', 00H, ' ', 00H, '%'
	DB	00H, 's', 00H, ' ', 00H, 'i', 00H, 'n', 00H, ' ', 00H, 'O', 00H
	DB	'p', 00H, 'e', 00H, 'n', 00H, 'G', 00H, 'L', 00H, '3', 00H, '2'
	DB	00H, '.', 00H, 'd', 00H, 'l', 00H, 'l', 00H, 00H, 00H
	ORG $+2
$SG324862 DB	'glIsEnabled', 00H
$SG319740 DB	'[', 00H, ' ', 00H, 'O', 00H, 'p', 00H, 'e', 00H, 'n', 00H
	DB	'G', 00H, 'L', 00H, '3', 00H, '2', 00H, ' ', 00H, ']', 00H, ' '
	DB	00H, 'U', 00H, 'n', 00H, 'a', 00H, 'b', 00H, 'l', 00H, 'e', 00H
	DB	' ', 00H, 't', 00H, 'o', 00H, ' ', 00H, 'l', 00H, 'o', 00H, 'c'
	DB	00H, 'a', 00H, 't', 00H, 'e', 00H, ' ', 00H, 's', 00H, 'y', 00H
	DB	'm', 00H, 'b', 00H, 'o', 00H, 'l', 00H, ' ', 00H, ' ', 00H, '%'
	DB	00H, 's', 00H, ' ', 00H, 'i', 00H, 'n', 00H, ' ', 00H, 'O', 00H
	DB	'p', 00H, 'e', 00H, 'n', 00H, 'G', 00H, 'L', 00H, '3', 00H, '2'
	DB	00H, '.', 00H, 'd', 00H, 'l', 00H, 'l', 00H, 00H, 00H
	ORG $+2
$SG324863 DB	'glIsList', 00H
	ORG $+3
$SG321791 DB	'glShadeModel', 00H
	ORG $+3
$SG318719 DB	'glDrawElements', 00H
	ORG $+1
$SG317695 DB	'g', 00H, 'l', 00H, 'C', 00H, 'a', 00H, 'l', 00H, 'l', 00H
	DB	'L', 00H, 'i', 00H, 's', 00H, 't', 00H, 00H, 00H
	ORG $+2
$SG324864 DB	'glIsTexture', 00H
$SG322819 DB	'glVertex2fv', 00H
$SG317696 DB	'[', 00H, ' ', 00H, 'O', 00H, 'p', 00H, 'e', 00H, 'n', 00H
	DB	'G', 00H, 'L', 00H, '3', 00H, '2', 00H, ' ', 00H, ']', 00H, ' '
	DB	00H, 'U', 00H, 'n', 00H, 'a', 00H, 'b', 00H, 'l', 00H, 'e', 00H
	DB	' ', 00H, 't', 00H, 'o', 00H, ' ', 00H, 'l', 00H, 'o', 00H, 'c'
	DB	00H, 'a', 00H, 't', 00H, 'e', 00H, ' ', 00H, 's', 00H, 'y', 00H
	DB	'm', 00H, 'b', 00H, 'o', 00H, 'l', 00H, ' ', 00H, ' ', 00H, '%'
	DB	00H, 's', 00H, ' ', 00H, 'i', 00H, 'n', 00H, ' ', 00H, 'O', 00H
	DB	'p', 00H, 'e', 00H, 'n', 00H, 'G', 00H, 'L', 00H, '3', 00H, '2'
	DB	00H, '.', 00H, 'd', 00H, 'l', 00H, 'l', 00H, 00H, 00H
	ORG $+2
$SG324865 DB	'glLightModelf', 00H
	ORG $+2
$SG324866 DB	'glLightModelfv', 00H
	ORG $+1
$SG324867 DB	'glLightModeli', 00H
	ORG $+2
$SG321795 DB	'g', 00H, 'l', 00H, 'S', 00H, 'h', 00H, 'a', 00H, 'd', 00H
	DB	'e', 00H, 'M', 00H, 'o', 00H, 'd', 00H, 'e', 00H, 'l', 00H, 00H
	DB	00H
	ORG $+2
$SG318723 DB	'g', 00H, 'l', 00H, 'D', 00H, 'r', 00H, 'a', 00H, 'w', 00H
	DB	'E', 00H, 'l', 00H, 'e', 00H, 'm', 00H, 'e', 00H, 'n', 00H, 't'
	DB	00H, 's', 00H, 00H, 00H
	ORG $+2
$SG324868 DB	'glLightModeliv', 00H
	ORG $+1
$SG321796 DB	'[', 00H, ' ', 00H, 'O', 00H, 'p', 00H, 'e', 00H, 'n', 00H
	DB	'G', 00H, 'L', 00H, '3', 00H, '2', 00H, ' ', 00H, ']', 00H, ' '
	DB	00H, 'U', 00H, 'n', 00H, 'a', 00H, 'b', 00H, 'l', 00H, 'e', 00H
	DB	' ', 00H, 't', 00H, 'o', 00H, ' ', 00H, 'l', 00H, 'o', 00H, 'c'
	DB	00H, 'a', 00H, 't', 00H, 'e', 00H, ' ', 00H, 's', 00H, 'y', 00H
	DB	'm', 00H, 'b', 00H, 'o', 00H, 'l', 00H, ' ', 00H, ' ', 00H, '%'
	DB	00H, 's', 00H, ' ', 00H, 'i', 00H, 'n', 00H, ' ', 00H, 'O', 00H
	DB	'p', 00H, 'e', 00H, 'n', 00H, 'G', 00H, 'L', 00H, '3', 00H, '2'
	DB	00H, '.', 00H, 'd', 00H, 'l', 00H, 'l', 00H, 00H, 00H
	ORG $+2
$SG324869 DB	'glLightf', 00H
	ORG $+3
$SG318724 DB	'[', 00H, ' ', 00H, 'O', 00H, 'p', 00H, 'e', 00H, 'n', 00H
	DB	'G', 00H, 'L', 00H, '3', 00H, '2', 00H, ' ', 00H, ']', 00H, ' '
	DB	00H, 'U', 00H, 'n', 00H, 'a', 00H, 'b', 00H, 'l', 00H, 'e', 00H
	DB	' ', 00H, 't', 00H, 'o', 00H, ' ', 00H, 'l', 00H, 'o', 00H, 'c'
	DB	00H, 'a', 00H, 't', 00H, 'e', 00H, ' ', 00H, 's', 00H, 'y', 00H
	DB	'm', 00H, 'b', 00H, 'o', 00H, 'l', 00H, ' ', 00H, ' ', 00H, '%'
	DB	00H, 's', 00H, ' ', 00H, 'i', 00H, 'n', 00H, ' ', 00H, 'O', 00H
	DB	'p', 00H, 'e', 00H, 'n', 00H, 'G', 00H, 'L', 00H, '3', 00H, '2'
	DB	00H, '.', 00H, 'd', 00H, 'l', 00H, 'l', 00H, 00H, 00H
	ORG $+2
$SG324870 DB	'glLightfv', 00H
	ORG $+2
$SG324871 DB	'glLighti', 00H
	ORG $+3
$SG322823 DB	'g', 00H, 'l', 00H, 'V', 00H, 'e', 00H, 'r', 00H, 't', 00H
	DB	'e', 00H, 'x', 00H, '2', 00H, 'f', 00H, 'v', 00H, 00H, 00H
$SG324872 DB	'glLightiv', 00H
	ORG $+2
$SG322824 DB	'[', 00H, ' ', 00H, 'O', 00H, 'p', 00H, 'e', 00H, 'n', 00H
	DB	'G', 00H, 'L', 00H, '3', 00H, '2', 00H, ' ', 00H, ']', 00H, ' '
	DB	00H, 'U', 00H, 'n', 00H, 'a', 00H, 'b', 00H, 'l', 00H, 'e', 00H
	DB	' ', 00H, 't', 00H, 'o', 00H, ' ', 00H, 'l', 00H, 'o', 00H, 'c'
	DB	00H, 'a', 00H, 't', 00H, 'e', 00H, ' ', 00H, 's', 00H, 'y', 00H
	DB	'm', 00H, 'b', 00H, 'o', 00H, 'l', 00H, ' ', 00H, ' ', 00H, '%'
	DB	00H, 's', 00H, ' ', 00H, 'i', 00H, 'n', 00H, ' ', 00H, 'O', 00H
	DB	'p', 00H, 'e', 00H, 'n', 00H, 'G', 00H, 'L', 00H, '3', 00H, '2'
	DB	00H, '.', 00H, 'd', 00H, 'l', 00H, 'l', 00H, 00H, 00H
	ORG $+2
$SG324873 DB	'glLineStipple', 00H
	ORG $+2
$SG320777 DB	'glPixelMapfv', 00H
	ORG $+3
$SG319753 DB	'glIndexPointer', 00H
	ORG $+1
$SG324874 DB	'glLineWidth', 00H
$SG324875 DB	'glListBase', 00H
	ORG $+1
$SG324876 DB	'glLoadIdentity', 00H
	ORG $+1
$SG324877 DB	'glLoadMatrixd', 00H
	ORG $+2
$SG320781 DB	'g', 00H, 'l', 00H, 'P', 00H, 'i', 00H, 'x', 00H, 'e', 00H
	DB	'l', 00H, 'M', 00H, 'a', 00H, 'p', 00H, 'f', 00H, 'v', 00H, 00H
	DB	00H
	ORG $+2
$SG319757 DB	'g', 00H, 'l', 00H, 'I', 00H, 'n', 00H, 'd', 00H, 'e', 00H
	DB	'x', 00H, 'P', 00H, 'o', 00H, 'i', 00H, 'n', 00H, 't', 00H, 'e'
	DB	00H, 'r', 00H, 00H, 00H
	ORG $+2
$SG317709 DB	'glCallLists', 00H
$SG324878 DB	'glLoadMatrixf', 00H
	ORG $+2
$SG324879 DB	'glLoadName', 00H
	ORG $+1
$SG320782 DB	'[', 00H, ' ', 00H, 'O', 00H, 'p', 00H, 'e', 00H, 'n', 00H
	DB	'G', 00H, 'L', 00H, '3', 00H, '2', 00H, ' ', 00H, ']', 00H, ' '
	DB	00H, 'U', 00H, 'n', 00H, 'a', 00H, 'b', 00H, 'l', 00H, 'e', 00H
	DB	' ', 00H, 't', 00H, 'o', 00H, ' ', 00H, 'l', 00H, 'o', 00H, 'c'
	DB	00H, 'a', 00H, 't', 00H, 'e', 00H, ' ', 00H, 's', 00H, 'y', 00H
	DB	'm', 00H, 'b', 00H, 'o', 00H, 'l', 00H, ' ', 00H, ' ', 00H, '%'
	DB	00H, 's', 00H, ' ', 00H, 'i', 00H, 'n', 00H, ' ', 00H, 'O', 00H
	DB	'p', 00H, 'e', 00H, 'n', 00H, 'G', 00H, 'L', 00H, '3', 00H, '2'
	DB	00H, '.', 00H, 'd', 00H, 'l', 00H, 'l', 00H, 00H, 00H
	ORG $+2
$SG324880 DB	'glLogicOp', 00H
	ORG $+2
$SG319758 DB	'[', 00H, ' ', 00H, 'O', 00H, 'p', 00H, 'e', 00H, 'n', 00H
	DB	'G', 00H, 'L', 00H, '3', 00H, '2', 00H, ' ', 00H, ']', 00H, ' '
	DB	00H, 'U', 00H, 'n', 00H, 'a', 00H, 'b', 00H, 'l', 00H, 'e', 00H
	DB	' ', 00H, 't', 00H, 'o', 00H, ' ', 00H, 'l', 00H, 'o', 00H, 'c'
	DB	00H, 'a', 00H, 't', 00H, 'e', 00H, ' ', 00H, 's', 00H, 'y', 00H
	DB	'm', 00H, 'b', 00H, 'o', 00H, 'l', 00H, ' ', 00H, ' ', 00H, '%'
	DB	00H, 's', 00H, ' ', 00H, 'i', 00H, 'n', 00H, ' ', 00H, 'O', 00H
	DB	'p', 00H, 'e', 00H, 'n', 00H, 'G', 00H, 'L', 00H, '3', 00H, '2'
	DB	00H, '.', 00H, 'd', 00H, 'l', 00H, 'l', 00H, 00H, 00H
	ORG $+2
$SG324881 DB	'glMap1d', 00H
$SG321809 DB	'glStencilFunc', 00H
	ORG $+2
$SG317713 DB	'g', 00H, 'l', 00H, 'C', 00H, 'a', 00H, 'l', 00H, 'l', 00H
	DB	'L', 00H, 'i', 00H, 's', 00H, 't', 00H, 's', 00H, 00H, 00H
$SG324882 DB	'glMap1f', 00H
$SG322835 DB	'glVertex2i', 00H
	ORG $+1
$SG317714 DB	'[', 00H, ' ', 00H, 'O', 00H, 'p', 00H, 'e', 00H, 'n', 00H
	DB	'G', 00H, 'L', 00H, '3', 00H, '2', 00H, ' ', 00H, ']', 00H, ' '
	DB	00H, 'U', 00H, 'n', 00H, 'a', 00H, 'b', 00H, 'l', 00H, 'e', 00H
	DB	' ', 00H, 't', 00H, 'o', 00H, ' ', 00H, 'l', 00H, 'o', 00H, 'c'
	DB	00H, 'a', 00H, 't', 00H, 'e', 00H, ' ', 00H, 's', 00H, 'y', 00H
	DB	'm', 00H, 'b', 00H, 'o', 00H, 'l', 00H, ' ', 00H, ' ', 00H, '%'
	DB	00H, 's', 00H, ' ', 00H, 'i', 00H, 'n', 00H, ' ', 00H, 'O', 00H
	DB	'p', 00H, 'e', 00H, 'n', 00H, 'G', 00H, 'L', 00H, '3', 00H, '2'
	DB	00H, '.', 00H, 'd', 00H, 'l', 00H, 'l', 00H, 00H, 00H
	ORG $+2
$SG324883 DB	'glMap2d', 00H
$SG324884 DB	'glMap2f', 00H
$SG324885 DB	'glMapGrid1d', 00H
$SG321813 DB	'g', 00H, 'l', 00H, 'S', 00H, 't', 00H, 'e', 00H, 'n', 00H
	DB	'c', 00H, 'i', 00H, 'l', 00H, 'F', 00H, 'u', 00H, 'n', 00H, 'c'
	DB	00H, 00H, 00H
$SG318741 DB	'glDrawPixels', 00H
	ORG $+3
$SG324886 DB	'glMapGrid1f', 00H
$SG321814 DB	'[', 00H, ' ', 00H, 'O', 00H, 'p', 00H, 'e', 00H, 'n', 00H
	DB	'G', 00H, 'L', 00H, '3', 00H, '2', 00H, ' ', 00H, ']', 00H, ' '
	DB	00H, 'U', 00H, 'n', 00H, 'a', 00H, 'b', 00H, 'l', 00H, 'e', 00H
	DB	' ', 00H, 't', 00H, 'o', 00H, ' ', 00H, 'l', 00H, 'o', 00H, 'c'
	DB	00H, 'a', 00H, 't', 00H, 'e', 00H, ' ', 00H, 's', 00H, 'y', 00H
	DB	'm', 00H, 'b', 00H, 'o', 00H, 'l', 00H, ' ', 00H, ' ', 00H, '%'
	DB	00H, 's', 00H, ' ', 00H, 'i', 00H, 'n', 00H, ' ', 00H, 'O', 00H
	DB	'p', 00H, 'e', 00H, 'n', 00H, 'G', 00H, 'L', 00H, '3', 00H, '2'
	DB	00H, '.', 00H, 'd', 00H, 'l', 00H, 'l', 00H, 00H, 00H
	ORG $+2
$SG324887 DB	'glMapGrid2d', 00H
$SG322839 DB	'g', 00H, 'l', 00H, 'V', 00H, 'e', 00H, 'r', 00H, 't', 00H
	DB	'e', 00H, 'x', 00H, '2', 00H, 'i', 00H, 00H, 00H
	ORG $+2
$SG319767 DB	'glIndexd', 00H
	ORG $+3
$SG324888 DB	'glMapGrid2f', 00H
$SG322840 DB	'[', 00H, ' ', 00H, 'O', 00H, 'p', 00H, 'e', 00H, 'n', 00H
	DB	'G', 00H, 'L', 00H, '3', 00H, '2', 00H, ' ', 00H, ']', 00H, ' '
	DB	00H, 'U', 00H, 'n', 00H, 'a', 00H, 'b', 00H, 'l', 00H, 'e', 00H
	DB	' ', 00H, 't', 00H, 'o', 00H, ' ', 00H, 'l', 00H, 'o', 00H, 'c'
	DB	00H, 'a', 00H, 't', 00H, 'e', 00H, ' ', 00H, 's', 00H, 'y', 00H
	DB	'm', 00H, 'b', 00H, 'o', 00H, 'l', 00H, ' ', 00H, ' ', 00H, '%'
	DB	00H, 's', 00H, ' ', 00H, 'i', 00H, 'n', 00H, ' ', 00H, 'O', 00H
	DB	'p', 00H, 'e', 00H, 'n', 00H, 'G', 00H, 'L', 00H, '3', 00H, '2'
	DB	00H, '.', 00H, 'd', 00H, 'l', 00H, 'l', 00H, 00H, 00H
	ORG $+2
$SG324889 DB	'glMaterialf', 00H
$SG318745 DB	'g', 00H, 'l', 00H, 'D', 00H, 'r', 00H, 'a', 00H, 'w', 00H
	DB	'P', 00H, 'i', 00H, 'x', 00H, 'e', 00H, 'l', 00H, 's', 00H, 00H
	DB	00H
	ORG $+2
$SG324890 DB	'glMaterialfv', 00H
	ORG $+3
$SG324891 DB	'glMateriali', 00H
$SG318746 DB	'[', 00H, ' ', 00H, 'O', 00H, 'p', 00H, 'e', 00H, 'n', 00H
	DB	'G', 00H, 'L', 00H, '3', 00H, '2', 00H, ' ', 00H, ']', 00H, ' '
	DB	00H, 'U', 00H, 'n', 00H, 'a', 00H, 'b', 00H, 'l', 00H, 'e', 00H
	DB	' ', 00H, 't', 00H, 'o', 00H, ' ', 00H, 'l', 00H, 'o', 00H, 'c'
	DB	00H, 'a', 00H, 't', 00H, 'e', 00H, ' ', 00H, 's', 00H, 'y', 00H
	DB	'm', 00H, 'b', 00H, 'o', 00H, 'l', 00H, ' ', 00H, ' ', 00H, '%'
	DB	00H, 's', 00H, ' ', 00H, 'i', 00H, 'n', 00H, ' ', 00H, 'O', 00H
	DB	'p', 00H, 'e', 00H, 'n', 00H, 'G', 00H, 'L', 00H, '3', 00H, '2'
	DB	00H, '.', 00H, 'd', 00H, 'l', 00H, 'l', 00H, 00H, 00H
	ORG $+2
$SG320795 DB	'glPixelMapuiv', 00H
	ORG $+2
$SG319771 DB	'g', 00H, 'l', 00H, 'I', 00H, 'n', 00H, 'd', 00H, 'e', 00H
	DB	'x', 00H, 'd', 00H, 00H, 00H
	ORG $+2
$SG317723 DB	'glClear', 00H
$SG324892 DB	'glMaterialiv', 00H
	ORG $+3
$SG319772 DB	'[', 00H, ' ', 00H, 'O', 00H, 'p', 00H, 'e', 00H, 'n', 00H
	DB	'G', 00H, 'L', 00H, '3', 00H, '2', 00H, ' ', 00H, ']', 00H, ' '
	DB	00H, 'U', 00H, 'n', 00H, 'a', 00H, 'b', 00H, 'l', 00H, 'e', 00H
	DB	' ', 00H, 't', 00H, 'o', 00H, ' ', 00H, 'l', 00H, 'o', 00H, 'c'
	DB	00H, 'a', 00H, 't', 00H, 'e', 00H, ' ', 00H, 's', 00H, 'y', 00H
	DB	'm', 00H, 'b', 00H, 'o', 00H, 'l', 00H, ' ', 00H, ' ', 00H, '%'
	DB	00H, 's', 00H, ' ', 00H, 'i', 00H, 'n', 00H, ' ', 00H, 'O', 00H
	DB	'p', 00H, 'e', 00H, 'n', 00H, 'G', 00H, 'L', 00H, '3', 00H, '2'
	DB	00H, '.', 00H, 'd', 00H, 'l', 00H, 'l', 00H, 00H, 00H
	ORG $+2
$SG324893 DB	'glMatrixMode', 00H
	ORG $+3
$SG324894 DB	'glMultMatrixd', 00H
	ORG $+2
$SG324895 DB	'glMultMatrixf', 00H
	ORG $+2
$SG321823 DB	'glStencilMask', 00H
	ORG $+2
$SG320799 DB	'g', 00H, 'l', 00H, 'P', 00H, 'i', 00H, 'x', 00H, 'e', 00H
	DB	'l', 00H, 'M', 00H, 'a', 00H, 'p', 00H, 'u', 00H, 'i', 00H, 'v'
	DB	00H, 00H, 00H
$SG317727 DB	'g', 00H, 'l', 00H, 'C', 00H, 'l', 00H, 'e', 00H, 'a', 00H
	DB	'r', 00H, 00H, 00H
$SG324896 DB	'glNewList', 00H
	ORG $+2
$SG324897 DB	'glNormal3b', 00H
	ORG $+1
$SG320800 DB	'[', 00H, ' ', 00H, 'O', 00H, 'p', 00H, 'e', 00H, 'n', 00H
	DB	'G', 00H, 'L', 00H, '3', 00H, '2', 00H, ' ', 00H, ']', 00H, ' '
	DB	00H, 'U', 00H, 'n', 00H, 'a', 00H, 'b', 00H, 'l', 00H, 'e', 00H
	DB	' ', 00H, 't', 00H, 'o', 00H, ' ', 00H, 'l', 00H, 'o', 00H, 'c'
	DB	00H, 'a', 00H, 't', 00H, 'e', 00H, ' ', 00H, 's', 00H, 'y', 00H
	DB	'm', 00H, 'b', 00H, 'o', 00H, 'l', 00H, ' ', 00H, ' ', 00H, '%'
	DB	00H, 's', 00H, ' ', 00H, 'i', 00H, 'n', 00H, ' ', 00H, 'O', 00H
	DB	'p', 00H, 'e', 00H, 'n', 00H, 'G', 00H, 'L', 00H, '3', 00H, '2'
	DB	00H, '.', 00H, 'd', 00H, 'l', 00H, 'l', 00H, 00H, 00H
	ORG $+2
$SG322849 DB	'glVertex2iv', 00H
$SG317728 DB	'[', 00H, ' ', 00H, 'O', 00H, 'p', 00H, 'e', 00H, 'n', 00H
	DB	'G', 00H, 'L', 00H, '3', 00H, '2', 00H, ' ', 00H, ']', 00H, ' '
	DB	00H, 'U', 00H, 'n', 00H, 'a', 00H, 'b', 00H, 'l', 00H, 'e', 00H
	DB	' ', 00H, 't', 00H, 'o', 00H, ' ', 00H, 'l', 00H, 'o', 00H, 'c'
	DB	00H, 'a', 00H, 't', 00H, 'e', 00H, ' ', 00H, 's', 00H, 'y', 00H
	DB	'm', 00H, 'b', 00H, 'o', 00H, 'l', 00H, ' ', 00H, ' ', 00H, '%'
	DB	00H, 's', 00H, ' ', 00H, 'i', 00H, 'n', 00H, ' ', 00H, 'O', 00H
	DB	'p', 00H, 'e', 00H, 'n', 00H, 'G', 00H, 'L', 00H, '3', 00H, '2'
	DB	00H, '.', 00H, 'd', 00H, 'l', 00H, 'l', 00H, 00H, 00H
	ORG $+2
$SG324898 DB	'glNormal3bv', 00H
$SG324899 DB	'glNormal3d', 00H
	ORG $+1
$SG321827 DB	'g', 00H, 'l', 00H, 'S', 00H, 't', 00H, 'e', 00H, 'n', 00H
	DB	'c', 00H, 'i', 00H, 'l', 00H, 'M', 00H, 'a', 00H, 's', 00H, 'k'
	DB	00H, 00H, 00H
$SG318755 DB	'glEdgeFlag', 00H
	ORG $+1
$SG324900 DB	'glNormal3dv', 00H
$SG321828 DB	'[', 00H, ' ', 00H, 'O', 00H, 'p', 00H, 'e', 00H, 'n', 00H
	DB	'G', 00H, 'L', 00H, '3', 00H, '2', 00H, ' ', 00H, ']', 00H, ' '
	DB	00H, 'U', 00H, 'n', 00H, 'a', 00H, 'b', 00H, 'l', 00H, 'e', 00H
	DB	' ', 00H, 't', 00H, 'o', 00H, ' ', 00H, 'l', 00H, 'o', 00H, 'c'
	DB	00H, 'a', 00H, 't', 00H, 'e', 00H, ' ', 00H, 's', 00H, 'y', 00H
	DB	'm', 00H, 'b', 00H, 'o', 00H, 'l', 00H, ' ', 00H, ' ', 00H, '%'
	DB	00H, 's', 00H, ' ', 00H, 'i', 00H, 'n', 00H, ' ', 00H, 'O', 00H
	DB	'p', 00H, 'e', 00H, 'n', 00H, 'G', 00H, 'L', 00H, '3', 00H, '2'
	DB	00H, '.', 00H, 'd', 00H, 'l', 00H, 'l', 00H, 00H, 00H
	ORG $+2
$SG324901 DB	'glNormal3f', 00H
	ORG $+1
$SG322853 DB	'g', 00H, 'l', 00H, 'V', 00H, 'e', 00H, 'r', 00H, 't', 00H
	DB	'e', 00H, 'x', 00H, '2', 00H, 'i', 00H, 'v', 00H, 00H, 00H
$SG319781 DB	'glIndexdv', 00H
	ORG $+2
$SG324902 DB	'glNormal3fv', 00H
$SG322854 DB	'[', 00H, ' ', 00H, 'O', 00H, 'p', 00H, 'e', 00H, 'n', 00H
	DB	'G', 00H, 'L', 00H, '3', 00H, '2', 00H, ' ', 00H, ']', 00H, ' '
	DB	00H, 'U', 00H, 'n', 00H, 'a', 00H, 'b', 00H, 'l', 00H, 'e', 00H
	DB	' ', 00H, 't', 00H, 'o', 00H, ' ', 00H, 'l', 00H, 'o', 00H, 'c'
	DB	00H, 'a', 00H, 't', 00H, 'e', 00H, ' ', 00H, 's', 00H, 'y', 00H
	DB	'm', 00H, 'b', 00H, 'o', 00H, 'l', 00H, ' ', 00H, ' ', 00H, '%'
	DB	00H, 's', 00H, ' ', 00H, 'i', 00H, 'n', 00H, ' ', 00H, 'O', 00H
	DB	'p', 00H, 'e', 00H, 'n', 00H, 'G', 00H, 'L', 00H, '3', 00H, '2'
	DB	00H, '.', 00H, 'd', 00H, 'l', 00H, 'l', 00H, 00H, 00H
	ORG $+2
$SG324903 DB	'glNormal3i', 00H
	ORG $+1
$SG318759 DB	'g', 00H, 'l', 00H, 'E', 00H, 'd', 00H, 'g', 00H, 'e', 00H
	DB	'F', 00H, 'l', 00H, 'a', 00H, 'g', 00H, 00H, 00H
	ORG $+2
$SG324904 DB	'glNormal3iv', 00H
$SG324905 DB	'glNormal3s', 00H
	ORG $+1
$SG318760 DB	'[', 00H, ' ', 00H, 'O', 00H, 'p', 00H, 'e', 00H, 'n', 00H
	DB	'G', 00H, 'L', 00H, '3', 00H, '2', 00H, ' ', 00H, ']', 00H, ' '
	DB	00H, 'U', 00H, 'n', 00H, 'a', 00H, 'b', 00H, 'l', 00H, 'e', 00H
	DB	' ', 00H, 't', 00H, 'o', 00H, ' ', 00H, 'l', 00H, 'o', 00H, 'c'
	DB	00H, 'a', 00H, 't', 00H, 'e', 00H, ' ', 00H, 's', 00H, 'y', 00H
	DB	'm', 00H, 'b', 00H, 'o', 00H, 'l', 00H, ' ', 00H, ' ', 00H, '%'
	DB	00H, 's', 00H, ' ', 00H, 'i', 00H, 'n', 00H, ' ', 00H, 'O', 00H
	DB	'p', 00H, 'e', 00H, 'n', 00H, 'G', 00H, 'L', 00H, '3', 00H, '2'
	DB	00H, '.', 00H, 'd', 00H, 'l', 00H, 'l', 00H, 00H, 00H
	ORG $+2
$SG319785 DB	'g', 00H, 'l', 00H, 'I', 00H, 'n', 00H, 'd', 00H, 'e', 00H
	DB	'x', 00H, 'd', 00H, 'v', 00H, 00H, 00H
$SG324906 DB	'glNormal3sv', 00H
$SG322865 DB	'glVertex2s', 00H
	ORG $+1
$SG319786 DB	'[', 00H, ' ', 00H, 'O', 00H, 'p', 00H, 'e', 00H, 'n', 00H
	DB	'G', 00H, 'L', 00H, '3', 00H, '2', 00H, ' ', 00H, ']', 00H, ' '
	DB	00H, 'U', 00H, 'n', 00H, 'a', 00H, 'b', 00H, 'l', 00H, 'e', 00H
	DB	' ', 00H, 't', 00H, 'o', 00H, ' ', 00H, 'l', 00H, 'o', 00H, 'c'
	DB	00H, 'a', 00H, 't', 00H, 'e', 00H, ' ', 00H, 's', 00H, 'y', 00H
	DB	'm', 00H, 'b', 00H, 'o', 00H, 'l', 00H, ' ', 00H, ' ', 00H, '%'
	DB	00H, 's', 00H, ' ', 00H, 'i', 00H, 'n', 00H, ' ', 00H, 'O', 00H
	DB	'p', 00H, 'e', 00H, 'n', 00H, 'G', 00H, 'L', 00H, '3', 00H, '2'
	DB	00H, '.', 00H, 'd', 00H, 'l', 00H, 'l', 00H, 00H, 00H
	ORG $+2
$SG324907 DB	'glNormalPointer', 00H
$SG324908 DB	'glOrtho', 00H
$SG324909 DB	'glPassThrough', 00H
	ORG $+2
$SG320813 DB	'glPixelMapusv', 00H
	ORG $+2
$SG324910 DB	'glPixelMapfv', 00H
	ORG $+3
$SG324911 DB	'glPixelMapuiv', 00H
	ORG $+2
$SG317743 DB	'glClearAccum', 00H
	ORG $+3
$SG324912 DB	'glPixelMapusv', 00H
	ORG $+2
$SG324913 DB	'glPixelStoref', 00H
	ORG $+2
$SG321841 DB	'glStencilOp', 00H
$SG320817 DB	'g', 00H, 'l', 00H, 'P', 00H, 'i', 00H, 'x', 00H, 'e', 00H
	DB	'l', 00H, 'M', 00H, 'a', 00H, 'p', 00H, 'u', 00H, 's', 00H, 'v'
	DB	00H, 00H, 00H
$SG324914 DB	'glPixelStorei', 00H
	ORG $+2
$SG324915 DB	'glPixelTransferf', 00H
	ORG $+3
$SG320818 DB	'[', 00H, ' ', 00H, 'O', 00H, 'p', 00H, 'e', 00H, 'n', 00H
	DB	'G', 00H, 'L', 00H, '3', 00H, '2', 00H, ' ', 00H, ']', 00H, ' '
	DB	00H, 'U', 00H, 'n', 00H, 'a', 00H, 'b', 00H, 'l', 00H, 'e', 00H
	DB	' ', 00H, 't', 00H, 'o', 00H, ' ', 00H, 'l', 00H, 'o', 00H, 'c'
	DB	00H, 'a', 00H, 't', 00H, 'e', 00H, ' ', 00H, 's', 00H, 'y', 00H
	DB	'm', 00H, 'b', 00H, 'o', 00H, 'l', 00H, ' ', 00H, ' ', 00H, '%'
	DB	00H, 's', 00H, ' ', 00H, 'i', 00H, 'n', 00H, ' ', 00H, 'O', 00H
	DB	'p', 00H, 'e', 00H, 'n', 00H, 'G', 00H, 'L', 00H, '3', 00H, '2'
	DB	00H, '.', 00H, 'd', 00H, 'l', 00H, 'l', 00H, 00H, 00H
	ORG $+2
$SG319795 DB	'glIndexf', 00H
	ORG $+3
$SG318771 DB	'glEdgeFlagPointer', 00H
	ORG $+2
$SG317747 DB	'g', 00H, 'l', 00H, 'C', 00H, 'l', 00H, 'e', 00H, 'a', 00H
	DB	'r', 00H, 'A', 00H, 'c', 00H, 'c', 00H, 'u', 00H, 'm', 00H, 00H
	DB	00H
	ORG $+2
$SG324916 DB	'glPixelTransferi', 00H
	ORG $+3
$SG324917 DB	'glPixelZoom', 00H
$SG317748 DB	'[', 00H, ' ', 00H, 'O', 00H, 'p', 00H, 'e', 00H, 'n', 00H
	DB	'G', 00H, 'L', 00H, '3', 00H, '2', 00H, ' ', 00H, ']', 00H, ' '
	DB	00H, 'U', 00H, 'n', 00H, 'a', 00H, 'b', 00H, 'l', 00H, 'e', 00H
	DB	' ', 00H, 't', 00H, 'o', 00H, ' ', 00H, 'l', 00H, 'o', 00H, 'c'
	DB	00H, 'a', 00H, 't', 00H, 'e', 00H, ' ', 00H, 's', 00H, 'y', 00H
	DB	'm', 00H, 'b', 00H, 'o', 00H, 'l', 00H, ' ', 00H, ' ', 00H, '%'
	DB	00H, 's', 00H, ' ', 00H, 'i', 00H, 'n', 00H, ' ', 00H, 'O', 00H
	DB	'p', 00H, 'e', 00H, 'n', 00H, 'G', 00H, 'L', 00H, '3', 00H, '2'
	DB	00H, '.', 00H, 'd', 00H, 'l', 00H, 'l', 00H, 00H, 00H
	ORG $+2
$SG322869 DB	'g', 00H, 'l', 00H, 'V', 00H, 'e', 00H, 'r', 00H, 't', 00H
	DB	'e', 00H, 'x', 00H, '2', 00H, 's', 00H, 00H, 00H
	ORG $+2
$SG321845 DB	'g', 00H, 'l', 00H, 'S', 00H, 't', 00H, 'e', 00H, 'n', 00H
	DB	'c', 00H, 'i', 00H, 'l', 00H, 'O', 00H, 'p', 00H, 00H, 00H
$SG324918 DB	'glPointSize', 00H
$SG322870 DB	'[', 00H, ' ', 00H, 'O', 00H, 'p', 00H, 'e', 00H, 'n', 00H
	DB	'G', 00H, 'L', 00H, '3', 00H, '2', 00H, ' ', 00H, ']', 00H, ' '
	DB	00H, 'U', 00H, 'n', 00H, 'a', 00H, 'b', 00H, 'l', 00H, 'e', 00H
	DB	' ', 00H, 't', 00H, 'o', 00H, ' ', 00H, 'l', 00H, 'o', 00H, 'c'
	DB	00H, 'a', 00H, 't', 00H, 'e', 00H, ' ', 00H, 's', 00H, 'y', 00H
	DB	'm', 00H, 'b', 00H, 'o', 00H, 'l', 00H, ' ', 00H, ' ', 00H, '%'
	DB	00H, 's', 00H, ' ', 00H, 'i', 00H, 'n', 00H, ' ', 00H, 'O', 00H
	DB	'p', 00H, 'e', 00H, 'n', 00H, 'G', 00H, 'L', 00H, '3', 00H, '2'
	DB	00H, '.', 00H, 'd', 00H, 'l', 00H, 'l', 00H, 00H, 00H
	ORG $+2
$SG319799 DB	'g', 00H, 'l', 00H, 'I', 00H, 'n', 00H, 'd', 00H, 'e', 00H
	DB	'x', 00H, 'f', 00H, 00H, 00H
	ORG $+2
$SG321846 DB	'[', 00H, ' ', 00H, 'O', 00H, 'p', 00H, 'e', 00H, 'n', 00H
	DB	'G', 00H, 'L', 00H, '3', 00H, '2', 00H, ' ', 00H, ']', 00H, ' '
	DB	00H, 'U', 00H, 'n', 00H, 'a', 00H, 'b', 00H, 'l', 00H, 'e', 00H
	DB	' ', 00H, 't', 00H, 'o', 00H, ' ', 00H, 'l', 00H, 'o', 00H, 'c'
	DB	00H, 'a', 00H, 't', 00H, 'e', 00H, ' ', 00H, 's', 00H, 'y', 00H
	DB	'm', 00H, 'b', 00H, 'o', 00H, 'l', 00H, ' ', 00H, ' ', 00H, '%'
	DB	00H, 's', 00H, ' ', 00H, 'i', 00H, 'n', 00H, ' ', 00H, 'O', 00H
	DB	'p', 00H, 'e', 00H, 'n', 00H, 'G', 00H, 'L', 00H, '3', 00H, '2'
	DB	00H, '.', 00H, 'd', 00H, 'l', 00H, 'l', 00H, 00H, 00H
	ORG $+2
$SG324919 DB	'glPolygonMode', 00H
	ORG $+2
$SG318775 DB	'g', 00H, 'l', 00H, 'E', 00H, 'd', 00H, 'g', 00H, 'e', 00H
	DB	'F', 00H, 'l', 00H, 'a', 00H, 'g', 00H, 'P', 00H, 'o', 00H, 'i'
	DB	00H, 'n', 00H, 't', 00H, 'e', 00H, 'r', 00H, 00H, 00H
$SG324920 DB	'glPolygonOffset', 00H
$SG319800 DB	'[', 00H, ' ', 00H, 'O', 00H, 'p', 00H, 'e', 00H, 'n', 00H
	DB	'G', 00H, 'L', 00H, '3', 00H, '2', 00H, ' ', 00H, ']', 00H, ' '
	DB	00H, 'U', 00H, 'n', 00H, 'a', 00H, 'b', 00H, 'l', 00H, 'e', 00H
	DB	' ', 00H, 't', 00H, 'o', 00H, ' ', 00H, 'l', 00H, 'o', 00H, 'c'
	DB	00H, 'a', 00H, 't', 00H, 'e', 00H, ' ', 00H, 's', 00H, 'y', 00H
	DB	'm', 00H, 'b', 00H, 'o', 00H, 'l', 00H, ' ', 00H, ' ', 00H, '%'
	DB	00H, 's', 00H, ' ', 00H, 'i', 00H, 'n', 00H, ' ', 00H, 'O', 00H
	DB	'p', 00H, 'e', 00H, 'n', 00H, 'G', 00H, 'L', 00H, '3', 00H, '2'
	DB	00H, '.', 00H, 'd', 00H, 'l', 00H, 'l', 00H, 00H, 00H
	ORG $+2
$SG324921 DB	'glPolygonStipple', 00H
	ORG $+3
$SG318776 DB	'[', 00H, ' ', 00H, 'O', 00H, 'p', 00H, 'e', 00H, 'n', 00H
	DB	'G', 00H, 'L', 00H, '3', 00H, '2', 00H, ' ', 00H, ']', 00H, ' '
	DB	00H, 'U', 00H, 'n', 00H, 'a', 00H, 'b', 00H, 'l', 00H, 'e', 00H
	DB	' ', 00H, 't', 00H, 'o', 00H, ' ', 00H, 'l', 00H, 'o', 00H, 'c'
	DB	00H, 'a', 00H, 't', 00H, 'e', 00H, ' ', 00H, 's', 00H, 'y', 00H
	DB	'm', 00H, 'b', 00H, 'o', 00H, 'l', 00H, ' ', 00H, ' ', 00H, '%'
	DB	00H, 's', 00H, ' ', 00H, 'i', 00H, 'n', 00H, ' ', 00H, 'O', 00H
	DB	'p', 00H, 'e', 00H, 'n', 00H, 'G', 00H, 'L', 00H, '3', 00H, '2'
	DB	00H, '.', 00H, 'd', 00H, 'l', 00H, 'l', 00H, 00H, 00H
	ORG $+2
$SG324922 DB	'glPopAttrib', 00H
$SG324923 DB	'glPopClientAttrib', 00H
	ORG $+2
$SG324924 DB	'glPopMatrix', 00H
$SG324925 DB	'glPopName', 00H
	ORG $+2
$SG320829 DB	'glPixelStoref', 00H
	ORG $+2
$SG324926 DB	'glPrioritizeTextures', 00H
	ORG $+3
$SG324927 DB	'glPushAttrib', 00H
	ORG $+3
$SG322879 DB	'glVertex2sv', 00H
$SG321855 DB	'glTexCoord1d', 00H
	ORG $+3
$SG324928 DB	'glPushClientAttrib', 00H
	ORG $+1
$SG324929 DB	'glPushMatrix', 00H
	ORG $+3
$SG320833 DB	'g', 00H, 'l', 00H, 'P', 00H, 'i', 00H, 'x', 00H, 'e', 00H
	DB	'l', 00H, 'S', 00H, 't', 00H, 'o', 00H, 'r', 00H, 'e', 00H, 'f'
	DB	00H, 00H, 00H
$SG319809 DB	'glIndexfv', 00H
	ORG $+2
$SG318785 DB	'glEdgeFlagv', 00H
$SG324930 DB	'glPushName', 00H
	ORG $+1
$SG322883 DB	'g', 00H, 'l', 00H, 'V', 00H, 'e', 00H, 'r', 00H, 't', 00H
	DB	'e', 00H, 'x', 00H, '2', 00H, 's', 00H, 'v', 00H, 00H, 00H
$SG321859 DB	'g', 00H, 'l', 00H, 'T', 00H, 'e', 00H, 'x', 00H, 'C', 00H
	DB	'o', 00H, 'o', 00H, 'r', 00H, 'd', 00H, '1', 00H, 'd', 00H, 00H
	DB	00H
	ORG $+2
$SG320834 DB	'[', 00H, ' ', 00H, 'O', 00H, 'p', 00H, 'e', 00H, 'n', 00H
	DB	'G', 00H, 'L', 00H, '3', 00H, '2', 00H, ' ', 00H, ']', 00H, ' '
	DB	00H, 'U', 00H, 'n', 00H, 'a', 00H, 'b', 00H, 'l', 00H, 'e', 00H
	DB	' ', 00H, 't', 00H, 'o', 00H, ' ', 00H, 'l', 00H, 'o', 00H, 'c'
	DB	00H, 'a', 00H, 't', 00H, 'e', 00H, ' ', 00H, 's', 00H, 'y', 00H
	DB	'm', 00H, 'b', 00H, 'o', 00H, 'l', 00H, ' ', 00H, ' ', 00H, '%'
	DB	00H, 's', 00H, ' ', 00H, 'i', 00H, 'n', 00H, ' ', 00H, 'O', 00H
	DB	'p', 00H, 'e', 00H, 'n', 00H, 'G', 00H, 'L', 00H, '3', 00H, '2'
	DB	00H, '.', 00H, 'd', 00H, 'l', 00H, 'l', 00H, 00H, 00H
	ORG $+2
$SG324931 DB	'glRasterPos2d', 00H
	ORG $+2
$SG317763 DB	'glClearColor', 00H
	ORG $+3
$SG324932 DB	'glRasterPos2dv', 00H
	ORG $+1
$SG319813 DB	'g', 00H, 'l', 00H, 'I', 00H, 'n', 00H, 'd', 00H, 'e', 00H
	DB	'x', 00H, 'f', 00H, 'v', 00H, 00H, 00H
$SG322884 DB	'[', 00H, ' ', 00H, 'O', 00H, 'p', 00H, 'e', 00H, 'n', 00H
	DB	'G', 00H, 'L', 00H, '3', 00H, '2', 00H, ' ', 00H, ']', 00H, ' '
	DB	00H, 'U', 00H, 'n', 00H, 'a', 00H, 'b', 00H, 'l', 00H, 'e', 00H
	DB	' ', 00H, 't', 00H, 'o', 00H, ' ', 00H, 'l', 00H, 'o', 00H, 'c'
	DB	00H, 'a', 00H, 't', 00H, 'e', 00H, ' ', 00H, 's', 00H, 'y', 00H
	DB	'm', 00H, 'b', 00H, 'o', 00H, 'l', 00H, ' ', 00H, ' ', 00H, '%'
	DB	00H, 's', 00H, ' ', 00H, 'i', 00H, 'n', 00H, ' ', 00H, 'O', 00H
	DB	'p', 00H, 'e', 00H, 'n', 00H, 'G', 00H, 'L', 00H, '3', 00H, '2'
	DB	00H, '.', 00H, 'd', 00H, 'l', 00H, 'l', 00H, 00H, 00H
	ORG $+2
$SG318789 DB	'g', 00H, 'l', 00H, 'E', 00H, 'd', 00H, 'g', 00H, 'e', 00H
	DB	'F', 00H, 'l', 00H, 'a', 00H, 'g', 00H, 'v', 00H, 00H, 00H
$SG317767 DB	'g', 00H, 'l', 00H, 'C', 00H, 'l', 00H, 'e', 00H, 'a', 00H
	DB	'r', 00H, 'C', 00H, 'o', 00H, 'l', 00H, 'o', 00H, 'r', 00H, 00H
	DB	00H
	ORG $+2
$SG321860 DB	'[', 00H, ' ', 00H, 'O', 00H, 'p', 00H, 'e', 00H, 'n', 00H
	DB	'G', 00H, 'L', 00H, '3', 00H, '2', 00H, ' ', 00H, ']', 00H, ' '
	DB	00H, 'U', 00H, 'n', 00H, 'a', 00H, 'b', 00H, 'l', 00H, 'e', 00H
	DB	' ', 00H, 't', 00H, 'o', 00H, ' ', 00H, 'l', 00H, 'o', 00H, 'c'
	DB	00H, 'a', 00H, 't', 00H, 'e', 00H, ' ', 00H, 's', 00H, 'y', 00H
	DB	'm', 00H, 'b', 00H, 'o', 00H, 'l', 00H, ' ', 00H, ' ', 00H, '%'
	DB	00H, 's', 00H, ' ', 00H, 'i', 00H, 'n', 00H, ' ', 00H, 'O', 00H
	DB	'p', 00H, 'e', 00H, 'n', 00H, 'G', 00H, 'L', 00H, '3', 00H, '2'
	DB	00H, '.', 00H, 'd', 00H, 'l', 00H, 'l', 00H, 00H, 00H
	ORG $+2
$SG324933 DB	'glRasterPos2f', 00H
	ORG $+2
$SG324934 DB	'glRasterPos2fv', 00H
	ORG $+1
$SG319823 DB	'glIndexi', 00H
	ORG $+3
$SG319814 DB	'[', 00H, ' ', 00H, 'O', 00H, 'p', 00H, 'e', 00H, 'n', 00H
	DB	'G', 00H, 'L', 00H, '3', 00H, '2', 00H, ' ', 00H, ']', 00H, ' '
	DB	00H, 'U', 00H, 'n', 00H, 'a', 00H, 'b', 00H, 'l', 00H, 'e', 00H
	DB	' ', 00H, 't', 00H, 'o', 00H, ' ', 00H, 'l', 00H, 'o', 00H, 'c'
	DB	00H, 'a', 00H, 't', 00H, 'e', 00H, ' ', 00H, 's', 00H, 'y', 00H
	DB	'm', 00H, 'b', 00H, 'o', 00H, 'l', 00H, ' ', 00H, ' ', 00H, '%'
	DB	00H, 's', 00H, ' ', 00H, 'i', 00H, 'n', 00H, ' ', 00H, 'O', 00H
	DB	'p', 00H, 'e', 00H, 'n', 00H, 'G', 00H, 'L', 00H, '3', 00H, '2'
	DB	00H, '.', 00H, 'd', 00H, 'l', 00H, 'l', 00H, 00H, 00H
	ORG $+2
$SG324936 DB	'glRasterPos2iv', 00H
	ORG $+1
$SG318799 DB	'glEnable', 00H
	ORG $+3
$SG318790 DB	'[', 00H, ' ', 00H, 'O', 00H, 'p', 00H, 'e', 00H, 'n', 00H
	DB	'G', 00H, 'L', 00H, '3', 00H, '2', 00H, ' ', 00H, ']', 00H, ' '
	DB	00H, 'U', 00H, 'n', 00H, 'a', 00H, 'b', 00H, 'l', 00H, 'e', 00H
	DB	' ', 00H, 't', 00H, 'o', 00H, ' ', 00H, 'l', 00H, 'o', 00H, 'c'
	DB	00H, 'a', 00H, 't', 00H, 'e', 00H, ' ', 00H, 's', 00H, 'y', 00H
	DB	'm', 00H, 'b', 00H, 'o', 00H, 'l', 00H, ' ', 00H, ' ', 00H, '%'
	DB	00H, 's', 00H, ' ', 00H, 'i', 00H, 'n', 00H, ' ', 00H, 'O', 00H
	DB	'p', 00H, 'e', 00H, 'n', 00H, 'G', 00H, 'L', 00H, '3', 00H, '2'
	DB	00H, '.', 00H, 'd', 00H, 'l', 00H, 'l', 00H, 00H, 00H
	ORG $+2
$SG324935 DB	'glRasterPos2i', 00H
	ORG $+2
$SG324938 DB	'glRasterPos2sv', 00H
	ORG $+1
$SG322897 DB	'glVertex3d', 00H
	ORG $+1
$SG317768 DB	'[', 00H, ' ', 00H, 'O', 00H, 'p', 00H, 'e', 00H, 'n', 00H
	DB	'G', 00H, 'L', 00H, '3', 00H, '2', 00H, ' ', 00H, ']', 00H, ' '
	DB	00H, 'U', 00H, 'n', 00H, 'a', 00H, 'b', 00H, 'l', 00H, 'e', 00H
	DB	' ', 00H, 't', 00H, 'o', 00H, ' ', 00H, 'l', 00H, 'o', 00H, 'c'
	DB	00H, 'a', 00H, 't', 00H, 'e', 00H, ' ', 00H, 's', 00H, 'y', 00H
	DB	'm', 00H, 'b', 00H, 'o', 00H, 'l', 00H, ' ', 00H, ' ', 00H, '%'
	DB	00H, 's', 00H, ' ', 00H, 'i', 00H, 'n', 00H, ' ', 00H, 'O', 00H
	DB	'p', 00H, 'e', 00H, 'n', 00H, 'G', 00H, 'L', 00H, '3', 00H, '2'
	DB	00H, '.', 00H, 'd', 00H, 'l', 00H, 'l', 00H, 00H, 00H
	ORG $+2
$SG324937 DB	'glRasterPos2s', 00H
	ORG $+2
$SG324939 DB	'glRasterPos3d', 00H
	ORG $+2
$SG324940 DB	'glRasterPos3dv', 00H
	ORG $+1
$SG324941 DB	'glRasterPos3f', 00H
	ORG $+2
$SG321869 DB	'glTexCoord1dv', 00H
	ORG $+2
$SG320845 DB	'glPixelStorei', 00H
	ORG $+2
$SG324942 DB	'glRasterPos3fv', 00H
	ORG $+1
$SG324943 DB	'glRasterPos3i', 00H
	ORG $+2
$SG324944 DB	'glRasterPos3iv', 00H
	ORG $+1
$SG324945 DB	'glRasterPos3s', 00H
	ORG $+2
$SG321873 DB	'g', 00H, 'l', 00H, 'T', 00H, 'e', 00H, 'x', 00H, 'C', 00H
	DB	'o', 00H, 'o', 00H, 'r', 00H, 'd', 00H, '1', 00H, 'd', 00H, 'v'
	DB	00H, 00H, 00H
$SG320849 DB	'g', 00H, 'l', 00H, 'P', 00H, 'i', 00H, 'x', 00H, 'e', 00H
	DB	'l', 00H, 'S', 00H, 't', 00H, 'o', 00H, 'r', 00H, 'e', 00H, 'i'
	DB	00H, 00H, 00H
$SG317777 DB	'glClearDepth', 00H
	ORG $+3
$SG324946 DB	'glRasterPos3sv', 00H
	ORG $+1
$SG319827 DB	'g', 00H, 'l', 00H, 'I', 00H, 'n', 00H, 'd', 00H, 'e', 00H
	DB	'x', 00H, 'i', 00H, 00H, 00H
	ORG $+2
$SG321874 DB	'[', 00H, ' ', 00H, 'O', 00H, 'p', 00H, 'e', 00H, 'n', 00H
	DB	'G', 00H, 'L', 00H, '3', 00H, '2', 00H, ' ', 00H, ']', 00H, ' '
	DB	00H, 'U', 00H, 'n', 00H, 'a', 00H, 'b', 00H, 'l', 00H, 'e', 00H
	DB	' ', 00H, 't', 00H, 'o', 00H, ' ', 00H, 'l', 00H, 'o', 00H, 'c'
	DB	00H, 'a', 00H, 't', 00H, 'e', 00H, ' ', 00H, 's', 00H, 'y', 00H
	DB	'm', 00H, 'b', 00H, 'o', 00H, 'l', 00H, ' ', 00H, ' ', 00H, '%'
	DB	00H, 's', 00H, ' ', 00H, 'i', 00H, 'n', 00H, ' ', 00H, 'O', 00H
	DB	'p', 00H, 'e', 00H, 'n', 00H, 'G', 00H, 'L', 00H, '3', 00H, '2'
	DB	00H, '.', 00H, 'd', 00H, 'l', 00H, 'l', 00H, 00H, 00H
	ORG $+2
$SG318803 DB	'g', 00H, 'l', 00H, 'E', 00H, 'n', 00H, 'a', 00H, 'b', 00H
	DB	'l', 00H, 'e', 00H, 00H, 00H
	ORG $+2
$SG320850 DB	'[', 00H, ' ', 00H, 'O', 00H, 'p', 00H, 'e', 00H, 'n', 00H
	DB	'G', 00H, 'L', 00H, '3', 00H, '2', 00H, ' ', 00H, ']', 00H, ' '
	DB	00H, 'U', 00H, 'n', 00H, 'a', 00H, 'b', 00H, 'l', 00H, 'e', 00H
	DB	' ', 00H, 't', 00H, 'o', 00H, ' ', 00H, 'l', 00H, 'o', 00H, 'c'
	DB	00H, 'a', 00H, 't', 00H, 'e', 00H, ' ', 00H, 's', 00H, 'y', 00H
	DB	'm', 00H, 'b', 00H, 'o', 00H, 'l', 00H, ' ', 00H, ' ', 00H, '%'
	DB	00H, 's', 00H, ' ', 00H, 'i', 00H, 'n', 00H, ' ', 00H, 'O', 00H
	DB	'p', 00H, 'e', 00H, 'n', 00H, 'G', 00H, 'L', 00H, '3', 00H, '2'
	DB	00H, '.', 00H, 'd', 00H, 'l', 00H, 'l', 00H, 00H, 00H
	ORG $+2
$SG324947 DB	'glRasterPos4d', 00H
	ORG $+2
$SG324948 DB	'glRasterPos4dv', 00H
	ORG $+1
$SG317781 DB	'g', 00H, 'l', 00H, 'C', 00H, 'l', 00H, 'e', 00H, 'a', 00H
	DB	'r', 00H, 'D', 00H, 'e', 00H, 'p', 00H, 't', 00H, 'h', 00H, 00H
	DB	00H
	ORG $+2
$SG319828 DB	'[', 00H, ' ', 00H, 'O', 00H, 'p', 00H, 'e', 00H, 'n', 00H
	DB	'G', 00H, 'L', 00H, '3', 00H, '2', 00H, ' ', 00H, ']', 00H, ' '
	DB	00H, 'U', 00H, 'n', 00H, 'a', 00H, 'b', 00H, 'l', 00H, 'e', 00H
	DB	' ', 00H, 't', 00H, 'o', 00H, ' ', 00H, 'l', 00H, 'o', 00H, 'c'
	DB	00H, 'a', 00H, 't', 00H, 'e', 00H, ' ', 00H, 's', 00H, 'y', 00H
	DB	'm', 00H, 'b', 00H, 'o', 00H, 'l', 00H, ' ', 00H, ' ', 00H, '%'
	DB	00H, 's', 00H, ' ', 00H, 'i', 00H, 'n', 00H, ' ', 00H, 'O', 00H
	DB	'p', 00H, 'e', 00H, 'n', 00H, 'G', 00H, 'L', 00H, '3', 00H, '2'
	DB	00H, '.', 00H, 'd', 00H, 'l', 00H, 'l', 00H, 00H, 00H
	ORG $+2
$SG324950 DB	'glRasterPos4fv', 00H
	ORG $+1
$SG324957 DB	'glRectd', 00H
$SG320861 DB	'glPixelTransferf', 00H
	ORG $+3
$SG318804 DB	'[', 00H, ' ', 00H, 'O', 00H, 'p', 00H, 'e', 00H, 'n', 00H
	DB	'G', 00H, 'L', 00H, '3', 00H, '2', 00H, ' ', 00H, ']', 00H, ' '
	DB	00H, 'U', 00H, 'n', 00H, 'a', 00H, 'b', 00H, 'l', 00H, 'e', 00H
	DB	' ', 00H, 't', 00H, 'o', 00H, ' ', 00H, 'l', 00H, 'o', 00H, 'c'
	DB	00H, 'a', 00H, 't', 00H, 'e', 00H, ' ', 00H, 's', 00H, 'y', 00H
	DB	'm', 00H, 'b', 00H, 'o', 00H, 'l', 00H, ' ', 00H, ' ', 00H, '%'
	DB	00H, 's', 00H, ' ', 00H, 'i', 00H, 'n', 00H, ' ', 00H, 'O', 00H
	DB	'p', 00H, 'e', 00H, 'n', 00H, 'G', 00H, 'L', 00H, '3', 00H, '2'
	DB	00H, '.', 00H, 'd', 00H, 'l', 00H, 'l', 00H, 00H, 00H
	ORG $+2
$SG324949 DB	'glRasterPos4f', 00H
	ORG $+2
$SG322901 DB	'g', 00H, 'l', 00H, 'V', 00H, 'e', 00H, 'r', 00H, 't', 00H
	DB	'e', 00H, 'x', 00H, '3', 00H, 'd', 00H, 00H, 00H
	ORG $+2
$SG324952 DB	'glRasterPos4iv', 00H
	ORG $+1
$SG319837 DB	'glIndexiv', 00H
	ORG $+2
$SG322902 DB	'[', 00H, ' ', 00H, 'O', 00H, 'p', 00H, 'e', 00H, 'n', 00H
	DB	'G', 00H, 'L', 00H, '3', 00H, '2', 00H, ' ', 00H, ']', 00H, ' '
	DB	00H, 'U', 00H, 'n', 00H, 'a', 00H, 'b', 00H, 'l', 00H, 'e', 00H
	DB	' ', 00H, 't', 00H, 'o', 00H, ' ', 00H, 'l', 00H, 'o', 00H, 'c'
	DB	00H, 'a', 00H, 't', 00H, 'e', 00H, ' ', 00H, 's', 00H, 'y', 00H
	DB	'm', 00H, 'b', 00H, 'o', 00H, 'l', 00H, ' ', 00H, ' ', 00H, '%'
	DB	00H, 's', 00H, ' ', 00H, 'i', 00H, 'n', 00H, ' ', 00H, 'O', 00H
	DB	'p', 00H, 'e', 00H, 'n', 00H, 'G', 00H, 'L', 00H, '3', 00H, '2'
	DB	00H, '.', 00H, 'd', 00H, 'l', 00H, 'l', 00H, 00H, 00H
	ORG $+2
$SG324954 DB	'glRasterPos4sv', 00H
	ORG $+1
$SG318813 DB	'glEnableClientState', 00H
$SG317782 DB	'[', 00H, ' ', 00H, 'O', 00H, 'p', 00H, 'e', 00H, 'n', 00H
	DB	'G', 00H, 'L', 00H, '3', 00H, '2', 00H, ' ', 00H, ']', 00H, ' '
	DB	00H, 'U', 00H, 'n', 00H, 'a', 00H, 'b', 00H, 'l', 00H, 'e', 00H
	DB	' ', 00H, 't', 00H, 'o', 00H, ' ', 00H, 'l', 00H, 'o', 00H, 'c'
	DB	00H, 'a', 00H, 't', 00H, 'e', 00H, ' ', 00H, 's', 00H, 'y', 00H
	DB	'm', 00H, 'b', 00H, 'o', 00H, 'l', 00H, ' ', 00H, ' ', 00H, '%'
	DB	00H, 's', 00H, ' ', 00H, 'i', 00H, 'n', 00H, ' ', 00H, 'O', 00H
	DB	'p', 00H, 'e', 00H, 'n', 00H, 'G', 00H, 'L', 00H, '3', 00H, '2'
	DB	00H, '.', 00H, 'd', 00H, 'l', 00H, 'l', 00H, 00H, 00H
	ORG $+2
$SG324951 DB	'glRasterPos4i', 00H
	ORG $+2
$SG324953 DB	'glRasterPos4s', 00H
	ORG $+2
$SG324955 DB	'glReadBuffer', 00H
	ORG $+3
$SG321883 DB	'glTexCoord1f', 00H
	ORG $+3
$SG324956 DB	'glReadPixels', 00H
	ORG $+3
$SG324958 DB	'glRectdv', 00H
	ORG $+3
$SG324959 DB	'glRectf', 00H
$SG322911 DB	'glVertex3dv', 00H
$SG321887 DB	'g', 00H, 'l', 00H, 'T', 00H, 'e', 00H, 'x', 00H, 'C', 00H
	DB	'o', 00H, 'o', 00H, 'r', 00H, 'd', 00H, '1', 00H, 'f', 00H, 00H
	DB	00H
	ORG $+2
$SG317791 DB	'glClearIndex', 00H
	ORG $+3
$SG324960 DB	'glRectfv', 00H
	ORG $+3
$SG324961 DB	'glRecti', 00H
$SG320865 DB	'g', 00H, 'l', 00H, 'P', 00H, 'i', 00H, 'x', 00H, 'e', 00H
	DB	'l', 00H, 'T', 00H, 'r', 00H, 'a', 00H, 'n', 00H, 's', 00H, 'f'
	DB	00H, 'e', 00H, 'r', 00H, 'f', 00H, 00H, 00H
	ORG $+2
$SG321888 DB	'[', 00H, ' ', 00H, 'O', 00H, 'p', 00H, 'e', 00H, 'n', 00H
	DB	'G', 00H, 'L', 00H, '3', 00H, '2', 00H, ' ', 00H, ']', 00H, ' '
	DB	00H, 'U', 00H, 'n', 00H, 'a', 00H, 'b', 00H, 'l', 00H, 'e', 00H
	DB	' ', 00H, 't', 00H, 'o', 00H, ' ', 00H, 'l', 00H, 'o', 00H, 'c'
	DB	00H, 'a', 00H, 't', 00H, 'e', 00H, ' ', 00H, 's', 00H, 'y', 00H
	DB	'm', 00H, 'b', 00H, 'o', 00H, 'l', 00H, ' ', 00H, ' ', 00H, '%'
	DB	00H, 's', 00H, ' ', 00H, 'i', 00H, 'n', 00H, ' ', 00H, 'O', 00H
	DB	'p', 00H, 'e', 00H, 'n', 00H, 'G', 00H, 'L', 00H, '3', 00H, '2'
	DB	00H, '.', 00H, 'd', 00H, 'l', 00H, 'l', 00H, 00H, 00H
	ORG $+2
$SG319841 DB	'g', 00H, 'l', 00H, 'I', 00H, 'n', 00H, 'd', 00H, 'e', 00H
	DB	'x', 00H, 'i', 00H, 'v', 00H, 00H, 00H
$SG318817 DB	'g', 00H, 'l', 00H, 'E', 00H, 'n', 00H, 'a', 00H, 'b', 00H
	DB	'l', 00H, 'e', 00H, 'C', 00H, 'l', 00H, 'i', 00H, 'e', 00H, 'n'
	DB	00H, 't', 00H, 'S', 00H, 't', 00H, 'a', 00H, 't', 00H, 'e', 00H
	DB	00H, 00H
$SG324962 DB	'glRectiv', 00H
	ORG $+3
$SG324963 DB	'glRects', 00H
$SG317795 DB	'g', 00H, 'l', 00H, 'C', 00H, 'l', 00H, 'e', 00H, 'a', 00H
	DB	'r', 00H, 'I', 00H, 'n', 00H, 'd', 00H, 'e', 00H, 'x', 00H, 00H
	DB	00H
	ORG $+2
$SG320866 DB	'[', 00H, ' ', 00H, 'O', 00H, 'p', 00H, 'e', 00H, 'n', 00H
	DB	'G', 00H, 'L', 00H, '3', 00H, '2', 00H, ' ', 00H, ']', 00H, ' '
	DB	00H, 'U', 00H, 'n', 00H, 'a', 00H, 'b', 00H, 'l', 00H, 'e', 00H
	DB	' ', 00H, 't', 00H, 'o', 00H, ' ', 00H, 'l', 00H, 'o', 00H, 'c'
	DB	00H, 'a', 00H, 't', 00H, 'e', 00H, ' ', 00H, 's', 00H, 'y', 00H
	DB	'm', 00H, 'b', 00H, 'o', 00H, 'l', 00H, ' ', 00H, ' ', 00H, '%'
	DB	00H, 's', 00H, ' ', 00H, 'i', 00H, 'n', 00H, ' ', 00H, 'O', 00H
	DB	'p', 00H, 'e', 00H, 'n', 00H, 'G', 00H, 'L', 00H, '3', 00H, '2'
	DB	00H, '.', 00H, 'd', 00H, 'l', 00H, 'l', 00H, 00H, 00H
	ORG $+2
$SG322915 DB	'g', 00H, 'l', 00H, 'V', 00H, 'e', 00H, 'r', 00H, 't', 00H
	DB	'e', 00H, 'x', 00H, '3', 00H, 'd', 00H, 'v', 00H, 00H, 00H
$SG324964 DB	'glRectsv', 00H
	ORG $+3
$SG319842 DB	'[', 00H, ' ', 00H, 'O', 00H, 'p', 00H, 'e', 00H, 'n', 00H
	DB	'G', 00H, 'L', 00H, '3', 00H, '2', 00H, ' ', 00H, ']', 00H, ' '
	DB	00H, 'U', 00H, 'n', 00H, 'a', 00H, 'b', 00H, 'l', 00H, 'e', 00H
	DB	' ', 00H, 't', 00H, 'o', 00H, ' ', 00H, 'l', 00H, 'o', 00H, 'c'
	DB	00H, 'a', 00H, 't', 00H, 'e', 00H, ' ', 00H, 's', 00H, 'y', 00H
	DB	'm', 00H, 'b', 00H, 'o', 00H, 'l', 00H, ' ', 00H, ' ', 00H, '%'
	DB	00H, 's', 00H, ' ', 00H, 'i', 00H, 'n', 00H, ' ', 00H, 'O', 00H
	DB	'p', 00H, 'e', 00H, 'n', 00H, 'G', 00H, 'L', 00H, '3', 00H, '2'
	DB	00H, '.', 00H, 'd', 00H, 'l', 00H, 'l', 00H, 00H, 00H
	ORG $+2
$SG324966 DB	'glRotated', 00H
	ORG $+2
$SG318818 DB	'[', 00H, ' ', 00H, 'O', 00H, 'p', 00H, 'e', 00H, 'n', 00H
	DB	'G', 00H, 'L', 00H, '3', 00H, '2', 00H, ' ', 00H, ']', 00H, ' '
	DB	00H, 'U', 00H, 'n', 00H, 'a', 00H, 'b', 00H, 'l', 00H, 'e', 00H
	DB	' ', 00H, 't', 00H, 'o', 00H, ' ', 00H, 'l', 00H, 'o', 00H, 'c'
	DB	00H, 'a', 00H, 't', 00H, 'e', 00H, ' ', 00H, 's', 00H, 'y', 00H
	DB	'm', 00H, 'b', 00H, 'o', 00H, 'l', 00H, ' ', 00H, ' ', 00H, '%'
	DB	00H, 's', 00H, ' ', 00H, 'i', 00H, 'n', 00H, ' ', 00H, 'O', 00H
	DB	'p', 00H, 'e', 00H, 'n', 00H, 'G', 00H, 'L', 00H, '3', 00H, '2'
	DB	00H, '.', 00H, 'd', 00H, 'l', 00H, 'l', 00H, 00H, 00H
	ORG $+2
$SG324967 DB	'glRotatef', 00H
	ORG $+2
$SG322916 DB	'[', 00H, ' ', 00H, 'O', 00H, 'p', 00H, 'e', 00H, 'n', 00H
	DB	'G', 00H, 'L', 00H, '3', 00H, '2', 00H, ' ', 00H, ']', 00H, ' '
	DB	00H, 'U', 00H, 'n', 00H, 'a', 00H, 'b', 00H, 'l', 00H, 'e', 00H
	DB	' ', 00H, 't', 00H, 'o', 00H, ' ', 00H, 'l', 00H, 'o', 00H, 'c'
	DB	00H, 'a', 00H, 't', 00H, 'e', 00H, ' ', 00H, 's', 00H, 'y', 00H
	DB	'm', 00H, 'b', 00H, 'o', 00H, 'l', 00H, ' ', 00H, ' ', 00H, '%'
	DB	00H, 's', 00H, ' ', 00H, 'i', 00H, 'n', 00H, ' ', 00H, 'O', 00H
	DB	'p', 00H, 'e', 00H, 'n', 00H, 'G', 00H, 'L', 00H, '3', 00H, '2'
	DB	00H, '.', 00H, 'd', 00H, 'l', 00H, 'l', 00H, 00H, 00H
	ORG $+2
$SG324968 DB	'glScaled', 00H
	ORG $+3
$SG317796 DB	'[', 00H, ' ', 00H, 'O', 00H, 'p', 00H, 'e', 00H, 'n', 00H
	DB	'G', 00H, 'L', 00H, '3', 00H, '2', 00H, ' ', 00H, ']', 00H, ' '
	DB	00H, 'U', 00H, 'n', 00H, 'a', 00H, 'b', 00H, 'l', 00H, 'e', 00H
	DB	' ', 00H, 't', 00H, 'o', 00H, ' ', 00H, 'l', 00H, 'o', 00H, 'c'
	DB	00H, 'a', 00H, 't', 00H, 'e', 00H, ' ', 00H, 's', 00H, 'y', 00H
	DB	'm', 00H, 'b', 00H, 'o', 00H, 'l', 00H, ' ', 00H, ' ', 00H, '%'
	DB	00H, 's', 00H, ' ', 00H, 'i', 00H, 'n', 00H, ' ', 00H, 'O', 00H
	DB	'p', 00H, 'e', 00H, 'n', 00H, 'G', 00H, 'L', 00H, '3', 00H, '2'
	DB	00H, '.', 00H, 'd', 00H, 'l', 00H, 'l', 00H, 00H, 00H
	ORG $+2
$SG324965 DB	'glRenderMode', 00H
	ORG $+3
$SG324969 DB	'glScalef', 00H
	ORG $+3
$SG321897 DB	'glTexCoord1fv', 00H
	ORG $+2
$SG324970 DB	'glScissor', 00H
	ORG $+2
$SG324971 DB	'glSelectBuffer', 00H
	ORG $+1
$SG319851 DB	'glIndexs', 00H
	ORG $+3
$SG318827 DB	'glEnd', 00H
	ORG $+2
$SG324972 DB	'glShadeModel', 00H
	ORG $+3
$SG324973 DB	'glStencilFunc', 00H
	ORG $+2
$SG321901 DB	'g', 00H, 'l', 00H, 'T', 00H, 'e', 00H, 'x', 00H, 'C', 00H
	DB	'o', 00H, 'o', 00H, 'r', 00H, 'd', 00H, '1', 00H, 'f', 00H, 'v'
	DB	00H, 00H, 00H
$SG320877 DB	'glPixelTransferi', 00H
	ORG $+3
$SG317805 DB	'glClearStencil', 00H
	ORG $+1
$SG324974 DB	'glStencilMask', 00H
	ORG $+2
$SG321902 DB	'[', 00H, ' ', 00H, 'O', 00H, 'p', 00H, 'e', 00H, 'n', 00H
	DB	'G', 00H, 'L', 00H, '3', 00H, '2', 00H, ' ', 00H, ']', 00H, ' '
	DB	00H, 'U', 00H, 'n', 00H, 'a', 00H, 'b', 00H, 'l', 00H, 'e', 00H
	DB	' ', 00H, 't', 00H, 'o', 00H, ' ', 00H, 'l', 00H, 'o', 00H, 'c'
	DB	00H, 'a', 00H, 't', 00H, 'e', 00H, ' ', 00H, 's', 00H, 'y', 00H
	DB	'm', 00H, 'b', 00H, 'o', 00H, 'l', 00H, ' ', 00H, ' ', 00H, '%'
	DB	00H, 's', 00H, ' ', 00H, 'i', 00H, 'n', 00H, ' ', 00H, 'O', 00H
	DB	'p', 00H, 'e', 00H, 'n', 00H, 'G', 00H, 'L', 00H, '3', 00H, '2'
	DB	00H, '.', 00H, 'd', 00H, 'l', 00H, 'l', 00H, 00H, 00H
	ORG $+2
$SG324975 DB	'glStencilOp', 00H
$SG319855 DB	'g', 00H, 'l', 00H, 'I', 00H, 'n', 00H, 'd', 00H, 'e', 00H
	DB	'x', 00H, 's', 00H, 00H, 00H
	ORG $+2
$SG318831 DB	'g', 00H, 'l', 00H, 'E', 00H, 'n', 00H, 'd', 00H, 00H, 00H
$SG324976 DB	'glTexCoord1d', 00H
	ORG $+3
$SG319856 DB	'[', 00H, ' ', 00H, 'O', 00H, 'p', 00H, 'e', 00H, 'n', 00H
	DB	'G', 00H, 'L', 00H, '3', 00H, '2', 00H, ' ', 00H, ']', 00H, ' '
	DB	00H, 'U', 00H, 'n', 00H, 'a', 00H, 'b', 00H, 'l', 00H, 'e', 00H
	DB	' ', 00H, 't', 00H, 'o', 00H, ' ', 00H, 'l', 00H, 'o', 00H, 'c'
	DB	00H, 'a', 00H, 't', 00H, 'e', 00H, ' ', 00H, 's', 00H, 'y', 00H
	DB	'm', 00H, 'b', 00H, 'o', 00H, 'l', 00H, ' ', 00H, ' ', 00H, '%'
	DB	00H, 's', 00H, ' ', 00H, 'i', 00H, 'n', 00H, ' ', 00H, 'O', 00H
	DB	'p', 00H, 'e', 00H, 'n', 00H, 'G', 00H, 'L', 00H, '3', 00H, '2'
	DB	00H, '.', 00H, 'd', 00H, 'l', 00H, 'l', 00H, 00H, 00H
	ORG $+2
$SG322929 DB	'glVertex3f', 00H
	ORG $+1
$SG318832 DB	'[', 00H, ' ', 00H, 'O', 00H, 'p', 00H, 'e', 00H, 'n', 00H
	DB	'G', 00H, 'L', 00H, '3', 00H, '2', 00H, ' ', 00H, ']', 00H, ' '
	DB	00H, 'U', 00H, 'n', 00H, 'a', 00H, 'b', 00H, 'l', 00H, 'e', 00H
	DB	' ', 00H, 't', 00H, 'o', 00H, ' ', 00H, 'l', 00H, 'o', 00H, 'c'
	DB	00H, 'a', 00H, 't', 00H, 'e', 00H, ' ', 00H, 's', 00H, 'y', 00H
	DB	'm', 00H, 'b', 00H, 'o', 00H, 'l', 00H, ' ', 00H, ' ', 00H, '%'
	DB	00H, 's', 00H, ' ', 00H, 'i', 00H, 'n', 00H, ' ', 00H, 'O', 00H
	DB	'p', 00H, 'e', 00H, 'n', 00H, 'G', 00H, 'L', 00H, '3', 00H, '2'
	DB	00H, '.', 00H, 'd', 00H, 'l', 00H, 'l', 00H, 00H, 00H
	ORG $+2
$SG324977 DB	'glTexCoord1dv', 00H
	ORG $+2
$SG320881 DB	'g', 00H, 'l', 00H, 'P', 00H, 'i', 00H, 'x', 00H, 'e', 00H
	DB	'l', 00H, 'T', 00H, 'r', 00H, 'a', 00H, 'n', 00H, 's', 00H, 'f'
	DB	00H, 'e', 00H, 'r', 00H, 'i', 00H, 00H, 00H
	ORG $+2
$SG317809 DB	'g', 00H, 'l', 00H, 'C', 00H, 'l', 00H, 'e', 00H, 'a', 00H
	DB	'r', 00H, 'S', 00H, 't', 00H, 'e', 00H, 'n', 00H, 'c', 00H, 'i'
	DB	00H, 'l', 00H, 00H, 00H
	ORG $+2
$SG324978 DB	'glTexCoord1f', 00H
	ORG $+3
$SG320882 DB	'[', 00H, ' ', 00H, 'O', 00H, 'p', 00H, 'e', 00H, 'n', 00H
	DB	'G', 00H, 'L', 00H, '3', 00H, '2', 00H, ' ', 00H, ']', 00H, ' '
	DB	00H, 'U', 00H, 'n', 00H, 'a', 00H, 'b', 00H, 'l', 00H, 'e', 00H
	DB	' ', 00H, 't', 00H, 'o', 00H, ' ', 00H, 'l', 00H, 'o', 00H, 'c'
	DB	00H, 'a', 00H, 't', 00H, 'e', 00H, ' ', 00H, 's', 00H, 'y', 00H
	DB	'm', 00H, 'b', 00H, 'o', 00H, 'l', 00H, ' ', 00H, ' ', 00H, '%'
	DB	00H, 's', 00H, ' ', 00H, 'i', 00H, 'n', 00H, ' ', 00H, 'O', 00H
	DB	'p', 00H, 'e', 00H, 'n', 00H, 'G', 00H, 'L', 00H, '3', 00H, '2'
	DB	00H, '.', 00H, 'd', 00H, 'l', 00H, 'l', 00H, 00H, 00H
	ORG $+2
$SG319865 DB	'glIndexsv', 00H
	ORG $+2
$SG317810 DB	'[', 00H, ' ', 00H, 'O', 00H, 'p', 00H, 'e', 00H, 'n', 00H
	DB	'G', 00H, 'L', 00H, '3', 00H, '2', 00H, ' ', 00H, ']', 00H, ' '
	DB	00H, 'U', 00H, 'n', 00H, 'a', 00H, 'b', 00H, 'l', 00H, 'e', 00H
	DB	' ', 00H, 't', 00H, 'o', 00H, ' ', 00H, 'l', 00H, 'o', 00H, 'c'
	DB	00H, 'a', 00H, 't', 00H, 'e', 00H, ' ', 00H, 's', 00H, 'y', 00H
	DB	'm', 00H, 'b', 00H, 'o', 00H, 'l', 00H, ' ', 00H, ' ', 00H, '%'
	DB	00H, 's', 00H, ' ', 00H, 'i', 00H, 'n', 00H, ' ', 00H, 'O', 00H
	DB	'p', 00H, 'e', 00H, 'n', 00H, 'G', 00H, 'L', 00H, '3', 00H, '2'
	DB	00H, '.', 00H, 'd', 00H, 'l', 00H, 'l', 00H, 00H, 00H
	ORG $+2
$SG324979 DB	'glTexCoord1fv', 00H
	ORG $+2
$SG324980 DB	'glTexCoord1i', 00H
	ORG $+3
$SG324981 DB	'glTexCoord1iv', 00H
	ORG $+2
$SG322933 DB	'g', 00H, 'l', 00H, 'V', 00H, 'e', 00H, 'r', 00H, 't', 00H
	DB	'e', 00H, 'x', 00H, '3', 00H, 'f', 00H, 00H, 00H
	ORG $+2
$SG324982 DB	'glTexCoord1s', 00H
	ORG $+3
$SG324983 DB	'glTexCoord1sv', 00H
	ORG $+2
$SG318841 DB	'glEndList', 00H
	ORG $+2
$SG322934 DB	'[', 00H, ' ', 00H, 'O', 00H, 'p', 00H, 'e', 00H, 'n', 00H
	DB	'G', 00H, 'L', 00H, '3', 00H, '2', 00H, ' ', 00H, ']', 00H, ' '
	DB	00H, 'U', 00H, 'n', 00H, 'a', 00H, 'b', 00H, 'l', 00H, 'e', 00H
	DB	' ', 00H, 't', 00H, 'o', 00H, ' ', 00H, 'l', 00H, 'o', 00H, 'c'
	DB	00H, 'a', 00H, 't', 00H, 'e', 00H, ' ', 00H, 's', 00H, 'y', 00H
	DB	'm', 00H, 'b', 00H, 'o', 00H, 'l', 00H, ' ', 00H, ' ', 00H, '%'
	DB	00H, 's', 00H, ' ', 00H, 'i', 00H, 'n', 00H, ' ', 00H, 'O', 00H
	DB	'p', 00H, 'e', 00H, 'n', 00H, 'G', 00H, 'L', 00H, '3', 00H, '2'
	DB	00H, '.', 00H, 'd', 00H, 'l', 00H, 'l', 00H, 00H, 00H
	ORG $+2
$SG321911 DB	'glTexCoord1i', 00H
	ORG $+3
$SG324984 DB	'glTexCoord2d', 00H
	ORG $+3
$SG324985 DB	'glTexCoord2dv', 00H
	ORG $+2
$SG324986 DB	'glTexCoord2f', 00H
	ORG $+3
$SG324987 DB	'glTexCoord2fv', 00H
	ORG $+2
$SG321915 DB	'g', 00H, 'l', 00H, 'T', 00H, 'e', 00H, 'x', 00H, 'C', 00H
	DB	'o', 00H, 'o', 00H, 'r', 00H, 'd', 00H, '1', 00H, 'i', 00H, 00H
	DB	00H
	ORG $+2
$SG324988 DB	'glTexCoord2i', 00H
	ORG $+3
$SG321916 DB	'[', 00H, ' ', 00H, 'O', 00H, 'p', 00H, 'e', 00H, 'n', 00H
	DB	'G', 00H, 'L', 00H, '3', 00H, '2', 00H, ' ', 00H, ']', 00H, ' '
	DB	00H, 'U', 00H, 'n', 00H, 'a', 00H, 'b', 00H, 'l', 00H, 'e', 00H
	DB	' ', 00H, 't', 00H, 'o', 00H, ' ', 00H, 'l', 00H, 'o', 00H, 'c'
	DB	00H, 'a', 00H, 't', 00H, 'e', 00H, ' ', 00H, 's', 00H, 'y', 00H
	DB	'm', 00H, 'b', 00H, 'o', 00H, 'l', 00H, ' ', 00H, ' ', 00H, '%'
	DB	00H, 's', 00H, ' ', 00H, 'i', 00H, 'n', 00H, ' ', 00H, 'O', 00H
	DB	'p', 00H, 'e', 00H, 'n', 00H, 'G', 00H, 'L', 00H, '3', 00H, '2'
	DB	00H, '.', 00H, 'd', 00H, 'l', 00H, 'l', 00H, 00H, 00H
	ORG $+2
$SG324989 DB	'glTexCoord2iv', 00H
	ORG $+2
$SG320893 DB	'glPixelZoom', 00H
$SG319869 DB	'g', 00H, 'l', 00H, 'I', 00H, 'n', 00H, 'd', 00H, 'e', 00H
	DB	'x', 00H, 's', 00H, 'v', 00H, 00H, 00H
$SG318845 DB	'g', 00H, 'l', 00H, 'E', 00H, 'n', 00H, 'd', 00H, 'L', 00H
	DB	'i', 00H, 's', 00H, 't', 00H, 00H, 00H
$SG317821 DB	'glClipPlane', 00H
$SG324990 DB	'glTexCoord2s', 00H
	ORG $+3
$SG324991 DB	'glTexCoord2sv', 00H
	ORG $+2
$SG322943 DB	'glVertex3fv', 00H
$SG319870 DB	'[', 00H, ' ', 00H, 'O', 00H, 'p', 00H, 'e', 00H, 'n', 00H
	DB	'G', 00H, 'L', 00H, '3', 00H, '2', 00H, ' ', 00H, ']', 00H, ' '
	DB	00H, 'U', 00H, 'n', 00H, 'a', 00H, 'b', 00H, 'l', 00H, 'e', 00H
	DB	' ', 00H, 't', 00H, 'o', 00H, ' ', 00H, 'l', 00H, 'o', 00H, 'c'
	DB	00H, 'a', 00H, 't', 00H, 'e', 00H, ' ', 00H, 's', 00H, 'y', 00H
	DB	'm', 00H, 'b', 00H, 'o', 00H, 'l', 00H, ' ', 00H, ' ', 00H, '%'
	DB	00H, 's', 00H, ' ', 00H, 'i', 00H, 'n', 00H, ' ', 00H, 'O', 00H
	DB	'p', 00H, 'e', 00H, 'n', 00H, 'G', 00H, 'L', 00H, '3', 00H, '2'
	DB	00H, '.', 00H, 'd', 00H, 'l', 00H, 'l', 00H, 00H, 00H
	ORG $+2
$SG320897 DB	'g', 00H, 'l', 00H, 'P', 00H, 'i', 00H, 'x', 00H, 'e', 00H
	DB	'l', 00H, 'Z', 00H, 'o', 00H, 'o', 00H, 'm', 00H, 00H, 00H
$SG323972 DB	'glBeginQueryIndexed', 00H
$SG318846 DB	'[', 00H, ' ', 00H, 'O', 00H, 'p', 00H, 'e', 00H, 'n', 00H
	DB	'G', 00H, 'L', 00H, '3', 00H, '2', 00H, ' ', 00H, ']', 00H, ' '
	DB	00H, 'U', 00H, 'n', 00H, 'a', 00H, 'b', 00H, 'l', 00H, 'e', 00H
	DB	' ', 00H, 't', 00H, 'o', 00H, ' ', 00H, 'l', 00H, 'o', 00H, 'c'
	DB	00H, 'a', 00H, 't', 00H, 'e', 00H, ' ', 00H, 's', 00H, 'y', 00H
	DB	'm', 00H, 'b', 00H, 'o', 00H, 'l', 00H, ' ', 00H, ' ', 00H, '%'
	DB	00H, 's', 00H, ' ', 00H, 'i', 00H, 'n', 00H, ' ', 00H, 'O', 00H
	DB	'p', 00H, 'e', 00H, 'n', 00H, 'G', 00H, 'L', 00H, '3', 00H, '2'
	DB	00H, '.', 00H, 'd', 00H, 'l', 00H, 'l', 00H, 00H, 00H
	ORG $+2
$SG324992 DB	'glTexCoord3d', 00H
	ORG $+3
$SG324993 DB	'glTexCoord3dv', 00H
	ORG $+2
$SG323969 DB	'glGenQueries', 00H
	ORG $+3
$SG317825 DB	'g', 00H, 'l', 00H, 'C', 00H, 'l', 00H, 'i', 00H, 'p', 00H
	DB	'P', 00H, 'l', 00H, 'a', 00H, 'n', 00H, 'e', 00H, 00H, 00H
$SG324994 DB	'glTexCoord3f', 00H
	ORG $+3
$SG323970 DB	'glDeleteQueries', 00H
$SG323973 DB	'glEndQuery', 00H
	ORG $+1
$SG320898 DB	'[', 00H, ' ', 00H, 'O', 00H, 'p', 00H, 'e', 00H, 'n', 00H
	DB	'G', 00H, 'L', 00H, '3', 00H, '2', 00H, ' ', 00H, ']', 00H, ' '
	DB	00H, 'U', 00H, 'n', 00H, 'a', 00H, 'b', 00H, 'l', 00H, 'e', 00H
	DB	' ', 00H, 't', 00H, 'o', 00H, ' ', 00H, 'l', 00H, 'o', 00H, 'c'
	DB	00H, 'a', 00H, 't', 00H, 'e', 00H, ' ', 00H, 's', 00H, 'y', 00H
	DB	'm', 00H, 'b', 00H, 'o', 00H, 'l', 00H, ' ', 00H, ' ', 00H, '%'
	DB	00H, 's', 00H, ' ', 00H, 'i', 00H, 'n', 00H, ' ', 00H, 'O', 00H
	DB	'p', 00H, 'e', 00H, 'n', 00H, 'G', 00H, 'L', 00H, '3', 00H, '2'
	DB	00H, '.', 00H, 'd', 00H, 'l', 00H, 'l', 00H, 00H, 00H
	ORG $+2
$SG322947 DB	'g', 00H, 'l', 00H, 'V', 00H, 'e', 00H, 'r', 00H, 't', 00H
	DB	'e', 00H, 'x', 00H, '3', 00H, 'f', 00H, 'v', 00H, 00H, 00H
$SG323974 DB	'glIsQuery', 00H
	ORG $+2
$SG317826 DB	'[', 00H, ' ', 00H, 'O', 00H, 'p', 00H, 'e', 00H, 'n', 00H
	DB	'G', 00H, 'L', 00H, '3', 00H, '2', 00H, ' ', 00H, ']', 00H, ' '
	DB	00H, 'U', 00H, 'n', 00H, 'a', 00H, 'b', 00H, 'l', 00H, 'e', 00H
	DB	' ', 00H, 't', 00H, 'o', 00H, ' ', 00H, 'l', 00H, 'o', 00H, 'c'
	DB	00H, 'a', 00H, 't', 00H, 'e', 00H, ' ', 00H, 's', 00H, 'y', 00H
	DB	'm', 00H, 'b', 00H, 'o', 00H, 'l', 00H, ' ', 00H, ' ', 00H, '%'
	DB	00H, 's', 00H, ' ', 00H, 'i', 00H, 'n', 00H, ' ', 00H, 'O', 00H
	DB	'p', 00H, 'e', 00H, 'n', 00H, 'G', 00H, 'L', 00H, '3', 00H, '2'
	DB	00H, '.', 00H, 'd', 00H, 'l', 00H, 'l', 00H, 00H, 00H
	ORG $+2
$SG324995 DB	'glTexCoord3fv', 00H
	ORG $+2
$SG323971 DB	'glBeginQuery', 00H
	ORG $+3
$SG324996 DB	'glTexCoord3i', 00H
	ORG $+3
$SG324997 DB	'glTexCoord3iv', 00H
	ORG $+2
$SG323975 DB	'glQueryCounter', 00H
	ORG $+1
$SG319879 DB	'glIndexub', 00H
	ORG $+2
$SG322948 DB	'[', 00H, ' ', 00H, 'O', 00H, 'p', 00H, 'e', 00H, 'n', 00H
	DB	'G', 00H, 'L', 00H, '3', 00H, '2', 00H, ' ', 00H, ']', 00H, ' '
	DB	00H, 'U', 00H, 'n', 00H, 'a', 00H, 'b', 00H, 'l', 00H, 'e', 00H
	DB	' ', 00H, 't', 00H, 'o', 00H, ' ', 00H, 'l', 00H, 'o', 00H, 'c'
	DB	00H, 'a', 00H, 't', 00H, 'e', 00H, ' ', 00H, 's', 00H, 'y', 00H
	DB	'm', 00H, 'b', 00H, 'o', 00H, 'l', 00H, ' ', 00H, ' ', 00H, '%'
	DB	00H, 's', 00H, ' ', 00H, 'i', 00H, 'n', 00H, ' ', 00H, 'O', 00H
	DB	'p', 00H, 'e', 00H, 'n', 00H, 'G', 00H, 'L', 00H, '3', 00H, '2'
	DB	00H, '.', 00H, 'd', 00H, 'l', 00H, 'l', 00H, 00H, 00H
	ORG $+2
$SG321925 DB	'glTexCoord1iv', 00H
	ORG $+2
$SG324998 DB	'glTexCoord3s', 00H
	ORG $+3
$SG324999 DB	'glTexCoord3sv', 00H
	ORG $+2
$SG318855 DB	'glEvalCoord1d', 00H
	ORG $+2
$SG325000 DB	'glTexCoord4d', 00H
	ORG $+3
$SG323976 DB	'glGetQueryObjectiv', 00H
	ORG $+1
$SG325001 DB	'glTexCoord4dv', 00H
	ORG $+2
$SG323977 DB	'glGetQueryObjecti64v', 00H
	ORG $+3
$SG321929 DB	'g', 00H, 'l', 00H, 'T', 00H, 'e', 00H, 'x', 00H, 'C', 00H
	DB	'o', 00H, 'o', 00H, 'r', 00H, 'd', 00H, '1', 00H, 'i', 00H, 'v'
	DB	00H, 00H, 00H
$SG325002 DB	'glTexCoord4f', 00H
	ORG $+3
$SG323978 DB	'glGetQueryObjectui64v', 00H
	ORG $+2
$SG320907 DB	'glPointSize', 00H
$SG321930 DB	'[', 00H, ' ', 00H, 'O', 00H, 'p', 00H, 'e', 00H, 'n', 00H
	DB	'G', 00H, 'L', 00H, '3', 00H, '2', 00H, ' ', 00H, ']', 00H, ' '
	DB	00H, 'U', 00H, 'n', 00H, 'a', 00H, 'b', 00H, 'l', 00H, 'e', 00H
	DB	' ', 00H, 't', 00H, 'o', 00H, ' ', 00H, 'l', 00H, 'o', 00H, 'c'
	DB	00H, 'a', 00H, 't', 00H, 'e', 00H, ' ', 00H, 's', 00H, 'y', 00H
	DB	'm', 00H, 'b', 00H, 'o', 00H, 'l', 00H, ' ', 00H, ' ', 00H, '%'
	DB	00H, 's', 00H, ' ', 00H, 'i', 00H, 'n', 00H, ' ', 00H, 'O', 00H
	DB	'p', 00H, 'e', 00H, 'n', 00H, 'G', 00H, 'L', 00H, '3', 00H, '2'
	DB	00H, '.', 00H, 'd', 00H, 'l', 00H, 'l', 00H, 00H, 00H
	ORG $+2
$SG325003 DB	'glTexCoord4fv', 00H
	ORG $+2
$SG319883 DB	'g', 00H, 'l', 00H, 'I', 00H, 'n', 00H, 'd', 00H, 'e', 00H
	DB	'x', 00H, 'u', 00H, 'b', 00H, 00H, 00H
$SG318859 DB	'g', 00H, 'l', 00H, 'E', 00H, 'v', 00H, 'a', 00H, 'l', 00H
	DB	'C', 00H, 'o', 00H, 'o', 00H, 'r', 00H, 'd', 00H, '1', 00H, 'd'
	DB	00H, 00H, 00H
$SG325004 DB	'glTexCoord4i', 00H
	ORG $+3
$SG325005 DB	'glTexCoord4iv', 00H
	ORG $+2
$SG323983 DB	'P', 00H, 'r', 00H, 'i', 00H, 'm', 00H, 'i', 00H, 't', 00H
	DB	'i', 00H, 'v', 00H, 'e', 00H, 's', 00H, ' ', 00H, 'S', 00H, 'u'
	DB	00H, 'b', 00H, 'm', 00H, 'i', 00H, 't', 00H, 't', 00H, 'e', 00H
	DB	'd', 00H, 00H, 00H
	ORG $+2
$SG319884 DB	'[', 00H, ' ', 00H, 'O', 00H, 'p', 00H, 'e', 00H, 'n', 00H
	DB	'G', 00H, 'L', 00H, '3', 00H, '2', 00H, ' ', 00H, ']', 00H, ' '
	DB	00H, 'U', 00H, 'n', 00H, 'a', 00H, 'b', 00H, 'l', 00H, 'e', 00H
	DB	' ', 00H, 't', 00H, 'o', 00H, ' ', 00H, 'l', 00H, 'o', 00H, 'c'
	DB	00H, 'a', 00H, 't', 00H, 'e', 00H, ' ', 00H, 's', 00H, 'y', 00H
	DB	'm', 00H, 'b', 00H, 'o', 00H, 'l', 00H, ' ', 00H, ' ', 00H, '%'
	DB	00H, 's', 00H, ' ', 00H, 'i', 00H, 'n', 00H, ' ', 00H, 'O', 00H
	DB	'p', 00H, 'e', 00H, 'n', 00H, 'G', 00H, 'L', 00H, '3', 00H, '2'
	DB	00H, '.', 00H, 'd', 00H, 'l', 00H, 'l', 00H, 00H, 00H
	ORG $+2
$SG320911 DB	'g', 00H, 'l', 00H, 'P', 00H, 'o', 00H, 'i', 00H, 'n', 00H
	DB	't', 00H, 'S', 00H, 'i', 00H, 'z', 00H, 'e', 00H, 00H, 00H
$SG317839 DB	'glColor3b', 00H
	ORG $+2
$SG318860 DB	'[', 00H, ' ', 00H, 'O', 00H, 'p', 00H, 'e', 00H, 'n', 00H
	DB	'G', 00H, 'L', 00H, '3', 00H, '2', 00H, ' ', 00H, ']', 00H, ' '
	DB	00H, 'U', 00H, 'n', 00H, 'a', 00H, 'b', 00H, 'l', 00H, 'e', 00H
	DB	' ', 00H, 't', 00H, 'o', 00H, ' ', 00H, 'l', 00H, 'o', 00H, 'c'
	DB	00H, 'a', 00H, 't', 00H, 'e', 00H, ' ', 00H, 's', 00H, 'y', 00H
	DB	'm', 00H, 'b', 00H, 'o', 00H, 'l', 00H, ' ', 00H, ' ', 00H, '%'
	DB	00H, 's', 00H, ' ', 00H, 'i', 00H, 'n', 00H, ' ', 00H, 'O', 00H
	DB	'p', 00H, 'e', 00H, 'n', 00H, 'G', 00H, 'L', 00H, '3', 00H, '2'
	DB	00H, '.', 00H, 'd', 00H, 'l', 00H, 'l', 00H, 00H, 00H
	ORG $+2
$SG323981 DB	'V', 00H, 'e', 00H, 'r', 00H, 't', 00H, 'i', 00H, 'c', 00H
	DB	'e', 00H, 's', 00H, ' ', 00H, 'S', 00H, 'u', 00H, 'b', 00H, 'm'
	DB	00H, 'i', 00H, 't', 00H, 't', 00H, 'e', 00H, 'd', 00H, 00H, 00H
	ORG $+2
$SG325006 DB	'glTexCoord4s', 00H
	ORG $+3
$SG325007 DB	'glTexCoord4sv', 00H
	ORG $+2
$SG325008 DB	'glTexCoordPointer', 00H
	ORG $+2
$SG320912 DB	'[', 00H, ' ', 00H, 'O', 00H, 'p', 00H, 'e', 00H, 'n', 00H
	DB	'G', 00H, 'L', 00H, '3', 00H, '2', 00H, ' ', 00H, ']', 00H, ' '
	DB	00H, 'U', 00H, 'n', 00H, 'a', 00H, 'b', 00H, 'l', 00H, 'e', 00H
	DB	' ', 00H, 't', 00H, 'o', 00H, ' ', 00H, 'l', 00H, 'o', 00H, 'c'
	DB	00H, 'a', 00H, 't', 00H, 'e', 00H, ' ', 00H, 's', 00H, 'y', 00H
	DB	'm', 00H, 'b', 00H, 'o', 00H, 'l', 00H, ' ', 00H, ' ', 00H, '%'
	DB	00H, 's', 00H, ' ', 00H, 'i', 00H, 'n', 00H, ' ', 00H, 'O', 00H
	DB	'p', 00H, 'e', 00H, 'n', 00H, 'G', 00H, 'L', 00H, '3', 00H, '2'
	DB	00H, '.', 00H, 'd', 00H, 'l', 00H, 'l', 00H, 00H, 00H
	ORG $+2
$SG325009 DB	'glTexEnvf', 00H
	ORG $+2
$SG323985 DB	'V', 00H, 'e', 00H, 'r', 00H, 't', 00H, 'e', 00H, 'x', 00H
	DB	' ', 00H, 'S', 00H, 'h', 00H, 'a', 00H, 'd', 00H, 'e', 00H, 'r'
	DB	00H, ' ', 00H, 'I', 00H, 'n', 00H, 'v', 00H, 'o', 00H, 'c', 00H
	DB	'a', 00H, 't', 00H, 'i', 00H, 'o', 00H, 'n', 00H, 's', 00H, 00H
	DB	00H
$SG322961 DB	'glVertex3i', 00H
	ORG $+1
$SG325010 DB	'glTexEnvfv', 00H
	ORG $+1
$SG325011 DB	'glTexEnvi', 00H
	ORG $+2
$SG323987 DB	'T', 00H, 'e', 00H, 's', 00H, 's', 00H, 'e', 00H, 'l', 00H
	DB	'l', 00H, 'a', 00H, 't', 00H, 'i', 00H, 'o', 00H, 'n', 00H, ' '
	DB	00H, 'C', 00H, 'o', 00H, 'n', 00H, 't', 00H, 'r', 00H, 'o', 00H
	DB	'l', 00H, ' ', 00H, 'S', 00H, 'h', 00H, 'a', 00H, 'd', 00H, 'e'
	DB	00H, 'r', 00H, ' ', 00H, 'P', 00H, 'a', 00H, 't', 00H, 'c', 00H
	DB	'h', 00H, 'e', 00H, 's', 00H, 00H, 00H
$SG321939 DB	'glTexCoord1s', 00H
	ORG $+3
$SG317843 DB	'g', 00H, 'l', 00H, 'C', 00H, 'o', 00H, 'l', 00H, 'o', 00H
	DB	'r', 00H, '3', 00H, 'b', 00H, 00H, 00H
$SG325012 DB	'glTexEnviv', 00H
	ORG $+1
$SG317844 DB	'[', 00H, ' ', 00H, 'O', 00H, 'p', 00H, 'e', 00H, 'n', 00H
	DB	'G', 00H, 'L', 00H, '3', 00H, '2', 00H, ' ', 00H, ']', 00H, ' '
	DB	00H, 'U', 00H, 'n', 00H, 'a', 00H, 'b', 00H, 'l', 00H, 'e', 00H
	DB	' ', 00H, 't', 00H, 'o', 00H, ' ', 00H, 'l', 00H, 'o', 00H, 'c'
	DB	00H, 'a', 00H, 't', 00H, 'e', 00H, ' ', 00H, 's', 00H, 'y', 00H
	DB	'm', 00H, 'b', 00H, 'o', 00H, 'l', 00H, ' ', 00H, ' ', 00H, '%'
	DB	00H, 's', 00H, ' ', 00H, 'i', 00H, 'n', 00H, ' ', 00H, 'O', 00H
	DB	'p', 00H, 'e', 00H, 'n', 00H, 'G', 00H, 'L', 00H, '3', 00H, '2'
	DB	00H, '.', 00H, 'd', 00H, 'l', 00H, 'l', 00H, 00H, 00H
	ORG $+2
$SG325013 DB	'glTexGend', 00H
	ORG $+2
$SG323989 DB	'T', 00H, 'e', 00H, 's', 00H, 's', 00H, 'e', 00H, 'l', 00H
	DB	'l', 00H, 'a', 00H, 't', 00H, 'i', 00H, 'o', 00H, 'n', 00H, ' '
	DB	00H, 'E', 00H, 'v', 00H, 'a', 00H, 'l', 00H, 'u', 00H, 'a', 00H
	DB	't', 00H, 'i', 00H, 'o', 00H, 'n', 00H, ' ', 00H, 'S', 00H, 'h'
	DB	00H, 'a', 00H, 'd', 00H, 'e', 00H, 'r', 00H, ' ', 00H, 'I', 00H
	DB	'n', 00H, 'v', 00H, 'o', 00H, 'c', 00H, 'a', 00H, 't', 00H, 'i'
	DB	00H, 'o', 00H, 'n', 00H, 's', 00H, 00H, 00H
	ORG $+2
$SG322965 DB	'g', 00H, 'l', 00H, 'V', 00H, 'e', 00H, 'r', 00H, 't', 00H
	DB	'e', 00H, 'x', 00H, '3', 00H, 'i', 00H, 00H, 00H
	ORG $+2
$SG319893 DB	'glIndexubv', 00H
	ORG $+1
$SG318869 DB	'glEvalCoord1dv', 00H
	ORG $+1
$SG325014 DB	'glTexGendv', 00H
	ORG $+1
$SG322966 DB	'[', 00H, ' ', 00H, 'O', 00H, 'p', 00H, 'e', 00H, 'n', 00H
	DB	'G', 00H, 'L', 00H, '3', 00H, '2', 00H, ' ', 00H, ']', 00H, ' '
	DB	00H, 'U', 00H, 'n', 00H, 'a', 00H, 'b', 00H, 'l', 00H, 'e', 00H
	DB	' ', 00H, 't', 00H, 'o', 00H, ' ', 00H, 'l', 00H, 'o', 00H, 'c'
	DB	00H, 'a', 00H, 't', 00H, 'e', 00H, ' ', 00H, 's', 00H, 'y', 00H
	DB	'm', 00H, 'b', 00H, 'o', 00H, 'l', 00H, ' ', 00H, ' ', 00H, '%'
	DB	00H, 's', 00H, ' ', 00H, 'i', 00H, 'n', 00H, ' ', 00H, 'O', 00H
	DB	'p', 00H, 'e', 00H, 'n', 00H, 'G', 00H, 'L', 00H, '3', 00H, '2'
	DB	00H, '.', 00H, 'd', 00H, 'l', 00H, 'l', 00H, 00H, 00H
	ORG $+2
$SG325015 DB	'glTexGenf', 00H
	ORG $+2
$SG323991 DB	'G', 00H, 'e', 00H, 'o', 00H, 'm', 00H, 'e', 00H, 't', 00H
	DB	'r', 00H, 'y', 00H, ' ', 00H, 'S', 00H, 'h', 00H, 'a', 00H, 'd'
	DB	00H, 'e', 00H, 'r', 00H, ' ', 00H, 'I', 00H, 'n', 00H, 'v', 00H
	DB	'o', 00H, 'c', 00H, 'a', 00H, 't', 00H, 'i', 00H, 'o', 00H, 'n'
	DB	00H, 's', 00H, 00H, 00H
$SG321943 DB	'g', 00H, 'l', 00H, 'T', 00H, 'e', 00H, 'x', 00H, 'C', 00H
	DB	'o', 00H, 'o', 00H, 'r', 00H, 'd', 00H, '1', 00H, 's', 00H, 00H
	DB	00H
	ORG $+2
$SG325016 DB	'glTexGenfv', 00H
	ORG $+1
$SG321944 DB	'[', 00H, ' ', 00H, 'O', 00H, 'p', 00H, 'e', 00H, 'n', 00H
	DB	'G', 00H, 'L', 00H, '3', 00H, '2', 00H, ' ', 00H, ']', 00H, ' '
	DB	00H, 'U', 00H, 'n', 00H, 'a', 00H, 'b', 00H, 'l', 00H, 'e', 00H
	DB	' ', 00H, 't', 00H, 'o', 00H, ' ', 00H, 'l', 00H, 'o', 00H, 'c'
	DB	00H, 'a', 00H, 't', 00H, 'e', 00H, ' ', 00H, 's', 00H, 'y', 00H
	DB	'm', 00H, 'b', 00H, 'o', 00H, 'l', 00H, ' ', 00H, ' ', 00H, '%'
	DB	00H, 's', 00H, ' ', 00H, 'i', 00H, 'n', 00H, ' ', 00H, 'O', 00H
	DB	'p', 00H, 'e', 00H, 'n', 00H, 'G', 00H, 'L', 00H, '3', 00H, '2'
	DB	00H, '.', 00H, 'd', 00H, 'l', 00H, 'l', 00H, 00H, 00H
	ORG $+2
$SG325017 DB	'glTexGeni', 00H
	ORG $+2
$SG323993 DB	'G', 00H, 'e', 00H, 'o', 00H, 'm', 00H, 'e', 00H, 't', 00H
	DB	'r', 00H, 'y', 00H, ' ', 00H, 'S', 00H, 'h', 00H, 'a', 00H, 'd'
	DB	00H, 'e', 00H, 'r', 00H, ' ', 00H, 'P', 00H, 'r', 00H, 'i', 00H
	DB	'm', 00H, 'i', 00H, 't', 00H, 'i', 00H, 'v', 00H, 'e', 00H, 's'
	DB	00H, ' ', 00H, 'E', 00H, 'm', 00H, 'i', 00H, 't', 00H, 't', 00H
	DB	'e', 00H, 'd', 00H, 00H, 00H
	ORG $+2
$SG319897 DB	'g', 00H, 'l', 00H, 'I', 00H, 'n', 00H, 'd', 00H, 'e', 00H
	DB	'x', 00H, 'u', 00H, 'b', 00H, 'v', 00H, 00H, 00H
	ORG $+2
$SG318873 DB	'g', 00H, 'l', 00H, 'E', 00H, 'v', 00H, 'a', 00H, 'l', 00H
	DB	'C', 00H, 'o', 00H, 'o', 00H, 'r', 00H, 'd', 00H, '1', 00H, 'd'
	DB	00H, 'v', 00H, 00H, 00H
	ORG $+2
$SG325018 DB	'glTexGeniv', 00H
	ORG $+1
$SG323995 DB	'F', 00H, 'r', 00H, 'a', 00H, 'g', 00H, 'm', 00H, 'e', 00H
	DB	'n', 00H, 't', 00H, ' ', 00H, 'S', 00H, 'h', 00H, 'a', 00H, 'd'
	DB	00H, 'e', 00H, 'r', 00H, ' ', 00H, 'I', 00H, 'n', 00H, 'v', 00H
	DB	'o', 00H, 'c', 00H, 'a', 00H, 't', 00H, 'i', 00H, 'o', 00H, 'n'
	DB	00H, 's', 00H, 00H, 00H
$SG317853 DB	'glColor3bv', 00H
	ORG $+1
$SG319898 DB	'[', 00H, ' ', 00H, 'O', 00H, 'p', 00H, 'e', 00H, 'n', 00H
	DB	'G', 00H, 'L', 00H, '3', 00H, '2', 00H, ' ', 00H, ']', 00H, ' '
	DB	00H, 'U', 00H, 'n', 00H, 'a', 00H, 'b', 00H, 'l', 00H, 'e', 00H
	DB	' ', 00H, 't', 00H, 'o', 00H, ' ', 00H, 'l', 00H, 'o', 00H, 'c'
	DB	00H, 'a', 00H, 't', 00H, 'e', 00H, ' ', 00H, 's', 00H, 'y', 00H
	DB	'm', 00H, 'b', 00H, 'o', 00H, 'l', 00H, ' ', 00H, ' ', 00H, '%'
	DB	00H, 's', 00H, ' ', 00H, 'i', 00H, 'n', 00H, ' ', 00H, 'O', 00H
	DB	'p', 00H, 'e', 00H, 'n', 00H, 'G', 00H, 'L', 00H, '3', 00H, '2'
	DB	00H, '.', 00H, 'd', 00H, 'l', 00H, 'l', 00H, 00H, 00H
	ORG $+2
$SG325021 DB	'glTexParameterf', 00H
$SG325022 DB	'glTexParameterfv', 00H
	ORG $+3
$SG318874 DB	'[', 00H, ' ', 00H, 'O', 00H, 'p', 00H, 'e', 00H, 'n', 00H
	DB	'G', 00H, 'L', 00H, '3', 00H, '2', 00H, ' ', 00H, ']', 00H, ' '
	DB	00H, 'U', 00H, 'n', 00H, 'a', 00H, 'b', 00H, 'l', 00H, 'e', 00H
	DB	' ', 00H, 't', 00H, 'o', 00H, ' ', 00H, 'l', 00H, 'o', 00H, 'c'
	DB	00H, 'a', 00H, 't', 00H, 'e', 00H, ' ', 00H, 's', 00H, 'y', 00H
	DB	'm', 00H, 'b', 00H, 'o', 00H, 'l', 00H, ' ', 00H, ' ', 00H, '%'
	DB	00H, 's', 00H, ' ', 00H, 'i', 00H, 'n', 00H, ' ', 00H, 'O', 00H
	DB	'p', 00H, 'e', 00H, 'n', 00H, 'G', 00H, 'L', 00H, '3', 00H, '2'
	DB	00H, '.', 00H, 'd', 00H, 'l', 00H, 'l', 00H, 00H, 00H
	ORG $+2
$SG325019 DB	'glTexImage1D', 00H
	ORG $+3
$SG320923 DB	'glPolygonMode', 00H
	ORG $+2
$SG325020 DB	'glTexImage2D', 00H
	ORG $+3
$SG323997 DB	'C', 00H, 'o', 00H, 'm', 00H, 'p', 00H, 'u', 00H, 't', 00H
	DB	'e', 00H, ' ', 00H, 'S', 00H, 'h', 00H, 'a', 00H, 'd', 00H, 'e'
	DB	00H, 'r', 00H, ' ', 00H, 'I', 00H, 'n', 00H, 'v', 00H, 'o', 00H
	DB	'c', 00H, 'a', 00H, 't', 00H, 'i', 00H, 'o', 00H, 'n', 00H, 's'
	DB	00H, 00H, 00H
	ORG $+2
$SG325023 DB	'glTexParameteri', 00H
$SG323999 DB	'C', 00H, 'l', 00H, 'i', 00H, 'p', 00H, 'p', 00H, 'i', 00H
	DB	'n', 00H, 'g', 00H, ' ', 00H, 'I', 00H, 'n', 00H, 'p', 00H, 'u'
	DB	00H, 't', 00H, ' ', 00H, 'P', 00H, 'r', 00H, 'i', 00H, 'm', 00H
	DB	'i', 00H, 't', 00H, 'i', 00H, 'v', 00H, 'e', 00H, 's', 00H, 00H
	DB	00H
$SG322975 DB	'glVertex3iv', 00H
$SG320927 DB	'g', 00H, 'l', 00H, 'P', 00H, 'o', 00H, 'l', 00H, 'y', 00H
	DB	'g', 00H, 'o', 00H, 'n', 00H, 'M', 00H, 'o', 00H, 'd', 00H, 'e'
	DB	00H, 00H, 00H
$SG325024 DB	'glTexParameteriv', 00H
	ORG $+3
$SG325025 DB	'glTexSubImage1D', 00H
$SG319907 DB	'glInitNames', 00H
$SG320928 DB	'[', 00H, ' ', 00H, 'O', 00H, 'p', 00H, 'e', 00H, 'n', 00H
	DB	'G', 00H, 'L', 00H, '3', 00H, '2', 00H, ' ', 00H, ']', 00H, ' '
	DB	00H, 'U', 00H, 'n', 00H, 'a', 00H, 'b', 00H, 'l', 00H, 'e', 00H
	DB	' ', 00H, 't', 00H, 'o', 00H, ' ', 00H, 'l', 00H, 'o', 00H, 'c'
	DB	00H, 'a', 00H, 't', 00H, 'e', 00H, ' ', 00H, 's', 00H, 'y', 00H
	DB	'm', 00H, 'b', 00H, 'o', 00H, 'l', 00H, ' ', 00H, ' ', 00H, '%'
	DB	00H, 's', 00H, ' ', 00H, 'i', 00H, 'n', 00H, ' ', 00H, 'O', 00H
	DB	'p', 00H, 'e', 00H, 'n', 00H, 'G', 00H, 'L', 00H, '3', 00H, '2'
	DB	00H, '.', 00H, 'd', 00H, 'l', 00H, 'l', 00H, 00H, 00H
	ORG $+2
$SG324001 DB	'C', 00H, 'l', 00H, 'i', 00H, 'p', 00H, 'p', 00H, 'i', 00H
	DB	'n', 00H, 'g', 00H, ' ', 00H, 'O', 00H, 'u', 00H, 't', 00H, 'p'
	DB	00H, 'u', 00H, 't', 00H, ' ', 00H, 'P', 00H, 'r', 00H, 'i', 00H
	DB	'm', 00H, 'i', 00H, 't', 00H, 'i', 00H, 'v', 00H, 'e', 00H, 's'
	DB	00H, 00H, 00H
	ORG $+2
$SG321953 DB	'glTexCoord1sv', 00H
	ORG $+2
$SG317857 DB	'g', 00H, 'l', 00H, 'C', 00H, 'o', 00H, 'l', 00H, 'o', 00H
	DB	'r', 00H, '3', 00H, 'b', 00H, 'v', 00H, 00H, 00H
	ORG $+2
$SG325026 DB	'glTexSubImage2D', 00H
$SG325029 DB	'glVertex2d', 00H
	ORG $+1
$SG317858 DB	'[', 00H, ' ', 00H, 'O', 00H, 'p', 00H, 'e', 00H, 'n', 00H
	DB	'G', 00H, 'L', 00H, '3', 00H, '2', 00H, ' ', 00H, ']', 00H, ' '
	DB	00H, 'U', 00H, 'n', 00H, 'a', 00H, 'b', 00H, 'l', 00H, 'e', 00H
	DB	' ', 00H, 't', 00H, 'o', 00H, ' ', 00H, 'l', 00H, 'o', 00H, 'c'
	DB	00H, 'a', 00H, 't', 00H, 'e', 00H, ' ', 00H, 's', 00H, 'y', 00H
	DB	'm', 00H, 'b', 00H, 'o', 00H, 'l', 00H, ' ', 00H, ' ', 00H, '%'
	DB	00H, 's', 00H, ' ', 00H, 'i', 00H, 'n', 00H, ' ', 00H, 'O', 00H
	DB	'p', 00H, 'e', 00H, 'n', 00H, 'G', 00H, 'L', 00H, '3', 00H, '2'
	DB	00H, '.', 00H, 'd', 00H, 'l', 00H, 'l', 00H, 00H, 00H
	ORG $+2
$SG325027 DB	'glTranslated', 00H
	ORG $+3
$SG322979 DB	'g', 00H, 'l', 00H, 'V', 00H, 'e', 00H, 'r', 00H, 't', 00H
	DB	'e', 00H, 'x', 00H, '3', 00H, 'i', 00H, 'v', 00H, 00H, 00H
$SG318883 DB	'glEvalCoord1f', 00H
	ORG $+2
$SG325028 DB	'glTranslatef', 00H
	ORG $+3
$SG321957 DB	'g', 00H, 'l', 00H, 'T', 00H, 'e', 00H, 'x', 00H, 'C', 00H
	DB	'o', 00H, 'o', 00H, 'r', 00H, 'd', 00H, '1', 00H, 's', 00H, 'v'
	DB	00H, 00H, 00H
$SG322980 DB	'[', 00H, ' ', 00H, 'O', 00H, 'p', 00H, 'e', 00H, 'n', 00H
	DB	'G', 00H, 'L', 00H, '3', 00H, '2', 00H, ' ', 00H, ']', 00H, ' '
	DB	00H, 'U', 00H, 'n', 00H, 'a', 00H, 'b', 00H, 'l', 00H, 'e', 00H
	DB	' ', 00H, 't', 00H, 'o', 00H, ' ', 00H, 'l', 00H, 'o', 00H, 'c'
	DB	00H, 'a', 00H, 't', 00H, 'e', 00H, ' ', 00H, 's', 00H, 'y', 00H
	DB	'm', 00H, 'b', 00H, 'o', 00H, 'l', 00H, ' ', 00H, ' ', 00H, '%'
	DB	00H, 's', 00H, ' ', 00H, 'i', 00H, 'n', 00H, ' ', 00H, 'O', 00H
	DB	'p', 00H, 'e', 00H, 'n', 00H, 'G', 00H, 'L', 00H, '3', 00H, '2'
	DB	00H, '.', 00H, 'd', 00H, 'l', 00H, 'l', 00H, 00H, 00H
	ORG $+2
$SG325030 DB	'glVertex2dv', 00H
$SG321958 DB	'[', 00H, ' ', 00H, 'O', 00H, 'p', 00H, 'e', 00H, 'n', 00H
	DB	'G', 00H, 'L', 00H, '3', 00H, '2', 00H, ' ', 00H, ']', 00H, ' '
	DB	00H, 'U', 00H, 'n', 00H, 'a', 00H, 'b', 00H, 'l', 00H, 'e', 00H
	DB	' ', 00H, 't', 00H, 'o', 00H, ' ', 00H, 'l', 00H, 'o', 00H, 'c'
	DB	00H, 'a', 00H, 't', 00H, 'e', 00H, ' ', 00H, 's', 00H, 'y', 00H
	DB	'm', 00H, 'b', 00H, 'o', 00H, 'l', 00H, ' ', 00H, ' ', 00H, '%'
	DB	00H, 's', 00H, ' ', 00H, 'i', 00H, 'n', 00H, ' ', 00H, 'O', 00H
	DB	'p', 00H, 'e', 00H, 'n', 00H, 'G', 00H, 'L', 00H, '3', 00H, '2'
	DB	00H, '.', 00H, 'd', 00H, 'l', 00H, 'l', 00H, 00H, 00H
	ORG $+2
$SG325031 DB	'glVertex2f', 00H
	ORG $+1
$SG319911 DB	'g', 00H, 'l', 00H, 'I', 00H, 'n', 00H, 'i', 00H, 't', 00H
	DB	'N', 00H, 'a', 00H, 'm', 00H, 'e', 00H, 's', 00H, 00H, 00H
$SG318887 DB	'g', 00H, 'l', 00H, 'E', 00H, 'v', 00H, 'a', 00H, 'l', 00H
	DB	'C', 00H, 'o', 00H, 'o', 00H, 'r', 00H, 'd', 00H, '1', 00H, 'f'
	DB	00H, 00H, 00H
$SG325032 DB	'glVertex2fv', 00H
$SG319912 DB	'[', 00H, ' ', 00H, 'O', 00H, 'p', 00H, 'e', 00H, 'n', 00H
	DB	'G', 00H, 'L', 00H, '3', 00H, '2', 00H, ' ', 00H, ']', 00H, ' '
	DB	00H, 'U', 00H, 'n', 00H, 'a', 00H, 'b', 00H, 'l', 00H, 'e', 00H
	DB	' ', 00H, 't', 00H, 'o', 00H, ' ', 00H, 'l', 00H, 'o', 00H, 'c'
	DB	00H, 'a', 00H, 't', 00H, 'e', 00H, ' ', 00H, 's', 00H, 'y', 00H
	DB	'm', 00H, 'b', 00H, 'o', 00H, 'l', 00H, ' ', 00H, ' ', 00H, '%'
	DB	00H, 's', 00H, ' ', 00H, 'i', 00H, 'n', 00H, ' ', 00H, 'O', 00H
	DB	'p', 00H, 'e', 00H, 'n', 00H, 'G', 00H, 'L', 00H, '3', 00H, '2'
	DB	00H, '.', 00H, 'd', 00H, 'l', 00H, 'l', 00H, 00H, 00H
	ORG $+2
$SG325033 DB	'glVertex2i', 00H
	ORG $+1
$SG318888 DB	'[', 00H, ' ', 00H, 'O', 00H, 'p', 00H, 'e', 00H, 'n', 00H
	DB	'G', 00H, 'L', 00H, '3', 00H, '2', 00H, ' ', 00H, ']', 00H, ' '
	DB	00H, 'U', 00H, 'n', 00H, 'a', 00H, 'b', 00H, 'l', 00H, 'e', 00H
	DB	' ', 00H, 't', 00H, 'o', 00H, ' ', 00H, 'l', 00H, 'o', 00H, 'c'
	DB	00H, 'a', 00H, 't', 00H, 'e', 00H, ' ', 00H, 's', 00H, 'y', 00H
	DB	'm', 00H, 'b', 00H, 'o', 00H, 'l', 00H, ' ', 00H, ' ', 00H, '%'
	DB	00H, 's', 00H, ' ', 00H, 'i', 00H, 'n', 00H, ' ', 00H, 'O', 00H
	DB	'p', 00H, 'e', 00H, 'n', 00H, 'G', 00H, 'L', 00H, '3', 00H, '2'
	DB	00H, '.', 00H, 'd', 00H, 'l', 00H, 'l', 00H, 00H, 00H
	ORG $+2
$SG325034 DB	'glVertex2iv', 00H
$SG325035 DB	'glVertex2s', 00H
	ORG $+1
$SG320939 DB	'glPolygonOffset', 00H
$SG325036 DB	'glVertex2sv', 00H
$SG325037 DB	'glVertex3d', 00H
	ORG $+1
$SG325038 DB	'glVertex3dv', 00H
$SG325039 DB	'glVertex3f', 00H
	ORG $+1
$SG320943 DB	'g', 00H, 'l', 00H, 'P', 00H, 'o', 00H, 'l', 00H, 'y', 00H
	DB	'g', 00H, 'o', 00H, 'n', 00H, 'O', 00H, 'f', 00H, 'f', 00H, 's'
	DB	00H, 'e', 00H, 't', 00H, 00H, 00H
$SG317871 DB	'glColor3d', 00H
	ORG $+2
$SG325040 DB	'glVertex3fv', 00H
$SG325041 DB	'glVertex3i', 00H
	ORG $+1
$SG320944 DB	'[', 00H, ' ', 00H, 'O', 00H, 'p', 00H, 'e', 00H, 'n', 00H
	DB	'G', 00H, 'L', 00H, '3', 00H, '2', 00H, ' ', 00H, ']', 00H, ' '
	DB	00H, 'U', 00H, 'n', 00H, 'a', 00H, 'b', 00H, 'l', 00H, 'e', 00H
	DB	' ', 00H, 't', 00H, 'o', 00H, ' ', 00H, 'l', 00H, 'o', 00H, 'c'
	DB	00H, 'a', 00H, 't', 00H, 'e', 00H, ' ', 00H, 's', 00H, 'y', 00H
	DB	'm', 00H, 'b', 00H, 'o', 00H, 'l', 00H, ' ', 00H, ' ', 00H, '%'
	DB	00H, 's', 00H, ' ', 00H, 'i', 00H, 'n', 00H, ' ', 00H, 'O', 00H
	DB	'p', 00H, 'e', 00H, 'n', 00H, 'G', 00H, 'L', 00H, '3', 00H, '2'
	DB	00H, '.', 00H, 'd', 00H, 'l', 00H, 'l', 00H, 00H, 00H
	ORG $+2
$SG322993 DB	'glVertex3s', 00H
	ORG $+1
$SG321969 DB	'glTexCoord2d', 00H
	ORG $+3
$SG318897 DB	'glEvalCoord1fv', 00H
	ORG $+1
$SG325042 DB	'glVertex3iv', 00H
$SG325043 DB	'glVertex3s', 00H
	ORG $+1
$SG317875 DB	'g', 00H, 'l', 00H, 'C', 00H, 'o', 00H, 'l', 00H, 'o', 00H
	DB	'r', 00H, '3', 00H, 'd', 00H, 00H, 00H
$SG325044 DB	'glVertex3sv', 00H
$SG317876 DB	'[', 00H, ' ', 00H, 'O', 00H, 'p', 00H, 'e', 00H, 'n', 00H
	DB	'G', 00H, 'L', 00H, '3', 00H, '2', 00H, ' ', 00H, ']', 00H, ' '
	DB	00H, 'U', 00H, 'n', 00H, 'a', 00H, 'b', 00H, 'l', 00H, 'e', 00H
	DB	' ', 00H, 't', 00H, 'o', 00H, ' ', 00H, 'l', 00H, 'o', 00H, 'c'
	DB	00H, 'a', 00H, 't', 00H, 'e', 00H, ' ', 00H, 's', 00H, 'y', 00H
	DB	'm', 00H, 'b', 00H, 'o', 00H, 'l', 00H, ' ', 00H, ' ', 00H, '%'
	DB	00H, 's', 00H, ' ', 00H, 'i', 00H, 'n', 00H, ' ', 00H, 'O', 00H
	DB	'p', 00H, 'e', 00H, 'n', 00H, 'G', 00H, 'L', 00H, '3', 00H, '2'
	DB	00H, '.', 00H, 'd', 00H, 'l', 00H, 'l', 00H, 00H, 00H
	ORG $+2
$SG325045 DB	'glVertex4d', 00H
	ORG $+1
$SG322997 DB	'g', 00H, 'l', 00H, 'V', 00H, 'e', 00H, 'r', 00H, 't', 00H
	DB	'e', 00H, 'x', 00H, '3', 00H, 's', 00H, 00H, 00H
	ORG $+2
$SG321973 DB	'g', 00H, 'l', 00H, 'T', 00H, 'e', 00H, 'x', 00H, 'C', 00H
	DB	'o', 00H, 'o', 00H, 'r', 00H, 'd', 00H, '2', 00H, 'd', 00H, 00H
	DB	00H
	ORG $+2
$SG319925 DB	'glInterleavedArrays', 00H
$SG318901 DB	'g', 00H, 'l', 00H, 'E', 00H, 'v', 00H, 'a', 00H, 'l', 00H
	DB	'C', 00H, 'o', 00H, 'o', 00H, 'r', 00H, 'd', 00H, '1', 00H, 'f'
	DB	00H, 'v', 00H, 00H, 00H
	ORG $+2
$SG325046 DB	'glVertex4dv', 00H
$SG325047 DB	'glVertex4f', 00H
	ORG $+1
$SG322998 DB	'[', 00H, ' ', 00H, 'O', 00H, 'p', 00H, 'e', 00H, 'n', 00H
	DB	'G', 00H, 'L', 00H, '3', 00H, '2', 00H, ' ', 00H, ']', 00H, ' '
	DB	00H, 'U', 00H, 'n', 00H, 'a', 00H, 'b', 00H, 'l', 00H, 'e', 00H
	DB	' ', 00H, 't', 00H, 'o', 00H, ' ', 00H, 'l', 00H, 'o', 00H, 'c'
	DB	00H, 'a', 00H, 't', 00H, 'e', 00H, ' ', 00H, 's', 00H, 'y', 00H
	DB	'm', 00H, 'b', 00H, 'o', 00H, 'l', 00H, ' ', 00H, ' ', 00H, '%'
	DB	00H, 's', 00H, ' ', 00H, 'i', 00H, 'n', 00H, ' ', 00H, 'O', 00H
	DB	'p', 00H, 'e', 00H, 'n', 00H, 'G', 00H, 'L', 00H, '3', 00H, '2'
	DB	00H, '.', 00H, 'd', 00H, 'l', 00H, 'l', 00H, 00H, 00H
	ORG $+2
$SG325048 DB	'glVertex4fv', 00H
$SG321974 DB	'[', 00H, ' ', 00H, 'O', 00H, 'p', 00H, 'e', 00H, 'n', 00H
	DB	'G', 00H, 'L', 00H, '3', 00H, '2', 00H, ' ', 00H, ']', 00H, ' '
	DB	00H, 'U', 00H, 'n', 00H, 'a', 00H, 'b', 00H, 'l', 00H, 'e', 00H
	DB	' ', 00H, 't', 00H, 'o', 00H, ' ', 00H, 'l', 00H, 'o', 00H, 'c'
	DB	00H, 'a', 00H, 't', 00H, 'e', 00H, ' ', 00H, 's', 00H, 'y', 00H
	DB	'm', 00H, 'b', 00H, 'o', 00H, 'l', 00H, ' ', 00H, ' ', 00H, '%'
	DB	00H, 's', 00H, ' ', 00H, 'i', 00H, 'n', 00H, ' ', 00H, 'O', 00H
	DB	'p', 00H, 'e', 00H, 'n', 00H, 'G', 00H, 'L', 00H, '3', 00H, '2'
	DB	00H, '.', 00H, 'd', 00H, 'l', 00H, 'l', 00H, 00H, 00H
	ORG $+2
$SG325049 DB	'glVertex4i', 00H
	ORG $+1
$SG318902 DB	'[', 00H, ' ', 00H, 'O', 00H, 'p', 00H, 'e', 00H, 'n', 00H
	DB	'G', 00H, 'L', 00H, '3', 00H, '2', 00H, ' ', 00H, ']', 00H, ' '
	DB	00H, 'U', 00H, 'n', 00H, 'a', 00H, 'b', 00H, 'l', 00H, 'e', 00H
	DB	' ', 00H, 't', 00H, 'o', 00H, ' ', 00H, 'l', 00H, 'o', 00H, 'c'
	DB	00H, 'a', 00H, 't', 00H, 'e', 00H, ' ', 00H, 's', 00H, 'y', 00H
	DB	'm', 00H, 'b', 00H, 'o', 00H, 'l', 00H, ' ', 00H, ' ', 00H, '%'
	DB	00H, 's', 00H, ' ', 00H, 'i', 00H, 'n', 00H, ' ', 00H, 'O', 00H
	DB	'p', 00H, 'e', 00H, 'n', 00H, 'G', 00H, 'L', 00H, '3', 00H, '2'
	DB	00H, '.', 00H, 'd', 00H, 'l', 00H, 'l', 00H, 00H, 00H
	ORG $+2
$SG320953 DB	'glPolygonStipple', 00H
	ORG $+3
$SG319929 DB	'g', 00H, 'l', 00H, 'I', 00H, 'n', 00H, 't', 00H, 'e', 00H
	DB	'r', 00H, 'l', 00H, 'e', 00H, 'a', 00H, 'v', 00H, 'e', 00H, 'd'
	DB	00H, 'A', 00H, 'r', 00H, 'r', 00H, 'a', 00H, 'y', 00H, 's', 00H
	DB	00H, 00H
$SG325050 DB	'glVertex4iv', 00H
$SG325051 DB	'glVertex4s', 00H
	ORG $+1
$SG319930 DB	'[', 00H, ' ', 00H, 'O', 00H, 'p', 00H, 'e', 00H, 'n', 00H
	DB	'G', 00H, 'L', 00H, '3', 00H, '2', 00H, ' ', 00H, ']', 00H, ' '
	DB	00H, 'U', 00H, 'n', 00H, 'a', 00H, 'b', 00H, 'l', 00H, 'e', 00H
	DB	' ', 00H, 't', 00H, 'o', 00H, ' ', 00H, 'l', 00H, 'o', 00H, 'c'
	DB	00H, 'a', 00H, 't', 00H, 'e', 00H, ' ', 00H, 's', 00H, 'y', 00H
	DB	'm', 00H, 'b', 00H, 'o', 00H, 'l', 00H, ' ', 00H, ' ', 00H, '%'
	DB	00H, 's', 00H, ' ', 00H, 'i', 00H, 'n', 00H, ' ', 00H, 'O', 00H
	DB	'p', 00H, 'e', 00H, 'n', 00H, 'G', 00H, 'L', 00H, '3', 00H, '2'
	DB	00H, '.', 00H, 'd', 00H, 'l', 00H, 'l', 00H, 00H, 00H
	ORG $+2
$SG325052 DB	'glVertex4sv', 00H
$SG325053 DB	'glVertexPointer', 00H
$SG320957 DB	'g', 00H, 'l', 00H, 'P', 00H, 'o', 00H, 'l', 00H, 'y', 00H
	DB	'g', 00H, 'o', 00H, 'n', 00H, 'S', 00H, 't', 00H, 'i', 00H, 'p'
	DB	00H, 'p', 00H, 'l', 00H, 'e', 00H, 00H, 00H
	ORG $+2
$SG317885 DB	'glColor3dv', 00H
	ORG $+1
$SG325054 DB	'glViewport', 00H
	ORG $+1
$SG323007 DB	'glVertex3sv', 00H
$SG320958 DB	'[', 00H, ' ', 00H, 'O', 00H, 'p', 00H, 'e', 00H, 'n', 00H
	DB	'G', 00H, 'L', 00H, '3', 00H, '2', 00H, ' ', 00H, ']', 00H, ' '
	DB	00H, 'U', 00H, 'n', 00H, 'a', 00H, 'b', 00H, 'l', 00H, 'e', 00H
	DB	' ', 00H, 't', 00H, 'o', 00H, ' ', 00H, 'l', 00H, 'o', 00H, 'c'
	DB	00H, 'a', 00H, 't', 00H, 'e', 00H, ' ', 00H, 's', 00H, 'y', 00H
	DB	'm', 00H, 'b', 00H, 'o', 00H, 'l', 00H, ' ', 00H, ' ', 00H, '%'
	DB	00H, 's', 00H, ' ', 00H, 'i', 00H, 'n', 00H, ' ', 00H, 'O', 00H
	DB	'p', 00H, 'e', 00H, 'n', 00H, 'G', 00H, 'L', 00H, '3', 00H, '2'
	DB	00H, '.', 00H, 'd', 00H, 'l', 00H, 'l', 00H, 00H, 00H
	ORG $+2
$SG325055 DB	'wglCopyContext', 00H
	ORG $+1
$SG321983 DB	'glTexCoord2dv', 00H
	ORG $+2
$SG325056 DB	'wglCreateLayerContext', 00H
	ORG $+2
$SG325057 DB	'wglDeleteContext', 00H
	ORG $+3
$SG318913 DB	'glEvalCoord2d', 00H
	ORG $+2
$SG317889 DB	'g', 00H, 'l', 00H, 'C', 00H, 'o', 00H, 'l', 00H, 'o', 00H
	DB	'r', 00H, '3', 00H, 'd', 00H, 'v', 00H, 00H, 00H
	ORG $+2
$SG325058 DB	'wglGetCurrentContext', 00H
	ORG $+3
$SG317890 DB	'[', 00H, ' ', 00H, 'O', 00H, 'p', 00H, 'e', 00H, 'n', 00H
	DB	'G', 00H, 'L', 00H, '3', 00H, '2', 00H, ' ', 00H, ']', 00H, ' '
	DB	00H, 'U', 00H, 'n', 00H, 'a', 00H, 'b', 00H, 'l', 00H, 'e', 00H
	DB	' ', 00H, 't', 00H, 'o', 00H, ' ', 00H, 'l', 00H, 'o', 00H, 'c'
	DB	00H, 'a', 00H, 't', 00H, 'e', 00H, ' ', 00H, 's', 00H, 'y', 00H
	DB	'm', 00H, 'b', 00H, 'o', 00H, 'l', 00H, ' ', 00H, ' ', 00H, '%'
	DB	00H, 's', 00H, ' ', 00H, 'i', 00H, 'n', 00H, ' ', 00H, 'O', 00H
	DB	'p', 00H, 'e', 00H, 'n', 00H, 'G', 00H, 'L', 00H, '3', 00H, '2'
	DB	00H, '.', 00H, 'd', 00H, 'l', 00H, 'l', 00H, 00H, 00H
	ORG $+2
$SG325059 DB	'wglGetCurrentDC', 00H
$SG323011 DB	'g', 00H, 'l', 00H, 'V', 00H, 'e', 00H, 'r', 00H, 't', 00H
	DB	'e', 00H, 'x', 00H, '3', 00H, 's', 00H, 'v', 00H, 00H, 00H
$SG321987 DB	'g', 00H, 'l', 00H, 'T', 00H, 'e', 00H, 'x', 00H, 'C', 00H
	DB	'o', 00H, 'o', 00H, 'r', 00H, 'd', 00H, '2', 00H, 'd', 00H, 'v'
	DB	00H, 00H, 00H
$SG319939 DB	'glIsEnabled', 00H
$SG325060 DB	'wglGetProcAddress', 00H
	ORG $+2
$SG323012 DB	'[', 00H, ' ', 00H, 'O', 00H, 'p', 00H, 'e', 00H, 'n', 00H
	DB	'G', 00H, 'L', 00H, '3', 00H, '2', 00H, ' ', 00H, ']', 00H, ' '
	DB	00H, 'U', 00H, 'n', 00H, 'a', 00H, 'b', 00H, 'l', 00H, 'e', 00H
	DB	' ', 00H, 't', 00H, 'o', 00H, ' ', 00H, 'l', 00H, 'o', 00H, 'c'
	DB	00H, 'a', 00H, 't', 00H, 'e', 00H, ' ', 00H, 's', 00H, 'y', 00H
	DB	'm', 00H, 'b', 00H, 'o', 00H, 'l', 00H, ' ', 00H, ' ', 00H, '%'
	DB	00H, 's', 00H, ' ', 00H, 'i', 00H, 'n', 00H, ' ', 00H, 'O', 00H
	DB	'p', 00H, 'e', 00H, 'n', 00H, 'G', 00H, 'L', 00H, '3', 00H, '2'
	DB	00H, '.', 00H, 'd', 00H, 'l', 00H, 'l', 00H, 00H, 00H
	ORG $+2
$SG325061 DB	'wglCreateContext', 00H
	ORG $+3
$SG321988 DB	'[', 00H, ' ', 00H, 'O', 00H, 'p', 00H, 'e', 00H, 'n', 00H
	DB	'G', 00H, 'L', 00H, '3', 00H, '2', 00H, ' ', 00H, ']', 00H, ' '
	DB	00H, 'U', 00H, 'n', 00H, 'a', 00H, 'b', 00H, 'l', 00H, 'e', 00H
	DB	' ', 00H, 't', 00H, 'o', 00H, ' ', 00H, 'l', 00H, 'o', 00H, 'c'
	DB	00H, 'a', 00H, 't', 00H, 'e', 00H, ' ', 00H, 's', 00H, 'y', 00H
	DB	'm', 00H, 'b', 00H, 'o', 00H, 'l', 00H, ' ', 00H, ' ', 00H, '%'
	DB	00H, 's', 00H, ' ', 00H, 'i', 00H, 'n', 00H, ' ', 00H, 'O', 00H
	DB	'p', 00H, 'e', 00H, 'n', 00H, 'G', 00H, 'L', 00H, '3', 00H, '2'
	DB	00H, '.', 00H, 'd', 00H, 'l', 00H, 'l', 00H, 00H, 00H
	ORG $+2
$SG318917 DB	'g', 00H, 'l', 00H, 'E', 00H, 'v', 00H, 'a', 00H, 'l', 00H
	DB	'C', 00H, 'o', 00H, 'o', 00H, 'r', 00H, 'd', 00H, '2', 00H, 'd'
	DB	00H, 00H, 00H
$SG325062 DB	'wglChoosePixelFormat', 00H
	ORG $+3
$SG318918 DB	'[', 00H, ' ', 00H, 'O', 00H, 'p', 00H, 'e', 00H, 'n', 00H
	DB	'G', 00H, 'L', 00H, '3', 00H, '2', 00H, ' ', 00H, ']', 00H, ' '
	DB	00H, 'U', 00H, 'n', 00H, 'a', 00H, 'b', 00H, 'l', 00H, 'e', 00H
	DB	' ', 00H, 't', 00H, 'o', 00H, ' ', 00H, 'l', 00H, 'o', 00H, 'c'
	DB	00H, 'a', 00H, 't', 00H, 'e', 00H, ' ', 00H, 's', 00H, 'y', 00H
	DB	'm', 00H, 'b', 00H, 'o', 00H, 'l', 00H, ' ', 00H, ' ', 00H, '%'
	DB	00H, 's', 00H, ' ', 00H, 'i', 00H, 'n', 00H, ' ', 00H, 'O', 00H
	DB	'p', 00H, 'e', 00H, 'n', 00H, 'G', 00H, 'L', 00H, '3', 00H, '2'
	DB	00H, '.', 00H, 'd', 00H, 'l', 00H, 'l', 00H, 00H, 00H
	ORG $+2
$SG325063 DB	'wglMakeCurrent', 00H
	ORG $+1
$SG320967 DB	'glPopAttrib', 00H
$SG319943 DB	'g', 00H, 'l', 00H, 'I', 00H, 's', 00H, 'E', 00H, 'n', 00H
	DB	'a', 00H, 'b', 00H, 'l', 00H, 'e', 00H, 'd', 00H, 00H, 00H
$SG325064 DB	'wglShareLists', 00H
	ORG $+2
$SG319944 DB	'[', 00H, ' ', 00H, 'O', 00H, 'p', 00H, 'e', 00H, 'n', 00H
	DB	'G', 00H, 'L', 00H, '3', 00H, '2', 00H, ' ', 00H, ']', 00H, ' '
	DB	00H, 'U', 00H, 'n', 00H, 'a', 00H, 'b', 00H, 'l', 00H, 'e', 00H
	DB	' ', 00H, 't', 00H, 'o', 00H, ' ', 00H, 'l', 00H, 'o', 00H, 'c'
	DB	00H, 'a', 00H, 't', 00H, 'e', 00H, ' ', 00H, 's', 00H, 'y', 00H
	DB	'm', 00H, 'b', 00H, 'o', 00H, 'l', 00H, ' ', 00H, ' ', 00H, '%'
	DB	00H, 's', 00H, ' ', 00H, 'i', 00H, 'n', 00H, ' ', 00H, 'O', 00H
	DB	'p', 00H, 'e', 00H, 'n', 00H, 'G', 00H, 'L', 00H, '3', 00H, '2'
	DB	00H, '.', 00H, 'd', 00H, 'l', 00H, 'l', 00H, 00H, 00H
	ORG $+2
$SG325065 DB	'wglUseFontBitmapsA', 00H
	ORG $+1
$SG325066 DB	'wglUseFontBitmapsW', 00H
	ORG $+1
$SG325067 DB	'wglDescribeLayerPlane', 00H
	ORG $+2
$SG320971 DB	'g', 00H, 'l', 00H, 'P', 00H, 'o', 00H, 'p', 00H, 'A', 00H
	DB	't', 00H, 't', 00H, 'r', 00H, 'i', 00H, 'b', 00H, 00H, 00H
$SG324044 DB	' ', 00H, ' ', 00H, 'V', 00H, 'E', 00H, 'R', 00H, 'T', 00H
	DB	'E', 00H, 'X', 00H, ' ', 00H, ':', 00H, ' ', 00H, '<', 00H, 'U'
	DB	00H, 'n', 00H, 'u', 00H, 's', 00H, 'e', 00H, 'd', 00H, '>', 00H
	DB	0aH, 00H, 00H, 00H
	ORG $+2
$SG324043 DB	' ', 00H, ' ', 00H, 'V', 00H, 'E', 00H, 'R', 00H, 'T', 00H
	DB	'E', 00H, 'X', 00H, ' ', 00H, ':', 00H, ' ', 00H, '%', 00H, 's'
	DB	00H, ' ', 00H, ' ', 00H, ' ', 00H, '(', 00H, '%', 00H, 's', 00H
	DB	' ', 00H, 'V', 00H, 'e', 00H, 'r', 00H, 't', 00H, 's', 00H, ' '
	DB	00H, '=', 00H, '=', 00H, '>', 00H, ' ', 00H, '%', 00H, 's', 00H
	DB	' ', 00H, 'T', 00H, 'r', 00H, 'i', 00H, 'a', 00H, 'n', 00H, 'g'
	DB	00H, 'l', 00H, 'e', 00H, 's', 00H, ')', 00H, 0aH, 00H, 00H, 00H
	ORG $+2
$SG325068 DB	'wglDescribePixelFormat', 00H
	ORG $+1
$SG325069 DB	'wglGetLayerPaletteEntries', 00H
	ORG $+2
$SG320972 DB	'[', 00H, ' ', 00H, 'O', 00H, 'p', 00H, 'e', 00H, 'n', 00H
	DB	'G', 00H, 'L', 00H, '3', 00H, '2', 00H, ' ', 00H, ']', 00H, ' '
	DB	00H, 'U', 00H, 'n', 00H, 'a', 00H, 'b', 00H, 'l', 00H, 'e', 00H
	DB	' ', 00H, 't', 00H, 'o', 00H, ' ', 00H, 'l', 00H, 'o', 00H, 'c'
	DB	00H, 'a', 00H, 't', 00H, 'e', 00H, ' ', 00H, 's', 00H, 'y', 00H
	DB	'm', 00H, 'b', 00H, 'o', 00H, 'l', 00H, ' ', 00H, ' ', 00H, '%'
	DB	00H, 's', 00H, ' ', 00H, 'i', 00H, 'n', 00H, ' ', 00H, 'O', 00H
	DB	'p', 00H, 'e', 00H, 'n', 00H, 'G', 00H, 'L', 00H, '3', 00H, '2'
	DB	00H, '.', 00H, 'd', 00H, 'l', 00H, 'l', 00H, 00H, 00H
	ORG $+2
$SG325070 DB	'wglGetPixelFormat', 00H
	ORG $+2
$SG325071 DB	'wglRealizeLayerPalette', 00H
	ORG $+1
$SG324047 DB	'%', 00H, 's', 00H, ' ', 00H, ' ', 00H, 'G', 00H, 'E', 00H
	DB	'O', 00H, 'M', 00H, ' ', 00H, ' ', 00H, ' ', 00H, ':', 00H, ' '
	DB	00H, '%', 00H, 's', 00H, ' ', 00H, ' ', 00H, ' ', 00H, '(', 00H
	DB	'%', 00H, 's', 00H, ' ', 00H, 'P', 00H, 'r', 00H, 'i', 00H, 'm'
	DB	00H, 's', 00H, ')', 00H, 0aH, 00H, 00H, 00H
$SG321999 DB	'glTexCoord2f', 00H
	ORG $+3
$SG318927 DB	'glEvalCoord2dv', 00H
	ORG $+1
$SG317903 DB	'glColor3f', 00H
	ORG $+2
$SG325072 DB	'wglSetLayerPaletteEntries', 00H
	ORG $+2
$SG324048 DB	'%', 00H, 's', 00H, ' ', 00H, ' ', 00H, 'G', 00H, 'E', 00H
	DB	'O', 00H, 'M', 00H, ' ', 00H, ' ', 00H, ' ', 00H, ':', 00H, ' '
	DB	00H, '<', 00H, 'U', 00H, 'n', 00H, 'u', 00H, 's', 00H, 'e', 00H
	DB	'd', 00H, '>', 00H, 0aH, 00H, 00H, 00H
	ORG $+2
$SG325073 DB	'wglSetPixelFormat', 00H
	ORG $+2
$SG319953 DB	'glIsList', 00H
	ORG $+3
$SG325074 DB	'wglSwapMultipleBuffers', 00H
	ORG $+1
$SG323027 DB	'glVertex4d', 00H
	ORG $+1
$SG325075 DB	'[', 00H, ' ', 00H, 'O', 00H, 'p', 00H, 'e', 00H, 'n', 00H
	DB	'G', 00H, 'L', 00H, '3', 00H, '2', 00H, ' ', 00H, ']', 00H, ' '
	DB	00H, ' ', 00H, '@', 00H, ' ', 00H, '%', 00H, 'l', 00H, 'u', 00H
	DB	' ', 00H, 'f', 00H, 'u', 00H, 'n', 00H, 'c', 00H, 't', 00H, 'i'
	DB	00H, 'o', 00H, 'n', 00H, 's', 00H, ' ', 00H, 'h', 00H, 'o', 00H
	DB	'o', 00H, 'k', 00H, 'e', 00H, 'd', 00H, 00H, 00H
	ORG $+2
$SG322003 DB	'g', 00H, 'l', 00H, 'T', 00H, 'e', 00H, 'x', 00H, 'C', 00H
	DB	'o', 00H, 'o', 00H, 'r', 00H, 'd', 00H, '2', 00H, 'f', 00H, 00H
	DB	00H
	ORG $+2
$SG318931 DB	'g', 00H, 'l', 00H, 'E', 00H, 'v', 00H, 'a', 00H, 'l', 00H
	DB	'C', 00H, 'o', 00H, 'o', 00H, 'r', 00H, 'd', 00H, '2', 00H, 'd'
	DB	00H, 'v', 00H, 00H, 00H
	ORG $+2
$SG317907 DB	'g', 00H, 'l', 00H, 'C', 00H, 'o', 00H, 'l', 00H, 'o', 00H
	DB	'r', 00H, '3', 00H, 'f', 00H, 00H, 00H
$SG320981 DB	'glPopClientAttrib', 00H
	ORG $+2
$SG324052 DB	'%', 00H, 's', 00H, ' ', 00H, ' ', 00H, 'T', 00H, 'E', 00H
	DB	'S', 00H, 'S', 00H, ' ', 00H, ' ', 00H, ' ', 00H, ':', 00H, ' '
	DB	00H, '%', 00H, 's', 00H, ' ', 00H, 'H', 00H, 'u', 00H, 'l', 00H
	DB	'l', 00H, ' ', 00H, '=', 00H, '=', 00H, '>', 00H, ' ', 00H, '%'
	DB	00H, 's', 00H, ' ', 00H, 'D', 00H, 'o', 00H, 'm', 00H, 'a', 00H
	DB	'i', 00H, 'n', 00H, 0aH, 00H, 00H, 00H
$SG322004 DB	'[', 00H, ' ', 00H, 'O', 00H, 'p', 00H, 'e', 00H, 'n', 00H
	DB	'G', 00H, 'L', 00H, '3', 00H, '2', 00H, ' ', 00H, ']', 00H, ' '
	DB	00H, 'U', 00H, 'n', 00H, 'a', 00H, 'b', 00H, 'l', 00H, 'e', 00H
	DB	' ', 00H, 't', 00H, 'o', 00H, ' ', 00H, 'l', 00H, 'o', 00H, 'c'
	DB	00H, 'a', 00H, 't', 00H, 'e', 00H, ' ', 00H, 's', 00H, 'y', 00H
	DB	'm', 00H, 'b', 00H, 'o', 00H, 'l', 00H, ' ', 00H, ' ', 00H, '%'
	DB	00H, 's', 00H, ' ', 00H, 'i', 00H, 'n', 00H, ' ', 00H, 'O', 00H
	DB	'p', 00H, 'e', 00H, 'n', 00H, 'G', 00H, 'L', 00H, '3', 00H, '2'
	DB	00H, '.', 00H, 'd', 00H, 'l', 00H, 'l', 00H, 00H, 00H
	ORG $+2
$SG319957 DB	'g', 00H, 'l', 00H, 'I', 00H, 's', 00H, 'L', 00H, 'i', 00H
	DB	's', 00H, 't', 00H, 00H, 00H
	ORG $+2
$SG318932 DB	'[', 00H, ' ', 00H, 'O', 00H, 'p', 00H, 'e', 00H, 'n', 00H
	DB	'G', 00H, 'L', 00H, '3', 00H, '2', 00H, ' ', 00H, ']', 00H, ' '
	DB	00H, 'U', 00H, 'n', 00H, 'a', 00H, 'b', 00H, 'l', 00H, 'e', 00H
	DB	' ', 00H, 't', 00H, 'o', 00H, ' ', 00H, 'l', 00H, 'o', 00H, 'c'
	DB	00H, 'a', 00H, 't', 00H, 'e', 00H, ' ', 00H, 's', 00H, 'y', 00H
	DB	'm', 00H, 'b', 00H, 'o', 00H, 'l', 00H, ' ', 00H, ' ', 00H, '%'
	DB	00H, 's', 00H, ' ', 00H, 'i', 00H, 'n', 00H, ' ', 00H, 'O', 00H
	DB	'p', 00H, 'e', 00H, 'n', 00H, 'G', 00H, 'L', 00H, '3', 00H, '2'
	DB	00H, '.', 00H, 'd', 00H, 'l', 00H, 'l', 00H, 00H, 00H
	ORG $+2
$SG320985 DB	'g', 00H, 'l', 00H, 'P', 00H, 'o', 00H, 'p', 00H, 'C', 00H
	DB	'l', 00H, 'i', 00H, 'e', 00H, 'n', 00H, 't', 00H, 'A', 00H, 't'
	DB	00H, 't', 00H, 'r', 00H, 'i', 00H, 'b', 00H, 00H, 00H
$SG317908 DB	'[', 00H, ' ', 00H, 'O', 00H, 'p', 00H, 'e', 00H, 'n', 00H
	DB	'G', 00H, 'L', 00H, '3', 00H, '2', 00H, ' ', 00H, ']', 00H, ' '
	DB	00H, 'U', 00H, 'n', 00H, 'a', 00H, 'b', 00H, 'l', 00H, 'e', 00H
	DB	' ', 00H, 't', 00H, 'o', 00H, ' ', 00H, 'l', 00H, 'o', 00H, 'c'
	DB	00H, 'a', 00H, 't', 00H, 'e', 00H, ' ', 00H, 's', 00H, 'y', 00H
	DB	'm', 00H, 'b', 00H, 'o', 00H, 'l', 00H, ' ', 00H, ' ', 00H, '%'
	DB	00H, 's', 00H, ' ', 00H, 'i', 00H, 'n', 00H, ' ', 00H, 'O', 00H
	DB	'p', 00H, 'e', 00H, 'n', 00H, 'G', 00H, 'L', 00H, '3', 00H, '2'
	DB	00H, '.', 00H, 'd', 00H, 'l', 00H, 'l', 00H, 00H, 00H
	ORG $+2
$SG324053 DB	'%', 00H, 's', 00H, ' ', 00H, ' ', 00H, 'T', 00H, 'E', 00H
	DB	'S', 00H, 'S', 00H, ' ', 00H, ' ', 00H, ' ', 00H, ':', 00H, ' '
	DB	00H, '<', 00H, 'U', 00H, 'n', 00H, 'u', 00H, 's', 00H, 'e', 00H
	DB	'd', 00H, '>', 00H, 0aH, 00H, 00H, 00H
	ORG $+2
$SG317917 DB	'glColor3fv', 00H
	ORG $+1
$SG319958 DB	'[', 00H, ' ', 00H, 'O', 00H, 'p', 00H, 'e', 00H, 'n', 00H
	DB	'G', 00H, 'L', 00H, '3', 00H, '2', 00H, ' ', 00H, ']', 00H, ' '
	DB	00H, 'U', 00H, 'n', 00H, 'a', 00H, 'b', 00H, 'l', 00H, 'e', 00H
	DB	' ', 00H, 't', 00H, 'o', 00H, ' ', 00H, 'l', 00H, 'o', 00H, 'c'
	DB	00H, 'a', 00H, 't', 00H, 'e', 00H, ' ', 00H, 's', 00H, 'y', 00H
	DB	'm', 00H, 'b', 00H, 'o', 00H, 'l', 00H, ' ', 00H, ' ', 00H, '%'
	DB	00H, 's', 00H, ' ', 00H, 'i', 00H, 'n', 00H, ' ', 00H, 'O', 00H
	DB	'p', 00H, 'e', 00H, 'n', 00H, 'G', 00H, 'L', 00H, '3', 00H, '2'
	DB	00H, '.', 00H, 'd', 00H, 'l', 00H, 'l', 00H, 00H, 00H
	ORG $+2
$SG323031 DB	'g', 00H, 'l', 00H, 'V', 00H, 'e', 00H, 'r', 00H, 't', 00H
	DB	'e', 00H, 'x', 00H, '4', 00H, 'd', 00H, 00H, 00H
	ORG $+2
$SG319967 DB	'glIsTexture', 00H
$SG324056 DB	'%', 00H, 's', 00H, ' ', 00H, ' ', 00H, 'R', 00H, 'A', 00H
	DB	'S', 00H, 'T', 00H, 'E', 00H, 'R', 00H, ' ', 00H, ':', 00H, ' '
	DB	00H, '%', 00H, '5', 00H, '.', 00H, '1', 00H, 'f', 00H, '%', 00H
	DB	'%', 00H, ' ', 00H, 'F', 00H, 'i', 00H, 'l', 00H, 'l', 00H, 'e'
	DB	00H, 'd', 00H, ' ', 00H, ' ', 00H, ' ', 00H, ' ', 00H, ' ', 00H
	DB	'(', 00H, '%', 00H, 's', 00H, ' ', 00H, 'T', 00H, 'r', 00H, 'i'
	DB	00H, 'a', 00H, 'n', 00H, 'g', 00H, 'l', 00H, 'e', 00H, 's', 00H
	DB	' ', 00H, 'I', 00H, 'N', 00H, ' ', 00H, ')', 00H, 0aH, 00H, 00H
	DB	00H
$SG323032 DB	'[', 00H, ' ', 00H, 'O', 00H, 'p', 00H, 'e', 00H, 'n', 00H
	DB	'G', 00H, 'L', 00H, '3', 00H, '2', 00H, ' ', 00H, ']', 00H, ' '
	DB	00H, 'U', 00H, 'n', 00H, 'a', 00H, 'b', 00H, 'l', 00H, 'e', 00H
	DB	' ', 00H, 't', 00H, 'o', 00H, ' ', 00H, 'l', 00H, 'o', 00H, 'c'
	DB	00H, 'a', 00H, 't', 00H, 'e', 00H, ' ', 00H, 's', 00H, 'y', 00H
	DB	'm', 00H, 'b', 00H, 'o', 00H, 'l', 00H, ' ', 00H, ' ', 00H, '%'
	DB	00H, 's', 00H, ' ', 00H, 'i', 00H, 'n', 00H, ' ', 00H, 'O', 00H
	DB	'p', 00H, 'e', 00H, 'n', 00H, 'G', 00H, 'L', 00H, '3', 00H, '2'
	DB	00H, '.', 00H, 'd', 00H, 'l', 00H, 'l', 00H, 00H, 00H
	ORG $+2
$SG324057 DB	'%', 00H, 's', 00H, ' ', 00H, ' ', 00H, 'R', 00H, 'A', 00H
	DB	'S', 00H, 'T', 00H, 'E', 00H, 'R', 00H, ' ', 00H, ':', 00H, ' '
	DB	00H, '<', 00H, 'U', 00H, 'n', 00H, 'u', 00H, 's', 00H, 'e', 00H
	DB	'd', 00H, '>', 00H, 0aH, 00H, 00H, 00H
	ORG $+2
$SG324064 DB	'%', 00H, 's', 00H, ' ', 00H, ' ', 00H, 'C', 00H, 'O', 00H
	DB	'M', 00H, 'P', 00H, 'U', 00H, 'T', 00H, 'E', 00H, ':', 00H, ' '
	DB	00H, '%', 00H, 's', 00H, 0aH, 00H, 00H, 00H
	ORG $+2
$SG320986 DB	'[', 00H, ' ', 00H, 'O', 00H, 'p', 00H, 'e', 00H, 'n', 00H
	DB	'G', 00H, 'L', 00H, '3', 00H, '2', 00H, ' ', 00H, ']', 00H, ' '
	DB	00H, 'U', 00H, 'n', 00H, 'a', 00H, 'b', 00H, 'l', 00H, 'e', 00H
	DB	' ', 00H, 't', 00H, 'o', 00H, ' ', 00H, 'l', 00H, 'o', 00H, 'c'
	DB	00H, 'a', 00H, 't', 00H, 'e', 00H, ' ', 00H, 's', 00H, 'y', 00H
	DB	'm', 00H, 'b', 00H, 'o', 00H, 'l', 00H, ' ', 00H, ' ', 00H, '%'
	DB	00H, 's', 00H, ' ', 00H, 'i', 00H, 'n', 00H, ' ', 00H, 'O', 00H
	DB	'p', 00H, 'e', 00H, 'n', 00H, 'G', 00H, 'L', 00H, '3', 00H, '2'
	DB	00H, '.', 00H, 'd', 00H, 'l', 00H, 'l', 00H, 00H, 00H
	ORG $+2
$SG323041 DB	'glVertex4dv', 00H
$SG324060 DB	'%', 00H, 's', 00H, ' ', 00H, ' ', 00H, 'P', 00H, 'I', 00H
	DB	'X', 00H, 'E', 00H, 'L', 00H, ' ', 00H, ' ', 00H, ':', 00H, ' '
	DB	00H, '%', 00H, 's', 00H, ' ', 00H, ' ', 00H, ' ', 00H, '(', 00H
	DB	'%', 00H, 's', 00H, ' ', 00H, 'T', 00H, 'r', 00H, 'i', 00H, 'a'
	DB	00H, 'n', 00H, 'g', 00H, 'l', 00H, 'e', 00H, 's', 00H, ' ', 00H
	DB	'O', 00H, 'U', 00H, 'T', 00H, ')', 00H, 0aH, 00H, 00H, 00H
$SG324061 DB	'%', 00H, 's', 00H, ' ', 00H, ' ', 00H, 'P', 00H, 'I', 00H
	DB	'X', 00H, 'E', 00H, 'L', 00H, ' ', 00H, ' ', 00H, ':', 00H, ' '
	DB	00H, '<', 00H, 'U', 00H, 'n', 00H, 'u', 00H, 's', 00H, 'e', 00H
	DB	'd', 00H, '>', 00H, 0aH, 00H, 00H, 00H
	ORG $+2
$SG322013 DB	'glTexCoord2fv', 00H
	ORG $+2
$SG318943 DB	'glEvalCoord2f', 00H
	ORG $+2
$SG324065 DB	'%', 00H, 's', 00H, ' ', 00H, ' ', 00H, 'C', 00H, 'O', 00H
	DB	'M', 00H, 'P', 00H, 'U', 00H, 'T', 00H, 'E', 00H, ':', 00H, ' '
	DB	00H, '<', 00H, 'U', 00H, 'n', 00H, 'u', 00H, 's', 00H, 'e', 00H
	DB	'd', 00H, '>', 00H, 0aH, 00H, 00H, 00H
	ORG $+2
$SG322017 DB	'g', 00H, 'l', 00H, 'T', 00H, 'e', 00H, 'x', 00H, 'C', 00H
	DB	'o', 00H, 'o', 00H, 'r', 00H, 'd', 00H, '2', 00H, 'f', 00H, 'v'
	DB	00H, 00H, 00H
$SG317921 DB	'g', 00H, 'l', 00H, 'C', 00H, 'o', 00H, 'l', 00H, 'o', 00H
	DB	'r', 00H, '3', 00H, 'f', 00H, 'v', 00H, 00H, 00H
	ORG $+2
$SG322018 DB	'[', 00H, ' ', 00H, 'O', 00H, 'p', 00H, 'e', 00H, 'n', 00H
	DB	'G', 00H, 'L', 00H, '3', 00H, '2', 00H, ' ', 00H, ']', 00H, ' '
	DB	00H, 'U', 00H, 'n', 00H, 'a', 00H, 'b', 00H, 'l', 00H, 'e', 00H
	DB	' ', 00H, 't', 00H, 'o', 00H, ' ', 00H, 'l', 00H, 'o', 00H, 'c'
	DB	00H, 'a', 00H, 't', 00H, 'e', 00H, ' ', 00H, 's', 00H, 'y', 00H
	DB	'm', 00H, 'b', 00H, 'o', 00H, 'l', 00H, ' ', 00H, ' ', 00H, '%'
	DB	00H, 's', 00H, ' ', 00H, 'i', 00H, 'n', 00H, ' ', 00H, 'O', 00H
	DB	'p', 00H, 'e', 00H, 'n', 00H, 'G', 00H, 'L', 00H, '3', 00H, '2'
	DB	00H, '.', 00H, 'd', 00H, 'l', 00H, 'l', 00H, 00H, 00H
	ORG $+2
$SG320995 DB	'glPopMatrix', 00H
$SG317922 DB	'[', 00H, ' ', 00H, 'O', 00H, 'p', 00H, 'e', 00H, 'n', 00H
	DB	'G', 00H, 'L', 00H, '3', 00H, '2', 00H, ' ', 00H, ']', 00H, ' '
	DB	00H, 'U', 00H, 'n', 00H, 'a', 00H, 'b', 00H, 'l', 00H, 'e', 00H
	DB	' ', 00H, 't', 00H, 'o', 00H, ' ', 00H, 'l', 00H, 'o', 00H, 'c'
	DB	00H, 'a', 00H, 't', 00H, 'e', 00H, ' ', 00H, 's', 00H, 'y', 00H
	DB	'm', 00H, 'b', 00H, 'o', 00H, 'l', 00H, ' ', 00H, ' ', 00H, '%'
	DB	00H, 's', 00H, ' ', 00H, 'i', 00H, 'n', 00H, ' ', 00H, 'O', 00H
	DB	'p', 00H, 'e', 00H, 'n', 00H, 'G', 00H, 'L', 00H, '3', 00H, '2'
	DB	00H, '.', 00H, 'd', 00H, 'l', 00H, 'l', 00H, 00H, 00H
	ORG $+2
$SG319971 DB	'g', 00H, 'l', 00H, 'I', 00H, 's', 00H, 'T', 00H, 'e', 00H
	DB	'x', 00H, 't', 00H, 'u', 00H, 'r', 00H, 'e', 00H, 00H, 00H
$SG318947 DB	'g', 00H, 'l', 00H, 'E', 00H, 'v', 00H, 'a', 00H, 'l', 00H
	DB	'C', 00H, 'o', 00H, 'o', 00H, 'r', 00H, 'd', 00H, '2', 00H, 'f'
	DB	00H, 00H, 00H
$SG319972 DB	'[', 00H, ' ', 00H, 'O', 00H, 'p', 00H, 'e', 00H, 'n', 00H
	DB	'G', 00H, 'L', 00H, '3', 00H, '2', 00H, ' ', 00H, ']', 00H, ' '
	DB	00H, 'U', 00H, 'n', 00H, 'a', 00H, 'b', 00H, 'l', 00H, 'e', 00H
	DB	' ', 00H, 't', 00H, 'o', 00H, ' ', 00H, 'l', 00H, 'o', 00H, 'c'
	DB	00H, 'a', 00H, 't', 00H, 'e', 00H, ' ', 00H, 's', 00H, 'y', 00H
	DB	'm', 00H, 'b', 00H, 'o', 00H, 'l', 00H, ' ', 00H, ' ', 00H, '%'
	DB	00H, 's', 00H, ' ', 00H, 'i', 00H, 'n', 00H, ' ', 00H, 'O', 00H
	DB	'p', 00H, 'e', 00H, 'n', 00H, 'G', 00H, 'L', 00H, '3', 00H, '2'
	DB	00H, '.', 00H, 'd', 00H, 'l', 00H, 'l', 00H, 00H, 00H
	ORG $+2
$SG323045 DB	'g', 00H, 'l', 00H, 'V', 00H, 'e', 00H, 'r', 00H, 't', 00H
	DB	'e', 00H, 'x', 00H, '4', 00H, 'd', 00H, 'v', 00H, 00H, 00H
$SG317935 DB	'glColor3i', 00H
	ORG $+2
$SG318948 DB	'[', 00H, ' ', 00H, 'O', 00H, 'p', 00H, 'e', 00H, 'n', 00H
	DB	'G', 00H, 'L', 00H, '3', 00H, '2', 00H, ' ', 00H, ']', 00H, ' '
	DB	00H, 'U', 00H, 'n', 00H, 'a', 00H, 'b', 00H, 'l', 00H, 'e', 00H
	DB	' ', 00H, 't', 00H, 'o', 00H, ' ', 00H, 'l', 00H, 'o', 00H, 'c'
	DB	00H, 'a', 00H, 't', 00H, 'e', 00H, ' ', 00H, 's', 00H, 'y', 00H
	DB	'm', 00H, 'b', 00H, 'o', 00H, 'l', 00H, ' ', 00H, ' ', 00H, '%'
	DB	00H, 's', 00H, ' ', 00H, 'i', 00H, 'n', 00H, ' ', 00H, 'O', 00H
	DB	'p', 00H, 'e', 00H, 'n', 00H, 'G', 00H, 'L', 00H, '3', 00H, '2'
	DB	00H, '.', 00H, 'd', 00H, 'l', 00H, 'l', 00H, 00H, 00H
	ORG $+2
$SG320999 DB	'g', 00H, 'l', 00H, 'P', 00H, 'o', 00H, 'p', 00H, 'M', 00H
	DB	'a', 00H, 't', 00H, 'r', 00H, 'i', 00H, 'x', 00H, 00H, 00H
$SG322033 DB	'g', 00H, 'l', 00H, 'T', 00H, 'e', 00H, 'x', 00H, 'C', 00H
	DB	'o', 00H, 'o', 00H, 'r', 00H, 'd', 00H, '2', 00H, 'i', 00H, 00H
	DB	00H
	ORG $+2
$SG323046 DB	'[', 00H, ' ', 00H, 'O', 00H, 'p', 00H, 'e', 00H, 'n', 00H
	DB	'G', 00H, 'L', 00H, '3', 00H, '2', 00H, ' ', 00H, ']', 00H, ' '
	DB	00H, 'U', 00H, 'n', 00H, 'a', 00H, 'b', 00H, 'l', 00H, 'e', 00H
	DB	' ', 00H, 't', 00H, 'o', 00H, ' ', 00H, 'l', 00H, 'o', 00H, 'c'
	DB	00H, 'a', 00H, 't', 00H, 'e', 00H, ' ', 00H, 's', 00H, 'y', 00H
	DB	'm', 00H, 'b', 00H, 'o', 00H, 'l', 00H, ' ', 00H, ' ', 00H, '%'
	DB	00H, 's', 00H, ' ', 00H, 'i', 00H, 'n', 00H, ' ', 00H, 'O', 00H
	DB	'p', 00H, 'e', 00H, 'n', 00H, 'G', 00H, 'L', 00H, '3', 00H, '2'
	DB	00H, '.', 00H, 'd', 00H, 'l', 00H, 'l', 00H, 00H, 00H
	ORG $+2
$SG318957 DB	'glEvalCoord2fv', 00H
	ORG $+1
$SG321009 DB	'glPopName', 00H
	ORG $+2
$SG321000 DB	'[', 00H, ' ', 00H, 'O', 00H, 'p', 00H, 'e', 00H, 'n', 00H
	DB	'G', 00H, 'L', 00H, '3', 00H, '2', 00H, ' ', 00H, ']', 00H, ' '
	DB	00H, 'U', 00H, 'n', 00H, 'a', 00H, 'b', 00H, 'l', 00H, 'e', 00H
	DB	' ', 00H, 't', 00H, 'o', 00H, ' ', 00H, 'l', 00H, 'o', 00H, 'c'
	DB	00H, 'a', 00H, 't', 00H, 'e', 00H, ' ', 00H, 's', 00H, 'y', 00H
	DB	'm', 00H, 'b', 00H, 'o', 00H, 'l', 00H, ' ', 00H, ' ', 00H, '%'
	DB	00H, 's', 00H, ' ', 00H, 'i', 00H, 'n', 00H, ' ', 00H, 'O', 00H
	DB	'p', 00H, 'e', 00H, 'n', 00H, 'G', 00H, 'L', 00H, '3', 00H, '2'
	DB	00H, '.', 00H, 'd', 00H, 'l', 00H, 'l', 00H, 00H, 00H
	ORG $+2
$SG322029 DB	'glTexCoord2i', 00H
	ORG $+3
$SG319983 DB	'glLightModelf', 00H
	ORG $+2
$SG318961 DB	'g', 00H, 'l', 00H, 'E', 00H, 'v', 00H, 'a', 00H, 'l', 00H
	DB	'C', 00H, 'o', 00H, 'o', 00H, 'r', 00H, 'd', 00H, '2', 00H, 'f'
	DB	00H, 'v', 00H, 00H, 00H
	ORG $+2
$SG319987 DB	'g', 00H, 'l', 00H, 'L', 00H, 'i', 00H, 'g', 00H, 'h', 00H
	DB	't', 00H, 'M', 00H, 'o', 00H, 'd', 00H, 'e', 00H, 'l', 00H, 'f'
	DB	00H, 00H, 00H
$SG322034 DB	'[', 00H, ' ', 00H, 'O', 00H, 'p', 00H, 'e', 00H, 'n', 00H
	DB	'G', 00H, 'L', 00H, '3', 00H, '2', 00H, ' ', 00H, ']', 00H, ' '
	DB	00H, 'U', 00H, 'n', 00H, 'a', 00H, 'b', 00H, 'l', 00H, 'e', 00H
	DB	' ', 00H, 't', 00H, 'o', 00H, ' ', 00H, 'l', 00H, 'o', 00H, 'c'
	DB	00H, 'a', 00H, 't', 00H, 'e', 00H, ' ', 00H, 's', 00H, 'y', 00H
	DB	'm', 00H, 'b', 00H, 'o', 00H, 'l', 00H, ' ', 00H, ' ', 00H, '%'
	DB	00H, 's', 00H, ' ', 00H, 'i', 00H, 'n', 00H, ' ', 00H, 'O', 00H
	DB	'p', 00H, 'e', 00H, 'n', 00H, 'G', 00H, 'L', 00H, '3', 00H, '2'
	DB	00H, '.', 00H, 'd', 00H, 'l', 00H, 'l', 00H, 00H, 00H
	ORG $+2
$SG317939 DB	'g', 00H, 'l', 00H, 'C', 00H, 'o', 00H, 'l', 00H, 'o', 00H
	DB	'r', 00H, '3', 00H, 'i', 00H, 00H, 00H
$SG318962 DB	'[', 00H, ' ', 00H, 'O', 00H, 'p', 00H, 'e', 00H, 'n', 00H
	DB	'G', 00H, 'L', 00H, '3', 00H, '2', 00H, ' ', 00H, ']', 00H, ' '
	DB	00H, 'U', 00H, 'n', 00H, 'a', 00H, 'b', 00H, 'l', 00H, 'e', 00H
	DB	' ', 00H, 't', 00H, 'o', 00H, ' ', 00H, 'l', 00H, 'o', 00H, 'c'
	DB	00H, 'a', 00H, 't', 00H, 'e', 00H, ' ', 00H, 's', 00H, 'y', 00H
	DB	'm', 00H, 'b', 00H, 'o', 00H, 'l', 00H, ' ', 00H, ' ', 00H, '%'
	DB	00H, 's', 00H, ' ', 00H, 'i', 00H, 'n', 00H, ' ', 00H, 'O', 00H
	DB	'p', 00H, 'e', 00H, 'n', 00H, 'G', 00H, 'L', 00H, '3', 00H, '2'
	DB	00H, '.', 00H, 'd', 00H, 'l', 00H, 'l', 00H, 00H, 00H
	ORG $+2
$SG323061 DB	'glVertex4f', 00H
	ORG $+1
$SG319988 DB	'[', 00H, ' ', 00H, 'O', 00H, 'p', 00H, 'e', 00H, 'n', 00H
	DB	'G', 00H, 'L', 00H, '3', 00H, '2', 00H, ' ', 00H, ']', 00H, ' '
	DB	00H, 'U', 00H, 'n', 00H, 'a', 00H, 'b', 00H, 'l', 00H, 'e', 00H
	DB	' ', 00H, 't', 00H, 'o', 00H, ' ', 00H, 'l', 00H, 'o', 00H, 'c'
	DB	00H, 'a', 00H, 't', 00H, 'e', 00H, ' ', 00H, 's', 00H, 'y', 00H
	DB	'm', 00H, 'b', 00H, 'o', 00H, 'l', 00H, ' ', 00H, ' ', 00H, '%'
	DB	00H, 's', 00H, ' ', 00H, 'i', 00H, 'n', 00H, ' ', 00H, 'O', 00H
	DB	'p', 00H, 'e', 00H, 'n', 00H, 'G', 00H, 'L', 00H, '3', 00H, '2'
	DB	00H, '.', 00H, 'd', 00H, 'l', 00H, 'l', 00H, 00H, 00H
	ORG $+2
$SG321013 DB	'g', 00H, 'l', 00H, 'P', 00H, 'o', 00H, 'p', 00H, 'N', 00H
	DB	'a', 00H, 'm', 00H, 'e', 00H, 00H, 00H
$SG317940 DB	'[', 00H, ' ', 00H, 'O', 00H, 'p', 00H, 'e', 00H, 'n', 00H
	DB	'G', 00H, 'L', 00H, '3', 00H, '2', 00H, ' ', 00H, ']', 00H, ' '
	DB	00H, 'U', 00H, 'n', 00H, 'a', 00H, 'b', 00H, 'l', 00H, 'e', 00H
	DB	' ', 00H, 't', 00H, 'o', 00H, ' ', 00H, 'l', 00H, 'o', 00H, 'c'
	DB	00H, 'a', 00H, 't', 00H, 'e', 00H, ' ', 00H, 's', 00H, 'y', 00H
	DB	'm', 00H, 'b', 00H, 'o', 00H, 'l', 00H, ' ', 00H, ' ', 00H, '%'
	DB	00H, 's', 00H, ' ', 00H, 'i', 00H, 'n', 00H, ' ', 00H, 'O', 00H
	DB	'p', 00H, 'e', 00H, 'n', 00H, 'G', 00H, 'L', 00H, '3', 00H, '2'
	DB	00H, '.', 00H, 'd', 00H, 'l', 00H, 'l', 00H, 00H, 00H
	ORG $+2
$SG317949 DB	'glColor3iv', 00H
	ORG $+1
$SG321014 DB	'[', 00H, ' ', 00H, 'O', 00H, 'p', 00H, 'e', 00H, 'n', 00H
	DB	'G', 00H, 'L', 00H, '3', 00H, '2', 00H, ' ', 00H, ']', 00H, ' '
	DB	00H, 'U', 00H, 'n', 00H, 'a', 00H, 'b', 00H, 'l', 00H, 'e', 00H
	DB	' ', 00H, 't', 00H, 'o', 00H, ' ', 00H, 'l', 00H, 'o', 00H, 'c'
	DB	00H, 'a', 00H, 't', 00H, 'e', 00H, ' ', 00H, 's', 00H, 'y', 00H
	DB	'm', 00H, 'b', 00H, 'o', 00H, 'l', 00H, ' ', 00H, ' ', 00H, '%'
	DB	00H, 's', 00H, ' ', 00H, 'i', 00H, 'n', 00H, ' ', 00H, 'O', 00H
	DB	'p', 00H, 'e', 00H, 'n', 00H, 'G', 00H, 'L', 00H, '3', 00H, '2'
	DB	00H, '.', 00H, 'd', 00H, 'l', 00H, 'l', 00H, 00H, 00H
	ORG $+2
$SG323065 DB	'g', 00H, 'l', 00H, 'V', 00H, 'e', 00H, 'r', 00H, 't', 00H
	DB	'e', 00H, 'x', 00H, '4', 00H, 'f', 00H, 00H, 00H
	ORG $+2
$SG322047 DB	'g', 00H, 'l', 00H, 'T', 00H, 'e', 00H, 'x', 00H, 'C', 00H
	DB	'o', 00H, 'o', 00H, 'r', 00H, 'd', 00H, '2', 00H, 'i', 00H, 'v'
	DB	00H, 00H, 00H
$SG323066 DB	'[', 00H, ' ', 00H, 'O', 00H, 'p', 00H, 'e', 00H, 'n', 00H
	DB	'G', 00H, 'L', 00H, '3', 00H, '2', 00H, ' ', 00H, ']', 00H, ' '
	DB	00H, 'U', 00H, 'n', 00H, 'a', 00H, 'b', 00H, 'l', 00H, 'e', 00H
	DB	' ', 00H, 't', 00H, 'o', 00H, ' ', 00H, 'l', 00H, 'o', 00H, 'c'
	DB	00H, 'a', 00H, 't', 00H, 'e', 00H, ' ', 00H, 's', 00H, 'y', 00H
	DB	'm', 00H, 'b', 00H, 'o', 00H, 'l', 00H, ' ', 00H, ' ', 00H, '%'
	DB	00H, 's', 00H, ' ', 00H, 'i', 00H, 'n', 00H, ' ', 00H, 'O', 00H
	DB	'p', 00H, 'e', 00H, 'n', 00H, 'G', 00H, 'L', 00H, '3', 00H, '2'
	DB	00H, '.', 00H, 'd', 00H, 'l', 00H, 'l', 00H, 00H, 00H
	ORG $+2
$SG322043 DB	'glTexCoord2iv', 00H
	ORG $+2
$SG319999 DB	'glLightModelfv', 00H
	ORG $+1
$SG318975 DB	'glEvalMesh1', 00H
$SG322048 DB	'[', 00H, ' ', 00H, 'O', 00H, 'p', 00H, 'e', 00H, 'n', 00H
	DB	'G', 00H, 'L', 00H, '3', 00H, '2', 00H, ' ', 00H, ']', 00H, ' '
	DB	00H, 'U', 00H, 'n', 00H, 'a', 00H, 'b', 00H, 'l', 00H, 'e', 00H
	DB	' ', 00H, 't', 00H, 'o', 00H, ' ', 00H, 'l', 00H, 'o', 00H, 'c'
	DB	00H, 'a', 00H, 't', 00H, 'e', 00H, ' ', 00H, 's', 00H, 'y', 00H
	DB	'm', 00H, 'b', 00H, 'o', 00H, 'l', 00H, ' ', 00H, ' ', 00H, '%'
	DB	00H, 's', 00H, ' ', 00H, 'i', 00H, 'n', 00H, ' ', 00H, 'O', 00H
	DB	'p', 00H, 'e', 00H, 'n', 00H, 'G', 00H, 'L', 00H, '3', 00H, '2'
	DB	00H, '.', 00H, 'd', 00H, 'l', 00H, 'l', 00H, 00H, 00H
	ORG $+2
$SG317953 DB	'g', 00H, 'l', 00H, 'C', 00H, 'o', 00H, 'l', 00H, 'o', 00H
	DB	'r', 00H, '3', 00H, 'i', 00H, 'v', 00H, 00H, 00H
	ORG $+2
$SG323075 DB	'glVertex4fv', 00H
$SG317954 DB	'[', 00H, ' ', 00H, 'O', 00H, 'p', 00H, 'e', 00H, 'n', 00H
	DB	'G', 00H, 'L', 00H, '3', 00H, '2', 00H, ' ', 00H, ']', 00H, ' '
	DB	00H, 'U', 00H, 'n', 00H, 'a', 00H, 'b', 00H, 'l', 00H, 'e', 00H
	DB	' ', 00H, 't', 00H, 'o', 00H, ' ', 00H, 'l', 00H, 'o', 00H, 'c'
	DB	00H, 'a', 00H, 't', 00H, 'e', 00H, ' ', 00H, 's', 00H, 'y', 00H
	DB	'm', 00H, 'b', 00H, 'o', 00H, 'l', 00H, ' ', 00H, ' ', 00H, '%'
	DB	00H, 's', 00H, ' ', 00H, 'i', 00H, 'n', 00H, ' ', 00H, 'O', 00H
	DB	'p', 00H, 'e', 00H, 'n', 00H, 'G', 00H, 'L', 00H, '3', 00H, '2'
	DB	00H, '.', 00H, 'd', 00H, 'l', 00H, 'l', 00H, 00H, 00H
	ORG $+2
$SG321027 DB	'glPrioritizeTextures', 00H
	ORG $+3
$SG320003 DB	'g', 00H, 'l', 00H, 'L', 00H, 'i', 00H, 'g', 00H, 'h', 00H
	DB	't', 00H, 'M', 00H, 'o', 00H, 'd', 00H, 'e', 00H, 'l', 00H, 'f'
	DB	00H, 'v', 00H, 00H, 00H
	ORG $+2
$SG318979 DB	'g', 00H, 'l', 00H, 'E', 00H, 'v', 00H, 'a', 00H, 'l', 00H
	DB	'M', 00H, 'e', 00H, 's', 00H, 'h', 00H, '1', 00H, 00H, 00H
$SG321031 DB	'g', 00H, 'l', 00H, 'P', 00H, 'r', 00H, 'i', 00H, 'o', 00H
	DB	'r', 00H, 'i', 00H, 't', 00H, 'i', 00H, 'z', 00H, 'e', 00H, 'T'
	DB	00H, 'e', 00H, 'x', 00H, 't', 00H, 'u', 00H, 'r', 00H, 'e', 00H
	DB	's', 00H, 00H, 00H
	ORG $+2
$SG320004 DB	'[', 00H, ' ', 00H, 'O', 00H, 'p', 00H, 'e', 00H, 'n', 00H
	DB	'G', 00H, 'L', 00H, '3', 00H, '2', 00H, ' ', 00H, ']', 00H, ' '
	DB	00H, 'U', 00H, 'n', 00H, 'a', 00H, 'b', 00H, 'l', 00H, 'e', 00H
	DB	' ', 00H, 't', 00H, 'o', 00H, ' ', 00H, 'l', 00H, 'o', 00H, 'c'
	DB	00H, 'a', 00H, 't', 00H, 'e', 00H, ' ', 00H, 's', 00H, 'y', 00H
	DB	'm', 00H, 'b', 00H, 'o', 00H, 'l', 00H, ' ', 00H, ' ', 00H, '%'
	DB	00H, 's', 00H, ' ', 00H, 'i', 00H, 'n', 00H, ' ', 00H, 'O', 00H
	DB	'p', 00H, 'e', 00H, 'n', 00H, 'G', 00H, 'L', 00H, '3', 00H, '2'
	DB	00H, '.', 00H, 'd', 00H, 'l', 00H, 'l', 00H, 00H, 00H
	ORG $+2
$SG323079 DB	'g', 00H, 'l', 00H, 'V', 00H, 'e', 00H, 'r', 00H, 't', 00H
	DB	'e', 00H, 'x', 00H, '4', 00H, 'f', 00H, 'v', 00H, 00H, 00H
$SG322063 DB	'g', 00H, 'l', 00H, 'T', 00H, 'e', 00H, 'x', 00H, 'C', 00H
	DB	'o', 00H, 'o', 00H, 'r', 00H, 'd', 00H, '2', 00H, 's', 00H, 00H
	DB	00H
	ORG $+2
$SG318980 DB	'[', 00H, ' ', 00H, 'O', 00H, 'p', 00H, 'e', 00H, 'n', 00H
	DB	'G', 00H, 'L', 00H, '3', 00H, '2', 00H, ' ', 00H, ']', 00H, ' '
	DB	00H, 'U', 00H, 'n', 00H, 'a', 00H, 'b', 00H, 'l', 00H, 'e', 00H
	DB	' ', 00H, 't', 00H, 'o', 00H, ' ', 00H, 'l', 00H, 'o', 00H, 'c'
	DB	00H, 'a', 00H, 't', 00H, 'e', 00H, ' ', 00H, 's', 00H, 'y', 00H
	DB	'm', 00H, 'b', 00H, 'o', 00H, 'l', 00H, ' ', 00H, ' ', 00H, '%'
	DB	00H, 's', 00H, ' ', 00H, 'i', 00H, 'n', 00H, ' ', 00H, 'O', 00H
	DB	'p', 00H, 'e', 00H, 'n', 00H, 'G', 00H, 'L', 00H, '3', 00H, '2'
	DB	00H, '.', 00H, 'd', 00H, 'l', 00H, 'l', 00H, 00H, 00H
	ORG $+2
$SG317967 DB	'glColor3s', 00H
	ORG $+2
$SG323080 DB	'[', 00H, ' ', 00H, 'O', 00H, 'p', 00H, 'e', 00H, 'n', 00H
	DB	'G', 00H, 'L', 00H, '3', 00H, '2', 00H, ' ', 00H, ']', 00H, ' '
	DB	00H, 'U', 00H, 'n', 00H, 'a', 00H, 'b', 00H, 'l', 00H, 'e', 00H
	DB	' ', 00H, 't', 00H, 'o', 00H, ' ', 00H, 'l', 00H, 'o', 00H, 'c'
	DB	00H, 'a', 00H, 't', 00H, 'e', 00H, ' ', 00H, 's', 00H, 'y', 00H
	DB	'm', 00H, 'b', 00H, 'o', 00H, 'l', 00H, ' ', 00H, ' ', 00H, '%'
	DB	00H, 's', 00H, ' ', 00H, 'i', 00H, 'n', 00H, ' ', 00H, 'O', 00H
	DB	'p', 00H, 'e', 00H, 'n', 00H, 'G', 00H, 'L', 00H, '3', 00H, '2'
	DB	00H, '.', 00H, 'd', 00H, 'l', 00H, 'l', 00H, 00H, 00H
	ORG $+2
$SG320019 DB	'g', 00H, 'l', 00H, 'L', 00H, 'i', 00H, 'g', 00H, 'h', 00H
	DB	't', 00H, 'M', 00H, 'o', 00H, 'd', 00H, 'e', 00H, 'l', 00H, 'i'
	DB	00H, 00H, 00H
$SG321032 DB	'[', 00H, ' ', 00H, 'O', 00H, 'p', 00H, 'e', 00H, 'n', 00H
	DB	'G', 00H, 'L', 00H, '3', 00H, '2', 00H, ' ', 00H, ']', 00H, ' '
	DB	00H, 'U', 00H, 'n', 00H, 'a', 00H, 'b', 00H, 'l', 00H, 'e', 00H
	DB	' ', 00H, 't', 00H, 'o', 00H, ' ', 00H, 'l', 00H, 'o', 00H, 'c'
	DB	00H, 'a', 00H, 't', 00H, 'e', 00H, ' ', 00H, 's', 00H, 'y', 00H
	DB	'm', 00H, 'b', 00H, 'o', 00H, 'l', 00H, ' ', 00H, ' ', 00H, '%'
	DB	00H, 's', 00H, ' ', 00H, 'i', 00H, 'n', 00H, ' ', 00H, 'O', 00H
	DB	'p', 00H, 'e', 00H, 'n', 00H, 'G', 00H, 'L', 00H, '3', 00H, '2'
	DB	00H, '.', 00H, 'd', 00H, 'l', 00H, 'l', 00H, 00H, 00H
	ORG $+2
$SG322059 DB	'glTexCoord2s', 00H
	ORG $+3
$SG320015 DB	'glLightModeli', 00H
	ORG $+2
$SG317971 DB	'g', 00H, 'l', 00H, 'C', 00H, 'o', 00H, 'l', 00H, 'o', 00H
	DB	'r', 00H, '3', 00H, 's', 00H, 00H, 00H
$SG322064 DB	'[', 00H, ' ', 00H, 'O', 00H, 'p', 00H, 'e', 00H, 'n', 00H
	DB	'G', 00H, 'L', 00H, '3', 00H, '2', 00H, ' ', 00H, ']', 00H, ' '
	DB	00H, 'U', 00H, 'n', 00H, 'a', 00H, 'b', 00H, 'l', 00H, 'e', 00H
	DB	' ', 00H, 't', 00H, 'o', 00H, ' ', 00H, 'l', 00H, 'o', 00H, 'c'
	DB	00H, 'a', 00H, 't', 00H, 'e', 00H, ' ', 00H, 's', 00H, 'y', 00H
	DB	'm', 00H, 'b', 00H, 'o', 00H, 'l', 00H, ' ', 00H, ' ', 00H, '%'
	DB	00H, 's', 00H, ' ', 00H, 'i', 00H, 'n', 00H, ' ', 00H, 'O', 00H
	DB	'p', 00H, 'e', 00H, 'n', 00H, 'G', 00H, 'L', 00H, '3', 00H, '2'
	DB	00H, '.', 00H, 'd', 00H, 'l', 00H, 'l', 00H, 00H, 00H
	ORG $+2
$SG321041 DB	'glPushAttrib', 00H
	ORG $+3
$SG321045 DB	'g', 00H, 'l', 00H, 'P', 00H, 'u', 00H, 's', 00H, 'h', 00H
	DB	'A', 00H, 't', 00H, 't', 00H, 'r', 00H, 'i', 00H, 'b', 00H, 00H
	DB	00H
	ORG $+2
$SG320020 DB	'[', 00H, ' ', 00H, 'O', 00H, 'p', 00H, 'e', 00H, 'n', 00H
	DB	'G', 00H, 'L', 00H, '3', 00H, '2', 00H, ' ', 00H, ']', 00H, ' '
	DB	00H, 'U', 00H, 'n', 00H, 'a', 00H, 'b', 00H, 'l', 00H, 'e', 00H
	DB	' ', 00H, 't', 00H, 'o', 00H, ' ', 00H, 'l', 00H, 'o', 00H, 'c'
	DB	00H, 'a', 00H, 't', 00H, 'e', 00H, ' ', 00H, 's', 00H, 'y', 00H
	DB	'm', 00H, 'b', 00H, 'o', 00H, 'l', 00H, ' ', 00H, ' ', 00H, '%'
	DB	00H, 's', 00H, ' ', 00H, 'i', 00H, 'n', 00H, ' ', 00H, 'O', 00H
	DB	'p', 00H, 'e', 00H, 'n', 00H, 'G', 00H, 'L', 00H, '3', 00H, '2'
	DB	00H, '.', 00H, 'd', 00H, 'l', 00H, 'l', 00H, 00H, 00H
	ORG $+2
$SG318997 DB	'glEvalMesh2', 00H
$SG317972 DB	'[', 00H, ' ', 00H, 'O', 00H, 'p', 00H, 'e', 00H, 'n', 00H
	DB	'G', 00H, 'L', 00H, '3', 00H, '2', 00H, ' ', 00H, ']', 00H, ' '
	DB	00H, 'U', 00H, 'n', 00H, 'a', 00H, 'b', 00H, 'l', 00H, 'e', 00H
	DB	' ', 00H, 't', 00H, 'o', 00H, ' ', 00H, 'l', 00H, 'o', 00H, 'c'
	DB	00H, 'a', 00H, 't', 00H, 'e', 00H, ' ', 00H, 's', 00H, 'y', 00H
	DB	'm', 00H, 'b', 00H, 'o', 00H, 'l', 00H, ' ', 00H, ' ', 00H, '%'
	DB	00H, 's', 00H, ' ', 00H, 'i', 00H, 'n', 00H, ' ', 00H, 'O', 00H
	DB	'p', 00H, 'e', 00H, 'n', 00H, 'G', 00H, 'L', 00H, '3', 00H, '2'
	DB	00H, '.', 00H, 'd', 00H, 'l', 00H, 'l', 00H, 00H, 00H
	ORG $+2
$SG323095 DB	'glVertex4i', 00H
	ORG $+1
$SG321046 DB	'[', 00H, ' ', 00H, 'O', 00H, 'p', 00H, 'e', 00H, 'n', 00H
	DB	'G', 00H, 'L', 00H, '3', 00H, '2', 00H, ' ', 00H, ']', 00H, ' '
	DB	00H, 'U', 00H, 'n', 00H, 'a', 00H, 'b', 00H, 'l', 00H, 'e', 00H
	DB	' ', 00H, 't', 00H, 'o', 00H, ' ', 00H, 'l', 00H, 'o', 00H, 'c'
	DB	00H, 'a', 00H, 't', 00H, 'e', 00H, ' ', 00H, 's', 00H, 'y', 00H
	DB	'm', 00H, 'b', 00H, 'o', 00H, 'l', 00H, ' ', 00H, ' ', 00H, '%'
	DB	00H, 's', 00H, ' ', 00H, 'i', 00H, 'n', 00H, ' ', 00H, 'O', 00H
	DB	'p', 00H, 'e', 00H, 'n', 00H, 'G', 00H, 'L', 00H, '3', 00H, '2'
	DB	00H, '.', 00H, 'd', 00H, 'l', 00H, 'l', 00H, 00H, 00H
	ORG $+2
$SG322073 DB	'glTexCoord2sv', 00H
	ORG $+2
$SG319001 DB	'g', 00H, 'l', 00H, 'E', 00H, 'v', 00H, 'a', 00H, 'l', 00H
	DB	'M', 00H, 'e', 00H, 's', 00H, 'h', 00H, '2', 00H, 00H, 00H
$SG322077 DB	'g', 00H, 'l', 00H, 'T', 00H, 'e', 00H, 'x', 00H, 'C', 00H
	DB	'o', 00H, 'o', 00H, 'r', 00H, 'd', 00H, '2', 00H, 's', 00H, 'v'
	DB	00H, 00H, 00H
$SG319002 DB	'[', 00H, ' ', 00H, 'O', 00H, 'p', 00H, 'e', 00H, 'n', 00H
	DB	'G', 00H, 'L', 00H, '3', 00H, '2', 00H, ' ', 00H, ']', 00H, ' '
	DB	00H, 'U', 00H, 'n', 00H, 'a', 00H, 'b', 00H, 'l', 00H, 'e', 00H
	DB	' ', 00H, 't', 00H, 'o', 00H, ' ', 00H, 'l', 00H, 'o', 00H, 'c'
	DB	00H, 'a', 00H, 't', 00H, 'e', 00H, ' ', 00H, 's', 00H, 'y', 00H
	DB	'm', 00H, 'b', 00H, 'o', 00H, 'l', 00H, ' ', 00H, ' ', 00H, '%'
	DB	00H, 's', 00H, ' ', 00H, 'i', 00H, 'n', 00H, ' ', 00H, 'O', 00H
	DB	'p', 00H, 'e', 00H, 'n', 00H, 'G', 00H, 'L', 00H, '3', 00H, '2'
	DB	00H, '.', 00H, 'd', 00H, 'l', 00H, 'l', 00H, 00H, 00H
	ORG $+2
$SG323099 DB	'g', 00H, 'l', 00H, 'V', 00H, 'e', 00H, 'r', 00H, 't', 00H
	DB	'e', 00H, 'x', 00H, '4', 00H, 'i', 00H, 00H, 00H
	ORG $+2
$SG317981 DB	'glColor3sv', 00H
	ORG $+1
$SG323100 DB	'[', 00H, ' ', 00H, 'O', 00H, 'p', 00H, 'e', 00H, 'n', 00H
	DB	'G', 00H, 'L', 00H, '3', 00H, '2', 00H, ' ', 00H, ']', 00H, ' '
	DB	00H, 'U', 00H, 'n', 00H, 'a', 00H, 'b', 00H, 'l', 00H, 'e', 00H
	DB	' ', 00H, 't', 00H, 'o', 00H, ' ', 00H, 'l', 00H, 'o', 00H, 'c'
	DB	00H, 'a', 00H, 't', 00H, 'e', 00H, ' ', 00H, 's', 00H, 'y', 00H
	DB	'm', 00H, 'b', 00H, 'o', 00H, 'l', 00H, ' ', 00H, ' ', 00H, '%'
	DB	00H, 's', 00H, ' ', 00H, 'i', 00H, 'n', 00H, ' ', 00H, 'O', 00H
	DB	'p', 00H, 'e', 00H, 'n', 00H, 'G', 00H, 'L', 00H, '3', 00H, '2'
	DB	00H, '.', 00H, 'd', 00H, 'l', 00H, 'l', 00H, 00H, 00H
	ORG $+2
$SG321055 DB	'glPushClientAttrib', 00H
	ORG $+1
$SG322078 DB	'[', 00H, ' ', 00H, 'O', 00H, 'p', 00H, 'e', 00H, 'n', 00H
	DB	'G', 00H, 'L', 00H, '3', 00H, '2', 00H, ' ', 00H, ']', 00H, ' '
	DB	00H, 'U', 00H, 'n', 00H, 'a', 00H, 'b', 00H, 'l', 00H, 'e', 00H
	DB	' ', 00H, 't', 00H, 'o', 00H, ' ', 00H, 'l', 00H, 'o', 00H, 'c'
	DB	00H, 'a', 00H, 't', 00H, 'e', 00H, ' ', 00H, 's', 00H, 'y', 00H
	DB	'm', 00H, 'b', 00H, 'o', 00H, 'l', 00H, ' ', 00H, ' ', 00H, '%'
	DB	00H, 's', 00H, ' ', 00H, 'i', 00H, 'n', 00H, ' ', 00H, 'O', 00H
	DB	'p', 00H, 'e', 00H, 'n', 00H, 'G', 00H, 'L', 00H, '3', 00H, '2'
	DB	00H, '.', 00H, 'd', 00H, 'l', 00H, 'l', 00H, 00H, 00H
	ORG $+2
$SG320031 DB	'glLightModeliv', 00H
	ORG $+1
$SG317985 DB	'g', 00H, 'l', 00H, 'C', 00H, 'o', 00H, 'l', 00H, 'o', 00H
	DB	'r', 00H, '3', 00H, 's', 00H, 'v', 00H, 00H, 00H
	ORG $+2
$SG323109 DB	'glVertex4iv', 00H
$SG317986 DB	'[', 00H, ' ', 00H, 'O', 00H, 'p', 00H, 'e', 00H, 'n', 00H
	DB	'G', 00H, 'L', 00H, '3', 00H, '2', 00H, ' ', 00H, ']', 00H, ' '
	DB	00H, 'U', 00H, 'n', 00H, 'a', 00H, 'b', 00H, 'l', 00H, 'e', 00H
	DB	' ', 00H, 't', 00H, 'o', 00H, ' ', 00H, 'l', 00H, 'o', 00H, 'c'
	DB	00H, 'a', 00H, 't', 00H, 'e', 00H, ' ', 00H, 's', 00H, 'y', 00H
	DB	'm', 00H, 'b', 00H, 'o', 00H, 'l', 00H, ' ', 00H, ' ', 00H, '%'
	DB	00H, 's', 00H, ' ', 00H, 'i', 00H, 'n', 00H, ' ', 00H, 'O', 00H
	DB	'p', 00H, 'e', 00H, 'n', 00H, 'G', 00H, 'L', 00H, '3', 00H, '2'
	DB	00H, '.', 00H, 'd', 00H, 'l', 00H, 'l', 00H, 00H, 00H
	ORG $+2
$SG321059 DB	'g', 00H, 'l', 00H, 'P', 00H, 'u', 00H, 's', 00H, 'h', 00H
	DB	'C', 00H, 'l', 00H, 'i', 00H, 'e', 00H, 'n', 00H, 't', 00H, 'A'
	DB	00H, 't', 00H, 't', 00H, 'r', 00H, 'i', 00H, 'b', 00H, 00H, 00H
	ORG $+2
$SG320035 DB	'g', 00H, 'l', 00H, 'L', 00H, 'i', 00H, 'g', 00H, 'h', 00H
	DB	't', 00H, 'M', 00H, 'o', 00H, 'd', 00H, 'e', 00H, 'l', 00H, 'i'
	DB	00H, 'v', 00H, 00H, 00H
	ORG $+2
$SG319011 DB	'glEvalPoint1', 00H
	ORG $+3
$SG319015 DB	'g', 00H, 'l', 00H, 'E', 00H, 'v', 00H, 'a', 00H, 'l', 00H
	DB	'P', 00H, 'o', 00H, 'i', 00H, 'n', 00H, 't', 00H, '1', 00H, 00H
	DB	00H
	ORG $+2
$SG321060 DB	'[', 00H, ' ', 00H, 'O', 00H, 'p', 00H, 'e', 00H, 'n', 00H
	DB	'G', 00H, 'L', 00H, '3', 00H, '2', 00H, ' ', 00H, ']', 00H, ' '
	DB	00H, 'U', 00H, 'n', 00H, 'a', 00H, 'b', 00H, 'l', 00H, 'e', 00H
	DB	' ', 00H, 't', 00H, 'o', 00H, ' ', 00H, 'l', 00H, 'o', 00H, 'c'
	DB	00H, 'a', 00H, 't', 00H, 'e', 00H, ' ', 00H, 's', 00H, 'y', 00H
	DB	'm', 00H, 'b', 00H, 'o', 00H, 'l', 00H, ' ', 00H, ' ', 00H, '%'
	DB	00H, 's', 00H, ' ', 00H, 'i', 00H, 'n', 00H, ' ', 00H, 'O', 00H
	DB	'p', 00H, 'e', 00H, 'n', 00H, 'G', 00H, 'L', 00H, '3', 00H, '2'
	DB	00H, '.', 00H, 'd', 00H, 'l', 00H, 'l', 00H, 00H, 00H
	ORG $+2
$SG323113 DB	'g', 00H, 'l', 00H, 'V', 00H, 'e', 00H, 'r', 00H, 't', 00H
	DB	'e', 00H, 'x', 00H, '4', 00H, 'i', 00H, 'v', 00H, 00H, 00H
$SG322095 DB	'g', 00H, 'l', 00H, 'T', 00H, 'e', 00H, 'x', 00H, 'C', 00H
	DB	'o', 00H, 'o', 00H, 'r', 00H, 'd', 00H, '3', 00H, 'd', 00H, 00H
	DB	00H
	ORG $+2
$SG320036 DB	'[', 00H, ' ', 00H, 'O', 00H, 'p', 00H, 'e', 00H, 'n', 00H
	DB	'G', 00H, 'L', 00H, '3', 00H, '2', 00H, ' ', 00H, ']', 00H, ' '
	DB	00H, 'U', 00H, 'n', 00H, 'a', 00H, 'b', 00H, 'l', 00H, 'e', 00H
	DB	' ', 00H, 't', 00H, 'o', 00H, ' ', 00H, 'l', 00H, 'o', 00H, 'c'
	DB	00H, 'a', 00H, 't', 00H, 'e', 00H, ' ', 00H, 's', 00H, 'y', 00H
	DB	'm', 00H, 'b', 00H, 'o', 00H, 'l', 00H, ' ', 00H, ' ', 00H, '%'
	DB	00H, 's', 00H, ' ', 00H, 'i', 00H, 'n', 00H, ' ', 00H, 'O', 00H
	DB	'p', 00H, 'e', 00H, 'n', 00H, 'G', 00H, 'L', 00H, '3', 00H, '2'
	DB	00H, '.', 00H, 'd', 00H, 'l', 00H, 'l', 00H, 00H, 00H
	ORG $+2
$SG317999 DB	'glColor3ub', 00H
	ORG $+1
$SG319016 DB	'[', 00H, ' ', 00H, 'O', 00H, 'p', 00H, 'e', 00H, 'n', 00H
	DB	'G', 00H, 'L', 00H, '3', 00H, '2', 00H, ' ', 00H, ']', 00H, ' '
	DB	00H, 'U', 00H, 'n', 00H, 'a', 00H, 'b', 00H, 'l', 00H, 'e', 00H
	DB	' ', 00H, 't', 00H, 'o', 00H, ' ', 00H, 'l', 00H, 'o', 00H, 'c'
	DB	00H, 'a', 00H, 't', 00H, 'e', 00H, ' ', 00H, 's', 00H, 'y', 00H
	DB	'm', 00H, 'b', 00H, 'o', 00H, 'l', 00H, ' ', 00H, ' ', 00H, '%'
	DB	00H, 's', 00H, ' ', 00H, 'i', 00H, 'n', 00H, ' ', 00H, 'O', 00H
	DB	'p', 00H, 'e', 00H, 'n', 00H, 'G', 00H, 'L', 00H, '3', 00H, '2'
	DB	00H, '.', 00H, 'd', 00H, 'l', 00H, 'l', 00H, 00H, 00H
	ORG $+2
$SG321073 DB	'g', 00H, 'l', 00H, 'P', 00H, 'u', 00H, 's', 00H, 'h', 00H
	DB	'M', 00H, 'a', 00H, 't', 00H, 'r', 00H, 'i', 00H, 'x', 00H, 00H
	DB	00H
	ORG $+2
$SG323114 DB	'[', 00H, ' ', 00H, 'O', 00H, 'p', 00H, 'e', 00H, 'n', 00H
	DB	'G', 00H, 'L', 00H, '3', 00H, '2', 00H, ' ', 00H, ']', 00H, ' '
	DB	00H, 'U', 00H, 'n', 00H, 'a', 00H, 'b', 00H, 'l', 00H, 'e', 00H
	DB	' ', 00H, 't', 00H, 'o', 00H, ' ', 00H, 'l', 00H, 'o', 00H, 'c'
	DB	00H, 'a', 00H, 't', 00H, 'e', 00H, ' ', 00H, 's', 00H, 'y', 00H
	DB	'm', 00H, 'b', 00H, 'o', 00H, 'l', 00H, ' ', 00H, ' ', 00H, '%'
	DB	00H, 's', 00H, ' ', 00H, 'i', 00H, 'n', 00H, ' ', 00H, 'O', 00H
	DB	'p', 00H, 'e', 00H, 'n', 00H, 'G', 00H, 'L', 00H, '3', 00H, '2'
	DB	00H, '.', 00H, 'd', 00H, 'l', 00H, 'l', 00H, 00H, 00H
	ORG $+2
$SG322091 DB	'glTexCoord3d', 00H
	ORG $+3
$SG321069 DB	'glPushMatrix', 00H
	ORG $+3
$SG320049 DB	'glLightf', 00H
	ORG $+3
$SG322096 DB	'[', 00H, ' ', 00H, 'O', 00H, 'p', 00H, 'e', 00H, 'n', 00H
	DB	'G', 00H, 'L', 00H, '3', 00H, '2', 00H, ' ', 00H, ']', 00H, ' '
	DB	00H, 'U', 00H, 'n', 00H, 'a', 00H, 'b', 00H, 'l', 00H, 'e', 00H
	DB	' ', 00H, 't', 00H, 'o', 00H, ' ', 00H, 'l', 00H, 'o', 00H, 'c'
	DB	00H, 'a', 00H, 't', 00H, 'e', 00H, ' ', 00H, 's', 00H, 'y', 00H
	DB	'm', 00H, 'b', 00H, 'o', 00H, 'l', 00H, ' ', 00H, ' ', 00H, '%'
	DB	00H, 's', 00H, ' ', 00H, 'i', 00H, 'n', 00H, ' ', 00H, 'O', 00H
	DB	'p', 00H, 'e', 00H, 'n', 00H, 'G', 00H, 'L', 00H, '3', 00H, '2'
	DB	00H, '.', 00H, 'd', 00H, 'l', 00H, 'l', 00H, 00H, 00H
	ORG $+2
$SG320053 DB	'g', 00H, 'l', 00H, 'L', 00H, 'i', 00H, 'g', 00H, 'h', 00H
	DB	't', 00H, 'f', 00H, 00H, 00H
	ORG $+2
$SG321074 DB	'[', 00H, ' ', 00H, 'O', 00H, 'p', 00H, 'e', 00H, 'n', 00H
	DB	'G', 00H, 'L', 00H, '3', 00H, '2', 00H, ' ', 00H, ']', 00H, ' '
	DB	00H, 'U', 00H, 'n', 00H, 'a', 00H, 'b', 00H, 'l', 00H, 'e', 00H
	DB	' ', 00H, 't', 00H, 'o', 00H, ' ', 00H, 'l', 00H, 'o', 00H, 'c'
	DB	00H, 'a', 00H, 't', 00H, 'e', 00H, ' ', 00H, 's', 00H, 'y', 00H
	DB	'm', 00H, 'b', 00H, 'o', 00H, 'l', 00H, ' ', 00H, ' ', 00H, '%'
	DB	00H, 's', 00H, ' ', 00H, 'i', 00H, 'n', 00H, ' ', 00H, 'O', 00H
	DB	'p', 00H, 'e', 00H, 'n', 00H, 'G', 00H, 'L', 00H, '3', 00H, '2'
	DB	00H, '.', 00H, 'd', 00H, 'l', 00H, 'l', 00H, 00H, 00H
	ORG $+2
$SG319027 DB	'glEvalPoint2', 00H
	ORG $+3
$SG318003 DB	'g', 00H, 'l', 00H, 'C', 00H, 'o', 00H, 'l', 00H, 'o', 00H
	DB	'r', 00H, '3', 00H, 'u', 00H, 'b', 00H, 00H, 00H
	ORG $+2
$SG319031 DB	'g', 00H, 'l', 00H, 'E', 00H, 'v', 00H, 'a', 00H, 'l', 00H
	DB	'P', 00H, 'o', 00H, 'i', 00H, 'n', 00H, 't', 00H, '2', 00H, 00H
	DB	00H
	ORG $+2
$SG318004 DB	'[', 00H, ' ', 00H, 'O', 00H, 'p', 00H, 'e', 00H, 'n', 00H
	DB	'G', 00H, 'L', 00H, '3', 00H, '2', 00H, ' ', 00H, ']', 00H, ' '
	DB	00H, 'U', 00H, 'n', 00H, 'a', 00H, 'b', 00H, 'l', 00H, 'e', 00H
	DB	' ', 00H, 't', 00H, 'o', 00H, ' ', 00H, 'l', 00H, 'o', 00H, 'c'
	DB	00H, 'a', 00H, 't', 00H, 'e', 00H, ' ', 00H, 's', 00H, 'y', 00H
	DB	'm', 00H, 'b', 00H, 'o', 00H, 'l', 00H, ' ', 00H, ' ', 00H, '%'
	DB	00H, 's', 00H, ' ', 00H, 'i', 00H, 'n', 00H, ' ', 00H, 'O', 00H
	DB	'p', 00H, 'e', 00H, 'n', 00H, 'G', 00H, 'L', 00H, '3', 00H, '2'
	DB	00H, '.', 00H, 'd', 00H, 'l', 00H, 'l', 00H, 00H, 00H
	ORG $+2
$SG323129 DB	'glVertex4s', 00H
	ORG $+1
$SG320054 DB	'[', 00H, ' ', 00H, 'O', 00H, 'p', 00H, 'e', 00H, 'n', 00H
	DB	'G', 00H, 'L', 00H, '3', 00H, '2', 00H, ' ', 00H, ']', 00H, ' '
	DB	00H, 'U', 00H, 'n', 00H, 'a', 00H, 'b', 00H, 'l', 00H, 'e', 00H
	DB	' ', 00H, 't', 00H, 'o', 00H, ' ', 00H, 'l', 00H, 'o', 00H, 'c'
	DB	00H, 'a', 00H, 't', 00H, 'e', 00H, ' ', 00H, 's', 00H, 'y', 00H
	DB	'm', 00H, 'b', 00H, 'o', 00H, 'l', 00H, ' ', 00H, ' ', 00H, '%'
	DB	00H, 's', 00H, ' ', 00H, 'i', 00H, 'n', 00H, ' ', 00H, 'O', 00H
	DB	'p', 00H, 'e', 00H, 'n', 00H, 'G', 00H, 'L', 00H, '3', 00H, '2'
	DB	00H, '.', 00H, 'd', 00H, 'l', 00H, 'l', 00H, 00H, 00H
	ORG $+2
$SG321083 DB	'glPushName', 00H
	ORG $+1
$SG319032 DB	'[', 00H, ' ', 00H, 'O', 00H, 'p', 00H, 'e', 00H, 'n', 00H
	DB	'G', 00H, 'L', 00H, '3', 00H, '2', 00H, ' ', 00H, ']', 00H, ' '
	DB	00H, 'U', 00H, 'n', 00H, 'a', 00H, 'b', 00H, 'l', 00H, 'e', 00H
	DB	' ', 00H, 't', 00H, 'o', 00H, ' ', 00H, 'l', 00H, 'o', 00H, 'c'
	DB	00H, 'a', 00H, 't', 00H, 'e', 00H, ' ', 00H, 's', 00H, 'y', 00H
	DB	'm', 00H, 'b', 00H, 'o', 00H, 'l', 00H, ' ', 00H, ' ', 00H, '%'
	DB	00H, 's', 00H, ' ', 00H, 'i', 00H, 'n', 00H, ' ', 00H, 'O', 00H
	DB	'p', 00H, 'e', 00H, 'n', 00H, 'G', 00H, 'L', 00H, '3', 00H, '2'
	DB	00H, '.', 00H, 'd', 00H, 'l', 00H, 'l', 00H, 00H, 00H
	ORG $+2
$SG322105 DB	'glTexCoord3dv', 00H
	ORG $+2
$SG323133 DB	'g', 00H, 'l', 00H, 'V', 00H, 'e', 00H, 'r', 00H, 't', 00H
	DB	'e', 00H, 'x', 00H, '4', 00H, 's', 00H, 00H, 00H
	ORG $+2
$SG322109 DB	'g', 00H, 'l', 00H, 'T', 00H, 'e', 00H, 'x', 00H, 'C', 00H
	DB	'o', 00H, 'o', 00H, 'r', 00H, 'd', 00H, '3', 00H, 'd', 00H, 'v'
	DB	00H, 00H, 00H
$SG318013 DB	'glColor3ubv', 00H
$SG320067 DB	'glLightfv', 00H
	ORG $+2
$SG323134 DB	'[', 00H, ' ', 00H, 'O', 00H, 'p', 00H, 'e', 00H, 'n', 00H
	DB	'G', 00H, 'L', 00H, '3', 00H, '2', 00H, ' ', 00H, ']', 00H, ' '
	DB	00H, 'U', 00H, 'n', 00H, 'a', 00H, 'b', 00H, 'l', 00H, 'e', 00H
	DB	' ', 00H, 't', 00H, 'o', 00H, ' ', 00H, 'l', 00H, 'o', 00H, 'c'
	DB	00H, 'a', 00H, 't', 00H, 'e', 00H, ' ', 00H, 's', 00H, 'y', 00H
	DB	'm', 00H, 'b', 00H, 'o', 00H, 'l', 00H, ' ', 00H, ' ', 00H, '%'
	DB	00H, 's', 00H, ' ', 00H, 'i', 00H, 'n', 00H, ' ', 00H, 'O', 00H
	DB	'p', 00H, 'e', 00H, 'n', 00H, 'G', 00H, 'L', 00H, '3', 00H, '2'
	DB	00H, '.', 00H, 'd', 00H, 'l', 00H, 'l', 00H, 00H, 00H
	ORG $+2
$SG318017 DB	'g', 00H, 'l', 00H, 'C', 00H, 'o', 00H, 'l', 00H, 'o', 00H
	DB	'r', 00H, '3', 00H, 'u', 00H, 'b', 00H, 'v', 00H, 00H, 00H
$SG319045 DB	'glFeedbackBuffer', 00H
	ORG $+3
$SG322110 DB	'[', 00H, ' ', 00H, 'O', 00H, 'p', 00H, 'e', 00H, 'n', 00H
	DB	'G', 00H, 'L', 00H, '3', 00H, '2', 00H, ' ', 00H, ']', 00H, ' '
	DB	00H, 'U', 00H, 'n', 00H, 'a', 00H, 'b', 00H, 'l', 00H, 'e', 00H
	DB	' ', 00H, 't', 00H, 'o', 00H, ' ', 00H, 'l', 00H, 'o', 00H, 'c'
	DB	00H, 'a', 00H, 't', 00H, 'e', 00H, ' ', 00H, 's', 00H, 'y', 00H
	DB	'm', 00H, 'b', 00H, 'o', 00H, 'l', 00H, ' ', 00H, ' ', 00H, '%'
	DB	00H, 's', 00H, ' ', 00H, 'i', 00H, 'n', 00H, ' ', 00H, 'O', 00H
	DB	'p', 00H, 'e', 00H, 'n', 00H, 'G', 00H, 'L', 00H, '3', 00H, '2'
	DB	00H, '.', 00H, 'd', 00H, 'l', 00H, 'l', 00H, 00H, 00H
	ORG $+2
$SG321087 DB	'g', 00H, 'l', 00H, 'P', 00H, 'u', 00H, 's', 00H, 'h', 00H
	DB	'N', 00H, 'a', 00H, 'm', 00H, 'e', 00H, 00H, 00H
	ORG $+2
$SG323143 DB	'glVertex4sv', 00H
$SG321088 DB	'[', 00H, ' ', 00H, 'O', 00H, 'p', 00H, 'e', 00H, 'n', 00H
	DB	'G', 00H, 'L', 00H, '3', 00H, '2', 00H, ' ', 00H, ']', 00H, ' '
	DB	00H, 'U', 00H, 'n', 00H, 'a', 00H, 'b', 00H, 'l', 00H, 'e', 00H
	DB	' ', 00H, 't', 00H, 'o', 00H, ' ', 00H, 'l', 00H, 'o', 00H, 'c'
	DB	00H, 'a', 00H, 't', 00H, 'e', 00H, ' ', 00H, 's', 00H, 'y', 00H
	DB	'm', 00H, 'b', 00H, 'o', 00H, 'l', 00H, ' ', 00H, ' ', 00H, '%'
	DB	00H, 's', 00H, ' ', 00H, 'i', 00H, 'n', 00H, ' ', 00H, 'O', 00H
	DB	'p', 00H, 'e', 00H, 'n', 00H, 'G', 00H, 'L', 00H, '3', 00H, '2'
	DB	00H, '.', 00H, 'd', 00H, 'l', 00H, 'l', 00H, 00H, 00H
	ORG $+2
$SG320071 DB	'g', 00H, 'l', 00H, 'L', 00H, 'i', 00H, 'g', 00H, 'h', 00H
	DB	't', 00H, 'f', 00H, 'v', 00H, 00H, 00H
$SG318018 DB	'[', 00H, ' ', 00H, 'O', 00H, 'p', 00H, 'e', 00H, 'n', 00H
	DB	'G', 00H, 'L', 00H, '3', 00H, '2', 00H, ' ', 00H, ']', 00H, ' '
	DB	00H, 'U', 00H, 'n', 00H, 'a', 00H, 'b', 00H, 'l', 00H, 'e', 00H
	DB	' ', 00H, 't', 00H, 'o', 00H, ' ', 00H, 'l', 00H, 'o', 00H, 'c'
	DB	00H, 'a', 00H, 't', 00H, 'e', 00H, ' ', 00H, 's', 00H, 'y', 00H
	DB	'm', 00H, 'b', 00H, 'o', 00H, 'l', 00H, ' ', 00H, ' ', 00H, '%'
	DB	00H, 's', 00H, ' ', 00H, 'i', 00H, 'n', 00H, ' ', 00H, 'O', 00H
	DB	'p', 00H, 'e', 00H, 'n', 00H, 'G', 00H, 'L', 00H, '3', 00H, '2'
	DB	00H, '.', 00H, 'd', 00H, 'l', 00H, 'l', 00H, 00H, 00H
	ORG $+2
$SG319049 DB	'g', 00H, 'l', 00H, 'F', 00H, 'e', 00H, 'e', 00H, 'd', 00H
	DB	'b', 00H, 'a', 00H, 'c', 00H, 'k', 00H, 'B', 00H, 'u', 00H, 'f'
	DB	00H, 'f', 00H, 'e', 00H, 'r', 00H, 00H, 00H
	ORG $+2
$SG320072 DB	'[', 00H, ' ', 00H, 'O', 00H, 'p', 00H, 'e', 00H, 'n', 00H
	DB	'G', 00H, 'L', 00H, '3', 00H, '2', 00H, ' ', 00H, ']', 00H, ' '
	DB	00H, 'U', 00H, 'n', 00H, 'a', 00H, 'b', 00H, 'l', 00H, 'e', 00H
	DB	' ', 00H, 't', 00H, 'o', 00H, ' ', 00H, 'l', 00H, 'o', 00H, 'c'
	DB	00H, 'a', 00H, 't', 00H, 'e', 00H, ' ', 00H, 's', 00H, 'y', 00H
	DB	'm', 00H, 'b', 00H, 'o', 00H, 'l', 00H, ' ', 00H, ' ', 00H, '%'
	DB	00H, 's', 00H, ' ', 00H, 'i', 00H, 'n', 00H, ' ', 00H, 'O', 00H
	DB	'p', 00H, 'e', 00H, 'n', 00H, 'G', 00H, 'L', 00H, '3', 00H, '2'
	DB	00H, '.', 00H, 'd', 00H, 'l', 00H, 'l', 00H, 00H, 00H
	ORG $+2
$SG323147 DB	'g', 00H, 'l', 00H, 'V', 00H, 'e', 00H, 'r', 00H, 't', 00H
	DB	'e', 00H, 'x', 00H, '4', 00H, 's', 00H, 'v', 00H, 00H, 00H
$SG322127 DB	'g', 00H, 'l', 00H, 'T', 00H, 'e', 00H, 'x', 00H, 'C', 00H
	DB	'o', 00H, 'o', 00H, 'r', 00H, 'd', 00H, '3', 00H, 'f', 00H, 00H
	DB	00H
	ORG $+2
$SG319050 DB	'[', 00H, ' ', 00H, 'O', 00H, 'p', 00H, 'e', 00H, 'n', 00H
	DB	'G', 00H, 'L', 00H, '3', 00H, '2', 00H, ' ', 00H, ']', 00H, ' '
	DB	00H, 'U', 00H, 'n', 00H, 'a', 00H, 'b', 00H, 'l', 00H, 'e', 00H
	DB	' ', 00H, 't', 00H, 'o', 00H, ' ', 00H, 'l', 00H, 'o', 00H, 'c'
	DB	00H, 'a', 00H, 't', 00H, 'e', 00H, ' ', 00H, 's', 00H, 'y', 00H
	DB	'm', 00H, 'b', 00H, 'o', 00H, 'l', 00H, ' ', 00H, ' ', 00H, '%'
	DB	00H, 's', 00H, ' ', 00H, 'i', 00H, 'n', 00H, ' ', 00H, 'O', 00H
	DB	'p', 00H, 'e', 00H, 'n', 00H, 'G', 00H, 'L', 00H, '3', 00H, '2'
	DB	00H, '.', 00H, 'd', 00H, 'l', 00H, 'l', 00H, 00H, 00H
	ORG $+2
$SG322123 DB	'glTexCoord3f', 00H
	ORG $+3
$SG321099 DB	'glRasterPos2d', 00H
	ORG $+2
$SG321103 DB	'g', 00H, 'l', 00H, 'R', 00H, 'a', 00H, 's', 00H, 't', 00H
	DB	'e', 00H, 'r', 00H, 'P', 00H, 'o', 00H, 's', 00H, '2', 00H, 'd'
	DB	00H, 00H, 00H
$SG323148 DB	'[', 00H, ' ', 00H, 'O', 00H, 'p', 00H, 'e', 00H, 'n', 00H
	DB	'G', 00H, 'L', 00H, '3', 00H, '2', 00H, ' ', 00H, ']', 00H, ' '
	DB	00H, 'U', 00H, 'n', 00H, 'a', 00H, 'b', 00H, 'l', 00H, 'e', 00H
	DB	' ', 00H, 't', 00H, 'o', 00H, ' ', 00H, 'l', 00H, 'o', 00H, 'c'
	DB	00H, 'a', 00H, 't', 00H, 'e', 00H, ' ', 00H, 's', 00H, 'y', 00H
	DB	'm', 00H, 'b', 00H, 'o', 00H, 'l', 00H, ' ', 00H, ' ', 00H, '%'
	DB	00H, 's', 00H, ' ', 00H, 'i', 00H, 'n', 00H, ' ', 00H, 'O', 00H
	DB	'p', 00H, 'e', 00H, 'n', 00H, 'G', 00H, 'L', 00H, '3', 00H, '2'
	DB	00H, '.', 00H, 'd', 00H, 'l', 00H, 'l', 00H, 00H, 00H
	ORG $+2
$SG318031 DB	'glColor3ui', 00H
	ORG $+1
$SG322128 DB	'[', 00H, ' ', 00H, 'O', 00H, 'p', 00H, 'e', 00H, 'n', 00H
	DB	'G', 00H, 'L', 00H, '3', 00H, '2', 00H, ' ', 00H, ']', 00H, ' '
	DB	00H, 'U', 00H, 'n', 00H, 'a', 00H, 'b', 00H, 'l', 00H, 'e', 00H
	DB	' ', 00H, 't', 00H, 'o', 00H, ' ', 00H, 'l', 00H, 'o', 00H, 'c'
	DB	00H, 'a', 00H, 't', 00H, 'e', 00H, ' ', 00H, 's', 00H, 'y', 00H
	DB	'm', 00H, 'b', 00H, 'o', 00H, 'l', 00H, ' ', 00H, ' ', 00H, '%'
	DB	00H, 's', 00H, ' ', 00H, 'i', 00H, 'n', 00H, ' ', 00H, 'O', 00H
	DB	'p', 00H, 'e', 00H, 'n', 00H, 'G', 00H, 'L', 00H, '3', 00H, '2'
	DB	00H, '.', 00H, 'd', 00H, 'l', 00H, 'l', 00H, 00H, 00H
	ORG $+2
$SG319059 DB	'glFinish', 00H
	ORG $+3
$SG321104 DB	'[', 00H, ' ', 00H, 'O', 00H, 'p', 00H, 'e', 00H, 'n', 00H
	DB	'G', 00H, 'L', 00H, '3', 00H, '2', 00H, ' ', 00H, ']', 00H, ' '
	DB	00H, 'U', 00H, 'n', 00H, 'a', 00H, 'b', 00H, 'l', 00H, 'e', 00H
	DB	' ', 00H, 't', 00H, 'o', 00H, ' ', 00H, 'l', 00H, 'o', 00H, 'c'
	DB	00H, 'a', 00H, 't', 00H, 'e', 00H, ' ', 00H, 's', 00H, 'y', 00H
	DB	'm', 00H, 'b', 00H, 'o', 00H, 'l', 00H, ' ', 00H, ' ', 00H, '%'
	DB	00H, 's', 00H, ' ', 00H, 'i', 00H, 'n', 00H, ' ', 00H, 'O', 00H
	DB	'p', 00H, 'e', 00H, 'n', 00H, 'G', 00H, 'L', 00H, '3', 00H, '2'
	DB	00H, '.', 00H, 'd', 00H, 'l', 00H, 'l', 00H, 00H, 00H
	ORG $+2
$SG318035 DB	'g', 00H, 'l', 00H, 'C', 00H, 'o', 00H, 'l', 00H, 'o', 00H
	DB	'r', 00H, '3', 00H, 'u', 00H, 'i', 00H, 00H, 00H
	ORG $+2
$SG320085 DB	'glLighti', 00H
	ORG $+3
$SG318036 DB	'[', 00H, ' ', 00H, 'O', 00H, 'p', 00H, 'e', 00H, 'n', 00H
	DB	'G', 00H, 'L', 00H, '3', 00H, '2', 00H, ' ', 00H, ']', 00H, ' '
	DB	00H, 'U', 00H, 'n', 00H, 'a', 00H, 'b', 00H, 'l', 00H, 'e', 00H
	DB	' ', 00H, 't', 00H, 'o', 00H, ' ', 00H, 'l', 00H, 'o', 00H, 'c'
	DB	00H, 'a', 00H, 't', 00H, 'e', 00H, ' ', 00H, 's', 00H, 'y', 00H
	DB	'm', 00H, 'b', 00H, 'o', 00H, 'l', 00H, ' ', 00H, ' ', 00H, '%'
	DB	00H, 's', 00H, ' ', 00H, 'i', 00H, 'n', 00H, ' ', 00H, 'O', 00H
	DB	'p', 00H, 'e', 00H, 'n', 00H, 'G', 00H, 'L', 00H, '3', 00H, '2'
	DB	00H, '.', 00H, 'd', 00H, 'l', 00H, 'l', 00H, 00H, 00H
	ORG $+2
$SG319063 DB	'g', 00H, 'l', 00H, 'F', 00H, 'i', 00H, 'n', 00H, 'i', 00H
	DB	's', 00H, 'h', 00H, 00H, 00H
	ORG $+2
$SG319064 DB	'[', 00H, ' ', 00H, 'O', 00H, 'p', 00H, 'e', 00H, 'n', 00H
	DB	'G', 00H, 'L', 00H, '3', 00H, '2', 00H, ' ', 00H, ']', 00H, ' '
	DB	00H, 'U', 00H, 'n', 00H, 'a', 00H, 'b', 00H, 'l', 00H, 'e', 00H
	DB	' ', 00H, 't', 00H, 'o', 00H, ' ', 00H, 'l', 00H, 'o', 00H, 'c'
	DB	00H, 'a', 00H, 't', 00H, 'e', 00H, ' ', 00H, 's', 00H, 'y', 00H
	DB	'm', 00H, 'b', 00H, 'o', 00H, 'l', 00H, ' ', 00H, ' ', 00H, '%'
	DB	00H, 's', 00H, ' ', 00H, 'i', 00H, 'n', 00H, ' ', 00H, 'O', 00H
	DB	'p', 00H, 'e', 00H, 'n', 00H, 'G', 00H, 'L', 00H, '3', 00H, '2'
	DB	00H, '.', 00H, 'd', 00H, 'l', 00H, 'l', 00H, 00H, 00H
	ORG $+2
$SG322137 DB	'glTexCoord3fv', 00H
	ORG $+2
$SG321113 DB	'glRasterPos2dv', 00H
	ORG $+1
$SG320089 DB	'g', 00H, 'l', 00H, 'L', 00H, 'i', 00H, 'g', 00H, 'h', 00H
	DB	't', 00H, 'i', 00H, 00H, 00H
	ORG $+2
$SG320090 DB	'[', 00H, ' ', 00H, 'O', 00H, 'p', 00H, 'e', 00H, 'n', 00H
	DB	'G', 00H, 'L', 00H, '3', 00H, '2', 00H, ' ', 00H, ']', 00H, ' '
	DB	00H, 'U', 00H, 'n', 00H, 'a', 00H, 'b', 00H, 'l', 00H, 'e', 00H
	DB	' ', 00H, 't', 00H, 'o', 00H, ' ', 00H, 'l', 00H, 'o', 00H, 'c'
	DB	00H, 'a', 00H, 't', 00H, 'e', 00H, ' ', 00H, 's', 00H, 'y', 00H
	DB	'm', 00H, 'b', 00H, 'o', 00H, 'l', 00H, ' ', 00H, ' ', 00H, '%'
	DB	00H, 's', 00H, ' ', 00H, 'i', 00H, 'n', 00H, ' ', 00H, 'O', 00H
	DB	'p', 00H, 'e', 00H, 'n', 00H, 'G', 00H, 'L', 00H, '3', 00H, '2'
	DB	00H, '.', 00H, 'd', 00H, 'l', 00H, 'l', 00H, 00H, 00H
	ORG $+2
$SG323163 DB	'glVertexPointer', 00H
$SG322141 DB	'g', 00H, 'l', 00H, 'T', 00H, 'e', 00H, 'x', 00H, 'C', 00H
	DB	'o', 00H, 'o', 00H, 'r', 00H, 'd', 00H, '3', 00H, 'f', 00H, 'v'
	DB	00H, 00H, 00H
$SG321117 DB	'g', 00H, 'l', 00H, 'R', 00H, 'a', 00H, 's', 00H, 't', 00H
	DB	'e', 00H, 'r', 00H, 'P', 00H, 'o', 00H, 's', 00H, '2', 00H, 'd'
	DB	00H, 'v', 00H, 00H, 00H
	ORG $+2
$SG318045 DB	'glColor3uiv', 00H
$SG320103 DB	'glLightiv', 00H
	ORG $+2
$SG322142 DB	'[', 00H, ' ', 00H, 'O', 00H, 'p', 00H, 'e', 00H, 'n', 00H
	DB	'G', 00H, 'L', 00H, '3', 00H, '2', 00H, ' ', 00H, ']', 00H, ' '
	DB	00H, 'U', 00H, 'n', 00H, 'a', 00H, 'b', 00H, 'l', 00H, 'e', 00H
	DB	' ', 00H, 't', 00H, 'o', 00H, ' ', 00H, 'l', 00H, 'o', 00H, 'c'
	DB	00H, 'a', 00H, 't', 00H, 'e', 00H, ' ', 00H, 's', 00H, 'y', 00H
	DB	'm', 00H, 'b', 00H, 'o', 00H, 'l', 00H, ' ', 00H, ' ', 00H, '%'
	DB	00H, 's', 00H, ' ', 00H, 'i', 00H, 'n', 00H, ' ', 00H, 'O', 00H
	DB	'p', 00H, 'e', 00H, 'n', 00H, 'G', 00H, 'L', 00H, '3', 00H, '2'
	DB	00H, '.', 00H, 'd', 00H, 'l', 00H, 'l', 00H, 00H, 00H
	ORG $+2
$SG323167 DB	'g', 00H, 'l', 00H, 'V', 00H, 'e', 00H, 'r', 00H, 't', 00H
	DB	'e', 00H, 'x', 00H, 'P', 00H, 'o', 00H, 'i', 00H, 'n', 00H, 't'
	DB	00H, 'e', 00H, 'r', 00H, 00H, 00H
$SG320107 DB	'g', 00H, 'l', 00H, 'L', 00H, 'i', 00H, 'g', 00H, 'h', 00H
	DB	't', 00H, 'i', 00H, 'v', 00H, 00H, 00H
$SG321118 DB	'[', 00H, ' ', 00H, 'O', 00H, 'p', 00H, 'e', 00H, 'n', 00H
	DB	'G', 00H, 'L', 00H, '3', 00H, '2', 00H, ' ', 00H, ']', 00H, ' '
	DB	00H, 'U', 00H, 'n', 00H, 'a', 00H, 'b', 00H, 'l', 00H, 'e', 00H
	DB	' ', 00H, 't', 00H, 'o', 00H, ' ', 00H, 'l', 00H, 'o', 00H, 'c'
	DB	00H, 'a', 00H, 't', 00H, 'e', 00H, ' ', 00H, 's', 00H, 'y', 00H
	DB	'm', 00H, 'b', 00H, 'o', 00H, 'l', 00H, ' ', 00H, ' ', 00H, '%'
	DB	00H, 's', 00H, ' ', 00H, 'i', 00H, 'n', 00H, ' ', 00H, 'O', 00H
	DB	'p', 00H, 'e', 00H, 'n', 00H, 'G', 00H, 'L', 00H, '3', 00H, '2'
	DB	00H, '.', 00H, 'd', 00H, 'l', 00H, 'l', 00H, 00H, 00H
	ORG $+2
$SG319073 DB	'glFlush', 00H
$SG321133 DB	'g', 00H, 'l', 00H, 'R', 00H, 'a', 00H, 's', 00H, 't', 00H
	DB	'e', 00H, 'r', 00H, 'P', 00H, 'o', 00H, 's', 00H, '2', 00H, 'f'
	DB	00H, 00H, 00H
$SG323168 DB	'[', 00H, ' ', 00H, 'O', 00H, 'p', 00H, 'e', 00H, 'n', 00H
	DB	'G', 00H, 'L', 00H, '3', 00H, '2', 00H, ' ', 00H, ']', 00H, ' '
	DB	00H, 'U', 00H, 'n', 00H, 'a', 00H, 'b', 00H, 'l', 00H, 'e', 00H
	DB	' ', 00H, 't', 00H, 'o', 00H, ' ', 00H, 'l', 00H, 'o', 00H, 'c'
	DB	00H, 'a', 00H, 't', 00H, 'e', 00H, ' ', 00H, 's', 00H, 'y', 00H
	DB	'm', 00H, 'b', 00H, 'o', 00H, 'l', 00H, ' ', 00H, ' ', 00H, '%'
	DB	00H, 's', 00H, ' ', 00H, 'i', 00H, 'n', 00H, ' ', 00H, 'O', 00H
	DB	'p', 00H, 'e', 00H, 'n', 00H, 'G', 00H, 'L', 00H, '3', 00H, '2'
	DB	00H, '.', 00H, 'd', 00H, 'l', 00H, 'l', 00H, 00H, 00H
	ORG $+2
$SG318049 DB	'g', 00H, 'l', 00H, 'C', 00H, 'o', 00H, 'l', 00H, 'o', 00H
	DB	'r', 00H, '3', 00H, 'u', 00H, 'i', 00H, 'v', 00H, 00H, 00H
$SG323183 DB	'glViewport', 00H
	ORG $+1
$SG318050 DB	'[', 00H, ' ', 00H, 'O', 00H, 'p', 00H, 'e', 00H, 'n', 00H
	DB	'G', 00H, 'L', 00H, '3', 00H, '2', 00H, ' ', 00H, ']', 00H, ' '
	DB	00H, 'U', 00H, 'n', 00H, 'a', 00H, 'b', 00H, 'l', 00H, 'e', 00H
	DB	' ', 00H, 't', 00H, 'o', 00H, ' ', 00H, 'l', 00H, 'o', 00H, 'c'
	DB	00H, 'a', 00H, 't', 00H, 'e', 00H, ' ', 00H, 's', 00H, 'y', 00H
	DB	'm', 00H, 'b', 00H, 'o', 00H, 'l', 00H, ' ', 00H, ' ', 00H, '%'
	DB	00H, 's', 00H, ' ', 00H, 'i', 00H, 'n', 00H, ' ', 00H, 'O', 00H
	DB	'p', 00H, 'e', 00H, 'n', 00H, 'G', 00H, 'L', 00H, '3', 00H, '2'
	DB	00H, '.', 00H, 'd', 00H, 'l', 00H, 'l', 00H, 00H, 00H
	ORG $+2
$SG319077 DB	'g', 00H, 'l', 00H, 'F', 00H, 'l', 00H, 'u', 00H, 's', 00H
	DB	'h', 00H, 00H, 00H
$SG322159 DB	'g', 00H, 'l', 00H, 'T', 00H, 'e', 00H, 'x', 00H, 'C', 00H
	DB	'o', 00H, 'o', 00H, 'r', 00H, 'd', 00H, '3', 00H, 'i', 00H, 00H
	DB	00H
	ORG $+2
$SG319078 DB	'[', 00H, ' ', 00H, 'O', 00H, 'p', 00H, 'e', 00H, 'n', 00H
	DB	'G', 00H, 'L', 00H, '3', 00H, '2', 00H, ' ', 00H, ']', 00H, ' '
	DB	00H, 'U', 00H, 'n', 00H, 'a', 00H, 'b', 00H, 'l', 00H, 'e', 00H
	DB	' ', 00H, 't', 00H, 'o', 00H, ' ', 00H, 'l', 00H, 'o', 00H, 'c'
	DB	00H, 'a', 00H, 't', 00H, 'e', 00H, ' ', 00H, 's', 00H, 'y', 00H
	DB	'm', 00H, 'b', 00H, 'o', 00H, 'l', 00H, ' ', 00H, ' ', 00H, '%'
	DB	00H, 's', 00H, ' ', 00H, 'i', 00H, 'n', 00H, ' ', 00H, 'O', 00H
	DB	'p', 00H, 'e', 00H, 'n', 00H, 'G', 00H, 'L', 00H, '3', 00H, '2'
	DB	00H, '.', 00H, 'd', 00H, 'l', 00H, 'l', 00H, 00H, 00H
	ORG $+2
$SG321129 DB	'glRasterPos2f', 00H
	ORG $+2
$SG322155 DB	'glTexCoord3i', 00H
	ORG $+3
$SG318063 DB	'glColor3us', 00H
	ORG $+1
$SG320108 DB	'[', 00H, ' ', 00H, 'O', 00H, 'p', 00H, 'e', 00H, 'n', 00H
	DB	'G', 00H, 'L', 00H, '3', 00H, '2', 00H, ' ', 00H, ']', 00H, ' '
	DB	00H, 'U', 00H, 'n', 00H, 'a', 00H, 'b', 00H, 'l', 00H, 'e', 00H
	DB	' ', 00H, 't', 00H, 'o', 00H, ' ', 00H, 'l', 00H, 'o', 00H, 'c'
	DB	00H, 'a', 00H, 't', 00H, 'e', 00H, ' ', 00H, 's', 00H, 'y', 00H
	DB	'm', 00H, 'b', 00H, 'o', 00H, 'l', 00H, ' ', 00H, ' ', 00H, '%'
	DB	00H, 's', 00H, ' ', 00H, 'i', 00H, 'n', 00H, ' ', 00H, 'O', 00H
	DB	'p', 00H, 'e', 00H, 'n', 00H, 'G', 00H, 'L', 00H, '3', 00H, '2'
	DB	00H, '.', 00H, 'd', 00H, 'l', 00H, 'l', 00H, 00H, 00H
	ORG $+2
$SG319089 DB	'glFogf', 00H
	ORG $+1
$SG320123 DB	'g', 00H, 'l', 00H, 'L', 00H, 'i', 00H, 'n', 00H, 'e', 00H
	DB	'S', 00H, 't', 00H, 'i', 00H, 'p', 00H, 'p', 00H, 'l', 00H, 'e'
	DB	00H, 00H, 00H
$SG321134 DB	'[', 00H, ' ', 00H, 'O', 00H, 'p', 00H, 'e', 00H, 'n', 00H
	DB	'G', 00H, 'L', 00H, '3', 00H, '2', 00H, ' ', 00H, ']', 00H, ' '
	DB	00H, 'U', 00H, 'n', 00H, 'a', 00H, 'b', 00H, 'l', 00H, 'e', 00H
	DB	' ', 00H, 't', 00H, 'o', 00H, ' ', 00H, 'l', 00H, 'o', 00H, 'c'
	DB	00H, 'a', 00H, 't', 00H, 'e', 00H, ' ', 00H, 's', 00H, 'y', 00H
	DB	'm', 00H, 'b', 00H, 'o', 00H, 'l', 00H, ' ', 00H, ' ', 00H, '%'
	DB	00H, 's', 00H, ' ', 00H, 'i', 00H, 'n', 00H, ' ', 00H, 'O', 00H
	DB	'p', 00H, 'e', 00H, 'n', 00H, 'G', 00H, 'L', 00H, '3', 00H, '2'
	DB	00H, '.', 00H, 'd', 00H, 'l', 00H, 'l', 00H, 00H, 00H
	ORG $+2
$SG321143 DB	'glRasterPos2fv', 00H
	ORG $+1
$SG322173 DB	'g', 00H, 'l', 00H, 'T', 00H, 'e', 00H, 'x', 00H, 'C', 00H
	DB	'o', 00H, 'o', 00H, 'r', 00H, 'd', 00H, '3', 00H, 'i', 00H, 'v'
	DB	00H, 00H, 00H
$SG322160 DB	'[', 00H, ' ', 00H, 'O', 00H, 'p', 00H, 'e', 00H, 'n', 00H
	DB	'G', 00H, 'L', 00H, '3', 00H, '2', 00H, ' ', 00H, ']', 00H, ' '
	DB	00H, 'U', 00H, 'n', 00H, 'a', 00H, 'b', 00H, 'l', 00H, 'e', 00H
	DB	' ', 00H, 't', 00H, 'o', 00H, ' ', 00H, 'l', 00H, 'o', 00H, 'c'
	DB	00H, 'a', 00H, 't', 00H, 'e', 00H, ' ', 00H, 's', 00H, 'y', 00H
	DB	'm', 00H, 'b', 00H, 'o', 00H, 'l', 00H, ' ', 00H, ' ', 00H, '%'
	DB	00H, 's', 00H, ' ', 00H, 'i', 00H, 'n', 00H, ' ', 00H, 'O', 00H
	DB	'p', 00H, 'e', 00H, 'n', 00H, 'G', 00H, 'L', 00H, '3', 00H, '2'
	DB	00H, '.', 00H, 'd', 00H, 'l', 00H, 'l', 00H, 00H, 00H
	ORG $+2
$SG323187 DB	'g', 00H, 'l', 00H, 'V', 00H, 'i', 00H, 'e', 00H, 'w', 00H
	DB	'p', 00H, 'o', 00H, 'r', 00H, 't', 00H, 00H, 00H
	ORG $+2
$SG318067 DB	'g', 00H, 'l', 00H, 'C', 00H, 'o', 00H, 'l', 00H, 'o', 00H
	DB	'r', 00H, '3', 00H, 'u', 00H, 's', 00H, 00H, 00H
	ORG $+2
$SG318077 DB	'glColor3usv', 00H
$SG323188 DB	'[', 00H, ' ', 00H, 'O', 00H, 'p', 00H, 'e', 00H, 'n', 00H
	DB	'G', 00H, 'L', 00H, '3', 00H, '2', 00H, ' ', 00H, ']', 00H, ' '
	DB	00H, 'U', 00H, 'n', 00H, 'a', 00H, 'b', 00H, 'l', 00H, 'e', 00H
	DB	' ', 00H, 't', 00H, 'o', 00H, ' ', 00H, 'l', 00H, 'o', 00H, 'c'
	DB	00H, 'a', 00H, 't', 00H, 'e', 00H, ' ', 00H, 's', 00H, 'y', 00H
	DB	'm', 00H, 'b', 00H, 'o', 00H, 'l', 00H, ' ', 00H, ' ', 00H, '%'
	DB	00H, 's', 00H, ' ', 00H, 'i', 00H, 'n', 00H, ' ', 00H, 'O', 00H
	DB	'p', 00H, 'e', 00H, 'n', 00H, 'G', 00H, 'L', 00H, '3', 00H, '2'
	DB	00H, '.', 00H, 'd', 00H, 'l', 00H, 'l', 00H, 00H, 00H
	ORG $+2
$SG323201 DB	'wglCopyContext', 00H
	ORG $+1
$SG319105 DB	'glFogfv', 00H
$SG320133 DB	'glLineWidth', 00H
$SG318068 DB	'[', 00H, ' ', 00H, 'O', 00H, 'p', 00H, 'e', 00H, 'n', 00H
	DB	'G', 00H, 'L', 00H, '3', 00H, '2', 00H, ' ', 00H, ']', 00H, ' '
	DB	00H, 'U', 00H, 'n', 00H, 'a', 00H, 'b', 00H, 'l', 00H, 'e', 00H
	DB	' ', 00H, 't', 00H, 'o', 00H, ' ', 00H, 'l', 00H, 'o', 00H, 'c'
	DB	00H, 'a', 00H, 't', 00H, 'e', 00H, ' ', 00H, 's', 00H, 'y', 00H
	DB	'm', 00H, 'b', 00H, 'o', 00H, 'l', 00H, ' ', 00H, ' ', 00H, '%'
	DB	00H, 's', 00H, ' ', 00H, 'i', 00H, 'n', 00H, ' ', 00H, 'O', 00H
	DB	'p', 00H, 'e', 00H, 'n', 00H, 'G', 00H, 'L', 00H, '3', 00H, '2'
	DB	00H, '.', 00H, 'd', 00H, 'l', 00H, 'l', 00H, 00H, 00H
	ORG $+2
$SG319093 DB	'g', 00H, 'l', 00H, 'F', 00H, 'o', 00H, 'g', 00H, 'f', 00H
	DB	00H, 00H
	ORG $+2
$SG318081 DB	'g', 00H, 'l', 00H, 'C', 00H, 'o', 00H, 'l', 00H, 'o', 00H
	DB	'r', 00H, '3', 00H, 'u', 00H, 's', 00H, 'v', 00H, 00H, 00H
$SG321163 DB	'g', 00H, 'l', 00H, 'R', 00H, 'a', 00H, 's', 00H, 't', 00H
	DB	'e', 00H, 'r', 00H, 'P', 00H, 'o', 00H, 's', 00H, '2', 00H, 'i'
	DB	00H, 00H, 00H
$SG319094 DB	'[', 00H, ' ', 00H, 'O', 00H, 'p', 00H, 'e', 00H, 'n', 00H
	DB	'G', 00H, 'L', 00H, '3', 00H, '2', 00H, ' ', 00H, ']', 00H, ' '
	DB	00H, 'U', 00H, 'n', 00H, 'a', 00H, 'b', 00H, 'l', 00H, 'e', 00H
	DB	' ', 00H, 't', 00H, 'o', 00H, ' ', 00H, 'l', 00H, 'o', 00H, 'c'
	DB	00H, 'a', 00H, 't', 00H, 'e', 00H, ' ', 00H, 's', 00H, 'y', 00H
	DB	'm', 00H, 'b', 00H, 'o', 00H, 'l', 00H, ' ', 00H, ' ', 00H, '%'
	DB	00H, 's', 00H, ' ', 00H, 'i', 00H, 'n', 00H, ' ', 00H, 'O', 00H
	DB	'p', 00H, 'e', 00H, 'n', 00H, 'G', 00H, 'L', 00H, '3', 00H, '2'
	DB	00H, '.', 00H, 'd', 00H, 'l', 00H, 'l', 00H, 00H, 00H
	ORG $+2
$SG320119 DB	'glLineStipple', 00H
	ORG $+2
$SG322169 DB	'glTexCoord3iv', 00H
	ORG $+2
$SG321147 DB	'g', 00H, 'l', 00H, 'R', 00H, 'a', 00H, 's', 00H, 't', 00H
	DB	'e', 00H, 'r', 00H, 'P', 00H, 'o', 00H, 's', 00H, '2', 00H, 'f'
	DB	00H, 'v', 00H, 00H, 00H
	ORG $+2
$SG319109 DB	'g', 00H, 'l', 00H, 'F', 00H, 'o', 00H, 'g', 00H, 'f', 00H
	DB	'v', 00H, 00H, 00H
$SG323215 DB	'wglCreateContext', 00H
	ORG $+3
$SG321148 DB	'[', 00H, ' ', 00H, 'O', 00H, 'p', 00H, 'e', 00H, 'n', 00H
	DB	'G', 00H, 'L', 00H, '3', 00H, '2', 00H, ' ', 00H, ']', 00H, ' '
	DB	00H, 'U', 00H, 'n', 00H, 'a', 00H, 'b', 00H, 'l', 00H, 'e', 00H
	DB	' ', 00H, 't', 00H, 'o', 00H, ' ', 00H, 'l', 00H, 'o', 00H, 'c'
	DB	00H, 'a', 00H, 't', 00H, 'e', 00H, ' ', 00H, 's', 00H, 'y', 00H
	DB	'm', 00H, 'b', 00H, 'o', 00H, 'l', 00H, ' ', 00H, ' ', 00H, '%'
	DB	00H, 's', 00H, ' ', 00H, 'i', 00H, 'n', 00H, ' ', 00H, 'O', 00H
	DB	'p', 00H, 'e', 00H, 'n', 00H, 'G', 00H, 'L', 00H, '3', 00H, '2'
	DB	00H, '.', 00H, 'd', 00H, 'l', 00H, 'l', 00H, 00H, 00H
	ORG $+2
$SG320137 DB	'g', 00H, 'l', 00H, 'L', 00H, 'i', 00H, 'n', 00H, 'e', 00H
	DB	'W', 00H, 'i', 00H, 'd', 00H, 't', 00H, 'h', 00H, 00H, 00H
$SG322191 DB	'g', 00H, 'l', 00H, 'T', 00H, 'e', 00H, 'x', 00H, 'C', 00H
	DB	'o', 00H, 'o', 00H, 'r', 00H, 'd', 00H, '3', 00H, 's', 00H, 00H
	DB	00H
	ORG $+2
$SG320124 DB	'[', 00H, ' ', 00H, 'O', 00H, 'p', 00H, 'e', 00H, 'n', 00H
	DB	'G', 00H, 'L', 00H, '3', 00H, '2', 00H, ' ', 00H, ']', 00H, ' '
	DB	00H, 'U', 00H, 'n', 00H, 'a', 00H, 'b', 00H, 'l', 00H, 'e', 00H
	DB	' ', 00H, 't', 00H, 'o', 00H, ' ', 00H, 'l', 00H, 'o', 00H, 'c'
	DB	00H, 'a', 00H, 't', 00H, 'e', 00H, ' ', 00H, 's', 00H, 'y', 00H
	DB	'm', 00H, 'b', 00H, 'o', 00H, 'l', 00H, ' ', 00H, ' ', 00H, '%'
	DB	00H, 's', 00H, ' ', 00H, 'i', 00H, 'n', 00H, ' ', 00H, 'O', 00H
	DB	'p', 00H, 'e', 00H, 'n', 00H, 'G', 00H, 'L', 00H, '3', 00H, '2'
	DB	00H, '.', 00H, 'd', 00H, 'l', 00H, 'l', 00H, 00H, 00H
	ORG $+2
$SG319121 DB	'glFogi', 00H
	ORG $+1
$SG318097 DB	'glColor4b', 00H
	ORG $+2
$SG322174 DB	'[', 00H, ' ', 00H, 'O', 00H, 'p', 00H, 'e', 00H, 'n', 00H
	DB	'G', 00H, 'L', 00H, '3', 00H, '2', 00H, ' ', 00H, ']', 00H, ' '
	DB	00H, 'U', 00H, 'n', 00H, 'a', 00H, 'b', 00H, 'l', 00H, 'e', 00H
	DB	' ', 00H, 't', 00H, 'o', 00H, ' ', 00H, 'l', 00H, 'o', 00H, 'c'
	DB	00H, 'a', 00H, 't', 00H, 'e', 00H, ' ', 00H, 's', 00H, 'y', 00H
	DB	'm', 00H, 'b', 00H, 'o', 00H, 'l', 00H, ' ', 00H, ' ', 00H, '%'
	DB	00H, 's', 00H, ' ', 00H, 'i', 00H, 'n', 00H, ' ', 00H, 'O', 00H
	DB	'p', 00H, 'e', 00H, 'n', 00H, 'G', 00H, 'L', 00H, '3', 00H, '2'
	DB	00H, '.', 00H, 'd', 00H, 'l', 00H, 'l', 00H, 00H, 00H
	ORG $+2
$SG323219 DB	'w', 00H, 'g', 00H, 'l', 00H, 'C', 00H, 'r', 00H, 'e', 00H
	DB	'a', 00H, 't', 00H, 'e', 00H, 'C', 00H, 'o', 00H, 'n', 00H, 't'
	DB	00H, 'e', 00H, 'x', 00H, 't', 00H, 00H, 00H
	ORG $+2
$SG318082 DB	'[', 00H, ' ', 00H, 'O', 00H, 'p', 00H, 'e', 00H, 'n', 00H
	DB	'G', 00H, 'L', 00H, '3', 00H, '2', 00H, ' ', 00H, ']', 00H, ' '
	DB	00H, 'U', 00H, 'n', 00H, 'a', 00H, 'b', 00H, 'l', 00H, 'e', 00H
	DB	' ', 00H, 't', 00H, 'o', 00H, ' ', 00H, 'l', 00H, 'o', 00H, 'c'
	DB	00H, 'a', 00H, 't', 00H, 'e', 00H, ' ', 00H, 's', 00H, 'y', 00H
	DB	'm', 00H, 'b', 00H, 'o', 00H, 'l', 00H, ' ', 00H, ' ', 00H, '%'
	DB	00H, 's', 00H, ' ', 00H, 'i', 00H, 'n', 00H, ' ', 00H, 'O', 00H
	DB	'p', 00H, 'e', 00H, 'n', 00H, 'G', 00H, 'L', 00H, '3', 00H, '2'
	DB	00H, '.', 00H, 'd', 00H, 'l', 00H, 'l', 00H, 00H, 00H
	ORG $+2
$SG323205 DB	'w', 00H, 'g', 00H, 'l', 00H, 'C', 00H, 'o', 00H, 'p', 00H
	DB	'y', 00H, 'C', 00H, 'o', 00H, 'n', 00H, 't', 00H, 'e', 00H, 'x'
	DB	00H, 't', 00H, 00H, 00H
	ORG $+2
$SG320147 DB	'glListBase', 00H
	ORG $+1
$SG323206 DB	'[', 00H, ' ', 00H, 'O', 00H, 'p', 00H, 'e', 00H, 'n', 00H
	DB	'G', 00H, 'L', 00H, '3', 00H, '2', 00H, ' ', 00H, ']', 00H, ' '
	DB	00H, 'U', 00H, 'n', 00H, 'a', 00H, 'b', 00H, 'l', 00H, 'e', 00H
	DB	' ', 00H, 't', 00H, 'o', 00H, ' ', 00H, 'l', 00H, 'o', 00H, 'c'
	DB	00H, 'a', 00H, 't', 00H, 'e', 00H, ' ', 00H, 's', 00H, 'y', 00H
	DB	'm', 00H, 'b', 00H, 'o', 00H, 'l', 00H, ' ', 00H, ' ', 00H, '%'
	DB	00H, 's', 00H, ' ', 00H, 'i', 00H, 'n', 00H, ' ', 00H, 'O', 00H
	DB	'p', 00H, 'e', 00H, 'n', 00H, 'G', 00H, 'L', 00H, '3', 00H, '2'
	DB	00H, '.', 00H, 'd', 00H, 'l', 00H, 'l', 00H, 00H, 00H
	ORG $+2
$SG321173 DB	'glRasterPos2iv', 00H
	ORG $+1
$SG318101 DB	'g', 00H, 'l', 00H, 'C', 00H, 'o', 00H, 'l', 00H, 'o', 00H
	DB	'r', 00H, '4', 00H, 'b', 00H, 00H, 00H
$SG319110 DB	'[', 00H, ' ', 00H, 'O', 00H, 'p', 00H, 'e', 00H, 'n', 00H
	DB	'G', 00H, 'L', 00H, '3', 00H, '2', 00H, ' ', 00H, ']', 00H, ' '
	DB	00H, 'U', 00H, 'n', 00H, 'a', 00H, 'b', 00H, 'l', 00H, 'e', 00H
	DB	' ', 00H, 't', 00H, 'o', 00H, ' ', 00H, 'l', 00H, 'o', 00H, 'c'
	DB	00H, 'a', 00H, 't', 00H, 'e', 00H, ' ', 00H, 's', 00H, 'y', 00H
	DB	'm', 00H, 'b', 00H, 'o', 00H, 'l', 00H, ' ', 00H, ' ', 00H, '%'
	DB	00H, 's', 00H, ' ', 00H, 'i', 00H, 'n', 00H, ' ', 00H, 'O', 00H
	DB	'p', 00H, 'e', 00H, 'n', 00H, 'G', 00H, 'L', 00H, '3', 00H, '2'
	DB	00H, '.', 00H, 'd', 00H, 'l', 00H, 'l', 00H, 00H, 00H
	ORG $+2
$SG321159 DB	'glRasterPos2i', 00H
	ORG $+2
$SG322205 DB	'g', 00H, 'l', 00H, 'T', 00H, 'e', 00H, 'x', 00H, 'C', 00H
	DB	'o', 00H, 'o', 00H, 'r', 00H, 'd', 00H, '3', 00H, 's', 00H, 'v'
	DB	00H, 00H, 00H
$SG320138 DB	'[', 00H, ' ', 00H, 'O', 00H, 'p', 00H, 'e', 00H, 'n', 00H
	DB	'G', 00H, 'L', 00H, '3', 00H, '2', 00H, ' ', 00H, ']', 00H, ' '
	DB	00H, 'U', 00H, 'n', 00H, 'a', 00H, 'b', 00H, 'l', 00H, 'e', 00H
	DB	' ', 00H, 't', 00H, 'o', 00H, ' ', 00H, 'l', 00H, 'o', 00H, 'c'
	DB	00H, 'a', 00H, 't', 00H, 'e', 00H, ' ', 00H, 's', 00H, 'y', 00H
	DB	'm', 00H, 'b', 00H, 'o', 00H, 'l', 00H, ' ', 00H, ' ', 00H, '%'
	DB	00H, 's', 00H, ' ', 00H, 'i', 00H, 'n', 00H, ' ', 00H, 'O', 00H
	DB	'p', 00H, 'e', 00H, 'n', 00H, 'G', 00H, 'L', 00H, '3', 00H, '2'
	DB	00H, '.', 00H, 'd', 00H, 'l', 00H, 'l', 00H, 00H, 00H
	ORG $+2
$SG322187 DB	'glTexCoord3s', 00H
	ORG $+3
$SG319125 DB	'g', 00H, 'l', 00H, 'F', 00H, 'o', 00H, 'g', 00H, 'i', 00H
	DB	00H, 00H
	ORG $+2
$SG318111 DB	'glColor4bv', 00H
	ORG $+1
$SG321164 DB	'[', 00H, ' ', 00H, 'O', 00H, 'p', 00H, 'e', 00H, 'n', 00H
	DB	'G', 00H, 'L', 00H, '3', 00H, '2', 00H, ' ', 00H, ']', 00H, ' '
	DB	00H, 'U', 00H, 'n', 00H, 'a', 00H, 'b', 00H, 'l', 00H, 'e', 00H
	DB	' ', 00H, 't', 00H, 'o', 00H, ' ', 00H, 'l', 00H, 'o', 00H, 'c'
	DB	00H, 'a', 00H, 't', 00H, 'e', 00H, ' ', 00H, 's', 00H, 'y', 00H
	DB	'm', 00H, 'b', 00H, 'o', 00H, 'l', 00H, ' ', 00H, ' ', 00H, '%'
	DB	00H, 's', 00H, ' ', 00H, 'i', 00H, 'n', 00H, ' ', 00H, 'O', 00H
	DB	'p', 00H, 'e', 00H, 'n', 00H, 'G', 00H, 'L', 00H, '3', 00H, '2'
	DB	00H, '.', 00H, 'd', 00H, 'l', 00H, 'l', 00H, 00H, 00H
	ORG $+2
$SG320161 DB	'glLoadIdentity', 00H
	ORG $+1
$SG319137 DB	'glFogiv', 00H
$SG323235 DB	'w', 00H, 'g', 00H, 'l', 00H, 'C', 00H, 'r', 00H, 'e', 00H
	DB	'a', 00H, 't', 00H, 'e', 00H, 'L', 00H, 'a', 00H, 'y', 00H, 'e'
	DB	00H, 'r', 00H, 'C', 00H, 'o', 00H, 'n', 00H, 't', 00H, 'e', 00H
	DB	'x', 00H, 't', 00H, 00H, 00H
$SG322192 DB	'[', 00H, ' ', 00H, 'O', 00H, 'p', 00H, 'e', 00H, 'n', 00H
	DB	'G', 00H, 'L', 00H, '3', 00H, '2', 00H, ' ', 00H, ']', 00H, ' '
	DB	00H, 'U', 00H, 'n', 00H, 'a', 00H, 'b', 00H, 'l', 00H, 'e', 00H
	DB	' ', 00H, 't', 00H, 'o', 00H, ' ', 00H, 'l', 00H, 'o', 00H, 'c'
	DB	00H, 'a', 00H, 't', 00H, 'e', 00H, ' ', 00H, 's', 00H, 'y', 00H
	DB	'm', 00H, 'b', 00H, 'o', 00H, 'l', 00H, ' ', 00H, ' ', 00H, '%'
	DB	00H, 's', 00H, ' ', 00H, 'i', 00H, 'n', 00H, ' ', 00H, 'O', 00H
	DB	'p', 00H, 'e', 00H, 'n', 00H, 'G', 00H, 'L', 00H, '3', 00H, '2'
	DB	00H, '.', 00H, 'd', 00H, 'l', 00H, 'l', 00H, 00H, 00H
	ORG $+2
$SG319141 DB	'g', 00H, 'l', 00H, 'F', 00H, 'o', 00H, 'g', 00H, 'i', 00H
	DB	'v', 00H, 00H, 00H
$SG321193 DB	'g', 00H, 'l', 00H, 'R', 00H, 'a', 00H, 's', 00H, 't', 00H
	DB	'e', 00H, 'r', 00H, 'P', 00H, 'o', 00H, 's', 00H, '2', 00H, 's'
	DB	00H, 00H, 00H
$SG323220 DB	'[', 00H, ' ', 00H, 'O', 00H, 'p', 00H, 'e', 00H, 'n', 00H
	DB	'G', 00H, 'L', 00H, '3', 00H, '2', 00H, ' ', 00H, ']', 00H, ' '
	DB	00H, 'U', 00H, 'n', 00H, 'a', 00H, 'b', 00H, 'l', 00H, 'e', 00H
	DB	' ', 00H, 't', 00H, 'o', 00H, ' ', 00H, 'l', 00H, 'o', 00H, 'c'
	DB	00H, 'a', 00H, 't', 00H, 'e', 00H, ' ', 00H, 's', 00H, 'y', 00H
	DB	'm', 00H, 'b', 00H, 'o', 00H, 'l', 00H, ' ', 00H, ' ', 00H, '%'
	DB	00H, 's', 00H, ' ', 00H, 'i', 00H, 'n', 00H, ' ', 00H, 'O', 00H
	DB	'p', 00H, 'e', 00H, 'n', 00H, 'G', 00H, 'L', 00H, '3', 00H, '2'
	DB	00H, '.', 00H, 'd', 00H, 'l', 00H, 'l', 00H, 00H, 00H
	ORG $+2
$SG323245 DB	'wglDeleteContext', 00H
	ORG $+3
$SG319126 DB	'[', 00H, ' ', 00H, 'O', 00H, 'p', 00H, 'e', 00H, 'n', 00H
	DB	'G', 00H, 'L', 00H, '3', 00H, '2', 00H, ' ', 00H, ']', 00H, ' '
	DB	00H, 'U', 00H, 'n', 00H, 'a', 00H, 'b', 00H, 'l', 00H, 'e', 00H
	DB	' ', 00H, 't', 00H, 'o', 00H, ' ', 00H, 'l', 00H, 'o', 00H, 'c'
	DB	00H, 'a', 00H, 't', 00H, 'e', 00H, ' ', 00H, 's', 00H, 'y', 00H
	DB	'm', 00H, 'b', 00H, 'o', 00H, 'l', 00H, ' ', 00H, ' ', 00H, '%'
	DB	00H, 's', 00H, ' ', 00H, 'i', 00H, 'n', 00H, ' ', 00H, 'O', 00H
	DB	'p', 00H, 'e', 00H, 'n', 00H, 'G', 00H, 'L', 00H, '3', 00H, '2'
	DB	00H, '.', 00H, 'd', 00H, 'l', 00H, 'l', 00H, 00H, 00H
	ORG $+2
$SG319151 DB	'glFrontFace', 00H
$SG318102 DB	'[', 00H, ' ', 00H, 'O', 00H, 'p', 00H, 'e', 00H, 'n', 00H
	DB	'G', 00H, 'L', 00H, '3', 00H, '2', 00H, ' ', 00H, ']', 00H, ' '
	DB	00H, 'U', 00H, 'n', 00H, 'a', 00H, 'b', 00H, 'l', 00H, 'e', 00H
	DB	' ', 00H, 't', 00H, 'o', 00H, ' ', 00H, 'l', 00H, 'o', 00H, 'c'
	DB	00H, 'a', 00H, 't', 00H, 'e', 00H, ' ', 00H, 's', 00H, 'y', 00H
	DB	'm', 00H, 'b', 00H, 'o', 00H, 'l', 00H, ' ', 00H, ' ', 00H, '%'
	DB	00H, 's', 00H, ' ', 00H, 'i', 00H, 'n', 00H, ' ', 00H, 'O', 00H
	DB	'p', 00H, 'e', 00H, 'n', 00H, 'G', 00H, 'L', 00H, '3', 00H, '2'
	DB	00H, '.', 00H, 'd', 00H, 'l', 00H, 'l', 00H, 00H, 00H
	ORG $+2
$SG320151 DB	'g', 00H, 'l', 00H, 'L', 00H, 'i', 00H, 's', 00H, 't', 00H
	DB	'B', 00H, 'a', 00H, 's', 00H, 'e', 00H, 00H, 00H
	ORG $+2
$SG323249 DB	'w', 00H, 'g', 00H, 'l', 00H, 'D', 00H, 'e', 00H, 'l', 00H
	DB	'e', 00H, 't', 00H, 'e', 00H, 'C', 00H, 'o', 00H, 'n', 00H, 't'
	DB	00H, 'e', 00H, 'x', 00H, 't', 00H, 00H, 00H
	ORG $+2
$SG320152 DB	'[', 00H, ' ', 00H, 'O', 00H, 'p', 00H, 'e', 00H, 'n', 00H
	DB	'G', 00H, 'L', 00H, '3', 00H, '2', 00H, ' ', 00H, ']', 00H, ' '
	DB	00H, 'U', 00H, 'n', 00H, 'a', 00H, 'b', 00H, 'l', 00H, 'e', 00H
	DB	' ', 00H, 't', 00H, 'o', 00H, ' ', 00H, 'l', 00H, 'o', 00H, 'c'
	DB	00H, 'a', 00H, 't', 00H, 'e', 00H, ' ', 00H, 's', 00H, 'y', 00H
	DB	'm', 00H, 'b', 00H, 'o', 00H, 'l', 00H, ' ', 00H, ' ', 00H, '%'
	DB	00H, 's', 00H, ' ', 00H, 'i', 00H, 'n', 00H, ' ', 00H, 'O', 00H
	DB	'p', 00H, 'e', 00H, 'n', 00H, 'G', 00H, 'L', 00H, '3', 00H, '2'
	DB	00H, '.', 00H, 'd', 00H, 'l', 00H, 'l', 00H, 00H, 00H
	ORG $+2
$SG322201 DB	'glTexCoord3sv', 00H
	ORG $+2
$SG321177 DB	'g', 00H, 'l', 00H, 'R', 00H, 'a', 00H, 's', 00H, 't', 00H
	DB	'e', 00H, 'r', 00H, 'P', 00H, 'o', 00H, 's', 00H, '2', 00H, 'i'
	DB	00H, 'v', 00H, 00H, 00H
	ORG $+2
$SG322225 DB	'g', 00H, 'l', 00H, 'T', 00H, 'e', 00H, 'x', 00H, 'C', 00H
	DB	'o', 00H, 'o', 00H, 'r', 00H, 'd', 00H, '4', 00H, 'd', 00H, 00H
	DB	00H
	ORG $+2
$SG321178 DB	'[', 00H, ' ', 00H, 'O', 00H, 'p', 00H, 'e', 00H, 'n', 00H
	DB	'G', 00H, 'L', 00H, '3', 00H, '2', 00H, ' ', 00H, ']', 00H, ' '
	DB	00H, 'U', 00H, 'n', 00H, 'a', 00H, 'b', 00H, 'l', 00H, 'e', 00H
	DB	' ', 00H, 't', 00H, 'o', 00H, ' ', 00H, 'l', 00H, 'o', 00H, 'c'
	DB	00H, 'a', 00H, 't', 00H, 'e', 00H, ' ', 00H, 's', 00H, 'y', 00H
	DB	'm', 00H, 'b', 00H, 'o', 00H, 'l', 00H, ' ', 00H, ' ', 00H, '%'
	DB	00H, 's', 00H, ' ', 00H, 'i', 00H, 'n', 00H, ' ', 00H, 'O', 00H
	DB	'p', 00H, 'e', 00H, 'n', 00H, 'G', 00H, 'L', 00H, '3', 00H, '2'
	DB	00H, '.', 00H, 'd', 00H, 'l', 00H, 'l', 00H, 00H, 00H
	ORG $+2
$SG321203 DB	'glRasterPos2sv', 00H
	ORG $+1
$SG320179 DB	'g', 00H, 'l', 00H, 'L', 00H, 'o', 00H, 'a', 00H, 'd', 00H
	DB	'M', 00H, 'a', 00H, 't', 00H, 'r', 00H, 'i', 00H, 'x', 00H, 'd'
	DB	00H, 00H, 00H
$SG322206 DB	'[', 00H, ' ', 00H, 'O', 00H, 'p', 00H, 'e', 00H, 'n', 00H
	DB	'G', 00H, 'L', 00H, '3', 00H, '2', 00H, ' ', 00H, ']', 00H, ' '
	DB	00H, 'U', 00H, 'n', 00H, 'a', 00H, 'b', 00H, 'l', 00H, 'e', 00H
	DB	' ', 00H, 't', 00H, 'o', 00H, ' ', 00H, 'l', 00H, 'o', 00H, 'c'
	DB	00H, 'a', 00H, 't', 00H, 'e', 00H, ' ', 00H, 's', 00H, 'y', 00H
	DB	'm', 00H, 'b', 00H, 'o', 00H, 'l', 00H, ' ', 00H, ' ', 00H, '%'
	DB	00H, 's', 00H, ' ', 00H, 'i', 00H, 'n', 00H, ' ', 00H, 'O', 00H
	DB	'p', 00H, 'e', 00H, 'n', 00H, 'G', 00H, 'L', 00H, '3', 00H, '2'
	DB	00H, '.', 00H, 'd', 00H, 'l', 00H, 'l', 00H, 00H, 00H
	ORG $+2
$SG323231 DB	'wglCreateLayerContext', 00H
	ORG $+2
$SG318115 DB	'g', 00H, 'l', 00H, 'C', 00H, 'o', 00H, 'l', 00H, 'o', 00H
	DB	'r', 00H, '4', 00H, 'b', 00H, 'v', 00H, 00H, 00H
	ORG $+2
$SG319155 DB	'g', 00H, 'l', 00H, 'F', 00H, 'r', 00H, 'o', 00H, 'n', 00H
	DB	't', 00H, 'F', 00H, 'a', 00H, 'c', 00H, 'e', 00H, 00H, 00H
$SG318131 DB	'glColor4d', 00H
	ORG $+2
$SG323236 DB	'[', 00H, ' ', 00H, 'O', 00H, 'p', 00H, 'e', 00H, 'n', 00H
	DB	'G', 00H, 'L', 00H, '3', 00H, '2', 00H, ' ', 00H, ']', 00H, ' '
	DB	00H, 'U', 00H, 'n', 00H, 'a', 00H, 'b', 00H, 'l', 00H, 'e', 00H
	DB	' ', 00H, 't', 00H, 'o', 00H, ' ', 00H, 'l', 00H, 'o', 00H, 'c'
	DB	00H, 'a', 00H, 't', 00H, 'e', 00H, ' ', 00H, 's', 00H, 'y', 00H
	DB	'm', 00H, 'b', 00H, 'o', 00H, 'l', 00H, ' ', 00H, ' ', 00H, '%'
	DB	00H, 's', 00H, ' ', 00H, 'i', 00H, 'n', 00H, ' ', 00H, 'O', 00H
	DB	'p', 00H, 'e', 00H, 'n', 00H, 'G', 00H, 'L', 00H, '3', 00H, '2'
	DB	00H, '.', 00H, 'd', 00H, 'l', 00H, 'l', 00H, 00H, 00H
	ORG $+2
$SG318135 DB	'g', 00H, 'l', 00H, 'C', 00H, 'o', 00H, 'l', 00H, 'o', 00H
	DB	'r', 00H, '4', 00H, 'd', 00H, 00H, 00H
$SG318116 DB	'[', 00H, ' ', 00H, 'O', 00H, 'p', 00H, 'e', 00H, 'n', 00H
	DB	'G', 00H, 'L', 00H, '3', 00H, '2', 00H, ' ', 00H, ']', 00H, ' '
	DB	00H, 'U', 00H, 'n', 00H, 'a', 00H, 'b', 00H, 'l', 00H, 'e', 00H
	DB	' ', 00H, 't', 00H, 'o', 00H, ' ', 00H, 'l', 00H, 'o', 00H, 'c'
	DB	00H, 'a', 00H, 't', 00H, 'e', 00H, ' ', 00H, 's', 00H, 'y', 00H
	DB	'm', 00H, 'b', 00H, 'o', 00H, 'l', 00H, ' ', 00H, ' ', 00H, '%'
	DB	00H, 's', 00H, ' ', 00H, 'i', 00H, 'n', 00H, ' ', 00H, 'O', 00H
	DB	'p', 00H, 'e', 00H, 'n', 00H, 'G', 00H, 'L', 00H, '3', 00H, '2'
	DB	00H, '.', 00H, 'd', 00H, 'l', 00H, 'l', 00H, 00H, 00H
	ORG $+2
$SG321189 DB	'glRasterPos2s', 00H
	ORG $+2
$SG320165 DB	'g', 00H, 'l', 00H, 'L', 00H, 'o', 00H, 'a', 00H, 'd', 00H
	DB	'I', 00H, 'd', 00H, 'e', 00H, 'n', 00H, 't', 00H, 'i', 00H, 't'
	DB	00H, 'y', 00H, 00H, 00H
	ORG $+2
$SG323263 DB	'w', 00H, 'g', 00H, 'l', 00H, 'G', 00H, 'e', 00H, 't', 00H
	DB	'C', 00H, 'u', 00H, 'r', 00H, 'r', 00H, 'e', 00H, 'n', 00H, 't'
	DB	00H, 'C', 00H, 'o', 00H, 'n', 00H, 't', 00H, 'e', 00H, 'x', 00H
	DB	't', 00H, 00H, 00H
	ORG $+2
$SG320166 DB	'[', 00H, ' ', 00H, 'O', 00H, 'p', 00H, 'e', 00H, 'n', 00H
	DB	'G', 00H, 'L', 00H, '3', 00H, '2', 00H, ' ', 00H, ']', 00H, ' '
	DB	00H, 'U', 00H, 'n', 00H, 'a', 00H, 'b', 00H, 'l', 00H, 'e', 00H
	DB	' ', 00H, 't', 00H, 'o', 00H, ' ', 00H, 'l', 00H, 'o', 00H, 'c'
	DB	00H, 'a', 00H, 't', 00H, 'e', 00H, ' ', 00H, 's', 00H, 'y', 00H
	DB	'm', 00H, 'b', 00H, 'o', 00H, 'l', 00H, ' ', 00H, ' ', 00H, '%'
	DB	00H, 's', 00H, ' ', 00H, 'i', 00H, 'n', 00H, ' ', 00H, 'O', 00H
	DB	'p', 00H, 'e', 00H, 'n', 00H, 'G', 00H, 'L', 00H, '3', 00H, '2'
	DB	00H, '.', 00H, 'd', 00H, 'l', 00H, 'l', 00H, 00H, 00H
	ORG $+2
$SG322239 DB	'g', 00H, 'l', 00H, 'T', 00H, 'e', 00H, 'x', 00H, 'C', 00H
	DB	'o', 00H, 'o', 00H, 'r', 00H, 'd', 00H, '4', 00H, 'd', 00H, 'v'
	DB	00H, 00H, 00H
$SG319142 DB	'[', 00H, ' ', 00H, 'O', 00H, 'p', 00H, 'e', 00H, 'n', 00H
	DB	'G', 00H, 'L', 00H, '3', 00H, '2', 00H, ' ', 00H, ']', 00H, ' '
	DB	00H, 'U', 00H, 'n', 00H, 'a', 00H, 'b', 00H, 'l', 00H, 'e', 00H
	DB	' ', 00H, 't', 00H, 'o', 00H, ' ', 00H, 'l', 00H, 'o', 00H, 'c'
	DB	00H, 'a', 00H, 't', 00H, 'e', 00H, ' ', 00H, 's', 00H, 'y', 00H
	DB	'm', 00H, 'b', 00H, 'o', 00H, 'l', 00H, ' ', 00H, ' ', 00H, '%'
	DB	00H, 's', 00H, ' ', 00H, 'i', 00H, 'n', 00H, ' ', 00H, 'O', 00H
	DB	'p', 00H, 'e', 00H, 'n', 00H, 'G', 00H, 'L', 00H, '3', 00H, '2'
	DB	00H, '.', 00H, 'd', 00H, 'l', 00H, 'l', 00H, 00H, 00H
	ORG $+2
$SG320193 DB	'g', 00H, 'l', 00H, 'L', 00H, 'o', 00H, 'a', 00H, 'd', 00H
	DB	'M', 00H, 'a', 00H, 't', 00H, 'r', 00H, 'i', 00H, 'x', 00H, 'f'
	DB	00H, 00H, 00H
$SG321194 DB	'[', 00H, ' ', 00H, 'O', 00H, 'p', 00H, 'e', 00H, 'n', 00H
	DB	'G', 00H, 'L', 00H, '3', 00H, '2', 00H, ' ', 00H, ']', 00H, ' '
	DB	00H, 'U', 00H, 'n', 00H, 'a', 00H, 'b', 00H, 'l', 00H, 'e', 00H
	DB	' ', 00H, 't', 00H, 'o', 00H, ' ', 00H, 'l', 00H, 'o', 00H, 'c'
	DB	00H, 'a', 00H, 't', 00H, 'e', 00H, ' ', 00H, 's', 00H, 'y', 00H
	DB	'm', 00H, 'b', 00H, 'o', 00H, 'l', 00H, ' ', 00H, ' ', 00H, '%'
	DB	00H, 's', 00H, ' ', 00H, 'i', 00H, 'n', 00H, ' ', 00H, 'O', 00H
	DB	'p', 00H, 'e', 00H, 'n', 00H, 'G', 00H, 'L', 00H, '3', 00H, '2'
	DB	00H, '.', 00H, 'd', 00H, 'l', 00H, 'l', 00H, 00H, 00H
	ORG $+2
$SG322221 DB	'glTexCoord4d', 00H
	ORG $+3
$SG320175 DB	'glLoadMatrixd', 00H
	ORG $+2
$SG318145 DB	'glColor4dv', 00H
	ORG $+1
$SG323250 DB	'[', 00H, ' ', 00H, 'O', 00H, 'p', 00H, 'e', 00H, 'n', 00H
	DB	'G', 00H, 'L', 00H, '3', 00H, '2', 00H, ' ', 00H, ']', 00H, ' '
	DB	00H, 'U', 00H, 'n', 00H, 'a', 00H, 'b', 00H, 'l', 00H, 'e', 00H
	DB	' ', 00H, 't', 00H, 'o', 00H, ' ', 00H, 'l', 00H, 'o', 00H, 'c'
	DB	00H, 'a', 00H, 't', 00H, 'e', 00H, ' ', 00H, 's', 00H, 'y', 00H
	DB	'm', 00H, 'b', 00H, 'o', 00H, 'l', 00H, ' ', 00H, ' ', 00H, '%'
	DB	00H, 's', 00H, ' ', 00H, 'i', 00H, 'n', 00H, ' ', 00H, 'O', 00H
	DB	'p', 00H, 'e', 00H, 'n', 00H, 'G', 00H, 'L', 00H, '3', 00H, '2'
	DB	00H, '.', 00H, 'd', 00H, 'l', 00H, 'l', 00H, 00H, 00H
	ORG $+2
$SG319175 DB	'glFrustum', 00H
	ORG $+2
$SG322226 DB	'[', 00H, ' ', 00H, 'O', 00H, 'p', 00H, 'e', 00H, 'n', 00H
	DB	'G', 00H, 'L', 00H, '3', 00H, '2', 00H, ' ', 00H, ']', 00H, ' '
	DB	00H, 'U', 00H, 'n', 00H, 'a', 00H, 'b', 00H, 'l', 00H, 'e', 00H
	DB	' ', 00H, 't', 00H, 'o', 00H, ' ', 00H, 'l', 00H, 'o', 00H, 'c'
	DB	00H, 'a', 00H, 't', 00H, 'e', 00H, ' ', 00H, 's', 00H, 'y', 00H
	DB	'm', 00H, 'b', 00H, 'o', 00H, 'l', 00H, ' ', 00H, ' ', 00H, '%'
	DB	00H, 's', 00H, ' ', 00H, 'i', 00H, 'n', 00H, ' ', 00H, 'O', 00H
	DB	'p', 00H, 'e', 00H, 'n', 00H, 'G', 00H, 'L', 00H, '3', 00H, '2'
	DB	00H, '.', 00H, 'd', 00H, 'l', 00H, 'l', 00H, 00H, 00H
	ORG $+2
$SG323273 DB	'wglGetCurrentDC', 00H
$SG321225 DB	'g', 00H, 'l', 00H, 'R', 00H, 'a', 00H, 's', 00H, 't', 00H
	DB	'e', 00H, 'r', 00H, 'P', 00H, 'o', 00H, 's', 00H, '3', 00H, 'd'
	DB	00H, 00H, 00H
$SG320180 DB	'[', 00H, ' ', 00H, 'O', 00H, 'p', 00H, 'e', 00H, 'n', 00H
	DB	'G', 00H, 'L', 00H, '3', 00H, '2', 00H, ' ', 00H, ']', 00H, ' '
	DB	00H, 'U', 00H, 'n', 00H, 'a', 00H, 'b', 00H, 'l', 00H, 'e', 00H
	DB	' ', 00H, 't', 00H, 'o', 00H, ' ', 00H, 'l', 00H, 'o', 00H, 'c'
	DB	00H, 'a', 00H, 't', 00H, 'e', 00H, ' ', 00H, 's', 00H, 'y', 00H
