; Listing generated by Microsoft (R) Optimizing Compiler Version 19.10.25019.0 

	TITLE	C:\Users\andon\Source\Repos\SpecialK\src\parameter.cpp
	.686P
	.XMM
	include listing.inc
	.model	flat

INCLUDELIB MSVCRT
INCLUDELIB OLDNAMES

CONST	SEGMENT
$SG133404 DB	'1', 00H, 00H, 00H
$SG133405 DB	'0', 00H, 00H, 00H
$SG133407 DB	'y', 00H, 'e', 00H, 's', 00H, 00H, 00H
$SG133408 DB	'n', 00H, 'o', 00H, 00H, 00H
	ORG $+2
$SG133410 DB	'o', 00H, 'n', 00H, 00H, 00H
	ORG $+2
$SG133411 DB	'o', 00H, 'f', 00H, 'f', 00H, 00H, 00H
$SG133413 DB	't', 00H, 'r', 00H, 'u', 00H, 'e', 00H, 00H, 00H
	ORG $+2
$SG133414 DB	'f', 00H, 'a', 00H, 'l', 00H, 's', 00H, 'e', 00H, 00H, 00H
$SG133465 DB	'%', 00H, 'f', 00H, 00H, 00H
	ORG $+2
$SG133537 DB	'%', 00H, 'f', 00H, 00H, 00H
	ORG $+2
$SG133538 DB	'%', 00H, 'f', 00H, 00H, 00H
	ORG $+2
$SG133539 DB	'(', 00H, '%', 00H, 's', 00H, ',', 00H, '%', 00H, 's', 00H
	DB	')', 00H, 00H, 00H
$SG133553 DB	'(', 00H, '%', 00H, 'f', 00H, ',', 00H, '%', 00H, 'f', 00H
	DB	')', 00H, 00H, 00H
CONST	ENDS
PUBLIC	?swprintf@@YAHQA_WQB_WZZ			; swprintf
PUBLIC	??$__vcrt_va_start_verify_argument_type@QB_W@@YAXXZ ; __vcrt_va_start_verify_argument_type<wchar_t const * const>
PUBLIC	_wmemcpy
PUBLIC	_wmemmove
PUBLIC	??2@YAPAXIPAX@Z					; operator new
PUBLIC	?length@?$char_traits@_W@std@@SAIQB_W@Z		; std::char_traits<wchar_t>::length
PUBLIC	?copy@?$char_traits@_W@std@@SAPA_WQA_WQB_WI@Z	; std::char_traits<wchar_t>::copy
PUBLIC	?move@?$char_traits@_W@std@@SAPA_WQA_WQB_WI@Z	; std::char_traits<wchar_t>::move
PUBLIC	?assign@?$char_traits@_W@std@@SAXAA_WAB_W@Z	; std::char_traits<wchar_t>::assign
PUBLIC	?_Orphan_all@_Container_base0@std@@QAEXXZ	; std::_Container_base0::_Orphan_all
PUBLIC	?_Allocate@std@@YAPAXII_N@Z			; std::_Allocate
PUBLIC	?_Deallocate@std@@YAXPAXII@Z			; std::_Deallocate
PUBLIC	??0type_index@std@@QAE@ABVtype_info@@@Z		; std::type_index::type_index
PUBLIC	??0ImVec2@@QAE@XZ				; ImVec2::ImVec2
PUBLIC	??0iParameter@sk@@QAE@XZ			; sk::iParameter::iParameter
PUBLIC	?load@iParameter@sk@@QAE_NXZ			; sk::iParameter::load
PUBLIC	?store@iParameter@sk@@QAE_NXZ			; sk::iParameter::store
PUBLIC	??0?$allocator@_W@std@@QAE@XZ			; std::allocator<wchar_t>::allocator<wchar_t>
PUBLIC	??0?$allocator@_W@std@@QAE@ABV01@@Z		; std::allocator<wchar_t>::allocator<wchar_t>
PUBLIC	?deallocate@?$allocator@_W@std@@QAEXPA_WI@Z	; std::allocator<wchar_t>::deallocate
PUBLIC	?allocate@?$allocator@_W@std@@QAEPA_WI@Z	; std::allocator<wchar_t>::allocate
PUBLIC	?max_size@?$allocator@_W@std@@QBEIXZ		; std::allocator<wchar_t>::max_size
PUBLIC	?max_size@?$allocator_traits@V?$allocator@_W@std@@@std@@SAIABV?$allocator@_W@2@@Z ; std::allocator_traits<std::allocator<wchar_t> >::max_size
PUBLIC	?select_on_container_copy_construction@?$allocator_traits@V?$allocator@_W@std@@@std@@SA?AV?$allocator@_W@2@ABV32@@Z ; std::allocator_traits<std::allocator<wchar_t> >::select_on_container_copy_construction
PUBLIC	?select_on_container_copy_construction@?$_Wrap_alloc@V?$allocator@_W@std@@@std@@QBE?AU12@U_Nil@2@@Z ; std::_Wrap_alloc<std::allocator<wchar_t> >::select_on_container_copy_construction
PUBLIC	??0?$_Wrap_alloc@V?$allocator@_W@std@@@std@@QAE@XZ ; std::_Wrap_alloc<std::allocator<wchar_t> >::_Wrap_alloc<std::allocator<wchar_t> >
PUBLIC	??0?$_Wrap_alloc@V?$allocator@_W@std@@@std@@QAE@$$QAU01@@Z ; std::_Wrap_alloc<std::allocator<wchar_t> >::_Wrap_alloc<std::allocator<wchar_t> >
PUBLIC	??4?$_Wrap_alloc@V?$allocator@_W@std@@@std@@QAEAAU01@$$QAU01@@Z ; std::_Wrap_alloc<std::allocator<wchar_t> >::operator=
PUBLIC	?allocate@?$_Wrap_alloc@V?$allocator@_W@std@@@std@@QAEPA_WI@Z ; std::_Wrap_alloc<std::allocator<wchar_t> >::allocate
PUBLIC	?deallocate@?$_Wrap_alloc@V?$allocator@_W@std@@@std@@QAEXPA_WI@Z ; std::_Wrap_alloc<std::allocator<wchar_t> >::deallocate
PUBLIC	?max_size@?$_Wrap_alloc@V?$allocator@_W@std@@@std@@QBEIU_Nil@2@@Z ; std::_Wrap_alloc<std::allocator<wchar_t> >::max_size
PUBLIC	??0?$_String_val@U?$_Simple_types@_W@std@@@std@@QAE@XZ ; std::_String_val<std::_Simple_types<wchar_t> >::_String_val<std::_Simple_types<wchar_t> >
PUBLIC	?_Myptr@?$_String_val@U?$_Simple_types@_W@std@@@std@@QAEPA_WXZ ; std::_String_val<std::_Simple_types<wchar_t> >::_Myptr
PUBLIC	?_Myptr@?$_String_val@U?$_Simple_types@_W@std@@@std@@QBEPB_WXZ ; std::_String_val<std::_Simple_types<wchar_t> >::_Myptr
PUBLIC	?_Large_string_engaged@?$_String_val@U?$_Simple_types@_W@std@@@std@@QBE_NXZ ; std::_String_val<std::_Simple_types<wchar_t> >::_Large_string_engaged
PUBLIC	??0_Bxty@?$_String_val@U?$_Simple_types@_W@std@@@std@@QAE@XZ ; std::_String_val<std::_Simple_types<wchar_t> >::_Bxty::_Bxty
PUBLIC	??1_Bxty@?$_String_val@U?$_Simple_types@_W@std@@@std@@QAE@XZ ; std::_String_val<std::_Simple_types<wchar_t> >::_Bxty::~_Bxty
PUBLIC	??1?$_String_val@U?$_Simple_types@_W@std@@@std@@QAE@XZ ; std::_String_val<std::_Simple_types<wchar_t> >::~_String_val<std::_Simple_types<wchar_t> >
PUBLIC	?_Myptr@?$_String_alloc@U?$_String_base_types@_WV?$allocator@_W@std@@@std@@@std@@QAEPA_WXZ ; std::_String_alloc<std::_String_base_types<wchar_t,std::allocator<wchar_t> > >::_Myptr
PUBLIC	?_Myptr@?$_String_alloc@U?$_String_base_types@_WV?$allocator@_W@std@@@std@@@std@@QBEPB_WXZ ; std::_String_alloc<std::_String_base_types<wchar_t,std::allocator<wchar_t> > >::_Myptr
PUBLIC	??0?$_String_alloc@U?$_String_base_types@_WV?$allocator@_W@std@@@std@@@std@@QAE@XZ ; std::_String_alloc<std::_String_base_types<wchar_t,std::allocator<wchar_t> > >::_String_alloc<std::_String_base_types<wchar_t,std::allocator<wchar_t> > >
PUBLIC	?_Copy_alloc@?$_String_alloc@U?$_String_base_types@_WV?$allocator@_W@std@@@std@@@std@@QAEXABU?$_Wrap_alloc@V?$allocator@_W@std@@@2@@Z ; std::_String_alloc<std::_String_base_types<wchar_t,std::allocator<wchar_t> > >::_Copy_alloc
PUBLIC	?_Move_alloc@?$_String_alloc@U?$_String_base_types@_WV?$allocator@_W@std@@@std@@@std@@QAEXAAU?$_Wrap_alloc@V?$allocator@_W@std@@@2@@Z ; std::_String_alloc<std::_String_base_types<wchar_t,std::allocator<wchar_t> > >::_Move_alloc
PUBLIC	?_Orphan_all@?$_String_alloc@U?$_String_base_types@_WV?$allocator@_W@std@@@std@@@std@@QAEXXZ ; std::_String_alloc<std::_String_base_types<wchar_t,std::allocator<wchar_t> > >::_Orphan_all
PUBLIC	?_Getal@?$_String_alloc@U?$_String_base_types@_WV?$allocator@_W@std@@@std@@@std@@QAEAAU?$_Wrap_alloc@V?$allocator@_W@std@@@2@XZ ; std::_String_alloc<std::_String_base_types<wchar_t,std::allocator<wchar_t> > >::_Getal
PUBLIC	?_Getal@?$_String_alloc@U?$_String_base_types@_WV?$allocator@_W@std@@@std@@@std@@QBEABU?$_Wrap_alloc@V?$allocator@_W@std@@@2@XZ ; std::_String_alloc<std::_String_base_types<wchar_t,std::allocator<wchar_t> > >::_Getal
PUBLIC	?_Get_data@?$_String_alloc@U?$_String_base_types@_WV?$allocator@_W@std@@@std@@@std@@QAEAAV?$_String_val@U?$_Simple_types@_W@std@@@2@XZ ; std::_String_alloc<std::_String_base_types<wchar_t,std::allocator<wchar_t> > >::_Get_data
PUBLIC	?_Get_data@?$_String_alloc@U?$_String_base_types@_WV?$allocator@_W@std@@@std@@@std@@QBEABV?$_String_val@U?$_Simple_types@_W@std@@@2@XZ ; std::_String_alloc<std::_String_base_types<wchar_t,std::allocator<wchar_t> > >::_Get_data
PUBLIC	?_Mysize@?$_String_alloc@U?$_String_base_types@_WV?$allocator@_W@std@@@std@@@std@@QAEAAIXZ ; std::_String_alloc<std::_String_base_types<wchar_t,std::allocator<wchar_t> > >::_Mysize
PUBLIC	?_Mysize@?$_String_alloc@U?$_String_base_types@_WV?$allocator@_W@std@@@std@@@std@@QBEABIXZ ; std::_String_alloc<std::_String_base_types<wchar_t,std::allocator<wchar_t> > >::_Mysize
PUBLIC	?_Myres@?$_String_alloc@U?$_String_base_types@_WV?$allocator@_W@std@@@std@@@std@@QAEAAIXZ ; std::_String_alloc<std::_String_base_types<wchar_t,std::allocator<wchar_t> > >::_Myres
PUBLIC	?_Get_first@?$_Compressed_pair@U?$_Wrap_alloc@V?$allocator@_W@std@@@std@@V?$_String_val@U?$_Simple_types@_W@std@@@2@$00@std@@QAEAAU?$_Wrap_alloc@V?$allocator@_W@std@@@2@XZ ; std::_Compressed_pair<std::_Wrap_alloc<std::allocator<wchar_t> >,std::_String_val<std::_Simple_types<wchar_t> >,1>::_Get_first
PUBLIC	?_Get_first@?$_Compressed_pair@U?$_Wrap_alloc@V?$allocator@_W@std@@@std@@V?$_String_val@U?$_Simple_types@_W@std@@@2@$00@std@@QBEABU?$_Wrap_alloc@V?$allocator@_W@std@@@2@XZ ; std::_Compressed_pair<std::_Wrap_alloc<std::allocator<wchar_t> >,std::_String_val<std::_Simple_types<wchar_t> >,1>::_Get_first
PUBLIC	?_Get_second@?$_Compressed_pair@U?$_Wrap_alloc@V?$allocator@_W@std@@@std@@V?$_String_val@U?$_Simple_types@_W@std@@@2@$00@std@@QAEAAV?$_String_val@U?$_Simple_types@_W@std@@@2@XZ ; std::_Compressed_pair<std::_Wrap_alloc<std::allocator<wchar_t> >,std::_String_val<std::_Simple_types<wchar_t> >,1>::_Get_second
PUBLIC	?_Get_second@?$_Compressed_pair@U?$_Wrap_alloc@V?$allocator@_W@std@@@std@@V?$_String_val@U?$_Simple_types@_W@std@@@2@$00@std@@QBEABV?$_String_val@U?$_Simple_types@_W@std@@@2@XZ ; std::_Compressed_pair<std::_Wrap_alloc<std::allocator<wchar_t> >,std::_String_val<std::_Simple_types<wchar_t> >,1>::_Get_second
PUBLIC	??1?$_Compressed_pair@U?$_Wrap_alloc@V?$allocator@_W@std@@@std@@V?$_String_val@U?$_Simple_types@_W@std@@@2@$00@std@@QAE@XZ ; std::_Compressed_pair<std::_Wrap_alloc<std::allocator<wchar_t> >,std::_String_val<std::_Simple_types<wchar_t> >,1>::~_Compressed_pair<std::_Wrap_alloc<std::allocator<wchar_t> >,std::_String_val<std::_Simple_types<wchar_t> >,1>
PUBLIC	??1?$_String_alloc@U?$_String_base_types@_WV?$allocator@_W@std@@@std@@@std@@QAE@XZ ; std::_String_alloc<std::_String_base_types<wchar_t,std::allocator<wchar_t> > >::~_String_alloc<std::_String_base_types<wchar_t,std::allocator<wchar_t> > >
PUBLIC	??0?$basic_string@_WU?$char_traits@_W@std@@V?$allocator@_W@2@@std@@QAE@ABV01@@Z ; std::basic_string<wchar_t,std::char_traits<wchar_t>,std::allocator<wchar_t> >::basic_string<wchar_t,std::char_traits<wchar_t>,std::allocator<wchar_t> >
PUBLIC	??0?$basic_string@_WU?$char_traits@_W@std@@V?$allocator@_W@2@@std@@QAE@XZ ; std::basic_string<wchar_t,std::char_traits<wchar_t>,std::allocator<wchar_t> >::basic_string<wchar_t,std::char_traits<wchar_t>,std::allocator<wchar_t> >
PUBLIC	??0?$basic_string@_WU?$char_traits@_W@std@@V?$allocator@_W@2@@std@@QAE@QB_W@Z ; std::basic_string<wchar_t,std::char_traits<wchar_t>,std::allocator<wchar_t> >::basic_string<wchar_t,std::char_traits<wchar_t>,std::allocator<wchar_t> >
PUBLIC	??4?$basic_string@_WU?$char_traits@_W@std@@V?$allocator@_W@2@@std@@QAEAAV01@$$QAV01@@Z ; std::basic_string<wchar_t,std::char_traits<wchar_t>,std::allocator<wchar_t> >::operator=
PUBLIC	?_Assign_rv_contents@?$basic_string@_WU?$char_traits@_W@std@@V?$allocator@_W@2@@std@@QAEX$$QAV12@U?$integral_constant@_N$00@2@@Z ; std::basic_string<wchar_t,std::char_traits<wchar_t>,std::allocator<wchar_t> >::_Assign_rv_contents
PUBLIC	?_Assign_rv_contents_with_alloc_always_equal@?$basic_string@_WU?$char_traits@_W@std@@V?$allocator@_W@2@@std@@QAEX$$QAV12@U?$integral_constant@_N$00@2@@Z ; std::basic_string<wchar_t,std::char_traits<wchar_t>,std::allocator<wchar_t> >::_Assign_rv_contents_with_alloc_always_equal
PUBLIC	?_Assign_lv_contents@?$basic_string@_WU?$char_traits@_W@std@@V?$allocator@_W@2@@std@@QAEXABV12@@Z ; std::basic_string<wchar_t,std::char_traits<wchar_t>,std::allocator<wchar_t> >::_Assign_lv_contents
PUBLIC	??1?$basic_string@_WU?$char_traits@_W@std@@V?$allocator@_W@2@@std@@QAE@XZ ; std::basic_string<wchar_t,std::char_traits<wchar_t>,std::allocator<wchar_t> >::~basic_string<wchar_t,std::char_traits<wchar_t>,std::allocator<wchar_t> >
PUBLIC	??4?$basic_string@_WU?$char_traits@_W@std@@V?$allocator@_W@2@@std@@QAEAAV01@ABV01@@Z ; std::basic_string<wchar_t,std::char_traits<wchar_t>,std::allocator<wchar_t> >::operator=
PUBLIC	?assign@?$basic_string@_WU?$char_traits@_W@std@@V?$allocator@_W@2@@std@@QAEAAV12@ABV12@II@Z ; std::basic_string<wchar_t,std::char_traits<wchar_t>,std::allocator<wchar_t> >::assign
PUBLIC	?assign@?$basic_string@_WU?$char_traits@_W@std@@V?$allocator@_W@2@@std@@QAEAAV12@QB_WI@Z ; std::basic_string<wchar_t,std::char_traits<wchar_t>,std::allocator<wchar_t> >::assign
PUBLIC	?assign@?$basic_string@_WU?$char_traits@_W@std@@V?$allocator@_W@2@@std@@QAEAAV12@QB_W@Z ; std::basic_string<wchar_t,std::char_traits<wchar_t>,std::allocator<wchar_t> >::assign
PUBLIC	?erase@?$basic_string@_WU?$char_traits@_W@std@@V?$allocator@_W@2@@std@@QAEAAV12@I@Z ; std::basic_string<wchar_t,std::char_traits<wchar_t>,std::allocator<wchar_t> >::erase
PUBLIC	?erase@?$basic_string@_WU?$char_traits@_W@std@@V?$allocator@_W@2@@std@@QAEAAV12@II@Z ; std::basic_string<wchar_t,std::char_traits<wchar_t>,std::allocator<wchar_t> >::erase
PUBLIC	??A?$basic_string@_WU?$char_traits@_W@std@@V?$allocator@_W@2@@std@@QAEAA_WI@Z ; std::basic_string<wchar_t,std::char_traits<wchar_t>,std::allocator<wchar_t> >::operator[]
PUBLIC	?c_str@?$basic_string@_WU?$char_traits@_W@std@@V?$allocator@_W@2@@std@@QBEPB_WXZ ; std::basic_string<wchar_t,std::char_traits<wchar_t>,std::allocator<wchar_t> >::c_str
PUBLIC	?length@?$basic_string@_WU?$char_traits@_W@std@@V?$allocator@_W@2@@std@@QBEIXZ ; std::basic_string<wchar_t,std::char_traits<wchar_t>,std::allocator<wchar_t> >::length
PUBLIC	?max_size@?$basic_string@_WU?$char_traits@_W@std@@V?$allocator@_W@2@@std@@QBEIXZ ; std::basic_string<wchar_t,std::char_traits<wchar_t>,std::allocator<wchar_t> >::max_size
PUBLIC	?_Clamp_suffix_size@?$basic_string@_WU?$char_traits@_W@std@@V?$allocator@_W@2@@std@@QBEIII@Z ; std::basic_string<wchar_t,std::char_traits<wchar_t>,std::allocator<wchar_t> >::_Clamp_suffix_size
PUBLIC	?_Copy@?$basic_string@_WU?$char_traits@_W@std@@V?$allocator@_W@2@@std@@QAEXI@Z ; std::basic_string<wchar_t,std::char_traits<wchar_t>,std::allocator<wchar_t> >::_Copy
PUBLIC	?_Eos@?$basic_string@_WU?$char_traits@_W@std@@V?$allocator@_W@2@@std@@QAEXI@Z ; std::basic_string<wchar_t,std::char_traits<wchar_t>,std::allocator<wchar_t> >::_Eos
PUBLIC	?_Grow@?$basic_string@_WU?$char_traits@_W@std@@V?$allocator@_W@2@@std@@QAE_NI@Z ; std::basic_string<wchar_t,std::char_traits<wchar_t>,std::allocator<wchar_t> >::_Grow
PUBLIC	?_Inside@?$basic_string@_WU?$char_traits@_W@std@@V?$allocator@_W@2@@std@@QBE_NQB_W@Z ; std::basic_string<wchar_t,std::char_traits<wchar_t>,std::allocator<wchar_t> >::_Inside
PUBLIC	?_Tidy_init@?$basic_string@_WU?$char_traits@_W@std@@V?$allocator@_W@2@@std@@QAEXXZ ; std::basic_string<wchar_t,std::char_traits<wchar_t>,std::allocator<wchar_t> >::_Tidy_init
PUBLIC	?_Tidy_deallocate@?$basic_string@_WU?$char_traits@_W@std@@V?$allocator@_W@2@@std@@QAEXXZ ; std::basic_string<wchar_t,std::char_traits<wchar_t>,std::allocator<wchar_t> >::_Tidy_deallocate
PUBLIC	?_Xlen@?$basic_string@_WU?$char_traits@_W@std@@V?$allocator@_W@2@@std@@SAXXZ ; std::basic_string<wchar_t,std::char_traits<wchar_t>,std::allocator<wchar_t> >::_Xlen
PUBLIC	?_Check_offset@?$basic_string@_WU?$char_traits@_W@std@@V?$allocator@_W@2@@std@@QBEXI@Z ; std::basic_string<wchar_t,std::char_traits<wchar_t>,std::allocator<wchar_t> >::_Check_offset
PUBLIC	?_Xran@?$basic_string@_WU?$char_traits@_W@std@@V?$allocator@_W@2@@std@@SAXXZ ; std::basic_string<wchar_t,std::char_traits<wchar_t>,std::allocator<wchar_t> >::_Xran
PUBLIC	??1iParameter@sk@@QAE@XZ			; sk::iParameter::~iParameter
PUBLIC	??0?$Parameter@H@sk@@QAE@XZ			; sk::Parameter<int>::Parameter<int>
PUBLIC	??1?$Parameter@H@sk@@QAE@XZ			; sk::Parameter<int>::~Parameter<int>
PUBLIC	??0ParameterInt@sk@@QAE@XZ			; sk::ParameterInt::ParameterInt
PUBLIC	?get_value_str@ParameterInt@sk@@UAE?AV?$basic_string@_WU?$char_traits@_W@std@@V?$allocator@_W@2@@std@@XZ ; sk::ParameterInt::get_value_str
PUBLIC	?get_value@ParameterInt@sk@@UAEHXZ		; sk::ParameterInt::get_value
PUBLIC	?set_value@ParameterInt@sk@@UAEXH@Z		; sk::ParameterInt::set_value
PUBLIC	?set_value_str@ParameterInt@sk@@UAEXV?$basic_string@_WU?$char_traits@_W@std@@V?$allocator@_W@2@@std@@@Z ; sk::ParameterInt::set_value_str
PUBLIC	?store@ParameterInt@sk@@UAEXH@Z			; sk::ParameterInt::store
PUBLIC	?store_str@ParameterInt@sk@@UAEXV?$basic_string@_WU?$char_traits@_W@std@@V?$allocator@_W@2@@std@@@Z ; sk::ParameterInt::store_str
PUBLIC	?load@ParameterInt@sk@@UAE_NAAH@Z		; sk::ParameterInt::load
PUBLIC	??0?$Parameter@_J@sk@@QAE@XZ			; sk::Parameter<__int64>::Parameter<__int64>
PUBLIC	??1?$Parameter@_J@sk@@QAE@XZ			; sk::Parameter<__int64>::~Parameter<__int64>
PUBLIC	?get_value_str@ParameterInt64@sk@@UAE?AV?$basic_string@_WU?$char_traits@_W@std@@V?$allocator@_W@2@@std@@XZ ; sk::ParameterInt64::get_value_str
PUBLIC	?get_value@ParameterInt64@sk@@UAE_JXZ		; sk::ParameterInt64::get_value
PUBLIC	?set_value@ParameterInt64@sk@@UAEX_J@Z		; sk::ParameterInt64::set_value
PUBLIC	?set_value_str@ParameterInt64@sk@@UAEXV?$basic_string@_WU?$char_traits@_W@std@@V?$allocator@_W@2@@std@@@Z ; sk::ParameterInt64::set_value_str
PUBLIC	?store@ParameterInt64@sk@@UAEX_J@Z		; sk::ParameterInt64::store
PUBLIC	?store_str@ParameterInt64@sk@@UAEXV?$basic_string@_WU?$char_traits@_W@std@@V?$allocator@_W@2@@std@@@Z ; sk::ParameterInt64::store_str
PUBLIC	?load@ParameterInt64@sk@@UAE_NAA_J@Z		; sk::ParameterInt64::load
PUBLIC	??0ParameterInt64@sk@@QAE@XZ			; sk::ParameterInt64::ParameterInt64
PUBLIC	??0?$Parameter@_N@sk@@QAE@XZ			; sk::Parameter<bool>::Parameter<bool>
PUBLIC	??1?$Parameter@_N@sk@@QAE@XZ			; sk::Parameter<bool>::~Parameter<bool>
PUBLIC	?get_value_str@ParameterBool@sk@@UAE?AV?$basic_string@_WU?$char_traits@_W@std@@V?$allocator@_W@2@@std@@XZ ; sk::ParameterBool::get_value_str
PUBLIC	?get_value@ParameterBool@sk@@UAE_NXZ		; sk::ParameterBool::get_value
PUBLIC	?set_value@ParameterBool@sk@@UAEX_N@Z		; sk::ParameterBool::set_value
PUBLIC	?set_value_str@ParameterBool@sk@@UAEXV?$basic_string@_WU?$char_traits@_W@std@@V?$allocator@_W@2@@std@@@Z ; sk::ParameterBool::set_value_str
PUBLIC	?store@ParameterBool@sk@@UAEX_N@Z		; sk::ParameterBool::store
PUBLIC	?store_str@ParameterBool@sk@@UAEXV?$basic_string@_WU?$char_traits@_W@std@@V?$allocator@_W@2@@std@@@Z ; sk::ParameterBool::store_str
PUBLIC	?load@ParameterBool@sk@@UAE_NAA_N@Z		; sk::ParameterBool::load
PUBLIC	??0ParameterBool@sk@@QAE@XZ			; sk::ParameterBool::ParameterBool
PUBLIC	??0?$Parameter@M@sk@@QAE@XZ			; sk::Parameter<float>::Parameter<float>
PUBLIC	??1?$Parameter@M@sk@@QAE@XZ			; sk::Parameter<float>::~Parameter<float>
PUBLIC	?get_value_str@ParameterFloat@sk@@UAE?AV?$basic_string@_WU?$char_traits@_W@std@@V?$allocator@_W@2@@std@@XZ ; sk::ParameterFloat::get_value_str
PUBLIC	?get_value@ParameterFloat@sk@@UAEMXZ		; sk::ParameterFloat::get_value
PUBLIC	?set_value@ParameterFloat@sk@@UAEXM@Z		; sk::ParameterFloat::set_value
PUBLIC	?set_value_str@ParameterFloat@sk@@UAEXV?$basic_string@_WU?$char_traits@_W@std@@V?$allocator@_W@2@@std@@@Z ; sk::ParameterFloat::set_value_str
PUBLIC	?store@ParameterFloat@sk@@UAEXM@Z		; sk::ParameterFloat::store
PUBLIC	?store_str@ParameterFloat@sk@@UAEXV?$basic_string@_WU?$char_traits@_W@std@@V?$allocator@_W@2@@std@@@Z ; sk::ParameterFloat::store_str
PUBLIC	?load@ParameterFloat@sk@@UAE_NAAM@Z		; sk::ParameterFloat::load
PUBLIC	??0ParameterFloat@sk@@QAE@XZ			; sk::ParameterFloat::ParameterFloat
PUBLIC	??0?$Parameter@V?$basic_string@_WU?$char_traits@_W@std@@V?$allocator@_W@2@@std@@@sk@@QAE@XZ ; sk::Parameter<std::basic_string<wchar_t,std::char_traits<wchar_t>,std::allocator<wchar_t> > >::Parameter<std::basic_string<wchar_t,std::char_traits<wchar_t>,std::allocator<wchar_t> > >
PUBLIC	??1?$Parameter@V?$basic_string@_WU?$char_traits@_W@std@@V?$allocator@_W@2@@std@@@sk@@QAE@XZ ; sk::Parameter<std::basic_string<wchar_t,std::char_traits<wchar_t>,std::allocator<wchar_t> > >::~Parameter<std::basic_string<wchar_t,std::char_traits<wchar_t>,std::allocator<wchar_t> > >
PUBLIC	?get_value_str@ParameterStringW@sk@@UAE?AV?$basic_string@_WU?$char_traits@_W@std@@V?$allocator@_W@2@@std@@XZ ; sk::ParameterStringW::get_value_str
PUBLIC	?get_value@ParameterStringW@sk@@UAE?AV?$basic_string@_WU?$char_traits@_W@std@@V?$allocator@_W@2@@std@@XZ ; sk::ParameterStringW::get_value
PUBLIC	?set_value@ParameterStringW@sk@@UAEXV?$basic_string@_WU?$char_traits@_W@std@@V?$allocator@_W@2@@std@@@Z ; sk::ParameterStringW::set_value
PUBLIC	?set_value_str@ParameterStringW@sk@@UAEXV?$basic_string@_WU?$char_traits@_W@std@@V?$allocator@_W@2@@std@@@Z ; sk::ParameterStringW::set_value_str
PUBLIC	?store@ParameterStringW@sk@@UAEXV?$basic_string@_WU?$char_traits@_W@std@@V?$allocator@_W@2@@std@@@Z ; sk::ParameterStringW::store
PUBLIC	?store_str@ParameterStringW@sk@@UAEXV?$basic_string@_WU?$char_traits@_W@std@@V?$allocator@_W@2@@std@@@Z ; sk::ParameterStringW::store_str
PUBLIC	?load@ParameterStringW@sk@@UAE_NAAV?$basic_string@_WU?$char_traits@_W@std@@V?$allocator@_W@2@@std@@@Z ; sk::ParameterStringW::load
PUBLIC	??0ParameterStringW@sk@@QAE@XZ			; sk::ParameterStringW::ParameterStringW
PUBLIC	??0?$Parameter@UImVec2@@@sk@@QAE@XZ		; sk::Parameter<ImVec2>::Parameter<ImVec2>
PUBLIC	??1?$Parameter@UImVec2@@@sk@@QAE@XZ		; sk::Parameter<ImVec2>::~Parameter<ImVec2>
PUBLIC	?get_value_str@ParameterVec2f@sk@@UAE?AV?$basic_string@_WU?$char_traits@_W@std@@V?$allocator@_W@2@@std@@XZ ; sk::ParameterVec2f::get_value_str
PUBLIC	?get_value@ParameterVec2f@sk@@UAE?AUImVec2@@XZ	; sk::ParameterVec2f::get_value
PUBLIC	?set_value@ParameterVec2f@sk@@UAEXUImVec2@@@Z	; sk::ParameterVec2f::set_value
PUBLIC	?set_value_str@ParameterVec2f@sk@@UAEXV?$basic_string@_WU?$char_traits@_W@std@@V?$allocator@_W@2@@std@@@Z ; sk::ParameterVec2f::set_value_str
PUBLIC	?store@ParameterVec2f@sk@@UAEXUImVec2@@@Z	; sk::ParameterVec2f::store
PUBLIC	?store_str@ParameterVec2f@sk@@UAEXV?$basic_string@_WU?$char_traits@_W@std@@V?$allocator@_W@2@@std@@@Z ; sk::ParameterVec2f::store_str
PUBLIC	?load@ParameterVec2f@sk@@UAE_NAAUImVec2@@@Z	; sk::ParameterVec2f::load
PUBLIC	??0ParameterVec2f@sk@@QAE@XZ			; sk::ParameterVec2f::ParameterVec2f
PUBLIC	?deallocate@?$allocator@PAViParameter@sk@@@std@@QAEXPAPAViParameter@sk@@I@Z ; std::allocator<sk::iParameter *>::deallocate
PUBLIC	?allocate@?$allocator@PAViParameter@sk@@@std@@QAEPAPAViParameter@sk@@I@Z ; std::allocator<sk::iParameter *>::allocate
PUBLIC	?max_size@?$allocator@PAViParameter@sk@@@std@@QBEIXZ ; std::allocator<sk::iParameter *>::max_size
PUBLIC	?max_size@?$allocator_traits@V?$allocator@PAViParameter@sk@@@std@@@std@@SAIABV?$allocator@PAViParameter@sk@@@2@@Z ; std::allocator_traits<std::allocator<sk::iParameter *> >::max_size
PUBLIC	?allocate@?$_Wrap_alloc@V?$allocator@PAViParameter@sk@@@std@@@std@@QAEPAPAViParameter@sk@@I@Z ; std::_Wrap_alloc<std::allocator<sk::iParameter *> >::allocate
PUBLIC	?deallocate@?$_Wrap_alloc@V?$allocator@PAViParameter@sk@@@std@@@std@@QAEXPAPAViParameter@sk@@I@Z ; std::_Wrap_alloc<std::allocator<sk::iParameter *> >::deallocate
PUBLIC	?max_size@?$_Wrap_alloc@V?$allocator@PAViParameter@sk@@@std@@@std@@QBEIU_Nil@2@@Z ; std::_Wrap_alloc<std::allocator<sk::iParameter *> >::max_size
PUBLIC	?_Orphan_all@?$_Vector_alloc@U?$_Vec_base_types@PAViParameter@sk@@V?$allocator@PAViParameter@sk@@@std@@@std@@@std@@QAEXXZ ; std::_Vector_alloc<std::_Vec_base_types<sk::iParameter *,std::allocator<sk::iParameter *> > >::_Orphan_all
PUBLIC	?_Getal@?$_Vector_alloc@U?$_Vec_base_types@PAViParameter@sk@@V?$allocator@PAViParameter@sk@@@std@@@std@@@std@@QAEAAU?$_Wrap_alloc@V?$allocator@PAViParameter@sk@@@std@@@2@XZ ; std::_Vector_alloc<std::_Vec_base_types<sk::iParameter *,std::allocator<sk::iParameter *> > >::_Getal
PUBLIC	?_Getal@?$_Vector_alloc@U?$_Vec_base_types@PAViParameter@sk@@V?$allocator@PAViParameter@sk@@@std@@@std@@@std@@QBEABU?$_Wrap_alloc@V?$allocator@PAViParameter@sk@@@std@@@2@XZ ; std::_Vector_alloc<std::_Vec_base_types<sk::iParameter *,std::allocator<sk::iParameter *> > >::_Getal
PUBLIC	?_Get_data@?$_Vector_alloc@U?$_Vec_base_types@PAViParameter@sk@@V?$allocator@PAViParameter@sk@@@std@@@std@@@std@@QAEAAV?$_Vector_val@U?$_Simple_types@PAViParameter@sk@@@std@@@2@XZ ; std::_Vector_alloc<std::_Vec_base_types<sk::iParameter *,std::allocator<sk::iParameter *> > >::_Get_data
PUBLIC	?_Get_data@?$_Vector_alloc@U?$_Vec_base_types@PAViParameter@sk@@V?$allocator@PAViParameter@sk@@@std@@@std@@@std@@QBEABV?$_Vector_val@U?$_Simple_types@PAViParameter@sk@@@std@@@2@XZ ; std::_Vector_alloc<std::_Vec_base_types<sk::iParameter *,std::allocator<sk::iParameter *> > >::_Get_data
PUBLIC	?_Myfirst@?$_Vector_alloc@U?$_Vec_base_types@PAViParameter@sk@@V?$allocator@PAViParameter@sk@@@std@@@std@@@std@@QAEAAPAPAViParameter@sk@@XZ ; std::_Vector_alloc<std::_Vec_base_types<sk::iParameter *,std::allocator<sk::iParameter *> > >::_Myfirst
PUBLIC	?_Myfirst@?$_Vector_alloc@U?$_Vec_base_types@PAViParameter@sk@@V?$allocator@PAViParameter@sk@@@std@@@std@@@std@@QBEABQAPAViParameter@sk@@XZ ; std::_Vector_alloc<std::_Vec_base_types<sk::iParameter *,std::allocator<sk::iParameter *> > >::_Myfirst
PUBLIC	?_Mylast@?$_Vector_alloc@U?$_Vec_base_types@PAViParameter@sk@@V?$allocator@PAViParameter@sk@@@std@@@std@@@std@@QAEAAPAPAViParameter@sk@@XZ ; std::_Vector_alloc<std::_Vec_base_types<sk::iParameter *,std::allocator<sk::iParameter *> > >::_Mylast
PUBLIC	?_Mylast@?$_Vector_alloc@U?$_Vec_base_types@PAViParameter@sk@@V?$allocator@PAViParameter@sk@@@std@@@std@@@std@@QBEABQAPAViParameter@sk@@XZ ; std::_Vector_alloc<std::_Vec_base_types<sk::iParameter *,std::allocator<sk::iParameter *> > >::_Mylast
PUBLIC	?_Myend@?$_Vector_alloc@U?$_Vec_base_types@PAViParameter@sk@@V?$allocator@PAViParameter@sk@@@std@@@std@@@std@@QAEAAPAPAViParameter@sk@@XZ ; std::_Vector_alloc<std::_Vec_base_types<sk::iParameter *,std::allocator<sk::iParameter *> > >::_Myend
PUBLIC	?_Myend@?$_Vector_alloc@U?$_Vec_base_types@PAViParameter@sk@@V?$allocator@PAViParameter@sk@@@std@@@std@@@std@@QBEABQAPAViParameter@sk@@XZ ; std::_Vector_alloc<std::_Vec_base_types<sk::iParameter *,std::allocator<sk::iParameter *> > >::_Myend
PUBLIC	?_Get_first@?$_Compressed_pair@U?$_Wrap_alloc@V?$allocator@PAViParameter@sk@@@std@@@std@@V?$_Vector_val@U?$_Simple_types@PAViParameter@sk@@@std@@@2@$00@std@@QAEAAU?$_Wrap_alloc@V?$allocator@PAViParameter@sk@@@std@@@2@XZ ; std::_Compressed_pair<std::_Wrap_alloc<std::allocator<sk::iParameter *> >,std::_Vector_val<std::_Simple_types<sk::iParameter *> >,1>::_Get_first
PUBLIC	?_Get_first@?$_Compressed_pair@U?$_Wrap_alloc@V?$allocator@PAViParameter@sk@@@std@@@std@@V?$_Vector_val@U?$_Simple_types@PAViParameter@sk@@@std@@@2@$00@std@@QBEABU?$_Wrap_alloc@V?$allocator@PAViParameter@sk@@@std@@@2@XZ ; std::_Compressed_pair<std::_Wrap_alloc<std::allocator<sk::iParameter *> >,std::_Vector_val<std::_Simple_types<sk::iParameter *> >,1>::_Get_first
PUBLIC	?_Get_second@?$_Compressed_pair@U?$_Wrap_alloc@V?$allocator@PAViParameter@sk@@@std@@@std@@V?$_Vector_val@U?$_Simple_types@PAViParameter@sk@@@std@@@2@$00@std@@QAEAAV?$_Vector_val@U?$_Simple_types@PAViParameter@sk@@@std@@@2@XZ ; std::_Compressed_pair<std::_Wrap_alloc<std::allocator<sk::iParameter *> >,std::_Vector_val<std::_Simple_types<sk::iParameter *> >,1>::_Get_second
PUBLIC	?_Get_second@?$_Compressed_pair@U?$_Wrap_alloc@V?$allocator@PAViParameter@sk@@@std@@@std@@V?$_Vector_val@U?$_Simple_types@PAViParameter@sk@@@std@@@2@$00@std@@QBEABV?$_Vector_val@U?$_Simple_types@PAViParameter@sk@@@std@@@2@XZ ; std::_Compressed_pair<std::_Wrap_alloc<std::allocator<sk::iParameter *> >,std::_Vector_val<std::_Simple_types<sk::iParameter *> >,1>::_Get_second
PUBLIC	?push_back@?$vector@PAViParameter@sk@@V?$allocator@PAViParameter@sk@@@std@@@std@@QAEXABQAViParameter@sk@@@Z ; std::vector<sk::iParameter *,std::allocator<sk::iParameter *> >::push_back
PUBLIC	?size@?$vector@PAViParameter@sk@@V?$allocator@PAViParameter@sk@@@std@@@std@@QBEIXZ ; std::vector<sk::iParameter *,std::allocator<sk::iParameter *> >::size
PUBLIC	?max_size@?$vector@PAViParameter@sk@@V?$allocator@PAViParameter@sk@@@std@@@std@@QBEIXZ ; std::vector<sk::iParameter *,std::allocator<sk::iParameter *> >::max_size
PUBLIC	?capacity@?$vector@PAViParameter@sk@@V?$allocator@PAViParameter@sk@@@std@@@std@@QBEIXZ ; std::vector<sk::iParameter *,std::allocator<sk::iParameter *> >::capacity
PUBLIC	?_Has_unused_capacity@?$vector@PAViParameter@sk@@V?$allocator@PAViParameter@sk@@@std@@@std@@ABE_NXZ ; std::vector<sk::iParameter *,std::allocator<sk::iParameter *> >::_Has_unused_capacity
PUBLIC	?_Umove_if_noexcept1@?$vector@PAViParameter@sk@@V?$allocator@PAViParameter@sk@@@std@@@std@@AAEXPAPAViParameter@sk@@00U?$integral_constant@_N$00@2@@Z ; std::vector<sk::iParameter *,std::allocator<sk::iParameter *> >::_Umove_if_noexcept1
PUBLIC	?_Umove_if_noexcept@?$vector@PAViParameter@sk@@V?$allocator@PAViParameter@sk@@@std@@@std@@AAEXPAPAViParameter@sk@@00@Z ; std::vector<sk::iParameter *,std::allocator<sk::iParameter *> >::_Umove_if_noexcept
PUBLIC	?_Destroy@?$vector@PAViParameter@sk@@V?$allocator@PAViParameter@sk@@@std@@@std@@AAEXPAPAViParameter@sk@@0@Z ; std::vector<sk::iParameter *,std::allocator<sk::iParameter *> >::_Destroy
PUBLIC	?_Calculate_growth@?$vector@PAViParameter@sk@@V?$allocator@PAViParameter@sk@@@std@@@std@@ABEII@Z ; std::vector<sk::iParameter *,std::allocator<sk::iParameter *> >::_Calculate_growth
PUBLIC	?_Change_array@?$vector@PAViParameter@sk@@V?$allocator@PAViParameter@sk@@@std@@@std@@AAEXQAPAViParameter@sk@@II@Z ; std::vector<sk::iParameter *,std::allocator<sk::iParameter *> >::_Change_array
PUBLIC	?_Xlength@?$vector@PAViParameter@sk@@V?$allocator@PAViParameter@sk@@@std@@@std@@CAXXZ ; std::vector<sk::iParameter *,std::allocator<sk::iParameter *> >::_Xlength
PUBLIC	?_Orphan_range@?$vector@PAViParameter@sk@@V?$allocator@PAViParameter@sk@@@std@@@std@@ABEXPAPAViParameter@sk@@0@Z ; std::vector<sk::iParameter *,std::allocator<sk::iParameter *> >::_Orphan_range
PUBLIC	??$create_parameter@H@ParameterFactory@sk@@QAEPAViParameter@1@PB_W@Z ; sk::ParameterFactory::create_parameter<int>
PUBLIC	??$create_parameter@_J@ParameterFactory@sk@@QAEPAViParameter@1@PB_W@Z ; sk::ParameterFactory::create_parameter<__int64>
PUBLIC	??$create_parameter@_N@ParameterFactory@sk@@QAEPAViParameter@1@PB_W@Z ; sk::ParameterFactory::create_parameter<bool>
PUBLIC	??$create_parameter@M@ParameterFactory@sk@@QAEPAViParameter@1@PB_W@Z ; sk::ParameterFactory::create_parameter<float>
PUBLIC	??$create_parameter@V?$basic_string@_WU?$char_traits@_W@std@@V?$allocator@_W@2@@std@@@ParameterFactory@sk@@QAEPAViParameter@1@PB_W@Z ; sk::ParameterFactory::create_parameter<std::basic_string<wchar_t,std::char_traits<wchar_t>,std::allocator<wchar_t> > >
PUBLIC	??$create_parameter@UImVec2@@@ParameterFactory@sk@@QAEPAViParameter@1@PB_W@Z ; sk::ParameterFactory::create_parameter<ImVec2>
PUBLIC	??$emplace_back@ABQAViParameter@sk@@@?$vector@PAViParameter@sk@@V?$allocator@PAViParameter@sk@@@std@@@std@@QAEXABQAViParameter@sk@@@Z ; std::vector<sk::iParameter *,std::allocator<sk::iParameter *> >::emplace_back<sk::iParameter * const &>
PUBLIC	??$addressof@$$CBV?$basic_string@_WU?$char_traits@_W@std@@V?$allocator@_W@2@@std@@@std@@YAPBV?$basic_string@_WU?$char_traits@_W@std@@V?$allocator@_W@2@@0@ABV10@@Z ; std::addressof<std::basic_string<wchar_t,std::char_traits<wchar_t>,std::allocator<wchar_t> > const >
PUBLIC	??$addressof@V?$basic_string@_WU?$char_traits@_W@std@@V?$allocator@_W@2@@std@@@std@@YAPAV?$basic_string@_WU?$char_traits@_W@std@@V?$allocator@_W@2@@0@AAV10@@Z ; std::addressof<std::basic_string<wchar_t,std::char_traits<wchar_t>,std::allocator<wchar_t> > >
PUBLIC	??$move@AAV?$basic_string@_WU?$char_traits@_W@std@@V?$allocator@_W@2@@std@@@std@@YA$$QAV?$basic_string@_WU?$char_traits@_W@std@@V?$allocator@_W@2@@0@AAV10@@Z ; std::move<std::basic_string<wchar_t,std::char_traits<wchar_t>,std::allocator<wchar_t> > &>
PUBLIC	??$?0U?$_Wrap_alloc@V?$allocator@_W@std@@@std@@X@?$_String_alloc@U?$_String_base_types@_WV?$allocator@_W@std@@@std@@@std@@QAE@$$QAU?$_Wrap_alloc@V?$allocator@_W@std@@@1@@Z ; std::_String_alloc<std::_String_base_types<wchar_t,std::allocator<wchar_t> > >::_String_alloc<std::_String_base_types<wchar_t,std::allocator<wchar_t> > ><std::_Wrap_alloc<std::allocator<wchar_t> >,void>
PUBLIC	??$?0V?$allocator@_W@std@@@?$_Wrap_alloc@V?$allocator@_W@std@@@std@@QAE@$$QAV?$allocator@_W@1@@Z ; std::_Wrap_alloc<std::allocator<wchar_t> >::_Wrap_alloc<std::allocator<wchar_t> ><std::allocator<wchar_t> >
PUBLIC	??$_Pocma@U?$_Wrap_alloc@V?$allocator@_W@std@@@std@@@std@@YAXAAU?$_Wrap_alloc@V?$allocator@_W@std@@@0@0@Z ; std::_Pocma<std::_Wrap_alloc<std::allocator<wchar_t> > >
PUBLIC	??$_Pocca@U?$_Wrap_alloc@V?$allocator@_W@std@@@std@@@std@@YAXAAU?$_Wrap_alloc@V?$allocator@_W@std@@@0@ABU10@@Z ; std::_Pocca<std::_Wrap_alloc<std::allocator<wchar_t> > >
PUBLIC	??$?0$$V@?$_Compressed_pair@U?$_Wrap_alloc@V?$allocator@_W@std@@@std@@V?$_String_val@U?$_Simple_types@_W@std@@@2@$00@std@@QAE@U_Zero_then_variadic_args_t@1@@Z ; std::_Compressed_pair<std::_Wrap_alloc<std::allocator<wchar_t> >,std::_String_val<std::_Simple_types<wchar_t> >,1>::_Compressed_pair<std::_Wrap_alloc<std::allocator<wchar_t> >,std::_String_val<std::_Simple_types<wchar_t> >,1><>
PUBLIC	??$addressof@PA_W@std@@YAPAPA_WAAPA_W@Z		; std::addressof<wchar_t *>
PUBLIC	??$destroy@PA_W@?$_Wrap_alloc@V?$allocator@_W@std@@@std@@QAEXPAPA_W@Z ; std::_Wrap_alloc<std::allocator<wchar_t> >::destroy<wchar_t *>
PUBLIC	??$_Unfancy@_W@std@@YAPA_WPA_W@Z		; std::_Unfancy<wchar_t>
PUBLIC	??$addressof@V?$_String_val@U?$_Simple_types@_W@std@@@std@@@std@@YAPAV?$_String_val@U?$_Simple_types@_W@std@@@0@AAV10@@Z ; std::addressof<std::_String_val<std::_Simple_types<wchar_t> > >
PUBLIC	??$_Min_value@I@std@@YAABIABI0@Z		; std::_Min_value<unsigned int>
PUBLIC	??$construct@PA_WAAPA_W@?$_Wrap_alloc@V?$allocator@_W@std@@@std@@QAEXPAPA_WAAPA_W@Z ; std::_Wrap_alloc<std::allocator<wchar_t> >::construct<wchar_t *,wchar_t * &>
PUBLIC	??$forward@ABQAViParameter@sk@@@std@@YAABQAViParameter@sk@@ABQAV12@@Z ; std::forward<sk::iParameter * const &>
PUBLIC	??$_Emplace_back_with_unused_capacity@ABQAViParameter@sk@@@?$vector@PAViParameter@sk@@V?$allocator@PAViParameter@sk@@@std@@@std@@AAEXABQAViParameter@sk@@@Z ; std::vector<sk::iParameter *,std::allocator<sk::iParameter *> >::_Emplace_back_with_unused_capacity<sk::iParameter * const &>
PUBLIC	??$_Unfancy@PAViParameter@sk@@@std@@YAPAPAViParameter@sk@@PAPAV12@@Z ; std::_Unfancy<sk::iParameter *>
PUBLIC	??$construct@PAViParameter@sk@@ABQAV12@@?$_Wrap_alloc@V?$allocator@PAViParameter@sk@@@std@@@std@@QAEXPAPAViParameter@sk@@ABQAV23@@Z ; std::_Wrap_alloc<std::allocator<sk::iParameter *> >::construct<sk::iParameter *,sk::iParameter * const &>
PUBLIC	??$destroy@PAViParameter@sk@@@?$_Wrap_alloc@V?$allocator@PAViParameter@sk@@@std@@@std@@QAEXPAPAViParameter@sk@@@Z ; std::_Wrap_alloc<std::allocator<sk::iParameter *> >::destroy<sk::iParameter *>
PUBLIC	??$forward@U?$_Wrap_alloc@V?$allocator@_W@std@@@std@@@std@@YA$$QAU?$_Wrap_alloc@V?$allocator@_W@std@@@0@AAU10@@Z ; std::forward<std::_Wrap_alloc<std::allocator<wchar_t> > >
PUBLIC	??$?0U?$_Wrap_alloc@V?$allocator@_W@std@@@std@@$$V@?$_Compressed_pair@U?$_Wrap_alloc@V?$allocator@_W@std@@@std@@V?$_String_val@U?$_Simple_types@_W@std@@@2@$00@std@@QAE@U_One_then_variadic_args_t@1@$$QAU?$_Wrap_alloc@V?$allocator@_W@std@@@1@@Z ; std::_Compressed_pair<std::_Wrap_alloc<std::allocator<wchar_t> >,std::_String_val<std::_Simple_types<wchar_t> >,1>::_Compressed_pair<std::_Wrap_alloc<std::allocator<wchar_t> >,std::_String_val<std::_Simple_types<wchar_t> >,1><std::_Wrap_alloc<std::allocator<wchar_t> > >
PUBLIC	??$forward@V?$allocator@_W@std@@@std@@YA$$QAV?$allocator@_W@0@AAV10@@Z ; std::forward<std::allocator<wchar_t> >
PUBLIC	??$_Pocma@U?$_Wrap_alloc@V?$allocator@_W@std@@@std@@@std@@YAXAAU?$_Wrap_alloc@V?$allocator@_W@std@@@0@0U?$integral_constant@_N$00@0@@Z ; std::_Pocma<std::_Wrap_alloc<std::allocator<wchar_t> > >
PUBLIC	??$_Pocca@U?$_Wrap_alloc@V?$allocator@_W@std@@@std@@@std@@YAXAAU?$_Wrap_alloc@V?$allocator@_W@std@@@0@ABU10@U?$integral_constant@_N$0A@@0@@Z ; std::_Pocca<std::_Wrap_alloc<std::allocator<wchar_t> > >
PUBLIC	??$destroy@PA_W@?$allocator_traits@V?$allocator@_W@std@@@std@@SAXAAV?$allocator@_W@1@PAPA_W@Z ; std::allocator_traits<std::allocator<wchar_t> >::destroy<wchar_t *>
PUBLIC	??$forward@AAPA_W@std@@YAAAPA_WAAPA_W@Z		; std::forward<wchar_t * &>
PUBLIC	??$construct@PA_WAAPA_W@?$allocator_traits@V?$allocator@_W@std@@@std@@SAXAAV?$allocator@_W@1@PAPA_WAAPA_W@Z ; std::allocator_traits<std::allocator<wchar_t> >::construct<wchar_t *,wchar_t * &>
PUBLIC	??$move@AAU?$_Wrap_alloc@V?$allocator@_W@std@@@std@@@std@@YA$$QAU?$_Wrap_alloc@V?$allocator@_W@std@@@0@AAU10@@Z ; std::move<std::_Wrap_alloc<std::allocator<wchar_t> > &>
PUBLIC	??$_Destroy_range@V?$allocator@PAViParameter@sk@@@std@@PAPAViParameter@sk@@@std@@YAXPAPAViParameter@sk@@0AAU?$_Wrap_alloc@V?$allocator@PAViParameter@sk@@@std@@@0@@Z ; std::_Destroy_range<std::allocator<sk::iParameter *>,sk::iParameter * *>
PUBLIC	??$_Uninitialized_move@PAPAViParameter@sk@@PAPAV12@V?$allocator@PAViParameter@sk@@@std@@@std@@YAPAPAViParameter@sk@@PAPAV12@00AAU?$_Wrap_alloc@V?$allocator@PAViParameter@sk@@@std@@@0@@Z ; std::_Uninitialized_move<sk::iParameter * *,sk::iParameter * *,std::allocator<sk::iParameter *> >
PUBLIC	??$construct@PAViParameter@sk@@ABQAV12@@?$allocator_traits@V?$allocator@PAViParameter@sk@@@std@@@std@@SAXAAV?$allocator@PAViParameter@sk@@@1@PAPAViParameter@sk@@ABQAV34@@Z ; std::allocator_traits<std::allocator<sk::iParameter *> >::construct<sk::iParameter *,sk::iParameter * const &>
PUBLIC	??$destroy@PAViParameter@sk@@@?$allocator_traits@V?$allocator@PAViParameter@sk@@@std@@@std@@SAXAAV?$allocator@PAViParameter@sk@@@1@PAPAViParameter@sk@@@Z ; std::allocator_traits<std::allocator<sk::iParameter *> >::destroy<sk::iParameter *>
PUBLIC	??$destroy@PA_W@?$allocator@_W@std@@QAEXPAPA_W@Z ; std::allocator<wchar_t>::destroy<wchar_t *>
PUBLIC	??$construct@PA_WAAPA_W@?$allocator@_W@std@@QAEXPAPA_WAAPA_W@Z ; std::allocator<wchar_t>::construct<wchar_t *,wchar_t * &>
PUBLIC	??$_Destroy_range1@V?$allocator@PAViParameter@sk@@@std@@PAPAViParameter@sk@@@std@@YAXPAPAViParameter@sk@@0AAU?$_Wrap_alloc@V?$allocator@PAViParameter@sk@@@std@@@0@U?$integral_constant@_N$00@0@@Z ; std::_Destroy_range1<std::allocator<sk::iParameter *>,sk::iParameter * *>
PUBLIC	??$_Unchecked@PAPAViParameter@sk@@@std@@YAPAPAViParameter@sk@@PAPAV12@@Z ; std::_Unchecked<sk::iParameter * *>
PUBLIC	??$_Ptr_move_cat@PAViParameter@sk@@PAV12@@std@@YA?AU_Really_trivial_ptr_iterator_tag@0@ABQAPAViParameter@sk@@0@Z ; std::_Ptr_move_cat<sk::iParameter *,sk::iParameter *>
PUBLIC	??$_Uninitialized_move_al_unchecked@PAViParameter@sk@@PAV12@V?$allocator@PAViParameter@sk@@@std@@@std@@YAPAPAViParameter@sk@@PAPAV12@00AAU?$_Wrap_alloc@V?$allocator@PAViParameter@sk@@@std@@@0@U_Really_trivial_ptr_iterator_tag@0@U?$integral_constant@_N$00@0@@Z ; std::_Uninitialized_move_al_unchecked<sk::iParameter *,sk::iParameter *,std::allocator<sk::iParameter *> >
PUBLIC	??$_Rechecked@PAPAViParameter@sk@@PAPAV12@@std@@YAAAPAPAViParameter@sk@@AAPAPAV12@PAPAV12@@Z ; std::_Rechecked<sk::iParameter * *,sk::iParameter * *>
PUBLIC	??$construct@PAViParameter@sk@@ABQAV12@@?$allocator@PAViParameter@sk@@@std@@QAEXPAPAViParameter@sk@@ABQAV23@@Z ; std::allocator<sk::iParameter *>::construct<sk::iParameter *,sk::iParameter * const &>
PUBLIC	??$destroy@PAViParameter@sk@@@?$allocator@PAViParameter@sk@@@std@@QAEXPAPAViParameter@sk@@@Z ; std::allocator<sk::iParameter *>::destroy<sk::iParameter *>
PUBLIC	??$_Copy_memmove@PAPAViParameter@sk@@PAPAV12@@std@@YAPAPAViParameter@sk@@PAPAV12@00@Z ; std::_Copy_memmove<sk::iParameter * *,sk::iParameter * *>
PUBLIC	??_7iParameter@sk@@6B@				; sk::iParameter::`vftable'
PUBLIC	??_R0?AViParameter@sk@@@8			; sk::iParameter `RTTI Type Descriptor'
PUBLIC	??_7?$Parameter@H@sk@@6B@			; sk::Parameter<int>::`vftable'
PUBLIC	??_7ParameterInt@sk@@6B@			; sk::ParameterInt::`vftable'
PUBLIC	??_R0H@8					; int `RTTI Type Descriptor'
PUBLIC	??_7?$Parameter@_J@sk@@6B@			; sk::Parameter<__int64>::`vftable'
PUBLIC	??_7ParameterInt64@sk@@6B@			; sk::ParameterInt64::`vftable'
PUBLIC	??_7?$Parameter@_N@sk@@6B@			; sk::Parameter<bool>::`vftable'
PUBLIC	??_7ParameterBool@sk@@6B@			; sk::ParameterBool::`vftable'
PUBLIC	??_7?$Parameter@M@sk@@6B@			; sk::Parameter<float>::`vftable'
PUBLIC	??_7ParameterFloat@sk@@6B@			; sk::ParameterFloat::`vftable'
PUBLIC	??_7?$Parameter@V?$basic_string@_WU?$char_traits@_W@std@@V?$allocator@_W@2@@std@@@sk@@6B@ ; sk::Parameter<std::basic_string<wchar_t,std::char_traits<wchar_t>,std::allocator<wchar_t> > >::`vftable'
PUBLIC	??_7ParameterStringW@sk@@6B@			; sk::ParameterStringW::`vftable'
PUBLIC	??_7?$Parameter@UImVec2@@@sk@@6B@		; sk::Parameter<ImVec2>::`vftable'
PUBLIC	??_7ParameterVec2f@sk@@6B@			; sk::ParameterVec2f::`vftable'
PUBLIC	??_R0_J@8					; __int64 `RTTI Type Descriptor'
PUBLIC	??_R0_N@8					; bool `RTTI Type Descriptor'
PUBLIC	??_R0M@8					; float `RTTI Type Descriptor'
PUBLIC	??_R0?AV?$basic_string@_WU?$char_traits@_W@std@@V?$allocator@_W@2@@std@@@8 ; std::basic_string<wchar_t,std::char_traits<wchar_t>,std::allocator<wchar_t> > `RTTI Type Descriptor'
PUBLIC	??_R0?AUImVec2@@@8				; ImVec2 `RTTI Type Descriptor'
PUBLIC	??_C@_0BA@JFNIOLAK@string?5too?5long?$AA@	; `string'
PUBLIC	??_C@_0BI@CFPLBAOH@invalid?5string?5position?$AA@ ; `string'
PUBLIC	??_C@_0BD@OLBABOEK@vector?$DMT?$DO?5too?5long?$AA@ ; `string'
PUBLIC	??_R4iParameter@sk@@6B@				; sk::iParameter::`RTTI Complete Object Locator'
PUBLIC	??_R3iParameter@sk@@8				; sk::iParameter::`RTTI Class Hierarchy Descriptor'
PUBLIC	??_R2iParameter@sk@@8				; sk::iParameter::`RTTI Base Class Array'
PUBLIC	??_R1A@?0A@EA@iParameter@sk@@8			; sk::iParameter::`RTTI Base Class Descriptor at (0,-1,0,64)'
PUBLIC	??_R4ParameterInt@sk@@6B@			; sk::ParameterInt::`RTTI Complete Object Locator'
PUBLIC	??_R0?AVParameterInt@sk@@@8			; sk::ParameterInt `RTTI Type Descriptor'
PUBLIC	??_R3ParameterInt@sk@@8				; sk::ParameterInt::`RTTI Class Hierarchy Descriptor'
PUBLIC	??_R2ParameterInt@sk@@8				; sk::ParameterInt::`RTTI Base Class Array'
PUBLIC	??_R1A@?0A@EA@ParameterInt@sk@@8		; sk::ParameterInt::`RTTI Base Class Descriptor at (0,-1,0,64)'
PUBLIC	??_R1A@?0A@EA@?$Parameter@H@sk@@8		; sk::Parameter<int>::`RTTI Base Class Descriptor at (0,-1,0,64)'
PUBLIC	??_R0?AV?$Parameter@H@sk@@@8			; sk::Parameter<int> `RTTI Type Descriptor'
PUBLIC	??_R3?$Parameter@H@sk@@8			; sk::Parameter<int>::`RTTI Class Hierarchy Descriptor'
PUBLIC	??_R2?$Parameter@H@sk@@8			; sk::Parameter<int>::`RTTI Base Class Array'
PUBLIC	??_R4?$Parameter@H@sk@@6B@			; sk::Parameter<int>::`RTTI Complete Object Locator'
PUBLIC	??_R4ParameterInt64@sk@@6B@			; sk::ParameterInt64::`RTTI Complete Object Locator'
PUBLIC	??_R0?AVParameterInt64@sk@@@8			; sk::ParameterInt64 `RTTI Type Descriptor'
PUBLIC	??_R3ParameterInt64@sk@@8			; sk::ParameterInt64::`RTTI Class Hierarchy Descriptor'
PUBLIC	??_R2ParameterInt64@sk@@8			; sk::ParameterInt64::`RTTI Base Class Array'
PUBLIC	??_R1A@?0A@EA@ParameterInt64@sk@@8		; sk::ParameterInt64::`RTTI Base Class Descriptor at (0,-1,0,64)'
PUBLIC	??_R1A@?0A@EA@?$Parameter@_J@sk@@8		; sk::Parameter<__int64>::`RTTI Base Class Descriptor at (0,-1,0,64)'
PUBLIC	??_R0?AV?$Parameter@_J@sk@@@8			; sk::Parameter<__int64> `RTTI Type Descriptor'
PUBLIC	??_R3?$Parameter@_J@sk@@8			; sk::Parameter<__int64>::`RTTI Class Hierarchy Descriptor'
PUBLIC	??_R2?$Parameter@_J@sk@@8			; sk::Parameter<__int64>::`RTTI Base Class Array'
PUBLIC	??_R4?$Parameter@_J@sk@@6B@			; sk::Parameter<__int64>::`RTTI Complete Object Locator'
PUBLIC	??_R4ParameterBool@sk@@6B@			; sk::ParameterBool::`RTTI Complete Object Locator'
PUBLIC	??_R0?AVParameterBool@sk@@@8			; sk::ParameterBool `RTTI Type Descriptor'
PUBLIC	??_R3ParameterBool@sk@@8			; sk::ParameterBool::`RTTI Class Hierarchy Descriptor'
PUBLIC	??_R2ParameterBool@sk@@8			; sk::ParameterBool::`RTTI Base Class Array'
PUBLIC	??_R1A@?0A@EA@ParameterBool@sk@@8		; sk::ParameterBool::`RTTI Base Class Descriptor at (0,-1,0,64)'
PUBLIC	??_R1A@?0A@EA@?$Parameter@_N@sk@@8		; sk::Parameter<bool>::`RTTI Base Class Descriptor at (0,-1,0,64)'
PUBLIC	??_R0?AV?$Parameter@_N@sk@@@8			; sk::Parameter<bool> `RTTI Type Descriptor'
PUBLIC	??_R3?$Parameter@_N@sk@@8			; sk::Parameter<bool>::`RTTI Class Hierarchy Descriptor'
PUBLIC	??_R2?$Parameter@_N@sk@@8			; sk::Parameter<bool>::`RTTI Base Class Array'
PUBLIC	??_R4?$Parameter@_N@sk@@6B@			; sk::Parameter<bool>::`RTTI Complete Object Locator'
PUBLIC	??_R4ParameterFloat@sk@@6B@			; sk::ParameterFloat::`RTTI Complete Object Locator'
PUBLIC	??_R0?AVParameterFloat@sk@@@8			; sk::ParameterFloat `RTTI Type Descriptor'
PUBLIC	??_R3ParameterFloat@sk@@8			; sk::ParameterFloat::`RTTI Class Hierarchy Descriptor'
PUBLIC	??_R2ParameterFloat@sk@@8			; sk::ParameterFloat::`RTTI Base Class Array'
PUBLIC	??_R1A@?0A@EA@ParameterFloat@sk@@8		; sk::ParameterFloat::`RTTI Base Class Descriptor at (0,-1,0,64)'
PUBLIC	??_R1A@?0A@EA@?$Parameter@M@sk@@8		; sk::Parameter<float>::`RTTI Base Class Descriptor at (0,-1,0,64)'
PUBLIC	??_R0?AV?$Parameter@M@sk@@@8			; sk::Parameter<float> `RTTI Type Descriptor'
PUBLIC	??_R3?$Parameter@M@sk@@8			; sk::Parameter<float>::`RTTI Class Hierarchy Descriptor'
PUBLIC	??_R2?$Parameter@M@sk@@8			; sk::Parameter<float>::`RTTI Base Class Array'
PUBLIC	??_R4?$Parameter@M@sk@@6B@			; sk::Parameter<float>::`RTTI Complete Object Locator'
PUBLIC	??_R4ParameterStringW@sk@@6B@			; sk::ParameterStringW::`RTTI Complete Object Locator'
PUBLIC	??_R0?AVParameterStringW@sk@@@8			; sk::ParameterStringW `RTTI Type Descriptor'
PUBLIC	??_R3ParameterStringW@sk@@8			; sk::ParameterStringW::`RTTI Class Hierarchy Descriptor'
PUBLIC	??_R2ParameterStringW@sk@@8			; sk::ParameterStringW::`RTTI Base Class Array'
PUBLIC	??_R1A@?0A@EA@ParameterStringW@sk@@8		; sk::ParameterStringW::`RTTI Base Class Descriptor at (0,-1,0,64)'
PUBLIC	??_R1A@?0A@EA@?$Parameter@V?$basic_string@_WU?$char_traits@_W@std@@V?$allocator@_W@2@@std@@@sk@@8 ; sk::Parameter<std::basic_string<wchar_t,std::char_traits<wchar_t>,std::allocator<wchar_t> > >::`RTTI Base Class Descriptor at (0,-1,0,64)'
PUBLIC	??_R0?AV?$Parameter@V?$basic_string@_WU?$char_traits@_W@std@@V?$allocator@_W@2@@std@@@sk@@@8 ; sk::Parameter<std::basic_string<wchar_t,std::char_traits<wchar_t>,std::allocator<wchar_t> > > `RTTI Type Descriptor'
PUBLIC	??_R3?$Parameter@V?$basic_string@_WU?$char_traits@_W@std@@V?$allocator@_W@2@@std@@@sk@@8 ; sk::Parameter<std::basic_string<wchar_t,std::char_traits<wchar_t>,std::allocator<wchar_t> > >::`RTTI Class Hierarchy Descriptor'
PUBLIC	??_R2?$Parameter@V?$basic_string@_WU?$char_traits@_W@std@@V?$allocator@_W@2@@std@@@sk@@8 ; sk::Parameter<std::basic_string<wchar_t,std::char_traits<wchar_t>,std::allocator<wchar_t> > >::`RTTI Base Class Array'
PUBLIC	??_R4?$Parameter@V?$basic_string@_WU?$char_traits@_W@std@@V?$allocator@_W@2@@std@@@sk@@6B@ ; sk::Parameter<std::basic_string<wchar_t,std::char_traits<wchar_t>,std::allocator<wchar_t> > >::`RTTI Complete Object Locator'
PUBLIC	??_R4ParameterVec2f@sk@@6B@			; sk::ParameterVec2f::`RTTI Complete Object Locator'
PUBLIC	??_R0?AVParameterVec2f@sk@@@8			; sk::ParameterVec2f `RTTI Type Descriptor'
PUBLIC	??_R3ParameterVec2f@sk@@8			; sk::ParameterVec2f::`RTTI Class Hierarchy Descriptor'
PUBLIC	??_R2ParameterVec2f@sk@@8			; sk::ParameterVec2f::`RTTI Base Class Array'
PUBLIC	??_R1A@?0A@EA@ParameterVec2f@sk@@8		; sk::ParameterVec2f::`RTTI Base Class Descriptor at (0,-1,0,64)'
PUBLIC	??_R1A@?0A@EA@?$Parameter@UImVec2@@@sk@@8	; sk::Parameter<ImVec2>::`RTTI Base Class Descriptor at (0,-1,0,64)'
PUBLIC	??_R0?AV?$Parameter@UImVec2@@@sk@@@8		; sk::Parameter<ImVec2> `RTTI Type Descriptor'
PUBLIC	??_R3?$Parameter@UImVec2@@@sk@@8		; sk::Parameter<ImVec2>::`RTTI Class Hierarchy Descriptor'
PUBLIC	??_R2?$Parameter@UImVec2@@@sk@@8		; sk::Parameter<ImVec2>::`RTTI Base Class Array'
PUBLIC	??_R4?$Parameter@UImVec2@@@sk@@6B@		; sk::Parameter<ImVec2>::`RTTI Complete Object Locator'
EXTRN	__purecall:PROC
EXTRN	??2@YAPAXI@Z:PROC				; operator new
EXTRN	??3@YAXPAX@Z:PROC				; operator delete
EXTRN	__imp___invalid_parameter_noinfo_noreturn:PROC
EXTRN	__imp__towlower:PROC
EXTRN	__imp__memmove:PROC
EXTRN	__imp___itow:PROC
EXTRN	__imp__wcstod:PROC
EXTRN	__imp___wtoi:PROC
EXTRN	__imp___wtoll:PROC
EXTRN	__imp___i64tow:PROC
EXTRN	_vswprintf:PROC
EXTRN	_swscanf:PROC
EXTRN	__imp_?_Xbad_alloc@std@@YAXXZ:PROC
EXTRN	__imp_?_Xlength_error@std@@YAXPBD@Z:PROC
EXTRN	__imp_?_Xout_of_range@std@@YAXPBD@Z:PROC
EXTRN	?SK_FormatStringW@@YA?AV?$basic_string@_WU?$char_traits@_W@std@@V?$allocator@_W@2@@std@@QB_WZZ:PROC ; SK_FormatStringW
EXTRN	?SK_RemoveTrailingDecimalZeros@@YAIPA_WI@Z:PROC	; SK_RemoveTrailingDecimalZeros
EXTRN	__CxxThrowException@8:PROC
EXTRN	___CxxFrameHandler3:PROC
EXTRN	_memcpy:PROC
EXTRN	_memset:PROC
EXTRN	??_7type_info@@6B@:QWORD			; type_info::`vftable'
EXTRN	__fltused:DWORD
;	COMDAT ??_R4?$Parameter@UImVec2@@@sk@@6B@
rdata$r	SEGMENT
??_R4?$Parameter@UImVec2@@@sk@@6B@ DD 00H		; sk::Parameter<ImVec2>::`RTTI Complete Object Locator'
	DD	00H
	DD	00H
	DD	FLAT:??_R0?AV?$Parameter@UImVec2@@@sk@@@8
	DD	FLAT:??_R3?$Parameter@UImVec2@@@sk@@8
rdata$r	ENDS
;	COMDAT ??_R2?$Parameter@UImVec2@@@sk@@8
rdata$r	SEGMENT
??_R2?$Parameter@UImVec2@@@sk@@8 DD FLAT:??_R1A@?0A@EA@?$Parameter@UImVec2@@@sk@@8 ; sk::Parameter<ImVec2>::`RTTI Base Class Array'
	DD	FLAT:??_R1A@?0A@EA@iParameter@sk@@8
rdata$r	ENDS
;	COMDAT ??_R3?$Parameter@UImVec2@@@sk@@8
rdata$r	SEGMENT
??_R3?$Parameter@UImVec2@@@sk@@8 DD 00H			; sk::Parameter<ImVec2>::`RTTI Class Hierarchy Descriptor'
	DD	00H
	DD	02H
	DD	FLAT:??_R2?$Parameter@UImVec2@@@sk@@8
rdata$r	ENDS
;	COMDAT ??_R0?AV?$Parameter@UImVec2@@@sk@@@8
data$r	SEGMENT
??_R0?AV?$Parameter@UImVec2@@@sk@@@8 DD FLAT:??_7type_info@@6B@ ; sk::Parameter<ImVec2> `RTTI Type Descriptor'
	DD	00H
	DB	'.?AV?$Parameter@UImVec2@@@sk@@', 00H
data$r	ENDS
;	COMDAT ??_R1A@?0A@EA@?$Parameter@UImVec2@@@sk@@8
rdata$r	SEGMENT
??_R1A@?0A@EA@?$Parameter@UImVec2@@@sk@@8 DD FLAT:??_R0?AV?$Parameter@UImVec2@@@sk@@@8 ; sk::Parameter<ImVec2>::`RTTI Base Class Descriptor at (0,-1,0,64)'
	DD	01H
	DD	00H
	DD	0ffffffffH
	DD	00H
	DD	040H
	DD	FLAT:??_R3?$Parameter@UImVec2@@@sk@@8
rdata$r	ENDS
;	COMDAT ??_R1A@?0A@EA@ParameterVec2f@sk@@8
rdata$r	SEGMENT
??_R1A@?0A@EA@ParameterVec2f@sk@@8 DD FLAT:??_R0?AVParameterVec2f@sk@@@8 ; sk::ParameterVec2f::`RTTI Base Class Descriptor at (0,-1,0,64)'
	DD	02H
	DD	00H
	DD	0ffffffffH
	DD	00H
	DD	040H
	DD	FLAT:??_R3ParameterVec2f@sk@@8
rdata$r	ENDS
;	COMDAT ??_R2ParameterVec2f@sk@@8
rdata$r	SEGMENT
??_R2ParameterVec2f@sk@@8 DD FLAT:??_R1A@?0A@EA@ParameterVec2f@sk@@8 ; sk::ParameterVec2f::`RTTI Base Class Array'
	DD	FLAT:??_R1A@?0A@EA@?$Parameter@UImVec2@@@sk@@8
	DD	FLAT:??_R1A@?0A@EA@iParameter@sk@@8
rdata$r	ENDS
;	COMDAT ??_R3ParameterVec2f@sk@@8
rdata$r	SEGMENT
??_R3ParameterVec2f@sk@@8 DD 00H			; sk::ParameterVec2f::`RTTI Class Hierarchy Descriptor'
	DD	00H
	DD	03H
	DD	FLAT:??_R2ParameterVec2f@sk@@8
rdata$r	ENDS
;	COMDAT ??_R0?AVParameterVec2f@sk@@@8
data$r	SEGMENT
??_R0?AVParameterVec2f@sk@@@8 DD FLAT:??_7type_info@@6B@ ; sk::ParameterVec2f `RTTI Type Descriptor'
	DD	00H
	DB	'.?AVParameterVec2f@sk@@', 00H
data$r	ENDS
;	COMDAT ??_R4ParameterVec2f@sk@@6B@
rdata$r	SEGMENT
??_R4ParameterVec2f@sk@@6B@ DD 00H			; sk::ParameterVec2f::`RTTI Complete Object Locator'
	DD	00H
	DD	00H
	DD	FLAT:??_R0?AVParameterVec2f@sk@@@8
	DD	FLAT:??_R3ParameterVec2f@sk@@8
rdata$r	ENDS
;	COMDAT ??_R4?$Parameter@V?$basic_string@_WU?$char_traits@_W@std@@V?$allocator@_W@2@@std@@@sk@@6B@
rdata$r	SEGMENT
??_R4?$Parameter@V?$basic_string@_WU?$char_traits@_W@std@@V?$allocator@_W@2@@std@@@sk@@6B@ DD 00H ; sk::Parameter<std::basic_string<wchar_t,std::char_traits<wchar_t>,std::allocator<wchar_t> > >::`RTTI Complete Object Locator'
	DD	00H
	DD	00H
	DD	FLAT:??_R0?AV?$Parameter@V?$basic_string@_WU?$char_traits@_W@std@@V?$allocator@_W@2@@std@@@sk@@@8
	DD	FLAT:??_R3?$Parameter@V?$basic_string@_WU?$char_traits@_W@std@@V?$allocator@_W@2@@std@@@sk@@8
rdata$r	ENDS
;	COMDAT ??_R2?$Parameter@V?$basic_string@_WU?$char_traits@_W@std@@V?$allocator@_W@2@@std@@@sk@@8
rdata$r	SEGMENT
??_R2?$Parameter@V?$basic_string@_WU?$char_traits@_W@std@@V?$allocator@_W@2@@std@@@sk@@8 DD FLAT:??_R1A@?0A@EA@?$Parameter@V?$basic_string@_WU?$char_traits@_W@std@@V?$allocator@_W@2@@std@@@sk@@8 ; sk::Parameter<std::basic_string<wchar_t,std::char_traits<wchar_t>,std::allocator<wchar_t> > >::`RTTI Base Class Array'
	DD	FLAT:??_R1A@?0A@EA@iParameter@sk@@8
rdata$r	ENDS
;	COMDAT ??_R3?$Parameter@V?$basic_string@_WU?$char_traits@_W@std@@V?$allocator@_W@2@@std@@@sk@@8
rdata$r	SEGMENT
??_R3?$Parameter@V?$basic_string@_WU?$char_traits@_W@std@@V?$allocator@_W@2@@std@@@sk@@8 DD 00H ; sk::Parameter<std::basic_string<wchar_t,std::char_traits<wchar_t>,std::allocator<wchar_t> > >::`RTTI Class Hierarchy Descriptor'
	DD	00H
	DD	02H
	DD	FLAT:??_R2?$Parameter@V?$basic_string@_WU?$char_traits@_W@std@@V?$allocator@_W@2@@std@@@sk@@8
rdata$r	ENDS
;	COMDAT ??_R0?AV?$Parameter@V?$basic_string@_WU?$char_traits@_W@std@@V?$allocator@_W@2@@std@@@sk@@@8
data$r	SEGMENT
??_R0?AV?$Parameter@V?$basic_string@_WU?$char_traits@_W@std@@V?$allocator@_W@2@@std@@@sk@@@8 DD FLAT:??_7type_info@@6B@ ; sk::Parameter<std::basic_string<wchar_t,std::char_traits<wchar_t>,std::allocator<wchar_t> > > `RTTI Type Descriptor'
	DD	00H
	DB	'.?AV?$Parameter@V?$basic_string@_WU?$char_traits@_W@std@'
	DB	'@V?$allocator@_W@2@@std@@@sk@@', 00H
data$r	ENDS
;	COMDAT ??_R1A@?0A@EA@?$Parameter@V?$basic_string@_WU?$char_traits@_W@std@@V?$allocator@_W@2@@std@@@sk@@8
rdata$r	SEGMENT
??_R1A@?0A@EA@?$Parameter@V?$basic_string@_WU?$char_traits@_W@std@@V?$allocator@_W@2@@std@@@sk@@8 DD FLAT:??_R0?AV?$Parameter@V?$basic_string@_WU?$char_traits@_W@std@@V?$allocator@_W@2@@std@@@sk@@@8 ; sk::Parameter<std::basic_string<wchar_t,std::char_traits<wchar_t>,std::allocator<wchar_t> > >::`RTTI Base Class Descriptor at (0,-1,0,64)'
	DD	01H
	DD	00H
	DD	0ffffffffH
	DD	00H
	DD	040H
	DD	FLAT:??_R3?$Parameter@V?$basic_string@_WU?$char_traits@_W@std@@V?$allocator@_W@2@@std@@@sk@@8
rdata$r	ENDS
;	COMDAT ??_R1A@?0A@EA@ParameterStringW@sk@@8
rdata$r	SEGMENT
??_R1A@?0A@EA@ParameterStringW@sk@@8 DD FLAT:??_R0?AVParameterStringW@sk@@@8 ; sk::ParameterStringW::`RTTI Base Class Descriptor at (0,-1,0,64)'
	DD	02H
	DD	00H
	DD	0ffffffffH
	DD	00H
	DD	040H
	DD	FLAT:??_R3ParameterStringW@sk@@8
rdata$r	ENDS
;	COMDAT ??_R2ParameterStringW@sk@@8
rdata$r	SEGMENT
??_R2ParameterStringW@sk@@8 DD FLAT:??_R1A@?0A@EA@ParameterStringW@sk@@8 ; sk::ParameterStringW::`RTTI Base Class Array'
	DD	FLAT:??_R1A@?0A@EA@?$Parameter@V?$basic_string@_WU?$char_traits@_W@std@@V?$allocator@_W@2@@std@@@sk@@8
	DD	FLAT:??_R1A@?0A@EA@iParameter@sk@@8
rdata$r	ENDS
;	COMDAT ??_R3ParameterStringW@sk@@8
rdata$r	SEGMENT
??_R3ParameterStringW@sk@@8 DD 00H			; sk::ParameterStringW::`RTTI Class Hierarchy Descriptor'
	DD	00H
	DD	03H
	DD	FLAT:??_R2ParameterStringW@sk@@8
rdata$r	ENDS
;	COMDAT ??_R0?AVParameterStringW@sk@@@8
data$r	SEGMENT
??_R0?AVParameterStringW@sk@@@8 DD FLAT:??_7type_info@@6B@ ; sk::ParameterStringW `RTTI Type Descriptor'
	DD	00H
	DB	'.?AVParameterStringW@sk@@', 00H
data$r	ENDS
;	COMDAT ??_R4ParameterStringW@sk@@6B@
rdata$r	SEGMENT
??_R4ParameterStringW@sk@@6B@ DD 00H			; sk::ParameterStringW::`RTTI Complete Object Locator'
	DD	00H
	DD	00H
	DD	FLAT:??_R0?AVParameterStringW@sk@@@8
	DD	FLAT:??_R3ParameterStringW@sk@@8
rdata$r	ENDS
;	COMDAT ??_R4?$Parameter@M@sk@@6B@
rdata$r	SEGMENT
??_R4?$Parameter@M@sk@@6B@ DD 00H			; sk::Parameter<float>::`RTTI Complete Object Locator'
	DD	00H
	DD	00H
	DD	FLAT:??_R0?AV?$Parameter@M@sk@@@8
	DD	FLAT:??_R3?$Parameter@M@sk@@8
rdata$r	ENDS
;	COMDAT ??_R2?$Parameter@M@sk@@8
rdata$r	SEGMENT
??_R2?$Parameter@M@sk@@8 DD FLAT:??_R1A@?0A@EA@?$Parameter@M@sk@@8 ; sk::Parameter<float>::`RTTI Base Class Array'
	DD	FLAT:??_R1A@?0A@EA@iParameter@sk@@8
rdata$r	ENDS
;	COMDAT ??_R3?$Parameter@M@sk@@8
rdata$r	SEGMENT
??_R3?$Parameter@M@sk@@8 DD 00H				; sk::Parameter<float>::`RTTI Class Hierarchy Descriptor'
	DD	00H
	DD	02H
	DD	FLAT:??_R2?$Parameter@M@sk@@8
rdata$r	ENDS
;	COMDAT ??_R0?AV?$Parameter@M@sk@@@8
data$r	SEGMENT
??_R0?AV?$Parameter@M@sk@@@8 DD FLAT:??_7type_info@@6B@	; sk::Parameter<float> `RTTI Type Descriptor'
	DD	00H
	DB	'.?AV?$Parameter@M@sk@@', 00H
data$r	ENDS
;	COMDAT ??_R1A@?0A@EA@?$Parameter@M@sk@@8
rdata$r	SEGMENT
??_R1A@?0A@EA@?$Parameter@M@sk@@8 DD FLAT:??_R0?AV?$Parameter@M@sk@@@8 ; sk::Parameter<float>::`RTTI Base Class Descriptor at (0,-1,0,64)'
	DD	01H
	DD	00H
	DD	0ffffffffH
	DD	00H
	DD	040H
	DD	FLAT:??_R3?$Parameter@M@sk@@8
rdata$r	ENDS
;	COMDAT ??_R1A@?0A@EA@ParameterFloat@sk@@8
rdata$r	SEGMENT
??_R1A@?0A@EA@ParameterFloat@sk@@8 DD FLAT:??_R0?AVParameterFloat@sk@@@8 ; sk::ParameterFloat::`RTTI Base Class Descriptor at (0,-1,0,64)'
	DD	02H
	DD	00H
	DD	0ffffffffH
	DD	00H
	DD	040H
	DD	FLAT:??_R3ParameterFloat@sk@@8
rdata$r	ENDS
;	COMDAT ??_R2ParameterFloat@sk@@8
rdata$r	SEGMENT
??_R2ParameterFloat@sk@@8 DD FLAT:??_R1A@?0A@EA@ParameterFloat@sk@@8 ; sk::ParameterFloat::`RTTI Base Class Array'
	DD	FLAT:??_R1A@?0A@EA@?$Parameter@M@sk@@8
	DD	FLAT:??_R1A@?0A@EA@iParameter@sk@@8
rdata$r	ENDS
;	COMDAT ??_R3ParameterFloat@sk@@8
rdata$r	SEGMENT
??_R3ParameterFloat@sk@@8 DD 00H			; sk::ParameterFloat::`RTTI Class Hierarchy Descriptor'
	DD	00H
	DD	03H
	DD	FLAT:??_R2ParameterFloat@sk@@8
rdata$r	ENDS
;	COMDAT ??_R0?AVParameterFloat@sk@@@8
data$r	SEGMENT
??_R0?AVParameterFloat@sk@@@8 DD FLAT:??_7type_info@@6B@ ; sk::ParameterFloat `RTTI Type Descriptor'
	DD	00H
	DB	'.?AVParameterFloat@sk@@', 00H
data$r	ENDS
;	COMDAT ??_R4ParameterFloat@sk@@6B@
rdata$r	SEGMENT
??_R4ParameterFloat@sk@@6B@ DD 00H			; sk::ParameterFloat::`RTTI Complete Object Locator'
	DD	00H
	DD	00H
	DD	FLAT:??_R0?AVParameterFloat@sk@@@8
	DD	FLAT:??_R3ParameterFloat@sk@@8
rdata$r	ENDS
;	COMDAT ??_R4?$Parameter@_N@sk@@6B@
rdata$r	SEGMENT
??_R4?$Parameter@_N@sk@@6B@ DD 00H			; sk::Parameter<bool>::`RTTI Complete Object Locator'
	DD	00H
	DD	00H
	DD	FLAT:??_R0?AV?$Parameter@_N@sk@@@8
	DD	FLAT:??_R3?$Parameter@_N@sk@@8
rdata$r	ENDS
;	COMDAT ??_R2?$Parameter@_N@sk@@8
rdata$r	SEGMENT
??_R2?$Parameter@_N@sk@@8 DD FLAT:??_R1A@?0A@EA@?$Parameter@_N@sk@@8 ; sk::Parameter<bool>::`RTTI Base Class Array'
	DD	FLAT:??_R1A@?0A@EA@iParameter@sk@@8
rdata$r	ENDS
;	COMDAT ??_R3?$Parameter@_N@sk@@8
rdata$r	SEGMENT
??_R3?$Parameter@_N@sk@@8 DD 00H			; sk::Parameter<bool>::`RTTI Class Hierarchy Descriptor'
	DD	00H
	DD	02H
	DD	FLAT:??_R2?$Parameter@_N@sk@@8
rdata$r	ENDS
;	COMDAT ??_R0?AV?$Parameter@_N@sk@@@8
data$r	SEGMENT
??_R0?AV?$Parameter@_N@sk@@@8 DD FLAT:??_7type_info@@6B@ ; sk::Parameter<bool> `RTTI Type Descriptor'
	DD	00H
	DB	'.?AV?$Parameter@_N@sk@@', 00H
data$r	ENDS
;	COMDAT ??_R1A@?0A@EA@?$Parameter@_N@sk@@8
rdata$r	SEGMENT
??_R1A@?0A@EA@?$Parameter@_N@sk@@8 DD FLAT:??_R0?AV?$Parameter@_N@sk@@@8 ; sk::Parameter<bool>::`RTTI Base Class Descriptor at (0,-1,0,64)'
	DD	01H
	DD	00H
	DD	0ffffffffH
	DD	00H
	DD	040H
	DD	FLAT:??_R3?$Parameter@_N@sk@@8
rdata$r	ENDS
;	COMDAT ??_R1A@?0A@EA@ParameterBool@sk@@8
rdata$r	SEGMENT
??_R1A@?0A@EA@ParameterBool@sk@@8 DD FLAT:??_R0?AVParameterBool@sk@@@8 ; sk::ParameterBool::`RTTI Base Class Descriptor at (0,-1,0,64)'
	DD	02H
	DD	00H
	DD	0ffffffffH
	DD	00H
	DD	040H
	DD	FLAT:??_R3ParameterBool@sk@@8
rdata$r	ENDS
;	COMDAT ??_R2ParameterBool@sk@@8
rdata$r	SEGMENT
??_R2ParameterBool@sk@@8 DD FLAT:??_R1A@?0A@EA@ParameterBool@sk@@8 ; sk::ParameterBool::`RTTI Base Class Array'
	DD	FLAT:??_R1A@?0A@EA@?$Parameter@_N@sk@@8
	DD	FLAT:??_R1A@?0A@EA@iParameter@sk@@8
rdata$r	ENDS
;	COMDAT ??_R3ParameterBool@sk@@8
rdata$r	SEGMENT
??_R3ParameterBool@sk@@8 DD 00H				; sk::ParameterBool::`RTTI Class Hierarchy Descriptor'
	DD	00H
	DD	03H
	DD	FLAT:??_R2ParameterBool@sk@@8
rdata$r	ENDS
;	COMDAT ??_R0?AVParameterBool@sk@@@8
data$r	SEGMENT
??_R0?AVParameterBool@sk@@@8 DD FLAT:??_7type_info@@6B@	; sk::ParameterBool `RTTI Type Descriptor'
	DD	00H
	DB	'.?AVParameterBool@sk@@', 00H
data$r	ENDS
;	COMDAT ??_R4ParameterBool@sk@@6B@
rdata$r	SEGMENT
??_R4ParameterBool@sk@@6B@ DD 00H			; sk::ParameterBool::`RTTI Complete Object Locator'
	DD	00H
	DD	00H
	DD	FLAT:??_R0?AVParameterBool@sk@@@8
	DD	FLAT:??_R3ParameterBool@sk@@8
rdata$r	ENDS
;	COMDAT ??_R4?$Parameter@_J@sk@@6B@
rdata$r	SEGMENT
??_R4?$Parameter@_J@sk@@6B@ DD 00H			; sk::Parameter<__int64>::`RTTI Complete Object Locator'
	DD	00H
	DD	00H
	DD	FLAT:??_R0?AV?$Parameter@_J@sk@@@8
	DD	FLAT:??_R3?$Parameter@_J@sk@@8
rdata$r	ENDS
;	COMDAT ??_R2?$Parameter@_J@sk@@8
rdata$r	SEGMENT
??_R2?$Parameter@_J@sk@@8 DD FLAT:??_R1A@?0A@EA@?$Parameter@_J@sk@@8 ; sk::Parameter<__int64>::`RTTI Base Class Array'
	DD	FLAT:??_R1A@?0A@EA@iParameter@sk@@8
rdata$r	ENDS
;	COMDAT ??_R3?$Parameter@_J@sk@@8
rdata$r	SEGMENT
??_R3?$Parameter@_J@sk@@8 DD 00H			; sk::Parameter<__int64>::`RTTI Class Hierarchy Descriptor'
	DD	00H
	DD	02H
	DD	FLAT:??_R2?$Parameter@_J@sk@@8
rdata$r	ENDS
;	COMDAT ??_R0?AV?$Parameter@_J@sk@@@8
data$r	SEGMENT
??_R0?AV?$Parameter@_J@sk@@@8 DD FLAT:??_7type_info@@6B@ ; sk::Parameter<__int64> `RTTI Type Descriptor'
	DD	00H
	DB	'.?AV?$Parameter@_J@sk@@', 00H
data$r	ENDS
;	COMDAT ??_R1A@?0A@EA@?$Parameter@_J@sk@@8
rdata$r	SEGMENT
??_R1A@?0A@EA@?$Parameter@_J@sk@@8 DD FLAT:??_R0?AV?$Parameter@_J@sk@@@8 ; sk::Parameter<__int64>::`RTTI Base Class Descriptor at (0,-1,0,64)'
	DD	01H
	DD	00H
	DD	0ffffffffH
	DD	00H
	DD	040H
	DD	FLAT:??_R3?$Parameter@_J@sk@@8
rdata$r	ENDS
;	COMDAT ??_R1A@?0A@EA@ParameterInt64@sk@@8
rdata$r	SEGMENT
??_R1A@?0A@EA@ParameterInt64@sk@@8 DD FLAT:??_R0?AVParameterInt64@sk@@@8 ; sk::ParameterInt64::`RTTI Base Class Descriptor at (0,-1,0,64)'
	DD	02H
	DD	00H
	DD	0ffffffffH
	DD	00H
	DD	040H
	DD	FLAT:??_R3ParameterInt64@sk@@8
rdata$r	ENDS
;	COMDAT ??_R2ParameterInt64@sk@@8
rdata$r	SEGMENT
??_R2ParameterInt64@sk@@8 DD FLAT:??_R1A@?0A@EA@ParameterInt64@sk@@8 ; sk::ParameterInt64::`RTTI Base Class Array'
	DD	FLAT:??_R1A@?0A@EA@?$Parameter@_J@sk@@8
	DD	FLAT:??_R1A@?0A@EA@iParameter@sk@@8
rdata$r	ENDS
;	COMDAT ??_R3ParameterInt64@sk@@8
rdata$r	SEGMENT
??_R3ParameterInt64@sk@@8 DD 00H			; sk::ParameterInt64::`RTTI Class Hierarchy Descriptor'
	DD	00H
	DD	03H
	DD	FLAT:??_R2ParameterInt64@sk@@8
rdata$r	ENDS
;	COMDAT ??_R0?AVParameterInt64@sk@@@8
data$r	SEGMENT
??_R0?AVParameterInt64@sk@@@8 DD FLAT:??_7type_info@@6B@ ; sk::ParameterInt64 `RTTI Type Descriptor'
	DD	00H
	DB	'.?AVParameterInt64@sk@@', 00H
data$r	ENDS
;	COMDAT ??_R4ParameterInt64@sk@@6B@
rdata$r	SEGMENT
??_R4ParameterInt64@sk@@6B@ DD 00H			; sk::ParameterInt64::`RTTI Complete Object Locator'
	DD	00H
	DD	00H
	DD	FLAT:??_R0?AVParameterInt64@sk@@@8
	DD	FLAT:??_R3ParameterInt64@sk@@8
rdata$r	ENDS
;	COMDAT ??_R4?$Parameter@H@sk@@6B@
rdata$r	SEGMENT
??_R4?$Parameter@H@sk@@6B@ DD 00H			; sk::Parameter<int>::`RTTI Complete Object Locator'
	DD	00H
	DD	00H
	DD	FLAT:??_R0?AV?$Parameter@H@sk@@@8
	DD	FLAT:??_R3?$Parameter@H@sk@@8
rdata$r	ENDS
;	COMDAT ??_R2?$Parameter@H@sk@@8
rdata$r	SEGMENT
??_R2?$Parameter@H@sk@@8 DD FLAT:??_R1A@?0A@EA@?$Parameter@H@sk@@8 ; sk::Parameter<int>::`RTTI Base Class Array'
	DD	FLAT:??_R1A@?0A@EA@iParameter@sk@@8
rdata$r	ENDS
;	COMDAT ??_R3?$Parameter@H@sk@@8
rdata$r	SEGMENT
??_R3?$Parameter@H@sk@@8 DD 00H				; sk::Parameter<int>::`RTTI Class Hierarchy Descriptor'
	DD	00H
	DD	02H
	DD	FLAT:??_R2?$Parameter@H@sk@@8
rdata$r	ENDS
;	COMDAT ??_R0?AV?$Parameter@H@sk@@@8
data$r	SEGMENT
??_R0?AV?$Parameter@H@sk@@@8 DD FLAT:??_7type_info@@6B@	; sk::Parameter<int> `RTTI Type Descriptor'
	DD	00H
	DB	'.?AV?$Parameter@H@sk@@', 00H
data$r	ENDS
;	COMDAT ??_R1A@?0A@EA@?$Parameter@H@sk@@8
rdata$r	SEGMENT
??_R1A@?0A@EA@?$Parameter@H@sk@@8 DD FLAT:??_R0?AV?$Parameter@H@sk@@@8 ; sk::Parameter<int>::`RTTI Base Class Descriptor at (0,-1,0,64)'
	DD	01H
	DD	00H
	DD	0ffffffffH
	DD	00H
	DD	040H
	DD	FLAT:??_R3?$Parameter@H@sk@@8
rdata$r	ENDS
;	COMDAT ??_R1A@?0A@EA@ParameterInt@sk@@8
rdata$r	SEGMENT
??_R1A@?0A@EA@ParameterInt@sk@@8 DD FLAT:??_R0?AVParameterInt@sk@@@8 ; sk::ParameterInt::`RTTI Base Class Descriptor at (0,-1,0,64)'
	DD	02H
	DD	00H
	DD	0ffffffffH
	DD	00H
	DD	040H
	DD	FLAT:??_R3ParameterInt@sk@@8
rdata$r	ENDS
;	COMDAT ??_R2ParameterInt@sk@@8
rdata$r	SEGMENT
??_R2ParameterInt@sk@@8 DD FLAT:??_R1A@?0A@EA@ParameterInt@sk@@8 ; sk::ParameterInt::`RTTI Base Class Array'
	DD	FLAT:??_R1A@?0A@EA@?$Parameter@H@sk@@8
	DD	FLAT:??_R1A@?0A@EA@iParameter@sk@@8
rdata$r	ENDS
;	COMDAT ??_R3ParameterInt@sk@@8
rdata$r	SEGMENT
??_R3ParameterInt@sk@@8 DD 00H				; sk::ParameterInt::`RTTI Class Hierarchy Descriptor'
	DD	00H
	DD	03H
	DD	FLAT:??_R2ParameterInt@sk@@8
rdata$r	ENDS
;	COMDAT ??_R0?AVParameterInt@sk@@@8
data$r	SEGMENT
??_R0?AVParameterInt@sk@@@8 DD FLAT:??_7type_info@@6B@	; sk::ParameterInt `RTTI Type Descriptor'
	DD	00H
	DB	'.?AVParameterInt@sk@@', 00H
data$r	ENDS
;	COMDAT ??_R4ParameterInt@sk@@6B@
rdata$r	SEGMENT
??_R4ParameterInt@sk@@6B@ DD 00H			; sk::ParameterInt::`RTTI Complete Object Locator'
	DD	00H
	DD	00H
	DD	FLAT:??_R0?AVParameterInt@sk@@@8
	DD	FLAT:??_R3ParameterInt@sk@@8
rdata$r	ENDS
;	COMDAT ??_R1A@?0A@EA@iParameter@sk@@8
rdata$r	SEGMENT
??_R1A@?0A@EA@iParameter@sk@@8 DD FLAT:??_R0?AViParameter@sk@@@8 ; sk::iParameter::`RTTI Base Class Descriptor at (0,-1,0,64)'
	DD	00H
	DD	00H
	DD	0ffffffffH
	DD	00H
	DD	040H
	DD	FLAT:??_R3iParameter@sk@@8
rdata$r	ENDS
;	COMDAT ??_R2iParameter@sk@@8
rdata$r	SEGMENT
??_R2iParameter@sk@@8 DD FLAT:??_R1A@?0A@EA@iParameter@sk@@8 ; sk::iParameter::`RTTI Base Class Array'
rdata$r	ENDS
;	COMDAT ??_R3iParameter@sk@@8
rdata$r	SEGMENT
??_R3iParameter@sk@@8 DD 00H				; sk::iParameter::`RTTI Class Hierarchy Descriptor'
	DD	00H
	DD	01H
	DD	FLAT:??_R2iParameter@sk@@8
rdata$r	ENDS
;	COMDAT ??_R4iParameter@sk@@6B@
rdata$r	SEGMENT
??_R4iParameter@sk@@6B@ DD 00H				; sk::iParameter::`RTTI Complete Object Locator'
	DD	00H
	DD	00H
	DD	FLAT:??_R0?AViParameter@sk@@@8
	DD	FLAT:??_R3iParameter@sk@@8
rdata$r	ENDS
;	COMDAT ??_C@_0BD@OLBABOEK@vector?$DMT?$DO?5too?5long?$AA@
CONST	SEGMENT
??_C@_0BD@OLBABOEK@vector?$DMT?$DO?5too?5long?$AA@ DB 'vector<T> too long'
	DB	00H						; `string'
CONST	ENDS
;	COMDAT ??_C@_0BI@CFPLBAOH@invalid?5string?5position?$AA@
CONST	SEGMENT
??_C@_0BI@CFPLBAOH@invalid?5string?5position?$AA@ DB 'invalid string posi'
	DB	'tion', 00H					; `string'
CONST	ENDS
;	COMDAT ??_C@_0BA@JFNIOLAK@string?5too?5long?$AA@
CONST	SEGMENT
??_C@_0BA@JFNIOLAK@string?5too?5long?$AA@ DB 'string too long', 00H ; `string'
CONST	ENDS
;	COMDAT ??_R0?AUImVec2@@@8
data$r	SEGMENT
??_R0?AUImVec2@@@8 DD FLAT:??_7type_info@@6B@		; ImVec2 `RTTI Type Descriptor'
	DD	00H
	DB	'.?AUImVec2@@', 00H
data$r	ENDS
;	COMDAT ??_R0?AV?$basic_string@_WU?$char_traits@_W@std@@V?$allocator@_W@2@@std@@@8
data$r	SEGMENT
??_R0?AV?$basic_string@_WU?$char_traits@_W@std@@V?$allocator@_W@2@@std@@@8 DD FLAT:??_7type_info@@6B@ ; std::basic_string<wchar_t,std::char_traits<wchar_t>,std::allocator<wchar_t> > `RTTI Type Descriptor'
	DD	00H
	DB	'.?AV?$basic_string@_WU?$char_traits@_W@std@@V?$allocator'
	DB	'@_W@2@@std@@', 00H
data$r	ENDS
;	COMDAT ??_R0M@8
data$r	SEGMENT
??_R0M@8 DD	FLAT:??_7type_info@@6B@			; float `RTTI Type Descriptor'
	DD	00H
	DB	'.M', 00H
data$r	ENDS
;	COMDAT ??_R0_N@8
data$r	SEGMENT
??_R0_N@8 DD	FLAT:??_7type_info@@6B@			; bool `RTTI Type Descriptor'
	DD	00H
	DB	'._N', 00H
data$r	ENDS
;	COMDAT ??_R0_J@8
data$r	SEGMENT
??_R0_J@8 DD	FLAT:??_7type_info@@6B@			; __int64 `RTTI Type Descriptor'
	DD	00H
	DB	'._J', 00H
data$r	ENDS
;	COMDAT ??_7ParameterVec2f@sk@@6B@
CONST	SEGMENT
??_7ParameterVec2f@sk@@6B@ DD FLAT:??_R4ParameterVec2f@sk@@6B@ ; sk::ParameterVec2f::`vftable'
	DD	FLAT:?get_value_str@ParameterVec2f@sk@@UAE?AV?$basic_string@_WU?$char_traits@_W@std@@V?$allocator@_W@2@@std@@XZ
	DD	FLAT:?set_value_str@ParameterVec2f@sk@@UAEXV?$basic_string@_WU?$char_traits@_W@std@@V?$allocator@_W@2@@std@@@Z
	DD	FLAT:?get_value@ParameterVec2f@sk@@UAE?AUImVec2@@XZ
	DD	FLAT:?set_value@ParameterVec2f@sk@@UAEXUImVec2@@@Z
	DD	FLAT:?store@ParameterVec2f@sk@@UAEXUImVec2@@@Z
	DD	FLAT:?store_str@ParameterVec2f@sk@@UAEXV?$basic_string@_WU?$char_traits@_W@std@@V?$allocator@_W@2@@std@@@Z
	DD	FLAT:?load@ParameterVec2f@sk@@UAE_NAAUImVec2@@@Z
CONST	ENDS
;	COMDAT ??_7?$Parameter@UImVec2@@@sk@@6B@
CONST	SEGMENT
??_7?$Parameter@UImVec2@@@sk@@6B@ DD FLAT:??_R4?$Parameter@UImVec2@@@sk@@6B@ ; sk::Parameter<ImVec2>::`vftable'
	DD	FLAT:__purecall
	DD	FLAT:__purecall
	DD	FLAT:__purecall
	DD	FLAT:__purecall
	DD	FLAT:__purecall
	DD	FLAT:__purecall
	DD	FLAT:__purecall
CONST	ENDS
;	COMDAT ??_7ParameterStringW@sk@@6B@
CONST	SEGMENT
??_7ParameterStringW@sk@@6B@ DD FLAT:??_R4ParameterStringW@sk@@6B@ ; sk::ParameterStringW::`vftable'
	DD	FLAT:?get_value_str@ParameterStringW@sk@@UAE?AV?$basic_string@_WU?$char_traits@_W@std@@V?$allocator@_W@2@@std@@XZ
	DD	FLAT:?set_value_str@ParameterStringW@sk@@UAEXV?$basic_string@_WU?$char_traits@_W@std@@V?$allocator@_W@2@@std@@@Z
	DD	FLAT:?get_value@ParameterStringW@sk@@UAE?AV?$basic_string@_WU?$char_traits@_W@std@@V?$allocator@_W@2@@std@@XZ
	DD	FLAT:?set_value@ParameterStringW@sk@@UAEXV?$basic_string@_WU?$char_traits@_W@std@@V?$allocator@_W@2@@std@@@Z
	DD	FLAT:?store@ParameterStringW@sk@@UAEXV?$basic_string@_WU?$char_traits@_W@std@@V?$allocator@_W@2@@std@@@Z
	DD	FLAT:?store_str@ParameterStringW@sk@@UAEXV?$basic_string@_WU?$char_traits@_W@std@@V?$allocator@_W@2@@std@@@Z
	DD	FLAT:?load@ParameterStringW@sk@@UAE_NAAV?$basic_string@_WU?$char_traits@_W@std@@V?$allocator@_W@2@@std@@@Z
CONST	ENDS
;	COMDAT ??_7?$Parameter@V?$basic_string@_WU?$char_traits@_W@std@@V?$allocator@_W@2@@std@@@sk@@6B@
CONST	SEGMENT
??_7?$Parameter@V?$basic_string@_WU?$char_traits@_W@std@@V?$allocator@_W@2@@std@@@sk@@6B@ DD FLAT:??_R4?$Parameter@V?$basic_string@_WU?$char_traits@_W@std@@V?$allocator@_W@2@@std@@@sk@@6B@ ; sk::Parameter<std::basic_string<wchar_t,std::char_traits<wchar_t>,std::allocator<wchar_t> > >::`vftable'
	DD	FLAT:__purecall
	DD	FLAT:__purecall
	DD	FLAT:__purecall
	DD	FLAT:__purecall
	DD	FLAT:__purecall
	DD	FLAT:__purecall
	DD	FLAT:__purecall
CONST	ENDS
;	COMDAT ??_7ParameterFloat@sk@@6B@
CONST	SEGMENT
??_7ParameterFloat@sk@@6B@ DD FLAT:??_R4ParameterFloat@sk@@6B@ ; sk::ParameterFloat::`vftable'
	DD	FLAT:?get_value_str@ParameterFloat@sk@@UAE?AV?$basic_string@_WU?$char_traits@_W@std@@V?$allocator@_W@2@@std@@XZ
	DD	FLAT:?set_value_str@ParameterFloat@sk@@UAEXV?$basic_string@_WU?$char_traits@_W@std@@V?$allocator@_W@2@@std@@@Z
	DD	FLAT:?get_value@ParameterFloat@sk@@UAEMXZ
	DD	FLAT:?set_value@ParameterFloat@sk@@UAEXM@Z
	DD	FLAT:?store@ParameterFloat@sk@@UAEXM@Z
	DD	FLAT:?store_str@ParameterFloat@sk@@UAEXV?$basic_string@_WU?$char_traits@_W@std@@V?$allocator@_W@2@@std@@@Z
	DD	FLAT:?load@ParameterFloat@sk@@UAE_NAAM@Z
CONST	ENDS
;	COMDAT ??_7?$Parameter@M@sk@@6B@
CONST	SEGMENT
??_7?$Parameter@M@sk@@6B@ DD FLAT:??_R4?$Parameter@M@sk@@6B@ ; sk::Parameter<float>::`vftable'
	DD	FLAT:__purecall
	DD	FLAT:__purecall
	DD	FLAT:__purecall
	DD	FLAT:__purecall
	DD	FLAT:__purecall
	DD	FLAT:__purecall
	DD	FLAT:__purecall
CONST	ENDS
;	COMDAT ??_7ParameterBool@sk@@6B@
CONST	SEGMENT
??_7ParameterBool@sk@@6B@ DD FLAT:??_R4ParameterBool@sk@@6B@ ; sk::ParameterBool::`vftable'
	DD	FLAT:?get_value_str@ParameterBool@sk@@UAE?AV?$basic_string@_WU?$char_traits@_W@std@@V?$allocator@_W@2@@std@@XZ
	DD	FLAT:?set_value_str@ParameterBool@sk@@UAEXV?$basic_string@_WU?$char_traits@_W@std@@V?$allocator@_W@2@@std@@@Z
	DD	FLAT:?get_value@ParameterBool@sk@@UAE_NXZ
	DD	FLAT:?set_value@ParameterBool@sk@@UAEX_N@Z
	DD	FLAT:?store@ParameterBool@sk@@UAEX_N@Z
	DD	FLAT:?store_str@ParameterBool@sk@@UAEXV?$basic_string@_WU?$char_traits@_W@std@@V?$allocator@_W@2@@std@@@Z
	DD	FLAT:?load@ParameterBool@sk@@UAE_NAA_N@Z
CONST	ENDS
;	COMDAT ??_7?$Parameter@_N@sk@@6B@
CONST	SEGMENT
??_7?$Parameter@_N@sk@@6B@ DD FLAT:??_R4?$Parameter@_N@sk@@6B@ ; sk::Parameter<bool>::`vftable'
	DD	FLAT:__purecall
	DD	FLAT:__purecall
	DD	FLAT:__purecall
	DD	FLAT:__purecall
	DD	FLAT:__purecall
	DD	FLAT:__purecall
	DD	FLAT:__purecall
CONST	ENDS
;	COMDAT ??_7ParameterInt64@sk@@6B@
CONST	SEGMENT
??_7ParameterInt64@sk@@6B@ DD FLAT:??_R4ParameterInt64@sk@@6B@ ; sk::ParameterInt64::`vftable'
	DD	FLAT:?get_value_str@ParameterInt64@sk@@UAE?AV?$basic_string@_WU?$char_traits@_W@std@@V?$allocator@_W@2@@std@@XZ
	DD	FLAT:?set_value_str@ParameterInt64@sk@@UAEXV?$basic_string@_WU?$char_traits@_W@std@@V?$allocator@_W@2@@std@@@Z
	DD	FLAT:?get_value@ParameterInt64@sk@@UAE_JXZ
	DD	FLAT:?set_value@ParameterInt64@sk@@UAEX_J@Z
	DD	FLAT:?store@ParameterInt64@sk@@UAEX_J@Z
	DD	FLAT:?store_str@ParameterInt64@sk@@UAEXV?$basic_string@_WU?$char_traits@_W@std@@V?$allocator@_W@2@@std@@@Z
	DD	FLAT:?load@ParameterInt64@sk@@UAE_NAA_J@Z
CONST	ENDS
;	COMDAT ??_7?$Parameter@_J@sk@@6B@
CONST	SEGMENT
??_7?$Parameter@_J@sk@@6B@ DD FLAT:??_R4?$Parameter@_J@sk@@6B@ ; sk::Parameter<__int64>::`vftable'
	DD	FLAT:__purecall
	DD	FLAT:__purecall
	DD	FLAT:__purecall
	DD	FLAT:__purecall
	DD	FLAT:__purecall
	DD	FLAT:__purecall
	DD	FLAT:__purecall
CONST	ENDS
;	COMDAT ??_R0H@8
data$r	SEGMENT
??_R0H@8 DD	FLAT:??_7type_info@@6B@			; int `RTTI Type Descriptor'
	DD	00H
	DB	'.H', 00H
data$r	ENDS
;	COMDAT ??_7ParameterInt@sk@@6B@
CONST	SEGMENT
??_7ParameterInt@sk@@6B@ DD FLAT:??_R4ParameterInt@sk@@6B@ ; sk::ParameterInt::`vftable'
	DD	FLAT:?get_value_str@ParameterInt@sk@@UAE?AV?$basic_string@_WU?$char_traits@_W@std@@V?$allocator@_W@2@@std@@XZ
	DD	FLAT:?set_value_str@ParameterInt@sk@@UAEXV?$basic_string@_WU?$char_traits@_W@std@@V?$allocator@_W@2@@std@@@Z
	DD	FLAT:?get_value@ParameterInt@sk@@UAEHXZ
	DD	FLAT:?set_value@ParameterInt@sk@@UAEXH@Z
	DD	FLAT:?store@ParameterInt@sk@@UAEXH@Z
	DD	FLAT:?store_str@ParameterInt@sk@@UAEXV?$basic_string@_WU?$char_traits@_W@std@@V?$allocator@_W@2@@std@@@Z
	DD	FLAT:?load@ParameterInt@sk@@UAE_NAAH@Z
CONST	ENDS
;	COMDAT ??_7?$Parameter@H@sk@@6B@
CONST	SEGMENT
??_7?$Parameter@H@sk@@6B@ DD FLAT:??_R4?$Parameter@H@sk@@6B@ ; sk::Parameter<int>::`vftable'
	DD	FLAT:__purecall
	DD	FLAT:__purecall
	DD	FLAT:__purecall
	DD	FLAT:__purecall
	DD	FLAT:__purecall
	DD	FLAT:__purecall
	DD	FLAT:__purecall
CONST	ENDS
;	COMDAT ??_R0?AViParameter@sk@@@8
data$r	SEGMENT
??_R0?AViParameter@sk@@@8 DD FLAT:??_7type_info@@6B@	; sk::iParameter `RTTI Type Descriptor'
	DD	00H
	DB	'.?AViParameter@sk@@', 00H
data$r	ENDS
;	COMDAT ??_7iParameter@sk@@6B@
CONST	SEGMENT
??_7iParameter@sk@@6B@ DD FLAT:??_R4iParameter@sk@@6B@	; sk::iParameter::`vftable'
	DD	FLAT:__purecall
	DD	FLAT:__purecall
CONST	ENDS
;	COMDAT xdata$x
xdata$x	SEGMENT
__catchsym$?_Copy@?$basic_string@_WU?$char_traits@_W@std@@V?$allocator@_W@2@@std@@QAEXI@Z$18 DD 040H
	DD	00H
	DD	00H
	DD	FLAT:__catch$?_Copy@?$basic_string@_WU?$char_traits@_W@std@@V?$allocator@_W@2@@std@@QAEXI@Z$0
__unwindtable$?_Copy@?$basic_string@_WU?$char_traits@_W@std@@V?$allocator@_W@2@@std@@QAEXI@Z DD 0ffffffffH
	DD	00H
	DD	0ffffffffH
	DD	00H
__tryblocktable$?_Copy@?$basic_string@_WU?$char_traits@_W@std@@V?$allocator@_W@2@@std@@QAEXI@Z DD 00H
	DD	00H
	DD	01H
	DD	01H
	DD	FLAT:__catchsym$?_Copy@?$basic_string@_WU?$char_traits@_W@std@@V?$allocator@_W@2@@std@@QAEXI@Z$18
__ehfuncinfo$?_Copy@?$basic_string@_WU?$char_traits@_W@std@@V?$allocator@_W@2@@std@@QAEXI@Z DD 019930522H
	DD	02H
	DD	FLAT:__unwindtable$?_Copy@?$basic_string@_WU?$char_traits@_W@std@@V?$allocator@_W@2@@std@@QAEXI@Z
	DD	01H
	DD	FLAT:__tryblocktable$?_Copy@?$basic_string@_WU?$char_traits@_W@std@@V?$allocator@_W@2@@std@@QAEXI@Z
	DD	2 DUP(00H)
	DD	00H
	DD	01H
xdata$x	ENDS
xdata$x	SEGMENT
__unwindtable$?store_str@ParameterVec2f@sk@@UAEXV?$basic_string@_WU?$char_traits@_W@std@@V?$allocator@_W@2@@std@@@Z DD 0ffffffffH
	DD	FLAT:__unwindfunclet$?store_str@ParameterVec2f@sk@@UAEXV?$basic_string@_WU?$char_traits@_W@std@@V?$allocator@_W@2@@std@@@Z$0
__unwindtable$?store_str@ParameterStringW@sk@@UAEXV?$basic_string@_WU?$char_traits@_W@std@@V?$allocator@_W@2@@std@@@Z DD 0ffffffffH
	DD	FLAT:__unwindfunclet$?store_str@ParameterStringW@sk@@UAEXV?$basic_string@_WU?$char_traits@_W@std@@V?$allocator@_W@2@@std@@@Z$0
__unwindtable$?store@ParameterStringW@sk@@UAEXV?$basic_string@_WU?$char_traits@_W@std@@V?$allocator@_W@2@@std@@@Z DD 0ffffffffH
	DD	FLAT:__unwindfunclet$?store@ParameterStringW@sk@@UAEXV?$basic_string@_WU?$char_traits@_W@std@@V?$allocator@_W@2@@std@@@Z$0
__unwindtable$?set_value_str@ParameterStringW@sk@@UAEXV?$basic_string@_WU?$char_traits@_W@std@@V?$allocator@_W@2@@std@@@Z DD 0ffffffffH
	DD	FLAT:__unwindfunclet$?set_value_str@ParameterStringW@sk@@UAEXV?$basic_string@_WU?$char_traits@_W@std@@V?$allocator@_W@2@@std@@@Z$0
__unwindtable$?set_value@ParameterStringW@sk@@UAEXV?$basic_string@_WU?$char_traits@_W@std@@V?$allocator@_W@2@@std@@@Z DD 0ffffffffH
	DD	FLAT:__unwindfunclet$?set_value@ParameterStringW@sk@@UAEXV?$basic_string@_WU?$char_traits@_W@std@@V?$allocator@_W@2@@std@@@Z$0
__unwindtable$?store_str@ParameterFloat@sk@@UAEXV?$basic_string@_WU?$char_traits@_W@std@@V?$allocator@_W@2@@std@@@Z DD 0ffffffffH
	DD	FLAT:__unwindfunclet$?store_str@ParameterFloat@sk@@UAEXV?$basic_string@_WU?$char_traits@_W@std@@V?$allocator@_W@2@@std@@@Z$0
__unwindtable$?store_str@ParameterBool@sk@@UAEXV?$basic_string@_WU?$char_traits@_W@std@@V?$allocator@_W@2@@std@@@Z DD 0ffffffffH
	DD	FLAT:__unwindfunclet$?store_str@ParameterBool@sk@@UAEXV?$basic_string@_WU?$char_traits@_W@std@@V?$allocator@_W@2@@std@@@Z$0
__unwindtable$?store_str@ParameterInt64@sk@@UAEXV?$basic_string@_WU?$char_traits@_W@std@@V?$allocator@_W@2@@std@@@Z DD 0ffffffffH
	DD	FLAT:__unwindfunclet$?store_str@ParameterInt64@sk@@UAEXV?$basic_string@_WU?$char_traits@_W@std@@V?$allocator@_W@2@@std@@@Z$0
__unwindtable$?store_str@ParameterInt@sk@@UAEXV?$basic_string@_WU?$char_traits@_W@std@@V?$allocator@_W@2@@std@@@Z DD 0ffffffffH
	DD	FLAT:__unwindfunclet$?store_str@ParameterInt@sk@@UAEXV?$basic_string@_WU?$char_traits@_W@std@@V?$allocator@_W@2@@std@@@Z$0
__unwindtable$?store@iParameter@sk@@QAE_NXZ DD 0ffffffffH
	DD	FLAT:__unwindfunclet$?store@iParameter@sk@@QAE_NXZ$0
	DD	0ffffffffH
	DD	FLAT:__unwindfunclet$?store@iParameter@sk@@QAE_NXZ$1
__ehfuncinfo$?store_str@ParameterVec2f@sk@@UAEXV?$basic_string@_WU?$char_traits@_W@std@@V?$allocator@_W@2@@std@@@Z DD 019930522H
	DD	01H
	DD	FLAT:__unwindtable$?store_str@ParameterVec2f@sk@@UAEXV?$basic_string@_WU?$char_traits@_W@std@@V?$allocator@_W@2@@std@@@Z
	DD	2 DUP(00H)
	DD	2 DUP(00H)
	DD	00H
	DD	01H
__ehfuncinfo$?store_str@ParameterStringW@sk@@UAEXV?$basic_string@_WU?$char_traits@_W@std@@V?$allocator@_W@2@@std@@@Z DD 019930522H
	DD	01H
	DD	FLAT:__unwindtable$?store_str@ParameterStringW@sk@@UAEXV?$basic_string@_WU?$char_traits@_W@std@@V?$allocator@_W@2@@std@@@Z
	DD	2 DUP(00H)
	DD	2 DUP(00H)
	DD	00H
	DD	01H
__ehfuncinfo$?store@ParameterStringW@sk@@UAEXV?$basic_string@_WU?$char_traits@_W@std@@V?$allocator@_W@2@@std@@@Z DD 019930522H
	DD	01H
	DD	FLAT:__unwindtable$?store@ParameterStringW@sk@@UAEXV?$basic_string@_WU?$char_traits@_W@std@@V?$allocator@_W@2@@std@@@Z
	DD	2 DUP(00H)
	DD	2 DUP(00H)
	DD	00H
	DD	01H
__ehfuncinfo$?set_value_str@ParameterStringW@sk@@UAEXV?$basic_string@_WU?$char_traits@_W@std@@V?$allocator@_W@2@@std@@@Z DD 019930522H
	DD	01H
	DD	FLAT:__unwindtable$?set_value_str@ParameterStringW@sk@@UAEXV?$basic_string@_WU?$char_traits@_W@std@@V?$allocator@_W@2@@std@@@Z
	DD	2 DUP(00H)
	DD	2 DUP(00H)
	DD	00H
	DD	01H
__ehfuncinfo$?set_value@ParameterStringW@sk@@UAEXV?$basic_string@_WU?$char_traits@_W@std@@V?$allocator@_W@2@@std@@@Z DD 019930522H
	DD	01H
	DD	FLAT:__unwindtable$?set_value@ParameterStringW@sk@@UAEXV?$basic_string@_WU?$char_traits@_W@std@@V?$allocator@_W@2@@std@@@Z
	DD	2 DUP(00H)
	DD	2 DUP(00H)
	DD	00H
	DD	01H
__ehfuncinfo$?store_str@ParameterFloat@sk@@UAEXV?$basic_string@_WU?$char_traits@_W@std@@V?$allocator@_W@2@@std@@@Z DD 019930522H
	DD	01H
	DD	FLAT:__unwindtable$?store_str@ParameterFloat@sk@@UAEXV?$basic_string@_WU?$char_traits@_W@std@@V?$allocator@_W@2@@std@@@Z
	DD	2 DUP(00H)
	DD	2 DUP(00H)
	DD	00H
	DD	01H
__ehfuncinfo$?store_str@ParameterBool@sk@@UAEXV?$basic_string@_WU?$char_traits@_W@std@@V?$allocator@_W@2@@std@@@Z DD 019930522H
	DD	01H
	DD	FLAT:__unwindtable$?store_str@ParameterBool@sk@@UAEXV?$basic_string@_WU?$char_traits@_W@std@@V?$allocator@_W@2@@std@@@Z
	DD	2 DUP(00H)
	DD	2 DUP(00H)
	DD	00H
	DD	01H
__ehfuncinfo$?store_str@ParameterInt64@sk@@UAEXV?$basic_string@_WU?$char_traits@_W@std@@V?$allocator@_W@2@@std@@@Z DD 019930522H
	DD	01H
	DD	FLAT:__unwindtable$?store_str@ParameterInt64@sk@@UAEXV?$basic_string@_WU?$char_traits@_W@std@@V?$allocator@_W@2@@std@@@Z
	DD	2 DUP(00H)
	DD	2 DUP(00H)
	DD	00H
	DD	01H
__ehfuncinfo$?store_str@ParameterInt@sk@@UAEXV?$basic_string@_WU?$char_traits@_W@std@@V?$allocator@_W@2@@std@@@Z DD 019930522H
	DD	01H
	DD	FLAT:__unwindtable$?store_str@ParameterInt@sk@@UAEXV?$basic_string@_WU?$char_traits@_W@std@@V?$allocator@_W@2@@std@@@Z
	DD	2 DUP(00H)
	DD	2 DUP(00H)
	DD	00H
	DD	01H
__ehfuncinfo$?store@iParameter@sk@@QAE_NXZ DD 019930522H
	DD	02H
	DD	FLAT:__unwindtable$?store@iParameter@sk@@QAE_NXZ
	DD	2 DUP(00H)
	DD	2 DUP(00H)
	DD	00H
	DD	01H
xdata$x	ENDS
; Function compile flags: /Ogtp
; File c:\program files (x86)\microsoft visual studio\2017\community\vc\tools\msvc\14.10.25017\include\xutility
;	COMDAT ??$_Copy_memmove@PAPAViParameter@sk@@PAPAV12@@std@@YAPAPAViParameter@sk@@PAPAV12@00@Z
_TEXT	SEGMENT
__First$ = 8						; size = 4
__Last$ = 12						; size = 4
__Dest$ = 16						; size = 4
??$_Copy_memmove@PAPAViParameter@sk@@PAPAV12@@std@@YAPAPAViParameter@sk@@PAPAV12@00@Z PROC ; std::_Copy_memmove<sk::iParameter * *,sk::iParameter * *>, COMDAT

; 2295 : 	{	// implement copy-like function as memmove

	npad	2
	push	ebp
	mov	ebp, esp

; 2296 : 	const char * const _First_ch = reinterpret_cast<const char *>(_First);
; 2297 : 	const char * const _Last_ch = reinterpret_cast<const char *>(_Last);
; 2298 : 	char * const _Dest_ch = reinterpret_cast<char *>(_Dest);
; 2299 : 	const size_t _Count = _Last_ch - _First_ch;

	mov	eax, DWORD PTR __First$[ebp]
	push	esi

; 2300 : 	_CSTD memmove(_Dest_ch, _First_ch, _Count);

	mov	esi, DWORD PTR __Dest$[ebp]
	push	edi
	mov	edi, DWORD PTR __Last$[ebp]
	sub	edi, eax
	push	edi
	push	eax
	push	esi
	call	DWORD PTR __imp__memmove
	add	esp, 12					; 0000000cH

; 2301 : 	return (reinterpret_cast<_OutIt>(_Dest_ch + _Count));

	lea	eax, DWORD PTR [edi+esi]
	pop	edi
	pop	esi

; 2302 : 	}

	pop	ebp
	ret	0
??$_Copy_memmove@PAPAViParameter@sk@@PAPAV12@@std@@YAPAPAViParameter@sk@@PAPAV12@00@Z ENDP ; std::_Copy_memmove<sk::iParameter * *,sk::iParameter * *>
_TEXT	ENDS
; Function compile flags: /Ogtp
; File c:\program files (x86)\microsoft visual studio\2017\community\vc\tools\msvc\14.10.25017\include\xmemory0
;	COMDAT ??$destroy@PAViParameter@sk@@@?$allocator@PAViParameter@sk@@@std@@QAEXPAPAViParameter@sk@@@Z
_TEXT	SEGMENT
__Ptr$ = 8						; size = 4
??$destroy@PAViParameter@sk@@@?$allocator@PAViParameter@sk@@@std@@QAEXPAPAViParameter@sk@@@Z PROC ; std::allocator<sk::iParameter *>::destroy<sk::iParameter *>, COMDAT
; _this$ = ecx

; 846  : 		_Ptr->~_Uty();
; 847  : 		}

	ret	4
??$destroy@PAViParameter@sk@@@?$allocator@PAViParameter@sk@@@std@@QAEXPAPAViParameter@sk@@@Z ENDP ; std::allocator<sk::iParameter *>::destroy<sk::iParameter *>
_TEXT	ENDS
; Function compile flags: /Ogtp
; File c:\program files (x86)\microsoft visual studio\2017\community\vc\tools\msvc\14.10.25017\include\xmemory0
;	COMDAT ??$construct@PAViParameter@sk@@ABQAV12@@?$allocator@PAViParameter@sk@@@std@@QAEXPAPAViParameter@sk@@ABQAV23@@Z
_TEXT	SEGMENT
__Ptr$ = 8						; size = 4
_<_Args_0>$ = 12					; size = 4
??$construct@PAViParameter@sk@@ABQAV12@@?$allocator@PAViParameter@sk@@@std@@QAEXPAPAViParameter@sk@@ABQAV23@@Z PROC ; std::allocator<sk::iParameter *>::construct<sk::iParameter *,sk::iParameter * const &>, COMDAT
; _this$ = ecx

; 839  : 		{	// construct _Objty(_Types...) at _Ptr

	npad	2
	push	ebp
	mov	ebp, esp

; 840  : 		::new ((void *)_Ptr) _Objty(_STD forward<_Types>(_Args)...);

	mov	ecx, DWORD PTR __Ptr$[ebp]
	test	ecx, ecx
	je	SHORT $LN3@construct
	mov	eax, DWORD PTR _<_Args_0>$[ebp]
	mov	eax, DWORD PTR [eax]
	mov	DWORD PTR [ecx], eax
$LN3@construct:

; 841  : 		}

	pop	ebp
	ret	8
??$construct@PAViParameter@sk@@ABQAV12@@?$allocator@PAViParameter@sk@@@std@@QAEXPAPAViParameter@sk@@ABQAV23@@Z ENDP ; std::allocator<sk::iParameter *>::construct<sk::iParameter *,sk::iParameter * const &>
_TEXT	ENDS
; Function compile flags: /Ogtp
; File c:\program files (x86)\microsoft visual studio\2017\community\vc\tools\msvc\14.10.25017\include\xutility
;	COMDAT ??$_Rechecked@PAPAViParameter@sk@@PAPAV12@@std@@YAAAPAPAViParameter@sk@@AAPAPAV12@PAPAV12@@Z
_TEXT	SEGMENT
__Dest$ = 8						; size = 4
__Src$ = 12						; size = 4
??$_Rechecked@PAPAViParameter@sk@@PAPAV12@@std@@YAAAPAPAViParameter@sk@@AAPAPAV12@PAPAV12@@Z PROC ; std::_Rechecked<sk::iParameter * *,sk::iParameter * *>, COMDAT

; 480  : 	{	// reset checked from unchecked, generic

	npad	2
	push	ebp
	mov	ebp, esp

; 481  : 	_Dest = _Src;

	mov	eax, DWORD PTR __Dest$[ebp]
	mov	ecx, DWORD PTR __Src$[ebp]
	mov	DWORD PTR [eax], ecx

; 482  : 	return (_Dest);
; 483  : 	}

	pop	ebp
	ret	0
??$_Rechecked@PAPAViParameter@sk@@PAPAV12@@std@@YAAAPAPAViParameter@sk@@AAPAPAV12@PAPAV12@@Z ENDP ; std::_Rechecked<sk::iParameter * *,sk::iParameter * *>
_TEXT	ENDS
; Function compile flags: /Ogtp
; File c:\program files (x86)\microsoft visual studio\2017\community\vc\tools\msvc\14.10.25017\include\xmemory
; File c:\program files (x86)\microsoft visual studio\2017\community\vc\tools\msvc\14.10.25017\include\xutility
; File c:\program files (x86)\microsoft visual studio\2017\community\vc\tools\msvc\14.10.25017\include\xmemory
;	COMDAT ??$_Uninitialized_move_al_unchecked@PAViParameter@sk@@PAV12@V?$allocator@PAViParameter@sk@@@std@@@std@@YAPAPAViParameter@sk@@PAPAV12@00AAU?$_Wrap_alloc@V?$allocator@PAViParameter@sk@@@std@@@0@U_Really_trivial_ptr_iterator_tag@0@U?$integral_constant@_N$00@0@@Z
_TEXT	SEGMENT
__First$ = 8						; size = 4
__Last$ = 12						; size = 4
__Dest$ = 16						; size = 4
___formal$ = 20						; size = 4
___formal$ = 24						; size = 1
___formal$ = 28						; size = 1
??$_Uninitialized_move_al_unchecked@PAViParameter@sk@@PAV12@V?$allocator@PAViParameter@sk@@@std@@@std@@YAPAPAViParameter@sk@@PAPAV12@00AAU?$_Wrap_alloc@V?$allocator@PAViParameter@sk@@@std@@@0@U_Really_trivial_ptr_iterator_tag@0@U?$integral_constant@_N$00@0@@Z PROC ; std::_Uninitialized_move_al_unchecked<sk::iParameter *,sk::iParameter *,std::allocator<sk::iParameter *> >, COMDAT

; 157  : 	{	// move [_First, _Last) to raw _Dest, using default _Alloc construct, memmove optimization

	npad	2
	push	ebp
	mov	ebp, esp
; File c:\program files (x86)\microsoft visual studio\2017\community\vc\tools\msvc\14.10.25017\include\xutility

; 2299 : 	const size_t _Count = _Last_ch - _First_ch;

	mov	eax, DWORD PTR __First$[ebp]
	push	esi

; 2300 : 	_CSTD memmove(_Dest_ch, _First_ch, _Count);

	mov	esi, DWORD PTR __Dest$[ebp]
	push	edi

; 2299 : 	const size_t _Count = _Last_ch - _First_ch;

	mov	edi, DWORD PTR __Last$[ebp]
	sub	edi, eax

; 2300 : 	_CSTD memmove(_Dest_ch, _First_ch, _Count);

	push	edi
	push	eax
	push	esi
	call	DWORD PTR __imp__memmove
	add	esp, 12					; 0000000cH

; 2301 : 	return (reinterpret_cast<_OutIt>(_Dest_ch + _Count));

	lea	eax, DWORD PTR [edi+esi]
	pop	edi
	pop	esi
; File c:\program files (x86)\microsoft visual studio\2017\community\vc\tools\msvc\14.10.25017\include\xmemory

; 159  : 	}

	pop	ebp
	ret	0
??$_Uninitialized_move_al_unchecked@PAViParameter@sk@@PAV12@V?$allocator@PAViParameter@sk@@@std@@@std@@YAPAPAViParameter@sk@@PAPAV12@00AAU?$_Wrap_alloc@V?$allocator@PAViParameter@sk@@@std@@@0@U_Really_trivial_ptr_iterator_tag@0@U?$integral_constant@_N$00@0@@Z ENDP ; std::_Uninitialized_move_al_unchecked<sk::iParameter *,sk::iParameter *,std::allocator<sk::iParameter *> >
_TEXT	ENDS
; Function compile flags: /Ogtp
; File c:\program files (x86)\microsoft visual studio\2017\community\vc\tools\msvc\14.10.25017\include\xutility
;	COMDAT ??$_Ptr_move_cat@PAViParameter@sk@@PAV12@@std@@YA?AU_Really_trivial_ptr_iterator_tag@0@ABQAPAViParameter@sk@@0@Z
_TEXT	SEGMENT
___$ReturnUdt$ = 8					; size = 4
___formal$ = 12						; size = 4
___formal$ = 16						; size = 4
??$_Ptr_move_cat@PAViParameter@sk@@PAV12@@std@@YA?AU_Really_trivial_ptr_iterator_tag@0@ABQAPAViParameter@sk@@0@Z PROC ; std::_Ptr_move_cat<sk::iParameter *,sk::iParameter *>, COMDAT

; 892  : 	{	// return pointer move optimization category for pointers

	npad	2
	push	ebp
	mov	ebp, esp

; 893  : 	return {};

	mov	eax, DWORD PTR ___$ReturnUdt$[ebp]

; 894  : 	}

	pop	ebp
	ret	0
??$_Ptr_move_cat@PAViParameter@sk@@PAV12@@std@@YA?AU_Really_trivial_ptr_iterator_tag@0@ABQAPAViParameter@sk@@0@Z ENDP ; std::_Ptr_move_cat<sk::iParameter *,sk::iParameter *>
_TEXT	ENDS
; Function compile flags: /Ogtp
; File c:\program files (x86)\microsoft visual studio\2017\community\vc\tools\msvc\14.10.25017\include\xutility
;	COMDAT ??$_Unchecked@PAPAViParameter@sk@@@std@@YAPAPAViParameter@sk@@PAPAV12@@Z
_TEXT	SEGMENT
__Src$ = 8						; size = 4
??$_Unchecked@PAPAViParameter@sk@@@std@@YAPAPAViParameter@sk@@PAPAV12@@Z PROC ; std::_Unchecked<sk::iParameter * *>, COMDAT

; 450  : 	{	// construct unchecked from checked, generic

	npad	2
	push	ebp
	mov	ebp, esp

; 451  : 	return (_Src);

	mov	eax, DWORD PTR __Src$[ebp]

; 452  : 	}

	pop	ebp
	ret	0
??$_Unchecked@PAPAViParameter@sk@@@std@@YAPAPAViParameter@sk@@PAPAV12@@Z ENDP ; std::_Unchecked<sk::iParameter * *>
_TEXT	ENDS
; Function compile flags: /Ogtp
; File c:\program files (x86)\microsoft visual studio\2017\community\vc\tools\msvc\14.10.25017\include\xmemory0
;	COMDAT ??$_Destroy_range1@V?$allocator@PAViParameter@sk@@@std@@PAPAViParameter@sk@@@std@@YAXPAPAViParameter@sk@@0AAU?$_Wrap_alloc@V?$allocator@PAViParameter@sk@@@std@@@0@U?$integral_constant@_N$00@0@@Z
_TEXT	SEGMENT
___formal$ = 8						; size = 4
___formal$ = 12						; size = 4
___formal$ = 16						; size = 4
___formal$ = 20						; size = 1
??$_Destroy_range1@V?$allocator@PAViParameter@sk@@@std@@PAPAViParameter@sk@@@std@@YAXPAPAViParameter@sk@@0AAU?$_Wrap_alloc@V?$allocator@PAViParameter@sk@@@std@@@0@U?$integral_constant@_N$00@0@@Z PROC ; std::_Destroy_range1<std::allocator<sk::iParameter *>,sk::iParameter * *>, COMDAT

; 1208 : 		// nothing to do
; 1209 : 	}

	ret	0
??$_Destroy_range1@V?$allocator@PAViParameter@sk@@@std@@PAPAViParameter@sk@@@std@@YAXPAPAViParameter@sk@@0AAU?$_Wrap_alloc@V?$allocator@PAViParameter@sk@@@std@@@0@U?$integral_constant@_N$00@0@@Z ENDP ; std::_Destroy_range1<std::allocator<sk::iParameter *>,sk::iParameter * *>
_TEXT	ENDS
; Function compile flags: /Ogtp
; File c:\program files (x86)\microsoft visual studio\2017\community\vc\tools\msvc\14.10.25017\include\xmemory0
;	COMDAT ??$construct@PA_WAAPA_W@?$allocator@_W@std@@QAEXPAPA_WAAPA_W@Z
_TEXT	SEGMENT
__Ptr$ = 8						; size = 4
_<_Args_0>$ = 12					; size = 4
??$construct@PA_WAAPA_W@?$allocator@_W@std@@QAEXPAPA_WAAPA_W@Z PROC ; std::allocator<wchar_t>::construct<wchar_t *,wchar_t * &>, COMDAT
; _this$ = ecx

; 839  : 		{	// construct _Objty(_Types...) at _Ptr

	npad	2
	push	ebp
	mov	ebp, esp

; 840  : 		::new ((void *)_Ptr) _Objty(_STD forward<_Types>(_Args)...);

	mov	ecx, DWORD PTR __Ptr$[ebp]
	test	ecx, ecx
	je	SHORT $LN3@construct
	mov	eax, DWORD PTR _<_Args_0>$[ebp]
	mov	eax, DWORD PTR [eax]
	mov	DWORD PTR [ecx], eax
$LN3@construct:

; 841  : 		}

	pop	ebp
	ret	8
??$construct@PA_WAAPA_W@?$allocator@_W@std@@QAEXPAPA_WAAPA_W@Z ENDP ; std::allocator<wchar_t>::construct<wchar_t *,wchar_t * &>
_TEXT	ENDS
; Function compile flags: /Ogtp
; File c:\program files (x86)\microsoft visual studio\2017\community\vc\tools\msvc\14.10.25017\include\xmemory0
;	COMDAT ??$destroy@PA_W@?$allocator@_W@std@@QAEXPAPA_W@Z
_TEXT	SEGMENT
__Ptr$ = 8						; size = 4
??$destroy@PA_W@?$allocator@_W@std@@QAEXPAPA_W@Z PROC	; std::allocator<wchar_t>::destroy<wchar_t *>, COMDAT
; _this$ = ecx

; 846  : 		_Ptr->~_Uty();
; 847  : 		}

	ret	4
??$destroy@PA_W@?$allocator@_W@std@@QAEXPAPA_W@Z ENDP	; std::allocator<wchar_t>::destroy<wchar_t *>
_TEXT	ENDS
; Function compile flags: /Ogtp
; File c:\program files (x86)\microsoft visual studio\2017\community\vc\tools\msvc\14.10.25017\include\xmemory0
;	COMDAT ??$destroy@PAViParameter@sk@@@?$allocator_traits@V?$allocator@PAViParameter@sk@@@std@@@std@@SAXAAV?$allocator@PAViParameter@sk@@@1@PAPAViParameter@sk@@@Z
_TEXT	SEGMENT
__Al$ = 8						; size = 4
__Ptr$ = 12						; size = 4
??$destroy@PAViParameter@sk@@@?$allocator_traits@V?$allocator@PAViParameter@sk@@@std@@@std@@SAXAAV?$allocator@PAViParameter@sk@@@1@PAPAViParameter@sk@@@Z PROC ; std::allocator_traits<std::allocator<sk::iParameter *> >::destroy<sk::iParameter *>, COMDAT

; 965  : 		_Al.destroy(_Ptr);
; 966  : 		}

	ret	0
??$destroy@PAViParameter@sk@@@?$allocator_traits@V?$allocator@PAViParameter@sk@@@std@@@std@@SAXAAV?$allocator@PAViParameter@sk@@@1@PAPAViParameter@sk@@@Z ENDP ; std::allocator_traits<std::allocator<sk::iParameter *> >::destroy<sk::iParameter *>
_TEXT	ENDS
; Function compile flags: /Ogtp
; File c:\program files (x86)\microsoft visual studio\2017\community\vc\tools\msvc\14.10.25017\include\xmemory0
;	COMDAT ??$construct@PAViParameter@sk@@ABQAV12@@?$allocator_traits@V?$allocator@PAViParameter@sk@@@std@@@std@@SAXAAV?$allocator@PAViParameter@sk@@@1@PAPAViParameter@sk@@ABQAV34@@Z
_TEXT	SEGMENT
__Al$ = 8						; size = 4
__Ptr$ = 12						; size = 4
_<_Args_0>$ = 16					; size = 4
??$construct@PAViParameter@sk@@ABQAV12@@?$allocator_traits@V?$allocator@PAViParameter@sk@@@std@@@std@@SAXAAV?$allocator@PAViParameter@sk@@@1@PAPAViParameter@sk@@ABQAV34@@Z PROC ; std::allocator_traits<std::allocator<sk::iParameter *> >::construct<sk::iParameter *,sk::iParameter * const &>, COMDAT

; 958  : 		{	// construct _Objty(_Types...) at _Ptr

	npad	2
	push	ebp
	mov	ebp, esp

; 840  : 		::new ((void *)_Ptr) _Objty(_STD forward<_Types>(_Args)...);

	mov	ecx, DWORD PTR __Ptr$[ebp]
	test	ecx, ecx
	je	SHORT $LN8@construct
	mov	eax, DWORD PTR _<_Args_0>$[ebp]
	mov	eax, DWORD PTR [eax]
	mov	DWORD PTR [ecx], eax
$LN8@construct:

; 959  : 		_Al.construct(_Ptr, _STD forward<_Types>(_Args)...);
; 960  : 		}

	pop	ebp
	ret	0
??$construct@PAViParameter@sk@@ABQAV12@@?$allocator_traits@V?$allocator@PAViParameter@sk@@@std@@@std@@SAXAAV?$allocator@PAViParameter@sk@@@1@PAPAViParameter@sk@@ABQAV34@@Z ENDP ; std::allocator_traits<std::allocator<sk::iParameter *> >::construct<sk::iParameter *,sk::iParameter * const &>
_TEXT	ENDS
; Function compile flags: /Ogtp
; File c:\program files (x86)\microsoft visual studio\2017\community\vc\tools\msvc\14.10.25017\include\xmemory
; File c:\program files (x86)\microsoft visual studio\2017\community\vc\tools\msvc\14.10.25017\include\xutility
; File c:\program files (x86)\microsoft visual studio\2017\community\vc\tools\msvc\14.10.25017\include\xmemory
;	COMDAT ??$_Uninitialized_move@PAPAViParameter@sk@@PAPAV12@V?$allocator@PAViParameter@sk@@@std@@@std@@YAPAPAViParameter@sk@@PAPAV12@00AAU?$_Wrap_alloc@V?$allocator@PAViParameter@sk@@@std@@@0@@Z
_TEXT	SEGMENT
__First$ = 8						; size = 4
__Last$ = 12						; size = 4
__Dest$ = 16						; size = 4
__Al$ = 20						; size = 4
??$_Uninitialized_move@PAPAViParameter@sk@@PAPAV12@V?$allocator@PAViParameter@sk@@@std@@@std@@YAPAPAViParameter@sk@@PAPAV12@00AAU?$_Wrap_alloc@V?$allocator@PAViParameter@sk@@@std@@@0@@Z PROC ; std::_Uninitialized_move<sk::iParameter * *,sk::iParameter * *,std::allocator<sk::iParameter *> >, COMDAT

; 166  : 	{	// move [_First, _Last) to raw _Dest, using _Al

	npad	2
	push	ebp
	mov	ebp, esp
; File c:\program files (x86)\microsoft visual studio\2017\community\vc\tools\msvc\14.10.25017\include\xutility

; 2299 : 	const size_t _Count = _Last_ch - _First_ch;

	mov	eax, DWORD PTR __First$[ebp]
	push	esi

; 2300 : 	_CSTD memmove(_Dest_ch, _First_ch, _Count);

	mov	esi, DWORD PTR __Dest$[ebp]
	push	edi

; 2299 : 	const size_t _Count = _Last_ch - _First_ch;

	mov	edi, DWORD PTR __Last$[ebp]
	sub	edi, eax

; 2300 : 	_CSTD memmove(_Dest_ch, _First_ch, _Count);

	push	edi
	push	eax
	push	esi
	call	DWORD PTR __imp__memmove
	add	esp, 12					; 0000000cH

; 2301 : 	return (reinterpret_cast<_OutIt>(_Dest_ch + _Count));

	lea	eax, DWORD PTR [edi+esi]
	pop	edi
	pop	esi
; File c:\program files (x86)\microsoft visual studio\2017\community\vc\tools\msvc\14.10.25017\include\xmemory

; 176  : 	}

	pop	ebp
	ret	0
??$_Uninitialized_move@PAPAViParameter@sk@@PAPAV12@V?$allocator@PAViParameter@sk@@@std@@@std@@YAPAPAViParameter@sk@@PAPAV12@00AAU?$_Wrap_alloc@V?$allocator@PAViParameter@sk@@@std@@@0@@Z ENDP ; std::_Uninitialized_move<sk::iParameter * *,sk::iParameter * *,std::allocator<sk::iParameter *> >
_TEXT	ENDS
; Function compile flags: /Ogtp
; File c:\program files (x86)\microsoft visual studio\2017\community\vc\tools\msvc\14.10.25017\include\xmemory0
;	COMDAT ??$_Destroy_range@V?$allocator@PAViParameter@sk@@@std@@PAPAViParameter@sk@@@std@@YAXPAPAViParameter@sk@@0AAU?$_Wrap_alloc@V?$allocator@PAViParameter@sk@@@std@@@0@@Z
_TEXT	SEGMENT
__First$ = 8						; size = 4
__Last$ = 12						; size = 4
__Al$ = 16						; size = 4
??$_Destroy_range@V?$allocator@PAViParameter@sk@@@std@@PAPAViParameter@sk@@@std@@YAXPAPAViParameter@sk@@0AAU?$_Wrap_alloc@V?$allocator@PAViParameter@sk@@@std@@@0@@Z PROC ; std::_Destroy_range<std::allocator<sk::iParameter *>,sk::iParameter * *>, COMDAT

; 1215 : 		// note that this is an optimization for debug mode codegen;
; 1216 : 		// in release mode the BE removes all of this
; 1217 : 	typedef typename _Alloc::value_type _Val;
; 1218 : 	_Destroy_range1(_First, _Last, _Al, _Conjunction_t<
; 1219 : 		is_trivially_destructible<_Val>,
; 1220 : 		_Uses_default_destroy<_Alloc, _Val *>>());
; 1221 : 	}

	ret	0
??$_Destroy_range@V?$allocator@PAViParameter@sk@@@std@@PAPAViParameter@sk@@@std@@YAXPAPAViParameter@sk@@0AAU?$_Wrap_alloc@V?$allocator@PAViParameter@sk@@@std@@@0@@Z ENDP ; std::_Destroy_range<std::allocator<sk::iParameter *>,sk::iParameter * *>
_TEXT	ENDS
; Function compile flags: /Ogtp
; File c:\program files (x86)\microsoft visual studio\2017\community\vc\tools\msvc\14.10.25017\include\type_traits
;	COMDAT ??$move@AAU?$_Wrap_alloc@V?$allocator@_W@std@@@std@@@std@@YA$$QAU?$_Wrap_alloc@V?$allocator@_W@std@@@0@AAU10@@Z
_TEXT	SEGMENT
__Arg$ = 8						; size = 4
??$move@AAU?$_Wrap_alloc@V?$allocator@_W@std@@@std@@@std@@YA$$QAU?$_Wrap_alloc@V?$allocator@_W@std@@@0@AAU10@@Z PROC ; std::move<std::_Wrap_alloc<std::allocator<wchar_t> > &>, COMDAT

; 1350 : 	{	// forward _Arg as movable

	npad	2
	push	ebp
	mov	ebp, esp

; 1351 : 	return (static_cast<typename remove_reference<_Ty>::type&&>(_Arg));

	mov	eax, DWORD PTR __Arg$[ebp]

; 1352 : 	}

	pop	ebp
	ret	0
??$move@AAU?$_Wrap_alloc@V?$allocator@_W@std@@@std@@@std@@YA$$QAU?$_Wrap_alloc@V?$allocator@_W@std@@@0@AAU10@@Z ENDP ; std::move<std::_Wrap_alloc<std::allocator<wchar_t> > &>
_TEXT	ENDS
; Function compile flags: /Ogtp
; File c:\program files (x86)\microsoft visual studio\2017\community\vc\tools\msvc\14.10.25017\include\xmemory0
;	COMDAT ??$construct@PA_WAAPA_W@?$allocator_traits@V?$allocator@_W@std@@@std@@SAXAAV?$allocator@_W@1@PAPA_WAAPA_W@Z
_TEXT	SEGMENT
__Al$ = 8						; size = 4
__Ptr$ = 12						; size = 4
_<_Args_0>$ = 16					; size = 4
??$construct@PA_WAAPA_W@?$allocator_traits@V?$allocator@_W@std@@@std@@SAXAAV?$allocator@_W@1@PAPA_WAAPA_W@Z PROC ; std::allocator_traits<std::allocator<wchar_t> >::construct<wchar_t *,wchar_t * &>, COMDAT

; 958  : 		{	// construct _Objty(_Types...) at _Ptr

	npad	2
	push	ebp
	mov	ebp, esp

; 840  : 		::new ((void *)_Ptr) _Objty(_STD forward<_Types>(_Args)...);

	mov	ecx, DWORD PTR __Ptr$[ebp]
	test	ecx, ecx
	je	SHORT $LN8@construct
	mov	eax, DWORD PTR _<_Args_0>$[ebp]
	mov	eax, DWORD PTR [eax]
	mov	DWORD PTR [ecx], eax
$LN8@construct:

; 959  : 		_Al.construct(_Ptr, _STD forward<_Types>(_Args)...);
; 960  : 		}

	pop	ebp
	ret	0
??$construct@PA_WAAPA_W@?$allocator_traits@V?$allocator@_W@std@@@std@@SAXAAV?$allocator@_W@1@PAPA_WAAPA_W@Z ENDP ; std::allocator_traits<std::allocator<wchar_t> >::construct<wchar_t *,wchar_t * &>
_TEXT	ENDS
; Function compile flags: /Ogtp
; File c:\program files (x86)\microsoft visual studio\2017\community\vc\tools\msvc\14.10.25017\include\type_traits
;	COMDAT ??$forward@AAPA_W@std@@YAAAPA_WAAPA_W@Z
_TEXT	SEGMENT
__Arg$ = 8						; size = 4
??$forward@AAPA_W@std@@YAAAPA_WAAPA_W@Z PROC		; std::forward<wchar_t * &>, COMDAT

; 1334 : 	{	// forward an lvalue as either an lvalue or an rvalue

	npad	2
	push	ebp
	mov	ebp, esp

; 1335 : 	return (static_cast<_Ty&&>(_Arg));

	mov	eax, DWORD PTR __Arg$[ebp]

; 1336 : 	}

	pop	ebp
	ret	0
??$forward@AAPA_W@std@@YAAAPA_WAAPA_W@Z ENDP		; std::forward<wchar_t * &>
_TEXT	ENDS
; Function compile flags: /Ogtp
; File c:\program files (x86)\microsoft visual studio\2017\community\vc\tools\msvc\14.10.25017\include\xmemory0
;	COMDAT ??$destroy@PA_W@?$allocator_traits@V?$allocator@_W@std@@@std@@SAXAAV?$allocator@_W@1@PAPA_W@Z
_TEXT	SEGMENT
__Al$ = 8						; size = 4
__Ptr$ = 12						; size = 4
??$destroy@PA_W@?$allocator_traits@V?$allocator@_W@std@@@std@@SAXAAV?$allocator@_W@1@PAPA_W@Z PROC ; std::allocator_traits<std::allocator<wchar_t> >::destroy<wchar_t *>, COMDAT

; 965  : 		_Al.destroy(_Ptr);
; 966  : 		}

	ret	0
??$destroy@PA_W@?$allocator_traits@V?$allocator@_W@std@@@std@@SAXAAV?$allocator@_W@1@PAPA_W@Z ENDP ; std::allocator_traits<std::allocator<wchar_t> >::destroy<wchar_t *>
_TEXT	ENDS
; Function compile flags: /Ogtp
; File c:\program files (x86)\microsoft visual studio\2017\community\vc\tools\msvc\14.10.25017\include\xmemory0
;	COMDAT ??$_Pocca@U?$_Wrap_alloc@V?$allocator@_W@std@@@std@@@std@@YAXAAU?$_Wrap_alloc@V?$allocator@_W@std@@@0@ABU10@U?$integral_constant@_N$0A@@0@@Z
_TEXT	SEGMENT
___formal$ = 8						; size = 4
___formal$ = 12						; size = 4
___formal$ = 16						; size = 1
??$_Pocca@U?$_Wrap_alloc@V?$allocator@_W@std@@@std@@@std@@YAXAAU?$_Wrap_alloc@V?$allocator@_W@std@@@0@ABU10@U?$integral_constant@_N$0A@@0@@Z PROC ; std::_Pocca<std::_Wrap_alloc<std::allocator<wchar_t> > >, COMDAT

; 1139 : 	}

	ret	0
??$_Pocca@U?$_Wrap_alloc@V?$allocator@_W@std@@@std@@@std@@YAXAAU?$_Wrap_alloc@V?$allocator@_W@std@@@0@ABU10@U?$integral_constant@_N$0A@@0@@Z ENDP ; std::_Pocca<std::_Wrap_alloc<std::allocator<wchar_t> > >
_TEXT	ENDS
; Function compile flags: /Ogtp
; File c:\program files (x86)\microsoft visual studio\2017\community\vc\tools\msvc\14.10.25017\include\xmemory0
;	COMDAT ??$_Pocma@U?$_Wrap_alloc@V?$allocator@_W@std@@@std@@@std@@YAXAAU?$_Wrap_alloc@V?$allocator@_W@std@@@0@0U?$integral_constant@_N$00@0@@Z
_TEXT	SEGMENT
__Left$ = 8						; size = 4
__Right$ = 12						; size = 4
___formal$ = 16						; size = 1
??$_Pocma@U?$_Wrap_alloc@V?$allocator@_W@std@@@std@@@std@@YAXAAU?$_Wrap_alloc@V?$allocator@_W@std@@@0@0U?$integral_constant@_N$00@0@@Z PROC ; std::_Pocma<std::_Wrap_alloc<std::allocator<wchar_t> > >, COMDAT

; 1152 : 	_Left = _STD move(_Right);
; 1153 : 	}

	ret	0
??$_Pocma@U?$_Wrap_alloc@V?$allocator@_W@std@@@std@@@std@@YAXAAU?$_Wrap_alloc@V?$allocator@_W@std@@@0@0U?$integral_constant@_N$00@0@@Z ENDP ; std::_Pocma<std::_Wrap_alloc<std::allocator<wchar_t> > >
_TEXT	ENDS
; Function compile flags: /Ogtp
; File c:\program files (x86)\microsoft visual studio\2017\community\vc\tools\msvc\14.10.25017\include\type_traits
;	COMDAT ??$forward@V?$allocator@_W@std@@@std@@YA$$QAV?$allocator@_W@0@AAV10@@Z
_TEXT	SEGMENT
__Arg$ = 8						; size = 4
??$forward@V?$allocator@_W@std@@@std@@YA$$QAV?$allocator@_W@0@AAV10@@Z PROC ; std::forward<std::allocator<wchar_t> >, COMDAT

; 1334 : 	{	// forward an lvalue as either an lvalue or an rvalue

	npad	2
	push	ebp
	mov	ebp, esp

; 1335 : 	return (static_cast<_Ty&&>(_Arg));

	mov	eax, DWORD PTR __Arg$[ebp]

; 1336 : 	}

	pop	ebp
	ret	0
??$forward@V?$allocator@_W@std@@@std@@YA$$QAV?$allocator@_W@0@AAV10@@Z ENDP ; std::forward<std::allocator<wchar_t> >
_TEXT	ENDS
; Function compile flags: /Ogtp
; File c:\program files (x86)\microsoft visual studio\2017\community\vc\tools\msvc\14.10.25017\include\xutility
; File c:\program files (x86)\microsoft visual studio\2017\community\vc\tools\msvc\14.10.25017\include\xstring
; File c:\program files (x86)\microsoft visual studio\2017\community\vc\tools\msvc\14.10.25017\include\xutility
; File c:\program files (x86)\microsoft visual studio\2017\community\vc\tools\msvc\14.10.25017\include\xstring
; File c:\program files (x86)\microsoft visual studio\2017\community\vc\tools\msvc\14.10.25017\include\xutility
;	COMDAT ??$?0U?$_Wrap_alloc@V?$allocator@_W@std@@@std@@$$V@?$_Compressed_pair@U?$_Wrap_alloc@V?$allocator@_W@std@@@std@@V?$_String_val@U?$_Simple_types@_W@std@@@2@$00@std@@QAE@U_One_then_variadic_args_t@1@$$QAU?$_Wrap_alloc@V?$allocator@_W@std@@@1@@Z
_TEXT	SEGMENT
___formal$ = 8						; size = 1
__Val1$ = 12						; size = 4
??$?0U?$_Wrap_alloc@V?$allocator@_W@std@@@std@@$$V@?$_Compressed_pair@U?$_Wrap_alloc@V?$allocator@_W@std@@@std@@V?$_String_val@U?$_Simple_types@_W@std@@@2@$00@std@@QAE@U_One_then_variadic_args_t@1@$$QAU?$_Wrap_alloc@V?$allocator@_W@std@@@1@@Z PROC ; std::_Compressed_pair<std::_Wrap_alloc<std::allocator<wchar_t> >,std::_String_val<std::_Simple_types<wchar_t> >,1>::_Compressed_pair<std::_Wrap_alloc<std::allocator<wchar_t> >,std::_String_val<std::_Simple_types<wchar_t> >,1><std::_Wrap_alloc<std::allocator<wchar_t> > >, COMDAT
; _this$ = ecx
; File c:\program files (x86)\microsoft visual studio\2017\community\vc\tools\msvc\14.10.25017\include\xstring

; 1595 : 		_Mysize(0),

	mov	DWORD PTR [ecx+16], 0
; File c:\program files (x86)\microsoft visual studio\2017\community\vc\tools\msvc\14.10.25017\include\xutility

; 313  : 		}

	mov	eax, ecx
; File c:\program files (x86)\microsoft visual studio\2017\community\vc\tools\msvc\14.10.25017\include\xstring

; 1596 : 		_Myres(0)

	mov	DWORD PTR [ecx+20], 0
; File c:\program files (x86)\microsoft visual studio\2017\community\vc\tools\msvc\14.10.25017\include\xutility

; 313  : 		}

	ret	8
??$?0U?$_Wrap_alloc@V?$allocator@_W@std@@@std@@$$V@?$_Compressed_pair@U?$_Wrap_alloc@V?$allocator@_W@std@@@std@@V?$_String_val@U?$_Simple_types@_W@std@@@2@$00@std@@QAE@U_One_then_variadic_args_t@1@$$QAU?$_Wrap_alloc@V?$allocator@_W@std@@@1@@Z ENDP ; std::_Compressed_pair<std::_Wrap_alloc<std::allocator<wchar_t> >,std::_String_val<std::_Simple_types<wchar_t> >,1>::_Compressed_pair<std::_Wrap_alloc<std::allocator<wchar_t> >,std::_String_val<std::_Simple_types<wchar_t> >,1><std::_Wrap_alloc<std::allocator<wchar_t> > >
_TEXT	ENDS
; Function compile flags: /Ogtp
; File c:\program files (x86)\microsoft visual studio\2017\community\vc\tools\msvc\14.10.25017\include\type_traits
;	COMDAT ??$forward@U?$_Wrap_alloc@V?$allocator@_W@std@@@std@@@std@@YA$$QAU?$_Wrap_alloc@V?$allocator@_W@std@@@0@AAU10@@Z
_TEXT	SEGMENT
__Arg$ = 8						; size = 4
??$forward@U?$_Wrap_alloc@V?$allocator@_W@std@@@std@@@std@@YA$$QAU?$_Wrap_alloc@V?$allocator@_W@std@@@0@AAU10@@Z PROC ; std::forward<std::_Wrap_alloc<std::allocator<wchar_t> > >, COMDAT

; 1334 : 	{	// forward an lvalue as either an lvalue or an rvalue

	npad	2
	push	ebp
	mov	ebp, esp

; 1335 : 	return (static_cast<_Ty&&>(_Arg));

	mov	eax, DWORD PTR __Arg$[ebp]

; 1336 : 	}

	pop	ebp
	ret	0
??$forward@U?$_Wrap_alloc@V?$allocator@_W@std@@@std@@@std@@YA$$QAU?$_Wrap_alloc@V?$allocator@_W@std@@@0@AAU10@@Z ENDP ; std::forward<std::_Wrap_alloc<std::allocator<wchar_t> > >
_TEXT	ENDS
; Function compile flags: /Ogtp
; File c:\program files (x86)\microsoft visual studio\2017\community\vc\tools\msvc\14.10.25017\include\xmemory0
;	COMDAT ??$destroy@PAViParameter@sk@@@?$_Wrap_alloc@V?$allocator@PAViParameter@sk@@@std@@@std@@QAEXPAPAViParameter@sk@@@Z
_TEXT	SEGMENT
__Ptr$ = 8						; size = 4
??$destroy@PAViParameter@sk@@@?$_Wrap_alloc@V?$allocator@PAViParameter@sk@@@std@@@std@@QAEXPAPAViParameter@sk@@@Z PROC ; std::_Wrap_alloc<std::allocator<sk::iParameter *> >::destroy<sk::iParameter *>, COMDAT
; _this$ = ecx

; 1103 : 		_Mytraits::destroy(*this, _Ptr);
; 1104 : 		}

	ret	4
??$destroy@PAViParameter@sk@@@?$_Wrap_alloc@V?$allocator@PAViParameter@sk@@@std@@@std@@QAEXPAPAViParameter@sk@@@Z ENDP ; std::_Wrap_alloc<std::allocator<sk::iParameter *> >::destroy<sk::iParameter *>
_TEXT	ENDS
; Function compile flags: /Ogtp
; File c:\program files (x86)\microsoft visual studio\2017\community\vc\tools\msvc\14.10.25017\include\xmemory0
;	COMDAT ??$construct@PAViParameter@sk@@ABQAV12@@?$_Wrap_alloc@V?$allocator@PAViParameter@sk@@@std@@@std@@QAEXPAPAViParameter@sk@@ABQAV23@@Z
_TEXT	SEGMENT
__Ptr$ = 8						; size = 4
_<_Args_0>$ = 12					; size = 4
??$construct@PAViParameter@sk@@ABQAV12@@?$_Wrap_alloc@V?$allocator@PAViParameter@sk@@@std@@@std@@QAEXPAPAViParameter@sk@@ABQAV23@@Z PROC ; std::_Wrap_alloc<std::allocator<sk::iParameter *> >::construct<sk::iParameter *,sk::iParameter * const &>, COMDAT
; _this$ = ecx

; 1095 : 		{	// construct _Ty(_Types...) at _Ptr

	npad	2
	push	ebp
	mov	ebp, esp

; 840  : 		::new ((void *)_Ptr) _Objty(_STD forward<_Types>(_Args)...);

	mov	ecx, DWORD PTR __Ptr$[ebp]
	test	ecx, ecx
	je	SHORT $LN13@construct
	mov	eax, DWORD PTR _<_Args_0>$[ebp]
	mov	eax, DWORD PTR [eax]
	mov	DWORD PTR [ecx], eax
$LN13@construct:

; 1096 : 		_Mytraits::construct(*this, _Ptr,
; 1097 : 			_STD forward<_Types>(_Args)...);
; 1098 : 		}

	pop	ebp
	ret	8
??$construct@PAViParameter@sk@@ABQAV12@@?$_Wrap_alloc@V?$allocator@PAViParameter@sk@@@std@@@std@@QAEXPAPAViParameter@sk@@ABQAV23@@Z ENDP ; std::_Wrap_alloc<std::allocator<sk::iParameter *> >::construct<sk::iParameter *,sk::iParameter * const &>
_TEXT	ENDS
; Function compile flags: /Ogtp
; File c:\program files (x86)\microsoft visual studio\2017\community\vc\tools\msvc\14.10.25017\include\xstddef
;	COMDAT ??$_Unfancy@PAViParameter@sk@@@std@@YAPAPAViParameter@sk@@PAPAV12@@Z
_TEXT	SEGMENT
__Ptr$ = 8						; size = 4
??$_Unfancy@PAViParameter@sk@@@std@@YAPAPAViParameter@sk@@PAPAV12@@Z PROC ; std::_Unfancy<sk::iParameter *>, COMDAT

; 642  : 	{	// do nothing for plain pointers

	npad	2
	push	ebp
	mov	ebp, esp

; 643  : 	return (_Ptr);

	mov	eax, DWORD PTR __Ptr$[ebp]

; 644  : 	}

	pop	ebp
	ret	0
??$_Unfancy@PAViParameter@sk@@@std@@YAPAPAViParameter@sk@@PAPAV12@@Z ENDP ; std::_Unfancy<sk::iParameter *>
_TEXT	ENDS
; Function compile flags: /Ogtp
; File c:\program files (x86)\microsoft visual studio\2017\community\vc\tools\msvc\14.10.25017\include\vector
; File c:\program files (x86)\microsoft visual studio\2017\community\vc\tools\msvc\14.10.25017\include\xmemory0
; File c:\program files (x86)\microsoft visual studio\2017\community\vc\tools\msvc\14.10.25017\include\vector
;	COMDAT ??$_Emplace_back_with_unused_capacity@ABQAViParameter@sk@@@?$vector@PAViParameter@sk@@V?$allocator@PAViParameter@sk@@@std@@@std@@AAEXABQAViParameter@sk@@@Z
_TEXT	SEGMENT
_<_Val_0>$ = 8						; size = 4
??$_Emplace_back_with_unused_capacity@ABQAViParameter@sk@@@?$vector@PAViParameter@sk@@V?$allocator@PAViParameter@sk@@@std@@@std@@AAEXABQAViParameter@sk@@@Z PROC ; std::vector<sk::iParameter *,std::allocator<sk::iParameter *> >::_Emplace_back_with_unused_capacity<sk::iParameter * const &>, COMDAT
; _this$ = ecx

; 898  : 		{	// insert by perfectly forwarding into element at end, provide strong guarantee

	npad	2
	push	ebp
	mov	ebp, esp
; File c:\program files (x86)\microsoft visual studio\2017\community\vc\tools\msvc\14.10.25017\include\xmemory0

; 840  : 		::new ((void *)_Ptr) _Objty(_STD forward<_Types>(_Args)...);

	mov	edx, DWORD PTR [ecx+4]
	test	edx, edx
	je	SHORT $LN71@Emplace_ba
	mov	eax, DWORD PTR _<_Val_0>$[ebp]
	mov	eax, DWORD PTR [eax]
	mov	DWORD PTR [edx], eax
$LN71@Emplace_ba:
; File c:\program files (x86)\microsoft visual studio\2017\community\vc\tools\msvc\14.10.25017\include\vector

; 902  : 		++this->_Mylast();

	add	DWORD PTR [ecx+4], 4

; 903  : 		}

	pop	ebp
	ret	4
??$_Emplace_back_with_unused_capacity@ABQAViParameter@sk@@@?$vector@PAViParameter@sk@@V?$allocator@PAViParameter@sk@@@std@@@std@@AAEXABQAViParameter@sk@@@Z ENDP ; std::vector<sk::iParameter *,std::allocator<sk::iParameter *> >::_Emplace_back_with_unused_capacity<sk::iParameter * const &>
_TEXT	ENDS
; Function compile flags: /Ogtp
; File c:\program files (x86)\microsoft visual studio\2017\community\vc\tools\msvc\14.10.25017\include\type_traits
;	COMDAT ??$forward@ABQAViParameter@sk@@@std@@YAABQAViParameter@sk@@ABQAV12@@Z
_TEXT	SEGMENT
__Arg$ = 8						; size = 4
??$forward@ABQAViParameter@sk@@@std@@YAABQAViParameter@sk@@ABQAV12@@Z PROC ; std::forward<sk::iParameter * const &>, COMDAT

; 1334 : 	{	// forward an lvalue as either an lvalue or an rvalue

	npad	2
	push	ebp
	mov	ebp, esp

; 1335 : 	return (static_cast<_Ty&&>(_Arg));

	mov	eax, DWORD PTR __Arg$[ebp]

; 1336 : 	}

	pop	ebp
	ret	0
??$forward@ABQAViParameter@sk@@@std@@YAABQAViParameter@sk@@ABQAV12@@Z ENDP ; std::forward<sk::iParameter * const &>
_TEXT	ENDS
; Function compile flags: /Ogtp
; File c:\program files (x86)\microsoft visual studio\2017\community\vc\tools\msvc\14.10.25017\include\xmemory0
;	COMDAT ??$construct@PA_WAAPA_W@?$_Wrap_alloc@V?$allocator@_W@std@@@std@@QAEXPAPA_WAAPA_W@Z
_TEXT	SEGMENT
__Ptr$ = 8						; size = 4
_<_Args_0>$ = 12					; size = 4
??$construct@PA_WAAPA_W@?$_Wrap_alloc@V?$allocator@_W@std@@@std@@QAEXPAPA_WAAPA_W@Z PROC ; std::_Wrap_alloc<std::allocator<wchar_t> >::construct<wchar_t *,wchar_t * &>, COMDAT
; _this$ = ecx

; 1095 : 		{	// construct _Ty(_Types...) at _Ptr

	npad	2
	push	ebp
	mov	ebp, esp

; 840  : 		::new ((void *)_Ptr) _Objty(_STD forward<_Types>(_Args)...);

	mov	ecx, DWORD PTR __Ptr$[ebp]
	test	ecx, ecx
	je	SHORT $LN13@construct
	mov	eax, DWORD PTR _<_Args_0>$[ebp]
	mov	eax, DWORD PTR [eax]
	mov	DWORD PTR [ecx], eax
$LN13@construct:

; 1096 : 		_Mytraits::construct(*this, _Ptr,
; 1097 : 			_STD forward<_Types>(_Args)...);
; 1098 : 		}

	pop	ebp
	ret	8
??$construct@PA_WAAPA_W@?$_Wrap_alloc@V?$allocator@_W@std@@@std@@QAEXPAPA_WAAPA_W@Z ENDP ; std::_Wrap_alloc<std::allocator<wchar_t> >::construct<wchar_t *,wchar_t * &>
_TEXT	ENDS
; Function compile flags: /Ogtp
; File c:\program files (x86)\microsoft visual studio\2017\community\vc\tools\msvc\14.10.25017\include\utility
;	COMDAT ??$_Min_value@I@std@@YAABIABI0@Z
_TEXT	SEGMENT
__Left$ = 8						; size = 4
__Right$ = 12						; size = 4
??$_Min_value@I@std@@YAABIABI0@Z PROC			; std::_Min_value<unsigned int>, COMDAT

; 22   : 	{	// return smaller of _Left and _Right

	npad	2
	push	ebp
	mov	ebp, esp

; 23   : 	return (_Right < _Left ? _Right : _Left);

	mov	edx, DWORD PTR __Right$[ebp]
	mov	eax, DWORD PTR __Left$[ebp]
	mov	ecx, DWORD PTR [edx]
	cmp	ecx, DWORD PTR [eax]
	cmovb	eax, edx

; 24   : 	}

	pop	ebp
	ret	0
??$_Min_value@I@std@@YAABIABI0@Z ENDP			; std::_Min_value<unsigned int>
_TEXT	ENDS
; Function compile flags: /Ogtp
; File c:\program files (x86)\microsoft visual studio\2017\community\vc\tools\msvc\14.10.25017\include\xstddef
;	COMDAT ??$addressof@V?$_String_val@U?$_Simple_types@_W@std@@@std@@@std@@YAPAV?$_String_val@U?$_Simple_types@_W@std@@@0@AAV10@@Z
_TEXT	SEGMENT
__Val$ = 8						; size = 4
??$addressof@V?$_String_val@U?$_Simple_types@_W@std@@@std@@@std@@YAPAV?$_String_val@U?$_Simple_types@_W@std@@@0@AAV10@@Z PROC ; std::addressof<std::_String_val<std::_Simple_types<wchar_t> > >, COMDAT

; 629  : 	{	// return address of _Val

	npad	2
	push	ebp
	mov	ebp, esp

; 630  : 	return (__builtin_addressof(_Val));

	mov	eax, DWORD PTR __Val$[ebp]

; 631  : 	}

	pop	ebp
	ret	0
??$addressof@V?$_String_val@U?$_Simple_types@_W@std@@@std@@@std@@YAPAV?$_String_val@U?$_Simple_types@_W@std@@@0@AAV10@@Z ENDP ; std::addressof<std::_String_val<std::_Simple_types<wchar_t> > >
_TEXT	ENDS
; Function compile flags: /Ogtp
; File c:\program files (x86)\microsoft visual studio\2017\community\vc\tools\msvc\14.10.25017\include\xstddef
;	COMDAT ??$_Unfancy@_W@std@@YAPA_WPA_W@Z
_TEXT	SEGMENT
__Ptr$ = 8						; size = 4
??$_Unfancy@_W@std@@YAPA_WPA_W@Z PROC			; std::_Unfancy<wchar_t>, COMDAT

; 642  : 	{	// do nothing for plain pointers

	npad	2
	push	ebp
	mov	ebp, esp

; 643  : 	return (_Ptr);

	mov	eax, DWORD PTR __Ptr$[ebp]

; 644  : 	}

	pop	ebp
	ret	0
??$_Unfancy@_W@std@@YAPA_WPA_W@Z ENDP			; std::_Unfancy<wchar_t>
_TEXT	ENDS
; Function compile flags: /Ogtp
; File c:\program files (x86)\microsoft visual studio\2017\community\vc\tools\msvc\14.10.25017\include\xmemory0
;	COMDAT ??$destroy@PA_W@?$_Wrap_alloc@V?$allocator@_W@std@@@std@@QAEXPAPA_W@Z
_TEXT	SEGMENT
__Ptr$ = 8						; size = 4
??$destroy@PA_W@?$_Wrap_alloc@V?$allocator@_W@std@@@std@@QAEXPAPA_W@Z PROC ; std::_Wrap_alloc<std::allocator<wchar_t> >::destroy<wchar_t *>, COMDAT
; _this$ = ecx

; 1103 : 		_Mytraits::destroy(*this, _Ptr);
; 1104 : 		}

	ret	4
??$destroy@PA_W@?$_Wrap_alloc@V?$allocator@_W@std@@@std@@QAEXPAPA_W@Z ENDP ; std::_Wrap_alloc<std::allocator<wchar_t> >::destroy<wchar_t *>
_TEXT	ENDS
; Function compile flags: /Ogtp
; File c:\program files (x86)\microsoft visual studio\2017\community\vc\tools\msvc\14.10.25017\include\xstddef
;	COMDAT ??$addressof@PA_W@std@@YAPAPA_WAAPA_W@Z
_TEXT	SEGMENT
__Val$ = 8						; size = 4
??$addressof@PA_W@std@@YAPAPA_WAAPA_W@Z PROC		; std::addressof<wchar_t *>, COMDAT

; 629  : 	{	// return address of _Val

	npad	2
	push	ebp
	mov	ebp, esp

; 630  : 	return (__builtin_addressof(_Val));

	mov	eax, DWORD PTR __Val$[ebp]

; 631  : 	}

	pop	ebp
	ret	0
??$addressof@PA_W@std@@YAPAPA_WAAPA_W@Z ENDP		; std::addressof<wchar_t *>
_TEXT	ENDS
; Function compile flags: /Ogtp
; File c:\program files (x86)\microsoft visual studio\2017\community\vc\tools\msvc\14.10.25017\include\xutility
; File c:\program files (x86)\microsoft visual studio\2017\community\vc\tools\msvc\14.10.25017\include\xstring
; File c:\program files (x86)\microsoft visual studio\2017\community\vc\tools\msvc\14.10.25017\include\xutility
; File c:\program files (x86)\microsoft visual studio\2017\community\vc\tools\msvc\14.10.25017\include\xstring
; File c:\program files (x86)\microsoft visual studio\2017\community\vc\tools\msvc\14.10.25017\include\xutility
;	COMDAT ??$?0$$V@?$_Compressed_pair@U?$_Wrap_alloc@V?$allocator@_W@std@@@std@@V?$_String_val@U?$_Simple_types@_W@std@@@2@$00@std@@QAE@U_Zero_then_variadic_args_t@1@@Z
_TEXT	SEGMENT
___formal$ = 8						; size = 1
??$?0$$V@?$_Compressed_pair@U?$_Wrap_alloc@V?$allocator@_W@std@@@std@@V?$_String_val@U?$_Simple_types@_W@std@@@2@$00@std@@QAE@U_Zero_then_variadic_args_t@1@@Z PROC ; std::_Compressed_pair<std::_Wrap_alloc<std::allocator<wchar_t> >,std::_String_val<std::_Simple_types<wchar_t> >,1>::_Compressed_pair<std::_Wrap_alloc<std::allocator<wchar_t> >,std::_String_val<std::_Simple_types<wchar_t> >,1><>, COMDAT
; _this$ = ecx
; File c:\program files (x86)\microsoft visual studio\2017\community\vc\tools\msvc\14.10.25017\include\xstring

; 1595 : 		_Mysize(0),

	mov	DWORD PTR [ecx+16], 0
; File c:\program files (x86)\microsoft visual studio\2017\community\vc\tools\msvc\14.10.25017\include\xutility

; 304  : 		}

	mov	eax, ecx
; File c:\program files (x86)\microsoft visual studio\2017\community\vc\tools\msvc\14.10.25017\include\xstring

; 1596 : 		_Myres(0)

	mov	DWORD PTR [ecx+20], 0
; File c:\program files (x86)\microsoft visual studio\2017\community\vc\tools\msvc\14.10.25017\include\xutility

; 304  : 		}

	ret	4
??$?0$$V@?$_Compressed_pair@U?$_Wrap_alloc@V?$allocator@_W@std@@@std@@V?$_String_val@U?$_Simple_types@_W@std@@@2@$00@std@@QAE@U_Zero_then_variadic_args_t@1@@Z ENDP ; std::_Compressed_pair<std::_Wrap_alloc<std::allocator<wchar_t> >,std::_String_val<std::_Simple_types<wchar_t> >,1>::_Compressed_pair<std::_Wrap_alloc<std::allocator<wchar_t> >,std::_String_val<std::_Simple_types<wchar_t> >,1><>
_TEXT	ENDS
; Function compile flags: /Ogtp
; File c:\program files (x86)\microsoft visual studio\2017\community\vc\tools\msvc\14.10.25017\include\xmemory0
;	COMDAT ??$_Pocca@U?$_Wrap_alloc@V?$allocator@_W@std@@@std@@@std@@YAXAAU?$_Wrap_alloc@V?$allocator@_W@std@@@0@ABU10@@Z
_TEXT	SEGMENT
__Left$ = 8						; size = 4
__Right$ = 12						; size = 4
??$_Pocca@U?$_Wrap_alloc@V?$allocator@_W@std@@@std@@@std@@YAXAAU?$_Wrap_alloc@V?$allocator@_W@std@@@0@ABU10@@Z PROC ; std::_Pocca<std::_Wrap_alloc<std::allocator<wchar_t> > >, COMDAT

; 1144 : 	typename _Alty::propagate_on_container_copy_assignment _Tag;
; 1145 : 	_Pocca(_Left, _Right, _Tag);
; 1146 : 	}

	ret	0
??$_Pocca@U?$_Wrap_alloc@V?$allocator@_W@std@@@std@@@std@@YAXAAU?$_Wrap_alloc@V?$allocator@_W@std@@@0@ABU10@@Z ENDP ; std::_Pocca<std::_Wrap_alloc<std::allocator<wchar_t> > >
_TEXT	ENDS
; Function compile flags: /Ogtp
; File c:\program files (x86)\microsoft visual studio\2017\community\vc\tools\msvc\14.10.25017\include\xmemory0
;	COMDAT ??$_Pocma@U?$_Wrap_alloc@V?$allocator@_W@std@@@std@@@std@@YAXAAU?$_Wrap_alloc@V?$allocator@_W@std@@@0@0@Z
_TEXT	SEGMENT
__Left$ = 8						; size = 4
__Right$ = 12						; size = 4
??$_Pocma@U?$_Wrap_alloc@V?$allocator@_W@std@@@std@@@std@@YAXAAU?$_Wrap_alloc@V?$allocator@_W@std@@@0@0@Z PROC ; std::_Pocma<std::_Wrap_alloc<std::allocator<wchar_t> > >, COMDAT

; 1163 : 	typename _Alty::propagate_on_container_move_assignment _Tag;
; 1164 : 	_Pocma(_Left, _Right, _Tag);
; 1165 : 	}

	ret	0
??$_Pocma@U?$_Wrap_alloc@V?$allocator@_W@std@@@std@@@std@@YAXAAU?$_Wrap_alloc@V?$allocator@_W@std@@@0@0@Z ENDP ; std::_Pocma<std::_Wrap_alloc<std::allocator<wchar_t> > >
_TEXT	ENDS
; Function compile flags: /Ogtp
; File c:\program files (x86)\microsoft visual studio\2017\community\vc\tools\msvc\14.10.25017\include\xmemory0
;	COMDAT ??$?0V?$allocator@_W@std@@@?$_Wrap_alloc@V?$allocator@_W@std@@@std@@QAE@$$QAV?$allocator@_W@1@@Z
_TEXT	SEGMENT
__Right$ = 8						; size = 4
??$?0V?$allocator@_W@std@@@?$_Wrap_alloc@V?$allocator@_W@std@@@std@@QAE@$$QAV?$allocator@_W@1@@Z PROC ; std::_Wrap_alloc<std::allocator<wchar_t> >::_Wrap_alloc<std::allocator<wchar_t> ><std::allocator<wchar_t> >, COMDAT
; _this$ = ecx

; 1054 : 		}

	mov	eax, ecx
	ret	4
??$?0V?$allocator@_W@std@@@?$_Wrap_alloc@V?$allocator@_W@std@@@std@@QAE@$$QAV?$allocator@_W@1@@Z ENDP ; std::_Wrap_alloc<std::allocator<wchar_t> >::_Wrap_alloc<std::allocator<wchar_t> ><std::allocator<wchar_t> >
_TEXT	ENDS
; Function compile flags: /Ogtp
; File c:\program files (x86)\microsoft visual studio\2017\community\vc\tools\msvc\14.10.25017\include\xstring
;	COMDAT ??$?0U?$_Wrap_alloc@V?$allocator@_W@std@@@std@@X@?$_String_alloc@U?$_String_base_types@_WV?$allocator@_W@std@@@std@@@std@@QAE@$$QAU?$_Wrap_alloc@V?$allocator@_W@std@@@1@@Z
_TEXT	SEGMENT
__Al$ = 8						; size = 4
??$?0U?$_Wrap_alloc@V?$allocator@_W@std@@@std@@X@?$_String_alloc@U?$_String_base_types@_WV?$allocator@_W@std@@@std@@@std@@QAE@$$QAU?$_Wrap_alloc@V?$allocator@_W@std@@@1@@Z PROC ; std::_String_alloc<std::_String_base_types<wchar_t,std::allocator<wchar_t> > >::_String_alloc<std::_String_base_types<wchar_t,std::allocator<wchar_t> > ><std::_Wrap_alloc<std::allocator<wchar_t> >,void>, COMDAT
; _this$ = ecx

; 1595 : 		_Mysize(0),

	mov	DWORD PTR [ecx+16], 0

; 1705 : 		}

	mov	eax, ecx

; 1596 : 		_Myres(0)

	mov	DWORD PTR [ecx+20], 0

; 1705 : 		}

	ret	4
??$?0U?$_Wrap_alloc@V?$allocator@_W@std@@@std@@X@?$_String_alloc@U?$_String_base_types@_WV?$allocator@_W@std@@@std@@@std@@QAE@$$QAU?$_Wrap_alloc@V?$allocator@_W@std@@@1@@Z ENDP ; std::_String_alloc<std::_String_base_types<wchar_t,std::allocator<wchar_t> > >::_String_alloc<std::_String_base_types<wchar_t,std::allocator<wchar_t> > ><std::_Wrap_alloc<std::allocator<wchar_t> >,void>
_TEXT	ENDS
; Function compile flags: /Ogtp
; File c:\program files (x86)\microsoft visual studio\2017\community\vc\tools\msvc\14.10.25017\include\type_traits
;	COMDAT ??$move@AAV?$basic_string@_WU?$char_traits@_W@std@@V?$allocator@_W@2@@std@@@std@@YA$$QAV?$basic_string@_WU?$char_traits@_W@std@@V?$allocator@_W@2@@0@AAV10@@Z
_TEXT	SEGMENT
__Arg$ = 8						; size = 4
??$move@AAV?$basic_string@_WU?$char_traits@_W@std@@V?$allocator@_W@2@@std@@@std@@YA$$QAV?$basic_string@_WU?$char_traits@_W@std@@V?$allocator@_W@2@@0@AAV10@@Z PROC ; std::move<std::basic_string<wchar_t,std::char_traits<wchar_t>,std::allocator<wchar_t> > &>, COMDAT

; 1350 : 	{	// forward _Arg as movable

	npad	2
	push	ebp
	mov	ebp, esp

; 1351 : 	return (static_cast<typename remove_reference<_Ty>::type&&>(_Arg));

	mov	eax, DWORD PTR __Arg$[ebp]

; 1352 : 	}

	pop	ebp
	ret	0
??$move@AAV?$basic_string@_WU?$char_traits@_W@std@@V?$allocator@_W@2@@std@@@std@@YA$$QAV?$basic_string@_WU?$char_traits@_W@std@@V?$allocator@_W@2@@0@AAV10@@Z ENDP ; std::move<std::basic_string<wchar_t,std::char_traits<wchar_t>,std::allocator<wchar_t> > &>
_TEXT	ENDS
; Function compile flags: /Ogtp
; File c:\program files (x86)\microsoft visual studio\2017\community\vc\tools\msvc\14.10.25017\include\xstddef
;	COMDAT ??$addressof@V?$basic_string@_WU?$char_traits@_W@std@@V?$allocator@_W@2@@std@@@std@@YAPAV?$basic_string@_WU?$char_traits@_W@std@@V?$allocator@_W@2@@0@AAV10@@Z
_TEXT	SEGMENT
__Val$ = 8						; size = 4
??$addressof@V?$basic_string@_WU?$char_traits@_W@std@@V?$allocator@_W@2@@std@@@std@@YAPAV?$basic_string@_WU?$char_traits@_W@std@@V?$allocator@_W@2@@0@AAV10@@Z PROC ; std::addressof<std::basic_string<wchar_t,std::char_traits<wchar_t>,std::allocator<wchar_t> > >, COMDAT

; 629  : 	{	// return address of _Val

	npad	2
	push	ebp
	mov	ebp, esp

; 630  : 	return (__builtin_addressof(_Val));

	mov	eax, DWORD PTR __Val$[ebp]

; 631  : 	}

	pop	ebp
	ret	0
??$addressof@V?$basic_string@_WU?$char_traits@_W@std@@V?$allocator@_W@2@@std@@@std@@YAPAV?$basic_string@_WU?$char_traits@_W@std@@V?$allocator@_W@2@@0@AAV10@@Z ENDP ; std::addressof<std::basic_string<wchar_t,std::char_traits<wchar_t>,std::allocator<wchar_t> > >
_TEXT	ENDS
; Function compile flags: /Ogtp
; File c:\program files (x86)\microsoft visual studio\2017\community\vc\tools\msvc\14.10.25017\include\xstddef
;	COMDAT ??$addressof@$$CBV?$basic_string@_WU?$char_traits@_W@std@@V?$allocator@_W@2@@std@@@std@@YAPBV?$basic_string@_WU?$char_traits@_W@std@@V?$allocator@_W@2@@0@ABV10@@Z
_TEXT	SEGMENT
__Val$ = 8						; size = 4
??$addressof@$$CBV?$basic_string@_WU?$char_traits@_W@std@@V?$allocator@_W@2@@std@@@std@@YAPBV?$basic_string@_WU?$char_traits@_W@std@@V?$allocator@_W@2@@0@ABV10@@Z PROC ; std::addressof<std::basic_string<wchar_t,std::char_traits<wchar_t>,std::allocator<wchar_t> > const >, COMDAT

; 629  : 	{	// return address of _Val

	npad	2
	push	ebp
	mov	ebp, esp

; 630  : 	return (__builtin_addressof(_Val));

	mov	eax, DWORD PTR __Val$[ebp]

; 631  : 	}

	pop	ebp
	ret	0
??$addressof@$$CBV?$basic_string@_WU?$char_traits@_W@std@@V?$allocator@_W@2@@std@@@std@@YAPBV?$basic_string@_WU?$char_traits@_W@std@@V?$allocator@_W@2@@0@ABV10@@Z ENDP ; std::addressof<std::basic_string<wchar_t,std::char_traits<wchar_t>,std::allocator<wchar_t> > const >
_TEXT	ENDS
; Function compile flags: /Ogtp
; File c:\program files (x86)\microsoft visual studio\2017\community\vc\tools\msvc\14.10.25017\include\vector
; File c:\program files (x86)\microsoft visual studio\2017\community\vc\tools\msvc\14.10.25017\include\xmemory0
; File c:\program files (x86)\microsoft visual studio\2017\community\vc\tools\msvc\14.10.25017\include\vector
; File c:\program files (x86)\microsoft visual studio\2017\community\vc\tools\msvc\14.10.25017\include\xmemory0
; File c:\program files (x86)\microsoft visual studio\2017\community\vc\tools\msvc\14.10.25017\include\vector
; File c:\program files (x86)\microsoft visual studio\2017\community\vc\tools\msvc\14.10.25017\include\xmemory0
; File c:\program files (x86)\microsoft visual studio\2017\community\vc\tools\msvc\14.10.25017\include\xutility
; File c:\program files (x86)\microsoft visual studio\2017\community\vc\tools\msvc\14.10.25017\include\vector
; File c:\program files (x86)\microsoft visual studio\2017\community\vc\tools\msvc\14.10.25017\include\xutility
; File c:\program files (x86)\microsoft visual studio\2017\community\vc\tools\msvc\14.10.25017\include\vector
; File c:\program files (x86)\microsoft visual studio\2017\community\vc\tools\msvc\14.10.25017\include\xmemory0
; File c:\program files (x86)\microsoft visual studio\2017\community\vc\tools\msvc\14.10.25017\include\vector
; File c:\program files (x86)\microsoft visual studio\2017\community\vc\tools\msvc\14.10.25017\include\xmemory0
; File c:\program files (x86)\microsoft visual studio\2017\community\vc\tools\msvc\14.10.25017\include\vector
;	COMDAT ??$emplace_back@ABQAViParameter@sk@@@?$vector@PAViParameter@sk@@V?$allocator@PAViParameter@sk@@@std@@@std@@QAEXABQAViParameter@sk@@@Z
_TEXT	SEGMENT
__Newcapacity$1$ = -4					; size = 4
_<_Val_0>$ = 8						; size = 4
??$emplace_back@ABQAViParameter@sk@@@?$vector@PAViParameter@sk@@V?$allocator@PAViParameter@sk@@@std@@@std@@QAEXABQAViParameter@sk@@@Z PROC ; std::vector<sk::iParameter *,std::allocator<sk::iParameter *> >::emplace_back<sk::iParameter * const &>, COMDAT
; _this$ = ecx

; 908  : 		{	// insert by perfectly forwarding into element at end, provide strong guarantee

	npad	2
	push	ebp
	mov	ebp, esp
	push	ecx
	push	esi
	mov	esi, ecx
	push	edi

; 1731 : 		return (this->_Myend() != this->_Mylast());

	mov	ecx, DWORD PTR [esi+8]
	mov	edi, DWORD PTR [esi+4]
	cmp	ecx, edi

; 909  : 		if (_Has_unused_capacity())

	je	SHORT $LN2@emplace_ba
; File c:\program files (x86)\microsoft visual studio\2017\community\vc\tools\msvc\14.10.25017\include\xmemory0

; 840  : 		::new ((void *)_Ptr) _Objty(_STD forward<_Types>(_Args)...);

	test	edi, edi
	je	SHORT $LN70@emplace_ba
	mov	eax, DWORD PTR _<_Val_0>$[ebp]
	mov	eax, DWORD PTR [eax]
	mov	DWORD PTR [edi], eax
$LN70@emplace_ba:
; File c:\program files (x86)\microsoft visual studio\2017\community\vc\tools\msvc\14.10.25017\include\vector

; 902  : 		++this->_Mylast();

	add	DWORD PTR [esi+4], 4
	pop	edi
	pop	esi

; 929  : 			_Emplaced = true;
; 930  : 			_Umove_if_noexcept(this->_Myfirst(), this->_Mylast(), _Newvec);
; 931  : 			_CATCH_ALL
; 932  : 			if (_Emplaced)
; 933  : 				{
; 934  : 				this->_Getal().destroy(_Unfancy(_Newvec + _Oldsize));
; 935  : 				}
; 936  : 
; 937  : 			this->_Getal().deallocate(_Newvec, _Newcapacity);
; 938  : 			_RERAISE;
; 939  : 			_CATCH_END
; 940  : 
; 941  : 			_Change_array(_Newvec, _Newsize, _Newcapacity);
; 942  : 			}
; 943  : 		}

	mov	esp, ebp
	pop	ebp
	ret	4
$LN2@emplace_ba:

; 1710 : 		return (this->_Mylast() - this->_Myfirst());

	mov	eax, DWORD PTR [esi]
	sub	edi, eax
	sar	edi, 2

; 910  : 			{
; 911  : 			_Emplace_back_with_unused_capacity(_STD forward<_Valty>(_Val)...);
; 912  : 			}
; 913  : 		else
; 914  : 			{	// reallocate
; 915  : 			const size_type _Oldsize = size();
; 916  : 
; 917  : 			if (_Oldsize == max_size())

	cmp	edi, 1073741823				; 3fffffffH
	je	$LN365@emplace_ba

; 1720 : 		return (this->_Myend() - this->_Myfirst());

	sub	ecx, eax

; 920  : 				}
; 921  : 
; 922  : 			const size_type _Newsize = _Oldsize + 1;

	lea	edx, DWORD PTR [edi+1]

; 1720 : 		return (this->_Myend() - this->_Myfirst());

	sar	ecx, 2

; 1892 : 		if (_Oldcapacity > max_size() - _Oldcapacity / 2)

	mov	eax, 1073741823				; 3fffffffH
	push	ebx
	mov	ebx, ecx
	shr	ebx, 1
	sub	eax, ebx
	cmp	ecx, eax
	jbe	SHORT $LN146@emplace_ba

; 1893 : 			{
; 1894 : 			return (_Newsize);	// geometric growth would overflow

	mov	eax, edx
	mov	DWORD PTR __Newcapacity$1$[ebp], edx
	jmp	SHORT $LN147@emplace_ba
$LN146@emplace_ba:

; 1895 : 			}
; 1896 : 
; 1897 : 		const size_type _Geometric = _Oldcapacity + _Oldcapacity / 2;

	lea	eax, DWORD PTR [ebx+ecx]

; 1898 : 
; 1899 : 		if (_Geometric < _Newsize)

	cmp	eax, edx
	cmovb	eax, edx
	mov	DWORD PTR __Newcapacity$1$[ebp], eax
$LN147@emplace_ba:
; File c:\program files (x86)\microsoft visual studio\2017\community\vc\tools\msvc\14.10.25017\include\xmemory0

; 1077 : 		return (_Mybase::allocate(_Count));

	push	eax
	mov	ecx, esi
	call	?allocate@?$allocator@PAViParameter@sk@@@std@@QAEPAPAViParameter@sk@@I@Z ; std::allocator<sk::iParameter *>::allocate
; File c:\program files (x86)\microsoft visual studio\2017\community\vc\tools\msvc\14.10.25017\include\vector

; 925  : 			const pointer _Newvec = this->_Getal().allocate(_Newcapacity);

	mov	ebx, eax

; 926  : 
; 927  : 			_TRY_BEGIN
; 928  : 			this->_Getal().construct(_Unfancy(_Newvec + _Oldsize), _STD forward<_Valty>(_Val)...);

	lea	eax, DWORD PTR [ebx+edi*4]
; File c:\program files (x86)\microsoft visual studio\2017\community\vc\tools\msvc\14.10.25017\include\xmemory0

; 840  : 		::new ((void *)_Ptr) _Objty(_STD forward<_Types>(_Args)...);

	test	eax, eax
	je	SHORT $LN219@emplace_ba
	mov	ecx, DWORD PTR _<_Val_0>$[ebp]
	mov	ecx, DWORD PTR [ecx]
	mov	DWORD PTR [eax], ecx
$LN219@emplace_ba:
; File c:\program files (x86)\microsoft visual studio\2017\community\vc\tools\msvc\14.10.25017\include\xutility

; 2296 : 	const char * const _First_ch = reinterpret_cast<const char *>(_First);

	mov	ecx, DWORD PTR [esi]

; 2297 : 	const char * const _Last_ch = reinterpret_cast<const char *>(_Last);
; 2298 : 	char * const _Dest_ch = reinterpret_cast<char *>(_Dest);
; 2299 : 	const size_t _Count = _Last_ch - _First_ch;

	mov	eax, DWORD PTR [esi+4]
	sub	eax, ecx

; 2300 : 	_CSTD memmove(_Dest_ch, _First_ch, _Count);

	push	eax
	push	ecx
	push	ebx
	call	DWORD PTR __imp__memmove
; File c:\program files (x86)\microsoft visual studio\2017\community\vc\tools\msvc\14.10.25017\include\vector

; 1934 : 		if (this->_Myfirst() != pointer())

	mov	ecx, DWORD PTR [esi]
; File c:\program files (x86)\microsoft visual studio\2017\community\vc\tools\msvc\14.10.25017\include\xutility

; 2300 : 	_CSTD memmove(_Dest_ch, _First_ch, _Count);

	add	esp, 12					; 0000000cH
; File c:\program files (x86)\microsoft visual studio\2017\community\vc\tools\msvc\14.10.25017\include\vector

; 1934 : 		if (this->_Myfirst() != pointer())

	test	ecx, ecx
	je	SHORT $LN271@emplace_ba

; 1937 : 			this->_Getal().deallocate(this->_Myfirst(), this->_Myend() - this->_Myfirst());

	mov	eax, DWORD PTR [esi+8]
	sub	eax, ecx
; File c:\program files (x86)\microsoft visual studio\2017\community\vc\tools\msvc\14.10.25017\include\xmemory0

; 823  : 		_Deallocate(_Ptr, _Count, sizeof (_Ty));

	push	4
; File c:\program files (x86)\microsoft visual studio\2017\community\vc\tools\msvc\14.10.25017\include\vector

; 1937 : 			this->_Getal().deallocate(this->_Myfirst(), this->_Myend() - this->_Myfirst());

	sar	eax, 2
; File c:\program files (x86)\microsoft visual studio\2017\community\vc\tools\msvc\14.10.25017\include\xmemory0

; 823  : 		_Deallocate(_Ptr, _Count, sizeof (_Ty));

	push	eax
	push	ecx
	call	?_Deallocate@std@@YAXPAXII@Z		; std::_Deallocate
	add	esp, 12					; 0000000cH
$LN271@emplace_ba:
; File c:\program files (x86)\microsoft visual studio\2017\community\vc\tools\msvc\14.10.25017\include\vector

; 1941 : 		this->_Mylast() = _Newvec + _Newsize;

	lea	eax, DWORD PTR [edi+1]
	mov	DWORD PTR [esi], ebx
	lea	eax, DWORD PTR [ebx+eax*4]
	mov	DWORD PTR [esi+4], eax

; 1942 : 		this->_Myend() = _Newvec + _Newcapacity;

	mov	eax, DWORD PTR __Newcapacity$1$[ebp]
	lea	eax, DWORD PTR [ebx+eax*4]
	pop	ebx
	pop	edi
	mov	DWORD PTR [esi+8], eax
	pop	esi

; 929  : 			_Emplaced = true;
; 930  : 			_Umove_if_noexcept(this->_Myfirst(), this->_Mylast(), _Newvec);
; 931  : 			_CATCH_ALL
; 932  : 			if (_Emplaced)
; 933  : 				{
; 934  : 				this->_Getal().destroy(_Unfancy(_Newvec + _Oldsize));
; 935  : 				}
; 936  : 
; 937  : 			this->_Getal().deallocate(_Newvec, _Newcapacity);
; 938  : 			_RERAISE;
; 939  : 			_CATCH_END
; 940  : 
; 941  : 			_Change_array(_Newvec, _Newsize, _Newcapacity);
; 942  : 			}
; 943  : 		}

	mov	esp, ebp
	pop	ebp
	ret	4
$LN365@emplace_ba:

; 918  : 				{
; 919  : 				_Xlength();

	call	?_Xlength@?$vector@PAViParameter@sk@@V?$allocator@PAViParameter@sk@@@std@@@std@@CAXXZ ; std::vector<sk::iParameter *,std::allocator<sk::iParameter *> >::_Xlength
$LN367@emplace_ba:
$LN364@emplace_ba:
	int	3
??$emplace_back@ABQAViParameter@sk@@@?$vector@PAViParameter@sk@@V?$allocator@PAViParameter@sk@@@std@@@std@@QAEXABQAViParameter@sk@@@Z ENDP ; std::vector<sk::iParameter *,std::allocator<sk::iParameter *> >::emplace_back<sk::iParameter * const &>
_TEXT	ENDS
; Function compile flags: /Ogtp
; File c:\users\andon\source\repos\specialk\src\parameter.cpp
; File c:\program files (x86)\microsoft visual studio\2017\community\vc\tools\msvc\14.10.25017\include\typeindex
; File c:\users\andon\source\repos\specialk\src\parameter.cpp
; File c:\program files (x86)\microsoft visual studio\2017\community\vc\tools\msvc\14.10.25017\include\xstring
; File c:\program files (x86)\microsoft visual studio\2017\community\vc\tools\msvc\14.10.25017\include\iosfwd
; File c:\program files (x86)\microsoft visual studio\2017\community\vc\tools\msvc\14.10.25017\include\xstring
; File c:\program files (x86)\microsoft visual studio\2017\community\vc\tools\msvc\14.10.25017\include\iosfwd
; File c:\program files (x86)\microsoft visual studio\2017\community\vc\tools\msvc\14.10.25017\include\xstring
; File c:\program files (x86)\microsoft visual studio\2017\community\vc\tools\msvc\14.10.25017\include\iosfwd
; File c:\users\andon\source\repos\specialk\include\specialk\parameter.h
; File c:\program files (x86)\microsoft visual studio\2017\community\vc\tools\msvc\14.10.25017\include\typeindex
; File c:\users\andon\source\repos\specialk\src\parameter.cpp
; File c:\program files (x86)\microsoft visual studio\2017\community\vc\tools\msvc\14.10.25017\include\vector
; File c:\users\andon\source\repos\specialk\src\parameter.cpp
; File c:\program files (x86)\microsoft visual studio\2017\community\vc\tools\msvc\14.10.25017\include\vector
; File c:\users\andon\source\repos\specialk\src\parameter.cpp
_TEXT	SEGMENT
$T1 = -4						; size = 4
_param$ = -4						; size = 4
_name$ = 8						; size = 4
??$create_parameter@UImVec2@@@ParameterFactory@sk@@QAEPAViParameter@1@PB_W@Z PROC ; sk::ParameterFactory::create_parameter<ImVec2>
; _this$ = ecx

; 564  : {

	npad	2
	push	ebp
	mov	ebp, esp
	push	ecx
	push	esi
	push	edi

; 567  :   iParameter* param = new ParameterVec2f ();

	push	72					; 00000048H
	mov	edi, ecx
	call	??2@YAPAXI@Z				; operator new
	mov	esi, eax
	add	esp, 4
	mov	DWORD PTR $T1[ebp], esi
	test	esi, esi
	je	SHORT $LN3@create_par
	push	72					; 00000048H
	push	0
	push	esi
	call	_memset
; File c:\program files (x86)\microsoft visual studio\2017\community\vc\tools\msvc\14.10.25017\include\typeindex

; 19   : 		: _Tptr(&_Tinfo)

	mov	DWORD PTR [esi+4], OFFSET ??_R0?AViParameter@sk@@@8
; File c:\users\andon\source\repos\specialk\src\parameter.cpp

; 567  :   iParameter* param = new ParameterVec2f ();

	add	esp, 12					; 0000000cH
; File c:\program files (x86)\microsoft visual studio\2017\community\vc\tools\msvc\14.10.25017\include\xstring

; 3597 : 		_My_data._Mysize = 0;

	mov	DWORD PTR [esi+28], 0
; File c:\program files (x86)\microsoft visual studio\2017\community\vc\tools\msvc\14.10.25017\include\iosfwd

; 326  : 		_Left = _Right;

	xor	eax, eax
; File c:\program files (x86)\microsoft visual studio\2017\community\vc\tools\msvc\14.10.25017\include\xstring

; 3598 : 		_My_data._Myres = this->_BUF_SIZE - 1;

	mov	DWORD PTR [esi+32], 7
; File c:\program files (x86)\microsoft visual studio\2017\community\vc\tools\msvc\14.10.25017\include\iosfwd

; 326  : 		_Left = _Right;

	mov	WORD PTR [esi+12], ax
; File c:\program files (x86)\microsoft visual studio\2017\community\vc\tools\msvc\14.10.25017\include\xstring

; 3597 : 		_My_data._Mysize = 0;

	mov	DWORD PTR [esi+52], eax

; 3598 : 		_My_data._Myres = this->_BUF_SIZE - 1;

	mov	DWORD PTR [esi+56], 7
; File c:\program files (x86)\microsoft visual studio\2017\community\vc\tools\msvc\14.10.25017\include\iosfwd

; 326  : 		_Left = _Right;

	mov	WORD PTR [esi+36], ax
; File c:\users\andon\source\repos\specialk\include\specialk\parameter.h

; 53   :     ini        = nullptr;

	mov	DWORD PTR [esi+8], eax

; 36   :     ImVec2 (void)               { x = y = 0.0f;   }

	mov	DWORD PTR [esi+64], eax
	mov	DWORD PTR [esi+60], eax
; File c:\program files (x86)\microsoft visual studio\2017\community\vc\tools\msvc\14.10.25017\include\typeindex

; 19   : 		: _Tptr(&_Tinfo)

	mov	DWORD PTR [esi+68], OFFSET ??_R0?AUImVec2@@@8
	mov	DWORD PTR [esi], OFFSET ??_7ParameterVec2f@sk@@6B@
; File c:\users\andon\source\repos\specialk\src\parameter.cpp

; 567  :   iParameter* param = new ParameterVec2f ();

	jmp	SHORT $LN4@create_par
$LN3@create_par:
	xor	esi, esi
$LN4@create_par:
; File c:\program files (x86)\microsoft visual studio\2017\community\vc\tools\msvc\14.10.25017\include\vector

; 947  : 		emplace_back(_Val);

	lea	eax, DWORD PTR _param$[ebp]
; File c:\users\andon\source\repos\specialk\src\parameter.cpp

; 567  :   iParameter* param = new ParameterVec2f ();

	mov	DWORD PTR _param$[ebp], esi
; File c:\program files (x86)\microsoft visual studio\2017\community\vc\tools\msvc\14.10.25017\include\vector

; 947  : 		emplace_back(_Val);

	push	eax
	mov	ecx, edi
	call	??$emplace_back@ABQAViParameter@sk@@@?$vector@PAViParameter@sk@@V?$allocator@PAViParameter@sk@@@std@@@std@@QAEXABQAViParameter@sk@@@Z ; std::vector<sk::iParameter *,std::allocator<sk::iParameter *> >::emplace_back<sk::iParameter * const &>
; File c:\users\andon\source\repos\specialk\src\parameter.cpp

; 570  :   return param;

	mov	eax, DWORD PTR _param$[ebp]
	pop	edi
	pop	esi

; 571  : }

	mov	esp, ebp
	pop	ebp
	ret	4
??$create_parameter@UImVec2@@@ParameterFactory@sk@@QAEPAViParameter@1@PB_W@Z ENDP ; sk::ParameterFactory::create_parameter<ImVec2>
_TEXT	ENDS
; Function compile flags: /Ogtp
; File c:\users\andon\source\repos\specialk\src\parameter.cpp
; File c:\program files (x86)\microsoft visual studio\2017\community\vc\tools\msvc\14.10.25017\include\typeindex
; File c:\users\andon\source\repos\specialk\src\parameter.cpp
; File c:\program files (x86)\microsoft visual studio\2017\community\vc\tools\msvc\14.10.25017\include\xstring
; File c:\program files (x86)\microsoft visual studio\2017\community\vc\tools\msvc\14.10.25017\include\iosfwd
; File c:\program files (x86)\microsoft visual studio\2017\community\vc\tools\msvc\14.10.25017\include\xstring
; File c:\program files (x86)\microsoft visual studio\2017\community\vc\tools\msvc\14.10.25017\include\iosfwd
; File c:\program files (x86)\microsoft visual studio\2017\community\vc\tools\msvc\14.10.25017\include\xstring
; File c:\program files (x86)\microsoft visual studio\2017\community\vc\tools\msvc\14.10.25017\include\iosfwd
; File c:\users\andon\source\repos\specialk\include\specialk\parameter.h
; File c:\program files (x86)\microsoft visual studio\2017\community\vc\tools\msvc\14.10.25017\include\xstring
; File c:\program files (x86)\microsoft visual studio\2017\community\vc\tools\msvc\14.10.25017\include\iosfwd
; File c:\program files (x86)\microsoft visual studio\2017\community\vc\tools\msvc\14.10.25017\include\typeindex
; File c:\users\andon\source\repos\specialk\src\parameter.cpp
; File c:\program files (x86)\microsoft visual studio\2017\community\vc\tools\msvc\14.10.25017\include\vector
; File c:\users\andon\source\repos\specialk\src\parameter.cpp
; File c:\program files (x86)\microsoft visual studio\2017\community\vc\tools\msvc\14.10.25017\include\vector
; File c:\users\andon\source\repos\specialk\src\parameter.cpp
_TEXT	SEGMENT
$T1 = -4						; size = 4
_param$ = -4						; size = 4
_name$ = 8						; size = 4
??$create_parameter@V?$basic_string@_WU?$char_traits@_W@std@@V?$allocator@_W@2@@std@@@ParameterFactory@sk@@QAEPAViParameter@1@PB_W@Z PROC ; sk::ParameterFactory::create_parameter<std::basic_string<wchar_t,std::char_traits<wchar_t>,std::allocator<wchar_t> > >
; _this$ = ecx

; 552  : {

	npad	2
	push	ebp
	mov	ebp, esp
	push	ecx
	push	esi
	push	edi

; 555  :   iParameter* param = new ParameterStringW ();

	push	88					; 00000058H
	mov	edi, ecx
	call	??2@YAPAXI@Z				; operator new
	mov	esi, eax
	add	esp, 4
	mov	DWORD PTR $T1[ebp], esi
	test	esi, esi
	je	SHORT $LN3@create_par
	push	88					; 00000058H
	push	0
	push	esi
	call	_memset
; File c:\program files (x86)\microsoft visual studio\2017\community\vc\tools\msvc\14.10.25017\include\typeindex

; 19   : 		: _Tptr(&_Tinfo)

	mov	DWORD PTR [esi+4], OFFSET ??_R0?AViParameter@sk@@@8
; File c:\users\andon\source\repos\specialk\src\parameter.cpp

; 555  :   iParameter* param = new ParameterStringW ();

	add	esp, 12					; 0000000cH
; File c:\program files (x86)\microsoft visual studio\2017\community\vc\tools\msvc\14.10.25017\include\xstring

; 3597 : 		_My_data._Mysize = 0;

	mov	DWORD PTR [esi+28], 0
; File c:\program files (x86)\microsoft visual studio\2017\community\vc\tools\msvc\14.10.25017\include\iosfwd

; 326  : 		_Left = _Right;

	xor	eax, eax
; File c:\program files (x86)\microsoft visual studio\2017\community\vc\tools\msvc\14.10.25017\include\xstring

; 3598 : 		_My_data._Myres = this->_BUF_SIZE - 1;

	mov	DWORD PTR [esi+32], 7
; File c:\program files (x86)\microsoft visual studio\2017\community\vc\tools\msvc\14.10.25017\include\iosfwd

; 326  : 		_Left = _Right;

	mov	WORD PTR [esi+12], ax
; File c:\program files (x86)\microsoft visual studio\2017\community\vc\tools\msvc\14.10.25017\include\xstring

; 3597 : 		_My_data._Mysize = 0;

	mov	DWORD PTR [esi+52], eax

; 3598 : 		_My_data._Myres = this->_BUF_SIZE - 1;

	mov	DWORD PTR [esi+56], 7
; File c:\program files (x86)\microsoft visual studio\2017\community\vc\tools\msvc\14.10.25017\include\iosfwd

; 326  : 		_Left = _Right;

	mov	WORD PTR [esi+36], ax
; File c:\users\andon\source\repos\specialk\include\specialk\parameter.h

; 53   :     ini        = nullptr;

	mov	DWORD PTR [esi+8], eax
; File c:\program files (x86)\microsoft visual studio\2017\community\vc\tools\msvc\14.10.25017\include\xstring

; 3597 : 		_My_data._Mysize = 0;

	mov	DWORD PTR [esi+76], eax

; 3598 : 		_My_data._Myres = this->_BUF_SIZE - 1;

	mov	DWORD PTR [esi+80], 7
; File c:\program files (x86)\microsoft visual studio\2017\community\vc\tools\msvc\14.10.25017\include\iosfwd

; 326  : 		_Left = _Right;

	mov	WORD PTR [esi+60], ax
; File c:\program files (x86)\microsoft visual studio\2017\community\vc\tools\msvc\14.10.25017\include\typeindex

; 19   : 		: _Tptr(&_Tinfo)

	mov	DWORD PTR [esi+84], OFFSET ??_R0?AV?$basic_string@_WU?$char_traits@_W@std@@V?$allocator@_W@2@@std@@@8
	mov	DWORD PTR [esi], OFFSET ??_7ParameterStringW@sk@@6B@
; File c:\users\andon\source\repos\specialk\src\parameter.cpp

; 555  :   iParameter* param = new ParameterStringW ();

	jmp	SHORT $LN4@create_par
$LN3@create_par:
	xor	esi, esi
$LN4@create_par:
; File c:\program files (x86)\microsoft visual studio\2017\community\vc\tools\msvc\14.10.25017\include\vector

; 947  : 		emplace_back(_Val);

	lea	eax, DWORD PTR _param$[ebp]
; File c:\users\andon\source\repos\specialk\src\parameter.cpp

; 555  :   iParameter* param = new ParameterStringW ();

	mov	DWORD PTR _param$[ebp], esi
; File c:\program files (x86)\microsoft visual studio\2017\community\vc\tools\msvc\14.10.25017\include\vector

; 947  : 		emplace_back(_Val);

	push	eax
	mov	ecx, edi
	call	??$emplace_back@ABQAViParameter@sk@@@?$vector@PAViParameter@sk@@V?$allocator@PAViParameter@sk@@@std@@@std@@QAEXABQAViParameter@sk@@@Z ; std::vector<sk::iParameter *,std::allocator<sk::iParameter *> >::emplace_back<sk::iParameter * const &>
; File c:\users\andon\source\repos\specialk\src\parameter.cpp

; 558  :   return param;

	mov	eax, DWORD PTR _param$[ebp]
	pop	edi
	pop	esi

; 559  : }

	mov	esp, ebp
	pop	ebp
	ret	4
??$create_parameter@V?$basic_string@_WU?$char_traits@_W@std@@V?$allocator@_W@2@@std@@@ParameterFactory@sk@@QAEPAViParameter@1@PB_W@Z ENDP ; sk::ParameterFactory::create_parameter<std::basic_string<wchar_t,std::char_traits<wchar_t>,std::allocator<wchar_t> > >
_TEXT	ENDS
; Function compile flags: /Ogtp
; File c:\users\andon\source\repos\specialk\src\parameter.cpp
; File c:\program files (x86)\microsoft visual studio\2017\community\vc\tools\msvc\14.10.25017\include\typeindex
; File c:\users\andon\source\repos\specialk\src\parameter.cpp
; File c:\program files (x86)\microsoft visual studio\2017\community\vc\tools\msvc\14.10.25017\include\xstring
; File c:\program files (x86)\microsoft visual studio\2017\community\vc\tools\msvc\14.10.25017\include\iosfwd
; File c:\program files (x86)\microsoft visual studio\2017\community\vc\tools\msvc\14.10.25017\include\xstring
; File c:\program files (x86)\microsoft visual studio\2017\community\vc\tools\msvc\14.10.25017\include\iosfwd
; File c:\program files (x86)\microsoft visual studio\2017\community\vc\tools\msvc\14.10.25017\include\xstring
; File c:\program files (x86)\microsoft visual studio\2017\community\vc\tools\msvc\14.10.25017\include\iosfwd
; File c:\users\andon\source\repos\specialk\include\specialk\parameter.h
; File c:\program files (x86)\microsoft visual studio\2017\community\vc\tools\msvc\14.10.25017\include\typeindex
; File c:\users\andon\source\repos\specialk\src\parameter.cpp
; File c:\program files (x86)\microsoft visual studio\2017\community\vc\tools\msvc\14.10.25017\include\vector
; File c:\users\andon\source\repos\specialk\src\parameter.cpp
; File c:\program files (x86)\microsoft visual studio\2017\community\vc\tools\msvc\14.10.25017\include\vector
; File c:\users\andon\source\repos\specialk\src\parameter.cpp
_TEXT	SEGMENT
$T1 = -4						; size = 4
_param$ = -4						; size = 4
_name$ = 8						; size = 4
??$create_parameter@M@ParameterFactory@sk@@QAEPAViParameter@1@PB_W@Z PROC ; sk::ParameterFactory::create_parameter<float>
; _this$ = ecx

; 540  : {

	npad	2
	push	ebp
	mov	ebp, esp
	push	ecx
	push	esi
	push	edi

; 543  :   iParameter* param = new ParameterFloat ();

	push	68					; 00000044H
	mov	edi, ecx
	call	??2@YAPAXI@Z				; operator new
	mov	esi, eax
	add	esp, 4
	mov	DWORD PTR $T1[ebp], esi
	test	esi, esi
	je	SHORT $LN3@create_par
	push	68					; 00000044H
	push	0
	push	esi
	call	_memset
; File c:\program files (x86)\microsoft visual studio\2017\community\vc\tools\msvc\14.10.25017\include\typeindex

; 19   : 		: _Tptr(&_Tinfo)

	mov	DWORD PTR [esi+4], OFFSET ??_R0?AViParameter@sk@@@8
; File c:\users\andon\source\repos\specialk\src\parameter.cpp

; 543  :   iParameter* param = new ParameterFloat ();

	add	esp, 12					; 0000000cH
; File c:\program files (x86)\microsoft visual studio\2017\community\vc\tools\msvc\14.10.25017\include\xstring

; 3597 : 		_My_data._Mysize = 0;

	mov	DWORD PTR [esi+28], 0
; File c:\program files (x86)\microsoft visual studio\2017\community\vc\tools\msvc\14.10.25017\include\iosfwd

; 326  : 		_Left = _Right;

	xor	eax, eax
; File c:\program files (x86)\microsoft visual studio\2017\community\vc\tools\msvc\14.10.25017\include\xstring

; 3598 : 		_My_data._Myres = this->_BUF_SIZE - 1;

	mov	DWORD PTR [esi+32], 7
; File c:\program files (x86)\microsoft visual studio\2017\community\vc\tools\msvc\14.10.25017\include\iosfwd

; 326  : 		_Left = _Right;

	mov	WORD PTR [esi+12], ax
; File c:\program files (x86)\microsoft visual studio\2017\community\vc\tools\msvc\14.10.25017\include\xstring

; 3597 : 		_My_data._Mysize = 0;

	mov	DWORD PTR [esi+52], eax

; 3598 : 		_My_data._Myres = this->_BUF_SIZE - 1;

	mov	DWORD PTR [esi+56], 7
; File c:\program files (x86)\microsoft visual studio\2017\community\vc\tools\msvc\14.10.25017\include\iosfwd

; 326  : 		_Left = _Right;

	mov	WORD PTR [esi+36], ax
; File c:\users\andon\source\repos\specialk\include\specialk\parameter.h

; 53   :     ini        = nullptr;

	mov	DWORD PTR [esi+8], eax
; File c:\program files (x86)\microsoft visual studio\2017\community\vc\tools\msvc\14.10.25017\include\typeindex

; 19   : 		: _Tptr(&_Tinfo)

	mov	DWORD PTR [esi+64], OFFSET ??_R0M@8
	mov	DWORD PTR [esi], OFFSET ??_7ParameterFloat@sk@@6B@
; File c:\users\andon\source\repos\specialk\src\parameter.cpp

; 543  :   iParameter* param = new ParameterFloat ();

	jmp	SHORT $LN4@create_par
$LN3@create_par:
	xor	esi, esi
$LN4@create_par:
; File c:\program files (x86)\microsoft visual studio\2017\community\vc\tools\msvc\14.10.25017\include\vector

; 947  : 		emplace_back(_Val);

	lea	eax, DWORD PTR _param$[ebp]
; File c:\users\andon\source\repos\specialk\src\parameter.cpp

; 543  :   iParameter* param = new ParameterFloat ();

	mov	DWORD PTR _param$[ebp], esi
; File c:\program files (x86)\microsoft visual studio\2017\community\vc\tools\msvc\14.10.25017\include\vector

; 947  : 		emplace_back(_Val);

	push	eax
	mov	ecx, edi
	call	??$emplace_back@ABQAViParameter@sk@@@?$vector@PAViParameter@sk@@V?$allocator@PAViParameter@sk@@@std@@@std@@QAEXABQAViParameter@sk@@@Z ; std::vector<sk::iParameter *,std::allocator<sk::iParameter *> >::emplace_back<sk::iParameter * const &>
; File c:\users\andon\source\repos\specialk\src\parameter.cpp

; 546  :   return param;

	mov	eax, DWORD PTR _param$[ebp]
	pop	edi
	pop	esi

; 547  : }

	mov	esp, ebp
	pop	ebp
	ret	4
??$create_parameter@M@ParameterFactory@sk@@QAEPAViParameter@1@PB_W@Z ENDP ; sk::ParameterFactory::create_parameter<float>
_TEXT	ENDS
; Function compile flags: /Ogtp
; File c:\users\andon\source\repos\specialk\src\parameter.cpp
; File c:\program files (x86)\microsoft visual studio\2017\community\vc\tools\msvc\14.10.25017\include\typeindex
; File c:\users\andon\source\repos\specialk\src\parameter.cpp
; File c:\program files (x86)\microsoft visual studio\2017\community\vc\tools\msvc\14.10.25017\include\xstring
; File c:\program files (x86)\microsoft visual studio\2017\community\vc\tools\msvc\14.10.25017\include\iosfwd
; File c:\program files (x86)\microsoft visual studio\2017\community\vc\tools\msvc\14.10.25017\include\xstring
; File c:\program files (x86)\microsoft visual studio\2017\community\vc\tools\msvc\14.10.25017\include\iosfwd
; File c:\program files (x86)\microsoft visual studio\2017\community\vc\tools\msvc\14.10.25017\include\xstring
; File c:\program files (x86)\microsoft visual studio\2017\community\vc\tools\msvc\14.10.25017\include\iosfwd
; File c:\users\andon\source\repos\specialk\include\specialk\parameter.h
; File c:\program files (x86)\microsoft visual studio\2017\community\vc\tools\msvc\14.10.25017\include\typeindex
; File c:\users\andon\source\repos\specialk\src\parameter.cpp
; File c:\program files (x86)\microsoft visual studio\2017\community\vc\tools\msvc\14.10.25017\include\vector
; File c:\users\andon\source\repos\specialk\src\parameter.cpp
; File c:\program files (x86)\microsoft visual studio\2017\community\vc\tools\msvc\14.10.25017\include\vector
; File c:\users\andon\source\repos\specialk\src\parameter.cpp
_TEXT	SEGMENT
$T1 = -4						; size = 4
_param$ = -4						; size = 4
_name$ = 8						; size = 4
??$create_parameter@_N@ParameterFactory@sk@@QAEPAViParameter@1@PB_W@Z PROC ; sk::ParameterFactory::create_parameter<bool>
; _this$ = ecx

; 528  : {

	npad	2
	push	ebp
	mov	ebp, esp
	push	ecx
	push	esi
	push	edi

; 531  :   iParameter* param = new ParameterBool ();

	push	72					; 00000048H
	mov	edi, ecx
	call	??2@YAPAXI@Z				; operator new
	mov	esi, eax
	add	esp, 4
	mov	DWORD PTR $T1[ebp], esi
	test	esi, esi
	je	SHORT $LN3@create_par
	push	72					; 00000048H
	push	0
	push	esi
	call	_memset
; File c:\program files (x86)\microsoft visual studio\2017\community\vc\tools\msvc\14.10.25017\include\typeindex

; 19   : 		: _Tptr(&_Tinfo)

	mov	DWORD PTR [esi+4], OFFSET ??_R0?AViParameter@sk@@@8
; File c:\users\andon\source\repos\specialk\src\parameter.cpp

; 531  :   iParameter* param = new ParameterBool ();

	add	esp, 12					; 0000000cH
; File c:\program files (x86)\microsoft visual studio\2017\community\vc\tools\msvc\14.10.25017\include\xstring

; 3597 : 		_My_data._Mysize = 0;

	mov	DWORD PTR [esi+28], 0
; File c:\program files (x86)\microsoft visual studio\2017\community\vc\tools\msvc\14.10.25017\include\iosfwd

; 326  : 		_Left = _Right;

	xor	eax, eax
; File c:\program files (x86)\microsoft visual studio\2017\community\vc\tools\msvc\14.10.25017\include\xstring

; 3598 : 		_My_data._Myres = this->_BUF_SIZE - 1;

	mov	DWORD PTR [esi+32], 7
; File c:\program files (x86)\microsoft visual studio\2017\community\vc\tools\msvc\14.10.25017\include\iosfwd

; 326  : 		_Left = _Right;

	mov	WORD PTR [esi+12], ax
; File c:\program files (x86)\microsoft visual studio\2017\community\vc\tools\msvc\14.10.25017\include\xstring

; 3597 : 		_My_data._Mysize = 0;

	mov	DWORD PTR [esi+52], eax

; 3598 : 		_My_data._Myres = this->_BUF_SIZE - 1;

	mov	DWORD PTR [esi+56], 7
; File c:\program files (x86)\microsoft visual studio\2017\community\vc\tools\msvc\14.10.25017\include\iosfwd

; 326  : 		_Left = _Right;

	mov	WORD PTR [esi+36], ax
; File c:\users\andon\source\repos\specialk\include\specialk\parameter.h

; 53   :     ini        = nullptr;

	mov	DWORD PTR [esi+8], eax
; File c:\program files (x86)\microsoft visual studio\2017\community\vc\tools\msvc\14.10.25017\include\typeindex

; 19   : 		: _Tptr(&_Tinfo)

	mov	DWORD PTR [esi+64], OFFSET ??_R0_N@8
	mov	DWORD PTR [esi], OFFSET ??_7ParameterBool@sk@@6B@
	mov	DWORD PTR [esi+68], eax
; File c:\users\andon\source\repos\specialk\src\parameter.cpp

; 531  :   iParameter* param = new ParameterBool ();

	jmp	SHORT $LN4@create_par
$LN3@create_par:
	xor	esi, esi
$LN4@create_par:
; File c:\program files (x86)\microsoft visual studio\2017\community\vc\tools\msvc\14.10.25017\include\vector

; 947  : 		emplace_back(_Val);

	lea	eax, DWORD PTR _param$[ebp]
; File c:\users\andon\source\repos\specialk\src\parameter.cpp

; 531  :   iParameter* param = new ParameterBool ();

	mov	DWORD PTR _param$[ebp], esi
; File c:\program files (x86)\microsoft visual studio\2017\community\vc\tools\msvc\14.10.25017\include\vector

; 947  : 		emplace_back(_Val);

	push	eax
	mov	ecx, edi
	call	??$emplace_back@ABQAViParameter@sk@@@?$vector@PAViParameter@sk@@V?$allocator@PAViParameter@sk@@@std@@@std@@QAEXABQAViParameter@sk@@@Z ; std::vector<sk::iParameter *,std::allocator<sk::iParameter *> >::emplace_back<sk::iParameter * const &>
; File c:\users\andon\source\repos\specialk\src\parameter.cpp

; 534  :   return param;

	mov	eax, DWORD PTR _param$[ebp]
	pop	edi
	pop	esi

; 535  : }

	mov	esp, ebp
	pop	ebp
	ret	4
??$create_parameter@_N@ParameterFactory@sk@@QAEPAViParameter@1@PB_W@Z ENDP ; sk::ParameterFactory::create_parameter<bool>
_TEXT	ENDS
; Function compile flags: /Ogtp
; File c:\users\andon\source\repos\specialk\src\parameter.cpp
; File c:\program files (x86)\microsoft visual studio\2017\community\vc\tools\msvc\14.10.25017\include\typeindex
; File c:\users\andon\source\repos\specialk\src\parameter.cpp
; File c:\program files (x86)\microsoft visual studio\2017\community\vc\tools\msvc\14.10.25017\include\xstring
; File c:\program files (x86)\microsoft visual studio\2017\community\vc\tools\msvc\14.10.25017\include\iosfwd
; File c:\program files (x86)\microsoft visual studio\2017\community\vc\tools\msvc\14.10.25017\include\xstring
; File c:\program files (x86)\microsoft visual studio\2017\community\vc\tools\msvc\14.10.25017\include\iosfwd
; File c:\program files (x86)\microsoft visual studio\2017\community\vc\tools\msvc\14.10.25017\include\xstring
; File c:\program files (x86)\microsoft visual studio\2017\community\vc\tools\msvc\14.10.25017\include\iosfwd
; File c:\users\andon\source\repos\specialk\include\specialk\parameter.h
; File c:\program files (x86)\microsoft visual studio\2017\community\vc\tools\msvc\14.10.25017\include\typeindex
; File c:\users\andon\source\repos\specialk\src\parameter.cpp
; File c:\program files (x86)\microsoft visual studio\2017\community\vc\tools\msvc\14.10.25017\include\vector
; File c:\users\andon\source\repos\specialk\src\parameter.cpp
; File c:\program files (x86)\microsoft visual studio\2017\community\vc\tools\msvc\14.10.25017\include\vector
; File c:\users\andon\source\repos\specialk\src\parameter.cpp
_TEXT	SEGMENT
$T1 = -4						; size = 4
_param$ = -4						; size = 4
_name$ = 8						; size = 4
??$create_parameter@_J@ParameterFactory@sk@@QAEPAViParameter@1@PB_W@Z PROC ; sk::ParameterFactory::create_parameter<__int64>
; _this$ = ecx

; 516  : {

	npad	2
	push	ebp
	mov	ebp, esp
	push	ecx
	push	esi
	push	edi

; 519  :   iParameter* param = new ParameterInt64 ();

	push	80					; 00000050H
	mov	edi, ecx
	call	??2@YAPAXI@Z				; operator new
	mov	esi, eax
	add	esp, 4
	mov	DWORD PTR $T1[ebp], esi
	test	esi, esi
	je	SHORT $LN3@create_par
	push	80					; 00000050H
	push	0
	push	esi
	call	_memset
; File c:\program files (x86)\microsoft visual studio\2017\community\vc\tools\msvc\14.10.25017\include\typeindex

; 19   : 		: _Tptr(&_Tinfo)

	mov	DWORD PTR [esi+4], OFFSET ??_R0?AViParameter@sk@@@8
; File c:\users\andon\source\repos\specialk\src\parameter.cpp

; 519  :   iParameter* param = new ParameterInt64 ();

	add	esp, 12					; 0000000cH
; File c:\program files (x86)\microsoft visual studio\2017\community\vc\tools\msvc\14.10.25017\include\xstring

; 3597 : 		_My_data._Mysize = 0;

	mov	DWORD PTR [esi+28], 0
; File c:\program files (x86)\microsoft visual studio\2017\community\vc\tools\msvc\14.10.25017\include\iosfwd

; 326  : 		_Left = _Right;

	xor	eax, eax
; File c:\program files (x86)\microsoft visual studio\2017\community\vc\tools\msvc\14.10.25017\include\xstring

; 3598 : 		_My_data._Myres = this->_BUF_SIZE - 1;

	mov	DWORD PTR [esi+32], 7
; File c:\program files (x86)\microsoft visual studio\2017\community\vc\tools\msvc\14.10.25017\include\iosfwd

; 326  : 		_Left = _Right;

	mov	WORD PTR [esi+12], ax
; File c:\program files (x86)\microsoft visual studio\2017\community\vc\tools\msvc\14.10.25017\include\xstring

; 3597 : 		_My_data._Mysize = 0;

	mov	DWORD PTR [esi+52], eax

; 3598 : 		_My_data._Myres = this->_BUF_SIZE - 1;

	mov	DWORD PTR [esi+56], 7
; File c:\program files (x86)\microsoft visual studio\2017\community\vc\tools\msvc\14.10.25017\include\iosfwd

; 326  : 		_Left = _Right;

	mov	WORD PTR [esi+36], ax
; File c:\users\andon\source\repos\specialk\include\specialk\parameter.h

; 53   :     ini        = nullptr;

	mov	DWORD PTR [esi+8], eax
; File c:\program files (x86)\microsoft visual studio\2017\community\vc\tools\msvc\14.10.25017\include\typeindex

; 19   : 		: _Tptr(&_Tinfo)

	mov	DWORD PTR [esi+72], OFFSET ??_R0_J@8
	mov	DWORD PTR [esi], OFFSET ??_7ParameterInt64@sk@@6B@
; File c:\users\andon\source\repos\specialk\src\parameter.cpp

; 519  :   iParameter* param = new ParameterInt64 ();

	jmp	SHORT $LN4@create_par
$LN3@create_par:
	xor	esi, esi
$LN4@create_par:
; File c:\program files (x86)\microsoft visual studio\2017\community\vc\tools\msvc\14.10.25017\include\vector

; 947  : 		emplace_back(_Val);

	lea	eax, DWORD PTR _param$[ebp]
; File c:\users\andon\source\repos\specialk\src\parameter.cpp

; 519  :   iParameter* param = new ParameterInt64 ();

	mov	DWORD PTR _param$[ebp], esi
; File c:\program files (x86)\microsoft visual studio\2017\community\vc\tools\msvc\14.10.25017\include\vector

; 947  : 		emplace_back(_Val);

	push	eax
	mov	ecx, edi
	call	??$emplace_back@ABQAViParameter@sk@@@?$vector@PAViParameter@sk@@V?$allocator@PAViParameter@sk@@@std@@@std@@QAEXABQAViParameter@sk@@@Z ; std::vector<sk::iParameter *,std::allocator<sk::iParameter *> >::emplace_back<sk::iParameter * const &>
; File c:\users\andon\source\repos\specialk\src\parameter.cpp

; 522  :   return param;

	mov	eax, DWORD PTR _param$[ebp]
	pop	edi
	pop	esi

; 523  : }

	mov	esp, ebp
	pop	ebp
	ret	4
??$create_parameter@_J@ParameterFactory@sk@@QAEPAViParameter@1@PB_W@Z ENDP ; sk::ParameterFactory::create_parameter<__int64>
_TEXT	ENDS
; Function compile flags: /Ogtp
; File c:\users\andon\source\repos\specialk\src\parameter.cpp
; File c:\program files (x86)\microsoft visual studio\2017\community\vc\tools\msvc\14.10.25017\include\typeindex
; File c:\program files (x86)\microsoft visual studio\2017\community\vc\tools\msvc\14.10.25017\include\iosfwd
; File c:\program files (x86)\microsoft visual studio\2017\community\vc\tools\msvc\14.10.25017\include\xstring
; File c:\program files (x86)\microsoft visual studio\2017\community\vc\tools\msvc\14.10.25017\include\iosfwd
; File c:\program files (x86)\microsoft visual studio\2017\community\vc\tools\msvc\14.10.25017\include\xstring
; File c:\program files (x86)\microsoft visual studio\2017\community\vc\tools\msvc\14.10.25017\include\iosfwd
; File c:\users\andon\source\repos\specialk\include\specialk\parameter.h
; File c:\program files (x86)\microsoft visual studio\2017\community\vc\tools\msvc\14.10.25017\include\typeindex
; File c:\users\andon\source\repos\specialk\include\specialk\parameter.h
; File c:\users\andon\source\repos\specialk\src\parameter.cpp
; File c:\program files (x86)\microsoft visual studio\2017\community\vc\tools\msvc\14.10.25017\include\vector
; File c:\users\andon\source\repos\specialk\src\parameter.cpp
_TEXT	SEGMENT
$T1 = -4						; size = 4
_param$ = -4						; size = 4
_name$ = 8						; size = 4
??$create_parameter@H@ParameterFactory@sk@@QAEPAViParameter@1@PB_W@Z PROC ; sk::ParameterFactory::create_parameter<int>
; _this$ = ecx

; 493  : {

	npad	2
	push	ebp
	mov	ebp, esp
	push	ecx
	push	esi

; 496  :   iParameter* param = new ParameterInt ();

	push	68					; 00000044H
	mov	esi, ecx
	call	??2@YAPAXI@Z				; operator new
	add	esp, 4
	mov	DWORD PTR $T1[ebp], eax
	test	eax, eax
	je	SHORT $LN3@create_par
; File c:\program files (x86)\microsoft visual studio\2017\community\vc\tools\msvc\14.10.25017\include\typeindex

; 19   : 		: _Tptr(&_Tinfo)

	mov	DWORD PTR [eax+4], OFFSET ??_R0?AViParameter@sk@@@8
; File c:\program files (x86)\microsoft visual studio\2017\community\vc\tools\msvc\14.10.25017\include\iosfwd

; 326  : 		_Left = _Right;

	xor	ecx, ecx
; File c:\program files (x86)\microsoft visual studio\2017\community\vc\tools\msvc\14.10.25017\include\xstring

; 3597 : 		_My_data._Mysize = 0;

	mov	DWORD PTR [eax+28], 0

; 3598 : 		_My_data._Myres = this->_BUF_SIZE - 1;

	mov	DWORD PTR [eax+32], 7
; File c:\program files (x86)\microsoft visual studio\2017\community\vc\tools\msvc\14.10.25017\include\iosfwd

; 326  : 		_Left = _Right;

	mov	WORD PTR [eax+12], cx
; File c:\program files (x86)\microsoft visual studio\2017\community\vc\tools\msvc\14.10.25017\include\xstring

; 3597 : 		_My_data._Mysize = 0;

	mov	DWORD PTR [eax+52], ecx

; 3598 : 		_My_data._Myres = this->_BUF_SIZE - 1;

	mov	DWORD PTR [eax+56], 7
; File c:\program files (x86)\microsoft visual studio\2017\community\vc\tools\msvc\14.10.25017\include\iosfwd

; 326  : 		_Left = _Right;

	mov	WORD PTR [eax+36], cx
; File c:\users\andon\source\repos\specialk\include\specialk\parameter.h

; 53   :     ini        = nullptr;

	mov	DWORD PTR [eax+8], ecx
; File c:\program files (x86)\microsoft visual studio\2017\community\vc\tools\msvc\14.10.25017\include\typeindex

; 19   : 		: _Tptr(&_Tinfo)

	mov	DWORD PTR [eax+64], OFFSET ??_R0H@8
; File c:\users\andon\source\repos\specialk\include\specialk\parameter.h

; 106  :   ParameterInt (void) {

	mov	DWORD PTR [eax], OFFSET ??_7ParameterInt@sk@@6B@

; 107  :     type_ = std::type_index (typeid (int));

	mov	DWORD PTR [eax+64], OFFSET ??_R0H@8
; File c:\users\andon\source\repos\specialk\src\parameter.cpp

; 496  :   iParameter* param = new ParameterInt ();

	jmp	SHORT $LN4@create_par
$LN3@create_par:
	xor	eax, eax
$LN4@create_par:
	mov	DWORD PTR _param$[ebp], eax
; File c:\program files (x86)\microsoft visual studio\2017\community\vc\tools\msvc\14.10.25017\include\vector

; 947  : 		emplace_back(_Val);

	mov	ecx, esi
	lea	eax, DWORD PTR _param$[ebp]
	push	eax
	call	??$emplace_back@ABQAViParameter@sk@@@?$vector@PAViParameter@sk@@V?$allocator@PAViParameter@sk@@@std@@@std@@QAEXABQAViParameter@sk@@@Z ; std::vector<sk::iParameter *,std::allocator<sk::iParameter *> >::emplace_back<sk::iParameter * const &>
; File c:\users\andon\source\repos\specialk\src\parameter.cpp

; 499  :   return param;

	mov	eax, DWORD PTR _param$[ebp]
	pop	esi

; 500  : }

	mov	esp, ebp
	pop	ebp
	ret	4
??$create_parameter@H@ParameterFactory@sk@@QAEPAViParameter@1@PB_W@Z ENDP ; sk::ParameterFactory::create_parameter<int>
_TEXT	ENDS
; Function compile flags: /Ogtp
; File c:\program files (x86)\microsoft visual studio\2017\community\vc\tools\msvc\14.10.25017\include\vector
;	COMDAT ?_Orphan_range@?$vector@PAViParameter@sk@@V?$allocator@PAViParameter@sk@@@std@@@std@@ABEXPAPAViParameter@sk@@0@Z
_TEXT	SEGMENT
___formal$ = 8						; size = 4
___formal$ = 12						; size = 4
?_Orphan_range@?$vector@PAViParameter@sk@@V?$allocator@PAViParameter@sk@@@std@@@std@@ABEXPAPAViParameter@sk@@0@Z PROC ; std::vector<sk::iParameter *,std::allocator<sk::iParameter *> >::_Orphan_range, COMDAT
; _this$ = ecx

; 1996 : 		}

	ret	8
?_Orphan_range@?$vector@PAViParameter@sk@@V?$allocator@PAViParameter@sk@@@std@@@std@@ABEXPAPAViParameter@sk@@0@Z ENDP ; std::vector<sk::iParameter *,std::allocator<sk::iParameter *> >::_Orphan_range
_TEXT	ENDS
; Function compile flags: /Ogtp
; File c:\program files (x86)\microsoft visual studio\2017\community\vc\tools\msvc\14.10.25017\include\vector
;	COMDAT ?_Xlength@?$vector@PAViParameter@sk@@V?$allocator@PAViParameter@sk@@@std@@@std@@CAXXZ
_TEXT	SEGMENT
?_Xlength@?$vector@PAViParameter@sk@@V?$allocator@PAViParameter@sk@@@std@@@std@@CAXXZ PROC ; std::vector<sk::iParameter *,std::allocator<sk::iParameter *> >::_Xlength, COMDAT

; 1962 : 		_Xlength_error("vector<T> too long");

	push	OFFSET ??_C@_0BD@OLBABOEK@vector?$DMT?$DO?5too?5long?$AA@
	call	DWORD PTR __imp_?_Xlength_error@std@@YAXPBD@Z
$LN4@Xlength:
$LN3@Xlength:
	int	3
?_Xlength@?$vector@PAViParameter@sk@@V?$allocator@PAViParameter@sk@@@std@@@std@@CAXXZ ENDP ; std::vector<sk::iParameter *,std::allocator<sk::iParameter *> >::_Xlength
_TEXT	ENDS
; Function compile flags: /Ogtp
; File c:\program files (x86)\microsoft visual studio\2017\community\vc\tools\msvc\14.10.25017\include\vector
; File c:\program files (x86)\microsoft visual studio\2017\community\vc\tools\msvc\14.10.25017\include\xmemory0
; File c:\program files (x86)\microsoft visual studio\2017\community\vc\tools\msvc\14.10.25017\include\vector
; File c:\program files (x86)\microsoft visual studio\2017\community\vc\tools\msvc\14.10.25017\include\xmemory0
; File c:\program files (x86)\microsoft visual studio\2017\community\vc\tools\msvc\14.10.25017\include\vector
;	COMDAT ?_Change_array@?$vector@PAViParameter@sk@@V?$allocator@PAViParameter@sk@@@std@@@std@@AAEXQAPAViParameter@sk@@II@Z
_TEXT	SEGMENT
__Newvec$ = 8						; size = 4
__Newsize$ = 12						; size = 4
__Newcapacity$ = 16					; size = 4
?_Change_array@?$vector@PAViParameter@sk@@V?$allocator@PAViParameter@sk@@@std@@@std@@AAEXQAPAViParameter@sk@@II@Z PROC ; std::vector<sk::iParameter *,std::allocator<sk::iParameter *> >::_Change_array, COMDAT
; _this$ = ecx

; 1931 : 		{	// orphan all iterators, discard old array, acquire new array

	npad	2
	push	ebp
	mov	ebp, esp
	push	esi
	mov	esi, ecx

; 1932 : 		this->_Orphan_all();
; 1933 : 
; 1934 : 		if (this->_Myfirst() != pointer())

	mov	ecx, DWORD PTR [esi]
	test	ecx, ecx
	je	SHORT $LN2@Change_arr

; 1937 : 			this->_Getal().deallocate(this->_Myfirst(), this->_Myend() - this->_Myfirst());

	mov	eax, DWORD PTR [esi+8]
	sub	eax, ecx
; File c:\program files (x86)\microsoft visual studio\2017\community\vc\tools\msvc\14.10.25017\include\xmemory0

; 823  : 		_Deallocate(_Ptr, _Count, sizeof (_Ty));

	push	4
; File c:\program files (x86)\microsoft visual studio\2017\community\vc\tools\msvc\14.10.25017\include\vector

; 1937 : 			this->_Getal().deallocate(this->_Myfirst(), this->_Myend() - this->_Myfirst());

	sar	eax, 2
; File c:\program files (x86)\microsoft visual studio\2017\community\vc\tools\msvc\14.10.25017\include\xmemory0

; 823  : 		_Deallocate(_Ptr, _Count, sizeof (_Ty));

	push	eax
	push	ecx
	call	?_Deallocate@std@@YAXPAXII@Z		; std::_Deallocate
	add	esp, 12					; 0000000cH
$LN2@Change_arr:
; File c:\program files (x86)\microsoft visual studio\2017\community\vc\tools\msvc\14.10.25017\include\vector

; 1940 : 		this->_Myfirst() = _Newvec;

	mov	ecx, DWORD PTR __Newvec$[ebp]

; 1941 : 		this->_Mylast() = _Newvec + _Newsize;

	mov	eax, DWORD PTR __Newsize$[ebp]
	mov	DWORD PTR [esi], ecx
	lea	eax, DWORD PTR [ecx+eax*4]
	mov	DWORD PTR [esi+4], eax

; 1942 : 		this->_Myend() = _Newvec + _Newcapacity;

	mov	eax, DWORD PTR __Newcapacity$[ebp]
	lea	eax, DWORD PTR [ecx+eax*4]
	mov	DWORD PTR [esi+8], eax
	pop	esi

; 1943 : 		}

	pop	ebp
	ret	12					; 0000000cH
?_Change_array@?$vector@PAViParameter@sk@@V?$allocator@PAViParameter@sk@@@std@@@std@@AAEXQAPAViParameter@sk@@II@Z ENDP ; std::vector<sk::iParameter *,std::allocator<sk::iParameter *> >::_Change_array
_TEXT	ENDS
; Function compile flags: /Ogtp
; File c:\program files (x86)\microsoft visual studio\2017\community\vc\tools\msvc\14.10.25017\include\vector
;	COMDAT ?_Calculate_growth@?$vector@PAViParameter@sk@@V?$allocator@PAViParameter@sk@@@std@@@std@@ABEII@Z
_TEXT	SEGMENT
__Newsize$ = 8						; size = 4
?_Calculate_growth@?$vector@PAViParameter@sk@@V?$allocator@PAViParameter@sk@@@std@@@std@@ABEII@Z PROC ; std::vector<sk::iParameter *,std::allocator<sk::iParameter *> >::_Calculate_growth, COMDAT
; _this$ = ecx

; 1889 : 		{	// given _Oldcapacity and _Newsize, calculate geometric growth

	npad	2
	push	ebp
	mov	ebp, esp

; 1720 : 		return (this->_Myend() - this->_Myfirst());

	mov	edx, DWORD PTR [ecx+8]

; 1890 : 		const size_type _Oldcapacity = capacity();
; 1891 : 
; 1892 : 		if (_Oldcapacity > max_size() - _Oldcapacity / 2)

	mov	eax, 1073741823				; 3fffffffH

; 1720 : 		return (this->_Myend() - this->_Myfirst());

	sub	edx, DWORD PTR [ecx]
	sar	edx, 2

; 1890 : 		const size_type _Oldcapacity = capacity();
; 1891 : 
; 1892 : 		if (_Oldcapacity > max_size() - _Oldcapacity / 2)

	mov	ecx, edx
	shr	ecx, 1
	sub	eax, ecx
	cmp	edx, eax
	jbe	SHORT $LN2@Calculate_

; 1893 : 			{
; 1894 : 			return (_Newsize);	// geometric growth would overflow

	mov	eax, DWORD PTR __Newsize$[ebp]

; 1900 : 			{
; 1901 : 			return (_Newsize);	// geometric growth would be insufficient
; 1902 : 			}
; 1903 : 
; 1904 : 		return (_Geometric);	// geometric growth is sufficient
; 1905 : 		}

	pop	ebp
	ret	4
$LN2@Calculate_:

; 1895 : 			}
; 1896 : 
; 1897 : 		const size_type _Geometric = _Oldcapacity + _Oldcapacity / 2;

	lea	eax, DWORD PTR [ecx+edx]

; 1898 : 
; 1899 : 		if (_Geometric < _Newsize)

	cmp	eax, DWORD PTR __Newsize$[ebp]
	cmovb	eax, DWORD PTR __Newsize$[ebp]

; 1900 : 			{
; 1901 : 			return (_Newsize);	// geometric growth would be insufficient
; 1902 : 			}
; 1903 : 
; 1904 : 		return (_Geometric);	// geometric growth is sufficient
; 1905 : 		}

	pop	ebp
	ret	4
?_Calculate_growth@?$vector@PAViParameter@sk@@V?$allocator@PAViParameter@sk@@@std@@@std@@ABEII@Z ENDP ; std::vector<sk::iParameter *,std::allocator<sk::iParameter *> >::_Calculate_growth
_TEXT	ENDS
; Function compile flags: /Ogtp
; File c:\program files (x86)\microsoft visual studio\2017\community\vc\tools\msvc\14.10.25017\include\vector
;	COMDAT ?_Destroy@?$vector@PAViParameter@sk@@V?$allocator@PAViParameter@sk@@@std@@@std@@AAEXPAPAViParameter@sk@@0@Z
_TEXT	SEGMENT
__First$ = 8						; size = 4
__Last$ = 12						; size = 4
?_Destroy@?$vector@PAViParameter@sk@@V?$allocator@PAViParameter@sk@@@std@@@std@@AAEXPAPAViParameter@sk@@0@Z PROC ; std::vector<sk::iParameter *,std::allocator<sk::iParameter *> >::_Destroy, COMDAT
; _this$ = ecx

; 1885 : 		_Destroy_range(_First, _Last, this->_Getal());
; 1886 : 		}

	ret	8
?_Destroy@?$vector@PAViParameter@sk@@V?$allocator@PAViParameter@sk@@@std@@@std@@AAEXPAPAViParameter@sk@@0@Z ENDP ; std::vector<sk::iParameter *,std::allocator<sk::iParameter *> >::_Destroy
_TEXT	ENDS
; Function compile flags: /Ogtp
; File c:\program files (x86)\microsoft visual studio\2017\community\vc\tools\msvc\14.10.25017\include\vector
; File c:\program files (x86)\microsoft visual studio\2017\community\vc\tools\msvc\14.10.25017\include\xutility
; File c:\program files (x86)\microsoft visual studio\2017\community\vc\tools\msvc\14.10.25017\include\vector
;	COMDAT ?_Umove_if_noexcept@?$vector@PAViParameter@sk@@V?$allocator@PAViParameter@sk@@@std@@@std@@AAEXPAPAViParameter@sk@@00@Z
_TEXT	SEGMENT
__First$ = 8						; size = 4
__Last$ = 12						; size = 4
__Dest$ = 16						; size = 4
?_Umove_if_noexcept@?$vector@PAViParameter@sk@@V?$allocator@PAViParameter@sk@@@std@@@std@@AAEXPAPAViParameter@sk@@00@Z PROC ; std::vector<sk::iParameter *,std::allocator<sk::iParameter *> >::_Umove_if_noexcept, COMDAT
; _this$ = ecx

; 1878 : 		{	// move_if_noexcept [_First, _Last) to raw _Dest, using allocator

	npad	2
	push	ebp
	mov	ebp, esp
; File c:\program files (x86)\microsoft visual studio\2017\community\vc\tools\msvc\14.10.25017\include\xutility

; 2299 : 	const size_t _Count = _Last_ch - _First_ch;

	mov	ecx, DWORD PTR __First$[ebp]
	mov	eax, DWORD PTR __Last$[ebp]
	sub	eax, ecx

; 2300 : 	_CSTD memmove(_Dest_ch, _First_ch, _Count);

	push	eax
	push	ecx
	push	DWORD PTR __Dest$[ebp]
	call	DWORD PTR __imp__memmove
	add	esp, 12					; 0000000cH
; File c:\program files (x86)\microsoft visual studio\2017\community\vc\tools\msvc\14.10.25017\include\vector

; 1881 : 		}

	pop	ebp
	ret	12					; 0000000cH
?_Umove_if_noexcept@?$vector@PAViParameter@sk@@V?$allocator@PAViParameter@sk@@@std@@@std@@AAEXPAPAViParameter@sk@@00@Z ENDP ; std::vector<sk::iParameter *,std::allocator<sk::iParameter *> >::_Umove_if_noexcept
_TEXT	ENDS
; Function compile flags: /Ogtp
; File c:\program files (x86)\microsoft visual studio\2017\community\vc\tools\msvc\14.10.25017\include\vector
; File c:\program files (x86)\microsoft visual studio\2017\community\vc\tools\msvc\14.10.25017\include\xutility
; File c:\program files (x86)\microsoft visual studio\2017\community\vc\tools\msvc\14.10.25017\include\vector
;	COMDAT ?_Umove_if_noexcept1@?$vector@PAViParameter@sk@@V?$allocator@PAViParameter@sk@@@std@@@std@@AAEXPAPAViParameter@sk@@00U?$integral_constant@_N$00@2@@Z
_TEXT	SEGMENT
__First$ = 8						; size = 4
__Last$ = 12						; size = 4
__Dest$ = 16						; size = 4
___formal$ = 20						; size = 1
?_Umove_if_noexcept1@?$vector@PAViParameter@sk@@V?$allocator@PAViParameter@sk@@@std@@@std@@AAEXPAPAViParameter@sk@@00U?$integral_constant@_N$00@2@@Z PROC ; std::vector<sk::iParameter *,std::allocator<sk::iParameter *> >::_Umove_if_noexcept1, COMDAT
; _this$ = ecx

; 1868 : 		{	// move [_First, _Last) to raw _Dest, using allocator

	npad	2
	push	ebp
	mov	ebp, esp
; File c:\program files (x86)\microsoft visual studio\2017\community\vc\tools\msvc\14.10.25017\include\xutility

; 2299 : 	const size_t _Count = _Last_ch - _First_ch;

	mov	ecx, DWORD PTR __First$[ebp]
	mov	eax, DWORD PTR __Last$[ebp]
	sub	eax, ecx

; 2300 : 	_CSTD memmove(_Dest_ch, _First_ch, _Count);

	push	eax
	push	ecx
	push	DWORD PTR __Dest$[ebp]
	call	DWORD PTR __imp__memmove
	add	esp, 12					; 0000000cH
; File c:\program files (x86)\microsoft visual studio\2017\community\vc\tools\msvc\14.10.25017\include\vector

; 1870 : 		}

	pop	ebp
	ret	16					; 00000010H
?_Umove_if_noexcept1@?$vector@PAViParameter@sk@@V?$allocator@PAViParameter@sk@@@std@@@std@@AAEXPAPAViParameter@sk@@00U?$integral_constant@_N$00@2@@Z ENDP ; std::vector<sk::iParameter *,std::allocator<sk::iParameter *> >::_Umove_if_noexcept1
_TEXT	ENDS
; Function compile flags: /Ogtp
; File c:\program files (x86)\microsoft visual studio\2017\community\vc\tools\msvc\14.10.25017\include\vector
;	COMDAT ?_Has_unused_capacity@?$vector@PAViParameter@sk@@V?$allocator@PAViParameter@sk@@@std@@@std@@ABE_NXZ
_TEXT	SEGMENT
?_Has_unused_capacity@?$vector@PAViParameter@sk@@V?$allocator@PAViParameter@sk@@@std@@@std@@ABE_NXZ PROC ; std::vector<sk::iParameter *,std::allocator<sk::iParameter *> >::_Has_unused_capacity, COMDAT
; _this$ = ecx

; 1730 : 		{	// micro-optimization for capacity() != size()

	mov	eax, DWORD PTR [ecx+8]
	cmp	eax, DWORD PTR [ecx+4]
	setne	al

; 1731 : 		return (this->_Myend() != this->_Mylast());
; 1732 : 		}

	ret	0
?_Has_unused_capacity@?$vector@PAViParameter@sk@@V?$allocator@PAViParameter@sk@@@std@@@std@@ABE_NXZ ENDP ; std::vector<sk::iParameter *,std::allocator<sk::iParameter *> >::_Has_unused_capacity
_TEXT	ENDS
; Function compile flags: /Ogtp
; File c:\program files (x86)\microsoft visual studio\2017\community\vc\tools\msvc\14.10.25017\include\vector
;	COMDAT ?capacity@?$vector@PAViParameter@sk@@V?$allocator@PAViParameter@sk@@@std@@@std@@QBEIXZ
_TEXT	SEGMENT
?capacity@?$vector@PAViParameter@sk@@V?$allocator@PAViParameter@sk@@@std@@@std@@QBEIXZ PROC ; std::vector<sk::iParameter *,std::allocator<sk::iParameter *> >::capacity, COMDAT
; _this$ = ecx

; 1720 : 		return (this->_Myend() - this->_Myfirst());

	mov	eax, DWORD PTR [ecx+8]
	sub	eax, DWORD PTR [ecx]
	sar	eax, 2

; 1721 : 		}

	ret	0
?capacity@?$vector@PAViParameter@sk@@V?$allocator@PAViParameter@sk@@@std@@@std@@QBEIXZ ENDP ; std::vector<sk::iParameter *,std::allocator<sk::iParameter *> >::capacity
_TEXT	ENDS
; Function compile flags: /Ogtp
; File c:\program files (x86)\microsoft visual studio\2017\community\vc\tools\msvc\14.10.25017\include\vector
;	COMDAT ?max_size@?$vector@PAViParameter@sk@@V?$allocator@PAViParameter@sk@@@std@@@std@@QBEIXZ
_TEXT	SEGMENT
?max_size@?$vector@PAViParameter@sk@@V?$allocator@PAViParameter@sk@@@std@@@std@@QBEIXZ PROC ; std::vector<sk::iParameter *,std::allocator<sk::iParameter *> >::max_size, COMDAT
; _this$ = ecx

; 1715 : 		return (this->_Getal().max_size());

	mov	eax, 1073741823				; 3fffffffH

; 1716 : 		}

	ret	0
?max_size@?$vector@PAViParameter@sk@@V?$allocator@PAViParameter@sk@@@std@@@std@@QBEIXZ ENDP ; std::vector<sk::iParameter *,std::allocator<sk::iParameter *> >::max_size
_TEXT	ENDS
; Function compile flags: /Ogtp
; File c:\program files (x86)\microsoft visual studio\2017\community\vc\tools\msvc\14.10.25017\include\vector
;	COMDAT ?size@?$vector@PAViParameter@sk@@V?$allocator@PAViParameter@sk@@@std@@@std@@QBEIXZ
_TEXT	SEGMENT
?size@?$vector@PAViParameter@sk@@V?$allocator@PAViParameter@sk@@@std@@@std@@QBEIXZ PROC ; std::vector<sk::iParameter *,std::allocator<sk::iParameter *> >::size, COMDAT
; _this$ = ecx

; 1710 : 		return (this->_Mylast() - this->_Myfirst());

	mov	eax, DWORD PTR [ecx+4]
	sub	eax, DWORD PTR [ecx]
	sar	eax, 2

; 1711 : 		}

	ret	0
?size@?$vector@PAViParameter@sk@@V?$allocator@PAViParameter@sk@@@std@@@std@@QBEIXZ ENDP ; std::vector<sk::iParameter *,std::allocator<sk::iParameter *> >::size
_TEXT	ENDS
; Function compile flags: /Ogtp
; File c:\program files (x86)\microsoft visual studio\2017\community\vc\tools\msvc\14.10.25017\include\vector
;	COMDAT ?push_back@?$vector@PAViParameter@sk@@V?$allocator@PAViParameter@sk@@@std@@@std@@QAEXABQAViParameter@sk@@@Z
_TEXT	SEGMENT
__Val$ = 8						; size = 4
?push_back@?$vector@PAViParameter@sk@@V?$allocator@PAViParameter@sk@@@std@@@std@@QAEXABQAViParameter@sk@@@Z PROC ; std::vector<sk::iParameter *,std::allocator<sk::iParameter *> >::push_back, COMDAT
; _this$ = ecx

; 946  : 		{	// insert element at end, provide strong guarantee

	npad	2
	push	ebp
	mov	ebp, esp

; 948  : 		}

	pop	ebp

; 947  : 		emplace_back(_Val);

	jmp	??$emplace_back@ABQAViParameter@sk@@@?$vector@PAViParameter@sk@@V?$allocator@PAViParameter@sk@@@std@@@std@@QAEXABQAViParameter@sk@@@Z ; std::vector<sk::iParameter *,std::allocator<sk::iParameter *> >::emplace_back<sk::iParameter * const &>
?push_back@?$vector@PAViParameter@sk@@V?$allocator@PAViParameter@sk@@@std@@@std@@QAEXABQAViParameter@sk@@@Z ENDP ; std::vector<sk::iParameter *,std::allocator<sk::iParameter *> >::push_back
_TEXT	ENDS
; Function compile flags: /Ogtp
; File c:\program files (x86)\microsoft visual studio\2017\community\vc\tools\msvc\14.10.25017\include\xutility
;	COMDAT ?_Get_second@?$_Compressed_pair@U?$_Wrap_alloc@V?$allocator@PAViParameter@sk@@@std@@@std@@V?$_Vector_val@U?$_Simple_types@PAViParameter@sk@@@std@@@2@$00@std@@QBEABV?$_Vector_val@U?$_Simple_types@PAViParameter@sk@@@std@@@2@XZ
_TEXT	SEGMENT
?_Get_second@?$_Compressed_pair@U?$_Wrap_alloc@V?$allocator@PAViParameter@sk@@@std@@@std@@V?$_Vector_val@U?$_Simple_types@PAViParameter@sk@@@std@@@2@$00@std@@QBEABV?$_Vector_val@U?$_Simple_types@PAViParameter@sk@@@std@@@2@XZ PROC ; std::_Compressed_pair<std::_Wrap_alloc<std::allocator<sk::iParameter *> >,std::_Vector_val<std::_Simple_types<sk::iParameter *> >,1>::_Get_second, COMDAT
; _this$ = ecx

; 343  : 		return (_Myval2);

	mov	eax, ecx

; 344  : 		}

	ret	0
?_Get_second@?$_Compressed_pair@U?$_Wrap_alloc@V?$allocator@PAViParameter@sk@@@std@@@std@@V?$_Vector_val@U?$_Simple_types@PAViParameter@sk@@@std@@@2@$00@std@@QBEABV?$_Vector_val@U?$_Simple_types@PAViParameter@sk@@@std@@@2@XZ ENDP ; std::_Compressed_pair<std::_Wrap_alloc<std::allocator<sk::iParameter *> >,std::_Vector_val<std::_Simple_types<sk::iParameter *> >,1>::_Get_second
_TEXT	ENDS
; Function compile flags: /Ogtp
; File c:\program files (x86)\microsoft visual studio\2017\community\vc\tools\msvc\14.10.25017\include\xutility
;	COMDAT ?_Get_second@?$_Compressed_pair@U?$_Wrap_alloc@V?$allocator@PAViParameter@sk@@@std@@@std@@V?$_Vector_val@U?$_Simple_types@PAViParameter@sk@@@std@@@2@$00@std@@QAEAAV?$_Vector_val@U?$_Simple_types@PAViParameter@sk@@@std@@@2@XZ
_TEXT	SEGMENT
?_Get_second@?$_Compressed_pair@U?$_Wrap_alloc@V?$allocator@PAViParameter@sk@@@std@@@std@@V?$_Vector_val@U?$_Simple_types@PAViParameter@sk@@@std@@@2@$00@std@@QAEAAV?$_Vector_val@U?$_Simple_types@PAViParameter@sk@@@std@@@2@XZ PROC ; std::_Compressed_pair<std::_Wrap_alloc<std::allocator<sk::iParameter *> >,std::_Vector_val<std::_Simple_types<sk::iParameter *> >,1>::_Get_second, COMDAT
; _this$ = ecx

; 338  : 		return (_Myval2);

	mov	eax, ecx

; 339  : 		}

	ret	0
?_Get_second@?$_Compressed_pair@U?$_Wrap_alloc@V?$allocator@PAViParameter@sk@@@std@@@std@@V?$_Vector_val@U?$_Simple_types@PAViParameter@sk@@@std@@@2@$00@std@@QAEAAV?$_Vector_val@U?$_Simple_types@PAViParameter@sk@@@std@@@2@XZ ENDP ; std::_Compressed_pair<std::_Wrap_alloc<std::allocator<sk::iParameter *> >,std::_Vector_val<std::_Simple_types<sk::iParameter *> >,1>::_Get_second
_TEXT	ENDS
; Function compile flags: /Ogtp
; File c:\program files (x86)\microsoft visual studio\2017\community\vc\tools\msvc\14.10.25017\include\xutility
;	COMDAT ?_Get_first@?$_Compressed_pair@U?$_Wrap_alloc@V?$allocator@PAViParameter@sk@@@std@@@std@@V?$_Vector_val@U?$_Simple_types@PAViParameter@sk@@@std@@@2@$00@std@@QBEABU?$_Wrap_alloc@V?$allocator@PAViParameter@sk@@@std@@@2@XZ
_TEXT	SEGMENT
?_Get_first@?$_Compressed_pair@U?$_Wrap_alloc@V?$allocator@PAViParameter@sk@@@std@@@std@@V?$_Vector_val@U?$_Simple_types@PAViParameter@sk@@@std@@@2@$00@std@@QBEABU?$_Wrap_alloc@V?$allocator@PAViParameter@sk@@@std@@@2@XZ PROC ; std::_Compressed_pair<std::_Wrap_alloc<std::allocator<sk::iParameter *> >,std::_Vector_val<std::_Simple_types<sk::iParameter *> >,1>::_Get_first, COMDAT
; _this$ = ecx

; 323  : 		return (*this);

	mov	eax, ecx

; 324  : 		}

	ret	0
?_Get_first@?$_Compressed_pair@U?$_Wrap_alloc@V?$allocator@PAViParameter@sk@@@std@@@std@@V?$_Vector_val@U?$_Simple_types@PAViParameter@sk@@@std@@@2@$00@std@@QBEABU?$_Wrap_alloc@V?$allocator@PAViParameter@sk@@@std@@@2@XZ ENDP ; std::_Compressed_pair<std::_Wrap_alloc<std::allocator<sk::iParameter *> >,std::_Vector_val<std::_Simple_types<sk::iParameter *> >,1>::_Get_first
_TEXT	ENDS
; Function compile flags: /Ogtp
; File c:\program files (x86)\microsoft visual studio\2017\community\vc\tools\msvc\14.10.25017\include\xutility
;	COMDAT ?_Get_first@?$_Compressed_pair@U?$_Wrap_alloc@V?$allocator@PAViParameter@sk@@@std@@@std@@V?$_Vector_val@U?$_Simple_types@PAViParameter@sk@@@std@@@2@$00@std@@QAEAAU?$_Wrap_alloc@V?$allocator@PAViParameter@sk@@@std@@@2@XZ
_TEXT	SEGMENT
?_Get_first@?$_Compressed_pair@U?$_Wrap_alloc@V?$allocator@PAViParameter@sk@@@std@@@std@@V?$_Vector_val@U?$_Simple_types@PAViParameter@sk@@@std@@@2@$00@std@@QAEAAU?$_Wrap_alloc@V?$allocator@PAViParameter@sk@@@std@@@2@XZ PROC ; std::_Compressed_pair<std::_Wrap_alloc<std::allocator<sk::iParameter *> >,std::_Vector_val<std::_Simple_types<sk::iParameter *> >,1>::_Get_first, COMDAT
; _this$ = ecx

; 318  : 		return (*this);

	mov	eax, ecx

; 319  : 		}

	ret	0
?_Get_first@?$_Compressed_pair@U?$_Wrap_alloc@V?$allocator@PAViParameter@sk@@@std@@@std@@V?$_Vector_val@U?$_Simple_types@PAViParameter@sk@@@std@@@2@$00@std@@QAEAAU?$_Wrap_alloc@V?$allocator@PAViParameter@sk@@@std@@@2@XZ ENDP ; std::_Compressed_pair<std::_Wrap_alloc<std::allocator<sk::iParameter *> >,std::_Vector_val<std::_Simple_types<sk::iParameter *> >,1>::_Get_first
_TEXT	ENDS
; Function compile flags: /Ogtp
; File c:\program files (x86)\microsoft visual studio\2017\community\vc\tools\msvc\14.10.25017\include\vector
;	COMDAT ?_Myend@?$_Vector_alloc@U?$_Vec_base_types@PAViParameter@sk@@V?$allocator@PAViParameter@sk@@@std@@@std@@@std@@QBEABQAPAViParameter@sk@@XZ
_TEXT	SEGMENT
?_Myend@?$_Vector_alloc@U?$_Vec_base_types@PAViParameter@sk@@V?$allocator@PAViParameter@sk@@@std@@@std@@@std@@QBEABQAPAViParameter@sk@@XZ PROC ; std::_Vector_alloc<std::_Vec_base_types<sk::iParameter *,std::allocator<sk::iParameter *> > >::_Myend, COMDAT
; _this$ = ecx

; 676  : 		return (_Get_data()._Myend);

	lea	eax, DWORD PTR [ecx+8]

; 677  : 		}

	ret	0
?_Myend@?$_Vector_alloc@U?$_Vec_base_types@PAViParameter@sk@@V?$allocator@PAViParameter@sk@@@std@@@std@@@std@@QBEABQAPAViParameter@sk@@XZ ENDP ; std::_Vector_alloc<std::_Vec_base_types<sk::iParameter *,std::allocator<sk::iParameter *> > >::_Myend
_TEXT	ENDS
; Function compile flags: /Ogtp
; File c:\program files (x86)\microsoft visual studio\2017\community\vc\tools\msvc\14.10.25017\include\vector
;	COMDAT ?_Myend@?$_Vector_alloc@U?$_Vec_base_types@PAViParameter@sk@@V?$allocator@PAViParameter@sk@@@std@@@std@@@std@@QAEAAPAPAViParameter@sk@@XZ
_TEXT	SEGMENT
?_Myend@?$_Vector_alloc@U?$_Vec_base_types@PAViParameter@sk@@V?$allocator@PAViParameter@sk@@@std@@@std@@@std@@QAEAAPAPAViParameter@sk@@XZ PROC ; std::_Vector_alloc<std::_Vec_base_types<sk::iParameter *,std::allocator<sk::iParameter *> > >::_Myend, COMDAT
; _this$ = ecx

; 671  : 		return (_Get_data()._Myend);

	lea	eax, DWORD PTR [ecx+8]

; 672  : 		}

	ret	0
?_Myend@?$_Vector_alloc@U?$_Vec_base_types@PAViParameter@sk@@V?$allocator@PAViParameter@sk@@@std@@@std@@@std@@QAEAAPAPAViParameter@sk@@XZ ENDP ; std::_Vector_alloc<std::_Vec_base_types<sk::iParameter *,std::allocator<sk::iParameter *> > >::_Myend
_TEXT	ENDS
; Function compile flags: /Ogtp
; File c:\program files (x86)\microsoft visual studio\2017\community\vc\tools\msvc\14.10.25017\include\vector
;	COMDAT ?_Mylast@?$_Vector_alloc@U?$_Vec_base_types@PAViParameter@sk@@V?$allocator@PAViParameter@sk@@@std@@@std@@@std@@QBEABQAPAViParameter@sk@@XZ
_TEXT	SEGMENT
?_Mylast@?$_Vector_alloc@U?$_Vec_base_types@PAViParameter@sk@@V?$allocator@PAViParameter@sk@@@std@@@std@@@std@@QBEABQAPAViParameter@sk@@XZ PROC ; std::_Vector_alloc<std::_Vec_base_types<sk::iParameter *,std::allocator<sk::iParameter *> > >::_Mylast, COMDAT
; _this$ = ecx

; 666  : 		return (_Get_data()._Mylast);

	lea	eax, DWORD PTR [ecx+4]

; 667  : 		}

	ret	0
?_Mylast@?$_Vector_alloc@U?$_Vec_base_types@PAViParameter@sk@@V?$allocator@PAViParameter@sk@@@std@@@std@@@std@@QBEABQAPAViParameter@sk@@XZ ENDP ; std::_Vector_alloc<std::_Vec_base_types<sk::iParameter *,std::allocator<sk::iParameter *> > >::_Mylast
_TEXT	ENDS
; Function compile flags: /Ogtp
; File c:\program files (x86)\microsoft visual studio\2017\community\vc\tools\msvc\14.10.25017\include\vector
;	COMDAT ?_Mylast@?$_Vector_alloc@U?$_Vec_base_types@PAViParameter@sk@@V?$allocator@PAViParameter@sk@@@std@@@std@@@std@@QAEAAPAPAViParameter@sk@@XZ
_TEXT	SEGMENT
?_Mylast@?$_Vector_alloc@U?$_Vec_base_types@PAViParameter@sk@@V?$allocator@PAViParameter@sk@@@std@@@std@@@std@@QAEAAPAPAViParameter@sk@@XZ PROC ; std::_Vector_alloc<std::_Vec_base_types<sk::iParameter *,std::allocator<sk::iParameter *> > >::_Mylast, COMDAT
; _this$ = ecx

; 661  : 		return (_Get_data()._Mylast);

	lea	eax, DWORD PTR [ecx+4]

; 662  : 		}

	ret	0
?_Mylast@?$_Vector_alloc@U?$_Vec_base_types@PAViParameter@sk@@V?$allocator@PAViParameter@sk@@@std@@@std@@@std@@QAEAAPAPAViParameter@sk@@XZ ENDP ; std::_Vector_alloc<std::_Vec_base_types<sk::iParameter *,std::allocator<sk::iParameter *> > >::_Mylast
_TEXT	ENDS
; Function compile flags: /Ogtp
; File c:\program files (x86)\microsoft visual studio\2017\community\vc\tools\msvc\14.10.25017\include\vector
;	COMDAT ?_Myfirst@?$_Vector_alloc@U?$_Vec_base_types@PAViParameter@sk@@V?$allocator@PAViParameter@sk@@@std@@@std@@@std@@QBEABQAPAViParameter@sk@@XZ
_TEXT	SEGMENT
?_Myfirst@?$_Vector_alloc@U?$_Vec_base_types@PAViParameter@sk@@V?$allocator@PAViParameter@sk@@@std@@@std@@@std@@QBEABQAPAViParameter@sk@@XZ PROC ; std::_Vector_alloc<std::_Vec_base_types<sk::iParameter *,std::allocator<sk::iParameter *> > >::_Myfirst, COMDAT
; _this$ = ecx

; 656  : 		return (_Get_data()._Myfirst);

	mov	eax, ecx

; 657  : 		}

	ret	0
?_Myfirst@?$_Vector_alloc@U?$_Vec_base_types@PAViParameter@sk@@V?$allocator@PAViParameter@sk@@@std@@@std@@@std@@QBEABQAPAViParameter@sk@@XZ ENDP ; std::_Vector_alloc<std::_Vec_base_types<sk::iParameter *,std::allocator<sk::iParameter *> > >::_Myfirst
_TEXT	ENDS
; Function compile flags: /Ogtp
; File c:\program files (x86)\microsoft visual studio\2017\community\vc\tools\msvc\14.10.25017\include\vector
;	COMDAT ?_Myfirst@?$_Vector_alloc@U?$_Vec_base_types@PAViParameter@sk@@V?$allocator@PAViParameter@sk@@@std@@@std@@@std@@QAEAAPAPAViParameter@sk@@XZ
_TEXT	SEGMENT
?_Myfirst@?$_Vector_alloc@U?$_Vec_base_types@PAViParameter@sk@@V?$allocator@PAViParameter@sk@@@std@@@std@@@std@@QAEAAPAPAViParameter@sk@@XZ PROC ; std::_Vector_alloc<std::_Vec_base_types<sk::iParameter *,std::allocator<sk::iParameter *> > >::_Myfirst, COMDAT
; _this$ = ecx

; 651  : 		return (_Get_data()._Myfirst);

	mov	eax, ecx

; 652  : 		}

	ret	0
?_Myfirst@?$_Vector_alloc@U?$_Vec_base_types@PAViParameter@sk@@V?$allocator@PAViParameter@sk@@@std@@@std@@@std@@QAEAAPAPAViParameter@sk@@XZ ENDP ; std::_Vector_alloc<std::_Vec_base_types<sk::iParameter *,std::allocator<sk::iParameter *> > >::_Myfirst
_TEXT	ENDS
; Function compile flags: /Ogtp
; File c:\program files (x86)\microsoft visual studio\2017\community\vc\tools\msvc\14.10.25017\include\vector
;	COMDAT ?_Get_data@?$_Vector_alloc@U?$_Vec_base_types@PAViParameter@sk@@V?$allocator@PAViParameter@sk@@@std@@@std@@@std@@QBEABV?$_Vector_val@U?$_Simple_types@PAViParameter@sk@@@std@@@2@XZ
_TEXT	SEGMENT
?_Get_data@?$_Vector_alloc@U?$_Vec_base_types@PAViParameter@sk@@V?$allocator@PAViParameter@sk@@@std@@@std@@@std@@QBEABV?$_Vector_val@U?$_Simple_types@PAViParameter@sk@@@std@@@2@XZ PROC ; std::_Vector_alloc<std::_Vec_base_types<sk::iParameter *,std::allocator<sk::iParameter *> > >::_Get_data, COMDAT
; _this$ = ecx

; 646  : 		return (_Mypair._Get_second());

	mov	eax, ecx

; 647  : 		}

	ret	0
?_Get_data@?$_Vector_alloc@U?$_Vec_base_types@PAViParameter@sk@@V?$allocator@PAViParameter@sk@@@std@@@std@@@std@@QBEABV?$_Vector_val@U?$_Simple_types@PAViParameter@sk@@@std@@@2@XZ ENDP ; std::_Vector_alloc<std::_Vec_base_types<sk::iParameter *,std::allocator<sk::iParameter *> > >::_Get_data
_TEXT	ENDS
; Function compile flags: /Ogtp
; File c:\program files (x86)\microsoft visual studio\2017\community\vc\tools\msvc\14.10.25017\include\vector
;	COMDAT ?_Get_data@?$_Vector_alloc@U?$_Vec_base_types@PAViParameter@sk@@V?$allocator@PAViParameter@sk@@@std@@@std@@@std@@QAEAAV?$_Vector_val@U?$_Simple_types@PAViParameter@sk@@@std@@@2@XZ
_TEXT	SEGMENT
?_Get_data@?$_Vector_alloc@U?$_Vec_base_types@PAViParameter@sk@@V?$allocator@PAViParameter@sk@@@std@@@std@@@std@@QAEAAV?$_Vector_val@U?$_Simple_types@PAViParameter@sk@@@std@@@2@XZ PROC ; std::_Vector_alloc<std::_Vec_base_types<sk::iParameter *,std::allocator<sk::iParameter *> > >::_Get_data, COMDAT
; _this$ = ecx

; 641  : 		return (_Mypair._Get_second());

	mov	eax, ecx

; 642  : 		}

	ret	0
?_Get_data@?$_Vector_alloc@U?$_Vec_base_types@PAViParameter@sk@@V?$allocator@PAViParameter@sk@@@std@@@std@@@std@@QAEAAV?$_Vector_val@U?$_Simple_types@PAViParameter@sk@@@std@@@2@XZ ENDP ; std::_Vector_alloc<std::_Vec_base_types<sk::iParameter *,std::allocator<sk::iParameter *> > >::_Get_data
_TEXT	ENDS
; Function compile flags: /Ogtp
; File c:\program files (x86)\microsoft visual studio\2017\community\vc\tools\msvc\14.10.25017\include\vector
;	COMDAT ?_Getal@?$_Vector_alloc@U?$_Vec_base_types@PAViParameter@sk@@V?$allocator@PAViParameter@sk@@@std@@@std@@@std@@QBEABU?$_Wrap_alloc@V?$allocator@PAViParameter@sk@@@std@@@2@XZ
_TEXT	SEGMENT
?_Getal@?$_Vector_alloc@U?$_Vec_base_types@PAViParameter@sk@@V?$allocator@PAViParameter@sk@@@std@@@std@@@std@@QBEABU?$_Wrap_alloc@V?$allocator@PAViParameter@sk@@@std@@@2@XZ PROC ; std::_Vector_alloc<std::_Vec_base_types<sk::iParameter *,std::allocator<sk::iParameter *> > >::_Getal, COMDAT
; _this$ = ecx

; 636  : 		return (_Mypair._Get_first());

	mov	eax, ecx

; 637  : 		}

	ret	0
?_Getal@?$_Vector_alloc@U?$_Vec_base_types@PAViParameter@sk@@V?$allocator@PAViParameter@sk@@@std@@@std@@@std@@QBEABU?$_Wrap_alloc@V?$allocator@PAViParameter@sk@@@std@@@2@XZ ENDP ; std::_Vector_alloc<std::_Vec_base_types<sk::iParameter *,std::allocator<sk::iParameter *> > >::_Getal
_TEXT	ENDS
; Function compile flags: /Ogtp
; File c:\program files (x86)\microsoft visual studio\2017\community\vc\tools\msvc\14.10.25017\include\vector
;	COMDAT ?_Getal@?$_Vector_alloc@U?$_Vec_base_types@PAViParameter@sk@@V?$allocator@PAViParameter@sk@@@std@@@std@@@std@@QAEAAU?$_Wrap_alloc@V?$allocator@PAViParameter@sk@@@std@@@2@XZ
_TEXT	SEGMENT
?_Getal@?$_Vector_alloc@U?$_Vec_base_types@PAViParameter@sk@@V?$allocator@PAViParameter@sk@@@std@@@std@@@std@@QAEAAU?$_Wrap_alloc@V?$allocator@PAViParameter@sk@@@std@@@2@XZ PROC ; std::_Vector_alloc<std::_Vec_base_types<sk::iParameter *,std::allocator<sk::iParameter *> > >::_Getal, COMDAT
; _this$ = ecx

; 631  : 		return (_Mypair._Get_first());

	mov	eax, ecx

; 632  : 		}

	ret	0
?_Getal@?$_Vector_alloc@U?$_Vec_base_types@PAViParameter@sk@@V?$allocator@PAViParameter@sk@@@std@@@std@@@std@@QAEAAU?$_Wrap_alloc@V?$allocator@PAViParameter@sk@@@std@@@2@XZ ENDP ; std::_Vector_alloc<std::_Vec_base_types<sk::iParameter *,std::allocator<sk::iParameter *> > >::_Getal
_TEXT	ENDS
; Function compile flags: /Ogtp
; File c:\program files (x86)\microsoft visual studio\2017\community\vc\tools\msvc\14.10.25017\include\vector
;	COMDAT ?_Orphan_all@?$_Vector_alloc@U?$_Vec_base_types@PAViParameter@sk@@V?$allocator@PAViParameter@sk@@@std@@@std@@@std@@QAEXXZ
_TEXT	SEGMENT
?_Orphan_all@?$_Vector_alloc@U?$_Vec_base_types@PAViParameter@sk@@V?$allocator@PAViParameter@sk@@@std@@@std@@@std@@QAEXXZ PROC ; std::_Vector_alloc<std::_Vec_base_types<sk::iParameter *,std::allocator<sk::iParameter *> > >::_Orphan_all, COMDAT
; _this$ = ecx

; 621  : 		_Get_data()._Orphan_all();
; 622  : 		}

	ret	0
?_Orphan_all@?$_Vector_alloc@U?$_Vec_base_types@PAViParameter@sk@@V?$allocator@PAViParameter@sk@@@std@@@std@@@std@@QAEXXZ ENDP ; std::_Vector_alloc<std::_Vec_base_types<sk::iParameter *,std::allocator<sk::iParameter *> > >::_Orphan_all
_TEXT	ENDS
; Function compile flags: /Ogtp
; File c:\program files (x86)\microsoft visual studio\2017\community\vc\tools\msvc\14.10.25017\include\xmemory0
;	COMDAT ?max_size@?$_Wrap_alloc@V?$allocator@PAViParameter@sk@@@std@@@std@@QBEIU_Nil@2@@Z
_TEXT	SEGMENT
___formal$ = 8						; size = 1
?max_size@?$_Wrap_alloc@V?$allocator@PAViParameter@sk@@@std@@@std@@QBEIU_Nil@2@@Z PROC ; std::_Wrap_alloc<std::allocator<sk::iParameter *> >::max_size, COMDAT
; _this$ = ecx

; 1108 : 		return (_Mytraits::max_size(*this));

	mov	eax, 1073741823				; 3fffffffH

; 1109 : 		}

	ret	4
?max_size@?$_Wrap_alloc@V?$allocator@PAViParameter@sk@@@std@@@std@@QBEIU_Nil@2@@Z ENDP ; std::_Wrap_alloc<std::allocator<sk::iParameter *> >::max_size
_TEXT	ENDS
; Function compile flags: /Ogtp
; File c:\program files (x86)\microsoft visual studio\2017\community\vc\tools\msvc\14.10.25017\include\xmemory0
;	COMDAT ?deallocate@?$_Wrap_alloc@V?$allocator@PAViParameter@sk@@@std@@@std@@QAEXPAPAViParameter@sk@@I@Z
_TEXT	SEGMENT
__Ptr$ = 8						; size = 4
__Count$ = 12						; size = 4
?deallocate@?$_Wrap_alloc@V?$allocator@PAViParameter@sk@@@std@@@std@@QAEXPAPAViParameter@sk@@I@Z PROC ; std::_Wrap_alloc<std::allocator<sk::iParameter *> >::deallocate, COMDAT
; _this$ = ecx

; 1087 : 		{	// deallocate object at _Ptr, ignore size

	npad	2
	push	ebp
	mov	ebp, esp

; 823  : 		_Deallocate(_Ptr, _Count, sizeof (_Ty));

	push	4
	push	DWORD PTR __Count$[ebp]
	push	DWORD PTR __Ptr$[ebp]
	call	?_Deallocate@std@@YAXPAXII@Z		; std::_Deallocate
	add	esp, 12					; 0000000cH

; 1088 : 		_Mybase::deallocate(_Ptr, _Count);
; 1089 : 		}

	pop	ebp
	ret	8
?deallocate@?$_Wrap_alloc@V?$allocator@PAViParameter@sk@@@std@@@std@@QAEXPAPAViParameter@sk@@I@Z ENDP ; std::_Wrap_alloc<std::allocator<sk::iParameter *> >::deallocate
_TEXT	ENDS
; Function compile flags: /Ogtp
; File c:\program files (x86)\microsoft visual studio\2017\community\vc\tools\msvc\14.10.25017\include\xmemory0
;	COMDAT ?allocate@?$_Wrap_alloc@V?$allocator@PAViParameter@sk@@@std@@@std@@QAEPAPAViParameter@sk@@I@Z
_TEXT	SEGMENT
__Count$ = 8						; size = 4
?allocate@?$_Wrap_alloc@V?$allocator@PAViParameter@sk@@@std@@@std@@QAEPAPAViParameter@sk@@I@Z PROC ; std::_Wrap_alloc<std::allocator<sk::iParameter *> >::allocate, COMDAT
; _this$ = ecx

; 1076 : 		{	// allocate array of _Count elements

	npad	2
	push	ebp
	mov	ebp, esp

; 1078 : 		}

	pop	ebp

; 1077 : 		return (_Mybase::allocate(_Count));

	jmp	?allocate@?$allocator@PAViParameter@sk@@@std@@QAEPAPAViParameter@sk@@I@Z ; std::allocator<sk::iParameter *>::allocate
?allocate@?$_Wrap_alloc@V?$allocator@PAViParameter@sk@@@std@@@std@@QAEPAPAViParameter@sk@@I@Z ENDP ; std::_Wrap_alloc<std::allocator<sk::iParameter *> >::allocate
_TEXT	ENDS
; Function compile flags: /Ogtp
; File c:\program files (x86)\microsoft visual studio\2017\community\vc\tools\msvc\14.10.25017\include\xmemory0
;	COMDAT ?max_size@?$allocator_traits@V?$allocator@PAViParameter@sk@@@std@@@std@@SAIABV?$allocator@PAViParameter@sk@@@2@@Z
_TEXT	SEGMENT
__Al$ = 8						; size = 4
?max_size@?$allocator_traits@V?$allocator@PAViParameter@sk@@@std@@@std@@SAIABV?$allocator@PAViParameter@sk@@@2@@Z PROC ; std::allocator_traits<std::allocator<sk::iParameter *> >::max_size, COMDAT

; 970  : 		return (_Al.max_size());

	mov	eax, 1073741823				; 3fffffffH

; 971  : 		}

	ret	0
?max_size@?$allocator_traits@V?$allocator@PAViParameter@sk@@@std@@@std@@SAIABV?$allocator@PAViParameter@sk@@@2@@Z ENDP ; std::allocator_traits<std::allocator<sk::iParameter *> >::max_size
_TEXT	ENDS
; Function compile flags: /Ogtp
; File c:\program files (x86)\microsoft visual studio\2017\community\vc\tools\msvc\14.10.25017\include\xmemory0
;	COMDAT ?max_size@?$allocator@PAViParameter@sk@@@std@@QBEIXZ
_TEXT	SEGMENT
?max_size@?$allocator@PAViParameter@sk@@@std@@QBEIXZ PROC ; std::allocator<sk::iParameter *>::max_size, COMDAT
; _this$ = ecx

; 851  : 		return ((size_t)(-1) / sizeof (_Ty));

	mov	eax, 1073741823				; 3fffffffH

; 852  : 		}

	ret	0
?max_size@?$allocator@PAViParameter@sk@@@std@@QBEIXZ ENDP ; std::allocator<sk::iParameter *>::max_size
_TEXT	ENDS
; Function compile flags: /Ogtp
; File c:\program files (x86)\microsoft visual studio\2017\community\vc\tools\msvc\14.10.25017\include\xmemory0
;	COMDAT ?allocate@?$allocator@PAViParameter@sk@@@std@@QAEPAPAViParameter@sk@@I@Z
_TEXT	SEGMENT
__Count$ = 8						; size = 4
?allocate@?$allocator@PAViParameter@sk@@@std@@QAEPAPAViParameter@sk@@I@Z PROC ; std::allocator<sk::iParameter *>::allocate, COMDAT
; _this$ = ecx

; 827  : 		{	// allocate array of _Count elements

	npad	2
	push	ebp
	mov	ebp, esp

; 53   : 	if (_Count == 0)

	mov	eax, DWORD PTR __Count$[ebp]
	test	eax, eax
	jne	SHORT $LN4@allocate
$LN12@allocate:

; 828  : 		return (static_cast<pointer>(_Allocate(_Count, sizeof (_Ty))));
; 829  : 		}

	pop	ebp
	ret	4
$LN4@allocate:

; 57   : 	if ((size_t)(-1) / _Sz < _Count)

	cmp	eax, 1073741823				; 3fffffffH
	jbe	SHORT $LN5@allocate

; 58   : 		_Xbad_alloc();	// report no memory

	call	DWORD PTR __imp_?_Xbad_alloc@std@@YAXXZ
$LN15@allocate:
$LN5@allocate:

; 59   : 	const size_t _User_size = _Count * _Sz;

	shl	eax, 2

; 60   : 
; 61   :  #if defined(_M_IX86) || defined(_M_X64)
; 62   : 	if (_Try_aligned_allocation
; 63   : 		&& _BIG_ALLOCATION_THRESHOLD <= _User_size)

	cmp	eax, 4096				; 00001000H
	jb	SHORT $LN6@allocate

; 64   : 		{	// allocate large block
; 65   : 		static_assert(sizeof (void *) < _BIG_ALLOCATION_ALIGNMENT,
; 66   : 			"Big allocations should at least match vector register size");
; 67   : 		const size_t _Block_size = _NON_USER_SIZE + _User_size;

	lea	ecx, DWORD PTR [eax+35]

; 68   : 		if (_Block_size <= _User_size)

	cmp	ecx, eax
	ja	SHORT $LN8@allocate

; 69   : 			_Xbad_alloc();	// report no memory

	call	DWORD PTR __imp_?_Xbad_alloc@std@@YAXXZ
$LN16@allocate:
$LN8@allocate:

; 70   : 		const uintptr_t _Ptr_container =
; 71   : 			reinterpret_cast<uintptr_t>(::operator new(_Block_size));

	push	ecx
	call	??2@YAPAXI@Z				; operator new
	mov	ecx, eax
	add	esp, 4

; 72   : 		_SCL_SECURE_ALWAYS_VALIDATE(_Ptr_container != 0);

	test	ecx, ecx
	jne	SHORT $LN9@allocate
	call	DWORD PTR __imp___invalid_parameter_noinfo_noreturn
$LN17@allocate:
$LN9@allocate:

; 73   : 		_Ptr = reinterpret_cast<void *>((_Ptr_container + _NON_USER_SIZE)

	lea	eax, DWORD PTR [ecx+35]
	and	eax, -32				; ffffffe0H

; 74   : 			& ~(_BIG_ALLOCATION_ALIGNMENT - 1));
; 75   : 		static_cast<uintptr_t *>(_Ptr)[-1] = _Ptr_container;

	mov	DWORD PTR [eax-4], ecx

; 828  : 		return (static_cast<pointer>(_Allocate(_Count, sizeof (_Ty))));
; 829  : 		}

	pop	ebp
	ret	4
$LN6@allocate:

; 87   : 		_Ptr = ::operator new(_User_size);

	push	eax
	call	??2@YAPAXI@Z				; operator new
	add	esp, 4

; 88   : 		_SCL_SECURE_ALWAYS_VALIDATE(_Ptr != 0);

	test	eax, eax
	jne	SHORT $LN12@allocate
	call	DWORD PTR __imp___invalid_parameter_noinfo_noreturn
$LN18@allocate:
$LN14@allocate:
	int	3
?allocate@?$allocator@PAViParameter@sk@@@std@@QAEPAPAViParameter@sk@@I@Z ENDP ; std::allocator<sk::iParameter *>::allocate
_TEXT	ENDS
; Function compile flags: /Ogtp
; File c:\program files (x86)\microsoft visual studio\2017\community\vc\tools\msvc\14.10.25017\include\xmemory0
;	COMDAT ?deallocate@?$allocator@PAViParameter@sk@@@std@@QAEXPAPAViParameter@sk@@I@Z
_TEXT	SEGMENT
__Ptr$ = 8						; size = 4
__Count$ = 12						; size = 4
?deallocate@?$allocator@PAViParameter@sk@@@std@@QAEXPAPAViParameter@sk@@I@Z PROC ; std::allocator<sk::iParameter *>::deallocate, COMDAT
; _this$ = ecx

; 822  : 		{	// deallocate object at _Ptr

	npad	2
	push	ebp
	mov	ebp, esp

; 823  : 		_Deallocate(_Ptr, _Count, sizeof (_Ty));

	push	4
	push	DWORD PTR __Count$[ebp]
	push	DWORD PTR __Ptr$[ebp]
	call	?_Deallocate@std@@YAXPAXII@Z		; std::_Deallocate
	add	esp, 12					; 0000000cH

; 824  : 		}

	pop	ebp
	ret	8
?deallocate@?$allocator@PAViParameter@sk@@@std@@QAEXPAPAViParameter@sk@@I@Z ENDP ; std::allocator<sk::iParameter *>::deallocate
_TEXT	ENDS
; Function compile flags: /Ogtp
; File c:\program files (x86)\microsoft visual studio\2017\community\vc\tools\msvc\14.10.25017\include\typeindex
; File c:\program files (x86)\microsoft visual studio\2017\community\vc\tools\msvc\14.10.25017\include\iosfwd
; File c:\program files (x86)\microsoft visual studio\2017\community\vc\tools\msvc\14.10.25017\include\xstring
; File c:\program files (x86)\microsoft visual studio\2017\community\vc\tools\msvc\14.10.25017\include\iosfwd
; File c:\program files (x86)\microsoft visual studio\2017\community\vc\tools\msvc\14.10.25017\include\xstring
; File c:\program files (x86)\microsoft visual studio\2017\community\vc\tools\msvc\14.10.25017\include\iosfwd
; File c:\users\andon\source\repos\specialk\include\specialk\parameter.h
; File c:\program files (x86)\microsoft visual studio\2017\community\vc\tools\msvc\14.10.25017\include\typeindex
;	COMDAT ??0ParameterVec2f@sk@@QAE@XZ
_TEXT	SEGMENT
_this$ = -4						; size = 4
??0ParameterVec2f@sk@@QAE@XZ PROC			; sk::ParameterVec2f::ParameterVec2f, COMDAT
; _this$ = ecx
	npad	2
	push	ebp
	mov	ebp, esp
	push	ecx

; 19   : 		: _Tptr(&_Tinfo)

	mov	DWORD PTR [ecx+4], OFFSET ??_R0?AViParameter@sk@@@8
; File c:\program files (x86)\microsoft visual studio\2017\community\vc\tools\msvc\14.10.25017\include\iosfwd

; 326  : 		_Left = _Right;

	xor	eax, eax
; File c:\program files (x86)\microsoft visual studio\2017\community\vc\tools\msvc\14.10.25017\include\xstring

; 3597 : 		_My_data._Mysize = 0;

	mov	DWORD PTR [ecx+28], 0

; 3598 : 		_My_data._Myres = this->_BUF_SIZE - 1;

	mov	DWORD PTR [ecx+32], 7
; File c:\program files (x86)\microsoft visual studio\2017\community\vc\tools\msvc\14.10.25017\include\iosfwd

; 326  : 		_Left = _Right;

	mov	WORD PTR [ecx+12], ax
; File c:\program files (x86)\microsoft visual studio\2017\community\vc\tools\msvc\14.10.25017\include\xstring

; 3597 : 		_My_data._Mysize = 0;

	mov	DWORD PTR [ecx+52], eax

; 3598 : 		_My_data._Myres = this->_BUF_SIZE - 1;

	mov	DWORD PTR [ecx+56], 7
; File c:\program files (x86)\microsoft visual studio\2017\community\vc\tools\msvc\14.10.25017\include\iosfwd

; 326  : 		_Left = _Right;

	mov	WORD PTR [ecx+36], ax
; File c:\users\andon\source\repos\specialk\include\specialk\parameter.h

; 53   :     ini        = nullptr;

	mov	DWORD PTR [ecx+8], eax

; 36   :     ImVec2 (void)               { x = y = 0.0f;   }

	mov	DWORD PTR [ecx+64], eax
	mov	DWORD PTR [ecx+60], eax
	mov	eax, ecx
; File c:\program files (x86)\microsoft visual studio\2017\community\vc\tools\msvc\14.10.25017\include\typeindex

; 19   : 		: _Tptr(&_Tinfo)

	mov	DWORD PTR [ecx+68], OFFSET ??_R0?AUImVec2@@@8
	mov	DWORD PTR _this$[ebp], ecx
	mov	DWORD PTR [ecx], OFFSET ??_7ParameterVec2f@sk@@6B@
	mov	esp, ebp
	pop	ebp
	ret	0
??0ParameterVec2f@sk@@QAE@XZ ENDP			; sk::ParameterVec2f::ParameterVec2f
_TEXT	ENDS
; Function compile flags: /Ogtp
; File c:\users\andon\source\repos\specialk\src\parameter.cpp
_TEXT	SEGMENT
$T1 = -8						; size = 8
_ref$ = 8						; size = 4
?load@ParameterVec2f@sk@@UAE_NAAUImVec2@@@Z PROC	; sk::ParameterVec2f::load
; _this$ = ecx

; 479  : {

	npad	2
	push	ebp
	mov	ebp, esp
	sub	esp, 8
	push	ebx
	push	esi
	mov	esi, ecx

; 480  :   bool bRet = 
; 481  :     iParameter::load ();

	call	?load@iParameter@sk@@QAE_NXZ		; sk::iParameter::load
	mov	bl, al

; 482  : 
; 483  :   if (bRet)

	test	bl, bl
	je	SHORT $LN4@load

; 484  :     ref = get_value ();

	mov	edx, DWORD PTR [esi]
	lea	eax, DWORD PTR $T1[ebp]
	push	eax
	mov	ecx, esi
	call	DWORD PTR [edx+8]
	mov	edx, DWORD PTR _ref$[ebp]
	mov	ecx, DWORD PTR [eax]
	mov	DWORD PTR [edx], ecx
	mov	eax, DWORD PTR [eax+4]
	mov	DWORD PTR [edx+4], eax
$LN4@load:

; 485  : 
; 486  :   return bRet;

	pop	esi
	mov	al, bl
	pop	ebx

; 487  : }

	mov	esp, ebp
	pop	ebp
	ret	4
?load@ParameterVec2f@sk@@UAE_NAAUImVec2@@@Z ENDP	; sk::ParameterVec2f::load
_TEXT	ENDS
; Function compile flags: /Ogtp
; File c:\users\andon\source\repos\specialk\src\parameter.cpp
; File c:\program files (x86)\microsoft visual studio\2017\community\vc\tools\msvc\14.10.25017\include\iosfwd
; File c:\program files (x86)\microsoft visual studio\2017\community\vc\tools\msvc\14.10.25017\include\xstring
; File c:\program files (x86)\microsoft visual studio\2017\community\vc\tools\msvc\14.10.25017\include\iosfwd
; File c:\program files (x86)\microsoft visual studio\2017\community\vc\tools\msvc\14.10.25017\include\xstring
; File c:\users\andon\source\repos\specialk\src\parameter.cpp
; File c:\program files (x86)\microsoft visual studio\2017\community\vc\tools\msvc\14.10.25017\include\xstring
; File c:\program files (x86)\microsoft visual studio\2017\community\vc\tools\msvc\14.10.25017\include\xmemory0
; File c:\program files (x86)\microsoft visual studio\2017\community\vc\tools\msvc\14.10.25017\include\xstring
; File c:\program files (x86)\microsoft visual studio\2017\community\vc\tools\msvc\14.10.25017\include\xmemory0
; File c:\users\andon\source\repos\specialk\src\parameter.cpp
_TEXT	SEGMENT
__$EHRec$ = -12						; size = 12
_str$ = 8						; size = 24
?store_str@ParameterVec2f@sk@@UAEXV?$basic_string@_WU?$char_traits@_W@std@@V?$allocator@_W@2@@std@@@Z PROC ; sk::ParameterVec2f::store_str
; _this$ = ecx

; 472  : {

	npad	2
	push	ebp
	mov	ebp, esp
	push	-1
	push	__ehhandler$?store_str@ParameterVec2f@sk@@UAEXV?$basic_string@_WU?$char_traits@_W@std@@V?$allocator@_W@2@@std@@@Z
	mov	eax, DWORD PTR fs:0
	push	eax
	mov	DWORD PTR fs:0, esp
	push	ecx
	push	esi
	mov	esi, ecx

; 473  :   set_value_str  (str);

	sub	esp, 24					; 00000018H
	mov	DWORD PTR __$EHRec$[ebp+8], 0
	mov	ecx, esp
; File c:\program files (x86)\microsoft visual studio\2017\community\vc\tools\msvc\14.10.25017\include\iosfwd

; 326  : 		_Left = _Right;

	xor	eax, eax
; File c:\program files (x86)\microsoft visual studio\2017\community\vc\tools\msvc\14.10.25017\include\xstring

; 2174 : 		assign(_Right, 0, npos);

	push	-1

; 3597 : 		_My_data._Mysize = 0;

	mov	DWORD PTR [ecx+16], 0

; 3598 : 		_My_data._Myres = this->_BUF_SIZE - 1;

	mov	DWORD PTR [ecx+20], 7

; 2174 : 		assign(_Right, 0, npos);

	push	eax
; File c:\program files (x86)\microsoft visual studio\2017\community\vc\tools\msvc\14.10.25017\include\iosfwd

; 326  : 		_Left = _Right;

	mov	WORD PTR [ecx], ax
; File c:\program files (x86)\microsoft visual studio\2017\community\vc\tools\msvc\14.10.25017\include\xstring

; 2174 : 		assign(_Right, 0, npos);

	lea	eax, DWORD PTR _str$[ebp]
	push	eax
	call	?assign@?$basic_string@_WU?$char_traits@_W@std@@V?$allocator@_W@2@@std@@QAEAAV12@ABV12@II@Z ; std::basic_string<wchar_t,std::char_traits<wchar_t>,std::allocator<wchar_t> >::assign
; File c:\users\andon\source\repos\specialk\src\parameter.cpp

; 473  :   set_value_str  (str);

	mov	eax, DWORD PTR [esi]
	mov	ecx, esi
	call	DWORD PTR [eax+4]

; 474  :   iParameter::store ();

	mov	ecx, esi
	call	?store@iParameter@sk@@QAE_NXZ		; sk::iParameter::store
; File c:\program files (x86)\microsoft visual studio\2017\community\vc\tools\msvc\14.10.25017\include\xstring

; 1628 : 		return (this->_BUF_SIZE <= _Myres);

	mov	eax, DWORD PTR _str$[ebp+20]
	cmp	eax, 8

; 3608 : 		if (_My_data._Large_string_engaged())

	jb	SHORT $LN49@store_str
; File c:\program files (x86)\microsoft visual studio\2017\community\vc\tools\msvc\14.10.25017\include\xmemory0

; 823  : 		_Deallocate(_Ptr, _Count, sizeof (_Ty));

	push	2
; File c:\program files (x86)\microsoft visual studio\2017\community\vc\tools\msvc\14.10.25017\include\xstring

; 3613 : 			_Al.deallocate(_Ptr, _My_data._Myres + 1);

	inc	eax
; File c:\program files (x86)\microsoft visual studio\2017\community\vc\tools\msvc\14.10.25017\include\xmemory0

; 823  : 		_Deallocate(_Ptr, _Count, sizeof (_Ty));

	push	eax
	push	DWORD PTR _str$[ebp]
	call	?_Deallocate@std@@YAXPAXII@Z		; std::_Deallocate
	add	esp, 12					; 0000000cH
$LN49@store_str:
; File c:\users\andon\source\repos\specialk\src\parameter.cpp

; 475  : }

	mov	ecx, DWORD PTR __$EHRec$[ebp]
	mov	DWORD PTR fs:0, ecx
	pop	esi
	mov	esp, ebp
	pop	ebp
	ret	24					; 00000018H
_TEXT	ENDS
text$x	SEGMENT
__unwindfunclet$?store_str@ParameterVec2f@sk@@UAEXV?$basic_string@_WU?$char_traits@_W@std@@V?$allocator@_W@2@@std@@@Z$0:
	lea	ecx, DWORD PTR _str$[ebp]
	jmp	??1?$basic_string@_WU?$char_traits@_W@std@@V?$allocator@_W@2@@std@@QAE@XZ ; std::basic_string<wchar_t,std::char_traits<wchar_t>,std::allocator<wchar_t> >::~basic_string<wchar_t,std::char_traits<wchar_t>,std::allocator<wchar_t> >
__ehhandler$?store_str@ParameterVec2f@sk@@UAEXV?$basic_string@_WU?$char_traits@_W@std@@V?$allocator@_W@2@@std@@@Z:
	mov	eax, OFFSET __ehfuncinfo$?store_str@ParameterVec2f@sk@@UAEXV?$basic_string@_WU?$char_traits@_W@std@@V?$allocator@_W@2@@std@@@Z
	jmp	___CxxFrameHandler3
text$x	ENDS
?store_str@ParameterVec2f@sk@@UAEXV?$basic_string@_WU?$char_traits@_W@std@@V?$allocator@_W@2@@std@@@Z ENDP ; sk::ParameterVec2f::store_str
; Function compile flags: /Ogtp
; File c:\users\andon\source\repos\specialk\src\parameter.cpp
_TEXT	SEGMENT
_val$ = 8						; size = 8
?store@ParameterVec2f@sk@@UAEXUImVec2@@@Z PROC		; sk::ParameterVec2f::store
; _this$ = ecx

; 465  : {

	npad	2
	push	ebp
	mov	ebp, esp
	push	esi

; 466  :   set_value      (val);

	push	DWORD PTR _val$[ebp+4]
	mov	esi, ecx
	push	DWORD PTR _val$[ebp]
	mov	eax, DWORD PTR [esi]
	call	DWORD PTR [eax+12]

; 467  :   iParameter::store ();

	mov	ecx, esi
	call	?store@iParameter@sk@@QAE_NXZ		; sk::iParameter::store
	pop	esi

; 468  : }

	pop	ebp
	ret	8
?store@ParameterVec2f@sk@@UAEXUImVec2@@@Z ENDP		; sk::ParameterVec2f::store
_TEXT	ENDS
; Function compile flags: /Ogtp
; File c:\users\andon\source\repos\specialk\src\parameter.cpp
; File c:\program files (x86)\microsoft visual studio\2017\community\vc\tools\msvc\14.10.25017\include\xstring
; File c:\users\andon\source\repos\specialk\src\parameter.cpp
; File c:\program files (x86)\microsoft visual studio\2017\community\vc\tools\msvc\14.10.25017\include\xstring
; File c:\users\andon\source\repos\specialk\src\parameter.cpp
; File c:\program files (x86)\microsoft visual studio\2017\community\vc\tools\msvc\14.10.25017\include\xstring
; File c:\users\andon\source\repos\specialk\src\parameter.cpp
; File c:\program files (x86)\microsoft visual studio\2017\community\vc\tools\msvc\14.10.25017\include\xstring
; File c:\program files (x86)\microsoft visual studio\2017\community\vc\tools\msvc\14.10.25017\include\xmemory0
; File c:\program files (x86)\microsoft visual studio\2017\community\vc\tools\msvc\14.10.25017\include\xstring
; File c:\program files (x86)\microsoft visual studio\2017\community\vc\tools\msvc\14.10.25017\include\xmemory0
; File c:\users\andon\source\repos\specialk\src\parameter.cpp
_TEXT	SEGMENT
_str$ = 8						; size = 24
?set_value_str@ParameterVec2f@sk@@UAEXV?$basic_string@_WU?$char_traits@_W@std@@V?$allocator@_W@2@@std@@@Z PROC ; sk::ParameterVec2f::set_value_str
; _this$ = ecx

; 459  : {

	npad	2
	push	ebp
	mov	ebp, esp
; File c:\program files (x86)\microsoft visual studio\2017\community\vc\tools\msvc\14.10.25017\include\xstring

; 1628 : 		return (this->_BUF_SIZE <= _Myres);

	cmp	DWORD PTR _str$[ebp+20], 8
; File c:\users\andon\source\repos\specialk\src\parameter.cpp

; 460  :   swscanf (str.c_str (), L"(%f,%f)", &value.x, &value.y);

	lea	eax, DWORD PTR [ecx+64]
	push	eax
	lea	eax, DWORD PTR [ecx+60]
	push	eax
; File c:\program files (x86)\microsoft visual studio\2017\community\vc\tools\msvc\14.10.25017\include\xstring

; 1621 : 		return (_Large_string_engaged()

	lea	edx, DWORD PTR _str$[ebp]
	cmovae	edx, DWORD PTR _str$[ebp]
; File c:\users\andon\source\repos\specialk\src\parameter.cpp

; 460  :   swscanf (str.c_str (), L"(%f,%f)", &value.x, &value.y);

	push	OFFSET $SG133553
	push	edx
	call	_swscanf
; File c:\program files (x86)\microsoft visual studio\2017\community\vc\tools\msvc\14.10.25017\include\xstring

; 1628 : 		return (this->_BUF_SIZE <= _Myres);

	mov	eax, DWORD PTR _str$[ebp+20]
; File c:\users\andon\source\repos\specialk\src\parameter.cpp

; 460  :   swscanf (str.c_str (), L"(%f,%f)", &value.x, &value.y);

	add	esp, 16					; 00000010H
; File c:\program files (x86)\microsoft visual studio\2017\community\vc\tools\msvc\14.10.25017\include\xstring

; 1628 : 		return (this->_BUF_SIZE <= _Myres);

	cmp	eax, 8

; 3608 : 		if (_My_data._Large_string_engaged())

	jb	SHORT $LN27@set_value_
; File c:\program files (x86)\microsoft visual studio\2017\community\vc\tools\msvc\14.10.25017\include\xmemory0

; 823  : 		_Deallocate(_Ptr, _Count, sizeof (_Ty));

	push	2
; File c:\program files (x86)\microsoft visual studio\2017\community\vc\tools\msvc\14.10.25017\include\xstring

; 3613 : 			_Al.deallocate(_Ptr, _My_data._Myres + 1);

	inc	eax
; File c:\program files (x86)\microsoft visual studio\2017\community\vc\tools\msvc\14.10.25017\include\xmemory0

; 823  : 		_Deallocate(_Ptr, _Count, sizeof (_Ty));

	push	eax
	push	DWORD PTR _str$[ebp]
	call	?_Deallocate@std@@YAXPAXII@Z		; std::_Deallocate
	add	esp, 12					; 0000000cH
$LN27@set_value_:
; File c:\users\andon\source\repos\specialk\src\parameter.cpp

; 461  : }

	pop	ebp
	ret	24					; 00000018H
?set_value_str@ParameterVec2f@sk@@UAEXV?$basic_string@_WU?$char_traits@_W@std@@V?$allocator@_W@2@@std@@@Z ENDP ; sk::ParameterVec2f::set_value_str
_TEXT	ENDS
; Function compile flags: /Ogtp
; File c:\users\andon\source\repos\specialk\src\parameter.cpp
_TEXT	SEGMENT
_val$ = 8						; size = 8
?set_value@ParameterVec2f@sk@@UAEXUImVec2@@@Z PROC	; sk::ParameterVec2f::set_value
; _this$ = ecx

; 453  : {

	npad	2
	push	ebp
	mov	ebp, esp

; 454  :   value = val;

	mov	eax, DWORD PTR _val$[ebp]
	mov	DWORD PTR [ecx+60], eax
	mov	eax, DWORD PTR _val$[ebp+4]
	mov	DWORD PTR [ecx+64], eax

; 455  : }

	pop	ebp
	ret	8
?set_value@ParameterVec2f@sk@@UAEXUImVec2@@@Z ENDP	; sk::ParameterVec2f::set_value
_TEXT	ENDS
; Function compile flags: /Ogtp
; File c:\users\andon\source\repos\specialk\src\parameter.cpp
_TEXT	SEGMENT
___$ReturnUdt$ = 8					; size = 4
?get_value@ParameterVec2f@sk@@UAE?AUImVec2@@XZ PROC	; sk::ParameterVec2f::get_value
; _this$ = ecx

; 447  : {

	npad	2
	push	ebp
	mov	ebp, esp

; 448  :   return value;

	mov	eax, DWORD PTR ___$ReturnUdt$[ebp]
	mov	edx, DWORD PTR [ecx+60]
	mov	ecx, DWORD PTR [ecx+64]
	mov	DWORD PTR [eax], edx
	mov	DWORD PTR [eax+4], ecx

; 449  : }

	pop	ebp
	ret	4
?get_value@ParameterVec2f@sk@@UAE?AUImVec2@@XZ ENDP	; sk::ParameterVec2f::get_value
_TEXT	ENDS
; Function compile flags: /Ogtp
; File c:\users\andon\source\repos\specialk\src\parameter.cpp
_TEXT	SEGMENT
_x_str$ = -68						; size = 32
_y_str$ = -36						; size = 32
$T1 = -4						; size = 4
___$ReturnUdt$ = 8					; size = 4
?get_value_str@ParameterVec2f@sk@@UAE?AV?$basic_string@_WU?$char_traits@_W@std@@V?$allocator@_W@2@@std@@XZ PROC ; sk::ParameterVec2f::get_value_str
; _this$ = ecx

; 432  : {

	npad	2
	push	ebp
	mov	ebp, esp
	sub	esp, 68					; 00000044H
	push	esi
	xorps	xmm0, xmm0
	mov	DWORD PTR $T1[ebp], 0
	mov	esi, ecx

; 433  :   wchar_t x_str [16] = { };
; 434  :   wchar_t y_str [16] = { };
; 435  : 
; 436  :   swprintf (x_str, L"%f", value.x);

	lea	eax, DWORD PTR _x_str$[ebp]
	movups	XMMWORD PTR _x_str$[ebp], xmm0
	sub	esp, 8
	movups	XMMWORD PTR _x_str$[ebp+16], xmm0
	movups	XMMWORD PTR _y_str$[ebp], xmm0
	movups	XMMWORD PTR _y_str$[ebp+16], xmm0
	movss	xmm0, DWORD PTR [esi+60]
	cvtps2pd xmm0, xmm0
	movsd	QWORD PTR [esp], xmm0
	push	OFFSET $SG133537
	push	eax
	call	?swprintf@@YAHQA_WQB_WZZ		; swprintf
	movss	xmm0, DWORD PTR [esi+64]

; 437  :   swprintf (y_str, L"%f", value.y);

	lea	eax, DWORD PTR _y_str$[ebp]
	cvtps2pd xmm0, xmm0
	add	esp, 8
	movsd	QWORD PTR [esp], xmm0
	push	OFFSET $SG133538
	push	eax
	call	?swprintf@@YAHQA_WQB_WZZ		; swprintf

; 438  : 
; 439  :   SK_RemoveTrailingDecimalZeros (x_str);

	lea	eax, DWORD PTR _x_str$[ebp]
	push	0
	push	eax
	call	?SK_RemoveTrailingDecimalZeros@@YAIPA_WI@Z ; SK_RemoveTrailingDecimalZeros

; 440  :   SK_RemoveTrailingDecimalZeros (y_str);

	lea	eax, DWORD PTR _y_str$[ebp]
	push	0
	push	eax
	call	?SK_RemoveTrailingDecimalZeros@@YAIPA_WI@Z ; SK_RemoveTrailingDecimalZeros

; 441  : 
; 442  :   return SK_FormatStringW (L"(%s,%s)", x_str, y_str);

	mov	esi, DWORD PTR ___$ReturnUdt$[ebp]
	lea	eax, DWORD PTR _y_str$[ebp]
	push	eax
	lea	eax, DWORD PTR _x_str$[ebp]
	push	eax
	push	OFFSET $SG133539
	push	esi
	call	?SK_FormatStringW@@YA?AV?$basic_string@_WU?$char_traits@_W@std@@V?$allocator@_W@2@@std@@QB_WZZ ; SK_FormatStringW
	add	esp, 48					; 00000030H
	mov	eax, esi
	pop	esi

; 443  : }

	mov	esp, ebp
	pop	ebp
	ret	4
?get_value_str@ParameterVec2f@sk@@UAE?AV?$basic_string@_WU?$char_traits@_W@std@@V?$allocator@_W@2@@std@@XZ ENDP ; sk::ParameterVec2f::get_value_str
_TEXT	ENDS
; Function compile flags: /Ogtp
;	COMDAT ??1?$Parameter@UImVec2@@@sk@@QAE@XZ
_TEXT	SEGMENT
??1?$Parameter@UImVec2@@@sk@@QAE@XZ PROC		; sk::Parameter<ImVec2>::~Parameter<ImVec2>, COMDAT
; _this$ = ecx
	jmp	??1iParameter@sk@@QAE@XZ
??1?$Parameter@UImVec2@@@sk@@QAE@XZ ENDP		; sk::Parameter<ImVec2>::~Parameter<ImVec2>
_TEXT	ENDS
; Function compile flags: /Ogtp
; File c:\program files (x86)\microsoft visual studio\2017\community\vc\tools\msvc\14.10.25017\include\typeindex
; File c:\program files (x86)\microsoft visual studio\2017\community\vc\tools\msvc\14.10.25017\include\iosfwd
; File c:\program files (x86)\microsoft visual studio\2017\community\vc\tools\msvc\14.10.25017\include\xstring
; File c:\program files (x86)\microsoft visual studio\2017\community\vc\tools\msvc\14.10.25017\include\iosfwd
; File c:\program files (x86)\microsoft visual studio\2017\community\vc\tools\msvc\14.10.25017\include\xstring
; File c:\program files (x86)\microsoft visual studio\2017\community\vc\tools\msvc\14.10.25017\include\iosfwd
; File c:\users\andon\source\repos\specialk\include\specialk\parameter.h
; File c:\program files (x86)\microsoft visual studio\2017\community\vc\tools\msvc\14.10.25017\include\typeindex
;	COMDAT ??0?$Parameter@UImVec2@@@sk@@QAE@XZ
_TEXT	SEGMENT
_this$ = -4						; size = 4
??0?$Parameter@UImVec2@@@sk@@QAE@XZ PROC		; sk::Parameter<ImVec2>::Parameter<ImVec2>, COMDAT
; _this$ = ecx
	npad	2
	push	ebp
	mov	ebp, esp
	push	ecx

; 19   : 		: _Tptr(&_Tinfo)

	mov	DWORD PTR [ecx+4], OFFSET ??_R0?AViParameter@sk@@@8
; File c:\program files (x86)\microsoft visual studio\2017\community\vc\tools\msvc\14.10.25017\include\iosfwd

; 326  : 		_Left = _Right;

	xor	eax, eax
; File c:\program files (x86)\microsoft visual studio\2017\community\vc\tools\msvc\14.10.25017\include\xstring

; 3597 : 		_My_data._Mysize = 0;

	mov	DWORD PTR [ecx+28], 0

; 3598 : 		_My_data._Myres = this->_BUF_SIZE - 1;

	mov	DWORD PTR [ecx+32], 7
; File c:\program files (x86)\microsoft visual studio\2017\community\vc\tools\msvc\14.10.25017\include\iosfwd

; 326  : 		_Left = _Right;

	mov	WORD PTR [ecx+12], ax
; File c:\program files (x86)\microsoft visual studio\2017\community\vc\tools\msvc\14.10.25017\include\xstring

; 3597 : 		_My_data._Mysize = 0;

	mov	DWORD PTR [ecx+52], eax

; 3598 : 		_My_data._Myres = this->_BUF_SIZE - 1;

	mov	DWORD PTR [ecx+56], 7
; File c:\program files (x86)\microsoft visual studio\2017\community\vc\tools\msvc\14.10.25017\include\iosfwd

; 326  : 		_Left = _Right;

	mov	WORD PTR [ecx+36], ax
; File c:\users\andon\source\repos\specialk\include\specialk\parameter.h

; 53   :     ini        = nullptr;

	mov	DWORD PTR [ecx+8], eax
	mov	DWORD PTR [ecx], OFFSET ??_7?$Parameter@UImVec2@@@sk@@6B@

; 36   :     ImVec2 (void)               { x = y = 0.0f;   }

	mov	DWORD PTR [ecx+64], eax
	mov	DWORD PTR [ecx+60], eax
	mov	eax, ecx
	mov	DWORD PTR _this$[ebp], ecx
; File c:\program files (x86)\microsoft visual studio\2017\community\vc\tools\msvc\14.10.25017\include\typeindex

; 19   : 		: _Tptr(&_Tinfo)

	mov	DWORD PTR [ecx+68], OFFSET ??_R0?AUImVec2@@@8
	mov	esp, ebp
	pop	ebp
	ret	0
??0?$Parameter@UImVec2@@@sk@@QAE@XZ ENDP		; sk::Parameter<ImVec2>::Parameter<ImVec2>
_TEXT	ENDS
; Function compile flags: /Ogtp
; File c:\program files (x86)\microsoft visual studio\2017\community\vc\tools\msvc\14.10.25017\include\typeindex
; File c:\program files (x86)\microsoft visual studio\2017\community\vc\tools\msvc\14.10.25017\include\iosfwd
; File c:\program files (x86)\microsoft visual studio\2017\community\vc\tools\msvc\14.10.25017\include\xstring
; File c:\program files (x86)\microsoft visual studio\2017\community\vc\tools\msvc\14.10.25017\include\iosfwd
; File c:\program files (x86)\microsoft visual studio\2017\community\vc\tools\msvc\14.10.25017\include\xstring
; File c:\program files (x86)\microsoft visual studio\2017\community\vc\tools\msvc\14.10.25017\include\iosfwd
; File c:\users\andon\source\repos\specialk\include\specialk\parameter.h
; File c:\program files (x86)\microsoft visual studio\2017\community\vc\tools\msvc\14.10.25017\include\xstring
; File c:\program files (x86)\microsoft visual studio\2017\community\vc\tools\msvc\14.10.25017\include\iosfwd
; File c:\program files (x86)\microsoft visual studio\2017\community\vc\tools\msvc\14.10.25017\include\typeindex
;	COMDAT ??0ParameterStringW@sk@@QAE@XZ
_TEXT	SEGMENT
_this$ = -4						; size = 4
??0ParameterStringW@sk@@QAE@XZ PROC			; sk::ParameterStringW::ParameterStringW, COMDAT
; _this$ = ecx
	npad	2
	push	ebp
	mov	ebp, esp
	push	ecx

; 19   : 		: _Tptr(&_Tinfo)

	mov	DWORD PTR [ecx+4], OFFSET ??_R0?AViParameter@sk@@@8
; File c:\program files (x86)\microsoft visual studio\2017\community\vc\tools\msvc\14.10.25017\include\iosfwd

; 326  : 		_Left = _Right;

	xor	eax, eax
; File c:\program files (x86)\microsoft visual studio\2017\community\vc\tools\msvc\14.10.25017\include\xstring

; 3597 : 		_My_data._Mysize = 0;

	mov	DWORD PTR [ecx+28], 0

; 3598 : 		_My_data._Myres = this->_BUF_SIZE - 1;

	mov	DWORD PTR [ecx+32], 7
; File c:\program files (x86)\microsoft visual studio\2017\community\vc\tools\msvc\14.10.25017\include\iosfwd

; 326  : 		_Left = _Right;

	mov	WORD PTR [ecx+12], ax
; File c:\program files (x86)\microsoft visual studio\2017\community\vc\tools\msvc\14.10.25017\include\xstring

; 3597 : 		_My_data._Mysize = 0;

	mov	DWORD PTR [ecx+52], eax

; 3598 : 		_My_data._Myres = this->_BUF_SIZE - 1;

	mov	DWORD PTR [ecx+56], 7
; File c:\program files (x86)\microsoft visual studio\2017\community\vc\tools\msvc\14.10.25017\include\iosfwd

; 326  : 		_Left = _Right;

	mov	WORD PTR [ecx+36], ax
; File c:\users\andon\source\repos\specialk\include\specialk\parameter.h

; 53   :     ini        = nullptr;

	mov	DWORD PTR [ecx+8], eax
; File c:\program files (x86)\microsoft visual studio\2017\community\vc\tools\msvc\14.10.25017\include\xstring

; 3597 : 		_My_data._Mysize = 0;

	mov	DWORD PTR [ecx+76], eax

; 3598 : 		_My_data._Myres = this->_BUF_SIZE - 1;

	mov	DWORD PTR [ecx+80], 7
; File c:\program files (x86)\microsoft visual studio\2017\community\vc\tools\msvc\14.10.25017\include\iosfwd

; 326  : 		_Left = _Right;

	mov	WORD PTR [ecx+60], ax
	mov	eax, ecx
; File c:\program files (x86)\microsoft visual studio\2017\community\vc\tools\msvc\14.10.25017\include\typeindex

; 19   : 		: _Tptr(&_Tinfo)

	mov	DWORD PTR [ecx+84], OFFSET ??_R0?AV?$basic_string@_WU?$char_traits@_W@std@@V?$allocator@_W@2@@std@@@8
	mov	DWORD PTR _this$[ebp], ecx
	mov	DWORD PTR [ecx], OFFSET ??_7ParameterStringW@sk@@6B@
	mov	esp, ebp
	pop	ebp
	ret	0
??0ParameterStringW@sk@@QAE@XZ ENDP			; sk::ParameterStringW::ParameterStringW
_TEXT	ENDS
; Function compile flags: /Ogtp
; File c:\users\andon\source\repos\specialk\src\parameter.cpp
; File c:\program files (x86)\microsoft visual studio\2017\community\vc\tools\msvc\14.10.25017\include\xstring
; File c:\program files (x86)\microsoft visual studio\2017\community\vc\tools\msvc\14.10.25017\include\xmemory0
; File c:\program files (x86)\microsoft visual studio\2017\community\vc\tools\msvc\14.10.25017\include\xstring
; File c:\program files (x86)\microsoft visual studio\2017\community\vc\tools\msvc\14.10.25017\include\xmemory0
; File c:\users\andon\source\repos\specialk\src\parameter.cpp
_TEXT	SEGMENT
$T1 = -24						; size = 24
_ref$ = 8						; size = 4
?load@ParameterStringW@sk@@UAE_NAAV?$basic_string@_WU?$char_traits@_W@std@@V?$allocator@_W@2@@std@@@Z PROC ; sk::ParameterStringW::load
; _this$ = ecx

; 418  : {

	npad	2
	push	ebp
	mov	ebp, esp
	sub	esp, 24					; 00000018H
	push	ebx
	push	esi
	mov	esi, ecx

; 419  :   bool bRet = 
; 420  :     iParameter::load ();

	call	?load@iParameter@sk@@QAE_NXZ		; sk::iParameter::load
	mov	bl, al

; 421  : 
; 422  :   if (bRet)

	test	bl, bl
	je	SHORT $LN36@load

; 423  :     ref = get_value ();

	mov	edx, DWORD PTR [esi]
	lea	eax, DWORD PTR $T1[ebp]
	push	eax
	mov	ecx, esi
	call	DWORD PTR [edx+8]
	mov	ecx, DWORD PTR _ref$[ebp]
	push	eax
	call	??4?$basic_string@_WU?$char_traits@_W@std@@V?$allocator@_W@2@@std@@QAEAAV01@$$QAV01@@Z ; std::basic_string<wchar_t,std::char_traits<wchar_t>,std::allocator<wchar_t> >::operator=
; File c:\program files (x86)\microsoft visual studio\2017\community\vc\tools\msvc\14.10.25017\include\xstring

; 1628 : 		return (this->_BUF_SIZE <= _Myres);

	mov	eax, DWORD PTR $T1[ebp+20]
	cmp	eax, 8

; 3608 : 		if (_My_data._Large_string_engaged())

	jb	SHORT $LN36@load
; File c:\program files (x86)\microsoft visual studio\2017\community\vc\tools\msvc\14.10.25017\include\xmemory0

; 823  : 		_Deallocate(_Ptr, _Count, sizeof (_Ty));

	push	2
; File c:\program files (x86)\microsoft visual studio\2017\community\vc\tools\msvc\14.10.25017\include\xstring

; 3613 : 			_Al.deallocate(_Ptr, _My_data._Myres + 1);

	inc	eax
; File c:\program files (x86)\microsoft visual studio\2017\community\vc\tools\msvc\14.10.25017\include\xmemory0

; 823  : 		_Deallocate(_Ptr, _Count, sizeof (_Ty));

	push	eax
	push	DWORD PTR $T1[ebp]
	call	?_Deallocate@std@@YAXPAXII@Z		; std::_Deallocate
	add	esp, 12					; 0000000cH
$LN36@load:
	pop	esi
; File c:\users\andon\source\repos\specialk\src\parameter.cpp

; 425  :   return bRet;

	mov	al, bl
	pop	ebx

; 426  : }

	mov	esp, ebp
	pop	ebp
	ret	4
?load@ParameterStringW@sk@@UAE_NAAV?$basic_string@_WU?$char_traits@_W@std@@V?$allocator@_W@2@@std@@@Z ENDP ; sk::ParameterStringW::load
_TEXT	ENDS
; Function compile flags: /Ogtp
; File c:\users\andon\source\repos\specialk\src\parameter.cpp
; File c:\program files (x86)\microsoft visual studio\2017\community\vc\tools\msvc\14.10.25017\include\iosfwd
; File c:\program files (x86)\microsoft visual studio\2017\community\vc\tools\msvc\14.10.25017\include\xstring
; File c:\program files (x86)\microsoft visual studio\2017\community\vc\tools\msvc\14.10.25017\include\iosfwd
; File c:\program files (x86)\microsoft visual studio\2017\community\vc\tools\msvc\14.10.25017\include\xstring
; File c:\users\andon\source\repos\specialk\src\parameter.cpp
; File c:\program files (x86)\microsoft visual studio\2017\community\vc\tools\msvc\14.10.25017\include\xstring
; File c:\program files (x86)\microsoft visual studio\2017\community\vc\tools\msvc\14.10.25017\include\xmemory0
; File c:\program files (x86)\microsoft visual studio\2017\community\vc\tools\msvc\14.10.25017\include\xstring
; File c:\program files (x86)\microsoft visual studio\2017\community\vc\tools\msvc\14.10.25017\include\xmemory0
; File c:\users\andon\source\repos\specialk\src\parameter.cpp
_TEXT	SEGMENT
__$EHRec$ = -12						; size = 12
_str$ = 8						; size = 24
?store_str@ParameterStringW@sk@@UAEXV?$basic_string@_WU?$char_traits@_W@std@@V?$allocator@_W@2@@std@@@Z PROC ; sk::ParameterStringW::store_str
; _this$ = ecx

; 411  : {

	npad	2
	push	ebp
	mov	ebp, esp
	push	-1
	push	__ehhandler$?store_str@ParameterStringW@sk@@UAEXV?$basic_string@_WU?$char_traits@_W@std@@V?$allocator@_W@2@@std@@@Z
	mov	eax, DWORD PTR fs:0
	push	eax
	mov	DWORD PTR fs:0, esp
	push	ecx
	push	esi
	mov	esi, ecx

; 412  :   set_value_str  (str);

	sub	esp, 24					; 00000018H
	mov	DWORD PTR __$EHRec$[ebp+8], 0
	mov	ecx, esp
; File c:\program files (x86)\microsoft visual studio\2017\community\vc\tools\msvc\14.10.25017\include\iosfwd

; 326  : 		_Left = _Right;

	xor	eax, eax
; File c:\program files (x86)\microsoft visual studio\2017\community\vc\tools\msvc\14.10.25017\include\xstring

; 2174 : 		assign(_Right, 0, npos);

	push	-1

; 3597 : 		_My_data._Mysize = 0;

	mov	DWORD PTR [ecx+16], 0

; 3598 : 		_My_data._Myres = this->_BUF_SIZE - 1;

	mov	DWORD PTR [ecx+20], 7

; 2174 : 		assign(_Right, 0, npos);

	push	eax
; File c:\program files (x86)\microsoft visual studio\2017\community\vc\tools\msvc\14.10.25017\include\iosfwd

; 326  : 		_Left = _Right;

	mov	WORD PTR [ecx], ax
; File c:\program files (x86)\microsoft visual studio\2017\community\vc\tools\msvc\14.10.25017\include\xstring

; 2174 : 		assign(_Right, 0, npos);

	lea	eax, DWORD PTR _str$[ebp]
	push	eax
	call	?assign@?$basic_string@_WU?$char_traits@_W@std@@V?$allocator@_W@2@@std@@QAEAAV12@ABV12@II@Z ; std::basic_string<wchar_t,std::char_traits<wchar_t>,std::allocator<wchar_t> >::assign
; File c:\users\andon\source\repos\specialk\src\parameter.cpp

; 412  :   set_value_str  (str);

	mov	eax, DWORD PTR [esi]
	mov	ecx, esi
	call	DWORD PTR [eax+4]

; 413  :   iParameter::store ();

	mov	ecx, esi
	call	?store@iParameter@sk@@QAE_NXZ		; sk::iParameter::store
; File c:\program files (x86)\microsoft visual studio\2017\community\vc\tools\msvc\14.10.25017\include\xstring

; 1628 : 		return (this->_BUF_SIZE <= _Myres);

	mov	eax, DWORD PTR _str$[ebp+20]
	cmp	eax, 8

; 3608 : 		if (_My_data._Large_string_engaged())

	jb	SHORT $LN49@store_str
; File c:\program files (x86)\microsoft visual studio\2017\community\vc\tools\msvc\14.10.25017\include\xmemory0

; 823  : 		_Deallocate(_Ptr, _Count, sizeof (_Ty));

	push	2
; File c:\program files (x86)\microsoft visual studio\2017\community\vc\tools\msvc\14.10.25017\include\xstring

; 3613 : 			_Al.deallocate(_Ptr, _My_data._Myres + 1);

	inc	eax
; File c:\program files (x86)\microsoft visual studio\2017\community\vc\tools\msvc\14.10.25017\include\xmemory0

; 823  : 		_Deallocate(_Ptr, _Count, sizeof (_Ty));

	push	eax
	push	DWORD PTR _str$[ebp]
	call	?_Deallocate@std@@YAXPAXII@Z		; std::_Deallocate
	add	esp, 12					; 0000000cH
$LN49@store_str:
; File c:\users\andon\source\repos\specialk\src\parameter.cpp

; 414  : }

	mov	ecx, DWORD PTR __$EHRec$[ebp]
	mov	DWORD PTR fs:0, ecx
	pop	esi
	mov	esp, ebp
	pop	ebp
	ret	24					; 00000018H
_TEXT	ENDS
text$x	SEGMENT
__unwindfunclet$?store_str@ParameterStringW@sk@@UAEXV?$basic_string@_WU?$char_traits@_W@std@@V?$allocator@_W@2@@std@@@Z$0:
	lea	ecx, DWORD PTR _str$[ebp]
	jmp	??1?$basic_string@_WU?$char_traits@_W@std@@V?$allocator@_W@2@@std@@QAE@XZ ; std::basic_string<wchar_t,std::char_traits<wchar_t>,std::allocator<wchar_t> >::~basic_string<wchar_t,std::char_traits<wchar_t>,std::allocator<wchar_t> >
__ehhandler$?store_str@ParameterStringW@sk@@UAEXV?$basic_string@_WU?$char_traits@_W@std@@V?$allocator@_W@2@@std@@@Z:
	mov	eax, OFFSET __ehfuncinfo$?store_str@ParameterStringW@sk@@UAEXV?$basic_string@_WU?$char_traits@_W@std@@V?$allocator@_W@2@@std@@@Z
	jmp	___CxxFrameHandler3
text$x	ENDS
?store_str@ParameterStringW@sk@@UAEXV?$basic_string@_WU?$char_traits@_W@std@@V?$allocator@_W@2@@std@@@Z ENDP ; sk::ParameterStringW::store_str
; Function compile flags: /Ogtp
; File c:\users\andon\source\repos\specialk\src\parameter.cpp
; File c:\program files (x86)\microsoft visual studio\2017\community\vc\tools\msvc\14.10.25017\include\iosfwd
; File c:\program files (x86)\microsoft visual studio\2017\community\vc\tools\msvc\14.10.25017\include\xstring
; File c:\program files (x86)\microsoft visual studio\2017\community\vc\tools\msvc\14.10.25017\include\iosfwd
; File c:\program files (x86)\microsoft visual studio\2017\community\vc\tools\msvc\14.10.25017\include\xstring
; File c:\users\andon\source\repos\specialk\src\parameter.cpp
; File c:\program files (x86)\microsoft visual studio\2017\community\vc\tools\msvc\14.10.25017\include\xstring
; File c:\program files (x86)\microsoft visual studio\2017\community\vc\tools\msvc\14.10.25017\include\xmemory0
; File c:\program files (x86)\microsoft visual studio\2017\community\vc\tools\msvc\14.10.25017\include\xstring
; File c:\program files (x86)\microsoft visual studio\2017\community\vc\tools\msvc\14.10.25017\include\xmemory0
; File c:\users\andon\source\repos\specialk\src\parameter.cpp
_TEXT	SEGMENT
__$EHRec$ = -12						; size = 12
_val$ = 8						; size = 24
?store@ParameterStringW@sk@@UAEXV?$basic_string@_WU?$char_traits@_W@std@@V?$allocator@_W@2@@std@@@Z PROC ; sk::ParameterStringW::store
; _this$ = ecx

; 404  : {

	npad	2
	push	ebp
	mov	ebp, esp
	push	-1
	push	__ehhandler$?store@ParameterStringW@sk@@UAEXV?$basic_string@_WU?$char_traits@_W@std@@V?$allocator@_W@2@@std@@@Z
	mov	eax, DWORD PTR fs:0
	push	eax
	mov	DWORD PTR fs:0, esp
	push	ecx
	push	esi
	mov	esi, ecx

; 405  :   set_value      (val);

	sub	esp, 24					; 00000018H
	mov	DWORD PTR __$EHRec$[ebp+8], 0
	mov	ecx, esp
; File c:\program files (x86)\microsoft visual studio\2017\community\vc\tools\msvc\14.10.25017\include\iosfwd

; 326  : 		_Left = _Right;

	xor	eax, eax
; File c:\program files (x86)\microsoft visual studio\2017\community\vc\tools\msvc\14.10.25017\include\xstring

; 2174 : 		assign(_Right, 0, npos);

	push	-1

; 3597 : 		_My_data._Mysize = 0;

	mov	DWORD PTR [ecx+16], 0

; 3598 : 		_My_data._Myres = this->_BUF_SIZE - 1;

	mov	DWORD PTR [ecx+20], 7

; 2174 : 		assign(_Right, 0, npos);

	push	eax
; File c:\program files (x86)\microsoft visual studio\2017\community\vc\tools\msvc\14.10.25017\include\iosfwd

; 326  : 		_Left = _Right;

	mov	WORD PTR [ecx], ax
; File c:\program files (x86)\microsoft visual studio\2017\community\vc\tools\msvc\14.10.25017\include\xstring

; 2174 : 		assign(_Right, 0, npos);

	lea	eax, DWORD PTR _val$[ebp]
	push	eax
	call	?assign@?$basic_string@_WU?$char_traits@_W@std@@V?$allocator@_W@2@@std@@QAEAAV12@ABV12@II@Z ; std::basic_string<wchar_t,std::char_traits<wchar_t>,std::allocator<wchar_t> >::assign
; File c:\users\andon\source\repos\specialk\src\parameter.cpp

; 405  :   set_value      (val);

	mov	eax, DWORD PTR [esi]
	mov	ecx, esi
	call	DWORD PTR [eax+12]

; 406  :   iParameter::store ();

	mov	ecx, esi
	call	?store@iParameter@sk@@QAE_NXZ		; sk::iParameter::store
; File c:\program files (x86)\microsoft visual studio\2017\community\vc\tools\msvc\14.10.25017\include\xstring

; 1628 : 		return (this->_BUF_SIZE <= _Myres);

	mov	eax, DWORD PTR _val$[ebp+20]
	cmp	eax, 8

; 3608 : 		if (_My_data._Large_string_engaged())

	jb	SHORT $LN49@store
; File c:\program files (x86)\microsoft visual studio\2017\community\vc\tools\msvc\14.10.25017\include\xmemory0

; 823  : 		_Deallocate(_Ptr, _Count, sizeof (_Ty));

	push	2
; File c:\program files (x86)\microsoft visual studio\2017\community\vc\tools\msvc\14.10.25017\include\xstring

; 3613 : 			_Al.deallocate(_Ptr, _My_data._Myres + 1);

	inc	eax
; File c:\program files (x86)\microsoft visual studio\2017\community\vc\tools\msvc\14.10.25017\include\xmemory0

; 823  : 		_Deallocate(_Ptr, _Count, sizeof (_Ty));

	push	eax
	push	DWORD PTR _val$[ebp]
	call	?_Deallocate@std@@YAXPAXII@Z		; std::_Deallocate
	add	esp, 12					; 0000000cH
$LN49@store:
; File c:\users\andon\source\repos\specialk\src\parameter.cpp

; 407  : }

	mov	ecx, DWORD PTR __$EHRec$[ebp]
	mov	DWORD PTR fs:0, ecx
	pop	esi
	mov	esp, ebp
	pop	ebp
	ret	24					; 00000018H
_TEXT	ENDS
text$x	SEGMENT
__unwindfunclet$?store@ParameterStringW@sk@@UAEXV?$basic_string@_WU?$char_traits@_W@std@@V?$allocator@_W@2@@std@@@Z$0:
	lea	ecx, DWORD PTR _val$[ebp]
	jmp	??1?$basic_string@_WU?$char_traits@_W@std@@V?$allocator@_W@2@@std@@QAE@XZ ; std::basic_string<wchar_t,std::char_traits<wchar_t>,std::allocator<wchar_t> >::~basic_string<wchar_t,std::char_traits<wchar_t>,std::allocator<wchar_t> >
__ehhandler$?store@ParameterStringW@sk@@UAEXV?$basic_string@_WU?$char_traits@_W@std@@V?$allocator@_W@2@@std@@@Z:
	mov	eax, OFFSET __ehfuncinfo$?store@ParameterStringW@sk@@UAEXV?$basic_string@_WU?$char_traits@_W@std@@V?$allocator@_W@2@@std@@@Z
	jmp	___CxxFrameHandler3
text$x	ENDS
?store@ParameterStringW@sk@@UAEXV?$basic_string@_WU?$char_traits@_W@std@@V?$allocator@_W@2@@std@@@Z ENDP ; sk::ParameterStringW::store
; Function compile flags: /Ogtp
; File c:\users\andon\source\repos\specialk\src\parameter.cpp
; File c:\program files (x86)\microsoft visual studio\2017\community\vc\tools\msvc\14.10.25017\include\xstring
; File c:\program files (x86)\microsoft visual studio\2017\community\vc\tools\msvc\14.10.25017\include\xmemory0
; File c:\program files (x86)\microsoft visual studio\2017\community\vc\tools\msvc\14.10.25017\include\xstring
; File c:\program files (x86)\microsoft visual studio\2017\community\vc\tools\msvc\14.10.25017\include\xmemory0
; File c:\users\andon\source\repos\specialk\src\parameter.cpp
_TEXT	SEGMENT
__$EHRec$ = -12						; size = 12
_str$ = 8						; size = 24
?set_value_str@ParameterStringW@sk@@UAEXV?$basic_string@_WU?$char_traits@_W@std@@V?$allocator@_W@2@@std@@@Z PROC ; sk::ParameterStringW::set_value_str
; _this$ = ecx

; 398  : {

	npad	2
	push	ebp
	mov	ebp, esp
	mov	eax, DWORD PTR fs:0
	push	-1
	push	__ehhandler$?set_value_str@ParameterStringW@sk@@UAEXV?$basic_string@_WU?$char_traits@_W@std@@V?$allocator@_W@2@@std@@@Z
	push	eax
	mov	DWORD PTR fs:0, esp

; 399  :   value = str;

	add	ecx, 60					; 0000003cH
	mov	DWORD PTR __$EHRec$[ebp+8], 0
; File c:\program files (x86)\microsoft visual studio\2017\community\vc\tools\msvc\14.10.25017\include\xstring

; 2223 : 		if (this != _STD addressof(_Right))

	lea	eax, DWORD PTR _str$[ebp]
	cmp	ecx, eax
	je	SHORT $LN5@set_value_

; 2174 : 		assign(_Right, 0, npos);

	push	-1
	push	0
	push	eax
	call	?assign@?$basic_string@_WU?$char_traits@_W@std@@V?$allocator@_W@2@@std@@QAEAAV12@ABV12@II@Z ; std::basic_string<wchar_t,std::char_traits<wchar_t>,std::allocator<wchar_t> >::assign
$LN5@set_value_:

; 1628 : 		return (this->_BUF_SIZE <= _Myres);

	mov	eax, DWORD PTR _str$[ebp+20]
	cmp	eax, 8

; 3608 : 		if (_My_data._Large_string_engaged())

	jb	SHORT $LN50@set_value_
; File c:\program files (x86)\microsoft visual studio\2017\community\vc\tools\msvc\14.10.25017\include\xmemory0

; 823  : 		_Deallocate(_Ptr, _Count, sizeof (_Ty));

	push	2
; File c:\program files (x86)\microsoft visual studio\2017\community\vc\tools\msvc\14.10.25017\include\xstring

; 3613 : 			_Al.deallocate(_Ptr, _My_data._Myres + 1);

	inc	eax
; File c:\program files (x86)\microsoft visual studio\2017\community\vc\tools\msvc\14.10.25017\include\xmemory0

; 823  : 		_Deallocate(_Ptr, _Count, sizeof (_Ty));

	push	eax
	push	DWORD PTR _str$[ebp]
	call	?_Deallocate@std@@YAXPAXII@Z		; std::_Deallocate
	add	esp, 12					; 0000000cH
$LN50@set_value_:
; File c:\users\andon\source\repos\specialk\src\parameter.cpp

; 400  : }

	mov	ecx, DWORD PTR __$EHRec$[ebp]
	mov	DWORD PTR fs:0, ecx
	mov	esp, ebp
	pop	ebp
	ret	24					; 00000018H
_TEXT	ENDS
text$x	SEGMENT
__unwindfunclet$?set_value_str@ParameterStringW@sk@@UAEXV?$basic_string@_WU?$char_traits@_W@std@@V?$allocator@_W@2@@std@@@Z$0:
	lea	ecx, DWORD PTR _str$[ebp]
	jmp	??1?$basic_string@_WU?$char_traits@_W@std@@V?$allocator@_W@2@@std@@QAE@XZ ; std::basic_string<wchar_t,std::char_traits<wchar_t>,std::allocator<wchar_t> >::~basic_string<wchar_t,std::char_traits<wchar_t>,std::allocator<wchar_t> >
__ehhandler$?set_value_str@ParameterStringW@sk@@UAEXV?$basic_string@_WU?$char_traits@_W@std@@V?$allocator@_W@2@@std@@@Z:
	mov	eax, OFFSET __ehfuncinfo$?set_value_str@ParameterStringW@sk@@UAEXV?$basic_string@_WU?$char_traits@_W@std@@V?$allocator@_W@2@@std@@@Z
	jmp	___CxxFrameHandler3
text$x	ENDS
?set_value_str@ParameterStringW@sk@@UAEXV?$basic_string@_WU?$char_traits@_W@std@@V?$allocator@_W@2@@std@@@Z ENDP ; sk::ParameterStringW::set_value_str
; Function compile flags: /Ogtp
; File c:\users\andon\source\repos\specialk\src\parameter.cpp
; File c:\program files (x86)\microsoft visual studio\2017\community\vc\tools\msvc\14.10.25017\include\xstring
; File c:\program files (x86)\microsoft visual studio\2017\community\vc\tools\msvc\14.10.25017\include\xmemory0
; File c:\program files (x86)\microsoft visual studio\2017\community\vc\tools\msvc\14.10.25017\include\xstring
; File c:\program files (x86)\microsoft visual studio\2017\community\vc\tools\msvc\14.10.25017\include\xmemory0
; File c:\users\andon\source\repos\specialk\src\parameter.cpp
_TEXT	SEGMENT
__$EHRec$ = -12						; size = 12
_val$ = 8						; size = 24
?set_value@ParameterStringW@sk@@UAEXV?$basic_string@_WU?$char_traits@_W@std@@V?$allocator@_W@2@@std@@@Z PROC ; sk::ParameterStringW::set_value
; _this$ = ecx

; 391  : {

	npad	2
	push	ebp
	mov	ebp, esp
	mov	eax, DWORD PTR fs:0
	push	-1
	push	__ehhandler$?set_value@ParameterStringW@sk@@UAEXV?$basic_string@_WU?$char_traits@_W@std@@V?$allocator@_W@2@@std@@@Z
	push	eax
	mov	DWORD PTR fs:0, esp

; 392  :   value = val;

	add	ecx, 60					; 0000003cH
	mov	DWORD PTR __$EHRec$[ebp+8], 0
; File c:\program files (x86)\microsoft visual studio\2017\community\vc\tools\msvc\14.10.25017\include\xstring

; 2223 : 		if (this != _STD addressof(_Right))

	lea	eax, DWORD PTR _val$[ebp]
	cmp	ecx, eax
	je	SHORT $LN5@set_value

; 2174 : 		assign(_Right, 0, npos);

	push	-1
	push	0
	push	eax
	call	?assign@?$basic_string@_WU?$char_traits@_W@std@@V?$allocator@_W@2@@std@@QAEAAV12@ABV12@II@Z ; std::basic_string<wchar_t,std::char_traits<wchar_t>,std::allocator<wchar_t> >::assign
$LN5@set_value:

; 1628 : 		return (this->_BUF_SIZE <= _Myres);

	mov	eax, DWORD PTR _val$[ebp+20]
	cmp	eax, 8

; 3608 : 		if (_My_data._Large_string_engaged())

	jb	SHORT $LN50@set_value
; File c:\program files (x86)\microsoft visual studio\2017\community\vc\tools\msvc\14.10.25017\include\xmemory0

; 823  : 		_Deallocate(_Ptr, _Count, sizeof (_Ty));

	push	2
; File c:\program files (x86)\microsoft visual studio\2017\community\vc\tools\msvc\14.10.25017\include\xstring

; 3613 : 			_Al.deallocate(_Ptr, _My_data._Myres + 1);

	inc	eax
; File c:\program files (x86)\microsoft visual studio\2017\community\vc\tools\msvc\14.10.25017\include\xmemory0

; 823  : 		_Deallocate(_Ptr, _Count, sizeof (_Ty));

	push	eax
	push	DWORD PTR _val$[ebp]
	call	?_Deallocate@std@@YAXPAXII@Z		; std::_Deallocate
	add	esp, 12					; 0000000cH
$LN50@set_value:
; File c:\users\andon\source\repos\specialk\src\parameter.cpp

; 393  : }

	mov	ecx, DWORD PTR __$EHRec$[ebp]
	mov	DWORD PTR fs:0, ecx
	mov	esp, ebp
	pop	ebp
	ret	24					; 00000018H
_TEXT	ENDS
text$x	SEGMENT
__unwindfunclet$?set_value@ParameterStringW@sk@@UAEXV?$basic_string@_WU?$char_traits@_W@std@@V?$allocator@_W@2@@std@@@Z$0:
	lea	ecx, DWORD PTR _val$[ebp]
	jmp	??1?$basic_string@_WU?$char_traits@_W@std@@V?$allocator@_W@2@@std@@QAE@XZ ; std::basic_string<wchar_t,std::char_traits<wchar_t>,std::allocator<wchar_t> >::~basic_string<wchar_t,std::char_traits<wchar_t>,std::allocator<wchar_t> >
__ehhandler$?set_value@ParameterStringW@sk@@UAEXV?$basic_string@_WU?$char_traits@_W@std@@V?$allocator@_W@2@@std@@@Z:
	mov	eax, OFFSET __ehfuncinfo$?set_value@ParameterStringW@sk@@UAEXV?$basic_string@_WU?$char_traits@_W@std@@V?$allocator@_W@2@@std@@@Z
	jmp	___CxxFrameHandler3
text$x	ENDS
?set_value@ParameterStringW@sk@@UAEXV?$basic_string@_WU?$char_traits@_W@std@@V?$allocator@_W@2@@std@@@Z ENDP ; sk::ParameterStringW::set_value
; Function compile flags: /Ogtp
; File c:\users\andon\source\repos\specialk\src\parameter.cpp
; File c:\program files (x86)\microsoft visual studio\2017\community\vc\tools\msvc\14.10.25017\include\xstring
; File c:\program files (x86)\microsoft visual studio\2017\community\vc\tools\msvc\14.10.25017\include\iosfwd
; File c:\program files (x86)\microsoft visual studio\2017\community\vc\tools\msvc\14.10.25017\include\xstring
; File c:\users\andon\source\repos\specialk\src\parameter.cpp
; File c:\program files (x86)\microsoft visual studio\2017\community\vc\tools\msvc\14.10.25017\include\xstring
; File c:\program files (x86)\microsoft visual studio\2017\community\vc\tools\msvc\14.10.25017\include\iosfwd
; File c:\program files (x86)\microsoft visual studio\2017\community\vc\tools\msvc\14.10.25017\include\xstring
; File c:\users\andon\source\repos\specialk\src\parameter.cpp
_TEXT	SEGMENT
$T1 = -4						; size = 4
___$ReturnUdt$ = 8					; size = 4
?get_value@ParameterStringW@sk@@UAE?AV?$basic_string@_WU?$char_traits@_W@std@@V?$allocator@_W@2@@std@@XZ PROC ; sk::ParameterStringW::get_value
; _this$ = ecx

; 385  : {

	npad	2
	push	ebp
	mov	ebp, esp
	push	ecx
	push	esi
; File c:\program files (x86)\microsoft visual studio\2017\community\vc\tools\msvc\14.10.25017\include\xstring

; 3597 : 		_My_data._Mysize = 0;

	mov	esi, DWORD PTR ___$ReturnUdt$[ebp]
; File c:\program files (x86)\microsoft visual studio\2017\community\vc\tools\msvc\14.10.25017\include\iosfwd

; 326  : 		_Left = _Right;

	xor	eax, eax
; File c:\program files (x86)\microsoft visual studio\2017\community\vc\tools\msvc\14.10.25017\include\xstring

; 2174 : 		assign(_Right, 0, npos);

	push	-1
; File c:\users\andon\source\repos\specialk\src\parameter.cpp

; 386  :   return value;

	add	ecx, 60					; 0000003cH
	mov	DWORD PTR $T1[ebp], 0
