; Listing generated by Microsoft (R) Optimizing Compiler Version 19.10.25019.0 

	TITLE	C:\Users\andon\Source\Repos\SpecialK\src\osd\popup.cpp
	.686P
	.XMM
	include listing.inc
	.model	flat

INCLUDELIB MSVCRT
INCLUDELIB OLDNAMES

PUBLIC	?__manager__@SK_PopupManager@@0PAV1@A		; SK_PopupManager::__manager__
PUBLIC	?cs@SK_PopupManager@@0U_RTL_CRITICAL_SECTION@@A	; SK_PopupManager::cs
_BSS	SEGMENT
?__manager__@SK_PopupManager@@0PAV1@A DD 01H DUP (?)	; SK_PopupManager::__manager__
?cs@SK_PopupManager@@0U_RTL_CRITICAL_SECTION@@A DB 018H DUP (?) ; SK_PopupManager::cs
_BSS	ENDS
CONST	SEGMENT
$SG222960 DB	'DestructStart', 00H
?piecewise_construct@std@@3Upiecewise_construct_t@1@B	ORG $+1 ; std::piecewise_construct
CONST	ENDS
PUBLIC	??2@YAPAXIPAX@Z					; operator new
PUBLIC	??3@YAXPAX0@Z					; operator delete
PUBLIC	?_Adopt@_Iterator_base0@std@@QAEXPBX@Z		; std::_Iterator_base0::_Adopt
PUBLIC	?_Allocate@std@@YAPAXII_N@Z			; std::_Allocate
PUBLIC	?_Deallocate@std@@YAXPAXII@Z			; std::_Deallocate
PUBLIC	??0?$tuple@$$V@std@@QAE@XZ			; std::tuple<>::tuple<>
PUBLIC	??0?$tuple@$$V@std@@QAE@ABV01@@Z		; std::tuple<>::tuple<>
PUBLIC	??1SlotFunctorBase@CEGUI@@UAE@XZ		; CEGUI::SlotFunctorBase::~SlotFunctorBase
PUBLIC	??0SlotFunctorBase@CEGUI@@QAE@XZ		; CEGUI::SlotFunctorBase::SlotFunctorBase
PUBLIC	??_GSlotFunctorBase@CEGUI@@UAEPAXI@Z		; CEGUI::SlotFunctorBase::`scalar deleting destructor'
PUBLIC	??_GBoundSlot@CEGUI@@QAEPAXI@Z			; CEGUI::BoundSlot::`scalar deleting destructor'
PUBLIC	??1?$RefCounted@VBoundSlot@CEGUI@@@CEGUI@@QAE@XZ ; CEGUI::RefCounted<CEGUI::BoundSlot>::~RefCounted<CEGUI::BoundSlot>
PUBLIC	?release@?$RefCounted@VBoundSlot@CEGUI@@@CEGUI@@AAEXXZ ; CEGUI::RefCounted<CEGUI::BoundSlot>::release
PUBLIC	??R?$less@PAVWindow@CEGUI@@@std@@QBE_NABQAVWindow@CEGUI@@0@Z ; std::less<CEGUI::Window *>::operator()
PUBLIC	?getChild@SK_PopupWindow@@QAEPAVWindow@CEGUI@@PBD@Z ; SK_PopupWindow::getChild
PUBLIC	??BSK_PopupWindow@@QAEPAVWindow@CEGUI@@XZ	; SK_PopupWindow::operator CEGUI::Window *
PUBLIC	??0SK_PopupWindow@@IAE@PBD@Z			; SK_PopupWindow::SK_PopupWindow
PUBLIC	??1SK_PopupWindow@@IAE@XZ			; SK_PopupWindow::~SK_PopupWindow
PUBLIC	??_GSK_PopupWindow@@IAEPAXI@Z			; SK_PopupWindow::`scalar deleting destructor'
PUBLIC	?getInstance@SK_PopupManager@@SAPAV1@XZ		; SK_PopupManager::getInstance
PUBLIC	?createPopup@SK_PopupManager@@QAEPAVSK_PopupWindow@@PBD@Z ; SK_PopupManager::createPopup
PUBLIC	?destroyPopup@SK_PopupManager@@QAEXPAVSK_PopupWindow@@@Z ; SK_PopupManager::destroyPopup
PUBLIC	?destroyAllPopups@SK_PopupManager@@QAEXXZ	; SK_PopupManager::destroyAllPopups
PUBLIC	?isPopup@SK_PopupManager@@QAE_NPAVSK_PopupWindow@@@Z ; SK_PopupManager::isPopup
PUBLIC	?OnDestroyPopup@SK_PopupManager@@QAE_NABVEventArgs@CEGUI@@@Z ; SK_PopupManager::OnDestroyPopup
PUBLIC	??0SK_PopupManager@@IAE@XZ			; SK_PopupManager::SK_PopupManager
PUBLIC	??0?$allocator@U?$_Tree_node@U?$pair@QAVSK_PopupWindow@@PAVWindow@CEGUI@@@std@@PAX@std@@@std@@QAE@XZ ; std::allocator<std::_Tree_node<std::pair<SK_PopupWindow * const,CEGUI::Window *>,void *> >::allocator<std::_Tree_node<std::pair<SK_PopupWindow * const,CEGUI::Window *>,void *> >
PUBLIC	?deallocate@?$allocator@U?$_Tree_node@U?$pair@QAVSK_PopupWindow@@PAVWindow@CEGUI@@@std@@PAX@std@@@std@@QAEXPAU?$_Tree_node@U?$pair@QAVSK_PopupWindow@@PAVWindow@CEGUI@@@std@@PAX@2@I@Z ; std::allocator<std::_Tree_node<std::pair<SK_PopupWindow * const,CEGUI::Window *>,void *> >::deallocate
PUBLIC	?allocate@?$allocator@U?$_Tree_node@U?$pair@QAVSK_PopupWindow@@PAVWindow@CEGUI@@@std@@PAX@std@@@std@@QAEPAU?$_Tree_node@U?$pair@QAVSK_PopupWindow@@PAVWindow@CEGUI@@@std@@PAX@2@I@Z ; std::allocator<std::_Tree_node<std::pair<SK_PopupWindow * const,CEGUI::Window *>,void *> >::allocate
PUBLIC	?max_size@?$allocator@U?$_Tree_node@U?$pair@QAVSK_PopupWindow@@PAVWindow@CEGUI@@@std@@PAX@std@@@std@@QBEIXZ ; std::allocator<std::_Tree_node<std::pair<SK_PopupWindow * const,CEGUI::Window *>,void *> >::max_size
PUBLIC	?max_size@?$allocator_traits@V?$allocator@U?$_Tree_node@U?$pair@QAVSK_PopupWindow@@PAVWindow@CEGUI@@@std@@PAX@std@@@std@@@std@@SAIABV?$allocator@U?$_Tree_node@U?$pair@QAVSK_PopupWindow@@PAVWindow@CEGUI@@@std@@PAX@std@@@2@@Z ; std::allocator_traits<std::allocator<std::_Tree_node<std::pair<SK_PopupWindow * const,CEGUI::Window *>,void *> > >::max_size
PUBLIC	??0?$_Wrap_alloc@V?$allocator@U?$_Tree_node@U?$pair@QAVSK_PopupWindow@@PAVWindow@CEGUI@@@std@@PAX@std@@@std@@@std@@QAE@XZ ; std::_Wrap_alloc<std::allocator<std::_Tree_node<std::pair<SK_PopupWindow * const,CEGUI::Window *>,void *> > >::_Wrap_alloc<std::allocator<std::_Tree_node<std::pair<SK_PopupWindow * const,CEGUI::Window *>,void *> > >
PUBLIC	?allocate@?$_Wrap_alloc@V?$allocator@U?$_Tree_node@U?$pair@QAVSK_PopupWindow@@PAVWindow@CEGUI@@@std@@PAX@std@@@std@@@std@@QAEPAU?$_Tree_node@U?$pair@QAVSK_PopupWindow@@PAVWindow@CEGUI@@@std@@PAX@2@I@Z ; std::_Wrap_alloc<std::allocator<std::_Tree_node<std::pair<SK_PopupWindow * const,CEGUI::Window *>,void *> > >::allocate
PUBLIC	?deallocate@?$_Wrap_alloc@V?$allocator@U?$_Tree_node@U?$pair@QAVSK_PopupWindow@@PAVWindow@CEGUI@@@std@@PAX@std@@@std@@@std@@QAEXPAU?$_Tree_node@U?$pair@QAVSK_PopupWindow@@PAVWindow@CEGUI@@@std@@PAX@2@I@Z ; std::_Wrap_alloc<std::allocator<std::_Tree_node<std::pair<SK_PopupWindow * const,CEGUI::Window *>,void *> > >::deallocate
PUBLIC	?max_size@?$_Wrap_alloc@V?$allocator@U?$_Tree_node@U?$pair@QAVSK_PopupWindow@@PAVWindow@CEGUI@@@std@@PAX@std@@@std@@@std@@QBEIU_Nil@2@@Z ; std::_Wrap_alloc<std::allocator<std::_Tree_node<std::pair<SK_PopupWindow * const,CEGUI::Window *>,void *> > >::max_size
PUBLIC	?_Color@?$_Tree_comp_alloc@V?$_Tmap_traits@PAVSK_PopupWindow@@PAVWindow@CEGUI@@U?$less@PAVSK_PopupWindow@@@std@@V?$allocator@U?$pair@QAVSK_PopupWindow@@PAVWindow@CEGUI@@@std@@@5@$0A@@std@@@std@@SAAADPAU?$_Tree_node@U?$pair@QAVSK_PopupWindow@@PAVWindow@CEGUI@@@std@@PAX@2@@Z ; std::_Tree_comp_alloc<std::_Tmap_traits<SK_PopupWindow *,CEGUI::Window *,std::less<SK_PopupWindow *>,std::allocator<std::pair<SK_PopupWindow * const,CEGUI::Window *> >,0> >::_Color
PUBLIC	?_Isnil@?$_Tree_comp_alloc@V?$_Tmap_traits@PAVSK_PopupWindow@@PAVWindow@CEGUI@@U?$less@PAVSK_PopupWindow@@@std@@V?$allocator@U?$pair@QAVSK_PopupWindow@@PAVWindow@CEGUI@@@std@@@5@$0A@@std@@@std@@SAAADPAU?$_Tree_node@U?$pair@QAVSK_PopupWindow@@PAVWindow@CEGUI@@@std@@PAX@2@@Z ; std::_Tree_comp_alloc<std::_Tmap_traits<SK_PopupWindow *,CEGUI::Window *,std::less<SK_PopupWindow *>,std::allocator<std::pair<SK_PopupWindow * const,CEGUI::Window *> >,0> >::_Isnil
PUBLIC	?_Left@?$_Tree_comp_alloc@V?$_Tmap_traits@PAVSK_PopupWindow@@PAVWindow@CEGUI@@U?$less@PAVSK_PopupWindow@@@std@@V?$allocator@U?$pair@QAVSK_PopupWindow@@PAVWindow@CEGUI@@@std@@@5@$0A@@std@@@std@@SAAAPAU?$_Tree_node@U?$pair@QAVSK_PopupWindow@@PAVWindow@CEGUI@@@std@@PAX@2@PAU32@@Z ; std::_Tree_comp_alloc<std::_Tmap_traits<SK_PopupWindow *,CEGUI::Window *,std::less<SK_PopupWindow *>,std::allocator<std::pair<SK_PopupWindow * const,CEGUI::Window *> >,0> >::_Left
PUBLIC	?_Parent@?$_Tree_comp_alloc@V?$_Tmap_traits@PAVSK_PopupWindow@@PAVWindow@CEGUI@@U?$less@PAVSK_PopupWindow@@@std@@V?$allocator@U?$pair@QAVSK_PopupWindow@@PAVWindow@CEGUI@@@std@@@5@$0A@@std@@@std@@SAAAPAU?$_Tree_node@U?$pair@QAVSK_PopupWindow@@PAVWindow@CEGUI@@@std@@PAX@2@PAU32@@Z ; std::_Tree_comp_alloc<std::_Tmap_traits<SK_PopupWindow *,CEGUI::Window *,std::less<SK_PopupWindow *>,std::allocator<std::pair<SK_PopupWindow * const,CEGUI::Window *> >,0> >::_Parent
PUBLIC	?_Right@?$_Tree_comp_alloc@V?$_Tmap_traits@PAVSK_PopupWindow@@PAVWindow@CEGUI@@U?$less@PAVSK_PopupWindow@@@std@@V?$allocator@U?$pair@QAVSK_PopupWindow@@PAVWindow@CEGUI@@@std@@@5@$0A@@std@@@std@@SAAAPAU?$_Tree_node@U?$pair@QAVSK_PopupWindow@@PAVWindow@CEGUI@@@std@@PAX@2@PAU32@@Z ; std::_Tree_comp_alloc<std::_Tmap_traits<SK_PopupWindow *,CEGUI::Window *,std::less<SK_PopupWindow *>,std::allocator<std::pair<SK_PopupWindow * const,CEGUI::Window *> >,0> >::_Right
PUBLIC	?_Myval@?$_Tree_comp_alloc@V?$_Tmap_traits@PAVSK_PopupWindow@@PAVWindow@CEGUI@@U?$less@PAVSK_PopupWindow@@@std@@V?$allocator@U?$pair@QAVSK_PopupWindow@@PAVWindow@CEGUI@@@std@@@5@$0A@@std@@@std@@SAAAU?$pair@QAVSK_PopupWindow@@PAVWindow@CEGUI@@@2@PAU?$_Tree_node@U?$pair@QAVSK_PopupWindow@@PAVWindow@CEGUI@@@std@@PAX@2@@Z ; std::_Tree_comp_alloc<std::_Tmap_traits<SK_PopupWindow *,CEGUI::Window *,std::less<SK_PopupWindow *>,std::allocator<std::pair<SK_PopupWindow * const,CEGUI::Window *> >,0> >::_Myval
PUBLIC	?_Max@?$_Tree_comp_alloc@V?$_Tmap_traits@PAVSK_PopupWindow@@PAVWindow@CEGUI@@U?$less@PAVSK_PopupWindow@@@std@@V?$allocator@U?$pair@QAVSK_PopupWindow@@PAVWindow@CEGUI@@@std@@@5@$0A@@std@@@std@@SAPAU?$_Tree_node@U?$pair@QAVSK_PopupWindow@@PAVWindow@CEGUI@@@std@@PAX@2@PAU32@@Z ; std::_Tree_comp_alloc<std::_Tmap_traits<SK_PopupWindow *,CEGUI::Window *,std::less<SK_PopupWindow *>,std::allocator<std::pair<SK_PopupWindow * const,CEGUI::Window *> >,0> >::_Max
PUBLIC	?_Min@?$_Tree_comp_alloc@V?$_Tmap_traits@PAVSK_PopupWindow@@PAVWindow@CEGUI@@U?$less@PAVSK_PopupWindow@@@std@@V?$allocator@U?$pair@QAVSK_PopupWindow@@PAVWindow@CEGUI@@@std@@@5@$0A@@std@@@std@@SAPAU?$_Tree_node@U?$pair@QAVSK_PopupWindow@@PAVWindow@CEGUI@@@std@@PAX@2@PAU32@@Z ; std::_Tree_comp_alloc<std::_Tmap_traits<SK_PopupWindow *,CEGUI::Window *,std::less<SK_PopupWindow *>,std::allocator<std::pair<SK_PopupWindow * const,CEGUI::Window *> >,0> >::_Min
PUBLIC	??0?$_Tree_comp_alloc@V?$_Tmap_traits@PAVSK_PopupWindow@@PAVWindow@CEGUI@@U?$less@PAVSK_PopupWindow@@@std@@V?$allocator@U?$pair@QAVSK_PopupWindow@@PAVWindow@CEGUI@@@std@@@5@$0A@@std@@@std@@QAE@ABU?$less@PAVSK_PopupWindow@@@1@@Z ; std::_Tree_comp_alloc<std::_Tmap_traits<SK_PopupWindow *,CEGUI::Window *,std::less<SK_PopupWindow *>,std::allocator<std::pair<SK_PopupWindow * const,CEGUI::Window *> >,0> >::_Tree_comp_alloc<std::_Tmap_traits<SK_PopupWindow *,CEGUI::Window *,std::less<SK_PopupWindow *>,std::allocator<std::pair<SK_PopupWindow * const,CEGUI::Window *> >,0> >
PUBLIC	?_Construct@?$_Tree_comp_alloc@V?$_Tmap_traits@PAVSK_PopupWindow@@PAVWindow@CEGUI@@U?$less@PAVSK_PopupWindow@@@std@@V?$allocator@U?$pair@QAVSK_PopupWindow@@PAVWindow@CEGUI@@@std@@@5@$0A@@std@@@std@@QAEXXZ ; std::_Tree_comp_alloc<std::_Tmap_traits<SK_PopupWindow *,CEGUI::Window *,std::less<SK_PopupWindow *>,std::allocator<std::pair<SK_PopupWindow * const,CEGUI::Window *> >,0> >::_Construct
PUBLIC	??1?$_Tree_comp_alloc@V?$_Tmap_traits@PAVSK_PopupWindow@@PAVWindow@CEGUI@@U?$less@PAVSK_PopupWindow@@@std@@V?$allocator@U?$pair@QAVSK_PopupWindow@@PAVWindow@CEGUI@@@std@@@5@$0A@@std@@@std@@QAE@XZ ; std::_Tree_comp_alloc<std::_Tmap_traits<SK_PopupWindow *,CEGUI::Window *,std::less<SK_PopupWindow *>,std::allocator<std::pair<SK_PopupWindow * const,CEGUI::Window *> >,0> >::~_Tree_comp_alloc<std::_Tmap_traits<SK_PopupWindow *,CEGUI::Window *,std::less<SK_PopupWindow *>,std::allocator<std::pair<SK_PopupWindow * const,CEGUI::Window *> >,0> >
PUBLIC	?_Buyheadnode@?$_Tree_comp_alloc@V?$_Tmap_traits@PAVSK_PopupWindow@@PAVWindow@CEGUI@@U?$less@PAVSK_PopupWindow@@@std@@V?$allocator@U?$pair@QAVSK_PopupWindow@@PAVWindow@CEGUI@@@std@@@5@$0A@@std@@@std@@QAEPAU?$_Tree_node@U?$pair@QAVSK_PopupWindow@@PAVWindow@CEGUI@@@std@@PAX@2@XZ ; std::_Tree_comp_alloc<std::_Tmap_traits<SK_PopupWindow *,CEGUI::Window *,std::less<SK_PopupWindow *>,std::allocator<std::pair<SK_PopupWindow * const,CEGUI::Window *> >,0> >::_Buyheadnode
PUBLIC	?_Freeheadnode@?$_Tree_comp_alloc@V?$_Tmap_traits@PAVSK_PopupWindow@@PAVWindow@CEGUI@@U?$less@PAVSK_PopupWindow@@@std@@V?$allocator@U?$pair@QAVSK_PopupWindow@@PAVWindow@CEGUI@@@std@@@5@$0A@@std@@@std@@QAEXPAU?$_Tree_node@U?$pair@QAVSK_PopupWindow@@PAVWindow@CEGUI@@@std@@PAX@2@@Z ; std::_Tree_comp_alloc<std::_Tmap_traits<SK_PopupWindow *,CEGUI::Window *,std::less<SK_PopupWindow *>,std::allocator<std::pair<SK_PopupWindow * const,CEGUI::Window *> >,0> >::_Freeheadnode
PUBLIC	?_Buynode0@?$_Tree_comp_alloc@V?$_Tmap_traits@PAVSK_PopupWindow@@PAVWindow@CEGUI@@U?$less@PAVSK_PopupWindow@@@std@@V?$allocator@U?$pair@QAVSK_PopupWindow@@PAVWindow@CEGUI@@@std@@@5@$0A@@std@@@std@@QAEPAU?$_Tree_node@U?$pair@QAVSK_PopupWindow@@PAVWindow@CEGUI@@@std@@PAX@2@XZ ; std::_Tree_comp_alloc<std::_Tmap_traits<SK_PopupWindow *,CEGUI::Window *,std::less<SK_PopupWindow *>,std::allocator<std::pair<SK_PopupWindow * const,CEGUI::Window *> >,0> >::_Buynode0
PUBLIC	?_Freenode0@?$_Tree_comp_alloc@V?$_Tmap_traits@PAVSK_PopupWindow@@PAVWindow@CEGUI@@U?$less@PAVSK_PopupWindow@@@std@@V?$allocator@U?$pair@QAVSK_PopupWindow@@PAVWindow@CEGUI@@@std@@@5@$0A@@std@@@std@@QAEXPAU?$_Tree_node@U?$pair@QAVSK_PopupWindow@@PAVWindow@CEGUI@@@std@@PAX@2@@Z ; std::_Tree_comp_alloc<std::_Tmap_traits<SK_PopupWindow *,CEGUI::Window *,std::less<SK_PopupWindow *>,std::allocator<std::pair<SK_PopupWindow * const,CEGUI::Window *> >,0> >::_Freenode0
PUBLIC	?_Getcomp@?$_Tree_comp_alloc@V?$_Tmap_traits@PAVSK_PopupWindow@@PAVWindow@CEGUI@@U?$less@PAVSK_PopupWindow@@@std@@V?$allocator@U?$pair@QAVSK_PopupWindow@@PAVWindow@CEGUI@@@std@@@5@$0A@@std@@@std@@QAEAAU?$less@PAVSK_PopupWindow@@@2@XZ ; std::_Tree_comp_alloc<std::_Tmap_traits<SK_PopupWindow *,CEGUI::Window *,std::less<SK_PopupWindow *>,std::allocator<std::pair<SK_PopupWindow * const,CEGUI::Window *> >,0> >::_Getcomp
PUBLIC	?_Getcomp@?$_Tree_comp_alloc@V?$_Tmap_traits@PAVSK_PopupWindow@@PAVWindow@CEGUI@@U?$less@PAVSK_PopupWindow@@@std@@V?$allocator@U?$pair@QAVSK_PopupWindow@@PAVWindow@CEGUI@@@std@@@5@$0A@@std@@@std@@QBEABU?$less@PAVSK_PopupWindow@@@2@XZ ; std::_Tree_comp_alloc<std::_Tmap_traits<SK_PopupWindow *,CEGUI::Window *,std::less<SK_PopupWindow *>,std::allocator<std::pair<SK_PopupWindow * const,CEGUI::Window *> >,0> >::_Getcomp
PUBLIC	?_Getal@?$_Tree_comp_alloc@V?$_Tmap_traits@PAVSK_PopupWindow@@PAVWindow@CEGUI@@U?$less@PAVSK_PopupWindow@@@std@@V?$allocator@U?$pair@QAVSK_PopupWindow@@PAVWindow@CEGUI@@@std@@@5@$0A@@std@@@std@@QAEAAU?$_Wrap_alloc@V?$allocator@U?$_Tree_node@U?$pair@QAVSK_PopupWindow@@PAVWindow@CEGUI@@@std@@PAX@std@@@std@@@2@XZ ; std::_Tree_comp_alloc<std::_Tmap_traits<SK_PopupWindow *,CEGUI::Window *,std::less<SK_PopupWindow *>,std::allocator<std::pair<SK_PopupWindow * const,CEGUI::Window *> >,0> >::_Getal
PUBLIC	?_Getal@?$_Tree_comp_alloc@V?$_Tmap_traits@PAVSK_PopupWindow@@PAVWindow@CEGUI@@U?$less@PAVSK_PopupWindow@@@std@@V?$allocator@U?$pair@QAVSK_PopupWindow@@PAVWindow@CEGUI@@@std@@@5@$0A@@std@@@std@@QBEABU?$_Wrap_alloc@V?$allocator@U?$_Tree_node@U?$pair@QAVSK_PopupWindow@@PAVWindow@CEGUI@@@std@@PAX@std@@@std@@@2@XZ ; std::_Tree_comp_alloc<std::_Tmap_traits<SK_PopupWindow *,CEGUI::Window *,std::less<SK_PopupWindow *>,std::allocator<std::pair<SK_PopupWindow * const,CEGUI::Window *> >,0> >::_Getal
PUBLIC	?_Get_data@?$_Tree_comp_alloc@V?$_Tmap_traits@PAVSK_PopupWindow@@PAVWindow@CEGUI@@U?$less@PAVSK_PopupWindow@@@std@@V?$allocator@U?$pair@QAVSK_PopupWindow@@PAVWindow@CEGUI@@@std@@@5@$0A@@std@@@std@@QAEAAV?$_Tree_val@U?$_Tree_simple_types@U?$pair@QAVSK_PopupWindow@@PAVWindow@CEGUI@@@std@@@std@@@2@XZ ; std::_Tree_comp_alloc<std::_Tmap_traits<SK_PopupWindow *,CEGUI::Window *,std::less<SK_PopupWindow *>,std::allocator<std::pair<SK_PopupWindow * const,CEGUI::Window *> >,0> >::_Get_data
PUBLIC	?_Get_data@?$_Tree_comp_alloc@V?$_Tmap_traits@PAVSK_PopupWindow@@PAVWindow@CEGUI@@U?$less@PAVSK_PopupWindow@@@std@@V?$allocator@U?$pair@QAVSK_PopupWindow@@PAVWindow@CEGUI@@@std@@@5@$0A@@std@@@std@@QBEABV?$_Tree_val@U?$_Tree_simple_types@U?$pair@QAVSK_PopupWindow@@PAVWindow@CEGUI@@@std@@@std@@@2@XZ ; std::_Tree_comp_alloc<std::_Tmap_traits<SK_PopupWindow *,CEGUI::Window *,std::less<SK_PopupWindow *>,std::allocator<std::pair<SK_PopupWindow * const,CEGUI::Window *> >,0> >::_Get_data
PUBLIC	?_Myhead@?$_Tree_comp_alloc@V?$_Tmap_traits@PAVSK_PopupWindow@@PAVWindow@CEGUI@@U?$less@PAVSK_PopupWindow@@@std@@V?$allocator@U?$pair@QAVSK_PopupWindow@@PAVWindow@CEGUI@@@std@@@5@$0A@@std@@@std@@QAEAAPAU?$_Tree_node@U?$pair@QAVSK_PopupWindow@@PAVWindow@CEGUI@@@std@@PAX@2@XZ ; std::_Tree_comp_alloc<std::_Tmap_traits<SK_PopupWindow *,CEGUI::Window *,std::less<SK_PopupWindow *>,std::allocator<std::pair<SK_PopupWindow * const,CEGUI::Window *> >,0> >::_Myhead
PUBLIC	?_Myhead@?$_Tree_comp_alloc@V?$_Tmap_traits@PAVSK_PopupWindow@@PAVWindow@CEGUI@@U?$less@PAVSK_PopupWindow@@@std@@V?$allocator@U?$pair@QAVSK_PopupWindow@@PAVWindow@CEGUI@@@std@@@5@$0A@@std@@@std@@QBEABQAU?$_Tree_node@U?$pair@QAVSK_PopupWindow@@PAVWindow@CEGUI@@@std@@PAX@2@XZ ; std::_Tree_comp_alloc<std::_Tmap_traits<SK_PopupWindow *,CEGUI::Window *,std::less<SK_PopupWindow *>,std::allocator<std::pair<SK_PopupWindow * const,CEGUI::Window *> >,0> >::_Myhead
PUBLIC	?_Mysize@?$_Tree_comp_alloc@V?$_Tmap_traits@PAVSK_PopupWindow@@PAVWindow@CEGUI@@U?$less@PAVSK_PopupWindow@@@std@@V?$allocator@U?$pair@QAVSK_PopupWindow@@PAVWindow@CEGUI@@@std@@@5@$0A@@std@@@std@@QAEAAIXZ ; std::_Tree_comp_alloc<std::_Tmap_traits<SK_PopupWindow *,CEGUI::Window *,std::less<SK_PopupWindow *>,std::allocator<std::pair<SK_PopupWindow * const,CEGUI::Window *> >,0> >::_Mysize
PUBLIC	??R?$less@PAVSK_PopupWindow@@@std@@QBE_NABQAVSK_PopupWindow@@0@Z ; std::less<SK_PopupWindow *>::operator()
PUBLIC	??0?$_Tree_val@U?$_Tree_simple_types@U?$pair@QAVSK_PopupWindow@@PAVWindow@CEGUI@@@std@@@std@@@std@@QAE@XZ ; std::_Tree_val<std::_Tree_simple_types<std::pair<SK_PopupWindow * const,CEGUI::Window *> > >::_Tree_val<std::_Tree_simple_types<std::pair<SK_PopupWindow * const,CEGUI::Window *> > >
PUBLIC	?_Color@?$_Tree_val@U?$_Tree_simple_types@U?$pair@QAVSK_PopupWindow@@PAVWindow@CEGUI@@@std@@@std@@@std@@SAAADPAU?$_Tree_node@U?$pair@QAVSK_PopupWindow@@PAVWindow@CEGUI@@@std@@PAX@2@@Z ; std::_Tree_val<std::_Tree_simple_types<std::pair<SK_PopupWindow * const,CEGUI::Window *> > >::_Color
PUBLIC	?_Isnil@?$_Tree_val@U?$_Tree_simple_types@U?$pair@QAVSK_PopupWindow@@PAVWindow@CEGUI@@@std@@@std@@@std@@SAAADPAU?$_Tree_node@U?$pair@QAVSK_PopupWindow@@PAVWindow@CEGUI@@@std@@PAX@2@@Z ; std::_Tree_val<std::_Tree_simple_types<std::pair<SK_PopupWindow * const,CEGUI::Window *> > >::_Isnil
PUBLIC	?_Left@?$_Tree_val@U?$_Tree_simple_types@U?$pair@QAVSK_PopupWindow@@PAVWindow@CEGUI@@@std@@@std@@@std@@SAAAPAU?$_Tree_node@U?$pair@QAVSK_PopupWindow@@PAVWindow@CEGUI@@@std@@PAX@2@PAU32@@Z ; std::_Tree_val<std::_Tree_simple_types<std::pair<SK_PopupWindow * const,CEGUI::Window *> > >::_Left
PUBLIC	?_Parent@?$_Tree_val@U?$_Tree_simple_types@U?$pair@QAVSK_PopupWindow@@PAVWindow@CEGUI@@@std@@@std@@@std@@SAAAPAU?$_Tree_node@U?$pair@QAVSK_PopupWindow@@PAVWindow@CEGUI@@@std@@PAX@2@PAU32@@Z ; std::_Tree_val<std::_Tree_simple_types<std::pair<SK_PopupWindow * const,CEGUI::Window *> > >::_Parent
PUBLIC	?_Right@?$_Tree_val@U?$_Tree_simple_types@U?$pair@QAVSK_PopupWindow@@PAVWindow@CEGUI@@@std@@@std@@@std@@SAAAPAU?$_Tree_node@U?$pair@QAVSK_PopupWindow@@PAVWindow@CEGUI@@@std@@PAX@2@PAU32@@Z ; std::_Tree_val<std::_Tree_simple_types<std::pair<SK_PopupWindow * const,CEGUI::Window *> > >::_Right
PUBLIC	?_Myval@?$_Tree_val@U?$_Tree_simple_types@U?$pair@QAVSK_PopupWindow@@PAVWindow@CEGUI@@@std@@@std@@@std@@SAAAU?$pair@QAVSK_PopupWindow@@PAVWindow@CEGUI@@@2@PAU?$_Tree_node@U?$pair@QAVSK_PopupWindow@@PAVWindow@CEGUI@@@std@@PAX@2@@Z ; std::_Tree_val<std::_Tree_simple_types<std::pair<SK_PopupWindow * const,CEGUI::Window *> > >::_Myval
PUBLIC	?_Max@?$_Tree_val@U?$_Tree_simple_types@U?$pair@QAVSK_PopupWindow@@PAVWindow@CEGUI@@@std@@@std@@@std@@SAPAU?$_Tree_node@U?$pair@QAVSK_PopupWindow@@PAVWindow@CEGUI@@@std@@PAX@2@PAU32@@Z ; std::_Tree_val<std::_Tree_simple_types<std::pair<SK_PopupWindow * const,CEGUI::Window *> > >::_Max
PUBLIC	?_Min@?$_Tree_val@U?$_Tree_simple_types@U?$pair@QAVSK_PopupWindow@@PAVWindow@CEGUI@@@std@@@std@@@std@@SAPAU?$_Tree_node@U?$pair@QAVSK_PopupWindow@@PAVWindow@CEGUI@@@std@@PAX@2@PAU32@@Z ; std::_Tree_val<std::_Tree_simple_types<std::pair<SK_PopupWindow * const,CEGUI::Window *> > >::_Min
PUBLIC	?_Get_first@?$_Compressed_pair@U?$_Wrap_alloc@V?$allocator@U?$_Tree_node@U?$pair@QAVSK_PopupWindow@@PAVWindow@CEGUI@@@std@@PAX@std@@@std@@@std@@V?$_Tree_val@U?$_Tree_simple_types@U?$pair@QAVSK_PopupWindow@@PAVWindow@CEGUI@@@std@@@std@@@2@$00@std@@QAEAAU?$_Wrap_alloc@V?$allocator@U?$_Tree_node@U?$pair@QAVSK_PopupWindow@@PAVWindow@CEGUI@@@std@@PAX@std@@@std@@@2@XZ ; std::_Compressed_pair<std::_Wrap_alloc<std::allocator<std::_Tree_node<std::pair<SK_PopupWindow * const,CEGUI::Window *>,void *> > >,std::_Tree_val<std::_Tree_simple_types<std::pair<SK_PopupWindow * const,CEGUI::Window *> > >,1>::_Get_first
PUBLIC	?_Get_first@?$_Compressed_pair@U?$_Wrap_alloc@V?$allocator@U?$_Tree_node@U?$pair@QAVSK_PopupWindow@@PAVWindow@CEGUI@@@std@@PAX@std@@@std@@@std@@V?$_Tree_val@U?$_Tree_simple_types@U?$pair@QAVSK_PopupWindow@@PAVWindow@CEGUI@@@std@@@std@@@2@$00@std@@QBEABU?$_Wrap_alloc@V?$allocator@U?$_Tree_node@U?$pair@QAVSK_PopupWindow@@PAVWindow@CEGUI@@@std@@PAX@std@@@std@@@2@XZ ; std::_Compressed_pair<std::_Wrap_alloc<std::allocator<std::_Tree_node<std::pair<SK_PopupWindow * const,CEGUI::Window *>,void *> > >,std::_Tree_val<std::_Tree_simple_types<std::pair<SK_PopupWindow * const,CEGUI::Window *> > >,1>::_Get_first
PUBLIC	?_Get_second@?$_Compressed_pair@U?$_Wrap_alloc@V?$allocator@U?$_Tree_node@U?$pair@QAVSK_PopupWindow@@PAVWindow@CEGUI@@@std@@PAX@std@@@std@@@std@@V?$_Tree_val@U?$_Tree_simple_types@U?$pair@QAVSK_PopupWindow@@PAVWindow@CEGUI@@@std@@@std@@@2@$00@std@@QAEAAV?$_Tree_val@U?$_Tree_simple_types@U?$pair@QAVSK_PopupWindow@@PAVWindow@CEGUI@@@std@@@std@@@2@XZ ; std::_Compressed_pair<std::_Wrap_alloc<std::allocator<std::_Tree_node<std::pair<SK_PopupWindow * const,CEGUI::Window *>,void *> > >,std::_Tree_val<std::_Tree_simple_types<std::pair<SK_PopupWindow * const,CEGUI::Window *> > >,1>::_Get_second
PUBLIC	?_Get_second@?$_Compressed_pair@U?$_Wrap_alloc@V?$allocator@U?$_Tree_node@U?$pair@QAVSK_PopupWindow@@PAVWindow@CEGUI@@@std@@PAX@std@@@std@@@std@@V?$_Tree_val@U?$_Tree_simple_types@U?$pair@QAVSK_PopupWindow@@PAVWindow@CEGUI@@@std@@@std@@@2@$00@std@@QBEABV?$_Tree_val@U?$_Tree_simple_types@U?$pair@QAVSK_PopupWindow@@PAVWindow@CEGUI@@@std@@@std@@@2@XZ ; std::_Compressed_pair<std::_Wrap_alloc<std::allocator<std::_Tree_node<std::pair<SK_PopupWindow * const,CEGUI::Window *>,void *> > >,std::_Tree_val<std::_Tree_simple_types<std::pair<SK_PopupWindow * const,CEGUI::Window *> > >,1>::_Get_second
PUBLIC	?_Get_first@?$_Compressed_pair@U?$less@PAVSK_PopupWindow@@@std@@V?$_Compressed_pair@U?$_Wrap_alloc@V?$allocator@U?$_Tree_node@U?$pair@QAVSK_PopupWindow@@PAVWindow@CEGUI@@@std@@PAX@std@@@std@@@std@@V?$_Tree_val@U?$_Tree_simple_types@U?$pair@QAVSK_PopupWindow@@PAVWindow@CEGUI@@@std@@@std@@@2@$00@2@$00@std@@QAEAAU?$less@PAVSK_PopupWindow@@@2@XZ ; std::_Compressed_pair<std::less<SK_PopupWindow *>,std::_Compressed_pair<std::_Wrap_alloc<std::allocator<std::_Tree_node<std::pair<SK_PopupWindow * const,CEGUI::Window *>,void *> > >,std::_Tree_val<std::_Tree_simple_types<std::pair<SK_PopupWindow * const,CEGUI::Window *> > >,1>,1>::_Get_first
PUBLIC	?_Get_first@?$_Compressed_pair@U?$less@PAVSK_PopupWindow@@@std@@V?$_Compressed_pair@U?$_Wrap_alloc@V?$allocator@U?$_Tree_node@U?$pair@QAVSK_PopupWindow@@PAVWindow@CEGUI@@@std@@PAX@std@@@std@@@std@@V?$_Tree_val@U?$_Tree_simple_types@U?$pair@QAVSK_PopupWindow@@PAVWindow@CEGUI@@@std@@@std@@@2@$00@2@$00@std@@QBEABU?$less@PAVSK_PopupWindow@@@2@XZ ; std::_Compressed_pair<std::less<SK_PopupWindow *>,std::_Compressed_pair<std::_Wrap_alloc<std::allocator<std::_Tree_node<std::pair<SK_PopupWindow * const,CEGUI::Window *>,void *> > >,std::_Tree_val<std::_Tree_simple_types<std::pair<SK_PopupWindow * const,CEGUI::Window *> > >,1>,1>::_Get_first
PUBLIC	?_Get_second@?$_Compressed_pair@U?$less@PAVSK_PopupWindow@@@std@@V?$_Compressed_pair@U?$_Wrap_alloc@V?$allocator@U?$_Tree_node@U?$pair@QAVSK_PopupWindow@@PAVWindow@CEGUI@@@std@@PAX@std@@@std@@@std@@V?$_Tree_val@U?$_Tree_simple_types@U?$pair@QAVSK_PopupWindow@@PAVWindow@CEGUI@@@std@@@std@@@2@$00@2@$00@std@@QAEAAV?$_Compressed_pair@U?$_Wrap_alloc@V?$allocator@U?$_Tree_node@U?$pair@QAVSK_PopupWindow@@PAVWindow@CEGUI@@@std@@PAX@std@@@std@@@std@@V?$_Tree_val@U?$_Tree_simple_types@U?$pair@QAVSK_PopupWindow@@PAVWindow@CEGUI@@@std@@@std@@@2@$00@2@XZ ; std::_Compressed_pair<std::less<SK_PopupWindow *>,std::_Compressed_pair<std::_Wrap_alloc<std::allocator<std::_Tree_node<std::pair<SK_PopupWindow * const,CEGUI::Window *>,void *> > >,std::_Tree_val<std::_Tree_simple_types<std::pair<SK_PopupWindow * const,CEGUI::Window *> > >,1>,1>::_Get_second
PUBLIC	?_Get_second@?$_Compressed_pair@U?$less@PAVSK_PopupWindow@@@std@@V?$_Compressed_pair@U?$_Wrap_alloc@V?$allocator@U?$_Tree_node@U?$pair@QAVSK_PopupWindow@@PAVWindow@CEGUI@@@std@@PAX@std@@@std@@@std@@V?$_Tree_val@U?$_Tree_simple_types@U?$pair@QAVSK_PopupWindow@@PAVWindow@CEGUI@@@std@@@std@@@2@$00@2@$00@std@@QBEABV?$_Compressed_pair@U?$_Wrap_alloc@V?$allocator@U?$_Tree_node@U?$pair@QAVSK_PopupWindow@@PAVWindow@CEGUI@@@std@@PAX@std@@@std@@@std@@V?$_Tree_val@U?$_Tree_simple_types@U?$pair@QAVSK_PopupWindow@@PAVWindow@CEGUI@@@std@@@std@@@2@$00@2@XZ ; std::_Compressed_pair<std::less<SK_PopupWindow *>,std::_Compressed_pair<std::_Wrap_alloc<std::allocator<std::_Tree_node<std::pair<SK_PopupWindow * const,CEGUI::Window *>,void *> > >,std::_Tree_val<std::_Tree_simple_types<std::pair<SK_PopupWindow * const,CEGUI::Window *> > >,1>,1>::_Get_second
PUBLIC	??0?$_Tree@V?$_Tmap_traits@PAVSK_PopupWindow@@PAVWindow@CEGUI@@U?$less@PAVSK_PopupWindow@@@std@@V?$allocator@U?$pair@QAVSK_PopupWindow@@PAVWindow@CEGUI@@@std@@@5@$0A@@std@@@std@@QAE@ABU?$less@PAVSK_PopupWindow@@@1@@Z ; std::_Tree<std::_Tmap_traits<SK_PopupWindow *,CEGUI::Window *,std::less<SK_PopupWindow *>,std::allocator<std::pair<SK_PopupWindow * const,CEGUI::Window *> >,0> >::_Tree<std::_Tmap_traits<SK_PopupWindow *,CEGUI::Window *,std::less<SK_PopupWindow *>,std::allocator<std::pair<SK_PopupWindow * const,CEGUI::Window *> >,0> >
PUBLIC	??1?$_Tree@V?$_Tmap_traits@PAVSK_PopupWindow@@PAVWindow@CEGUI@@U?$less@PAVSK_PopupWindow@@@std@@V?$allocator@U?$pair@QAVSK_PopupWindow@@PAVWindow@CEGUI@@@std@@@5@$0A@@std@@@std@@QAE@XZ ; std::_Tree<std::_Tmap_traits<SK_PopupWindow *,CEGUI::Window *,std::less<SK_PopupWindow *>,std::allocator<std::pair<SK_PopupWindow * const,CEGUI::Window *> >,0> >::~_Tree<std::_Tmap_traits<SK_PopupWindow *,CEGUI::Window *,std::less<SK_PopupWindow *>,std::allocator<std::pair<SK_PopupWindow * const,CEGUI::Window *> >,0> >
PUBLIC	?begin@?$_Tree@V?$_Tmap_traits@PAVSK_PopupWindow@@PAVWindow@CEGUI@@U?$less@PAVSK_PopupWindow@@@std@@V?$allocator@U?$pair@QAVSK_PopupWindow@@PAVWindow@CEGUI@@@std@@@5@$0A@@std@@@std@@QAE?AV?$_Tree_iterator@V?$_Tree_val@U?$_Tree_simple_types@U?$pair@QAVSK_PopupWindow@@PAVWindow@CEGUI@@@std@@@std@@@std@@@2@XZ ; std::_Tree<std::_Tmap_traits<SK_PopupWindow *,CEGUI::Window *,std::less<SK_PopupWindow *>,std::allocator<std::pair<SK_PopupWindow * const,CEGUI::Window *> >,0> >::begin
PUBLIC	?end@?$_Tree@V?$_Tmap_traits@PAVSK_PopupWindow@@PAVWindow@CEGUI@@U?$less@PAVSK_PopupWindow@@@std@@V?$allocator@U?$pair@QAVSK_PopupWindow@@PAVWindow@CEGUI@@@std@@@5@$0A@@std@@@std@@QAE?AV?$_Tree_iterator@V?$_Tree_val@U?$_Tree_simple_types@U?$pair@QAVSK_PopupWindow@@PAVWindow@CEGUI@@@std@@@std@@@std@@@2@XZ ; std::_Tree<std::_Tmap_traits<SK_PopupWindow *,CEGUI::Window *,std::less<SK_PopupWindow *>,std::allocator<std::pair<SK_PopupWindow * const,CEGUI::Window *> >,0> >::end
PUBLIC	?max_size@?$_Tree@V?$_Tmap_traits@PAVSK_PopupWindow@@PAVWindow@CEGUI@@U?$less@PAVSK_PopupWindow@@@std@@V?$allocator@U?$pair@QAVSK_PopupWindow@@PAVWindow@CEGUI@@@std@@@5@$0A@@std@@@std@@QBEIXZ ; std::_Tree<std::_Tmap_traits<SK_PopupWindow *,CEGUI::Window *,std::less<SK_PopupWindow *>,std::allocator<std::pair<SK_PopupWindow * const,CEGUI::Window *> >,0> >::max_size
PUBLIC	?erase@?$_Tree@V?$_Tmap_traits@PAVSK_PopupWindow@@PAVWindow@CEGUI@@U?$less@PAVSK_PopupWindow@@@std@@V?$allocator@U?$pair@QAVSK_PopupWindow@@PAVWindow@CEGUI@@@std@@@5@$0A@@std@@@std@@QAE?AV?$_Tree_iterator@V?$_Tree_val@U?$_Tree_simple_types@U?$pair@QAVSK_PopupWindow@@PAVWindow@CEGUI@@@std@@@std@@@std@@@2@V?$_Tree_const_iterator@V?$_Tree_val@U?$_Tree_simple_types@U?$pair@QAVSK_PopupWindow@@PAVWindow@CEGUI@@@std@@@std@@@std@@@2@@Z ; std::_Tree<std::_Tmap_traits<SK_PopupWindow *,CEGUI::Window *,std::less<SK_PopupWindow *>,std::allocator<std::pair<SK_PopupWindow * const,CEGUI::Window *> >,0> >::erase
PUBLIC	?erase@?$_Tree@V?$_Tmap_traits@PAVSK_PopupWindow@@PAVWindow@CEGUI@@U?$less@PAVSK_PopupWindow@@@std@@V?$allocator@U?$pair@QAVSK_PopupWindow@@PAVWindow@CEGUI@@@std@@@5@$0A@@std@@@std@@QAE?AV?$_Tree_iterator@V?$_Tree_val@U?$_Tree_simple_types@U?$pair@QAVSK_PopupWindow@@PAVWindow@CEGUI@@@std@@@std@@@std@@@2@V?$_Tree_const_iterator@V?$_Tree_val@U?$_Tree_simple_types@U?$pair@QAVSK_PopupWindow@@PAVWindow@CEGUI@@@std@@@std@@@std@@@2@0@Z ; std::_Tree<std::_Tmap_traits<SK_PopupWindow *,CEGUI::Window *,std::less<SK_PopupWindow *>,std::allocator<std::pair<SK_PopupWindow * const,CEGUI::Window *> >,0> >::erase
PUBLIC	?erase@?$_Tree@V?$_Tmap_traits@PAVSK_PopupWindow@@PAVWindow@CEGUI@@U?$less@PAVSK_PopupWindow@@@std@@V?$allocator@U?$pair@QAVSK_PopupWindow@@PAVWindow@CEGUI@@@std@@@5@$0A@@std@@@std@@QAEIABQAVSK_PopupWindow@@@Z ; std::_Tree<std::_Tmap_traits<SK_PopupWindow *,CEGUI::Window *,std::less<SK_PopupWindow *>,std::allocator<std::pair<SK_PopupWindow * const,CEGUI::Window *> >,0> >::erase
PUBLIC	?clear@?$_Tree@V?$_Tmap_traits@PAVSK_PopupWindow@@PAVWindow@CEGUI@@U?$less@PAVSK_PopupWindow@@@std@@V?$allocator@U?$pair@QAVSK_PopupWindow@@PAVWindow@CEGUI@@@std@@@5@$0A@@std@@@std@@QAEXXZ ; std::_Tree<std::_Tmap_traits<SK_PopupWindow *,CEGUI::Window *,std::less<SK_PopupWindow *>,std::allocator<std::pair<SK_PopupWindow * const,CEGUI::Window *> >,0> >::clear
PUBLIC	?count@?$_Tree@V?$_Tmap_traits@PAVSK_PopupWindow@@PAVWindow@CEGUI@@U?$less@PAVSK_PopupWindow@@@std@@V?$allocator@U?$pair@QAVSK_PopupWindow@@PAVWindow@CEGUI@@@std@@@5@$0A@@std@@@std@@QBEIABQAVSK_PopupWindow@@@Z ; std::_Tree<std::_Tmap_traits<SK_PopupWindow *,CEGUI::Window *,std::less<SK_PopupWindow *>,std::allocator<std::pair<SK_PopupWindow * const,CEGUI::Window *> >,0> >::count
PUBLIC	?equal_range@?$_Tree@V?$_Tmap_traits@PAVSK_PopupWindow@@PAVWindow@CEGUI@@U?$less@PAVSK_PopupWindow@@@std@@V?$allocator@U?$pair@QAVSK_PopupWindow@@PAVWindow@CEGUI@@@std@@@5@$0A@@std@@@std@@QAE?AU?$pair@V?$_Tree_iterator@V?$_Tree_val@U?$_Tree_simple_types@U?$pair@QAVSK_PopupWindow@@PAVWindow@CEGUI@@@std@@@std@@@std@@@std@@V12@@2@ABQAVSK_PopupWindow@@@Z ; std::_Tree<std::_Tmap_traits<SK_PopupWindow *,CEGUI::Window *,std::less<SK_PopupWindow *>,std::allocator<std::pair<SK_PopupWindow * const,CEGUI::Window *> >,0> >::equal_range
PUBLIC	?equal_range@?$_Tree@V?$_Tmap_traits@PAVSK_PopupWindow@@PAVWindow@CEGUI@@U?$less@PAVSK_PopupWindow@@@std@@V?$allocator@U?$pair@QAVSK_PopupWindow@@PAVWindow@CEGUI@@@std@@@5@$0A@@std@@@std@@QBE?AU?$pair@V?$_Tree_const_iterator@V?$_Tree_val@U?$_Tree_simple_types@U?$pair@QAVSK_PopupWindow@@PAVWindow@CEGUI@@@std@@@std@@@std@@@std@@V12@@2@ABQAVSK_PopupWindow@@@Z ; std::_Tree<std::_Tmap_traits<SK_PopupWindow *,CEGUI::Window *,std::less<SK_PopupWindow *>,std::allocator<std::pair<SK_PopupWindow * const,CEGUI::Window *> >,0> >::equal_range
PUBLIC	?_Destroy_if_not_nil@?$_Tree@V?$_Tmap_traits@PAVSK_PopupWindow@@PAVWindow@CEGUI@@U?$less@PAVSK_PopupWindow@@@std@@V?$allocator@U?$pair@QAVSK_PopupWindow@@PAVWindow@CEGUI@@@std@@@5@$0A@@std@@@std@@IAEXPAU?$_Tree_node@U?$pair@QAVSK_PopupWindow@@PAVWindow@CEGUI@@@std@@PAX@2@@Z ; std::_Tree<std::_Tmap_traits<SK_PopupWindow *,CEGUI::Window *,std::less<SK_PopupWindow *>,std::allocator<std::pair<SK_PopupWindow * const,CEGUI::Window *> >,0> >::_Destroy_if_not_nil
PUBLIC	?_Erase@?$_Tree@V?$_Tmap_traits@PAVSK_PopupWindow@@PAVWindow@CEGUI@@U?$less@PAVSK_PopupWindow@@@std@@V?$allocator@U?$pair@QAVSK_PopupWindow@@PAVWindow@CEGUI@@@std@@@5@$0A@@std@@@std@@IAEXPAU?$_Tree_node@U?$pair@QAVSK_PopupWindow@@PAVWindow@CEGUI@@@std@@PAX@2@@Z ; std::_Tree<std::_Tmap_traits<SK_PopupWindow *,CEGUI::Window *,std::less<SK_PopupWindow *>,std::allocator<std::pair<SK_PopupWindow * const,CEGUI::Window *> >,0> >::_Erase
PUBLIC	?_Lmost@?$_Tree@V?$_Tmap_traits@PAVSK_PopupWindow@@PAVWindow@CEGUI@@U?$less@PAVSK_PopupWindow@@@std@@V?$allocator@U?$pair@QAVSK_PopupWindow@@PAVWindow@CEGUI@@@std@@@5@$0A@@std@@@std@@IBEAAPAU?$_Tree_node@U?$pair@QAVSK_PopupWindow@@PAVWindow@CEGUI@@@std@@PAX@2@XZ ; std::_Tree<std::_Tmap_traits<SK_PopupWindow *,CEGUI::Window *,std::less<SK_PopupWindow *>,std::allocator<std::pair<SK_PopupWindow * const,CEGUI::Window *> >,0> >::_Lmost
PUBLIC	?_Lrotate@?$_Tree@V?$_Tmap_traits@PAVSK_PopupWindow@@PAVWindow@CEGUI@@U?$less@PAVSK_PopupWindow@@@std@@V?$allocator@U?$pair@QAVSK_PopupWindow@@PAVWindow@CEGUI@@@std@@@5@$0A@@std@@@std@@IAEXPAU?$_Tree_node@U?$pair@QAVSK_PopupWindow@@PAVWindow@CEGUI@@@std@@PAX@2@@Z ; std::_Tree<std::_Tmap_traits<SK_PopupWindow *,CEGUI::Window *,std::less<SK_PopupWindow *>,std::allocator<std::pair<SK_PopupWindow * const,CEGUI::Window *> >,0> >::_Lrotate
PUBLIC	?_Rmost@?$_Tree@V?$_Tmap_traits@PAVSK_PopupWindow@@PAVWindow@CEGUI@@U?$less@PAVSK_PopupWindow@@@std@@V?$allocator@U?$pair@QAVSK_PopupWindow@@PAVWindow@CEGUI@@@std@@@5@$0A@@std@@@std@@IBEAAPAU?$_Tree_node@U?$pair@QAVSK_PopupWindow@@PAVWindow@CEGUI@@@std@@PAX@2@XZ ; std::_Tree<std::_Tmap_traits<SK_PopupWindow *,CEGUI::Window *,std::less<SK_PopupWindow *>,std::allocator<std::pair<SK_PopupWindow * const,CEGUI::Window *> >,0> >::_Rmost
PUBLIC	?_Root@?$_Tree@V?$_Tmap_traits@PAVSK_PopupWindow@@PAVWindow@CEGUI@@U?$less@PAVSK_PopupWindow@@@std@@V?$allocator@U?$pair@QAVSK_PopupWindow@@PAVWindow@CEGUI@@@std@@@5@$0A@@std@@@std@@IBEAAPAU?$_Tree_node@U?$pair@QAVSK_PopupWindow@@PAVWindow@CEGUI@@@std@@PAX@2@XZ ; std::_Tree<std::_Tmap_traits<SK_PopupWindow *,CEGUI::Window *,std::less<SK_PopupWindow *>,std::allocator<std::pair<SK_PopupWindow * const,CEGUI::Window *> >,0> >::_Root
PUBLIC	?_Rrotate@?$_Tree@V?$_Tmap_traits@PAVSK_PopupWindow@@PAVWindow@CEGUI@@U?$less@PAVSK_PopupWindow@@@std@@V?$allocator@U?$pair@QAVSK_PopupWindow@@PAVWindow@CEGUI@@@std@@@5@$0A@@std@@@std@@IAEXPAU?$_Tree_node@U?$pair@QAVSK_PopupWindow@@PAVWindow@CEGUI@@@std@@PAX@2@@Z ; std::_Tree<std::_Tmap_traits<SK_PopupWindow *,CEGUI::Window *,std::less<SK_PopupWindow *>,std::allocator<std::pair<SK_PopupWindow * const,CEGUI::Window *> >,0> >::_Rrotate
PUBLIC	?_Tidy@?$_Tree@V?$_Tmap_traits@PAVSK_PopupWindow@@PAVWindow@CEGUI@@U?$less@PAVSK_PopupWindow@@@std@@V?$allocator@U?$pair@QAVSK_PopupWindow@@PAVWindow@CEGUI@@@std@@@5@$0A@@std@@@std@@IAEXXZ ; std::_Tree<std::_Tmap_traits<SK_PopupWindow *,CEGUI::Window *,std::less<SK_PopupWindow *>,std::allocator<std::pair<SK_PopupWindow * const,CEGUI::Window *> >,0> >::_Tidy
PUBLIC	?_Kfn@?$_Tree@V?$_Tmap_traits@PAVSK_PopupWindow@@PAVWindow@CEGUI@@U?$less@PAVSK_PopupWindow@@@std@@V?$allocator@U?$pair@QAVSK_PopupWindow@@PAVWindow@CEGUI@@@std@@@5@$0A@@std@@@std@@IBEABQAVSK_PopupWindow@@ABU?$pair@QAVSK_PopupWindow@@PAVWindow@CEGUI@@@2@@Z ; std::_Tree<std::_Tmap_traits<SK_PopupWindow *,CEGUI::Window *,std::less<SK_PopupWindow *>,std::allocator<std::pair<SK_PopupWindow * const,CEGUI::Window *> >,0> >::_Kfn
PUBLIC	?_Key@?$_Tree@V?$_Tmap_traits@PAVSK_PopupWindow@@PAVWindow@CEGUI@@U?$less@PAVSK_PopupWindow@@@std@@V?$allocator@U?$pair@QAVSK_PopupWindow@@PAVWindow@CEGUI@@@std@@@5@$0A@@std@@@std@@IBEABQAVSK_PopupWindow@@PAU?$_Tree_node@U?$pair@QAVSK_PopupWindow@@PAVWindow@CEGUI@@@std@@PAX@2@@Z ; std::_Tree<std::_Tmap_traits<SK_PopupWindow *,CEGUI::Window *,std::less<SK_PopupWindow *>,std::allocator<std::pair<SK_PopupWindow * const,CEGUI::Window *> >,0> >::_Key
PUBLIC	??0?$map@PAVSK_PopupWindow@@PAVWindow@CEGUI@@U?$less@PAVSK_PopupWindow@@@std@@V?$allocator@U?$pair@QAVSK_PopupWindow@@PAVWindow@CEGUI@@@std@@@5@@std@@QAE@XZ ; std::map<SK_PopupWindow *,CEGUI::Window *,std::less<SK_PopupWindow *>,std::allocator<std::pair<SK_PopupWindow * const,CEGUI::Window *> > >::map<SK_PopupWindow *,CEGUI::Window *,std::less<SK_PopupWindow *>,std::allocator<std::pair<SK_PopupWindow * const,CEGUI::Window *> > >
PUBLIC	??1?$map@PAVSK_PopupWindow@@PAVWindow@CEGUI@@U?$less@PAVSK_PopupWindow@@@std@@V?$allocator@U?$pair@QAVSK_PopupWindow@@PAVWindow@CEGUI@@@std@@@5@@std@@QAE@XZ ; std::map<SK_PopupWindow *,CEGUI::Window *,std::less<SK_PopupWindow *>,std::allocator<std::pair<SK_PopupWindow * const,CEGUI::Window *> > >::~map<SK_PopupWindow *,CEGUI::Window *,std::less<SK_PopupWindow *>,std::allocator<std::pair<SK_PopupWindow * const,CEGUI::Window *> > >
PUBLIC	??0?$allocator@U?$_Tree_node@U?$pair@QAVWindow@CEGUI@@PAVSK_PopupWindow@@@std@@PAX@std@@@std@@QAE@XZ ; std::allocator<std::_Tree_node<std::pair<CEGUI::Window * const,SK_PopupWindow *>,void *> >::allocator<std::_Tree_node<std::pair<CEGUI::Window * const,SK_PopupWindow *>,void *> >
PUBLIC	?deallocate@?$allocator@U?$_Tree_node@U?$pair@QAVWindow@CEGUI@@PAVSK_PopupWindow@@@std@@PAX@std@@@std@@QAEXPAU?$_Tree_node@U?$pair@QAVWindow@CEGUI@@PAVSK_PopupWindow@@@std@@PAX@2@I@Z ; std::allocator<std::_Tree_node<std::pair<CEGUI::Window * const,SK_PopupWindow *>,void *> >::deallocate
PUBLIC	?allocate@?$allocator@U?$_Tree_node@U?$pair@QAVWindow@CEGUI@@PAVSK_PopupWindow@@@std@@PAX@std@@@std@@QAEPAU?$_Tree_node@U?$pair@QAVWindow@CEGUI@@PAVSK_PopupWindow@@@std@@PAX@2@I@Z ; std::allocator<std::_Tree_node<std::pair<CEGUI::Window * const,SK_PopupWindow *>,void *> >::allocate
PUBLIC	?max_size@?$allocator@U?$_Tree_node@U?$pair@QAVWindow@CEGUI@@PAVSK_PopupWindow@@@std@@PAX@std@@@std@@QBEIXZ ; std::allocator<std::_Tree_node<std::pair<CEGUI::Window * const,SK_PopupWindow *>,void *> >::max_size
PUBLIC	?max_size@?$allocator_traits@V?$allocator@U?$_Tree_node@U?$pair@QAVWindow@CEGUI@@PAVSK_PopupWindow@@@std@@PAX@std@@@std@@@std@@SAIABV?$allocator@U?$_Tree_node@U?$pair@QAVWindow@CEGUI@@PAVSK_PopupWindow@@@std@@PAX@std@@@2@@Z ; std::allocator_traits<std::allocator<std::_Tree_node<std::pair<CEGUI::Window * const,SK_PopupWindow *>,void *> > >::max_size
PUBLIC	??0?$_Wrap_alloc@V?$allocator@U?$_Tree_node@U?$pair@QAVWindow@CEGUI@@PAVSK_PopupWindow@@@std@@PAX@std@@@std@@@std@@QAE@XZ ; std::_Wrap_alloc<std::allocator<std::_Tree_node<std::pair<CEGUI::Window * const,SK_PopupWindow *>,void *> > >::_Wrap_alloc<std::allocator<std::_Tree_node<std::pair<CEGUI::Window * const,SK_PopupWindow *>,void *> > >
PUBLIC	?allocate@?$_Wrap_alloc@V?$allocator@U?$_Tree_node@U?$pair@QAVWindow@CEGUI@@PAVSK_PopupWindow@@@std@@PAX@std@@@std@@@std@@QAEPAU?$_Tree_node@U?$pair@QAVWindow@CEGUI@@PAVSK_PopupWindow@@@std@@PAX@2@I@Z ; std::_Wrap_alloc<std::allocator<std::_Tree_node<std::pair<CEGUI::Window * const,SK_PopupWindow *>,void *> > >::allocate
PUBLIC	?deallocate@?$_Wrap_alloc@V?$allocator@U?$_Tree_node@U?$pair@QAVWindow@CEGUI@@PAVSK_PopupWindow@@@std@@PAX@std@@@std@@@std@@QAEXPAU?$_Tree_node@U?$pair@QAVWindow@CEGUI@@PAVSK_PopupWindow@@@std@@PAX@2@I@Z ; std::_Wrap_alloc<std::allocator<std::_Tree_node<std::pair<CEGUI::Window * const,SK_PopupWindow *>,void *> > >::deallocate
PUBLIC	?max_size@?$_Wrap_alloc@V?$allocator@U?$_Tree_node@U?$pair@QAVWindow@CEGUI@@PAVSK_PopupWindow@@@std@@PAX@std@@@std@@@std@@QBEIU_Nil@2@@Z ; std::_Wrap_alloc<std::allocator<std::_Tree_node<std::pair<CEGUI::Window * const,SK_PopupWindow *>,void *> > >::max_size
PUBLIC	?_Color@?$_Tree_comp_alloc@V?$_Tmap_traits@PAVWindow@CEGUI@@PAVSK_PopupWindow@@U?$less@PAVWindow@CEGUI@@@std@@V?$allocator@U?$pair@QAVWindow@CEGUI@@PAVSK_PopupWindow@@@std@@@5@$0A@@std@@@std@@SAAADPAU?$_Tree_node@U?$pair@QAVWindow@CEGUI@@PAVSK_PopupWindow@@@std@@PAX@2@@Z ; std::_Tree_comp_alloc<std::_Tmap_traits<CEGUI::Window *,SK_PopupWindow *,std::less<CEGUI::Window *>,std::allocator<std::pair<CEGUI::Window * const,SK_PopupWindow *> >,0> >::_Color
PUBLIC	?_Isnil@?$_Tree_comp_alloc@V?$_Tmap_traits@PAVWindow@CEGUI@@PAVSK_PopupWindow@@U?$less@PAVWindow@CEGUI@@@std@@V?$allocator@U?$pair@QAVWindow@CEGUI@@PAVSK_PopupWindow@@@std@@@5@$0A@@std@@@std@@SAAADPAU?$_Tree_node@U?$pair@QAVWindow@CEGUI@@PAVSK_PopupWindow@@@std@@PAX@2@@Z ; std::_Tree_comp_alloc<std::_Tmap_traits<CEGUI::Window *,SK_PopupWindow *,std::less<CEGUI::Window *>,std::allocator<std::pair<CEGUI::Window * const,SK_PopupWindow *> >,0> >::_Isnil
PUBLIC	?_Left@?$_Tree_comp_alloc@V?$_Tmap_traits@PAVWindow@CEGUI@@PAVSK_PopupWindow@@U?$less@PAVWindow@CEGUI@@@std@@V?$allocator@U?$pair@QAVWindow@CEGUI@@PAVSK_PopupWindow@@@std@@@5@$0A@@std@@@std@@SAAAPAU?$_Tree_node@U?$pair@QAVWindow@CEGUI@@PAVSK_PopupWindow@@@std@@PAX@2@PAU32@@Z ; std::_Tree_comp_alloc<std::_Tmap_traits<CEGUI::Window *,SK_PopupWindow *,std::less<CEGUI::Window *>,std::allocator<std::pair<CEGUI::Window * const,SK_PopupWindow *> >,0> >::_Left
PUBLIC	?_Parent@?$_Tree_comp_alloc@V?$_Tmap_traits@PAVWindow@CEGUI@@PAVSK_PopupWindow@@U?$less@PAVWindow@CEGUI@@@std@@V?$allocator@U?$pair@QAVWindow@CEGUI@@PAVSK_PopupWindow@@@std@@@5@$0A@@std@@@std@@SAAAPAU?$_Tree_node@U?$pair@QAVWindow@CEGUI@@PAVSK_PopupWindow@@@std@@PAX@2@PAU32@@Z ; std::_Tree_comp_alloc<std::_Tmap_traits<CEGUI::Window *,SK_PopupWindow *,std::less<CEGUI::Window *>,std::allocator<std::pair<CEGUI::Window * const,SK_PopupWindow *> >,0> >::_Parent
PUBLIC	?_Right@?$_Tree_comp_alloc@V?$_Tmap_traits@PAVWindow@CEGUI@@PAVSK_PopupWindow@@U?$less@PAVWindow@CEGUI@@@std@@V?$allocator@U?$pair@QAVWindow@CEGUI@@PAVSK_PopupWindow@@@std@@@5@$0A@@std@@@std@@SAAAPAU?$_Tree_node@U?$pair@QAVWindow@CEGUI@@PAVSK_PopupWindow@@@std@@PAX@2@PAU32@@Z ; std::_Tree_comp_alloc<std::_Tmap_traits<CEGUI::Window *,SK_PopupWindow *,std::less<CEGUI::Window *>,std::allocator<std::pair<CEGUI::Window * const,SK_PopupWindow *> >,0> >::_Right
PUBLIC	?_Myval@?$_Tree_comp_alloc@V?$_Tmap_traits@PAVWindow@CEGUI@@PAVSK_PopupWindow@@U?$less@PAVWindow@CEGUI@@@std@@V?$allocator@U?$pair@QAVWindow@CEGUI@@PAVSK_PopupWindow@@@std@@@5@$0A@@std@@@std@@SAAAU?$pair@QAVWindow@CEGUI@@PAVSK_PopupWindow@@@2@PAU?$_Tree_node@U?$pair@QAVWindow@CEGUI@@PAVSK_PopupWindow@@@std@@PAX@2@@Z ; std::_Tree_comp_alloc<std::_Tmap_traits<CEGUI::Window *,SK_PopupWindow *,std::less<CEGUI::Window *>,std::allocator<std::pair<CEGUI::Window * const,SK_PopupWindow *> >,0> >::_Myval
PUBLIC	?_Max@?$_Tree_comp_alloc@V?$_Tmap_traits@PAVWindow@CEGUI@@PAVSK_PopupWindow@@U?$less@PAVWindow@CEGUI@@@std@@V?$allocator@U?$pair@QAVWindow@CEGUI@@PAVSK_PopupWindow@@@std@@@5@$0A@@std@@@std@@SAPAU?$_Tree_node@U?$pair@QAVWindow@CEGUI@@PAVSK_PopupWindow@@@std@@PAX@2@PAU32@@Z ; std::_Tree_comp_alloc<std::_Tmap_traits<CEGUI::Window *,SK_PopupWindow *,std::less<CEGUI::Window *>,std::allocator<std::pair<CEGUI::Window * const,SK_PopupWindow *> >,0> >::_Max
PUBLIC	?_Min@?$_Tree_comp_alloc@V?$_Tmap_traits@PAVWindow@CEGUI@@PAVSK_PopupWindow@@U?$less@PAVWindow@CEGUI@@@std@@V?$allocator@U?$pair@QAVWindow@CEGUI@@PAVSK_PopupWindow@@@std@@@5@$0A@@std@@@std@@SAPAU?$_Tree_node@U?$pair@QAVWindow@CEGUI@@PAVSK_PopupWindow@@@std@@PAX@2@PAU32@@Z ; std::_Tree_comp_alloc<std::_Tmap_traits<CEGUI::Window *,SK_PopupWindow *,std::less<CEGUI::Window *>,std::allocator<std::pair<CEGUI::Window * const,SK_PopupWindow *> >,0> >::_Min
PUBLIC	??0?$_Tree_comp_alloc@V?$_Tmap_traits@PAVWindow@CEGUI@@PAVSK_PopupWindow@@U?$less@PAVWindow@CEGUI@@@std@@V?$allocator@U?$pair@QAVWindow@CEGUI@@PAVSK_PopupWindow@@@std@@@5@$0A@@std@@@std@@QAE@ABU?$less@PAVWindow@CEGUI@@@1@@Z ; std::_Tree_comp_alloc<std::_Tmap_traits<CEGUI::Window *,SK_PopupWindow *,std::less<CEGUI::Window *>,std::allocator<std::pair<CEGUI::Window * const,SK_PopupWindow *> >,0> >::_Tree_comp_alloc<std::_Tmap_traits<CEGUI::Window *,SK_PopupWindow *,std::less<CEGUI::Window *>,std::allocator<std::pair<CEGUI::Window * const,SK_PopupWindow *> >,0> >
PUBLIC	?_Construct@?$_Tree_comp_alloc@V?$_Tmap_traits@PAVWindow@CEGUI@@PAVSK_PopupWindow@@U?$less@PAVWindow@CEGUI@@@std@@V?$allocator@U?$pair@QAVWindow@CEGUI@@PAVSK_PopupWindow@@@std@@@5@$0A@@std@@@std@@QAEXXZ ; std::_Tree_comp_alloc<std::_Tmap_traits<CEGUI::Window *,SK_PopupWindow *,std::less<CEGUI::Window *>,std::allocator<std::pair<CEGUI::Window * const,SK_PopupWindow *> >,0> >::_Construct
PUBLIC	??1?$_Tree_comp_alloc@V?$_Tmap_traits@PAVWindow@CEGUI@@PAVSK_PopupWindow@@U?$less@PAVWindow@CEGUI@@@std@@V?$allocator@U?$pair@QAVWindow@CEGUI@@PAVSK_PopupWindow@@@std@@@5@$0A@@std@@@std@@QAE@XZ ; std::_Tree_comp_alloc<std::_Tmap_traits<CEGUI::Window *,SK_PopupWindow *,std::less<CEGUI::Window *>,std::allocator<std::pair<CEGUI::Window * const,SK_PopupWindow *> >,0> >::~_Tree_comp_alloc<std::_Tmap_traits<CEGUI::Window *,SK_PopupWindow *,std::less<CEGUI::Window *>,std::allocator<std::pair<CEGUI::Window * const,SK_PopupWindow *> >,0> >
PUBLIC	?_Buyheadnode@?$_Tree_comp_alloc@V?$_Tmap_traits@PAVWindow@CEGUI@@PAVSK_PopupWindow@@U?$less@PAVWindow@CEGUI@@@std@@V?$allocator@U?$pair@QAVWindow@CEGUI@@PAVSK_PopupWindow@@@std@@@5@$0A@@std@@@std@@QAEPAU?$_Tree_node@U?$pair@QAVWindow@CEGUI@@PAVSK_PopupWindow@@@std@@PAX@2@XZ ; std::_Tree_comp_alloc<std::_Tmap_traits<CEGUI::Window *,SK_PopupWindow *,std::less<CEGUI::Window *>,std::allocator<std::pair<CEGUI::Window * const,SK_PopupWindow *> >,0> >::_Buyheadnode
PUBLIC	?_Freeheadnode@?$_Tree_comp_alloc@V?$_Tmap_traits@PAVWindow@CEGUI@@PAVSK_PopupWindow@@U?$less@PAVWindow@CEGUI@@@std@@V?$allocator@U?$pair@QAVWindow@CEGUI@@PAVSK_PopupWindow@@@std@@@5@$0A@@std@@@std@@QAEXPAU?$_Tree_node@U?$pair@QAVWindow@CEGUI@@PAVSK_PopupWindow@@@std@@PAX@2@@Z ; std::_Tree_comp_alloc<std::_Tmap_traits<CEGUI::Window *,SK_PopupWindow *,std::less<CEGUI::Window *>,std::allocator<std::pair<CEGUI::Window * const,SK_PopupWindow *> >,0> >::_Freeheadnode
PUBLIC	?_Buynode0@?$_Tree_comp_alloc@V?$_Tmap_traits@PAVWindow@CEGUI@@PAVSK_PopupWindow@@U?$less@PAVWindow@CEGUI@@@std@@V?$allocator@U?$pair@QAVWindow@CEGUI@@PAVSK_PopupWindow@@@std@@@5@$0A@@std@@@std@@QAEPAU?$_Tree_node@U?$pair@QAVWindow@CEGUI@@PAVSK_PopupWindow@@@std@@PAX@2@XZ ; std::_Tree_comp_alloc<std::_Tmap_traits<CEGUI::Window *,SK_PopupWindow *,std::less<CEGUI::Window *>,std::allocator<std::pair<CEGUI::Window * const,SK_PopupWindow *> >,0> >::_Buynode0
PUBLIC	?_Freenode0@?$_Tree_comp_alloc@V?$_Tmap_traits@PAVWindow@CEGUI@@PAVSK_PopupWindow@@U?$less@PAVWindow@CEGUI@@@std@@V?$allocator@U?$pair@QAVWindow@CEGUI@@PAVSK_PopupWindow@@@std@@@5@$0A@@std@@@std@@QAEXPAU?$_Tree_node@U?$pair@QAVWindow@CEGUI@@PAVSK_PopupWindow@@@std@@PAX@2@@Z ; std::_Tree_comp_alloc<std::_Tmap_traits<CEGUI::Window *,SK_PopupWindow *,std::less<CEGUI::Window *>,std::allocator<std::pair<CEGUI::Window * const,SK_PopupWindow *> >,0> >::_Freenode0
PUBLIC	?_Getcomp@?$_Tree_comp_alloc@V?$_Tmap_traits@PAVWindow@CEGUI@@PAVSK_PopupWindow@@U?$less@PAVWindow@CEGUI@@@std@@V?$allocator@U?$pair@QAVWindow@CEGUI@@PAVSK_PopupWindow@@@std@@@5@$0A@@std@@@std@@QAEAAU?$less@PAVWindow@CEGUI@@@2@XZ ; std::_Tree_comp_alloc<std::_Tmap_traits<CEGUI::Window *,SK_PopupWindow *,std::less<CEGUI::Window *>,std::allocator<std::pair<CEGUI::Window * const,SK_PopupWindow *> >,0> >::_Getcomp
PUBLIC	?_Getcomp@?$_Tree_comp_alloc@V?$_Tmap_traits@PAVWindow@CEGUI@@PAVSK_PopupWindow@@U?$less@PAVWindow@CEGUI@@@std@@V?$allocator@U?$pair@QAVWindow@CEGUI@@PAVSK_PopupWindow@@@std@@@5@$0A@@std@@@std@@QBEABU?$less@PAVWindow@CEGUI@@@2@XZ ; std::_Tree_comp_alloc<std::_Tmap_traits<CEGUI::Window *,SK_PopupWindow *,std::less<CEGUI::Window *>,std::allocator<std::pair<CEGUI::Window * const,SK_PopupWindow *> >,0> >::_Getcomp
PUBLIC	?_Getal@?$_Tree_comp_alloc@V?$_Tmap_traits@PAVWindow@CEGUI@@PAVSK_PopupWindow@@U?$less@PAVWindow@CEGUI@@@std@@V?$allocator@U?$pair@QAVWindow@CEGUI@@PAVSK_PopupWindow@@@std@@@5@$0A@@std@@@std@@QAEAAU?$_Wrap_alloc@V?$allocator@U?$_Tree_node@U?$pair@QAVWindow@CEGUI@@PAVSK_PopupWindow@@@std@@PAX@std@@@std@@@2@XZ ; std::_Tree_comp_alloc<std::_Tmap_traits<CEGUI::Window *,SK_PopupWindow *,std::less<CEGUI::Window *>,std::allocator<std::pair<CEGUI::Window * const,SK_PopupWindow *> >,0> >::_Getal
PUBLIC	?_Getal@?$_Tree_comp_alloc@V?$_Tmap_traits@PAVWindow@CEGUI@@PAVSK_PopupWindow@@U?$less@PAVWindow@CEGUI@@@std@@V?$allocator@U?$pair@QAVWindow@CEGUI@@PAVSK_PopupWindow@@@std@@@5@$0A@@std@@@std@@QBEABU?$_Wrap_alloc@V?$allocator@U?$_Tree_node@U?$pair@QAVWindow@CEGUI@@PAVSK_PopupWindow@@@std@@PAX@std@@@std@@@2@XZ ; std::_Tree_comp_alloc<std::_Tmap_traits<CEGUI::Window *,SK_PopupWindow *,std::less<CEGUI::Window *>,std::allocator<std::pair<CEGUI::Window * const,SK_PopupWindow *> >,0> >::_Getal
PUBLIC	?_Get_data@?$_Tree_comp_alloc@V?$_Tmap_traits@PAVWindow@CEGUI@@PAVSK_PopupWindow@@U?$less@PAVWindow@CEGUI@@@std@@V?$allocator@U?$pair@QAVWindow@CEGUI@@PAVSK_PopupWindow@@@std@@@5@$0A@@std@@@std@@QAEAAV?$_Tree_val@U?$_Tree_simple_types@U?$pair@QAVWindow@CEGUI@@PAVSK_PopupWindow@@@std@@@std@@@2@XZ ; std::_Tree_comp_alloc<std::_Tmap_traits<CEGUI::Window *,SK_PopupWindow *,std::less<CEGUI::Window *>,std::allocator<std::pair<CEGUI::Window * const,SK_PopupWindow *> >,0> >::_Get_data
PUBLIC	?_Get_data@?$_Tree_comp_alloc@V?$_Tmap_traits@PAVWindow@CEGUI@@PAVSK_PopupWindow@@U?$less@PAVWindow@CEGUI@@@std@@V?$allocator@U?$pair@QAVWindow@CEGUI@@PAVSK_PopupWindow@@@std@@@5@$0A@@std@@@std@@QBEABV?$_Tree_val@U?$_Tree_simple_types@U?$pair@QAVWindow@CEGUI@@PAVSK_PopupWindow@@@std@@@std@@@2@XZ ; std::_Tree_comp_alloc<std::_Tmap_traits<CEGUI::Window *,SK_PopupWindow *,std::less<CEGUI::Window *>,std::allocator<std::pair<CEGUI::Window * const,SK_PopupWindow *> >,0> >::_Get_data
PUBLIC	?_Myhead@?$_Tree_comp_alloc@V?$_Tmap_traits@PAVWindow@CEGUI@@PAVSK_PopupWindow@@U?$less@PAVWindow@CEGUI@@@std@@V?$allocator@U?$pair@QAVWindow@CEGUI@@PAVSK_PopupWindow@@@std@@@5@$0A@@std@@@std@@QAEAAPAU?$_Tree_node@U?$pair@QAVWindow@CEGUI@@PAVSK_PopupWindow@@@std@@PAX@2@XZ ; std::_Tree_comp_alloc<std::_Tmap_traits<CEGUI::Window *,SK_PopupWindow *,std::less<CEGUI::Window *>,std::allocator<std::pair<CEGUI::Window * const,SK_PopupWindow *> >,0> >::_Myhead
PUBLIC	?_Myhead@?$_Tree_comp_alloc@V?$_Tmap_traits@PAVWindow@CEGUI@@PAVSK_PopupWindow@@U?$less@PAVWindow@CEGUI@@@std@@V?$allocator@U?$pair@QAVWindow@CEGUI@@PAVSK_PopupWindow@@@std@@@5@$0A@@std@@@std@@QBEABQAU?$_Tree_node@U?$pair@QAVWindow@CEGUI@@PAVSK_PopupWindow@@@std@@PAX@2@XZ ; std::_Tree_comp_alloc<std::_Tmap_traits<CEGUI::Window *,SK_PopupWindow *,std::less<CEGUI::Window *>,std::allocator<std::pair<CEGUI::Window * const,SK_PopupWindow *> >,0> >::_Myhead
PUBLIC	?_Mysize@?$_Tree_comp_alloc@V?$_Tmap_traits@PAVWindow@CEGUI@@PAVSK_PopupWindow@@U?$less@PAVWindow@CEGUI@@@std@@V?$allocator@U?$pair@QAVWindow@CEGUI@@PAVSK_PopupWindow@@@std@@@5@$0A@@std@@@std@@QAEAAIXZ ; std::_Tree_comp_alloc<std::_Tmap_traits<CEGUI::Window *,SK_PopupWindow *,std::less<CEGUI::Window *>,std::allocator<std::pair<CEGUI::Window * const,SK_PopupWindow *> >,0> >::_Mysize
PUBLIC	?_Mysize@?$_Tree_comp_alloc@V?$_Tmap_traits@PAVWindow@CEGUI@@PAVSK_PopupWindow@@U?$less@PAVWindow@CEGUI@@@std@@V?$allocator@U?$pair@QAVWindow@CEGUI@@PAVSK_PopupWindow@@@std@@@5@$0A@@std@@@std@@QBEABIXZ ; std::_Tree_comp_alloc<std::_Tmap_traits<CEGUI::Window *,SK_PopupWindow *,std::less<CEGUI::Window *>,std::allocator<std::pair<CEGUI::Window * const,SK_PopupWindow *> >,0> >::_Mysize
PUBLIC	??0?$_Tree_val@U?$_Tree_simple_types@U?$pair@QAVWindow@CEGUI@@PAVSK_PopupWindow@@@std@@@std@@@std@@QAE@XZ ; std::_Tree_val<std::_Tree_simple_types<std::pair<CEGUI::Window * const,SK_PopupWindow *> > >::_Tree_val<std::_Tree_simple_types<std::pair<CEGUI::Window * const,SK_PopupWindow *> > >
PUBLIC	?_Color@?$_Tree_val@U?$_Tree_simple_types@U?$pair@QAVWindow@CEGUI@@PAVSK_PopupWindow@@@std@@@std@@@std@@SAAADPAU?$_Tree_node@U?$pair@QAVWindow@CEGUI@@PAVSK_PopupWindow@@@std@@PAX@2@@Z ; std::_Tree_val<std::_Tree_simple_types<std::pair<CEGUI::Window * const,SK_PopupWindow *> > >::_Color
PUBLIC	?_Isnil@?$_Tree_val@U?$_Tree_simple_types@U?$pair@QAVWindow@CEGUI@@PAVSK_PopupWindow@@@std@@@std@@@std@@SAAADPAU?$_Tree_node@U?$pair@QAVWindow@CEGUI@@PAVSK_PopupWindow@@@std@@PAX@2@@Z ; std::_Tree_val<std::_Tree_simple_types<std::pair<CEGUI::Window * const,SK_PopupWindow *> > >::_Isnil
PUBLIC	?_Left@?$_Tree_val@U?$_Tree_simple_types@U?$pair@QAVWindow@CEGUI@@PAVSK_PopupWindow@@@std@@@std@@@std@@SAAAPAU?$_Tree_node@U?$pair@QAVWindow@CEGUI@@PAVSK_PopupWindow@@@std@@PAX@2@PAU32@@Z ; std::_Tree_val<std::_Tree_simple_types<std::pair<CEGUI::Window * const,SK_PopupWindow *> > >::_Left
PUBLIC	?_Parent@?$_Tree_val@U?$_Tree_simple_types@U?$pair@QAVWindow@CEGUI@@PAVSK_PopupWindow@@@std@@@std@@@std@@SAAAPAU?$_Tree_node@U?$pair@QAVWindow@CEGUI@@PAVSK_PopupWindow@@@std@@PAX@2@PAU32@@Z ; std::_Tree_val<std::_Tree_simple_types<std::pair<CEGUI::Window * const,SK_PopupWindow *> > >::_Parent
PUBLIC	?_Right@?$_Tree_val@U?$_Tree_simple_types@U?$pair@QAVWindow@CEGUI@@PAVSK_PopupWindow@@@std@@@std@@@std@@SAAAPAU?$_Tree_node@U?$pair@QAVWindow@CEGUI@@PAVSK_PopupWindow@@@std@@PAX@2@PAU32@@Z ; std::_Tree_val<std::_Tree_simple_types<std::pair<CEGUI::Window * const,SK_PopupWindow *> > >::_Right
PUBLIC	?_Myval@?$_Tree_val@U?$_Tree_simple_types@U?$pair@QAVWindow@CEGUI@@PAVSK_PopupWindow@@@std@@@std@@@std@@SAAAU?$pair@QAVWindow@CEGUI@@PAVSK_PopupWindow@@@2@PAU?$_Tree_node@U?$pair@QAVWindow@CEGUI@@PAVSK_PopupWindow@@@std@@PAX@2@@Z ; std::_Tree_val<std::_Tree_simple_types<std::pair<CEGUI::Window * const,SK_PopupWindow *> > >::_Myval
PUBLIC	?_Max@?$_Tree_val@U?$_Tree_simple_types@U?$pair@QAVWindow@CEGUI@@PAVSK_PopupWindow@@@std@@@std@@@std@@SAPAU?$_Tree_node@U?$pair@QAVWindow@CEGUI@@PAVSK_PopupWindow@@@std@@PAX@2@PAU32@@Z ; std::_Tree_val<std::_Tree_simple_types<std::pair<CEGUI::Window * const,SK_PopupWindow *> > >::_Max
PUBLIC	?_Min@?$_Tree_val@U?$_Tree_simple_types@U?$pair@QAVWindow@CEGUI@@PAVSK_PopupWindow@@@std@@@std@@@std@@SAPAU?$_Tree_node@U?$pair@QAVWindow@CEGUI@@PAVSK_PopupWindow@@@std@@PAX@2@PAU32@@Z ; std::_Tree_val<std::_Tree_simple_types<std::pair<CEGUI::Window * const,SK_PopupWindow *> > >::_Min
PUBLIC	?_Get_first@?$_Compressed_pair@U?$_Wrap_alloc@V?$allocator@U?$_Tree_node@U?$pair@QAVWindow@CEGUI@@PAVSK_PopupWindow@@@std@@PAX@std@@@std@@@std@@V?$_Tree_val@U?$_Tree_simple_types@U?$pair@QAVWindow@CEGUI@@PAVSK_PopupWindow@@@std@@@std@@@2@$00@std@@QAEAAU?$_Wrap_alloc@V?$allocator@U?$_Tree_node@U?$pair@QAVWindow@CEGUI@@PAVSK_PopupWindow@@@std@@PAX@std@@@std@@@2@XZ ; std::_Compressed_pair<std::_Wrap_alloc<std::allocator<std::_Tree_node<std::pair<CEGUI::Window * const,SK_PopupWindow *>,void *> > >,std::_Tree_val<std::_Tree_simple_types<std::pair<CEGUI::Window * const,SK_PopupWindow *> > >,1>::_Get_first
PUBLIC	?_Get_first@?$_Compressed_pair@U?$_Wrap_alloc@V?$allocator@U?$_Tree_node@U?$pair@QAVWindow@CEGUI@@PAVSK_PopupWindow@@@std@@PAX@std@@@std@@@std@@V?$_Tree_val@U?$_Tree_simple_types@U?$pair@QAVWindow@CEGUI@@PAVSK_PopupWindow@@@std@@@std@@@2@$00@std@@QBEABU?$_Wrap_alloc@V?$allocator@U?$_Tree_node@U?$pair@QAVWindow@CEGUI@@PAVSK_PopupWindow@@@std@@PAX@std@@@std@@@2@XZ ; std::_Compressed_pair<std::_Wrap_alloc<std::allocator<std::_Tree_node<std::pair<CEGUI::Window * const,SK_PopupWindow *>,void *> > >,std::_Tree_val<std::_Tree_simple_types<std::pair<CEGUI::Window * const,SK_PopupWindow *> > >,1>::_Get_first
PUBLIC	?_Get_second@?$_Compressed_pair@U?$_Wrap_alloc@V?$allocator@U?$_Tree_node@U?$pair@QAVWindow@CEGUI@@PAVSK_PopupWindow@@@std@@PAX@std@@@std@@@std@@V?$_Tree_val@U?$_Tree_simple_types@U?$pair@QAVWindow@CEGUI@@PAVSK_PopupWindow@@@std@@@std@@@2@$00@std@@QAEAAV?$_Tree_val@U?$_Tree_simple_types@U?$pair@QAVWindow@CEGUI@@PAVSK_PopupWindow@@@std@@@std@@@2@XZ ; std::_Compressed_pair<std::_Wrap_alloc<std::allocator<std::_Tree_node<std::pair<CEGUI::Window * const,SK_PopupWindow *>,void *> > >,std::_Tree_val<std::_Tree_simple_types<std::pair<CEGUI::Window * const,SK_PopupWindow *> > >,1>::_Get_second
PUBLIC	?_Get_second@?$_Compressed_pair@U?$_Wrap_alloc@V?$allocator@U?$_Tree_node@U?$pair@QAVWindow@CEGUI@@PAVSK_PopupWindow@@@std@@PAX@std@@@std@@@std@@V?$_Tree_val@U?$_Tree_simple_types@U?$pair@QAVWindow@CEGUI@@PAVSK_PopupWindow@@@std@@@std@@@2@$00@std@@QBEABV?$_Tree_val@U?$_Tree_simple_types@U?$pair@QAVWindow@CEGUI@@PAVSK_PopupWindow@@@std@@@std@@@2@XZ ; std::_Compressed_pair<std::_Wrap_alloc<std::allocator<std::_Tree_node<std::pair<CEGUI::Window * const,SK_PopupWindow *>,void *> > >,std::_Tree_val<std::_Tree_simple_types<std::pair<CEGUI::Window * const,SK_PopupWindow *> > >,1>::_Get_second
PUBLIC	?_Get_first@?$_Compressed_pair@U?$less@PAVWindow@CEGUI@@@std@@V?$_Compressed_pair@U?$_Wrap_alloc@V?$allocator@U?$_Tree_node@U?$pair@QAVWindow@CEGUI@@PAVSK_PopupWindow@@@std@@PAX@std@@@std@@@std@@V?$_Tree_val@U?$_Tree_simple_types@U?$pair@QAVWindow@CEGUI@@PAVSK_PopupWindow@@@std@@@std@@@2@$00@2@$00@std@@QAEAAU?$less@PAVWindow@CEGUI@@@2@XZ ; std::_Compressed_pair<std::less<CEGUI::Window *>,std::_Compressed_pair<std::_Wrap_alloc<std::allocator<std::_Tree_node<std::pair<CEGUI::Window * const,SK_PopupWindow *>,void *> > >,std::_Tree_val<std::_Tree_simple_types<std::pair<CEGUI::Window * const,SK_PopupWindow *> > >,1>,1>::_Get_first
PUBLIC	?_Get_first@?$_Compressed_pair@U?$less@PAVWindow@CEGUI@@@std@@V?$_Compressed_pair@U?$_Wrap_alloc@V?$allocator@U?$_Tree_node@U?$pair@QAVWindow@CEGUI@@PAVSK_PopupWindow@@@std@@PAX@std@@@std@@@std@@V?$_Tree_val@U?$_Tree_simple_types@U?$pair@QAVWindow@CEGUI@@PAVSK_PopupWindow@@@std@@@std@@@2@$00@2@$00@std@@QBEABU?$less@PAVWindow@CEGUI@@@2@XZ ; std::_Compressed_pair<std::less<CEGUI::Window *>,std::_Compressed_pair<std::_Wrap_alloc<std::allocator<std::_Tree_node<std::pair<CEGUI::Window * const,SK_PopupWindow *>,void *> > >,std::_Tree_val<std::_Tree_simple_types<std::pair<CEGUI::Window * const,SK_PopupWindow *> > >,1>,1>::_Get_first
PUBLIC	?_Get_second@?$_Compressed_pair@U?$less@PAVWindow@CEGUI@@@std@@V?$_Compressed_pair@U?$_Wrap_alloc@V?$allocator@U?$_Tree_node@U?$pair@QAVWindow@CEGUI@@PAVSK_PopupWindow@@@std@@PAX@std@@@std@@@std@@V?$_Tree_val@U?$_Tree_simple_types@U?$pair@QAVWindow@CEGUI@@PAVSK_PopupWindow@@@std@@@std@@@2@$00@2@$00@std@@QAEAAV?$_Compressed_pair@U?$_Wrap_alloc@V?$allocator@U?$_Tree_node@U?$pair@QAVWindow@CEGUI@@PAVSK_PopupWindow@@@std@@PAX@std@@@std@@@std@@V?$_Tree_val@U?$_Tree_simple_types@U?$pair@QAVWindow@CEGUI@@PAVSK_PopupWindow@@@std@@@std@@@2@$00@2@XZ ; std::_Compressed_pair<std::less<CEGUI::Window *>,std::_Compressed_pair<std::_Wrap_alloc<std::allocator<std::_Tree_node<std::pair<CEGUI::Window * const,SK_PopupWindow *>,void *> > >,std::_Tree_val<std::_Tree_simple_types<std::pair<CEGUI::Window * const,SK_PopupWindow *> > >,1>,1>::_Get_second
PUBLIC	?_Get_second@?$_Compressed_pair@U?$less@PAVWindow@CEGUI@@@std@@V?$_Compressed_pair@U?$_Wrap_alloc@V?$allocator@U?$_Tree_node@U?$pair@QAVWindow@CEGUI@@PAVSK_PopupWindow@@@std@@PAX@std@@@std@@@std@@V?$_Tree_val@U?$_Tree_simple_types@U?$pair@QAVWindow@CEGUI@@PAVSK_PopupWindow@@@std@@@std@@@2@$00@2@$00@std@@QBEABV?$_Compressed_pair@U?$_Wrap_alloc@V?$allocator@U?$_Tree_node@U?$pair@QAVWindow@CEGUI@@PAVSK_PopupWindow@@@std@@PAX@std@@@std@@@std@@V?$_Tree_val@U?$_Tree_simple_types@U?$pair@QAVWindow@CEGUI@@PAVSK_PopupWindow@@@std@@@std@@@2@$00@2@XZ ; std::_Compressed_pair<std::less<CEGUI::Window *>,std::_Compressed_pair<std::_Wrap_alloc<std::allocator<std::_Tree_node<std::pair<CEGUI::Window * const,SK_PopupWindow *>,void *> > >,std::_Tree_val<std::_Tree_simple_types<std::pair<CEGUI::Window * const,SK_PopupWindow *> > >,1>,1>::_Get_second
PUBLIC	??0?$_Tree@V?$_Tmap_traits@PAVWindow@CEGUI@@PAVSK_PopupWindow@@U?$less@PAVWindow@CEGUI@@@std@@V?$allocator@U?$pair@QAVWindow@CEGUI@@PAVSK_PopupWindow@@@std@@@5@$0A@@std@@@std@@QAE@ABU?$less@PAVWindow@CEGUI@@@1@@Z ; std::_Tree<std::_Tmap_traits<CEGUI::Window *,SK_PopupWindow *,std::less<CEGUI::Window *>,std::allocator<std::pair<CEGUI::Window * const,SK_PopupWindow *> >,0> >::_Tree<std::_Tmap_traits<CEGUI::Window *,SK_PopupWindow *,std::less<CEGUI::Window *>,std::allocator<std::pair<CEGUI::Window * const,SK_PopupWindow *> >,0> >
PUBLIC	??1?$_Tree@V?$_Tmap_traits@PAVWindow@CEGUI@@PAVSK_PopupWindow@@U?$less@PAVWindow@CEGUI@@@std@@V?$allocator@U?$pair@QAVWindow@CEGUI@@PAVSK_PopupWindow@@@std@@@5@$0A@@std@@@std@@QAE@XZ ; std::_Tree<std::_Tmap_traits<CEGUI::Window *,SK_PopupWindow *,std::less<CEGUI::Window *>,std::allocator<std::pair<CEGUI::Window * const,SK_PopupWindow *> >,0> >::~_Tree<std::_Tmap_traits<CEGUI::Window *,SK_PopupWindow *,std::less<CEGUI::Window *>,std::allocator<std::pair<CEGUI::Window * const,SK_PopupWindow *> >,0> >
PUBLIC	?begin@?$_Tree@V?$_Tmap_traits@PAVWindow@CEGUI@@PAVSK_PopupWindow@@U?$less@PAVWindow@CEGUI@@@std@@V?$allocator@U?$pair@QAVWindow@CEGUI@@PAVSK_PopupWindow@@@std@@@5@$0A@@std@@@std@@QAE?AV?$_Tree_iterator@V?$_Tree_val@U?$_Tree_simple_types@U?$pair@QAVWindow@CEGUI@@PAVSK_PopupWindow@@@std@@@std@@@std@@@2@XZ ; std::_Tree<std::_Tmap_traits<CEGUI::Window *,SK_PopupWindow *,std::less<CEGUI::Window *>,std::allocator<std::pair<CEGUI::Window * const,SK_PopupWindow *> >,0> >::begin
PUBLIC	?end@?$_Tree@V?$_Tmap_traits@PAVWindow@CEGUI@@PAVSK_PopupWindow@@U?$less@PAVWindow@CEGUI@@@std@@V?$allocator@U?$pair@QAVWindow@CEGUI@@PAVSK_PopupWindow@@@std@@@5@$0A@@std@@@std@@QAE?AV?$_Tree_iterator@V?$_Tree_val@U?$_Tree_simple_types@U?$pair@QAVWindow@CEGUI@@PAVSK_PopupWindow@@@std@@@std@@@std@@@2@XZ ; std::_Tree<std::_Tmap_traits<CEGUI::Window *,SK_PopupWindow *,std::less<CEGUI::Window *>,std::allocator<std::pair<CEGUI::Window * const,SK_PopupWindow *> >,0> >::end
PUBLIC	?size@?$_Tree@V?$_Tmap_traits@PAVWindow@CEGUI@@PAVSK_PopupWindow@@U?$less@PAVWindow@CEGUI@@@std@@V?$allocator@U?$pair@QAVWindow@CEGUI@@PAVSK_PopupWindow@@@std@@@5@$0A@@std@@@std@@QBEIXZ ; std::_Tree<std::_Tmap_traits<CEGUI::Window *,SK_PopupWindow *,std::less<CEGUI::Window *>,std::allocator<std::pair<CEGUI::Window * const,SK_PopupWindow *> >,0> >::size
PUBLIC	?max_size@?$_Tree@V?$_Tmap_traits@PAVWindow@CEGUI@@PAVSK_PopupWindow@@U?$less@PAVWindow@CEGUI@@@std@@V?$allocator@U?$pair@QAVWindow@CEGUI@@PAVSK_PopupWindow@@@std@@@5@$0A@@std@@@std@@QBEIXZ ; std::_Tree<std::_Tmap_traits<CEGUI::Window *,SK_PopupWindow *,std::less<CEGUI::Window *>,std::allocator<std::pair<CEGUI::Window * const,SK_PopupWindow *> >,0> >::max_size
PUBLIC	?erase@?$_Tree@V?$_Tmap_traits@PAVWindow@CEGUI@@PAVSK_PopupWindow@@U?$less@PAVWindow@CEGUI@@@std@@V?$allocator@U?$pair@QAVWindow@CEGUI@@PAVSK_PopupWindow@@@std@@@5@$0A@@std@@@std@@QAE?AV?$_Tree_iterator@V?$_Tree_val@U?$_Tree_simple_types@U?$pair@QAVWindow@CEGUI@@PAVSK_PopupWindow@@@std@@@std@@@std@@@2@V?$_Tree_const_iterator@V?$_Tree_val@U?$_Tree_simple_types@U?$pair@QAVWindow@CEGUI@@PAVSK_PopupWindow@@@std@@@std@@@std@@@2@@Z ; std::_Tree<std::_Tmap_traits<CEGUI::Window *,SK_PopupWindow *,std::less<CEGUI::Window *>,std::allocator<std::pair<CEGUI::Window * const,SK_PopupWindow *> >,0> >::erase
PUBLIC	?erase@?$_Tree@V?$_Tmap_traits@PAVWindow@CEGUI@@PAVSK_PopupWindow@@U?$less@PAVWindow@CEGUI@@@std@@V?$allocator@U?$pair@QAVWindow@CEGUI@@PAVSK_PopupWindow@@@std@@@5@$0A@@std@@@std@@QAE?AV?$_Tree_iterator@V?$_Tree_val@U?$_Tree_simple_types@U?$pair@QAVWindow@CEGUI@@PAVSK_PopupWindow@@@std@@@std@@@std@@@2@V?$_Tree_const_iterator@V?$_Tree_val@U?$_Tree_simple_types@U?$pair@QAVWindow@CEGUI@@PAVSK_PopupWindow@@@std@@@std@@@std@@@2@0@Z ; std::_Tree<std::_Tmap_traits<CEGUI::Window *,SK_PopupWindow *,std::less<CEGUI::Window *>,std::allocator<std::pair<CEGUI::Window * const,SK_PopupWindow *> >,0> >::erase
PUBLIC	?erase@?$_Tree@V?$_Tmap_traits@PAVWindow@CEGUI@@PAVSK_PopupWindow@@U?$less@PAVWindow@CEGUI@@@std@@V?$allocator@U?$pair@QAVWindow@CEGUI@@PAVSK_PopupWindow@@@std@@@5@$0A@@std@@@std@@QAEIABQAVWindow@CEGUI@@@Z ; std::_Tree<std::_Tmap_traits<CEGUI::Window *,SK_PopupWindow *,std::less<CEGUI::Window *>,std::allocator<std::pair<CEGUI::Window * const,SK_PopupWindow *> >,0> >::erase
PUBLIC	?clear@?$_Tree@V?$_Tmap_traits@PAVWindow@CEGUI@@PAVSK_PopupWindow@@U?$less@PAVWindow@CEGUI@@@std@@V?$allocator@U?$pair@QAVWindow@CEGUI@@PAVSK_PopupWindow@@@std@@@5@$0A@@std@@@std@@QAEXXZ ; std::_Tree<std::_Tmap_traits<CEGUI::Window *,SK_PopupWindow *,std::less<CEGUI::Window *>,std::allocator<std::pair<CEGUI::Window * const,SK_PopupWindow *> >,0> >::clear
PUBLIC	?count@?$_Tree@V?$_Tmap_traits@PAVWindow@CEGUI@@PAVSK_PopupWindow@@U?$less@PAVWindow@CEGUI@@@std@@V?$allocator@U?$pair@QAVWindow@CEGUI@@PAVSK_PopupWindow@@@std@@@5@$0A@@std@@@std@@QBEIABQAVWindow@CEGUI@@@Z ; std::_Tree<std::_Tmap_traits<CEGUI::Window *,SK_PopupWindow *,std::less<CEGUI::Window *>,std::allocator<std::pair<CEGUI::Window * const,SK_PopupWindow *> >,0> >::count
PUBLIC	?lower_bound@?$_Tree@V?$_Tmap_traits@PAVWindow@CEGUI@@PAVSK_PopupWindow@@U?$less@PAVWindow@CEGUI@@@std@@V?$allocator@U?$pair@QAVWindow@CEGUI@@PAVSK_PopupWindow@@@std@@@5@$0A@@std@@@std@@QAE?AV?$_Tree_iterator@V?$_Tree_val@U?$_Tree_simple_types@U?$pair@QAVWindow@CEGUI@@PAVSK_PopupWindow@@@std@@@std@@@std@@@2@ABQAVWindow@CEGUI@@@Z ; std::_Tree<std::_Tmap_traits<CEGUI::Window *,SK_PopupWindow *,std::less<CEGUI::Window *>,std::allocator<std::pair<CEGUI::Window * const,SK_PopupWindow *> >,0> >::lower_bound
PUBLIC	?equal_range@?$_Tree@V?$_Tmap_traits@PAVWindow@CEGUI@@PAVSK_PopupWindow@@U?$less@PAVWindow@CEGUI@@@std@@V?$allocator@U?$pair@QAVWindow@CEGUI@@PAVSK_PopupWindow@@@std@@@5@$0A@@std@@@std@@QAE?AU?$pair@V?$_Tree_iterator@V?$_Tree_val@U?$_Tree_simple_types@U?$pair@QAVWindow@CEGUI@@PAVSK_PopupWindow@@@std@@@std@@@std@@@std@@V12@@2@ABQAVWindow@CEGUI@@@Z ; std::_Tree<std::_Tmap_traits<CEGUI::Window *,SK_PopupWindow *,std::less<CEGUI::Window *>,std::allocator<std::pair<CEGUI::Window * const,SK_PopupWindow *> >,0> >::equal_range
PUBLIC	?equal_range@?$_Tree@V?$_Tmap_traits@PAVWindow@CEGUI@@PAVSK_PopupWindow@@U?$less@PAVWindow@CEGUI@@@std@@V?$allocator@U?$pair@QAVWindow@CEGUI@@PAVSK_PopupWindow@@@std@@@5@$0A@@std@@@std@@QBE?AU?$pair@V?$_Tree_const_iterator@V?$_Tree_val@U?$_Tree_simple_types@U?$pair@QAVWindow@CEGUI@@PAVSK_PopupWindow@@@std@@@std@@@std@@@std@@V12@@2@ABQAVWindow@CEGUI@@@Z ; std::_Tree<std::_Tmap_traits<CEGUI::Window *,SK_PopupWindow *,std::less<CEGUI::Window *>,std::allocator<std::pair<CEGUI::Window * const,SK_PopupWindow *> >,0> >::equal_range
PUBLIC	?_Destroy_if_not_nil@?$_Tree@V?$_Tmap_traits@PAVWindow@CEGUI@@PAVSK_PopupWindow@@U?$less@PAVWindow@CEGUI@@@std@@V?$allocator@U?$pair@QAVWindow@CEGUI@@PAVSK_PopupWindow@@@std@@@5@$0A@@std@@@std@@IAEXPAU?$_Tree_node@U?$pair@QAVWindow@CEGUI@@PAVSK_PopupWindow@@@std@@PAX@2@@Z ; std::_Tree<std::_Tmap_traits<CEGUI::Window *,SK_PopupWindow *,std::less<CEGUI::Window *>,std::allocator<std::pair<CEGUI::Window * const,SK_PopupWindow *> >,0> >::_Destroy_if_not_nil
PUBLIC	?_Erase@?$_Tree@V?$_Tmap_traits@PAVWindow@CEGUI@@PAVSK_PopupWindow@@U?$less@PAVWindow@CEGUI@@@std@@V?$allocator@U?$pair@QAVWindow@CEGUI@@PAVSK_PopupWindow@@@std@@@5@$0A@@std@@@std@@IAEXPAU?$_Tree_node@U?$pair@QAVWindow@CEGUI@@PAVSK_PopupWindow@@@std@@PAX@2@@Z ; std::_Tree<std::_Tmap_traits<CEGUI::Window *,SK_PopupWindow *,std::less<CEGUI::Window *>,std::allocator<std::pair<CEGUI::Window * const,SK_PopupWindow *> >,0> >::_Erase
PUBLIC	?_Compare@?$_Tree@V?$_Tmap_traits@PAVWindow@CEGUI@@PAVSK_PopupWindow@@U?$less@PAVWindow@CEGUI@@@std@@V?$allocator@U?$pair@QAVWindow@CEGUI@@PAVSK_PopupWindow@@@std@@@5@$0A@@std@@@std@@IBE_NABQAVWindow@CEGUI@@0@Z ; std::_Tree<std::_Tmap_traits<CEGUI::Window *,SK_PopupWindow *,std::less<CEGUI::Window *>,std::allocator<std::pair<CEGUI::Window * const,SK_PopupWindow *> >,0> >::_Compare
PUBLIC	?_Lmost@?$_Tree@V?$_Tmap_traits@PAVWindow@CEGUI@@PAVSK_PopupWindow@@U?$less@PAVWindow@CEGUI@@@std@@V?$allocator@U?$pair@QAVWindow@CEGUI@@PAVSK_PopupWindow@@@std@@@5@$0A@@std@@@std@@IBEAAPAU?$_Tree_node@U?$pair@QAVWindow@CEGUI@@PAVSK_PopupWindow@@@std@@PAX@2@XZ ; std::_Tree<std::_Tmap_traits<CEGUI::Window *,SK_PopupWindow *,std::less<CEGUI::Window *>,std::allocator<std::pair<CEGUI::Window * const,SK_PopupWindow *> >,0> >::_Lmost
PUBLIC	?_Lrotate@?$_Tree@V?$_Tmap_traits@PAVWindow@CEGUI@@PAVSK_PopupWindow@@U?$less@PAVWindow@CEGUI@@@std@@V?$allocator@U?$pair@QAVWindow@CEGUI@@PAVSK_PopupWindow@@@std@@@5@$0A@@std@@@std@@IAEXPAU?$_Tree_node@U?$pair@QAVWindow@CEGUI@@PAVSK_PopupWindow@@@std@@PAX@2@@Z ; std::_Tree<std::_Tmap_traits<CEGUI::Window *,SK_PopupWindow *,std::less<CEGUI::Window *>,std::allocator<std::pair<CEGUI::Window * const,SK_PopupWindow *> >,0> >::_Lrotate
PUBLIC	?_Rmost@?$_Tree@V?$_Tmap_traits@PAVWindow@CEGUI@@PAVSK_PopupWindow@@U?$less@PAVWindow@CEGUI@@@std@@V?$allocator@U?$pair@QAVWindow@CEGUI@@PAVSK_PopupWindow@@@std@@@5@$0A@@std@@@std@@IBEAAPAU?$_Tree_node@U?$pair@QAVWindow@CEGUI@@PAVSK_PopupWindow@@@std@@PAX@2@XZ ; std::_Tree<std::_Tmap_traits<CEGUI::Window *,SK_PopupWindow *,std::less<CEGUI::Window *>,std::allocator<std::pair<CEGUI::Window * const,SK_PopupWindow *> >,0> >::_Rmost
PUBLIC	?_Root@?$_Tree@V?$_Tmap_traits@PAVWindow@CEGUI@@PAVSK_PopupWindow@@U?$less@PAVWindow@CEGUI@@@std@@V?$allocator@U?$pair@QAVWindow@CEGUI@@PAVSK_PopupWindow@@@std@@@5@$0A@@std@@@std@@IBEAAPAU?$_Tree_node@U?$pair@QAVWindow@CEGUI@@PAVSK_PopupWindow@@@std@@PAX@2@XZ ; std::_Tree<std::_Tmap_traits<CEGUI::Window *,SK_PopupWindow *,std::less<CEGUI::Window *>,std::allocator<std::pair<CEGUI::Window * const,SK_PopupWindow *> >,0> >::_Root
PUBLIC	?_Rrotate@?$_Tree@V?$_Tmap_traits@PAVWindow@CEGUI@@PAVSK_PopupWindow@@U?$less@PAVWindow@CEGUI@@@std@@V?$allocator@U?$pair@QAVWindow@CEGUI@@PAVSK_PopupWindow@@@std@@@5@$0A@@std@@@std@@IAEXPAU?$_Tree_node@U?$pair@QAVWindow@CEGUI@@PAVSK_PopupWindow@@@std@@PAX@2@@Z ; std::_Tree<std::_Tmap_traits<CEGUI::Window *,SK_PopupWindow *,std::less<CEGUI::Window *>,std::allocator<std::pair<CEGUI::Window * const,SK_PopupWindow *> >,0> >::_Rrotate
PUBLIC	?_Tidy@?$_Tree@V?$_Tmap_traits@PAVWindow@CEGUI@@PAVSK_PopupWindow@@U?$less@PAVWindow@CEGUI@@@std@@V?$allocator@U?$pair@QAVWindow@CEGUI@@PAVSK_PopupWindow@@@std@@@5@$0A@@std@@@std@@IAEXXZ ; std::_Tree<std::_Tmap_traits<CEGUI::Window *,SK_PopupWindow *,std::less<CEGUI::Window *>,std::allocator<std::pair<CEGUI::Window * const,SK_PopupWindow *> >,0> >::_Tidy
PUBLIC	?_Kfn@?$_Tree@V?$_Tmap_traits@PAVWindow@CEGUI@@PAVSK_PopupWindow@@U?$less@PAVWindow@CEGUI@@@std@@V?$allocator@U?$pair@QAVWindow@CEGUI@@PAVSK_PopupWindow@@@std@@@5@$0A@@std@@@std@@IBEABQAVWindow@CEGUI@@ABU?$pair@QAVWindow@CEGUI@@PAVSK_PopupWindow@@@2@@Z ; std::_Tree<std::_Tmap_traits<CEGUI::Window *,SK_PopupWindow *,std::less<CEGUI::Window *>,std::allocator<std::pair<CEGUI::Window * const,SK_PopupWindow *> >,0> >::_Kfn
PUBLIC	?_Key@?$_Tree@V?$_Tmap_traits@PAVWindow@CEGUI@@PAVSK_PopupWindow@@U?$less@PAVWindow@CEGUI@@@std@@V?$allocator@U?$pair@QAVWindow@CEGUI@@PAVSK_PopupWindow@@@std@@@5@$0A@@std@@@std@@IBEABQAVWindow@CEGUI@@PAU?$_Tree_node@U?$pair@QAVWindow@CEGUI@@PAVSK_PopupWindow@@@std@@PAX@2@@Z ; std::_Tree<std::_Tmap_traits<CEGUI::Window *,SK_PopupWindow *,std::less<CEGUI::Window *>,std::allocator<std::pair<CEGUI::Window * const,SK_PopupWindow *> >,0> >::_Key
PUBLIC	??0?$map@PAVWindow@CEGUI@@PAVSK_PopupWindow@@U?$less@PAVWindow@CEGUI@@@std@@V?$allocator@U?$pair@QAVWindow@CEGUI@@PAVSK_PopupWindow@@@std@@@5@@std@@QAE@XZ ; std::map<CEGUI::Window *,SK_PopupWindow *,std::less<CEGUI::Window *>,std::allocator<std::pair<CEGUI::Window * const,SK_PopupWindow *> > >::map<CEGUI::Window *,SK_PopupWindow *,std::less<CEGUI::Window *>,std::allocator<std::pair<CEGUI::Window * const,SK_PopupWindow *> > >
PUBLIC	??A?$map@PAVWindow@CEGUI@@PAVSK_PopupWindow@@U?$less@PAVWindow@CEGUI@@@std@@V?$allocator@U?$pair@QAVWindow@CEGUI@@PAVSK_PopupWindow@@@std@@@5@@std@@QAEAAPAVSK_PopupWindow@@ABQAVWindow@CEGUI@@@Z ; std::map<CEGUI::Window *,SK_PopupWindow *,std::less<CEGUI::Window *>,std::allocator<std::pair<CEGUI::Window * const,SK_PopupWindow *> > >::operator[]
PUBLIC	??1?$map@PAVWindow@CEGUI@@PAVSK_PopupWindow@@U?$less@PAVWindow@CEGUI@@@std@@V?$allocator@U?$pair@QAVWindow@CEGUI@@PAVSK_PopupWindow@@@std@@@5@@std@@QAE@XZ ; std::map<CEGUI::Window *,SK_PopupWindow *,std::less<CEGUI::Window *>,std::allocator<std::pair<CEGUI::Window * const,SK_PopupWindow *> > >::~map<CEGUI::Window *,SK_PopupWindow *,std::less<CEGUI::Window *>,std::allocator<std::pair<CEGUI::Window * const,SK_PopupWindow *> > >
PUBLIC	??$make_pair@AAPAVSK_PopupWindow@@AAPAVWindow@CEGUI@@@std@@YA?AU?$pair@PAVSK_PopupWindow@@PAVWindow@CEGUI@@@0@AAPAVSK_PopupWindow@@AAPAVWindow@CEGUI@@@Z ; std::make_pair<SK_PopupWindow * &,CEGUI::Window * &>
PUBLIC	??$?0PAVSK_PopupWindow@@PAVWindow@CEGUI@@X$0A@@?$pair@QAVSK_PopupWindow@@PAVWindow@CEGUI@@@std@@QAE@$$QAU?$pair@PAVSK_PopupWindow@@PAVWindow@CEGUI@@@1@@Z ; std::pair<SK_PopupWindow * const,CEGUI::Window *>::pair<SK_PopupWindow * const,CEGUI::Window *><SK_PopupWindow *,CEGUI::Window *,void,0>
PUBLIC	??$insert@U?$pair@PAVSK_PopupWindow@@PAVWindow@CEGUI@@@std@@X@?$map@PAVSK_PopupWindow@@PAVWindow@CEGUI@@U?$less@PAVSK_PopupWindow@@@std@@V?$allocator@U?$pair@QAVSK_PopupWindow@@PAVWindow@CEGUI@@@std@@@5@@std@@QAE?AU?$pair@V?$_Tree_iterator@V?$_Tree_val@U?$_Tree_simple_types@U?$pair@QAVSK_PopupWindow@@PAVWindow@CEGUI@@@std@@@std@@@std@@@std@@_N@1@$$QAU?$pair@PAVSK_PopupWindow@@PAVWindow@CEGUI@@@1@@Z ; std::map<SK_PopupWindow *,CEGUI::Window *,std::less<SK_PopupWindow *>,std::allocator<std::pair<SK_PopupWindow * const,CEGUI::Window *> > >::insert<std::pair<SK_PopupWindow *,CEGUI::Window *>,void>
PUBLIC	??0?$_Tree_unchecked_const_iterator@V?$_Tree_val@U?$_Tree_simple_types@U?$pair@QAVSK_PopupWindow@@PAVWindow@CEGUI@@@std@@@std@@@std@@U_Iterator_base0@2@@std@@QAE@PAU?$_Tree_node@U?$pair@QAVSK_PopupWindow@@PAVWindow@CEGUI@@@std@@PAX@1@PBV?$_Tree_val@U?$_Tree_simple_types@U?$pair@QAVSK_PopupWindow@@PAVWindow@CEGUI@@@std@@@std@@@1@@Z ; std::_Tree_unchecked_const_iterator<std::_Tree_val<std::_Tree_simple_types<std::pair<SK_PopupWindow * const,CEGUI::Window *> > >,std::_Iterator_base0>::_Tree_unchecked_const_iterator<std::_Tree_val<std::_Tree_simple_types<std::pair<SK_PopupWindow * const,CEGUI::Window *> > >,std::_Iterator_base0>
PUBLIC	??E?$_Tree_unchecked_const_iterator@V?$_Tree_val@U?$_Tree_simple_types@U?$pair@QAVSK_PopupWindow@@PAVWindow@CEGUI@@@std@@@std@@@std@@U_Iterator_base0@2@@std@@QAEAAV01@XZ ; std::_Tree_unchecked_const_iterator<std::_Tree_val<std::_Tree_simple_types<std::pair<SK_PopupWindow * const,CEGUI::Window *> > >,std::_Iterator_base0>::operator++
PUBLIC	??F?$_Tree_unchecked_const_iterator@V?$_Tree_val@U?$_Tree_simple_types@U?$pair@QAVSK_PopupWindow@@PAVWindow@CEGUI@@@std@@@std@@@std@@U_Iterator_base0@2@@std@@QAEAAV01@XZ ; std::_Tree_unchecked_const_iterator<std::_Tree_val<std::_Tree_simple_types<std::pair<SK_PopupWindow * const,CEGUI::Window *> > >,std::_Iterator_base0>::operator--
PUBLIC	?_Mynode@?$_Tree_unchecked_const_iterator@V?$_Tree_val@U?$_Tree_simple_types@U?$pair@QAVSK_PopupWindow@@PAVWindow@CEGUI@@@std@@@std@@@std@@U_Iterator_base0@2@@std@@QBEPAU?$_Tree_node@U?$pair@QAVSK_PopupWindow@@PAVWindow@CEGUI@@@std@@PAX@2@XZ ; std::_Tree_unchecked_const_iterator<std::_Tree_val<std::_Tree_simple_types<std::pair<SK_PopupWindow * const,CEGUI::Window *> > >,std::_Iterator_base0>::_Mynode
PUBLIC	??0?$_Tree_const_iterator@V?$_Tree_val@U?$_Tree_simple_types@U?$pair@QAVSK_PopupWindow@@PAVWindow@CEGUI@@@std@@@std@@@std@@@std@@QAE@PAU?$_Tree_node@U?$pair@QAVSK_PopupWindow@@PAVWindow@CEGUI@@@std@@PAX@1@PBV?$_Tree_val@U?$_Tree_simple_types@U?$pair@QAVSK_PopupWindow@@PAVWindow@CEGUI@@@std@@@std@@@1@@Z ; std::_Tree_const_iterator<std::_Tree_val<std::_Tree_simple_types<std::pair<SK_PopupWindow * const,CEGUI::Window *> > > >::_Tree_const_iterator<std::_Tree_val<std::_Tree_simple_types<std::pair<SK_PopupWindow * const,CEGUI::Window *> > > >
PUBLIC	??D?$_Tree_const_iterator@V?$_Tree_val@U?$_Tree_simple_types@U?$pair@QAVSK_PopupWindow@@PAVWindow@CEGUI@@@std@@@std@@@std@@@std@@QBEABU?$pair@QAVSK_PopupWindow@@PAVWindow@CEGUI@@@1@XZ ; std::_Tree_const_iterator<std::_Tree_val<std::_Tree_simple_types<std::pair<SK_PopupWindow * const,CEGUI::Window *> > > >::operator*
PUBLIC	??E?$_Tree_const_iterator@V?$_Tree_val@U?$_Tree_simple_types@U?$pair@QAVSK_PopupWindow@@PAVWindow@CEGUI@@@std@@@std@@@std@@@std@@QAEAAV01@XZ ; std::_Tree_const_iterator<std::_Tree_val<std::_Tree_simple_types<std::pair<SK_PopupWindow * const,CEGUI::Window *> > > >::operator++
PUBLIC	??E?$_Tree_const_iterator@V?$_Tree_val@U?$_Tree_simple_types@U?$pair@QAVSK_PopupWindow@@PAVWindow@CEGUI@@@std@@@std@@@std@@@std@@QAE?AV01@H@Z ; std::_Tree_const_iterator<std::_Tree_val<std::_Tree_simple_types<std::pair<SK_PopupWindow * const,CEGUI::Window *> > > >::operator++
PUBLIC	??F?$_Tree_const_iterator@V?$_Tree_val@U?$_Tree_simple_types@U?$pair@QAVSK_PopupWindow@@PAVWindow@CEGUI@@@std@@@std@@@std@@@std@@QAEAAV01@XZ ; std::_Tree_const_iterator<std::_Tree_val<std::_Tree_simple_types<std::pair<SK_PopupWindow * const,CEGUI::Window *> > > >::operator--
PUBLIC	??8?$_Tree_const_iterator@V?$_Tree_val@U?$_Tree_simple_types@U?$pair@QAVSK_PopupWindow@@PAVWindow@CEGUI@@@std@@@std@@@std@@@std@@QBE_NABV01@@Z ; std::_Tree_const_iterator<std::_Tree_val<std::_Tree_simple_types<std::pair<SK_PopupWindow * const,CEGUI::Window *> > > >::operator==
PUBLIC	??9?$_Tree_const_iterator@V?$_Tree_val@U?$_Tree_simple_types@U?$pair@QAVSK_PopupWindow@@PAVWindow@CEGUI@@@std@@@std@@@std@@@std@@QBE_NABV01@@Z ; std::_Tree_const_iterator<std::_Tree_val<std::_Tree_simple_types<std::pair<SK_PopupWindow * const,CEGUI::Window *> > > >::operator!=
PUBLIC	??0?$_Tree_iterator@V?$_Tree_val@U?$_Tree_simple_types@U?$pair@QAVSK_PopupWindow@@PAVWindow@CEGUI@@@std@@@std@@@std@@@std@@QAE@PAU?$_Tree_node@U?$pair@QAVSK_PopupWindow@@PAVWindow@CEGUI@@@std@@PAX@1@PBV?$_Tree_val@U?$_Tree_simple_types@U?$pair@QAVSK_PopupWindow@@PAVWindow@CEGUI@@@std@@@std@@@1@@Z ; std::_Tree_iterator<std::_Tree_val<std::_Tree_simple_types<std::pair<SK_PopupWindow * const,CEGUI::Window *> > > >::_Tree_iterator<std::_Tree_val<std::_Tree_simple_types<std::pair<SK_PopupWindow * const,CEGUI::Window *> > > >
PUBLIC	??D?$_Tree_iterator@V?$_Tree_val@U?$_Tree_simple_types@U?$pair@QAVSK_PopupWindow@@PAVWindow@CEGUI@@@std@@@std@@@std@@@std@@QBEAAU?$pair@QAVSK_PopupWindow@@PAVWindow@CEGUI@@@1@XZ ; std::_Tree_iterator<std::_Tree_val<std::_Tree_simple_types<std::pair<SK_PopupWindow * const,CEGUI::Window *> > > >::operator*
PUBLIC	??C?$_Tree_iterator@V?$_Tree_val@U?$_Tree_simple_types@U?$pair@QAVSK_PopupWindow@@PAVWindow@CEGUI@@@std@@@std@@@std@@@std@@QBEPAU?$pair@QAVSK_PopupWindow@@PAVWindow@CEGUI@@@1@XZ ; std::_Tree_iterator<std::_Tree_val<std::_Tree_simple_types<std::pair<SK_PopupWindow * const,CEGUI::Window *> > > >::operator->
PUBLIC	??E?$_Tree_iterator@V?$_Tree_val@U?$_Tree_simple_types@U?$pair@QAVSK_PopupWindow@@PAVWindow@CEGUI@@@std@@@std@@@std@@@std@@QAEAAV01@XZ ; std::_Tree_iterator<std::_Tree_val<std::_Tree_simple_types<std::pair<SK_PopupWindow * const,CEGUI::Window *> > > >::operator++
PUBLIC	??E?$_Tree_iterator@V?$_Tree_val@U?$_Tree_simple_types@U?$pair@QAVSK_PopupWindow@@PAVWindow@CEGUI@@@std@@@std@@@std@@@std@@QAE?AV01@H@Z ; std::_Tree_iterator<std::_Tree_val<std::_Tree_simple_types<std::pair<SK_PopupWindow * const,CEGUI::Window *> > > >::operator++
PUBLIC	??F?$_Tree_iterator@V?$_Tree_val@U?$_Tree_simple_types@U?$pair@QAVSK_PopupWindow@@PAVWindow@CEGUI@@@std@@@std@@@std@@@std@@QAEAAV01@XZ ; std::_Tree_iterator<std::_Tree_val<std::_Tree_simple_types<std::pair<SK_PopupWindow * const,CEGUI::Window *> > > >::operator--
PUBLIC	??$make_pair@AAPAVWindow@CEGUI@@AAPAVSK_PopupWindow@@@std@@YA?AU?$pair@PAVWindow@CEGUI@@PAVSK_PopupWindow@@@0@AAPAVWindow@CEGUI@@AAPAVSK_PopupWindow@@@Z ; std::make_pair<CEGUI::Window * &,SK_PopupWindow * &>
PUBLIC	??$?0PAVWindow@CEGUI@@PAVSK_PopupWindow@@X$0A@@?$pair@QAVWindow@CEGUI@@PAVSK_PopupWindow@@@std@@QAE@$$QAU?$pair@PAVWindow@CEGUI@@PAVSK_PopupWindow@@@1@@Z ; std::pair<CEGUI::Window * const,SK_PopupWindow *>::pair<CEGUI::Window * const,SK_PopupWindow *><CEGUI::Window *,SK_PopupWindow *,void,0>
PUBLIC	??$insert@U?$pair@PAVWindow@CEGUI@@PAVSK_PopupWindow@@@std@@X@?$map@PAVWindow@CEGUI@@PAVSK_PopupWindow@@U?$less@PAVWindow@CEGUI@@@std@@V?$allocator@U?$pair@QAVWindow@CEGUI@@PAVSK_PopupWindow@@@std@@@5@@std@@QAE?AU?$pair@V?$_Tree_iterator@V?$_Tree_val@U?$_Tree_simple_types@U?$pair@QAVWindow@CEGUI@@PAVSK_PopupWindow@@@std@@@std@@@std@@@std@@_N@1@$$QAU?$pair@PAVWindow@CEGUI@@PAVSK_PopupWindow@@@1@@Z ; std::map<CEGUI::Window *,SK_PopupWindow *,std::less<CEGUI::Window *>,std::allocator<std::pair<CEGUI::Window * const,SK_PopupWindow *> > >::insert<std::pair<CEGUI::Window *,SK_PopupWindow *>,void>
PUBLIC	??0?$_Tree_unchecked_const_iterator@V?$_Tree_val@U?$_Tree_simple_types@U?$pair@QAVWindow@CEGUI@@PAVSK_PopupWindow@@@std@@@std@@@std@@U_Iterator_base0@2@@std@@QAE@XZ ; std::_Tree_unchecked_const_iterator<std::_Tree_val<std::_Tree_simple_types<std::pair<CEGUI::Window * const,SK_PopupWindow *> > >,std::_Iterator_base0>::_Tree_unchecked_const_iterator<std::_Tree_val<std::_Tree_simple_types<std::pair<CEGUI::Window * const,SK_PopupWindow *> > >,std::_Iterator_base0>
PUBLIC	??0?$_Tree_unchecked_const_iterator@V?$_Tree_val@U?$_Tree_simple_types@U?$pair@QAVWindow@CEGUI@@PAVSK_PopupWindow@@@std@@@std@@@std@@U_Iterator_base0@2@@std@@QAE@PAU?$_Tree_node@U?$pair@QAVWindow@CEGUI@@PAVSK_PopupWindow@@@std@@PAX@1@PBV?$_Tree_val@U?$_Tree_simple_types@U?$pair@QAVWindow@CEGUI@@PAVSK_PopupWindow@@@std@@@std@@@1@@Z ; std::_Tree_unchecked_const_iterator<std::_Tree_val<std::_Tree_simple_types<std::pair<CEGUI::Window * const,SK_PopupWindow *> > >,std::_Iterator_base0>::_Tree_unchecked_const_iterator<std::_Tree_val<std::_Tree_simple_types<std::pair<CEGUI::Window * const,SK_PopupWindow *> > >,std::_Iterator_base0>
PUBLIC	??E?$_Tree_unchecked_const_iterator@V?$_Tree_val@U?$_Tree_simple_types@U?$pair@QAVWindow@CEGUI@@PAVSK_PopupWindow@@@std@@@std@@@std@@U_Iterator_base0@2@@std@@QAEAAV01@XZ ; std::_Tree_unchecked_const_iterator<std::_Tree_val<std::_Tree_simple_types<std::pair<CEGUI::Window * const,SK_PopupWindow *> > >,std::_Iterator_base0>::operator++
PUBLIC	??F?$_Tree_unchecked_const_iterator@V?$_Tree_val@U?$_Tree_simple_types@U?$pair@QAVWindow@CEGUI@@PAVSK_PopupWindow@@@std@@@std@@@std@@U_Iterator_base0@2@@std@@QAEAAV01@XZ ; std::_Tree_unchecked_const_iterator<std::_Tree_val<std::_Tree_simple_types<std::pair<CEGUI::Window * const,SK_PopupWindow *> > >,std::_Iterator_base0>::operator--
PUBLIC	?_Mynode@?$_Tree_unchecked_const_iterator@V?$_Tree_val@U?$_Tree_simple_types@U?$pair@QAVWindow@CEGUI@@PAVSK_PopupWindow@@@std@@@std@@@std@@U_Iterator_base0@2@@std@@QBEPAU?$_Tree_node@U?$pair@QAVWindow@CEGUI@@PAVSK_PopupWindow@@@std@@PAX@2@XZ ; std::_Tree_unchecked_const_iterator<std::_Tree_val<std::_Tree_simple_types<std::pair<CEGUI::Window * const,SK_PopupWindow *> > >,std::_Iterator_base0>::_Mynode
PUBLIC	??0?$_Tree_const_iterator@V?$_Tree_val@U?$_Tree_simple_types@U?$pair@QAVWindow@CEGUI@@PAVSK_PopupWindow@@@std@@@std@@@std@@@std@@QAE@XZ ; std::_Tree_const_iterator<std::_Tree_val<std::_Tree_simple_types<std::pair<CEGUI::Window * const,SK_PopupWindow *> > > >::_Tree_const_iterator<std::_Tree_val<std::_Tree_simple_types<std::pair<CEGUI::Window * const,SK_PopupWindow *> > > >
PUBLIC	??0?$_Tree_const_iterator@V?$_Tree_val@U?$_Tree_simple_types@U?$pair@QAVWindow@CEGUI@@PAVSK_PopupWindow@@@std@@@std@@@std@@@std@@QAE@PAU?$_Tree_node@U?$pair@QAVWindow@CEGUI@@PAVSK_PopupWindow@@@std@@PAX@1@PBV?$_Tree_val@U?$_Tree_simple_types@U?$pair@QAVWindow@CEGUI@@PAVSK_PopupWindow@@@std@@@std@@@1@@Z ; std::_Tree_const_iterator<std::_Tree_val<std::_Tree_simple_types<std::pair<CEGUI::Window * const,SK_PopupWindow *> > > >::_Tree_const_iterator<std::_Tree_val<std::_Tree_simple_types<std::pair<CEGUI::Window * const,SK_PopupWindow *> > > >
PUBLIC	??D?$_Tree_const_iterator@V?$_Tree_val@U?$_Tree_simple_types@U?$pair@QAVWindow@CEGUI@@PAVSK_PopupWindow@@@std@@@std@@@std@@@std@@QBEABU?$pair@QAVWindow@CEGUI@@PAVSK_PopupWindow@@@1@XZ ; std::_Tree_const_iterator<std::_Tree_val<std::_Tree_simple_types<std::pair<CEGUI::Window * const,SK_PopupWindow *> > > >::operator*
PUBLIC	??E?$_Tree_const_iterator@V?$_Tree_val@U?$_Tree_simple_types@U?$pair@QAVWindow@CEGUI@@PAVSK_PopupWindow@@@std@@@std@@@std@@@std@@QAEAAV01@XZ ; std::_Tree_const_iterator<std::_Tree_val<std::_Tree_simple_types<std::pair<CEGUI::Window * const,SK_PopupWindow *> > > >::operator++
PUBLIC	??E?$_Tree_const_iterator@V?$_Tree_val@U?$_Tree_simple_types@U?$pair@QAVWindow@CEGUI@@PAVSK_PopupWindow@@@std@@@std@@@std@@@std@@QAE?AV01@H@Z ; std::_Tree_const_iterator<std::_Tree_val<std::_Tree_simple_types<std::pair<CEGUI::Window * const,SK_PopupWindow *> > > >::operator++
PUBLIC	??F?$_Tree_const_iterator@V?$_Tree_val@U?$_Tree_simple_types@U?$pair@QAVWindow@CEGUI@@PAVSK_PopupWindow@@@std@@@std@@@std@@@std@@QAEAAV01@XZ ; std::_Tree_const_iterator<std::_Tree_val<std::_Tree_simple_types<std::pair<CEGUI::Window * const,SK_PopupWindow *> > > >::operator--
PUBLIC	??8?$_Tree_const_iterator@V?$_Tree_val@U?$_Tree_simple_types@U?$pair@QAVWindow@CEGUI@@PAVSK_PopupWindow@@@std@@@std@@@std@@@std@@QBE_NABV01@@Z ; std::_Tree_const_iterator<std::_Tree_val<std::_Tree_simple_types<std::pair<CEGUI::Window * const,SK_PopupWindow *> > > >::operator==
PUBLIC	??9?$_Tree_const_iterator@V?$_Tree_val@U?$_Tree_simple_types@U?$pair@QAVWindow@CEGUI@@PAVSK_PopupWindow@@@std@@@std@@@std@@@std@@QBE_NABV01@@Z ; std::_Tree_const_iterator<std::_Tree_val<std::_Tree_simple_types<std::pair<CEGUI::Window * const,SK_PopupWindow *> > > >::operator!=
PUBLIC	??0?$_Tree_iterator@V?$_Tree_val@U?$_Tree_simple_types@U?$pair@QAVWindow@CEGUI@@PAVSK_PopupWindow@@@std@@@std@@@std@@@std@@QAE@PAU?$_Tree_node@U?$pair@QAVWindow@CEGUI@@PAVSK_PopupWindow@@@std@@PAX@1@PBV?$_Tree_val@U?$_Tree_simple_types@U?$pair@QAVWindow@CEGUI@@PAVSK_PopupWindow@@@std@@@std@@@1@@Z ; std::_Tree_iterator<std::_Tree_val<std::_Tree_simple_types<std::pair<CEGUI::Window * const,SK_PopupWindow *> > > >::_Tree_iterator<std::_Tree_val<std::_Tree_simple_types<std::pair<CEGUI::Window * const,SK_PopupWindow *> > > >
PUBLIC	??D?$_Tree_iterator@V?$_Tree_val@U?$_Tree_simple_types@U?$pair@QAVWindow@CEGUI@@PAVSK_PopupWindow@@@std@@@std@@@std@@@std@@QBEAAU?$pair@QAVWindow@CEGUI@@PAVSK_PopupWindow@@@1@XZ ; std::_Tree_iterator<std::_Tree_val<std::_Tree_simple_types<std::pair<CEGUI::Window * const,SK_PopupWindow *> > > >::operator*
PUBLIC	??C?$_Tree_iterator@V?$_Tree_val@U?$_Tree_simple_types@U?$pair@QAVWindow@CEGUI@@PAVSK_PopupWindow@@@std@@@std@@@std@@@std@@QBEPAU?$pair@QAVWindow@CEGUI@@PAVSK_PopupWindow@@@1@XZ ; std::_Tree_iterator<std::_Tree_val<std::_Tree_simple_types<std::pair<CEGUI::Window * const,SK_PopupWindow *> > > >::operator->
PUBLIC	??E?$_Tree_iterator@V?$_Tree_val@U?$_Tree_simple_types@U?$pair@QAVWindow@CEGUI@@PAVSK_PopupWindow@@@std@@@std@@@std@@@std@@QAEAAV01@XZ ; std::_Tree_iterator<std::_Tree_val<std::_Tree_simple_types<std::pair<CEGUI::Window * const,SK_PopupWindow *> > > >::operator++
PUBLIC	??F?$_Tree_iterator@V?$_Tree_val@U?$_Tree_simple_types@U?$pair@QAVWindow@CEGUI@@PAVSK_PopupWindow@@@std@@@std@@@std@@@std@@QAEAAV01@XZ ; std::_Tree_iterator<std::_Tree_val<std::_Tree_simple_types<std::pair<CEGUI::Window * const,SK_PopupWindow *> > > >::operator--
PUBLIC	??$?0VSK_PopupManager@@@SubscriberSlot@CEGUI@@QAE@P8SK_PopupManager@@AE_NABVEventArgs@1@@ZPAV2@@Z ; CEGUI::SubscriberSlot::SubscriberSlot<SK_PopupManager>
PUBLIC	??$distance@V?$_Tree_const_iterator@V?$_Tree_val@U?$_Tree_simple_types@U?$pair@QAVWindow@CEGUI@@PAVSK_PopupWindow@@@std@@@std@@@std@@@std@@@std@@YAHV?$_Tree_const_iterator@V?$_Tree_val@U?$_Tree_simple_types@U?$pair@QAVWindow@CEGUI@@PAVSK_PopupWindow@@@std@@@std@@@std@@@0@0@Z ; std::distance<std::_Tree_const_iterator<std::_Tree_val<std::_Tree_simple_types<std::pair<CEGUI::Window * const,SK_PopupWindow *> > > > >
PUBLIC	??$distance@V?$_Tree_iterator@V?$_Tree_val@U?$_Tree_simple_types@U?$pair@QAVWindow@CEGUI@@PAVSK_PopupWindow@@@std@@@std@@@std@@@std@@@std@@YAHV?$_Tree_iterator@V?$_Tree_val@U?$_Tree_simple_types@U?$pair@QAVWindow@CEGUI@@PAVSK_PopupWindow@@@std@@@std@@@std@@@0@0@Z ; std::distance<std::_Tree_iterator<std::_Tree_val<std::_Tree_simple_types<std::pair<CEGUI::Window * const,SK_PopupWindow *> > > > >
PUBLIC	??$try_emplace@$$V@?$map@PAVWindow@CEGUI@@PAVSK_PopupWindow@@U?$less@PAVWindow@CEGUI@@@std@@V?$allocator@U?$pair@QAVWindow@CEGUI@@PAVSK_PopupWindow@@@std@@@5@@std@@QAE?AU?$pair@V?$_Tree_iterator@V?$_Tree_val@U?$_Tree_simple_types@U?$pair@QAVWindow@CEGUI@@PAVSK_PopupWindow@@@std@@@std@@@std@@@std@@_N@1@ABQAVWindow@CEGUI@@@Z ; std::map<CEGUI::Window *,SK_PopupWindow *,std::less<CEGUI::Window *>,std::allocator<std::pair<CEGUI::Window * const,SK_PopupWindow *> > >::try_emplace<>
PUBLIC	?pointer_to@?$pointer_traits@PAU?$pair@QAVSK_PopupWindow@@PAVWindow@CEGUI@@@std@@@std@@SAPAU?$pair@QAVSK_PopupWindow@@PAVWindow@CEGUI@@@2@AAU32@@Z ; std::pointer_traits<std::pair<SK_PopupWindow * const,CEGUI::Window *> *>::pointer_to
PUBLIC	??$distance@V?$_Tree_const_iterator@V?$_Tree_val@U?$_Tree_simple_types@U?$pair@QAVSK_PopupWindow@@PAVWindow@CEGUI@@@std@@@std@@@std@@@std@@@std@@YAHV?$_Tree_const_iterator@V?$_Tree_val@U?$_Tree_simple_types@U?$pair@QAVSK_PopupWindow@@PAVWindow@CEGUI@@@std@@@std@@@std@@@0@0@Z ; std::distance<std::_Tree_const_iterator<std::_Tree_val<std::_Tree_simple_types<std::pair<SK_PopupWindow * const,CEGUI::Window *> > > > >
PUBLIC	??$distance@V?$_Tree_iterator@V?$_Tree_val@U?$_Tree_simple_types@U?$pair@QAVSK_PopupWindow@@PAVWindow@CEGUI@@@std@@@std@@@std@@@std@@@std@@YAHV?$_Tree_iterator@V?$_Tree_val@U?$_Tree_simple_types@U?$pair@QAVSK_PopupWindow@@PAVWindow@CEGUI@@@std@@@std@@@std@@@0@0@Z ; std::distance<std::_Tree_iterator<std::_Tree_val<std::_Tree_simple_types<std::pair<SK_PopupWindow * const,CEGUI::Window *> > > > >
PUBLIC	??$addressof@V?$_Tree_val@U?$_Tree_simple_types@U?$pair@QAVSK_PopupWindow@@PAVWindow@CEGUI@@@std@@@std@@@std@@@std@@YAPAV?$_Tree_val@U?$_Tree_simple_types@U?$pair@QAVSK_PopupWindow@@PAVWindow@CEGUI@@@std@@@std@@@0@AAV10@@Z ; std::addressof<std::_Tree_val<std::_Tree_simple_types<std::pair<SK_PopupWindow * const,CEGUI::Window *> > > >
PUBLIC	??$addressof@U?$pair@QAVSK_PopupWindow@@PAVWindow@CEGUI@@@std@@@std@@YAPAU?$pair@QAVSK_PopupWindow@@PAVWindow@CEGUI@@@0@AAU10@@Z ; std::addressof<std::pair<SK_PopupWindow * const,CEGUI::Window *> >
PUBLIC	?pointer_to@?$pointer_traits@PAU?$pair@QAVWindow@CEGUI@@PAVSK_PopupWindow@@@std@@@std@@SAPAU?$pair@QAVWindow@CEGUI@@PAVSK_PopupWindow@@@2@AAU32@@Z ; std::pointer_traits<std::pair<CEGUI::Window * const,SK_PopupWindow *> *>::pointer_to
PUBLIC	??$addressof@U?$pair@QAVWindow@CEGUI@@PAVSK_PopupWindow@@@std@@@std@@YAPAU?$pair@QAVWindow@CEGUI@@PAVSK_PopupWindow@@@0@AAU10@@Z ; std::addressof<std::pair<CEGUI::Window * const,SK_PopupWindow *> >
PUBLIC	??$destroy@U?$pair@QAVWindow@CEGUI@@PAVSK_PopupWindow@@@std@@@?$_Wrap_alloc@V?$allocator@U?$_Tree_node@U?$pair@QAVWindow@CEGUI@@PAVSK_PopupWindow@@@std@@PAX@std@@@std@@@std@@QAEXPAU?$pair@QAVWindow@CEGUI@@PAVSK_PopupWindow@@@1@@Z ; std::_Wrap_alloc<std::allocator<std::_Tree_node<std::pair<CEGUI::Window * const,SK_PopupWindow *>,void *> > >::destroy<std::pair<CEGUI::Window * const,SK_PopupWindow *> >
PUBLIC	??$_Eqrange@PAVWindow@CEGUI@@@?$_Tree@V?$_Tmap_traits@PAVWindow@CEGUI@@PAVSK_PopupWindow@@U?$less@PAVWindow@CEGUI@@@std@@V?$allocator@U?$pair@QAVWindow@CEGUI@@PAVSK_PopupWindow@@@std@@@5@$0A@@std@@@std@@IAE?AU?$pair@V?$_Tree_iterator@V?$_Tree_val@U?$_Tree_simple_types@U?$pair@QAVWindow@CEGUI@@PAVSK_PopupWindow@@@std@@@std@@@std@@@std@@V12@@1@ABQAVWindow@CEGUI@@@Z ; std::_Tree<std::_Tmap_traits<CEGUI::Window *,SK_PopupWindow *,std::less<CEGUI::Window *>,std::allocator<std::pair<CEGUI::Window * const,SK_PopupWindow *> >,0> >::_Eqrange<CEGUI::Window *>
PUBLIC	??$_Eqrange@PAVWindow@CEGUI@@@?$_Tree@V?$_Tmap_traits@PAVWindow@CEGUI@@PAVSK_PopupWindow@@U?$less@PAVWindow@CEGUI@@@std@@V?$allocator@U?$pair@QAVWindow@CEGUI@@PAVSK_PopupWindow@@@std@@@5@$0A@@std@@@std@@IBE?AU?$pair@V?$_Tree_const_iterator@V?$_Tree_val@U?$_Tree_simple_types@U?$pair@QAVWindow@CEGUI@@PAVSK_PopupWindow@@@std@@@std@@@std@@@std@@V12@@1@ABQAVWindow@CEGUI@@@Z ; std::_Tree<std::_Tmap_traits<CEGUI::Window *,SK_PopupWindow *,std::less<CEGUI::Window *>,std::allocator<std::pair<CEGUI::Window * const,SK_PopupWindow *> >,0> >::_Eqrange<CEGUI::Window *>
PUBLIC	??$addressof@V?$_Tree_val@U?$_Tree_simple_types@U?$pair@QAVWindow@CEGUI@@PAVSK_PopupWindow@@@std@@@std@@@std@@@std@@YAPAV?$_Tree_val@U?$_Tree_simple_types@U?$pair@QAVWindow@CEGUI@@PAVSK_PopupWindow@@@std@@@std@@@0@AAV10@@Z ; std::addressof<std::_Tree_val<std::_Tree_simple_types<std::pair<CEGUI::Window * const,SK_PopupWindow *> > > >
PUBLIC	??$destroy@U?$pair@QAVSK_PopupWindow@@PAVWindow@CEGUI@@@std@@@?$_Wrap_alloc@V?$allocator@U?$_Tree_node@U?$pair@QAVSK_PopupWindow@@PAVWindow@CEGUI@@@std@@PAX@std@@@std@@@std@@QAEXPAU?$pair@QAVSK_PopupWindow@@PAVWindow@CEGUI@@@1@@Z ; std::_Wrap_alloc<std::allocator<std::_Tree_node<std::pair<SK_PopupWindow * const,CEGUI::Window *>,void *> > >::destroy<std::pair<SK_PopupWindow * const,CEGUI::Window *> >
PUBLIC	??$_Eqrange@PAVSK_PopupWindow@@@?$_Tree@V?$_Tmap_traits@PAVSK_PopupWindow@@PAVWindow@CEGUI@@U?$less@PAVSK_PopupWindow@@@std@@V?$allocator@U?$pair@QAVSK_PopupWindow@@PAVWindow@CEGUI@@@std@@@5@$0A@@std@@@std@@IAE?AU?$pair@V?$_Tree_iterator@V?$_Tree_val@U?$_Tree_simple_types@U?$pair@QAVSK_PopupWindow@@PAVWindow@CEGUI@@@std@@@std@@@std@@@std@@V12@@1@ABQAVSK_PopupWindow@@@Z ; std::_Tree<std::_Tmap_traits<SK_PopupWindow *,CEGUI::Window *,std::less<SK_PopupWindow *>,std::allocator<std::pair<SK_PopupWindow * const,CEGUI::Window *> >,0> >::_Eqrange<SK_PopupWindow *>
PUBLIC	??$_Eqrange@PAVSK_PopupWindow@@@?$_Tree@V?$_Tmap_traits@PAVSK_PopupWindow@@PAVWindow@CEGUI@@U?$less@PAVSK_PopupWindow@@@std@@V?$allocator@U?$pair@QAVSK_PopupWindow@@PAVWindow@CEGUI@@@std@@@5@$0A@@std@@@std@@IBE?AU?$pair@V?$_Tree_const_iterator@V?$_Tree_val@U?$_Tree_simple_types@U?$pair@QAVSK_PopupWindow@@PAVWindow@CEGUI@@@std@@@std@@@std@@@std@@V12@@1@ABQAVSK_PopupWindow@@@Z ; std::_Tree<std::_Tmap_traits<SK_PopupWindow *,CEGUI::Window *,std::less<SK_PopupWindow *>,std::allocator<std::pair<SK_PopupWindow * const,CEGUI::Window *> >,0> >::_Eqrange<SK_PopupWindow *>
PUBLIC	??$addressof@PAU?$_Tree_node@U?$pair@QAVWindow@CEGUI@@PAVSK_PopupWindow@@@std@@PAX@std@@@std@@YAPAPAU?$_Tree_node@U?$pair@QAVWindow@CEGUI@@PAVSK_PopupWindow@@@std@@PAX@0@AAPAU10@@Z ; std::addressof<std::_Tree_node<std::pair<CEGUI::Window * const,SK_PopupWindow *>,void *> *>
PUBLIC	??$destroy@PAU?$_Tree_node@U?$pair@QAVWindow@CEGUI@@PAVSK_PopupWindow@@@std@@PAX@std@@@?$_Wrap_alloc@V?$allocator@U?$_Tree_node@U?$pair@QAVWindow@CEGUI@@PAVSK_PopupWindow@@@std@@PAX@std@@@std@@@std@@QAEXPAPAU?$_Tree_node@U?$pair@QAVWindow@CEGUI@@PAVSK_PopupWindow@@@std@@PAX@1@@Z ; std::_Wrap_alloc<std::allocator<std::_Tree_node<std::pair<CEGUI::Window * const,SK_PopupWindow *>,void *> > >::destroy<std::_Tree_node<std::pair<CEGUI::Window * const,SK_PopupWindow *>,void *> *>
PUBLIC	??$?0ABU?$less@PAVWindow@CEGUI@@@std@@U_Zero_then_variadic_args_t@1@@?$_Compressed_pair@U?$less@PAVWindow@CEGUI@@@std@@V?$_Compressed_pair@U?$_Wrap_alloc@V?$allocator@U?$_Tree_node@U?$pair@QAVWindow@CEGUI@@PAVSK_PopupWindow@@@std@@PAX@std@@@std@@@std@@V?$_Tree_val@U?$_Tree_simple_types@U?$pair@QAVWindow@CEGUI@@PAVSK_PopupWindow@@@std@@@std@@@2@$00@2@$00@std@@QAE@U_One_then_variadic_args_t@1@ABU?$less@PAVWindow@CEGUI@@@1@$$QAU_Zero_then_variadic_args_t@1@@Z ; std::_Compressed_pair<std::less<CEGUI::Window *>,std::_Compressed_pair<std::_Wrap_alloc<std::allocator<std::_Tree_node<std::pair<CEGUI::Window * const,SK_PopupWindow *>,void *> > >,std::_Tree_val<std::_Tree_simple_types<std::pair<CEGUI::Window * const,SK_PopupWindow *> > >,1>,1>::_Compressed_pair<std::less<CEGUI::Window *>,std::_Compressed_pair<std::_Wrap_alloc<std::allocator<std::_Tree_node<std::pair<CEGUI::Window * const,SK_PopupWindow *>,void *> > >,std::_Tree_val<std::_Tree_simple_types<std::pair<CEGUI::Window * const,SK_PopupWindow *> > >,1>,1><std::less<CEGUI::Window *> const &,std::_Zero_then_variadic_args_t>
PUBLIC	??$swap@DX@std@@YAXAAD0@Z			; std::swap<char,void>
PUBLIC	??$addressof@PAU?$_Tree_node@U?$pair@QAVSK_PopupWindow@@PAVWindow@CEGUI@@@std@@PAX@std@@@std@@YAPAPAU?$_Tree_node@U?$pair@QAVSK_PopupWindow@@PAVWindow@CEGUI@@@std@@PAX@0@AAPAU10@@Z ; std::addressof<std::_Tree_node<std::pair<SK_PopupWindow * const,CEGUI::Window *>,void *> *>
PUBLIC	??$destroy@PAU?$_Tree_node@U?$pair@QAVSK_PopupWindow@@PAVWindow@CEGUI@@@std@@PAX@std@@@?$_Wrap_alloc@V?$allocator@U?$_Tree_node@U?$pair@QAVSK_PopupWindow@@PAVWindow@CEGUI@@@std@@PAX@std@@@std@@@std@@QAEXPAPAU?$_Tree_node@U?$pair@QAVSK_PopupWindow@@PAVWindow@CEGUI@@@std@@PAX@1@@Z ; std::_Wrap_alloc<std::allocator<std::_Tree_node<std::pair<SK_PopupWindow * const,CEGUI::Window *>,void *> > >::destroy<std::_Tree_node<std::pair<SK_PopupWindow * const,CEGUI::Window *>,void *> *>
PUBLIC	??$?0ABU?$less@PAVSK_PopupWindow@@@std@@U_Zero_then_variadic_args_t@1@@?$_Compressed_pair@U?$less@PAVSK_PopupWindow@@@std@@V?$_Compressed_pair@U?$_Wrap_alloc@V?$allocator@U?$_Tree_node@U?$pair@QAVSK_PopupWindow@@PAVWindow@CEGUI@@@std@@PAX@std@@@std@@@std@@V?$_Tree_val@U?$_Tree_simple_types@U?$pair@QAVSK_PopupWindow@@PAVWindow@CEGUI@@@std@@@std@@@2@$00@2@$00@std@@QAE@U_One_then_variadic_args_t@1@ABU?$less@PAVSK_PopupWindow@@@1@$$QAU_Zero_then_variadic_args_t@1@@Z ; std::_Compressed_pair<std::less<SK_PopupWindow *>,std::_Compressed_pair<std::_Wrap_alloc<std::allocator<std::_Tree_node<std::pair<SK_PopupWindow * const,CEGUI::Window *>,void *> > >,std::_Tree_val<std::_Tree_simple_types<std::pair<SK_PopupWindow * const,CEGUI::Window *> > >,1>,1>::_Compressed_pair<std::less<SK_PopupWindow *>,std::_Compressed_pair<std::_Wrap_alloc<std::allocator<std::_Tree_node<std::pair<SK_PopupWindow * const,CEGUI::Window *>,void *> > >,std::_Tree_val<std::_Tree_simple_types<std::pair<SK_PopupWindow * const,CEGUI::Window *> > >,1>,1><std::less<SK_PopupWindow *> const &,std::_Zero_then_variadic_args_t>
PUBLIC	??$construct@PAU?$_Tree_node@U?$pair@QAVWindow@CEGUI@@PAVSK_PopupWindow@@@std@@PAX@std@@AAPAU12@@?$_Wrap_alloc@V?$allocator@U?$_Tree_node@U?$pair@QAVWindow@CEGUI@@PAVSK_PopupWindow@@@std@@PAX@std@@@std@@@std@@QAEXPAPAU?$_Tree_node@U?$pair@QAVWindow@CEGUI@@PAVSK_PopupWindow@@@std@@PAX@1@AAPAU21@@Z ; std::_Wrap_alloc<std::allocator<std::_Tree_node<std::pair<CEGUI::Window * const,SK_PopupWindow *>,void *> > >::construct<std::_Tree_node<std::pair<CEGUI::Window * const,SK_PopupWindow *>,void *> *,std::_Tree_node<std::pair<CEGUI::Window * const,SK_PopupWindow *>,void *> * &>
PUBLIC	??$construct@PAU?$_Tree_node@U?$pair@QAVSK_PopupWindow@@PAVWindow@CEGUI@@@std@@PAX@std@@AAPAU12@@?$_Wrap_alloc@V?$allocator@U?$_Tree_node@U?$pair@QAVSK_PopupWindow@@PAVWindow@CEGUI@@@std@@PAX@std@@@std@@@std@@QAEXPAPAU?$_Tree_node@U?$pair@QAVSK_PopupWindow@@PAVWindow@CEGUI@@@std@@PAX@1@AAPAU21@@Z ; std::_Wrap_alloc<std::allocator<std::_Tree_node<std::pair<SK_PopupWindow * const,CEGUI::Window *>,void *> > >::construct<std::_Tree_node<std::pair<SK_PopupWindow * const,CEGUI::Window *>,void *> *,std::_Tree_node<std::pair<SK_PopupWindow * const,CEGUI::Window *>,void *> * &>
PUBLIC	??$forward@AAPAVSK_PopupWindow@@@std@@YAAAPAVSK_PopupWindow@@AAPAV1@@Z ; std::forward<SK_PopupWindow * &>
PUBLIC	??$forward@AAPAVWindow@CEGUI@@@std@@YAAAPAVWindow@CEGUI@@AAPAV12@@Z ; std::forward<CEGUI::Window * &>
PUBLIC	??$?0AAPAVSK_PopupWindow@@AAPAVWindow@CEGUI@@X$0A@@?$pair@PAVSK_PopupWindow@@PAVWindow@CEGUI@@@std@@QAE@AAPAVSK_PopupWindow@@AAPAVWindow@CEGUI@@@Z ; std::pair<SK_PopupWindow *,CEGUI::Window *>::pair<SK_PopupWindow *,CEGUI::Window *><SK_PopupWindow * &,CEGUI::Window * &,void,0>
PUBLIC	??$forward@U?$pair@PAVSK_PopupWindow@@PAVWindow@CEGUI@@@std@@@std@@YA$$QAU?$pair@PAVSK_PopupWindow@@PAVWindow@CEGUI@@@0@AAU10@@Z ; std::forward<std::pair<SK_PopupWindow *,CEGUI::Window *> >
PUBLIC	??$emplace@U?$pair@PAVSK_PopupWindow@@PAVWindow@CEGUI@@@std@@@?$_Tree@V?$_Tmap_traits@PAVSK_PopupWindow@@PAVWindow@CEGUI@@U?$less@PAVSK_PopupWindow@@@std@@V?$allocator@U?$pair@QAVSK_PopupWindow@@PAVWindow@CEGUI@@@std@@@5@$0A@@std@@@std@@QAE?AU?$pair@V?$_Tree_iterator@V?$_Tree_val@U?$_Tree_simple_types@U?$pair@QAVSK_PopupWindow@@PAVWindow@CEGUI@@@std@@@std@@@std@@@std@@_N@1@$$QAU?$pair@PAVSK_PopupWindow@@PAVWindow@CEGUI@@@1@@Z ; std::_Tree<std::_Tmap_traits<SK_PopupWindow *,CEGUI::Window *,std::less<SK_PopupWindow *>,std::allocator<std::pair<SK_PopupWindow * const,CEGUI::Window *> >,0> >::emplace<std::pair<SK_PopupWindow *,CEGUI::Window *> >
PUBLIC	??$?0AAPAVWindow@CEGUI@@AAPAVSK_PopupWindow@@X$0A@@?$pair@PAVWindow@CEGUI@@PAVSK_PopupWindow@@@std@@QAE@AAPAVWindow@CEGUI@@AAPAVSK_PopupWindow@@@Z ; std::pair<CEGUI::Window *,SK_PopupWindow *>::pair<CEGUI::Window *,SK_PopupWindow *><CEGUI::Window * &,SK_PopupWindow * &,void,0>
PUBLIC	??$forward@U?$pair@PAVWindow@CEGUI@@PAVSK_PopupWindow@@@std@@@std@@YA$$QAU?$pair@PAVWindow@CEGUI@@PAVSK_PopupWindow@@@0@AAU10@@Z ; std::forward<std::pair<CEGUI::Window *,SK_PopupWindow *> >
PUBLIC	??$emplace@U?$pair@PAVWindow@CEGUI@@PAVSK_PopupWindow@@@std@@@?$_Tree@V?$_Tmap_traits@PAVWindow@CEGUI@@PAVSK_PopupWindow@@U?$less@PAVWindow@CEGUI@@@std@@V?$allocator@U?$pair@QAVWindow@CEGUI@@PAVSK_PopupWindow@@@std@@@5@$0A@@std@@@std@@QAE?AU?$pair@V?$_Tree_iterator@V?$_Tree_val@U?$_Tree_simple_types@U?$pair@QAVWindow@CEGUI@@PAVSK_PopupWindow@@@std@@@std@@@std@@@std@@_N@1@$$QAU?$pair@PAVWindow@CEGUI@@PAVSK_PopupWindow@@@1@@Z ; std::_Tree<std::_Tmap_traits<CEGUI::Window *,SK_PopupWindow *,std::less<CEGUI::Window *>,std::allocator<std::pair<CEGUI::Window * const,SK_PopupWindow *> >,0> >::emplace<std::pair<CEGUI::Window *,SK_PopupWindow *> >
PUBLIC	??0?$MemberFunctionSlot@VSK_PopupManager@@@CEGUI@@QAE@P8SK_PopupManager@@AE_NABVEventArgs@1@@ZPAV2@@Z ; CEGUI::MemberFunctionSlot<SK_PopupManager>::MemberFunctionSlot<SK_PopupManager>
PUBLIC	??R?$MemberFunctionSlot@VSK_PopupManager@@@CEGUI@@UAE_NABVEventArgs@1@@Z ; CEGUI::MemberFunctionSlot<SK_PopupManager>::operator()
PUBLIC	??1?$MemberFunctionSlot@VSK_PopupManager@@@CEGUI@@UAE@XZ ; CEGUI::MemberFunctionSlot<SK_PopupManager>::~MemberFunctionSlot<SK_PopupManager>
PUBLIC	??_G?$MemberFunctionSlot@VSK_PopupManager@@@CEGUI@@UAEPAXI@Z ; CEGUI::MemberFunctionSlot<SK_PopupManager>::`scalar deleting destructor'
PUBLIC	??$_Distance1@V?$_Tree_const_iterator@V?$_Tree_val@U?$_Tree_simple_types@U?$pair@QAVWindow@CEGUI@@PAVSK_PopupWindow@@@std@@@std@@@std@@@std@@@std@@YAHV?$_Tree_const_iterator@V?$_Tree_val@U?$_Tree_simple_types@U?$pair@QAVWindow@CEGUI@@PAVSK_PopupWindow@@@std@@@std@@@std@@@0@0Uinput_iterator_tag@0@@Z ; std::_Distance1<std::_Tree_const_iterator<std::_Tree_val<std::_Tree_simple_types<std::pair<CEGUI::Window * const,SK_PopupWindow *> > > > >
PUBLIC	??$_Distance1@V?$_Tree_iterator@V?$_Tree_val@U?$_Tree_simple_types@U?$pair@QAVWindow@CEGUI@@PAVSK_PopupWindow@@@std@@@std@@@std@@@std@@@std@@YAHV?$_Tree_iterator@V?$_Tree_val@U?$_Tree_simple_types@U?$pair@QAVWindow@CEGUI@@PAVSK_PopupWindow@@@std@@@std@@@std@@@0@0Uinput_iterator_tag@0@@Z ; std::_Distance1<std::_Tree_iterator<std::_Tree_val<std::_Tree_simple_types<std::pair<CEGUI::Window * const,SK_PopupWindow *> > > > >
PUBLIC	??$_Try_emplace@ABQAVWindow@CEGUI@@$$V@?$map@PAVWindow@CEGUI@@PAVSK_PopupWindow@@U?$less@PAVWindow@CEGUI@@@std@@V?$allocator@U?$pair@QAVWindow@CEGUI@@PAVSK_PopupWindow@@@std@@@5@@std@@QAE?AU?$pair@V?$_Tree_iterator@V?$_Tree_val@U?$_Tree_simple_types@U?$pair@QAVWindow@CEGUI@@PAVSK_PopupWindow@@@std@@@std@@@std@@@std@@_N@1@ABQAVWindow@CEGUI@@@Z ; std::map<CEGUI::Window *,SK_PopupWindow *,std::less<CEGUI::Window *>,std::allocator<std::pair<CEGUI::Window * const,SK_PopupWindow *> > >::_Try_emplace<CEGUI::Window * const &>
PUBLIC	??$_Distance1@V?$_Tree_const_iterator@V?$_Tree_val@U?$_Tree_simple_types@U?$pair@QAVSK_PopupWindow@@PAVWindow@CEGUI@@@std@@@std@@@std@@@std@@@std@@YAHV?$_Tree_const_iterator@V?$_Tree_val@U?$_Tree_simple_types@U?$pair@QAVSK_PopupWindow@@PAVWindow@CEGUI@@@std@@@std@@@std@@@0@0Uinput_iterator_tag@0@@Z ; std::_Distance1<std::_Tree_const_iterator<std::_Tree_val<std::_Tree_simple_types<std::pair<SK_PopupWindow * const,CEGUI::Window *> > > > >
PUBLIC	??$_Distance1@V?$_Tree_iterator@V?$_Tree_val@U?$_Tree_simple_types@U?$pair@QAVSK_PopupWindow@@PAVWindow@CEGUI@@@std@@@std@@@std@@@std@@@std@@YAHV?$_Tree_iterator@V?$_Tree_val@U?$_Tree_simple_types@U?$pair@QAVSK_PopupWindow@@PAVWindow@CEGUI@@@std@@@std@@@std@@@0@0Uinput_iterator_tag@0@@Z ; std::_Distance1<std::_Tree_iterator<std::_Tree_val<std::_Tree_simple_types<std::pair<SK_PopupWindow * const,CEGUI::Window *> > > > >
PUBLIC	??$destroy@U?$pair@QAVWindow@CEGUI@@PAVSK_PopupWindow@@@std@@@?$allocator_traits@V?$allocator@U?$_Tree_node@U?$pair@QAVWindow@CEGUI@@PAVSK_PopupWindow@@@std@@PAX@std@@@std@@@std@@SAXAAV?$allocator@U?$_Tree_node@U?$pair@QAVWindow@CEGUI@@PAVSK_PopupWindow@@@std@@PAX@std@@@1@PAU?$pair@QAVWindow@CEGUI@@PAVSK_PopupWindow@@@1@@Z ; std::allocator_traits<std::allocator<std::_Tree_node<std::pair<CEGUI::Window * const,SK_PopupWindow *>,void *> > >::destroy<std::pair<CEGUI::Window * const,SK_PopupWindow *> >
PUBLIC	??$?0AAV?$_Tree_iterator@V?$_Tree_val@U?$_Tree_simple_types@U?$pair@QAVWindow@CEGUI@@PAVSK_PopupWindow@@@std@@@std@@@std@@@std@@AAV01@X$0A@@?$pair@V?$_Tree_iterator@V?$_Tree_val@U?$_Tree_simple_types@U?$pair@QAVWindow@CEGUI@@PAVSK_PopupWindow@@@std@@@std@@@std@@@std@@V12@@std@@QAE@AAV?$_Tree_iterator@V?$_Tree_val@U?$_Tree_simple_types@U?$pair@QAVWindow@CEGUI@@PAVSK_PopupWindow@@@std@@@std@@@std@@@1@0@Z ; std::pair<std::_Tree_iterator<std::_Tree_val<std::_Tree_simple_types<std::pair<CEGUI::Window * const,SK_PopupWindow *> > > >,std::_Tree_iterator<std::_Tree_val<std::_Tree_simple_types<std::pair<CEGUI::Window * const,SK_PopupWindow *> > > > >::pair<std::_Tree_iterator<std::_Tree_val<std::_Tree_simple_types<std::pair<CEGUI::Window * const,SK_PopupWindow *> > > >,std::_Tree_iterator<std::_Tree_val<std::_Tree_simple_types<std::pair<CEGUI::Window * const,SK_PopupWindow *> > > > ><std::_Tree_iterator<std::_Tree_val<std::_Tree_simple_types<std::pair<CEGUI::Window * const,SK_PopupWindow *> > > > &,std::_Tree_iterator<std::_Tree_val<std::_Tree_simple_types<std::pair<CEGUI::Window * const,SK_PopupWindow *> > > > &,void,0>
PUBLIC	??$addressof@$$CBV?$_Tree_val@U?$_Tree_simple_types@U?$pair@QAVWindow@CEGUI@@PAVSK_PopupWindow@@@std@@@std@@@std@@@std@@YAPBV?$_Tree_val@U?$_Tree_simple_types@U?$pair@QAVWindow@CEGUI@@PAVSK_PopupWindow@@@std@@@std@@@0@ABV10@@Z ; std::addressof<std::_Tree_val<std::_Tree_simple_types<std::pair<CEGUI::Window * const,SK_PopupWindow *> > > const >
PUBLIC	??$?0AAV?$_Tree_const_iterator@V?$_Tree_val@U?$_Tree_simple_types@U?$pair@QAVWindow@CEGUI@@PAVSK_PopupWindow@@@std@@@std@@@std@@@std@@AAV01@X$0A@@?$pair@V?$_Tree_const_iterator@V?$_Tree_val@U?$_Tree_simple_types@U?$pair@QAVWindow@CEGUI@@PAVSK_PopupWindow@@@std@@@std@@@std@@@std@@V12@@std@@QAE@AAV?$_Tree_const_iterator@V?$_Tree_val@U?$_Tree_simple_types@U?$pair@QAVWindow@CEGUI@@PAVSK_PopupWindow@@@std@@@std@@@std@@@1@0@Z ; std::pair<std::_Tree_const_iterator<std::_Tree_val<std::_Tree_simple_types<std::pair<CEGUI::Window * const,SK_PopupWindow *> > > >,std::_Tree_const_iterator<std::_Tree_val<std::_Tree_simple_types<std::pair<CEGUI::Window * const,SK_PopupWindow *> > > > >::pair<std::_Tree_const_iterator<std::_Tree_val<std::_Tree_simple_types<std::pair<CEGUI::Window * const,SK_PopupWindow *> > > >,std::_Tree_const_iterator<std::_Tree_val<std::_Tree_simple_types<std::pair<CEGUI::Window * const,SK_PopupWindow *> > > > ><std::_Tree_const_iterator<std::_Tree_val<std::_Tree_simple_types<std::pair<CEGUI::Window * const,SK_PopupWindow *> > > > &,std::_Tree_const_iterator<std::_Tree_val<std::_Tree_simple_types<std::pair<CEGUI::Window * const,SK_PopupWindow *> > > > &,void,0>
PUBLIC	??$destroy@U?$pair@QAVSK_PopupWindow@@PAVWindow@CEGUI@@@std@@@?$allocator_traits@V?$allocator@U?$_Tree_node@U?$pair@QAVSK_PopupWindow@@PAVWindow@CEGUI@@@std@@PAX@std@@@std@@@std@@SAXAAV?$allocator@U?$_Tree_node@U?$pair@QAVSK_PopupWindow@@PAVWindow@CEGUI@@@std@@PAX@std@@@1@PAU?$pair@QAVSK_PopupWindow@@PAVWindow@CEGUI@@@1@@Z ; std::allocator_traits<std::allocator<std::_Tree_node<std::pair<SK_PopupWindow * const,CEGUI::Window *>,void *> > >::destroy<std::pair<SK_PopupWindow * const,CEGUI::Window *> >
PUBLIC	??$?0AAV?$_Tree_iterator@V?$_Tree_val@U?$_Tree_simple_types@U?$pair@QAVSK_PopupWindow@@PAVWindow@CEGUI@@@std@@@std@@@std@@@std@@AAV01@X$0A@@?$pair@V?$_Tree_iterator@V?$_Tree_val@U?$_Tree_simple_types@U?$pair@QAVSK_PopupWindow@@PAVWindow@CEGUI@@@std@@@std@@@std@@@std@@V12@@std@@QAE@AAV?$_Tree_iterator@V?$_Tree_val@U?$_Tree_simple_types@U?$pair@QAVSK_PopupWindow@@PAVWindow@CEGUI@@@std@@@std@@@std@@@1@0@Z ; std::pair<std::_Tree_iterator<std::_Tree_val<std::_Tree_simple_types<std::pair<SK_PopupWindow * const,CEGUI::Window *> > > >,std::_Tree_iterator<std::_Tree_val<std::_Tree_simple_types<std::pair<SK_PopupWindow * const,CEGUI::Window *> > > > >::pair<std::_Tree_iterator<std::_Tree_val<std::_Tree_simple_types<std::pair<SK_PopupWindow * const,CEGUI::Window *> > > >,std::_Tree_iterator<std::_Tree_val<std::_Tree_simple_types<std::pair<SK_PopupWindow * const,CEGUI::Window *> > > > ><std::_Tree_iterator<std::_Tree_val<std::_Tree_simple_types<std::pair<SK_PopupWindow * const,CEGUI::Window *> > > > &,std::_Tree_iterator<std::_Tree_val<std::_Tree_simple_types<std::pair<SK_PopupWindow * const,CEGUI::Window *> > > > &,void,0>
PUBLIC	??$addressof@$$CBV?$_Tree_val@U?$_Tree_simple_types@U?$pair@QAVSK_PopupWindow@@PAVWindow@CEGUI@@@std@@@std@@@std@@@std@@YAPBV?$_Tree_val@U?$_Tree_simple_types@U?$pair@QAVSK_PopupWindow@@PAVWindow@CEGUI@@@std@@@std@@@0@ABV10@@Z ; std::addressof<std::_Tree_val<std::_Tree_simple_types<std::pair<SK_PopupWindow * const,CEGUI::Window *> > > const >
PUBLIC	??$?0AAV?$_Tree_const_iterator@V?$_Tree_val@U?$_Tree_simple_types@U?$pair@QAVSK_PopupWindow@@PAVWindow@CEGUI@@@std@@@std@@@std@@@std@@AAV01@X$0A@@?$pair@V?$_Tree_const_iterator@V?$_Tree_val@U?$_Tree_simple_types@U?$pair@QAVSK_PopupWindow@@PAVWindow@CEGUI@@@std@@@std@@@std@@@std@@V12@@std@@QAE@AAV?$_Tree_const_iterator@V?$_Tree_val@U?$_Tree_simple_types@U?$pair@QAVSK_PopupWindow@@PAVWindow@CEGUI@@@std@@@std@@@std@@@1@0@Z ; std::pair<std::_Tree_const_iterator<std::_Tree_val<std::_Tree_simple_types<std::pair<SK_PopupWindow * const,CEGUI::Window *> > > >,std::_Tree_const_iterator<std::_Tree_val<std::_Tree_simple_types<std::pair<SK_PopupWindow * const,CEGUI::Window *> > > > >::pair<std::_Tree_const_iterator<std::_Tree_val<std::_Tree_simple_types<std::pair<SK_PopupWindow * const,CEGUI::Window *> > > >,std::_Tree_const_iterator<std::_Tree_val<std::_Tree_simple_types<std::pair<SK_PopupWindow * const,CEGUI::Window *> > > > ><std::_Tree_const_iterator<std::_Tree_val<std::_Tree_simple_types<std::pair<SK_PopupWindow * const,CEGUI::Window *> > > > &,std::_Tree_const_iterator<std::_Tree_val<std::_Tree_simple_types<std::pair<SK_PopupWindow * const,CEGUI::Window *> > > > &,void,0>
PUBLIC	??$destroy@PAU?$_Tree_node@U?$pair@QAVWindow@CEGUI@@PAVSK_PopupWindow@@@std@@PAX@std@@@?$allocator_traits@V?$allocator@U?$_Tree_node@U?$pair@QAVWindow@CEGUI@@PAVSK_PopupWindow@@@std@@PAX@std@@@std@@@std@@SAXAAV?$allocator@U?$_Tree_node@U?$pair@QAVWindow@CEGUI@@PAVSK_PopupWindow@@@std@@PAX@std@@@1@PAPAU?$_Tree_node@U?$pair@QAVWindow@CEGUI@@PAVSK_PopupWindow@@@std@@PAX@1@@Z ; std::allocator_traits<std::allocator<std::_Tree_node<std::pair<CEGUI::Window * const,SK_PopupWindow *>,void *> > >::destroy<std::_Tree_node<std::pair<CEGUI::Window * const,SK_PopupWindow *>,void *> *>
PUBLIC	??$forward@ABU?$less@PAVWindow@CEGUI@@@std@@@std@@YAABU?$less@PAVWindow@CEGUI@@@0@ABU10@@Z ; std::forward<std::less<CEGUI::Window *> const &>
PUBLIC	??$forward@U_Zero_then_variadic_args_t@std@@@std@@YA$$QAU_Zero_then_variadic_args_t@0@AAU10@@Z ; std::forward<std::_Zero_then_variadic_args_t>
PUBLIC	??$?0$$V@?$_Compressed_pair@U?$_Wrap_alloc@V?$allocator@U?$_Tree_node@U?$pair@QAVWindow@CEGUI@@PAVSK_PopupWindow@@@std@@PAX@std@@@std@@@std@@V?$_Tree_val@U?$_Tree_simple_types@U?$pair@QAVWindow@CEGUI@@PAVSK_PopupWindow@@@std@@@std@@@2@$00@std@@QAE@U_Zero_then_variadic_args_t@1@@Z ; std::_Compressed_pair<std::_Wrap_alloc<std::allocator<std::_Tree_node<std::pair<CEGUI::Window * const,SK_PopupWindow *>,void *> > >,std::_Tree_val<std::_Tree_simple_types<std::pair<CEGUI::Window * const,SK_PopupWindow *> > >,1>::_Compressed_pair<std::_Wrap_alloc<std::allocator<std::_Tree_node<std::pair<CEGUI::Window * const,SK_PopupWindow *>,void *> > >,std::_Tree_val<std::_Tree_simple_types<std::pair<CEGUI::Window * const,SK_PopupWindow *> > >,1><>
PUBLIC	??$move@AAD@std@@YA$$QADAAD@Z			; std::move<char &>
PUBLIC	??$destroy@PAU?$_Tree_node@U?$pair@QAVSK_PopupWindow@@PAVWindow@CEGUI@@@std@@PAX@std@@@?$allocator_traits@V?$allocator@U?$_Tree_node@U?$pair@QAVSK_PopupWindow@@PAVWindow@CEGUI@@@std@@PAX@std@@@std@@@std@@SAXAAV?$allocator@U?$_Tree_node@U?$pair@QAVSK_PopupWindow@@PAVWindow@CEGUI@@@std@@PAX@std@@@1@PAPAU?$_Tree_node@U?$pair@QAVSK_PopupWindow@@PAVWindow@CEGUI@@@std@@PAX@1@@Z ; std::allocator_traits<std::allocator<std::_Tree_node<std::pair<SK_PopupWindow * const,CEGUI::Window *>,void *> > >::destroy<std::_Tree_node<std::pair<SK_PopupWindow * const,CEGUI::Window *>,void *> *>
PUBLIC	??$forward@ABU?$less@PAVSK_PopupWindow@@@std@@@std@@YAABU?$less@PAVSK_PopupWindow@@@0@ABU10@@Z ; std::forward<std::less<SK_PopupWindow *> const &>
PUBLIC	??$?0$$V@?$_Compressed_pair@U?$_Wrap_alloc@V?$allocator@U?$_Tree_node@U?$pair@QAVSK_PopupWindow@@PAVWindow@CEGUI@@@std@@PAX@std@@@std@@@std@@V?$_Tree_val@U?$_Tree_simple_types@U?$pair@QAVSK_PopupWindow@@PAVWindow@CEGUI@@@std@@@std@@@2@$00@std@@QAE@U_Zero_then_variadic_args_t@1@@Z ; std::_Compressed_pair<std::_Wrap_alloc<std::allocator<std::_Tree_node<std::pair<SK_PopupWindow * const,CEGUI::Window *>,void *> > >,std::_Tree_val<std::_Tree_simple_types<std::pair<SK_PopupWindow * const,CEGUI::Window *> > >,1>::_Compressed_pair<std::_Wrap_alloc<std::allocator<std::_Tree_node<std::pair<SK_PopupWindow * const,CEGUI::Window *>,void *> > >,std::_Tree_val<std::_Tree_simple_types<std::pair<SK_PopupWindow * const,CEGUI::Window *> > >,1><>
PUBLIC	??$forward@AAPAU?$_Tree_node@U?$pair@QAVWindow@CEGUI@@PAVSK_PopupWindow@@@std@@PAX@std@@@std@@YAAAPAU?$_Tree_node@U?$pair@QAVWindow@CEGUI@@PAVSK_PopupWindow@@@std@@PAX@0@AAPAU10@@Z ; std::forward<std::_Tree_node<std::pair<CEGUI::Window * const,SK_PopupWindow *>,void *> * &>
PUBLIC	??$construct@PAU?$_Tree_node@U?$pair@QAVWindow@CEGUI@@PAVSK_PopupWindow@@@std@@PAX@std@@AAPAU12@@?$allocator_traits@V?$allocator@U?$_Tree_node@U?$pair@QAVWindow@CEGUI@@PAVSK_PopupWindow@@@std@@PAX@std@@@std@@@std@@SAXAAV?$allocator@U?$_Tree_node@U?$pair@QAVWindow@CEGUI@@PAVSK_PopupWindow@@@std@@PAX@std@@@1@PAPAU?$_Tree_node@U?$pair@QAVWindow@CEGUI@@PAVSK_PopupWindow@@@std@@PAX@1@AAPAU31@@Z ; std::allocator_traits<std::allocator<std::_Tree_node<std::pair<CEGUI::Window * const,SK_PopupWindow *>,void *> > >::construct<std::_Tree_node<std::pair<CEGUI::Window * const,SK_PopupWindow *>,void *> *,std::_Tree_node<std::pair<CEGUI::Window * const,SK_PopupWindow *>,void *> * &>
PUBLIC	??$forward@AAPAU?$_Tree_node@U?$pair@QAVSK_PopupWindow@@PAVWindow@CEGUI@@@std@@PAX@std@@@std@@YAAAPAU?$_Tree_node@U?$pair@QAVSK_PopupWindow@@PAVWindow@CEGUI@@@std@@PAX@0@AAPAU10@@Z ; std::forward<std::_Tree_node<std::pair<SK_PopupWindow * const,CEGUI::Window *>,void *> * &>
PUBLIC	??$construct@PAU?$_Tree_node@U?$pair@QAVSK_PopupWindow@@PAVWindow@CEGUI@@@std@@PAX@std@@AAPAU12@@?$allocator_traits@V?$allocator@U?$_Tree_node@U?$pair@QAVSK_PopupWindow@@PAVWindow@CEGUI@@@std@@PAX@std@@@std@@@std@@SAXAAV?$allocator@U?$_Tree_node@U?$pair@QAVSK_PopupWindow@@PAVWindow@CEGUI@@@std@@PAX@std@@@1@PAPAU?$_Tree_node@U?$pair@QAVSK_PopupWindow@@PAVWindow@CEGUI@@@std@@PAX@1@AAPAU31@@Z ; std::allocator_traits<std::allocator<std::_Tree_node<std::pair<SK_PopupWindow * const,CEGUI::Window *>,void *> > >::construct<std::_Tree_node<std::pair<SK_PopupWindow * const,CEGUI::Window *>,void *> *,std::_Tree_node<std::pair<SK_PopupWindow * const,CEGUI::Window *>,void *> * &>
PUBLIC	??$_Kfn@QAVWindow@CEGUI@@PAVSK_PopupWindow@@@?$_Tmap_traits@PAVWindow@CEGUI@@PAVSK_PopupWindow@@U?$less@PAVWindow@CEGUI@@@std@@V?$allocator@U?$pair@QAVWindow@CEGUI@@PAVSK_PopupWindow@@@std@@@5@$0A@@std@@SAABQAVWindow@CEGUI@@ABU?$pair@QAVWindow@CEGUI@@PAVSK_PopupWindow@@@1@@Z ; std::_Tmap_traits<CEGUI::Window *,SK_PopupWindow *,std::less<CEGUI::Window *>,std::allocator<std::pair<CEGUI::Window * const,SK_PopupWindow *> >,0>::_Kfn<CEGUI::Window * const,SK_PopupWindow *>
PUBLIC	??$_Kfn@QAVSK_PopupWindow@@PAVWindow@CEGUI@@@?$_Tmap_traits@PAVSK_PopupWindow@@PAVWindow@CEGUI@@U?$less@PAVSK_PopupWindow@@@std@@V?$allocator@U?$pair@QAVSK_PopupWindow@@PAVWindow@CEGUI@@@std@@@5@$0A@@std@@SAABQAVSK_PopupWindow@@ABU?$pair@QAVSK_PopupWindow@@PAVWindow@CEGUI@@@1@@Z ; std::_Tmap_traits<SK_PopupWindow *,CEGUI::Window *,std::less<SK_PopupWindow *>,std::allocator<std::pair<SK_PopupWindow * const,CEGUI::Window *> >,0>::_Kfn<SK_PopupWindow * const,CEGUI::Window *>
PUBLIC	??$_Buynode@U?$pair@PAVSK_PopupWindow@@PAVWindow@CEGUI@@@std@@@?$_Tree_comp_alloc@V?$_Tmap_traits@PAVSK_PopupWindow@@PAVWindow@CEGUI@@U?$less@PAVSK_PopupWindow@@@std@@V?$allocator@U?$pair@QAVSK_PopupWindow@@PAVWindow@CEGUI@@@std@@@5@$0A@@std@@@std@@QAEPAU?$_Tree_node@U?$pair@QAVSK_PopupWindow@@PAVWindow@CEGUI@@@std@@PAX@1@$$QAU?$pair@PAVSK_PopupWindow@@PAVWindow@CEGUI@@@1@@Z ; std::_Tree_comp_alloc<std::_Tmap_traits<SK_PopupWindow *,CEGUI::Window *,std::less<SK_PopupWindow *>,std::allocator<std::pair<SK_PopupWindow * const,CEGUI::Window *> >,0> >::_Buynode<std::pair<SK_PopupWindow *,CEGUI::Window *> >
PUBLIC	??$_Insert_nohint@AAU?$pair@QAVSK_PopupWindow@@PAVWindow@CEGUI@@@std@@PAU?$_Tree_node@U?$pair@QAVSK_PopupWindow@@PAVWindow@CEGUI@@@std@@PAX@2@@?$_Tree@V?$_Tmap_traits@PAVSK_PopupWindow@@PAVWindow@CEGUI@@U?$less@PAVSK_PopupWindow@@@std@@V?$allocator@U?$pair@QAVSK_PopupWindow@@PAVWindow@CEGUI@@@std@@@5@$0A@@std@@@std@@IAE?AU?$pair@V?$_Tree_iterator@V?$_Tree_val@U?$_Tree_simple_types@U?$pair@QAVSK_PopupWindow@@PAVWindow@CEGUI@@@std@@@std@@@std@@@std@@_N@1@_NAAU?$pair@QAVSK_PopupWindow@@PAVWindow@CEGUI@@@1@PAU?$_Tree_node@U?$pair@QAVSK_PopupWindow@@PAVWindow@CEGUI@@@std@@PAX@1@@Z ; std::_Tree<std::_Tmap_traits<SK_PopupWindow *,CEGUI::Window *,std::less<SK_PopupWindow *>,std::allocator<std::pair<SK_PopupWindow * const,CEGUI::Window *> >,0> >::_Insert_nohint<std::pair<SK_PopupWindow * const,CEGUI::Window *> &,std::_Tree_node<std::pair<SK_PopupWindow * const,CEGUI::Window *>,void *> *>
PUBLIC	??$_Buynode@U?$pair@PAVWindow@CEGUI@@PAVSK_PopupWindow@@@std@@@?$_Tree_comp_alloc@V?$_Tmap_traits@PAVWindow@CEGUI@@PAVSK_PopupWindow@@U?$less@PAVWindow@CEGUI@@@std@@V?$allocator@U?$pair@QAVWindow@CEGUI@@PAVSK_PopupWindow@@@std@@@5@$0A@@std@@@std@@QAEPAU?$_Tree_node@U?$pair@QAVWindow@CEGUI@@PAVSK_PopupWindow@@@std@@PAX@1@$$QAU?$pair@PAVWindow@CEGUI@@PAVSK_PopupWindow@@@1@@Z ; std::_Tree_comp_alloc<std::_Tmap_traits<CEGUI::Window *,SK_PopupWindow *,std::less<CEGUI::Window *>,std::allocator<std::pair<CEGUI::Window * const,SK_PopupWindow *> >,0> >::_Buynode<std::pair<CEGUI::Window *,SK_PopupWindow *> >
PUBLIC	??$_Insert_nohint@AAU?$pair@QAVWindow@CEGUI@@PAVSK_PopupWindow@@@std@@PAU?$_Tree_node@U?$pair@QAVWindow@CEGUI@@PAVSK_PopupWindow@@@std@@PAX@2@@?$_Tree@V?$_Tmap_traits@PAVWindow@CEGUI@@PAVSK_PopupWindow@@U?$less@PAVWindow@CEGUI@@@std@@V?$allocator@U?$pair@QAVWindow@CEGUI@@PAVSK_PopupWindow@@@std@@@5@$0A@@std@@@std@@IAE?AU?$pair@V?$_Tree_iterator@V?$_Tree_val@U?$_Tree_simple_types@U?$pair@QAVWindow@CEGUI@@PAVSK_PopupWindow@@@std@@@std@@@std@@@std@@_N@1@_NAAU?$pair@QAVWindow@CEGUI@@PAVSK_PopupWindow@@@1@PAU?$_Tree_node@U?$pair@QAVWindow@CEGUI@@PAVSK_PopupWindow@@@std@@PAX@1@@Z ; std::_Tree<std::_Tmap_traits<CEGUI::Window *,SK_PopupWindow *,std::less<CEGUI::Window *>,std::allocator<std::pair<CEGUI::Window * const,SK_PopupWindow *> >,0> >::_Insert_nohint<std::pair<CEGUI::Window * const,SK_PopupWindow *> &,std::_Tree_node<std::pair<CEGUI::Window * const,SK_PopupWindow *>,void *> *>
PUBLIC	??$forward@ABQAVWindow@CEGUI@@@std@@YAABQAVWindow@CEGUI@@ABQAV12@@Z ; std::forward<CEGUI::Window * const &>
PUBLIC	??$forward_as_tuple@ABQAVWindow@CEGUI@@@std@@YA?AV?$tuple@ABQAVWindow@CEGUI@@@0@ABQAVWindow@CEGUI@@@Z ; std::forward_as_tuple<CEGUI::Window * const &>
PUBLIC	??0?$tuple@ABQAVWindow@CEGUI@@@std@@QAE@$$QAV01@@Z ; std::tuple<CEGUI::Window * const &>::tuple<CEGUI::Window * const &>
PUBLIC	??$forward_as_tuple@$$V@std@@YA?AV?$tuple@$$V@0@XZ ; std::forward_as_tuple<>
PUBLIC	??$emplace_hint@ABUpiecewise_construct_t@std@@V?$tuple@ABQAVWindow@CEGUI@@@2@V?$tuple@$$V@2@@?$_Tree@V?$_Tmap_traits@PAVWindow@CEGUI@@PAVSK_PopupWindow@@U?$less@PAVWindow@CEGUI@@@std@@V?$allocator@U?$pair@QAVWindow@CEGUI@@PAVSK_PopupWindow@@@std@@@5@$0A@@std@@@std@@QAE?AV?$_Tree_iterator@V?$_Tree_val@U?$_Tree_simple_types@U?$pair@QAVWindow@CEGUI@@PAVSK_PopupWindow@@@std@@@std@@@std@@@1@V?$_Tree_const_iterator@V?$_Tree_val@U?$_Tree_simple_types@U?$pair@QAVWindow@CEGUI@@PAVSK_PopupWindow@@@std@@@std@@@std@@@1@ABUpiecewise_construct_t@1@$$QAV?$tuple@ABQAVWindow@CEGUI@@@1@$$QAV?$tuple@$$V@1@@Z ; std::_Tree<std::_Tmap_traits<CEGUI::Window *,SK_PopupWindow *,std::less<CEGUI::Window *>,std::allocator<std::pair<CEGUI::Window * const,SK_PopupWindow *> >,0> >::emplace_hint<std::piecewise_construct_t const &,std::tuple<CEGUI::Window * const &>,std::tuple<> >
PUBLIC	??$?0V?$_Tree_iterator@V?$_Tree_val@U?$_Tree_simple_types@U?$pair@QAVWindow@CEGUI@@PAVSK_PopupWindow@@@std@@@std@@@std@@@std@@_NX$0A@@?$pair@V?$_Tree_iterator@V?$_Tree_val@U?$_Tree_simple_types@U?$pair@QAVWindow@CEGUI@@PAVSK_PopupWindow@@@std@@@std@@@std@@@std@@_N@std@@QAE@$$QAV?$_Tree_iterator@V?$_Tree_val@U?$_Tree_simple_types@U?$pair@QAVWindow@CEGUI@@PAVSK_PopupWindow@@@std@@@std@@@std@@@1@$$QA_N@Z ; std::pair<std::_Tree_iterator<std::_Tree_val<std::_Tree_simple_types<std::pair<CEGUI::Window * const,SK_PopupWindow *> > > >,bool>::pair<std::_Tree_iterator<std::_Tree_val<std::_Tree_simple_types<std::pair<CEGUI::Window * const,SK_PopupWindow *> > > >,bool><std::_Tree_iterator<std::_Tree_val<std::_Tree_simple_types<std::pair<CEGUI::Window * const,SK_PopupWindow *> > > >,bool,void,0>
PUBLIC	??$?0AAV?$_Tree_iterator@V?$_Tree_val@U?$_Tree_simple_types@U?$pair@QAVWindow@CEGUI@@PAVSK_PopupWindow@@@std@@@std@@@std@@@std@@_NX$0A@@?$pair@V?$_Tree_iterator@V?$_Tree_val@U?$_Tree_simple_types@U?$pair@QAVWindow@CEGUI@@PAVSK_PopupWindow@@@std@@@std@@@std@@@std@@_N@std@@QAE@AAV?$_Tree_iterator@V?$_Tree_val@U?$_Tree_simple_types@U?$pair@QAVWindow@CEGUI@@PAVSK_PopupWindow@@@std@@@std@@@std@@@1@$$QA_N@Z ; std::pair<std::_Tree_iterator<std::_Tree_val<std::_Tree_simple_types<std::pair<CEGUI::Window * const,SK_PopupWindow *> > > >,bool>::pair<std::_Tree_iterator<std::_Tree_val<std::_Tree_simple_types<std::pair<CEGUI::Window * const,SK_PopupWindow *> > > >,bool><std::_Tree_iterator<std::_Tree_val<std::_Tree_simple_types<std::pair<CEGUI::Window * const,SK_PopupWindow *> > > > &,bool,void,0>
PUBLIC	??$destroy@U?$pair@QAVWindow@CEGUI@@PAVSK_PopupWindow@@@std@@@?$allocator@U?$_Tree_node@U?$pair@QAVWindow@CEGUI@@PAVSK_PopupWindow@@@std@@PAX@std@@@std@@QAEXPAU?$pair@QAVWindow@CEGUI@@PAVSK_PopupWindow@@@1@@Z ; std::allocator<std::_Tree_node<std::pair<CEGUI::Window * const,SK_PopupWindow *>,void *> >::destroy<std::pair<CEGUI::Window * const,SK_PopupWindow *> >
PUBLIC	??$forward@AAV?$_Tree_iterator@V?$_Tree_val@U?$_Tree_simple_types@U?$pair@QAVWindow@CEGUI@@PAVSK_PopupWindow@@@std@@@std@@@std@@@std@@@std@@YAAAV?$_Tree_iterator@V?$_Tree_val@U?$_Tree_simple_types@U?$pair@QAVWindow@CEGUI@@PAVSK_PopupWindow@@@std@@@std@@@std@@@0@AAV10@@Z ; std::forward<std::_Tree_iterator<std::_Tree_val<std::_Tree_simple_types<std::pair<CEGUI::Window * const,SK_PopupWindow *> > > > &>
PUBLIC	??$forward@AAV?$_Tree_const_iterator@V?$_Tree_val@U?$_Tree_simple_types@U?$pair@QAVWindow@CEGUI@@PAVSK_PopupWindow@@@std@@@std@@@std@@@std@@@std@@YAAAV?$_Tree_const_iterator@V?$_Tree_val@U?$_Tree_simple_types@U?$pair@QAVWindow@CEGUI@@PAVSK_PopupWindow@@@std@@@std@@@std@@@0@AAV10@@Z ; std::forward<std::_Tree_const_iterator<std::_Tree_val<std::_Tree_simple_types<std::pair<CEGUI::Window * const,SK_PopupWindow *> > > > &>
PUBLIC	??$destroy@U?$pair@QAVSK_PopupWindow@@PAVWindow@CEGUI@@@std@@@?$allocator@U?$_Tree_node@U?$pair@QAVSK_PopupWindow@@PAVWindow@CEGUI@@@std@@PAX@std@@@std@@QAEXPAU?$pair@QAVSK_PopupWindow@@PAVWindow@CEGUI@@@1@@Z ; std::allocator<std::_Tree_node<std::pair<SK_PopupWindow * const,CEGUI::Window *>,void *> >::destroy<std::pair<SK_PopupWindow * const,CEGUI::Window *> >
PUBLIC	??$forward@AAV?$_Tree_iterator@V?$_Tree_val@U?$_Tree_simple_types@U?$pair@QAVSK_PopupWindow@@PAVWindow@CEGUI@@@std@@@std@@@std@@@std@@@std@@YAAAV?$_Tree_iterator@V?$_Tree_val@U?$_Tree_simple_types@U?$pair@QAVSK_PopupWindow@@PAVWindow@CEGUI@@@std@@@std@@@std@@@0@AAV10@@Z ; std::forward<std::_Tree_iterator<std::_Tree_val<std::_Tree_simple_types<std::pair<SK_PopupWindow * const,CEGUI::Window *> > > > &>
PUBLIC	??$forward@AAV?$_Tree_const_iterator@V?$_Tree_val@U?$_Tree_simple_types@U?$pair@QAVSK_PopupWindow@@PAVWindow@CEGUI@@@std@@@std@@@std@@@std@@@std@@YAAAV?$_Tree_const_iterator@V?$_Tree_val@U?$_Tree_simple_types@U?$pair@QAVSK_PopupWindow@@PAVWindow@CEGUI@@@std@@@std@@@std@@@0@AAV10@@Z ; std::forward<std::_Tree_const_iterator<std::_Tree_val<std::_Tree_simple_types<std::pair<SK_PopupWindow * const,CEGUI::Window *> > > > &>
PUBLIC	??$destroy@PAU?$_Tree_node@U?$pair@QAVWindow@CEGUI@@PAVSK_PopupWindow@@@std@@PAX@std@@@?$allocator@U?$_Tree_node@U?$pair@QAVWindow@CEGUI@@PAVSK_PopupWindow@@@std@@PAX@std@@@std@@QAEXPAPAU?$_Tree_node@U?$pair@QAVWindow@CEGUI@@PAVSK_PopupWindow@@@std@@PAX@1@@Z ; std::allocator<std::_Tree_node<std::pair<CEGUI::Window * const,SK_PopupWindow *>,void *> >::destroy<std::_Tree_node<std::pair<CEGUI::Window * const,SK_PopupWindow *>,void *> *>
PUBLIC	??$destroy@PAU?$_Tree_node@U?$pair@QAVSK_PopupWindow@@PAVWindow@CEGUI@@@std@@PAX@std@@@?$allocator@U?$_Tree_node@U?$pair@QAVSK_PopupWindow@@PAVWindow@CEGUI@@@std@@PAX@std@@@std@@QAEXPAPAU?$_Tree_node@U?$pair@QAVSK_PopupWindow@@PAVWindow@CEGUI@@@std@@PAX@1@@Z ; std::allocator<std::_Tree_node<std::pair<SK_PopupWindow * const,CEGUI::Window *>,void *> >::destroy<std::_Tree_node<std::pair<SK_PopupWindow * const,CEGUI::Window *>,void *> *>
PUBLIC	??$construct@PAU?$_Tree_node@U?$pair@QAVWindow@CEGUI@@PAVSK_PopupWindow@@@std@@PAX@std@@AAPAU12@@?$allocator@U?$_Tree_node@U?$pair@QAVWindow@CEGUI@@PAVSK_PopupWindow@@@std@@PAX@std@@@std@@QAEXPAPAU?$_Tree_node@U?$pair@QAVWindow@CEGUI@@PAVSK_PopupWindow@@@std@@PAX@1@AAPAU21@@Z ; std::allocator<std::_Tree_node<std::pair<CEGUI::Window * const,SK_PopupWindow *>,void *> >::construct<std::_Tree_node<std::pair<CEGUI::Window * const,SK_PopupWindow *>,void *> *,std::_Tree_node<std::pair<CEGUI::Window * const,SK_PopupWindow *>,void *> * &>
PUBLIC	??$construct@PAU?$_Tree_node@U?$pair@QAVSK_PopupWindow@@PAVWindow@CEGUI@@@std@@PAX@std@@AAPAU12@@?$allocator@U?$_Tree_node@U?$pair@QAVSK_PopupWindow@@PAVWindow@CEGUI@@@std@@PAX@std@@@std@@QAEXPAPAU?$_Tree_node@U?$pair@QAVSK_PopupWindow@@PAVWindow@CEGUI@@@std@@PAX@1@AAPAU21@@Z ; std::allocator<std::_Tree_node<std::pair<SK_PopupWindow * const,CEGUI::Window *>,void *> >::construct<std::_Tree_node<std::pair<SK_PopupWindow * const,CEGUI::Window *>,void *> *,std::_Tree_node<std::pair<SK_PopupWindow * const,CEGUI::Window *>,void *> * &>
PUBLIC	??$_Lbound@PAVWindow@CEGUI@@@?$_Tree@V?$_Tmap_traits@PAVWindow@CEGUI@@PAVSK_PopupWindow@@U?$less@PAVWindow@CEGUI@@@std@@V?$allocator@U?$pair@QAVWindow@CEGUI@@PAVSK_PopupWindow@@@std@@@5@$0A@@std@@@std@@IBEPAU?$_Tree_node@U?$pair@QAVWindow@CEGUI@@PAVSK_PopupWindow@@@std@@PAX@1@ABQAVWindow@CEGUI@@@Z ; std::_Tree<std::_Tmap_traits<CEGUI::Window *,SK_PopupWindow *,std::less<CEGUI::Window *>,std::allocator<std::pair<CEGUI::Window * const,SK_PopupWindow *> >,0> >::_Lbound<CEGUI::Window *>
PUBLIC	??$construct@U?$pair@QAVSK_PopupWindow@@PAVWindow@CEGUI@@@std@@U?$pair@PAVSK_PopupWindow@@PAVWindow@CEGUI@@@2@@?$_Wrap_alloc@V?$allocator@U?$_Tree_node@U?$pair@QAVSK_PopupWindow@@PAVWindow@CEGUI@@@std@@PAX@std@@@std@@@std@@QAEXPAU?$pair@QAVSK_PopupWindow@@PAVWindow@CEGUI@@@1@$$QAU?$pair@PAVSK_PopupWindow@@PAVWindow@CEGUI@@@1@@Z ; std::_Wrap_alloc<std::allocator<std::_Tree_node<std::pair<SK_PopupWindow * const,CEGUI::Window *>,void *> > >::construct<std::pair<SK_PopupWindow * const,CEGUI::Window *>,std::pair<SK_PopupWindow *,CEGUI::Window *> >
PUBLIC	??$forward@AAU?$pair@QAVSK_PopupWindow@@PAVWindow@CEGUI@@@std@@@std@@YAAAU?$pair@QAVSK_PopupWindow@@PAVWindow@CEGUI@@@0@AAU10@@Z ; std::forward<std::pair<SK_PopupWindow * const,CEGUI::Window *> &>
PUBLIC	??$_Insert_at@AAU?$pair@QAVSK_PopupWindow@@PAVWindow@CEGUI@@@std@@PAU?$_Tree_node@U?$pair@QAVSK_PopupWindow@@PAVWindow@CEGUI@@@std@@PAX@2@@?$_Tree@V?$_Tmap_traits@PAVSK_PopupWindow@@PAVWindow@CEGUI@@U?$less@PAVSK_PopupWindow@@@std@@V?$allocator@U?$pair@QAVSK_PopupWindow@@PAVWindow@CEGUI@@@std@@@5@$0A@@std@@@std@@IAE?AV?$_Tree_iterator@V?$_Tree_val@U?$_Tree_simple_types@U?$pair@QAVSK_PopupWindow@@PAVWindow@CEGUI@@@std@@@std@@@std@@@1@_NPAU?$_Tree_node@U?$pair@QAVSK_PopupWindow@@PAVWindow@CEGUI@@@std@@PAX@1@AAU?$pair@QAVSK_PopupWindow@@PAVWindow@CEGUI@@@1@1@Z ; std::_Tree<std::_Tmap_traits<SK_PopupWindow *,CEGUI::Window *,std::less<SK_PopupWindow *>,std::allocator<std::pair<SK_PopupWindow * const,CEGUI::Window *> >,0> >::_Insert_at<std::pair<SK_PopupWindow * const,CEGUI::Window *> &,std::_Tree_node<std::pair<SK_PopupWindow * const,CEGUI::Window *>,void *> *>
PUBLIC	??$?0V?$_Tree_iterator@V?$_Tree_val@U?$_Tree_simple_types@U?$pair@QAVSK_PopupWindow@@PAVWindow@CEGUI@@@std@@@std@@@std@@@std@@_NX$0A@@?$pair@V?$_Tree_iterator@V?$_Tree_val@U?$_Tree_simple_types@U?$pair@QAVSK_PopupWindow@@PAVWindow@CEGUI@@@std@@@std@@@std@@@std@@_N@std@@QAE@$$QAV?$_Tree_iterator@V?$_Tree_val@U?$_Tree_simple_types@U?$pair@QAVSK_PopupWindow@@PAVWindow@CEGUI@@@std@@@std@@@std@@@1@$$QA_N@Z ; std::pair<std::_Tree_iterator<std::_Tree_val<std::_Tree_simple_types<std::pair<SK_PopupWindow * const,CEGUI::Window *> > > >,bool>::pair<std::_Tree_iterator<std::_Tree_val<std::_Tree_simple_types<std::pair<SK_PopupWindow * const,CEGUI::Window *> > > >,bool><std::_Tree_iterator<std::_Tree_val<std::_Tree_simple_types<std::pair<SK_PopupWindow * const,CEGUI::Window *> > > >,bool,void,0>
PUBLIC	??$?0AAV?$_Tree_iterator@V?$_Tree_val@U?$_Tree_simple_types@U?$pair@QAVSK_PopupWindow@@PAVWindow@CEGUI@@@std@@@std@@@std@@@std@@_NX$0A@@?$pair@V?$_Tree_iterator@V?$_Tree_val@U?$_Tree_simple_types@U?$pair@QAVSK_PopupWindow@@PAVWindow@CEGUI@@@std@@@std@@@std@@@std@@_N@std@@QAE@AAV?$_Tree_iterator@V?$_Tree_val@U?$_Tree_simple_types@U?$pair@QAVSK_PopupWindow@@PAVWindow@CEGUI@@@std@@@std@@@std@@@1@$$QA_N@Z ; std::pair<std::_Tree_iterator<std::_Tree_val<std::_Tree_simple_types<std::pair<SK_PopupWindow * const,CEGUI::Window *> > > >,bool>::pair<std::_Tree_iterator<std::_Tree_val<std::_Tree_simple_types<std::pair<SK_PopupWindow * const,CEGUI::Window *> > > >,bool><std::_Tree_iterator<std::_Tree_val<std::_Tree_simple_types<std::pair<SK_PopupWindow * const,CEGUI::Window *> > > > &,bool,void,0>
PUBLIC	??$construct@U?$pair@QAVWindow@CEGUI@@PAVSK_PopupWindow@@@std@@U?$pair@PAVWindow@CEGUI@@PAVSK_PopupWindow@@@2@@?$_Wrap_alloc@V?$allocator@U?$_Tree_node@U?$pair@QAVWindow@CEGUI@@PAVSK_PopupWindow@@@std@@PAX@std@@@std@@@std@@QAEXPAU?$pair@QAVWindow@CEGUI@@PAVSK_PopupWindow@@@1@$$QAU?$pair@PAVWindow@CEGUI@@PAVSK_PopupWindow@@@1@@Z ; std::_Wrap_alloc<std::allocator<std::_Tree_node<std::pair<CEGUI::Window * const,SK_PopupWindow *>,void *> > >::construct<std::pair<CEGUI::Window * const,SK_PopupWindow *>,std::pair<CEGUI::Window *,SK_PopupWindow *> >
PUBLIC	??$forward@AAU?$pair@QAVWindow@CEGUI@@PAVSK_PopupWindow@@@std@@@std@@YAAAU?$pair@QAVWindow@CEGUI@@PAVSK_PopupWindow@@@0@AAU10@@Z ; std::forward<std::pair<CEGUI::Window * const,SK_PopupWindow *> &>
PUBLIC	??$_Insert_at@AAU?$pair@QAVWindow@CEGUI@@PAVSK_PopupWindow@@@std@@PAU?$_Tree_node@U?$pair@QAVWindow@CEGUI@@PAVSK_PopupWindow@@@std@@PAX@2@@?$_Tree@V?$_Tmap_traits@PAVWindow@CEGUI@@PAVSK_PopupWindow@@U?$less@PAVWindow@CEGUI@@@std@@V?$allocator@U?$pair@QAVWindow@CEGUI@@PAVSK_PopupWindow@@@std@@@5@$0A@@std@@@std@@IAE?AV?$_Tree_iterator@V?$_Tree_val@U?$_Tree_simple_types@U?$pair@QAVWindow@CEGUI@@PAVSK_PopupWindow@@@std@@@std@@@std@@@1@_NPAU?$_Tree_node@U?$pair@QAVWindow@CEGUI@@PAVSK_PopupWindow@@@std@@PAX@1@AAU?$pair@QAVWindow@CEGUI@@PAVSK_PopupWindow@@@1@1@Z ; std::_Tree<std::_Tmap_traits<CEGUI::Window *,SK_PopupWindow *,std::less<CEGUI::Window *>,std::allocator<std::pair<CEGUI::Window * const,SK_PopupWindow *> >,0> >::_Insert_at<std::pair<CEGUI::Window * const,SK_PopupWindow *> &,std::_Tree_node<std::pair<CEGUI::Window * const,SK_PopupWindow *>,void *> *>
PUBLIC	??$?0ABQAVWindow@CEGUI@@$0A@@?$tuple@ABQAVWindow@CEGUI@@@std@@QAE@ABQAVWindow@CEGUI@@@Z ; std::tuple<CEGUI::Window * const &>::tuple<CEGUI::Window * const &><CEGUI::Window * const &,0>
PUBLIC	??$forward@ABUpiecewise_construct_t@std@@@std@@YAABUpiecewise_construct_t@0@ABU10@@Z ; std::forward<std::piecewise_construct_t const &>
PUBLIC	??$forward@V?$tuple@ABQAVWindow@CEGUI@@@std@@@std@@YA$$QAV?$tuple@ABQAVWindow@CEGUI@@@0@AAV10@@Z ; std::forward<std::tuple<CEGUI::Window * const &> >
PUBLIC	??$forward@V?$tuple@$$V@std@@@std@@YA$$QAV?$tuple@$$V@0@AAV10@@Z ; std::forward<std::tuple<> >
PUBLIC	??$_Buynode@ABUpiecewise_construct_t@std@@V?$tuple@ABQAVWindow@CEGUI@@@2@V?$tuple@$$V@2@@?$_Tree_comp_alloc@V?$_Tmap_traits@PAVWindow@CEGUI@@PAVSK_PopupWindow@@U?$less@PAVWindow@CEGUI@@@std@@V?$allocator@U?$pair@QAVWindow@CEGUI@@PAVSK_PopupWindow@@@std@@@5@$0A@@std@@@std@@QAEPAU?$_Tree_node@U?$pair@QAVWindow@CEGUI@@PAVSK_PopupWindow@@@std@@PAX@1@ABUpiecewise_construct_t@1@$$QAV?$tuple@ABQAVWindow@CEGUI@@@1@$$QAV?$tuple@$$V@1@@Z ; std::_Tree_comp_alloc<std::_Tmap_traits<CEGUI::Window *,SK_PopupWindow *,std::less<CEGUI::Window *>,std::allocator<std::pair<CEGUI::Window * const,SK_PopupWindow *> >,0> >::_Buynode<std::piecewise_construct_t const &,std::tuple<CEGUI::Window * const &>,std::tuple<> >
PUBLIC	??$_Insert_hint@AAU?$pair@QAVWindow@CEGUI@@PAVSK_PopupWindow@@@std@@PAU?$_Tree_node@U?$pair@QAVWindow@CEGUI@@PAVSK_PopupWindow@@@std@@PAX@2@@?$_Tree@V?$_Tmap_traits@PAVWindow@CEGUI@@PAVSK_PopupWindow@@U?$less@PAVWindow@CEGUI@@@std@@V?$allocator@U?$pair@QAVWindow@CEGUI@@PAVSK_PopupWindow@@@std@@@5@$0A@@std@@@std@@IAE?AV?$_Tree_iterator@V?$_Tree_val@U?$_Tree_simple_types@U?$pair@QAVWindow@CEGUI@@PAVSK_PopupWindow@@@std@@@std@@@std@@@1@V?$_Tree_const_iterator@V?$_Tree_val@U?$_Tree_simple_types@U?$pair@QAVWindow@CEGUI@@PAVSK_PopupWindow@@@std@@@std@@@std@@@1@AAU?$pair@QAVWindow@CEGUI@@PAVSK_PopupWindow@@@1@PAU?$_Tree_node@U?$pair@QAVWindow@CEGUI@@PAVSK_PopupWindow@@@std@@PAX@1@@Z ; std::_Tree<std::_Tmap_traits<CEGUI::Window *,SK_PopupWindow *,std::less<CEGUI::Window *>,std::allocator<std::pair<CEGUI::Window * const,SK_PopupWindow *> >,0> >::_Insert_hint<std::pair<CEGUI::Window * const,SK_PopupWindow *> &,std::_Tree_node<std::pair<CEGUI::Window * const,SK_PopupWindow *>,void *> *>
PUBLIC	??$forward@V?$_Tree_iterator@V?$_Tree_val@U?$_Tree_simple_types@U?$pair@QAVWindow@CEGUI@@PAVSK_PopupWindow@@@std@@@std@@@std@@@std@@@std@@YA$$QAV?$_Tree_iterator@V?$_Tree_val@U?$_Tree_simple_types@U?$pair@QAVWindow@CEGUI@@PAVSK_PopupWindow@@@std@@@std@@@std@@@0@AAV10@@Z ; std::forward<std::_Tree_iterator<std::_Tree_val<std::_Tree_simple_types<std::pair<CEGUI::Window * const,SK_PopupWindow *> > > > >
PUBLIC	??$forward@_N@std@@YA$$QA_NAA_N@Z		; std::forward<bool>
PUBLIC	??$construct@U?$pair@QAVSK_PopupWindow@@PAVWindow@CEGUI@@@std@@U?$pair@PAVSK_PopupWindow@@PAVWindow@CEGUI@@@2@@?$allocator_traits@V?$allocator@U?$_Tree_node@U?$pair@QAVSK_PopupWindow@@PAVWindow@CEGUI@@@std@@PAX@std@@@std@@@std@@SAXAAV?$allocator@U?$_Tree_node@U?$pair@QAVSK_PopupWindow@@PAVWindow@CEGUI@@@std@@PAX@std@@@1@PAU?$pair@QAVSK_PopupWindow@@PAVWindow@CEGUI@@@1@$$QAU?$pair@PAVSK_PopupWindow@@PAVWindow@CEGUI@@@1@@Z ; std::allocator_traits<std::allocator<std::_Tree_node<std::pair<SK_PopupWindow * const,CEGUI::Window *>,void *> > >::construct<std::pair<SK_PopupWindow * const,CEGUI::Window *>,std::pair<SK_PopupWindow *,CEGUI::Window *> >
PUBLIC	??$_Buynode_if_nil@AAU?$pair@QAVSK_PopupWindow@@PAVWindow@CEGUI@@@std@@@?$_Tree@V?$_Tmap_traits@PAVSK_PopupWindow@@PAVWindow@CEGUI@@U?$less@PAVSK_PopupWindow@@@std@@V?$allocator@U?$pair@QAVSK_PopupWindow@@PAVWindow@CEGUI@@@std@@@5@$0A@@std@@@std@@IAEPAU?$_Tree_node@U?$pair@QAVSK_PopupWindow@@PAVWindow@CEGUI@@@std@@PAX@1@PAU21@AAU?$pair@QAVSK_PopupWindow@@PAVWindow@CEGUI@@@1@@Z ; std::_Tree<std::_Tmap_traits<SK_PopupWindow *,CEGUI::Window *,std::less<SK_PopupWindow *>,std::allocator<std::pair<SK_PopupWindow * const,CEGUI::Window *> >,0> >::_Buynode_if_nil<std::pair<SK_PopupWindow * const,CEGUI::Window *> &>
PUBLIC	??$forward@V?$_Tree_iterator@V?$_Tree_val@U?$_Tree_simple_types@U?$pair@QAVSK_PopupWindow@@PAVWindow@CEGUI@@@std@@@std@@@std@@@std@@@std@@YA$$QAV?$_Tree_iterator@V?$_Tree_val@U?$_Tree_simple_types@U?$pair@QAVSK_PopupWindow@@PAVWindow@CEGUI@@@std@@@std@@@std@@@0@AAV10@@Z ; std::forward<std::_Tree_iterator<std::_Tree_val<std::_Tree_simple_types<std::pair<SK_PopupWindow * const,CEGUI::Window *> > > > >
PUBLIC	??$construct@U?$pair@QAVWindow@CEGUI@@PAVSK_PopupWindow@@@std@@U?$pair@PAVWindow@CEGUI@@PAVSK_PopupWindow@@@2@@?$allocator_traits@V?$allocator@U?$_Tree_node@U?$pair@QAVWindow@CEGUI@@PAVSK_PopupWindow@@@std@@PAX@std@@@std@@@std@@SAXAAV?$allocator@U?$_Tree_node@U?$pair@QAVWindow@CEGUI@@PAVSK_PopupWindow@@@std@@PAX@std@@@1@PAU?$pair@QAVWindow@CEGUI@@PAVSK_PopupWindow@@@1@$$QAU?$pair@PAVWindow@CEGUI@@PAVSK_PopupWindow@@@1@@Z ; std::allocator_traits<std::allocator<std::_Tree_node<std::pair<CEGUI::Window * const,SK_PopupWindow *>,void *> > >::construct<std::pair<CEGUI::Window * const,SK_PopupWindow *>,std::pair<CEGUI::Window *,SK_PopupWindow *> >
PUBLIC	??$_Buynode_if_nil@AAU?$pair@QAVWindow@CEGUI@@PAVSK_PopupWindow@@@std@@@?$_Tree@V?$_Tmap_traits@PAVWindow@CEGUI@@PAVSK_PopupWindow@@U?$less@PAVWindow@CEGUI@@@std@@V?$allocator@U?$pair@QAVWindow@CEGUI@@PAVSK_PopupWindow@@@std@@@5@$0A@@std@@@std@@IAEPAU?$_Tree_node@U?$pair@QAVWindow@CEGUI@@PAVSK_PopupWindow@@@std@@PAX@1@PAU21@AAU?$pair@QAVWindow@CEGUI@@PAVSK_PopupWindow@@@1@@Z ; std::_Tree<std::_Tmap_traits<CEGUI::Window *,SK_PopupWindow *,std::less<CEGUI::Window *>,std::allocator<std::pair<CEGUI::Window * const,SK_PopupWindow *> >,0> >::_Buynode_if_nil<std::pair<CEGUI::Window * const,SK_PopupWindow *> &>
PUBLIC	??$?0U_Exact_args_t@std@@ABQAVWindow@CEGUI@@$$V$0A@@?$tuple@ABQAVWindow@CEGUI@@@std@@QAE@U_Exact_args_t@1@ABQAVWindow@CEGUI@@@Z ; std::tuple<CEGUI::Window * const &>::tuple<CEGUI::Window * const &><std::_Exact_args_t,CEGUI::Window * const &,0>
PUBLIC	??$construct@U?$pair@QAVWindow@CEGUI@@PAVSK_PopupWindow@@@std@@ABUpiecewise_construct_t@2@V?$tuple@ABQAVWindow@CEGUI@@@2@V?$tuple@$$V@2@@?$_Wrap_alloc@V?$allocator@U?$_Tree_node@U?$pair@QAVWindow@CEGUI@@PAVSK_PopupWindow@@@std@@PAX@std@@@std@@@std@@QAEXPAU?$pair@QAVWindow@CEGUI@@PAVSK_PopupWindow@@@1@ABUpiecewise_construct_t@1@$$QAV?$tuple@ABQAVWindow@CEGUI@@@1@$$QAV?$tuple@$$V@1@@Z ; std::_Wrap_alloc<std::allocator<std::_Tree_node<std::pair<CEGUI::Window * const,SK_PopupWindow *>,void *> > >::construct<std::pair<CEGUI::Window * const,SK_PopupWindow *>,std::piecewise_construct_t const &,std::tuple<CEGUI::Window * const &>,std::tuple<> >
PUBLIC	??$construct@U?$pair@QAVSK_PopupWindow@@PAVWindow@CEGUI@@@std@@U?$pair@PAVSK_PopupWindow@@PAVWindow@CEGUI@@@2@@?$allocator@U?$_Tree_node@U?$pair@QAVSK_PopupWindow@@PAVWindow@CEGUI@@@std@@PAX@std@@@std@@QAEXPAU?$pair@QAVSK_PopupWindow@@PAVWindow@CEGUI@@@1@$$QAU?$pair@PAVSK_PopupWindow@@PAVWindow@CEGUI@@@1@@Z ; std::allocator<std::_Tree_node<std::pair<SK_PopupWindow * const,CEGUI::Window *>,void *> >::construct<std::pair<SK_PopupWindow * const,CEGUI::Window *>,std::pair<SK_PopupWindow *,CEGUI::Window *> >
PUBLIC	??$construct@U?$pair@QAVWindow@CEGUI@@PAVSK_PopupWindow@@@std@@U?$pair@PAVWindow@CEGUI@@PAVSK_PopupWindow@@@2@@?$allocator@U?$_Tree_node@U?$pair@QAVWindow@CEGUI@@PAVSK_PopupWindow@@@std@@PAX@std@@@std@@QAEXPAU?$pair@QAVWindow@CEGUI@@PAVSK_PopupWindow@@@1@$$QAU?$pair@PAVWindow@CEGUI@@PAVSK_PopupWindow@@@1@@Z ; std::allocator<std::_Tree_node<std::pair<CEGUI::Window * const,SK_PopupWindow *>,void *> >::construct<std::pair<CEGUI::Window * const,SK_PopupWindow *>,std::pair<CEGUI::Window *,SK_PopupWindow *> >
PUBLIC	??$?0U_Exact_args_t@std@@$0A@@?$tuple@$$V@std@@QAE@U_Exact_args_t@1@@Z ; std::tuple<>::tuple<><std::_Exact_args_t,0>
PUBLIC	??$?0ABQAVWindow@CEGUI@@@?$_Tuple_val@ABQAVWindow@CEGUI@@@std@@QAE@ABQAVWindow@CEGUI@@@Z ; std::_Tuple_val<CEGUI::Window * const &>::_Tuple_val<CEGUI::Window * const &><CEGUI::Window * const &>
PUBLIC	??$construct@U?$pair@QAVWindow@CEGUI@@PAVSK_PopupWindow@@@std@@ABUpiecewise_construct_t@2@V?$tuple@ABQAVWindow@CEGUI@@@2@V?$tuple@$$V@2@@?$allocator_traits@V?$allocator@U?$_Tree_node@U?$pair@QAVWindow@CEGUI@@PAVSK_PopupWindow@@@std@@PAX@std@@@std@@@std@@SAXAAV?$allocator@U?$_Tree_node@U?$pair@QAVWindow@CEGUI@@PAVSK_PopupWindow@@@std@@PAX@std@@@1@PAU?$pair@QAVWindow@CEGUI@@PAVSK_PopupWindow@@@1@ABUpiecewise_construct_t@1@$$QAV?$tuple@ABQAVWindow@CEGUI@@@1@$$QAV?$tuple@$$V@1@@Z ; std::allocator_traits<std::allocator<std::_Tree_node<std::pair<CEGUI::Window * const,SK_PopupWindow *>,void *> > >::construct<std::pair<CEGUI::Window * const,SK_PopupWindow *>,std::piecewise_construct_t const &,std::tuple<CEGUI::Window * const &>,std::tuple<> >
PUBLIC	??$construct@U?$pair@QAVWindow@CEGUI@@PAVSK_PopupWindow@@@std@@ABUpiecewise_construct_t@2@V?$tuple@ABQAVWindow@CEGUI@@@2@V?$tuple@$$V@2@@?$allocator@U?$_Tree_node@U?$pair@QAVWindow@CEGUI@@PAVSK_PopupWindow@@@std@@PAX@std@@@std@@QAEXPAU?$pair@QAVWindow@CEGUI@@PAVSK_PopupWindow@@@1@ABUpiecewise_construct_t@1@$$QAV?$tuple@ABQAVWindow@CEGUI@@@1@$$QAV?$tuple@$$V@1@@Z ; std::allocator<std::_Tree_node<std::pair<CEGUI::Window * const,SK_PopupWindow *>,void *> >::construct<std::pair<CEGUI::Window * const,SK_PopupWindow *>,std::piecewise_construct_t const &,std::tuple<CEGUI::Window * const &>,std::tuple<> >
PUBLIC	??$forward@PAVSK_PopupWindow@@@std@@YA$$QAPAVSK_PopupWindow@@AAPAV1@@Z ; std::forward<SK_PopupWindow *>
PUBLIC	??$forward@PAVWindow@CEGUI@@@std@@YA$$QAPAVWindow@CEGUI@@AAPAV12@@Z ; std::forward<CEGUI::Window *>
PUBLIC	??$?0ABQAVWindow@CEGUI@@$$Z$$V@?$pair@QAVWindow@CEGUI@@PAVSK_PopupWindow@@@std@@QAE@Upiecewise_construct_t@1@V?$tuple@ABQAVWindow@CEGUI@@@1@V?$tuple@$$V@1@@Z ; std::pair<CEGUI::Window * const,SK_PopupWindow *>::pair<CEGUI::Window * const,SK_PopupWindow *><CEGUI::Window * const &>
PUBLIC	??$?0V?$tuple@ABQAVWindow@CEGUI@@@std@@V?$tuple@$$V@1@$0A@$$Z$S@?$pair@QAVWindow@CEGUI@@PAVSK_PopupWindow@@@std@@QAE@AAV?$tuple@ABQAVWindow@CEGUI@@@1@AAV?$tuple@$$V@1@U?$integer_sequence@I$0A@@1@U?$integer_sequence@I$S@1@@Z ; std::pair<CEGUI::Window * const,SK_PopupWindow *>::pair<CEGUI::Window * const,SK_PopupWindow *><std::tuple<CEGUI::Window * const &>,std::tuple<>,0>
PUBLIC	??$move@AAV?$tuple@ABQAVWindow@CEGUI@@@std@@@std@@YA$$QAV?$tuple@ABQAVWindow@CEGUI@@@0@AAV10@@Z ; std::move<std::tuple<CEGUI::Window * const &> &>
PUBLIC	??$get@$0A@ABQAVWindow@CEGUI@@@std@@YAABQAVWindow@CEGUI@@$$QAV?$tuple@ABQAVWindow@CEGUI@@@0@@Z ; std::get<0,CEGUI::Window * const &>
PUBLIC	??_C@_00CNPNBAHC@?$AA@				; `string'
PUBLIC	??_7SlotFunctorBase@CEGUI@@6B@			; CEGUI::SlotFunctorBase::`vftable'
PUBLIC	??_7?$MemberFunctionSlot@VSK_PopupManager@@@CEGUI@@6B@ ; CEGUI::MemberFunctionSlot<SK_PopupManager>::`vftable'
PUBLIC	??_C@_0BE@JONHPENG@map?1set?$DMT?$DO?5too?5long?$AA@ ; `string'
PUBLIC	??_R4SlotFunctorBase@CEGUI@@6B@			; CEGUI::SlotFunctorBase::`RTTI Complete Object Locator'
PUBLIC	??_R0?AVSlotFunctorBase@CEGUI@@@8		; CEGUI::SlotFunctorBase `RTTI Type Descriptor'
PUBLIC	??_R3SlotFunctorBase@CEGUI@@8			; CEGUI::SlotFunctorBase::`RTTI Class Hierarchy Descriptor'
PUBLIC	??_R2SlotFunctorBase@CEGUI@@8			; CEGUI::SlotFunctorBase::`RTTI Base Class Array'
PUBLIC	??_R1A@?0A@EA@SlotFunctorBase@CEGUI@@8		; CEGUI::SlotFunctorBase::`RTTI Base Class Descriptor at (0,-1,0,64)'
PUBLIC	??_R4?$MemberFunctionSlot@VSK_PopupManager@@@CEGUI@@6B@ ; CEGUI::MemberFunctionSlot<SK_PopupManager>::`RTTI Complete Object Locator'
PUBLIC	??_R0?AV?$MemberFunctionSlot@VSK_PopupManager@@@CEGUI@@@8 ; CEGUI::MemberFunctionSlot<SK_PopupManager> `RTTI Type Descriptor'
PUBLIC	??_R3?$MemberFunctionSlot@VSK_PopupManager@@@CEGUI@@8 ; CEGUI::MemberFunctionSlot<SK_PopupManager>::`RTTI Class Hierarchy Descriptor'
PUBLIC	??_R2?$MemberFunctionSlot@VSK_PopupManager@@@CEGUI@@8 ; CEGUI::MemberFunctionSlot<SK_PopupManager>::`RTTI Base Class Array'
PUBLIC	??_R1A@?0A@EA@?$MemberFunctionSlot@VSK_PopupManager@@@CEGUI@@8 ; CEGUI::MemberFunctionSlot<SK_PopupManager>::`RTTI Base Class Descriptor at (0,-1,0,64)'
EXTRN	__purecall:PROC
EXTRN	??2@YAPAXI@Z:PROC				; operator new
EXTRN	??3@YAXPAX@Z:PROC				; operator delete
EXTRN	??3@YAXPAXI@Z:PROC				; operator delete
EXTRN	___std_terminate:PROC
EXTRN	__imp___invalid_parameter_noinfo_noreturn:PROC
EXTRN	__imp_?_Xbad_alloc@std@@YAXXZ:PROC
EXTRN	__imp_?_Xlength_error@std@@YAXPBD@Z:PROC
EXTRN	__imp_??1String@CEGUI@@QAE@XZ:PROC
EXTRN	__imp_?assign@String@CEGUI@@QAEAAV12@PBDI@Z:PROC
EXTRN	__imp_?init@String@CEGUI@@AAEXXZ:PROC
EXTRN	??_ESlotFunctorBase@CEGUI@@UAEPAXI@Z:PROC	; CEGUI::SlotFunctorBase::`vector deleting destructor'
EXTRN	__imp_??1SubscriberSlot@CEGUI@@QAE@XZ:PROC
EXTRN	__imp_??1BoundSlot@CEGUI@@QAE@XZ:PROC
EXTRN	__imp_?getDllSingleton@?$Singleton@VSystem@CEGUI@@@CEGUI@@SAAAVSystem@2@XZ:PROC
EXTRN	__imp_?getDefaultGUIContext@System@CEGUI@@QBEAAVGUIContext@2@XZ:PROC
EXTRN	__imp_?destroyGUIContext@System@CEGUI@@QAEXAAVGUIContext@2@@Z:PROC
EXTRN	__imp_?getChildElement@NamedElement@CEGUI@@QBEPAV12@ABVString@2@@Z:PROC
EXTRN	__imp_?getDllSingleton@?$Singleton@VWindowManager@CEGUI@@@CEGUI@@SAAAVWindowManager@2@XZ:PROC
EXTRN	__imp_?destroyWindow@WindowManager@CEGUI@@QAEXPAVWindow@2@@Z:PROC
EXTRN	__imp_?loadLayoutFromFile@WindowManager@CEGUI@@QAEPAVWindow@2@ABVString@2@0P6A_NPAV32@AAV42@2PAX@Z3@Z:PROC
EXTRN	??_E?$MemberFunctionSlot@VSK_PopupManager@@@CEGUI@@UAEPAXI@Z:PROC ; CEGUI::MemberFunctionSlot<SK_PopupManager>::`vector deleting destructor'
EXTRN	__CxxThrowException@8:PROC
EXTRN	___CxxFrameHandler3:PROC
EXTRN	??_7type_info@@6B@:QWORD			; type_info::`vftable'
;	COMDAT ??_R1A@?0A@EA@?$MemberFunctionSlot@VSK_PopupManager@@@CEGUI@@8
rdata$r	SEGMENT
??_R1A@?0A@EA@?$MemberFunctionSlot@VSK_PopupManager@@@CEGUI@@8 DD FLAT:??_R0?AV?$MemberFunctionSlot@VSK_PopupManager@@@CEGUI@@@8 ; CEGUI::MemberFunctionSlot<SK_PopupManager>::`RTTI Base Class Descriptor at (0,-1,0,64)'
	DD	01H
	DD	00H
	DD	0ffffffffH
	DD	00H
	DD	040H
	DD	FLAT:??_R3?$MemberFunctionSlot@VSK_PopupManager@@@CEGUI@@8
rdata$r	ENDS
;	COMDAT ??_R2?$MemberFunctionSlot@VSK_PopupManager@@@CEGUI@@8
rdata$r	SEGMENT
??_R2?$MemberFunctionSlot@VSK_PopupManager@@@CEGUI@@8 DD FLAT:??_R1A@?0A@EA@?$MemberFunctionSlot@VSK_PopupManager@@@CEGUI@@8 ; CEGUI::MemberFunctionSlot<SK_PopupManager>::`RTTI Base Class Array'
	DD	FLAT:??_R1A@?0A@EA@SlotFunctorBase@CEGUI@@8
rdata$r	ENDS
;	COMDAT ??_R3?$MemberFunctionSlot@VSK_PopupManager@@@CEGUI@@8
rdata$r	SEGMENT
??_R3?$MemberFunctionSlot@VSK_PopupManager@@@CEGUI@@8 DD 00H ; CEGUI::MemberFunctionSlot<SK_PopupManager>::`RTTI Class Hierarchy Descriptor'
	DD	00H
	DD	02H
	DD	FLAT:??_R2?$MemberFunctionSlot@VSK_PopupManager@@@CEGUI@@8
rdata$r	ENDS
;	COMDAT ??_R0?AV?$MemberFunctionSlot@VSK_PopupManager@@@CEGUI@@@8
data$r	SEGMENT
??_R0?AV?$MemberFunctionSlot@VSK_PopupManager@@@CEGUI@@@8 DD FLAT:??_7type_info@@6B@ ; CEGUI::MemberFunctionSlot<SK_PopupManager> `RTTI Type Descriptor'
	DD	00H
	DB	'.?AV?$MemberFunctionSlot@VSK_PopupManager@@@CEGUI@@', 00H
data$r	ENDS
;	COMDAT ??_R4?$MemberFunctionSlot@VSK_PopupManager@@@CEGUI@@6B@
rdata$r	SEGMENT
??_R4?$MemberFunctionSlot@VSK_PopupManager@@@CEGUI@@6B@ DD 00H ; CEGUI::MemberFunctionSlot<SK_PopupManager>::`RTTI Complete Object Locator'
	DD	00H
	DD	00H
	DD	FLAT:??_R0?AV?$MemberFunctionSlot@VSK_PopupManager@@@CEGUI@@@8
	DD	FLAT:??_R3?$MemberFunctionSlot@VSK_PopupManager@@@CEGUI@@8
rdata$r	ENDS
;	COMDAT ??_R1A@?0A@EA@SlotFunctorBase@CEGUI@@8
rdata$r	SEGMENT
??_R1A@?0A@EA@SlotFunctorBase@CEGUI@@8 DD FLAT:??_R0?AVSlotFunctorBase@CEGUI@@@8 ; CEGUI::SlotFunctorBase::`RTTI Base Class Descriptor at (0,-1,0,64)'
	DD	00H
	DD	00H
	DD	0ffffffffH
	DD	00H
	DD	040H
	DD	FLAT:??_R3SlotFunctorBase@CEGUI@@8
rdata$r	ENDS
;	COMDAT ??_R2SlotFunctorBase@CEGUI@@8
rdata$r	SEGMENT
??_R2SlotFunctorBase@CEGUI@@8 DD FLAT:??_R1A@?0A@EA@SlotFunctorBase@CEGUI@@8 ; CEGUI::SlotFunctorBase::`RTTI Base Class Array'
rdata$r	ENDS
;	COMDAT ??_R3SlotFunctorBase@CEGUI@@8
rdata$r	SEGMENT
??_R3SlotFunctorBase@CEGUI@@8 DD 00H			; CEGUI::SlotFunctorBase::`RTTI Class Hierarchy Descriptor'
	DD	00H
	DD	01H
	DD	FLAT:??_R2SlotFunctorBase@CEGUI@@8
rdata$r	ENDS
;	COMDAT ??_R0?AVSlotFunctorBase@CEGUI@@@8
data$r	SEGMENT
??_R0?AVSlotFunctorBase@CEGUI@@@8 DD FLAT:??_7type_info@@6B@ ; CEGUI::SlotFunctorBase `RTTI Type Descriptor'
	DD	00H
	DB	'.?AVSlotFunctorBase@CEGUI@@', 00H
data$r	ENDS
;	COMDAT ??_R4SlotFunctorBase@CEGUI@@6B@
rdata$r	SEGMENT
??_R4SlotFunctorBase@CEGUI@@6B@ DD 00H			; CEGUI::SlotFunctorBase::`RTTI Complete Object Locator'
	DD	00H
	DD	00H
	DD	FLAT:??_R0?AVSlotFunctorBase@CEGUI@@@8
	DD	FLAT:??_R3SlotFunctorBase@CEGUI@@8
rdata$r	ENDS
;	COMDAT ??_C@_0BE@JONHPENG@map?1set?$DMT?$DO?5too?5long?$AA@
CONST	SEGMENT
??_C@_0BE@JONHPENG@map?1set?$DMT?$DO?5too?5long?$AA@ DB 'map/set<T> too l'
	DB	'ong', 00H					; `string'
CONST	ENDS
;	COMDAT ??_7?$MemberFunctionSlot@VSK_PopupManager@@@CEGUI@@6B@
CONST	SEGMENT
??_7?$MemberFunctionSlot@VSK_PopupManager@@@CEGUI@@6B@ DD FLAT:??_R4?$MemberFunctionSlot@VSK_PopupManager@@@CEGUI@@6B@ ; CEGUI::MemberFunctionSlot<SK_PopupManager>::`vftable'
	DD	FLAT:??_E?$MemberFunctionSlot@VSK_PopupManager@@@CEGUI@@UAEPAXI@Z
	DD	FLAT:??R?$MemberFunctionSlot@VSK_PopupManager@@@CEGUI@@UAE_NABVEventArgs@1@@Z
CONST	ENDS
;	COMDAT ??_7SlotFunctorBase@CEGUI@@6B@
CONST	SEGMENT
??_7SlotFunctorBase@CEGUI@@6B@ DD FLAT:??_R4SlotFunctorBase@CEGUI@@6B@ ; CEGUI::SlotFunctorBase::`vftable'
	DD	FLAT:??_ESlotFunctorBase@CEGUI@@UAEPAXI@Z
	DD	FLAT:__purecall
CONST	ENDS
;	COMDAT ??_C@_00CNPNBAHC@?$AA@
CONST	SEGMENT
??_C@_00CNPNBAHC@?$AA@ DB 00H				; `string'
CONST	ENDS
;	COMDAT xdata$x
xdata$x	SEGMENT
__catchsym$??$_Insert_hint@AAU?$pair@QAVWindow@CEGUI@@PAVSK_PopupWindow@@@std@@PAU?$_Tree_node@U?$pair@QAVWindow@CEGUI@@PAVSK_PopupWindow@@@std@@PAX@2@@?$_Tree@V?$_Tmap_traits@PAVWindow@CEGUI@@PAVSK_PopupWindow@@U?$less@PAVWindow@CEGUI@@@std@@V?$allocator@U?$pair@QAVWindow@CEGUI@@PAVSK_PopupWindow@@@std@@@5@$0A@@std@@@std@@IAE?AV?$_Tree_iterator@V?$_Tree_val@U?$_Tree_simple_types@U?$pair@QAVWindow@CEGUI@@PAVSK_PopupWindow@@@std@@@std@@@std@@@1@V?$_Tree_const_iterator@V?$_Tree_val@U?$_Tree_simple_types@U?$pair@QAVWindow@CEGUI@@PAVSK_PopupWindow@@@std@@@std@@@std@@@1@AAU?$pair@QAVWindow@CEGUI@@PAVSK_PopupWindow@@@1@PAU?$_Tree_node@U?$pair@QAVWindow@CEGUI@@PAVSK_PopupWindow@@@std@@PAX@1@@Z$119 DD 040H
	DD	00H
	DD	00H
	DD	FLAT:__catch$??$_Insert_hint@AAU?$pair@QAVWindow@CEGUI@@PAVSK_PopupWindow@@@std@@PAU?$_Tree_node@U?$pair@QAVWindow@CEGUI@@PAVSK_PopupWindow@@@std@@PAX@2@@?$_Tree@V?$_Tmap_traits@PAVWindow@CEGUI@@PAVSK_PopupWindow@@U?$less@PAVWindow@CEGUI@@@std@@V?$allocator@U?$pair@QAVWindow@CEGUI@@PAVSK_PopupWindow@@@std@@@5@$0A@@std@@@std@@IAE?AV?$_Tree_iterator@V?$_Tree_val@U?$_Tree_simple_types@U?$pair@QAVWindow@CEGUI@@PAVSK_PopupWindow@@@std@@@std@@@std@@@1@V?$_Tree_const_iterator@V?$_Tree_val@U?$_Tree_simple_types@U?$pair@QAVWindow@CEGUI@@PAVSK_PopupWindow@@@std@@@std@@@std@@@1@AAU?$pair@QAVWindow@CEGUI@@PAVSK_PopupWindow@@@1@PAU?$_Tree_node@U?$pair@QAVWindow@CEGUI@@PAVSK_PopupWindow@@@std@@PAX@1@@Z$0
__unwindtable$??$_Insert_hint@AAU?$pair@QAVWindow@CEGUI@@PAVSK_PopupWindow@@@std@@PAU?$_Tree_node@U?$pair@QAVWindow@CEGUI@@PAVSK_PopupWindow@@@std@@PAX@2@@?$_Tree@V?$_Tmap_traits@PAVWindow@CEGUI@@PAVSK_PopupWindow@@U?$less@PAVWindow@CEGUI@@@std@@V?$allocator@U?$pair@QAVWindow@CEGUI@@PAVSK_PopupWindow@@@std@@@5@$0A@@std@@@std@@IAE?AV?$_Tree_iterator@V?$_Tree_val@U?$_Tree_simple_types@U?$pair@QAVWindow@CEGUI@@PAVSK_PopupWindow@@@std@@@std@@@std@@@1@V?$_Tree_const_iterator@V?$_Tree_val@U?$_Tree_simple_types@U?$pair@QAVWindow@CEGUI@@PAVSK_PopupWindow@@@std@@@std@@@std@@@1@AAU?$pair@QAVWindow@CEGUI@@PAVSK_PopupWindow@@@1@PAU?$_Tree_node@U?$pair@QAVWindow@CEGUI@@PAVSK_PopupWindow@@@std@@PAX@1@@Z DD 0ffffffffH
	DD	00H
	DD	0ffffffffH
	DD	00H
__tryblocktable$??$_Insert_hint@AAU?$pair@QAVWindow@CEGUI@@PAVSK_PopupWindow@@@std@@PAU?$_Tree_node@U?$pair@QAVWindow@CEGUI@@PAVSK_PopupWindow@@@std@@PAX@2@@?$_Tree@V?$_Tmap_traits@PAVWindow@CEGUI@@PAVSK_PopupWindow@@U?$less@PAVWindow@CEGUI@@@std@@V?$allocator@U?$pair@QAVWindow@CEGUI@@PAVSK_PopupWindow@@@std@@@5@$0A@@std@@@std@@IAE?AV?$_Tree_iterator@V?$_Tree_val@U?$_Tree_simple_types@U?$pair@QAVWindow@CEGUI@@PAVSK_PopupWindow@@@std@@@std@@@std@@@1@V?$_Tree_const_iterator@V?$_Tree_val@U?$_Tree_simple_types@U?$pair@QAVWindow@CEGUI@@PAVSK_PopupWindow@@@std@@@std@@@std@@@1@AAU?$pair@QAVWindow@CEGUI@@PAVSK_PopupWindow@@@1@PAU?$_Tree_node@U?$pair@QAVWindow@CEGUI@@PAVSK_PopupWindow@@@std@@PAX@1@@Z DD 00H
	DD	00H
	DD	01H
	DD	01H
	DD	FLAT:__catchsym$??$_Insert_hint@AAU?$pair@QAVWindow@CEGUI@@PAVSK_PopupWindow@@@std@@PAU?$_Tree_node@U?$pair@QAVWindow@CEGUI@@PAVSK_PopupWindow@@@std@@PAX@2@@?$_Tree@V?$_Tmap_traits@PAVWindow@CEGUI@@PAVSK_PopupWindow@@U?$less@PAVWindow@CEGUI@@@std@@V?$allocator@U?$pair@QAVWindow@CEGUI@@PAVSK_PopupWindow@@@std@@@5@$0A@@std@@@std@@IAE?AV?$_Tree_iterator@V?$_Tree_val@U?$_Tree_simple_types@U?$pair@QAVWindow@CEGUI@@PAVSK_PopupWindow@@@std@@@std@@@std@@@1@V?$_Tree_const_iterator@V?$_Tree_val@U?$_Tree_simple_types@U?$pair@QAVWindow@CEGUI@@PAVSK_PopupWindow@@@std@@@std@@@std@@@1@AAU?$pair@QAVWindow@CEGUI@@PAVSK_PopupWindow@@@1@PAU?$_Tree_node@U?$pair@QAVWindow@CEGUI@@PAVSK_PopupWindow@@@std@@PAX@1@@Z$119
__ehfuncinfo$??$_Insert_hint@AAU?$pair@QAVWindow@CEGUI@@PAVSK_PopupWindow@@@std@@PAU?$_Tree_node@U?$pair@QAVWindow@CEGUI@@PAVSK_PopupWindow@@@std@@PAX@2@@?$_Tree@V?$_Tmap_traits@PAVWindow@CEGUI@@PAVSK_PopupWindow@@U?$less@PAVWindow@CEGUI@@@std@@V?$allocator@U?$pair@QAVWindow@CEGUI@@PAVSK_PopupWindow@@@std@@@5@$0A@@std@@@std@@IAE?AV?$_Tree_iterator@V?$_Tree_val@U?$_Tree_simple_types@U?$pair@QAVWindow@CEGUI@@PAVSK_PopupWindow@@@std@@@std@@@std@@@1@V?$_Tree_const_iterator@V?$_Tree_val@U?$_Tree_simple_types@U?$pair@QAVWindow@CEGUI@@PAVSK_PopupWindow@@@std@@@std@@@std@@@1@AAU?$pair@QAVWindow@CEGUI@@PAVSK_PopupWindow@@@1@PAU?$_Tree_node@U?$pair@QAVWindow@CEGUI@@PAVSK_PopupWindow@@@std@@PAX@1@@Z DD 019930522H
	DD	02H
	DD	FLAT:__unwindtable$??$_Insert_hint@AAU?$pair@QAVWindow@CEGUI@@PAVSK_PopupWindow@@@std@@PAU?$_Tree_node@U?$pair@QAVWindow@CEGUI@@PAVSK_PopupWindow@@@std@@PAX@2@@?$_Tree@V?$_Tmap_traits@PAVWindow@CEGUI@@PAVSK_PopupWindow@@U?$less@PAVWindow@CEGUI@@@std@@V?$allocator@U?$pair@QAVWindow@CEGUI@@PAVSK_PopupWindow@@@std@@@5@$0A@@std@@@std@@IAE?AV?$_Tree_iterator@V?$_Tree_val@U?$_Tree_simple_types@U?$pair@QAVWindow@CEGUI@@PAVSK_PopupWindow@@@std@@@std@@@std@@@1@V?$_Tree_const_iterator@V?$_Tree_val@U?$_Tree_simple_types@U?$pair@QAVWindow@CEGUI@@PAVSK_PopupWindow@@@std@@@std@@@std@@@1@AAU?$pair@QAVWindow@CEGUI@@PAVSK_PopupWindow@@@1@PAU?$_Tree_node@U?$pair@QAVWindow@CEGUI@@PAVSK_PopupWindow@@@std@@PAX@1@@Z
	DD	01H
	DD	FLAT:__tryblocktable$??$_Insert_hint@AAU?$pair@QAVWindow@CEGUI@@PAVSK_PopupWindow@@@std@@PAU?$_Tree_node@U?$pair@QAVWindow@CEGUI@@PAVSK_PopupWindow@@@std@@PAX@2@@?$_Tree@V?$_Tmap_traits@PAVWindow@CEGUI@@PAVSK_PopupWindow@@U?$less@PAVWindow@CEGUI@@@std@@V?$allocator@U?$pair@QAVWindow@CEGUI@@PAVSK_PopupWindow@@@std@@@5@$0A@@std@@@std@@IAE?AV?$_Tree_iterator@V?$_Tree_val@U?$_Tree_simple_types@U?$pair@QAVWindow@CEGUI@@PAVSK_PopupWindow@@@std@@@std@@@std@@@1@V?$_Tree_const_iterator@V?$_Tree_val@U?$_Tree_simple_types@U?$pair@QAVWindow@CEGUI@@PAVSK_PopupWindow@@@std@@@std@@@std@@@1@AAU?$pair@QAVWindow@CEGUI@@PAVSK_PopupWindow@@@1@PAU?$_Tree_node@U?$pair@QAVWindow@CEGUI@@PAVSK_PopupWindow@@@std@@PAX@1@@Z
	DD	2 DUP(00H)
	DD	00H
	DD	01H
xdata$x	ENDS
;	COMDAT xdata$x
xdata$x	SEGMENT
__catchsym$??$_Insert_nohint@AAU?$pair@QAVWindow@CEGUI@@PAVSK_PopupWindow@@@std@@PAU?$_Tree_node@U?$pair@QAVWindow@CEGUI@@PAVSK_PopupWindow@@@std@@PAX@2@@?$_Tree@V?$_Tmap_traits@PAVWindow@CEGUI@@PAVSK_PopupWindow@@U?$less@PAVWindow@CEGUI@@@std@@V?$allocator@U?$pair@QAVWindow@CEGUI@@PAVSK_PopupWindow@@@std@@@5@$0A@@std@@@std@@IAE?AU?$pair@V?$_Tree_iterator@V?$_Tree_val@U?$_Tree_simple_types@U?$pair@QAVWindow@CEGUI@@PAVSK_PopupWindow@@@std@@@std@@@std@@@std@@_N@1@_NAAU?$pair@QAVWindow@CEGUI@@PAVSK_PopupWindow@@@1@PAU?$_Tree_node@U?$pair@QAVWindow@CEGUI@@PAVSK_PopupWindow@@@std@@PAX@1@@Z$51 DD 040H
	DD	00H
	DD	00H
	DD	FLAT:__catch$??$_Insert_nohint@AAU?$pair@QAVWindow@CEGUI@@PAVSK_PopupWindow@@@std@@PAU?$_Tree_node@U?$pair@QAVWindow@CEGUI@@PAVSK_PopupWindow@@@std@@PAX@2@@?$_Tree@V?$_Tmap_traits@PAVWindow@CEGUI@@PAVSK_PopupWindow@@U?$less@PAVWindow@CEGUI@@@std@@V?$allocator@U?$pair@QAVWindow@CEGUI@@PAVSK_PopupWindow@@@std@@@5@$0A@@std@@@std@@IAE?AU?$pair@V?$_Tree_iterator@V?$_Tree_val@U?$_Tree_simple_types@U?$pair@QAVWindow@CEGUI@@PAVSK_PopupWindow@@@std@@@std@@@std@@@std@@_N@1@_NAAU?$pair@QAVWindow@CEGUI@@PAVSK_PopupWindow@@@1@PAU?$_Tree_node@U?$pair@QAVWindow@CEGUI@@PAVSK_PopupWindow@@@std@@PAX@1@@Z$0
__unwindtable$??$_Insert_nohint@AAU?$pair@QAVWindow@CEGUI@@PAVSK_PopupWindow@@@std@@PAU?$_Tree_node@U?$pair@QAVWindow@CEGUI@@PAVSK_PopupWindow@@@std@@PAX@2@@?$_Tree@V?$_Tmap_traits@PAVWindow@CEGUI@@PAVSK_PopupWindow@@U?$less@PAVWindow@CEGUI@@@std@@V?$allocator@U?$pair@QAVWindow@CEGUI@@PAVSK_PopupWindow@@@std@@@5@$0A@@std@@@std@@IAE?AU?$pair@V?$_Tree_iterator@V?$_Tree_val@U?$_Tree_simple_types@U?$pair@QAVWindow@CEGUI@@PAVSK_PopupWindow@@@std@@@std@@@std@@@std@@_N@1@_NAAU?$pair@QAVWindow@CEGUI@@PAVSK_PopupWindow@@@1@PAU?$_Tree_node@U?$pair@QAVWindow@CEGUI@@PAVSK_PopupWindow@@@std@@PAX@1@@Z DD 0ffffffffH
	DD	00H
	DD	0ffffffffH
	DD	00H
__tryblocktable$??$_Insert_nohint@AAU?$pair@QAVWindow@CEGUI@@PAVSK_PopupWindow@@@std@@PAU?$_Tree_node@U?$pair@QAVWindow@CEGUI@@PAVSK_PopupWindow@@@std@@PAX@2@@?$_Tree@V?$_Tmap_traits@PAVWindow@CEGUI@@PAVSK_PopupWindow@@U?$less@PAVWindow@CEGUI@@@std@@V?$allocator@U?$pair@QAVWindow@CEGUI@@PAVSK_PopupWindow@@@std@@@5@$0A@@std@@@std@@IAE?AU?$pair@V?$_Tree_iterator@V?$_Tree_val@U?$_Tree_simple_types@U?$pair@QAVWindow@CEGUI@@PAVSK_PopupWindow@@@std@@@std@@@std@@@std@@_N@1@_NAAU?$pair@QAVWindow@CEGUI@@PAVSK_PopupWindow@@@1@PAU?$_Tree_node@U?$pair@QAVWindow@CEGUI@@PAVSK_PopupWindow@@@std@@PAX@1@@Z DD 00H
	DD	00H
	DD	01H
	DD	01H
	DD	FLAT:__catchsym$??$_Insert_nohint@AAU?$pair@QAVWindow@CEGUI@@PAVSK_PopupWindow@@@std@@PAU?$_Tree_node@U?$pair@QAVWindow@CEGUI@@PAVSK_PopupWindow@@@std@@PAX@2@@?$_Tree@V?$_Tmap_traits@PAVWindow@CEGUI@@PAVSK_PopupWindow@@U?$less@PAVWindow@CEGUI@@@std@@V?$allocator@U?$pair@QAVWindow@CEGUI@@PAVSK_PopupWindow@@@std@@@5@$0A@@std@@@std@@IAE?AU?$pair@V?$_Tree_iterator@V?$_Tree_val@U?$_Tree_simple_types@U?$pair@QAVWindow@CEGUI@@PAVSK_PopupWindow@@@std@@@std@@@std@@@std@@_N@1@_NAAU?$pair@QAVWindow@CEGUI@@PAVSK_PopupWindow@@@1@PAU?$_Tree_node@U?$pair@QAVWindow@CEGUI@@PAVSK_PopupWindow@@@std@@PAX@1@@Z$51
__ehfuncinfo$??$_Insert_nohint@AAU?$pair@QAVWindow@CEGUI@@PAVSK_PopupWindow@@@std@@PAU?$_Tree_node@U?$pair@QAVWindow@CEGUI@@PAVSK_PopupWindow@@@std@@PAX@2@@?$_Tree@V?$_Tmap_traits@PAVWindow@CEGUI@@PAVSK_PopupWindow@@U?$less@PAVWindow@CEGUI@@@std@@V?$allocator@U?$pair@QAVWindow@CEGUI@@PAVSK_PopupWindow@@@std@@@5@$0A@@std@@@std@@IAE?AU?$pair@V?$_Tree_iterator@V?$_Tree_val@U?$_Tree_simple_types@U?$pair@QAVWindow@CEGUI@@PAVSK_PopupWindow@@@std@@@std@@@std@@@std@@_N@1@_NAAU?$pair@QAVWindow@CEGUI@@PAVSK_PopupWindow@@@1@PAU?$_Tree_node@U?$pair@QAVWindow@CEGUI@@PAVSK_PopupWindow@@@std@@PAX@1@@Z DD 019930522H
	DD	02H
	DD	FLAT:__unwindtable$??$_Insert_nohint@AAU?$pair@QAVWindow@CEGUI@@PAVSK_PopupWindow@@@std@@PAU?$_Tree_node@U?$pair@QAVWindow@CEGUI@@PAVSK_PopupWindow@@@std@@PAX@2@@?$_Tree@V?$_Tmap_traits@PAVWindow@CEGUI@@PAVSK_PopupWindow@@U?$less@PAVWindow@CEGUI@@@std@@V?$allocator@U?$pair@QAVWindow@CEGUI@@PAVSK_PopupWindow@@@std@@@5@$0A@@std@@@std@@IAE?AU?$pair@V?$_Tree_iterator@V?$_Tree_val@U?$_Tree_simple_types@U?$pair@QAVWindow@CEGUI@@PAVSK_PopupWindow@@@std@@@std@@@std@@@std@@_N@1@_NAAU?$pair@QAVWindow@CEGUI@@PAVSK_PopupWindow@@@1@PAU?$_Tree_node@U?$pair@QAVWindow@CEGUI@@PAVSK_PopupWindow@@@std@@PAX@1@@Z
	DD	01H
	DD	FLAT:__tryblocktable$??$_Insert_nohint@AAU?$pair@QAVWindow@CEGUI@@PAVSK_PopupWindow@@@std@@PAU?$_Tree_node@U?$pair@QAVWindow@CEGUI@@PAVSK_PopupWindow@@@std@@PAX@2@@?$_Tree@V?$_Tmap_traits@PAVWindow@CEGUI@@PAVSK_PopupWindow@@U?$less@PAVWindow@CEGUI@@@std@@V?$allocator@U?$pair@QAVWindow@CEGUI@@PAVSK_PopupWindow@@@std@@@5@$0A@@std@@@std@@IAE?AU?$pair@V?$_Tree_iterator@V?$_Tree_val@U?$_Tree_simple_types@U?$pair@QAVWindow@CEGUI@@PAVSK_PopupWindow@@@std@@@std@@@std@@@std@@_N@1@_NAAU?$pair@QAVWindow@CEGUI@@PAVSK_PopupWindow@@@1@PAU?$_Tree_node@U?$pair@QAVWindow@CEGUI@@PAVSK_PopupWindow@@@std@@PAX@1@@Z
	DD	2 DUP(00H)
	DD	00H
	DD	01H
xdata$x	ENDS
;	COMDAT xdata$x
xdata$x	SEGMENT
__catchsym$??$_Insert_nohint@AAU?$pair@QAVSK_PopupWindow@@PAVWindow@CEGUI@@@std@@PAU?$_Tree_node@U?$pair@QAVSK_PopupWindow@@PAVWindow@CEGUI@@@std@@PAX@2@@?$_Tree@V?$_Tmap_traits@PAVSK_PopupWindow@@PAVWindow@CEGUI@@U?$less@PAVSK_PopupWindow@@@std@@V?$allocator@U?$pair@QAVSK_PopupWindow@@PAVWindow@CEGUI@@@std@@@5@$0A@@std@@@std@@IAE?AU?$pair@V?$_Tree_iterator@V?$_Tree_val@U?$_Tree_simple_types@U?$pair@QAVSK_PopupWindow@@PAVWindow@CEGUI@@@std@@@std@@@std@@@std@@_N@1@_NAAU?$pair@QAVSK_PopupWindow@@PAVWindow@CEGUI@@@1@PAU?$_Tree_node@U?$pair@QAVSK_PopupWindow@@PAVWindow@CEGUI@@@std@@PAX@1@@Z$51 DD 040H
	DD	00H
	DD	00H
	DD	FLAT:__catch$??$_Insert_nohint@AAU?$pair@QAVSK_PopupWindow@@PAVWindow@CEGUI@@@std@@PAU?$_Tree_node@U?$pair@QAVSK_PopupWindow@@PAVWindow@CEGUI@@@std@@PAX@2@@?$_Tree@V?$_Tmap_traits@PAVSK_PopupWindow@@PAVWindow@CEGUI@@U?$less@PAVSK_PopupWindow@@@std@@V?$allocator@U?$pair@QAVSK_PopupWindow@@PAVWindow@CEGUI@@@std@@@5@$0A@@std@@@std@@IAE?AU?$pair@V?$_Tree_iterator@V?$_Tree_val@U?$_Tree_simple_types@U?$pair@QAVSK_PopupWindow@@PAVWindow@CEGUI@@@std@@@std@@@std@@@std@@_N@1@_NAAU?$pair@QAVSK_PopupWindow@@PAVWindow@CEGUI@@@1@PAU?$_Tree_node@U?$pair@QAVSK_PopupWindow@@PAVWindow@CEGUI@@@std@@PAX@1@@Z$0
__unwindtable$??$_Insert_nohint@AAU?$pair@QAVSK_PopupWindow@@PAVWindow@CEGUI@@@std@@PAU?$_Tree_node@U?$pair@QAVSK_PopupWindow@@PAVWindow@CEGUI@@@std@@PAX@2@@?$_Tree@V?$_Tmap_traits@PAVSK_PopupWindow@@PAVWindow@CEGUI@@U?$less@PAVSK_PopupWindow@@@std@@V?$allocator@U?$pair@QAVSK_PopupWindow@@PAVWindow@CEGUI@@@std@@@5@$0A@@std@@@std@@IAE?AU?$pair@V?$_Tree_iterator@V?$_Tree_val@U?$_Tree_simple_types@U?$pair@QAVSK_PopupWindow@@PAVWindow@CEGUI@@@std@@@std@@@std@@@std@@_N@1@_NAAU?$pair@QAVSK_PopupWindow@@PAVWindow@CEGUI@@@1@PAU?$_Tree_node@U?$pair@QAVSK_PopupWindow@@PAVWindow@CEGUI@@@std@@PAX@1@@Z DD 0ffffffffH
	DD	00H
	DD	0ffffffffH
	DD	00H
__tryblocktable$??$_Insert_nohint@AAU?$pair@QAVSK_PopupWindow@@PAVWindow@CEGUI@@@std@@PAU?$_Tree_node@U?$pair@QAVSK_PopupWindow@@PAVWindow@CEGUI@@@std@@PAX@2@@?$_Tree@V?$_Tmap_traits@PAVSK_PopupWindow@@PAVWindow@CEGUI@@U?$less@PAVSK_PopupWindow@@@std@@V?$allocator@U?$pair@QAVSK_PopupWindow@@PAVWindow@CEGUI@@@std@@@5@$0A@@std@@@std@@IAE?AU?$pair@V?$_Tree_iterator@V?$_Tree_val@U?$_Tree_simple_types@U?$pair@QAVSK_PopupWindow@@PAVWindow@CEGUI@@@std@@@std@@@std@@@std@@_N@1@_NAAU?$pair@QAVSK_PopupWindow@@PAVWindow@CEGUI@@@1@PAU?$_Tree_node@U?$pair@QAVSK_PopupWindow@@PAVWindow@CEGUI@@@std@@PAX@1@@Z DD 00H
	DD	00H
	DD	01H
	DD	01H
	DD	FLAT:__catchsym$??$_Insert_nohint@AAU?$pair@QAVSK_PopupWindow@@PAVWindow@CEGUI@@@std@@PAU?$_Tree_node@U?$pair@QAVSK_PopupWindow@@PAVWindow@CEGUI@@@std@@PAX@2@@?$_Tree@V?$_Tmap_traits@PAVSK_PopupWindow@@PAVWindow@CEGUI@@U?$less@PAVSK_PopupWindow@@@std@@V?$allocator@U?$pair@QAVSK_PopupWindow@@PAVWindow@CEGUI@@@std@@@5@$0A@@std@@@std@@IAE?AU?$pair@V?$_Tree_iterator@V?$_Tree_val@U?$_Tree_simple_types@U?$pair@QAVSK_PopupWindow@@PAVWindow@CEGUI@@@std@@@std@@@std@@@std@@_N@1@_NAAU?$pair@QAVSK_PopupWindow@@PAVWindow@CEGUI@@@1@PAU?$_Tree_node@U?$pair@QAVSK_PopupWindow@@PAVWindow@CEGUI@@@std@@PAX@1@@Z$51
__ehfuncinfo$??$_Insert_nohint@AAU?$pair@QAVSK_PopupWindow@@PAVWindow@CEGUI@@@std@@PAU?$_Tree_node@U?$pair@QAVSK_PopupWindow@@PAVWindow@CEGUI@@@std@@PAX@2@@?$_Tree@V?$_Tmap_traits@PAVSK_PopupWindow@@PAVWindow@CEGUI@@U?$less@PAVSK_PopupWindow@@@std@@V?$allocator@U?$pair@QAVSK_PopupWindow@@PAVWindow@CEGUI@@@std@@@5@$0A@@std@@@std@@IAE?AU?$pair@V?$_Tree_iterator@V?$_Tree_val@U?$_Tree_simple_types@U?$pair@QAVSK_PopupWindow@@PAVWindow@CEGUI@@@std@@@std@@@std@@@std@@_N@1@_NAAU?$pair@QAVSK_PopupWindow@@PAVWindow@CEGUI@@@1@PAU?$_Tree_node@U?$pair@QAVSK_PopupWindow@@PAVWindow@CEGUI@@@std@@PAX@1@@Z DD 019930522H
	DD	02H
	DD	FLAT:__unwindtable$??$_Insert_nohint@AAU?$pair@QAVSK_PopupWindow@@PAVWindow@CEGUI@@@std@@PAU?$_Tree_node@U?$pair@QAVSK_PopupWindow@@PAVWindow@CEGUI@@@std@@PAX@2@@?$_Tree@V?$_Tmap_traits@PAVSK_PopupWindow@@PAVWindow@CEGUI@@U?$less@PAVSK_PopupWindow@@@std@@V?$allocator@U?$pair@QAVSK_PopupWindow@@PAVWindow@CEGUI@@@std@@@5@$0A@@std@@@std@@IAE?AU?$pair@V?$_Tree_iterator@V?$_Tree_val@U?$_Tree_simple_types@U?$pair@QAVSK_PopupWindow@@PAVWindow@CEGUI@@@std@@@std@@@std@@@std@@_N@1@_NAAU?$pair@QAVSK_PopupWindow@@PAVWindow@CEGUI@@@1@PAU?$_Tree_node@U?$pair@QAVSK_PopupWindow@@PAVWindow@CEGUI@@@std@@PAX@1@@Z
	DD	01H
	DD	FLAT:__tryblocktable$??$_Insert_nohint@AAU?$pair@QAVSK_PopupWindow@@PAVWindow@CEGUI@@@std@@PAU?$_Tree_node@U?$pair@QAVSK_PopupWindow@@PAVWindow@CEGUI@@@std@@PAX@2@@?$_Tree@V?$_Tmap_traits@PAVSK_PopupWindow@@PAVWindow@CEGUI@@U?$less@PAVSK_PopupWindow@@@std@@V?$allocator@U?$pair@QAVSK_PopupWindow@@PAVWindow@CEGUI@@@std@@@5@$0A@@std@@@std@@IAE?AU?$pair@V?$_Tree_iterator@V?$_Tree_val@U?$_Tree_simple_types@U?$pair@QAVSK_PopupWindow@@PAVWindow@CEGUI@@@std@@@std@@@std@@@std@@_N@1@_NAAU?$pair@QAVSK_PopupWindow@@PAVWindow@CEGUI@@@1@PAU?$_Tree_node@U?$pair@QAVSK_PopupWindow@@PAVWindow@CEGUI@@@std@@PAX@1@@Z
	DD	2 DUP(00H)
	DD	00H
	DD	01H
xdata$x	ENDS
;	COMDAT xdata$x
xdata$x	SEGMENT
__ehfuncinfo$?clear@?$_Tree@V?$_Tmap_traits@PAVWindow@CEGUI@@PAVSK_PopupWindow@@U?$less@PAVWindow@CEGUI@@@std@@V?$allocator@U?$pair@QAVWindow@CEGUI@@PAVSK_PopupWindow@@@std@@@5@$0A@@std@@@std@@QAEXXZ DD 019930522H
	DD	00H
	DD	00H
	DD	2 DUP(00H)
	DD	2 DUP(00H)
	DD	00H
	DD	05H
xdata$x	ENDS
;	COMDAT xdata$x
xdata$x	SEGMENT
__ehfuncinfo$?clear@?$_Tree@V?$_Tmap_traits@PAVSK_PopupWindow@@PAVWindow@CEGUI@@U?$less@PAVSK_PopupWindow@@@std@@V?$allocator@U?$pair@QAVSK_PopupWindow@@PAVWindow@CEGUI@@@std@@@5@$0A@@std@@@std@@QAEXXZ DD 019930522H
	DD	00H
	DD	00H
	DD	2 DUP(00H)
	DD	2 DUP(00H)
	DD	00H
	DD	05H
xdata$x	ENDS
;	COMDAT xdata$x
xdata$x	SEGMENT
__catchsym$??1SK_PopupWindow@@IAE@XZ$2 DD 040H
	DD	00H
	DD	00H
	DD	FLAT:__catch$??1SK_PopupWindow@@IAE@XZ$0
__unwindtable$??1SK_PopupWindow@@IAE@XZ DD 0ffffffffH
	DD	00H
	DD	0ffffffffH
	DD	00H
__tryblocktable$??1SK_PopupWindow@@IAE@XZ DD 00H
	DD	00H
	DD	01H
	DD	01H
	DD	FLAT:__catchsym$??1SK_PopupWindow@@IAE@XZ$2
__ehfuncinfo$??1SK_PopupWindow@@IAE@XZ DD 019930522H
	DD	02H
	DD	FLAT:__unwindtable$??1SK_PopupWindow@@IAE@XZ
	DD	01H
	DD	FLAT:__tryblocktable$??1SK_PopupWindow@@IAE@XZ
	DD	2 DUP(00H)
	DD	00H
	DD	05H
xdata$x	ENDS
;	COMDAT xdata$x
xdata$x	SEGMENT
__catchsym$??0SK_PopupWindow@@IAE@PBD@Z$4 DD 040H
	DD	00H
	DD	00H
	DD	FLAT:__catch$??0SK_PopupWindow@@IAE@PBD@Z$0
__tryblocktable$??0SK_PopupWindow@@IAE@PBD@Z DD 00H
	DD	02H
	DD	03H
	DD	01H
	DD	FLAT:__catchsym$??0SK_PopupWindow@@IAE@PBD@Z$4
__unwindtable$??0SK_PopupWindow@@IAE@PBD@Z DD 0ffffffffH
	DD	00H
	DD	00H
	DD	FLAT:__unwindfunclet$??0SK_PopupWindow@@IAE@PBD@Z$2
	DD	01H
	DD	FLAT:__unwindfunclet$??0SK_PopupWindow@@IAE@PBD@Z$3
	DD	0ffffffffH
	DD	00H
__ehfuncinfo$??0SK_PopupWindow@@IAE@PBD@Z DD 019930522H
	DD	04H
	DD	FLAT:__unwindtable$??0SK_PopupWindow@@IAE@PBD@Z
	DD	01H
	DD	FLAT:__tryblocktable$??0SK_PopupWindow@@IAE@PBD@Z
	DD	2 DUP(00H)
	DD	00H
	DD	01H
xdata$x	ENDS
xdata$x	SEGMENT
__unwindtable$??0SK_PopupManager@@IAE@XZ DD 0ffffffffH
	DD	FLAT:__unwindfunclet$??0SK_PopupManager@@IAE@XZ$0
__unwindtable$?getInstance@SK_PopupManager@@SAPAV1@XZ DD 0ffffffffH
	DD	FLAT:__unwindfunclet$?getInstance@SK_PopupManager@@SAPAV1@XZ$0
__unwindtable$?destroyAllPopups@SK_PopupManager@@QAEXXZ DD 0ffffffffH
	DD	FLAT:___std_terminate
	DD	0ffffffffH
	DD	FLAT:___std_terminate
__catchsym$?getChild@SK_PopupWindow@@QAEPAVWindow@CEGUI@@PBD@Z$3 DD 040H
	DD	00H
	DD	00H
	DD	FLAT:__catch$?getChild@SK_PopupWindow@@QAEPAVWindow@CEGUI@@PBD@Z$0
__tryblocktable$?getChild@SK_PopupWindow@@QAEPAVWindow@CEGUI@@PBD@Z DD 00H
	DD	01H
	DD	02H
	DD	01H
	DD	FLAT:__catchsym$?getChild@SK_PopupWindow@@QAEPAVWindow@CEGUI@@PBD@Z$3
__unwindtable$?createPopup@SK_PopupManager@@QAEPAVSK_PopupWindow@@PBD@Z DD 0ffffffffH
	DD	FLAT:__unwindfunclet$?createPopup@SK_PopupManager@@QAEPAVSK_PopupWindow@@PBD@Z$0
	DD	0ffffffffH
	DD	FLAT:__unwindfunclet$?createPopup@SK_PopupManager@@QAEPAVSK_PopupWindow@@PBD@Z$1
	DD	01H
	DD	FLAT:__unwindfunclet$?createPopup@SK_PopupManager@@QAEPAVSK_PopupWindow@@PBD@Z$2
__unwindtable$?getChild@SK_PopupWindow@@QAEPAVWindow@CEGUI@@PBD@Z DD 0ffffffffH
	DD	00H
	DD	00H
	DD	FLAT:__unwindfunclet$?getChild@SK_PopupWindow@@QAEPAVWindow@CEGUI@@PBD@Z$2
	DD	0ffffffffH
	DD	00H
__ehfuncinfo$??0SK_PopupManager@@IAE@XZ DD 019930522H
	DD	01H
	DD	FLAT:__unwindtable$??0SK_PopupManager@@IAE@XZ
	DD	2 DUP(00H)
	DD	2 DUP(00H)
	DD	00H
	DD	01H
__ehfuncinfo$?destroyAllPopups@SK_PopupManager@@QAEXXZ DD 019930522H
	DD	02H
	DD	FLAT:__unwindtable$?destroyAllPopups@SK_PopupManager@@QAEXXZ
	DD	2 DUP(00H)
	DD	2 DUP(00H)
	DD	00H
	DD	01H
__ehfuncinfo$?createPopup@SK_PopupManager@@QAEPAVSK_PopupWindow@@PBD@Z DD 019930522H
	DD	03H
	DD	FLAT:__unwindtable$?createPopup@SK_PopupManager@@QAEPAVSK_PopupWindow@@PBD@Z
	DD	2 DUP(00H)
	DD	2 DUP(00H)
	DD	00H
	DD	01H
__ehfuncinfo$?getInstance@SK_PopupManager@@SAPAV1@XZ DD 019930522H
	DD	01H
	DD	FLAT:__unwindtable$?getInstance@SK_PopupManager@@SAPAV1@XZ
	DD	2 DUP(00H)
	DD	2 DUP(00H)
	DD	00H
	DD	01H
__ehfuncinfo$?getChild@SK_PopupWindow@@QAEPAVWindow@CEGUI@@PBD@Z DD 019930522H
	DD	03H
	DD	FLAT:__unwindtable$?getChild@SK_PopupWindow@@QAEPAVWindow@CEGUI@@PBD@Z
	DD	01H
	DD	FLAT:__tryblocktable$?getChild@SK_PopupWindow@@QAEPAVWindow@CEGUI@@PBD@Z
	DD	2 DUP(00H)
	DD	00H
	DD	01H
xdata$x	ENDS
; Function compile flags: /Ogtp
; File c:\program files (x86)\microsoft visual studio\2017\community\vc\tools\msvc\14.10.25017\include\tuple
;	COMDAT ??$get@$0A@ABQAVWindow@CEGUI@@@std@@YAABQAVWindow@CEGUI@@$$QAV?$tuple@ABQAVWindow@CEGUI@@@0@@Z
_TEXT	SEGMENT
__Tuple$ = 8						; size = 4
??$get@$0A@ABQAVWindow@CEGUI@@@std@@YAABQAVWindow@CEGUI@@$$QAV?$tuple@ABQAVWindow@CEGUI@@@0@@Z PROC ; std::get<0,CEGUI::Window * const &>, COMDAT

; 810  : 	{	// get rvalue reference to _Index element of tuple

	npad	2
	push	ebp
	mov	ebp, esp

; 811  : 	typedef typename tuple_element<_Index, tuple<_Types...> >::_Ttype
; 812  : 		_Ttype;
; 813  : 	typedef typename tuple_element<_Index, tuple<_Types...> >::type&&
; 814  : 		_RRtype;
; 815  : 	return (_STD forward<_RRtype>(((_Ttype&)_Tuple)._Myfirst._Val));

	mov	eax, DWORD PTR __Tuple$[ebp]
	mov	eax, DWORD PTR [eax]

; 816  : 	}

	pop	ebp
	ret	0
??$get@$0A@ABQAVWindow@CEGUI@@@std@@YAABQAVWindow@CEGUI@@$$QAV?$tuple@ABQAVWindow@CEGUI@@@0@@Z ENDP ; std::get<0,CEGUI::Window * const &>
_TEXT	ENDS
; Function compile flags: /Ogtp
; File c:\program files (x86)\microsoft visual studio\2017\community\vc\tools\msvc\14.10.25017\include\type_traits
;	COMDAT ??$move@AAV?$tuple@ABQAVWindow@CEGUI@@@std@@@std@@YA$$QAV?$tuple@ABQAVWindow@CEGUI@@@0@AAV10@@Z
_TEXT	SEGMENT
__Arg$ = 8						; size = 4
??$move@AAV?$tuple@ABQAVWindow@CEGUI@@@std@@@std@@YA$$QAV?$tuple@ABQAVWindow@CEGUI@@@0@AAV10@@Z PROC ; std::move<std::tuple<CEGUI::Window * const &> &>, COMDAT

; 1350 : 	{	// forward _Arg as movable

	npad	2
	push	ebp
	mov	ebp, esp

; 1351 : 	return (static_cast<typename remove_reference<_Ty>::type&&>(_Arg));

	mov	eax, DWORD PTR __Arg$[ebp]

; 1352 : 	}

	pop	ebp
	ret	0
??$move@AAV?$tuple@ABQAVWindow@CEGUI@@@std@@@std@@YA$$QAV?$tuple@ABQAVWindow@CEGUI@@@0@AAV10@@Z ENDP ; std::move<std::tuple<CEGUI::Window * const &> &>
_TEXT	ENDS
; Function compile flags: /Ogtp
; File c:\program files (x86)\microsoft visual studio\2017\community\vc\tools\msvc\14.10.25017\include\tuple
;	COMDAT ??$?0V?$tuple@ABQAVWindow@CEGUI@@@std@@V?$tuple@$$V@1@$0A@$$Z$S@?$pair@QAVWindow@CEGUI@@PAVSK_PopupWindow@@@std@@QAE@AAV?$tuple@ABQAVWindow@CEGUI@@@1@AAV?$tuple@$$V@1@U?$integer_sequence@I$0A@@1@U?$integer_sequence@I$S@1@@Z
_TEXT	SEGMENT
__Val1$ = 8						; size = 4
__Val2$ = 12						; size = 4
___formal$ = 16						; size = 1
___formal$ = 20						; size = 1
??$?0V?$tuple@ABQAVWindow@CEGUI@@@std@@V?$tuple@$$V@1@$0A@$$Z$S@?$pair@QAVWindow@CEGUI@@PAVSK_PopupWindow@@@std@@QAE@AAV?$tuple@ABQAVWindow@CEGUI@@@1@AAV?$tuple@$$V@1@U?$integer_sequence@I$0A@@1@U?$integer_sequence@I$S@1@@Z PROC ; std::pair<CEGUI::Window * const,SK_PopupWindow *>::pair<CEGUI::Window * const,SK_PopupWindow *><std::tuple<CEGUI::Window * const &>,std::tuple<>,0>, COMDAT
; _this$ = ecx

; 1140 : 		{	// construct from pair of tuples

	npad	2
	push	ebp
	mov	ebp, esp

; 815  : 	return (_STD forward<_RRtype>(((_Ttype&)_Tuple)._Myfirst._Val));

	mov	eax, DWORD PTR __Val1$[ebp]
	mov	eax, DWORD PTR [eax]

; 816  : 	}
; 817  : 
; 818  : template<size_t _Index,
; 819  : 	class... _Types> inline
; 820  : 	constexpr const typename tuple_element<_Index, tuple<_Types...> >::type&&
; 821  : 		get(const tuple<_Types...>&& _Tuple) _NOEXCEPT
; 822  : 	{	// get const rvalue reference to _Index element of tuple
; 823  : 	typedef typename tuple_element<_Index, tuple<_Types...> >::_Ttype
; 824  : 		_Ttype;
; 825  : 	typedef const typename tuple_element<_Index, tuple<_Types...> >::type&&
; 826  : 		_RRtype;
; 827  : 	return (_STD forward<_RRtype>(((_Ttype&)_Tuple)._Myfirst._Val));
; 828  : 	}
; 829  : 
; 830  : 	// TEMPLATE FUNCTION get (by type)
; 831  : template<class _Ty,
; 832  : 	class... _Types> inline
; 833  : 	constexpr _Ty& get(tuple<_Types...>& _Tuple) _NOEXCEPT
; 834  : 	{	// get reference to _Ty element of tuple
; 835  : 	typedef typename _Tuple_element<_Ty, tuple<_Types...> >::_Ttype _Ttype;
; 836  : 	return (((_Ttype&)_Tuple)._Myfirst._Val);
; 837  : 	}
; 838  : 
; 839  : template<class _Ty,
; 840  : 	class... _Types> inline
; 841  : 	constexpr const _Ty& get(const tuple<_Types...>& _Tuple) _NOEXCEPT
; 842  : 	{	// get const reference to _Ty element of tuple
; 843  : 	typedef typename _Tuple_element<_Ty, tuple<_Types...> >::_Ttype _Ttype;
; 844  : 	return (((_Ttype&)_Tuple)._Myfirst._Val);
; 845  : 	}
; 846  : 
; 847  : template<class _Ty,
; 848  : 	class... _Types> inline
; 849  : 	constexpr _Ty&& get(tuple<_Types...>&& _Tuple) _NOEXCEPT
; 850  : 	{	// get rvalue reference to _Ty element of tuple
; 851  : 	typedef typename _Tuple_element<_Ty, tuple<_Types...> >::_Ttype _Ttype;
; 852  : 	return (_STD forward<_Ty&&>(((_Ttype&)_Tuple)._Myfirst._Val));
; 853  : 	}
; 854  : 
; 855  : template<class _Ty,
; 856  : 	class... _Types> inline
; 857  : 	constexpr const _Ty&& get(const tuple<_Types...>&& _Tuple) _NOEXCEPT
; 858  : 	{	// get const rvalue reference to _Ty element of tuple
; 859  : 	typedef typename _Tuple_element<_Ty, tuple<_Types...> >::_Ttype _Ttype;
; 860  : 	return (_STD forward<const _Ty&&>(((_Ttype&)_Tuple)._Myfirst._Val));
; 861  : 	}
; 862  : 
; 863  : 	// CONSTRUCTOR TEMPLATES FOR tuple
; 864  : template<class _This,
; 865  : 	class... _Rest>
; 866  : 	template<class _Tag,
; 867  : 		class _Tpl,
; 868  : 		size_t... _Indices,
; 869  : 		enable_if_t<is_same<_Tag, _Unpack_tuple_t>::value, int>> inline
; 870  : 		constexpr tuple<_This, _Rest...>::tuple(_Tag, _Tpl&& _Right, index_sequence<_Indices...>)
; 871  : 		: tuple(_Exact_args_t{}, _STD get<_Indices>(_STD forward<_Tpl>(_Right))...)
; 872  : 		{	// construct from unpacking a tuple/pair, using get<I>()
; 873  : 		}
; 874  : 
; 875  : template<class _This,
; 876  : 	class... _Rest>
; 877  : 	template<class _Tag,
; 878  : 		class _Alloc,
; 879  : 		class _Tpl,
; 880  : 		size_t... _Indices,
; 881  : 		enable_if_t<is_same<_Tag, _Alloc_unpack_tuple_t>::value, int>> inline
; 882  : 		tuple<_This, _Rest...>::tuple(_Tag, const _Alloc& _Al, _Tpl&& _Right, index_sequence<_Indices...>)
; 883  : 		: tuple(_Alloc_exact_args_t{}, _Al, _STD get<_Indices>(_STD forward<_Tpl>(_Right))...)
; 884  : 		{	// construct from an allocator and unpacking a tuple/pair, using get<I>()
; 885  : 		}
; 886  : 
; 887  : 	// TEMPLATE FUNCTION make_tuple
; 888  : template<class... _Types> inline
; 889  : 	constexpr tuple<typename _Unrefwrap<_Types>::type...>
; 890  : 		make_tuple(_Types&&... _Args)
; 891  : 	{	// make tuple from elements
; 892  : 	typedef tuple<typename _Unrefwrap<_Types>::type...> _Ttype;
; 893  : 	return (_Ttype(_STD forward<_Types>(_Args)...));
; 894  : 	}
; 895  : 
; 896  : 	// TEMPLATE FUNCTION tie
; 897  : template<class... _Types> inline
; 898  : 	constexpr tuple<_Types&...>
; 899  : 		tie(_Types&... _Args) _NOEXCEPT
; 900  : 	{	// make tuple from elements
; 901  : 	typedef tuple<_Types&...> _Ttype;
; 902  : 	return (_Ttype(_Args...));
; 903  : 	}
; 904  : 
; 905  : 
; 906  : 	// TEMPLATE FUNCTION forward_as_tuple
; 907  : 
; 908  : template<class... _Types> inline
; 909  : 	constexpr tuple<_Types&&...>
; 910  : 		forward_as_tuple(_Types&&... _Args) _NOEXCEPT
; 911  : 	{	// forward arguments in a tuple
; 912  : 	return (tuple<_Types&&...>(_STD forward<_Types>(_Args)...));
; 913  : 	}
; 914  : 
; 915  : 
; 916  : 	// TEMPLATE STRUCT _Cat_sequences
; 917  : template<class _Seq_type1,
; 918  : 	class _Seq_type2>
; 919  : 	struct _Cat_sequences;
; 920  : 
; 921  : template<size_t... _Indexes1,
; 922  : 	size_t... _Indexes2>
; 923  : 	struct _Cat_sequences<index_sequence<_Indexes1...>,
; 924  : 		index_sequence<_Indexes2...> >
; 925  : 	{	// concatenates two index_sequence types
; 926  : 	typedef index_sequence<_Indexes1..., _Indexes2...> type;
; 927  : 	};
; 928  : 
; 929  : 	// FORWARD DECLARATIONS
; 930  : template<class _Ty,
; 931  : 	size_t _Size>
; 932  : 	class array;
; 933  : 
; 934  : template<size_t _Idx,
; 935  : 	class _Ty,
; 936  : 	size_t _Size>
; 937  : 	constexpr _Ty& get(array<_Ty, _Size>& _Arr) _NOEXCEPT;
; 938  : 
; 939  : template<size_t _Idx,
; 940  : 	class _Ty,
; 941  : 	size_t _Size>
; 942  : 	constexpr const _Ty& get(const array<_Ty, _Size>& _Arr) _NOEXCEPT;
; 943  : 
; 944  : template<size_t _Idx,
; 945  : 	class _Ty,
; 946  : 	size_t _Size>
; 947  : 	constexpr _Ty&& get(array<_Ty, _Size>&& _Arr) _NOEXCEPT;
; 948  : 
; 949  : 	// TEMPLATE STRUCT _View_as_tuple
; 950  : template<class _Ty,
; 951  : 	class... _For_array>
; 952  : 	struct _View_as_tuple
; 953  : 	{	// tuple_cat() supports only tuples, pairs, and arrays
; 954  : 	static_assert(_Always_false<_Ty>::value,
; 955  : 		"Unsupported tuple_cat arguments.");
; 956  : 	};
; 957  : 
; 958  : template<class... _Types>
; 959  : 	struct _View_as_tuple<tuple<_Types...> >
; 960  : 	{	// view a tuple as a tuple
; 961  : 	typedef tuple<_Types...> type;
; 962  : 	};
; 963  : 
; 964  : template<class _Ty1,
; 965  : 	class _Ty2>
; 966  : 	struct _View_as_tuple<pair<_Ty1, _Ty2> >
; 967  : 	{	// view a pair as a tuple
; 968  : 	typedef tuple<_Ty1, _Ty2> type;
; 969  : 	};
; 970  : 
; 971  : template<class _Ty,
; 972  : 	class... _Types>
; 973  : 	struct _View_as_tuple<array<_Ty, 0>, _Types...>
; 974  : 	{	// view an array as a tuple; ends recursion at 0
; 975  : 	typedef tuple<_Types...> type;
; 976  : 	};
; 977  : 
; 978  : template<class _Ty,
; 979  : 	size_t _Size,
; 980  : 	class... _Types>
; 981  : 	struct _View_as_tuple<array<_Ty, _Size>, _Types...>
; 982  : 		: _View_as_tuple<array<_Ty, _Size - 1>, _Ty, _Types...>
; 983  : 	{	// view an array as a tuple; counts down to 0
; 984  : 	};
; 985  : 
; 986  : 	// TEMPLATE STRUCT _Repeat_for
; 987  : template<size_t _Nx,
; 988  : 	class _Ty>
; 989  : 	struct _Repeat_for
; 990  : 		: integral_constant<size_t, _Nx>
; 991  : 	{	// repeats _Nx for each _Ty in a parameter pack
; 992  : 	};
; 993  : 
; 994  : 	// TEMPLATE FUNCTION tuple_cat
; 995  : template<class _Ret,
; 996  : 	class _Kx_arg,
; 997  : 	class _Ix_arg,
; 998  : 	size_t _Ix_next,
; 999  : 	class... _Tuples>
; 1000 : 	struct _Tuple_cat2
; 1001 : 	{	// determine tuple_cat's return type and _Kx/_Ix indices
; 1002 : 	static_assert(sizeof...(_Tuples) == 0,
; 1003 : 		"Unsupported tuple_cat arguments.");
; 1004 : 	typedef _Ret type;
; 1005 : 	typedef _Kx_arg _Kx_arg_seq;
; 1006 : 	typedef _Ix_arg _Ix_arg_seq;
; 1007 : 	};
; 1008 : 
; 1009 : template<class... _Types1,
; 1010 : 	class _Kx_arg,
; 1011 : 	size_t... _Ix,
; 1012 : 	size_t _Ix_next,
; 1013 : 	class... _Types2,
; 1014 : 	class... _Rest>
; 1015 : 	struct _Tuple_cat2<tuple<_Types1...>, _Kx_arg,
; 1016 : 		index_sequence<_Ix...>, _Ix_next,
; 1017 : 		tuple<_Types2...>, _Rest...>
; 1018 : 		: _Tuple_cat2<
; 1019 : 			tuple<_Types1..., _Types2...>,
; 1020 : 			typename _Cat_sequences<_Kx_arg, index_sequence_for<_Types2...>>::type,
; 1021 : 			index_sequence<_Ix..., _Repeat_for<_Ix_next, _Types2>::value...>,
; 1022 : 			_Ix_next + 1,
; 1023 : 			_Rest...>
; 1024 : 	{	// determine tuple_cat's return type and _Kx/_Ix indices
; 1025 : 	};
; 1026 : 
; 1027 : template<class... _Tuples>
; 1028 : 	struct _Tuple_cat1
; 1029 : 		: _Tuple_cat2<tuple<>, index_sequence<>,
; 1030 : 				index_sequence<>, 0,
; 1031 : 			typename _View_as_tuple<typename decay<_Tuples>::type>::type...>
; 1032 : 	{	// prepare to determine tuple_cat's return type and _Kx/_Ix indices
; 1033 : 	};
; 1034 : 
; 1035 : #pragma warning(push)
; 1036 : #pragma warning(disable: 4100)	// TRANSITION, VSO#181496, unreferenced formal parameter
; 1037 : template<class _Ret,
; 1038 : 	size_t... _Kx,
; 1039 : 	size_t... _Ix,
; 1040 : 	class _Ty> inline
; 1041 : 	constexpr _Ret _Tuple_cat(index_sequence<_Kx...>,
; 1042 : 		index_sequence<_Ix...>, _Ty&& _Arg)
; 1043 : 	{	// concatenate tuples
; 1044 : 	return (_Ret(_STD get<_Kx>(_STD get<_Ix>(_STD forward<_Ty>(_Arg)))...));
; 1045 : 	}
; 1046 : #pragma warning(pop)
; 1047 : 
; 1048 : template<class... _Tuples> inline
; 1049 : 	constexpr typename _Tuple_cat1<_Tuples...>::type
; 1050 : 		tuple_cat(_Tuples&&... _Tpls)
; 1051 : 	{	// concatenate tuples
; 1052 : 	typedef _Tuple_cat1<_Tuples...> _Cat1;
; 1053 : 	return (_Tuple_cat<typename _Cat1::type>(
; 1054 : 		typename _Cat1::_Kx_arg_seq(), typename _Cat1::_Ix_arg_seq(),
; 1055 : 		_STD forward_as_tuple(_STD forward<_Tuples>(_Tpls)...)));
; 1056 : 	}
; 1057 : 
; 1058 : #if _HAS_CXX17
; 1059 : 	// FUNCTION TEMPLATE apply
; 1060 : #pragma warning(push)
; 1061 : #pragma warning(disable: 4100)	// TRANSITION, VSO#181496, unreferenced formal parameter
; 1062 : template<class _Callable,
; 1063 : 	class _Tuple,
; 1064 : 	size_t... _Indices>
; 1065 : 	constexpr decltype(auto) _Apply_impl(_Callable&& _Obj, _Tuple&& _Tpl, index_sequence<_Indices...>)
; 1066 : 	{	// invoke _Obj with the elements of _Tpl
; 1067 : 	return (_C_invoke(_STD forward<_Callable>(_Obj), _STD get<_Indices>(_STD forward<_Tuple>(_Tpl))...));
; 1068 : 	}
; 1069 : #pragma warning(pop)
; 1070 : 
; 1071 : template<class _Callable,
; 1072 : 	class _Tuple>
; 1073 : 	constexpr decltype(auto) apply(_Callable&& _Obj, _Tuple&& _Tpl)
; 1074 : 	{	// invoke _Obj with the elements of _Tpl
; 1075 : 	return (_Apply_impl(_STD forward<_Callable>(_Obj), _STD forward<_Tuple>(_Tpl),
; 1076 : 		make_index_sequence<tuple_size_v<decay_t<_Tuple>>>{}));
; 1077 : 	}
; 1078 : 
; 1079 : 	// FUNCTION TEMPLATE make_from_tuple
; 1080 : #pragma warning(push)
; 1081 : #pragma warning(disable: 4100)	// TRANSITION, VSO#181496, unreferenced formal parameter
; 1082 : template<class _Ty,
; 1083 : 	class _Tuple,
; 1084 : 	size_t... _Indices>
; 1085 : 	constexpr _Ty _Make_from_tuple_impl(_Tuple&& _Tpl, index_sequence<_Indices...>)
; 1086 : 	{	// construct _Ty from the elements of _Tpl
; 1087 : 	return (_Ty(_STD get<_Indices>(_STD forward<_Tuple>(_Tpl))...));
; 1088 : 	}
; 1089 : #pragma warning(pop)
; 1090 : 
; 1091 : template<class _Ty,
; 1092 : 	class _Tuple>
; 1093 : 	constexpr _Ty make_from_tuple(_Tuple&& _Tpl)
; 1094 : 	{	// construct _Ty from the elements of _Tpl
; 1095 : 	return (_Make_from_tuple_impl<_Ty>(_STD forward<_Tuple>(_Tpl),
; 1096 : 		make_index_sequence<tuple_size_v<decay_t<_Tuple>>>{}));
; 1097 : 	}
; 1098 : #endif /* _HAS_CXX17 */
; 1099 : 
; 1100 : 	// FUNCTION TEMPLATE _For_each_tuple_element
; 1101 : template<class _Tpl,
; 1102 : 	class _Fx,
; 1103 : 	size_t... _Indices> inline
; 1104 : 	void _For_each_tuple_element_impl(_Tpl&& _Tuple,
; 1105 : 		_Fx _Func, index_sequence<_Indices...>)
; 1106 : 	{	// call _Func() on the _Indices elements of _Tuple
; 1107 : 	int _Ignored[] = { (static_cast<void>(_Func(
; 1108 : 		_STD get<_Indices>(_STD forward<_Tpl>(_Tuple))
; 1109 : 		)), 0)... };
; 1110 : 	(void)_Ignored;
; 1111 : 	}
; 1112 : 
; 1113 : template<class _Tpl,
; 1114 : 	class _Fx> inline
; 1115 : 	void _For_each_tuple_element(_Tpl&& _Tuple, _Fx _Func)
; 1116 : 	{	// call _Func() on each element in _Tuple
; 1117 : 	_For_each_tuple_element_impl(
; 1118 : 		_STD forward<_Tpl>(_Tuple),
; 1119 : 		_Func,
; 1120 : 		make_index_sequence<tuple_size<remove_reference_t<_Tpl>>::value>()
; 1121 : 		);
; 1122 : 	}
; 1123 : 
; 1124 : 
; 1125 : #pragma warning(push)
; 1126 : #pragma warning(disable: 4100)	// TRANSITION, VSO#181496, unreferenced formal parameter
; 1127 : 	// TEMPLATE CONSTRUCTOR pair::pair(tuple, tuple, sequence, sequence)
; 1128 : template<class _Ty1,
; 1129 : 	class _Ty2>
; 1130 : 	template<class _Tuple1,
; 1131 : 		class _Tuple2,
; 1132 : 		size_t... _Indexes1,
; 1133 : 		size_t... _Indexes2> inline
; 1134 : 		pair<_Ty1, _Ty2>::pair(_Tuple1& _Val1,
; 1135 : 			_Tuple2& _Val2,
; 1136 : 			index_sequence<_Indexes1...>,
; 1137 : 			index_sequence<_Indexes2...>)
; 1138 : 		: first(_STD get<_Indexes1>(_STD move(_Val1))...),

	mov	eax, DWORD PTR [eax]
	mov	DWORD PTR [ecx], eax

; 1141 : 		}

	mov	eax, ecx
	mov	DWORD PTR [ecx+4], 0
	pop	ebp
	ret	16					; 00000010H
??$?0V?$tuple@ABQAVWindow@CEGUI@@@std@@V?$tuple@$$V@1@$0A@$$Z$S@?$pair@QAVWindow@CEGUI@@PAVSK_PopupWindow@@@std@@QAE@AAV?$tuple@ABQAVWindow@CEGUI@@@1@AAV?$tuple@$$V@1@U?$integer_sequence@I$0A@@1@U?$integer_sequence@I$S@1@@Z ENDP ; std::pair<CEGUI::Window * const,SK_PopupWindow *>::pair<CEGUI::Window * const,SK_PopupWindow *><std::tuple<CEGUI::Window * const &>,std::tuple<>,0>
_TEXT	ENDS
; Function compile flags: /Ogtp
; File c:\program files (x86)\microsoft visual studio\2017\community\vc\tools\msvc\14.10.25017\include\tuple
;	COMDAT ??$?0ABQAVWindow@CEGUI@@$$Z$$V@?$pair@QAVWindow@CEGUI@@PAVSK_PopupWindow@@@std@@QAE@Upiecewise_construct_t@1@V?$tuple@ABQAVWindow@CEGUI@@@1@V?$tuple@$$V@1@@Z
_TEXT	SEGMENT
___formal$ = 8						; size = 1
__Val1$ = 12						; size = 4
__Val2$ = 16						; size = 1
??$?0ABQAVWindow@CEGUI@@$$Z$$V@?$pair@QAVWindow@CEGUI@@PAVSK_PopupWindow@@@std@@QAE@Upiecewise_construct_t@1@V?$tuple@ABQAVWindow@CEGUI@@@1@V?$tuple@$$V@1@@Z PROC ; std::pair<CEGUI::Window * const,SK_PopupWindow *>::pair<CEGUI::Window * const,SK_PopupWindow *><CEGUI::Window * const &>, COMDAT
; _this$ = ecx

; 1155 : 		{	// construct from pair of tuples

	npad	2
	push	ebp
	mov	ebp, esp

; 1138 : 		: first(_STD get<_Indexes1>(_STD move(_Val1))...),

	mov	eax, DWORD PTR __Val1$[ebp]
	mov	eax, DWORD PTR [eax]
	mov	DWORD PTR [ecx], eax

; 1156 : 		}

	mov	eax, ecx

; 1139 : 			second(_STD get<_Indexes2>(_STD move(_Val2))...)

	mov	DWORD PTR [ecx+4], 0

; 1156 : 		}

	pop	ebp
	ret	12					; 0000000cH
??$?0ABQAVWindow@CEGUI@@$$Z$$V@?$pair@QAVWindow@CEGUI@@PAVSK_PopupWindow@@@std@@QAE@Upiecewise_construct_t@1@V?$tuple@ABQAVWindow@CEGUI@@@1@V?$tuple@$$V@1@@Z ENDP ; std::pair<CEGUI::Window * const,SK_PopupWindow *>::pair<CEGUI::Window * const,SK_PopupWindow *><CEGUI::Window * const &>
_TEXT	ENDS
; Function compile flags: /Ogtp
; File c:\program files (x86)\microsoft visual studio\2017\community\vc\tools\msvc\14.10.25017\include\type_traits
;	COMDAT ??$forward@PAVWindow@CEGUI@@@std@@YA$$QAPAVWindow@CEGUI@@AAPAV12@@Z
_TEXT	SEGMENT
__Arg$ = 8						; size = 4
??$forward@PAVWindow@CEGUI@@@std@@YA$$QAPAVWindow@CEGUI@@AAPAV12@@Z PROC ; std::forward<CEGUI::Window *>, COMDAT

; 1334 : 	{	// forward an lvalue as either an lvalue or an rvalue

	npad	2
	push	ebp
	mov	ebp, esp

; 1335 : 	return (static_cast<_Ty&&>(_Arg));

	mov	eax, DWORD PTR __Arg$[ebp]

; 1336 : 	}

	pop	ebp
	ret	0
??$forward@PAVWindow@CEGUI@@@std@@YA$$QAPAVWindow@CEGUI@@AAPAV12@@Z ENDP ; std::forward<CEGUI::Window *>
_TEXT	ENDS
; Function compile flags: /Ogtp
; File c:\program files (x86)\microsoft visual studio\2017\community\vc\tools\msvc\14.10.25017\include\type_traits
;	COMDAT ??$forward@PAVSK_PopupWindow@@@std@@YA$$QAPAVSK_PopupWindow@@AAPAV1@@Z
_TEXT	SEGMENT
__Arg$ = 8						; size = 4
??$forward@PAVSK_PopupWindow@@@std@@YA$$QAPAVSK_PopupWindow@@AAPAV1@@Z PROC ; std::forward<SK_PopupWindow *>, COMDAT

; 1334 : 	{	// forward an lvalue as either an lvalue or an rvalue

	npad	2
	push	ebp
	mov	ebp, esp

; 1335 : 	return (static_cast<_Ty&&>(_Arg));

	mov	eax, DWORD PTR __Arg$[ebp]

; 1336 : 	}

	pop	ebp
	ret	0
??$forward@PAVSK_PopupWindow@@@std@@YA$$QAPAVSK_PopupWindow@@AAPAV1@@Z ENDP ; std::forward<SK_PopupWindow *>
_TEXT	ENDS
; Function compile flags: /Ogtp
; File c:\program files (x86)\microsoft visual studio\2017\community\vc\tools\msvc\14.10.25017\include\xmemory0
; File c:\users\andon\source\repos\specialk\src\osd\popup.cpp
; File c:\program files (x86)\microsoft visual studio\2017\community\vc\tools\msvc\14.10.25017\include\tuple
; File c:\program files (x86)\microsoft visual studio\2017\community\vc\tools\msvc\14.10.25017\include\xmemory0
;	COMDAT ??$construct@U?$pair@QAVWindow@CEGUI@@PAVSK_PopupWindow@@@std@@ABUpiecewise_construct_t@2@V?$tuple@ABQAVWindow@CEGUI@@@2@V?$tuple@$$V@2@@?$allocator@U?$_Tree_node@U?$pair@QAVWindow@CEGUI@@PAVSK_PopupWindow@@@std@@PAX@std@@@std@@QAEXPAU?$pair@QAVWindow@CEGUI@@PAVSK_PopupWindow@@@1@ABUpiecewise_construct_t@1@$$QAV?$tuple@ABQAVWindow@CEGUI@@@1@$$QAV?$tuple@$$V@1@@Z
_TEXT	SEGMENT
__Ptr$ = 8						; size = 4
_<_Args_0>$ = 12					; size = 4
_<_Args_1>$ = 16					; size = 4
_<_Args_2>$ = 20					; size = 4
??$construct@U?$pair@QAVWindow@CEGUI@@PAVSK_PopupWindow@@@std@@ABUpiecewise_construct_t@2@V?$tuple@ABQAVWindow@CEGUI@@@2@V?$tuple@$$V@2@@?$allocator@U?$_Tree_node@U?$pair@QAVWindow@CEGUI@@PAVSK_PopupWindow@@@std@@PAX@std@@@std@@QAEXPAU?$pair@QAVWindow@CEGUI@@PAVSK_PopupWindow@@@1@ABUpiecewise_construct_t@1@$$QAV?$tuple@ABQAVWindow@CEGUI@@@1@$$QAV?$tuple@$$V@1@@Z PROC ; std::allocator<std::_Tree_node<std::pair<CEGUI::Window * const,SK_PopupWindow *>,void *> >::construct<std::pair<CEGUI::Window * const,SK_PopupWindow *>,std::piecewise_construct_t const &,std::tuple<CEGUI::Window * const &>,std::tuple<> >, COMDAT
; _this$ = ecx

; 839  : 		{	// construct _Objty(_Types...) at _Ptr

	npad	2
	push	ebp
	mov	ebp, esp

; 840  : 		::new ((void *)_Ptr) _Objty(_STD forward<_Types>(_Args)...);

	mov	ecx, DWORD PTR __Ptr$[ebp]
	test	ecx, ecx
	je	SHORT $LN3@construct
; File c:\users\andon\source\repos\specialk\src\osd\popup.cpp

; 264  : }

	mov	eax, DWORD PTR _<_Args_1>$[ebp]
	mov	eax, DWORD PTR [eax]
; File c:\program files (x86)\microsoft visual studio\2017\community\vc\tools\msvc\14.10.25017\include\tuple

; 1138 : 		: first(_STD get<_Indexes1>(_STD move(_Val1))...),

	mov	eax, DWORD PTR [eax]
	mov	DWORD PTR [ecx], eax

; 1139 : 			second(_STD get<_Indexes2>(_STD move(_Val2))...)

	mov	DWORD PTR [ecx+4], 0
$LN3@construct:
; File c:\program files (x86)\microsoft visual studio\2017\community\vc\tools\msvc\14.10.25017\include\xmemory0

; 841  : 		}

	pop	ebp
	ret	16					; 00000010H
??$construct@U?$pair@QAVWindow@CEGUI@@PAVSK_PopupWindow@@@std@@ABUpiecewise_construct_t@2@V?$tuple@ABQAVWindow@CEGUI@@@2@V?$tuple@$$V@2@@?$allocator@U?$_Tree_node@U?$pair@QAVWindow@CEGUI@@PAVSK_PopupWindow@@@std@@PAX@std@@@std@@QAEXPAU?$pair@QAVWindow@CEGUI@@PAVSK_PopupWindow@@@1@ABUpiecewise_construct_t@1@$$QAV?$tuple@ABQAVWindow@CEGUI@@@1@$$QAV?$tuple@$$V@1@@Z ENDP ; std::allocator<std::_Tree_node<std::pair<CEGUI::Window * const,SK_PopupWindow *>,void *> >::construct<std::pair<CEGUI::Window * const,SK_PopupWindow *>,std::piecewise_construct_t const &,std::tuple<CEGUI::Window * const &>,std::tuple<> >
_TEXT	ENDS
; Function compile flags: /Ogtp
; File c:\program files (x86)\microsoft visual studio\2017\community\vc\tools\msvc\14.10.25017\include\xmemory0
; File c:\users\andon\source\repos\specialk\src\osd\popup.cpp
; File c:\program files (x86)\microsoft visual studio\2017\community\vc\tools\msvc\14.10.25017\include\tuple
; File c:\program files (x86)\microsoft visual studio\2017\community\vc\tools\msvc\14.10.25017\include\xmemory0
;	COMDAT ??$construct@U?$pair@QAVWindow@CEGUI@@PAVSK_PopupWindow@@@std@@ABUpiecewise_construct_t@2@V?$tuple@ABQAVWindow@CEGUI@@@2@V?$tuple@$$V@2@@?$allocator_traits@V?$allocator@U?$_Tree_node@U?$pair@QAVWindow@CEGUI@@PAVSK_PopupWindow@@@std@@PAX@std@@@std@@@std@@SAXAAV?$allocator@U?$_Tree_node@U?$pair@QAVWindow@CEGUI@@PAVSK_PopupWindow@@@std@@PAX@std@@@1@PAU?$pair@QAVWindow@CEGUI@@PAVSK_PopupWindow@@@1@ABUpiecewise_construct_t@1@$$QAV?$tuple@ABQAVWindow@CEGUI@@@1@$$QAV?$tuple@$$V@1@@Z
_TEXT	SEGMENT
__Al$ = 8						; size = 4
__Ptr$ = 12						; size = 4
_<_Args_0>$ = 16					; size = 4
_<_Args_1>$ = 20					; size = 4
_<_Args_2>$ = 24					; size = 4
??$construct@U?$pair@QAVWindow@CEGUI@@PAVSK_PopupWindow@@@std@@ABUpiecewise_construct_t@2@V?$tuple@ABQAVWindow@CEGUI@@@2@V?$tuple@$$V@2@@?$allocator_traits@V?$allocator@U?$_Tree_node@U?$pair@QAVWindow@CEGUI@@PAVSK_PopupWindow@@@std@@PAX@std@@@std@@@std@@SAXAAV?$allocator@U?$_Tree_node@U?$pair@QAVWindow@CEGUI@@PAVSK_PopupWindow@@@std@@PAX@std@@@1@PAU?$pair@QAVWindow@CEGUI@@PAVSK_PopupWindow@@@1@ABUpiecewise_construct_t@1@$$QAV?$tuple@ABQAVWindow@CEGUI@@@1@$$QAV?$tuple@$$V@1@@Z PROC ; std::allocator_traits<std::allocator<std::_Tree_node<std::pair<CEGUI::Window * const,SK_PopupWindow *>,void *> > >::construct<std::pair<CEGUI::Window * const,SK_PopupWindow *>,std::piecewise_construct_t const &,std::tuple<CEGUI::Window * const &>,std::tuple<> >, COMDAT

; 958  : 		{	// construct _Objty(_Types...) at _Ptr

	npad	2
	push	ebp
	mov	ebp, esp

; 840  : 		::new ((void *)_Ptr) _Objty(_STD forward<_Types>(_Args)...);

	mov	ecx, DWORD PTR __Ptr$[ebp]
	test	ecx, ecx
	je	SHORT $LN14@construct
; File c:\users\andon\source\repos\specialk\src\osd\popup.cpp

	mov	eax, DWORD PTR _<_Args_1>$[ebp]
	mov	eax, DWORD PTR [eax]
; File c:\program files (x86)\microsoft visual studio\2017\community\vc\tools\msvc\14.10.25017\include\tuple

; 1138 : 		: first(_STD get<_Indexes1>(_STD move(_Val1))...),

	mov	eax, DWORD PTR [eax]
	mov	DWORD PTR [ecx], eax

; 1139 : 			second(_STD get<_Indexes2>(_STD move(_Val2))...)

	mov	DWORD PTR [ecx+4], 0
$LN14@construct:
; File c:\program files (x86)\microsoft visual studio\2017\community\vc\tools\msvc\14.10.25017\include\xmemory0

; 960  : 		}

	pop	ebp
	ret	0
??$construct@U?$pair@QAVWindow@CEGUI@@PAVSK_PopupWindow@@@std@@ABUpiecewise_construct_t@2@V?$tuple@ABQAVWindow@CEGUI@@@2@V?$tuple@$$V@2@@?$allocator_traits@V?$allocator@U?$_Tree_node@U?$pair@QAVWindow@CEGUI@@PAVSK_PopupWindow@@@std@@PAX@std@@@std@@@std@@SAXAAV?$allocator@U?$_Tree_node@U?$pair@QAVWindow@CEGUI@@PAVSK_PopupWindow@@@std@@PAX@std@@@1@PAU?$pair@QAVWindow@CEGUI@@PAVSK_PopupWindow@@@1@ABUpiecewise_construct_t@1@$$QAV?$tuple@ABQAVWindow@CEGUI@@@1@$$QAV?$tuple@$$V@1@@Z ENDP ; std::allocator_traits<std::allocator<std::_Tree_node<std::pair<CEGUI::Window * const,SK_PopupWindow *>,void *> > >::construct<std::pair<CEGUI::Window * const,SK_PopupWindow *>,std::piecewise_construct_t const &,std::tuple<CEGUI::Window * const &>,std::tuple<> >
_TEXT	ENDS
; Function compile flags: /Ogtp
; File c:\program files (x86)\microsoft visual studio\2017\community\vc\tools\msvc\14.10.25017\include\tuple
;	COMDAT ??$?0ABQAVWindow@CEGUI@@@?$_Tuple_val@ABQAVWindow@CEGUI@@@std@@QAE@ABQAVWindow@CEGUI@@@Z
_TEXT	SEGMENT
__Arg$ = 8						; size = 4
??$?0ABQAVWindow@CEGUI@@@?$_Tuple_val@ABQAVWindow@CEGUI@@@std@@QAE@ABQAVWindow@CEGUI@@@Z PROC ; std::_Tuple_val<CEGUI::Window * const &>::_Tuple_val<CEGUI::Window * const &><CEGUI::Window * const &>, COMDAT
; _this$ = ecx

; 165  : 		{	// construct with argument

	npad	2
	push	ebp
	mov	ebp, esp

; 164  : 		: _Val(_STD forward<_Other>(_Arg))

	mov	eax, DWORD PTR __Arg$[ebp]
	mov	DWORD PTR [ecx], eax

; 166  : 		}

	mov	eax, ecx
	pop	ebp
	ret	4
??$?0ABQAVWindow@CEGUI@@@?$_Tuple_val@ABQAVWindow@CEGUI@@@std@@QAE@ABQAVWindow@CEGUI@@@Z ENDP ; std::_Tuple_val<CEGUI::Window * const &>::_Tuple_val<CEGUI::Window * const &><CEGUI::Window * const &>
_TEXT	ENDS
; Function compile flags: /Ogtp
; File c:\program files (x86)\microsoft visual studio\2017\community\vc\tools\msvc\14.10.25017\include\tuple
;	COMDAT ??$?0U_Exact_args_t@std@@$0A@@?$tuple@$$V@std@@QAE@U_Exact_args_t@1@@Z
_TEXT	SEGMENT
___formal$ = 8						; size = 1
??$?0U_Exact_args_t@std@@$0A@@?$tuple@$$V@std@@QAE@U_Exact_args_t@1@@Z PROC ; std::tuple<>::tuple<><std::_Exact_args_t,0>, COMDAT
; _this$ = ecx

; 250  : 		}

	mov	eax, ecx
	ret	4
??$?0U_Exact_args_t@std@@$0A@@?$tuple@$$V@std@@QAE@U_Exact_args_t@1@@Z ENDP ; std::tuple<>::tuple<><std::_Exact_args_t,0>
_TEXT	ENDS
; Function compile flags: /Ogtp
; File c:\program files (x86)\microsoft visual studio\2017\community\vc\tools\msvc\14.10.25017\include\xmemory0
; File c:\program files (x86)\microsoft visual studio\2017\community\vc\tools\msvc\14.10.25017\include\utility
; File c:\program files (x86)\microsoft visual studio\2017\community\vc\tools\msvc\14.10.25017\include\xmemory0
;	COMDAT ??$construct@U?$pair@QAVWindow@CEGUI@@PAVSK_PopupWindow@@@std@@U?$pair@PAVWindow@CEGUI@@PAVSK_PopupWindow@@@2@@?$allocator@U?$_Tree_node@U?$pair@QAVWindow@CEGUI@@PAVSK_PopupWindow@@@std@@PAX@std@@@std@@QAEXPAU?$pair@QAVWindow@CEGUI@@PAVSK_PopupWindow@@@1@$$QAU?$pair@PAVWindow@CEGUI@@PAVSK_PopupWindow@@@1@@Z
_TEXT	SEGMENT
__Ptr$ = 8						; size = 4
_<_Args_0>$ = 12					; size = 4
??$construct@U?$pair@QAVWindow@CEGUI@@PAVSK_PopupWindow@@@std@@U?$pair@PAVWindow@CEGUI@@PAVSK_PopupWindow@@@2@@?$allocator@U?$_Tree_node@U?$pair@QAVWindow@CEGUI@@PAVSK_PopupWindow@@@std@@PAX@std@@@std@@QAEXPAU?$pair@QAVWindow@CEGUI@@PAVSK_PopupWindow@@@1@$$QAU?$pair@PAVWindow@CEGUI@@PAVSK_PopupWindow@@@1@@Z PROC ; std::allocator<std::_Tree_node<std::pair<CEGUI::Window * const,SK_PopupWindow *>,void *> >::construct<std::pair<CEGUI::Window * const,SK_PopupWindow *>,std::pair<CEGUI::Window *,SK_PopupWindow *> >, COMDAT
; _this$ = ecx

; 839  : 		{	// construct _Objty(_Types...) at _Ptr

	npad	2
	push	ebp
	mov	ebp, esp

; 840  : 		::new ((void *)_Ptr) _Objty(_STD forward<_Types>(_Args)...);

	mov	edx, DWORD PTR __Ptr$[ebp]
	test	edx, edx
	je	SHORT $LN3@construct
; File c:\program files (x86)\microsoft visual studio\2017\community\vc\tools\msvc\14.10.25017\include\utility

; 215  : 		: first(_STD forward<_Other1>(_Right.first)),

	mov	ecx, DWORD PTR _<_Args_0>$[ebp]
	mov	eax, DWORD PTR [ecx]
	mov	DWORD PTR [edx], eax

; 216  : 			second(_STD forward<_Other2>(_Right.second))

	mov	eax, DWORD PTR [ecx+4]
	mov	DWORD PTR [edx+4], eax
$LN3@construct:
; File c:\program files (x86)\microsoft visual studio\2017\community\vc\tools\msvc\14.10.25017\include\xmemory0

; 841  : 		}

	pop	ebp
	ret	8
??$construct@U?$pair@QAVWindow@CEGUI@@PAVSK_PopupWindow@@@std@@U?$pair@PAVWindow@CEGUI@@PAVSK_PopupWindow@@@2@@?$allocator@U?$_Tree_node@U?$pair@QAVWindow@CEGUI@@PAVSK_PopupWindow@@@std@@PAX@std@@@std@@QAEXPAU?$pair@QAVWindow@CEGUI@@PAVSK_PopupWindow@@@1@$$QAU?$pair@PAVWindow@CEGUI@@PAVSK_PopupWindow@@@1@@Z ENDP ; std::allocator<std::_Tree_node<std::pair<CEGUI::Window * const,SK_PopupWindow *>,void *> >::construct<std::pair<CEGUI::Window * const,SK_PopupWindow *>,std::pair<CEGUI::Window *,SK_PopupWindow *> >
_TEXT	ENDS
; Function compile flags: /Ogtp
; File c:\program files (x86)\microsoft visual studio\2017\community\vc\tools\msvc\14.10.25017\include\xmemory0
; File c:\program files (x86)\microsoft visual studio\2017\community\vc\tools\msvc\14.10.25017\include\utility
; File c:\program files (x86)\microsoft visual studio\2017\community\vc\tools\msvc\14.10.25017\include\xmemory0
;	COMDAT ??$construct@U?$pair@QAVSK_PopupWindow@@PAVWindow@CEGUI@@@std@@U?$pair@PAVSK_PopupWindow@@PAVWindow@CEGUI@@@2@@?$allocator@U?$_Tree_node@U?$pair@QAVSK_PopupWindow@@PAVWindow@CEGUI@@@std@@PAX@std@@@std@@QAEXPAU?$pair@QAVSK_PopupWindow@@PAVWindow@CEGUI@@@1@$$QAU?$pair@PAVSK_PopupWindow@@PAVWindow@CEGUI@@@1@@Z
_TEXT	SEGMENT
__Ptr$ = 8						; size = 4
_<_Args_0>$ = 12					; size = 4
??$construct@U?$pair@QAVSK_PopupWindow@@PAVWindow@CEGUI@@@std@@U?$pair@PAVSK_PopupWindow@@PAVWindow@CEGUI@@@2@@?$allocator@U?$_Tree_node@U?$pair@QAVSK_PopupWindow@@PAVWindow@CEGUI@@@std@@PAX@std@@@std@@QAEXPAU?$pair@QAVSK_PopupWindow@@PAVWindow@CEGUI@@@1@$$QAU?$pair@PAVSK_PopupWindow@@PAVWindow@CEGUI@@@1@@Z PROC ; std::allocator<std::_Tree_node<std::pair<SK_PopupWindow * const,CEGUI::Window *>,void *> >::construct<std::pair<SK_PopupWindow * const,CEGUI::Window *>,std::pair<SK_PopupWindow *,CEGUI::Window *> >, COMDAT
; _this$ = ecx

; 839  : 		{	// construct _Objty(_Types...) at _Ptr

	npad	2
	push	ebp
	mov	ebp, esp

; 840  : 		::new ((void *)_Ptr) _Objty(_STD forward<_Types>(_Args)...);

	mov	edx, DWORD PTR __Ptr$[ebp]
	test	edx, edx
	je	SHORT $LN3@construct
; File c:\program files (x86)\microsoft visual studio\2017\community\vc\tools\msvc\14.10.25017\include\utility

; 215  : 		: first(_STD forward<_Other1>(_Right.first)),

	mov	ecx, DWORD PTR _<_Args_0>$[ebp]
	mov	eax, DWORD PTR [ecx]
	mov	DWORD PTR [edx], eax

; 216  : 			second(_STD forward<_Other2>(_Right.second))

	mov	eax, DWORD PTR [ecx+4]
	mov	DWORD PTR [edx+4], eax
$LN3@construct:
; File c:\program files (x86)\microsoft visual studio\2017\community\vc\tools\msvc\14.10.25017\include\xmemory0

; 841  : 		}

	pop	ebp
	ret	8
??$construct@U?$pair@QAVSK_PopupWindow@@PAVWindow@CEGUI@@@std@@U?$pair@PAVSK_PopupWindow@@PAVWindow@CEGUI@@@2@@?$allocator@U?$_Tree_node@U?$pair@QAVSK_PopupWindow@@PAVWindow@CEGUI@@@std@@PAX@std@@@std@@QAEXPAU?$pair@QAVSK_PopupWindow@@PAVWindow@CEGUI@@@1@$$QAU?$pair@PAVSK_PopupWindow@@PAVWindow@CEGUI@@@1@@Z ENDP ; std::allocator<std::_Tree_node<std::pair<SK_PopupWindow * const,CEGUI::Window *>,void *> >::construct<std::pair<SK_PopupWindow * const,CEGUI::Window *>,std::pair<SK_PopupWindow *,CEGUI::Window *> >
_TEXT	ENDS
; Function compile flags: /Ogtp
; File c:\program files (x86)\microsoft visual studio\2017\community\vc\tools\msvc\14.10.25017\include\xmemory0
; File c:\users\andon\source\repos\specialk\src\osd\popup.cpp
; File c:\program files (x86)\microsoft visual studio\2017\community\vc\tools\msvc\14.10.25017\include\tuple
; File c:\program files (x86)\microsoft visual studio\2017\community\vc\tools\msvc\14.10.25017\include\xmemory0
;	COMDAT ??$construct@U?$pair@QAVWindow@CEGUI@@PAVSK_PopupWindow@@@std@@ABUpiecewise_construct_t@2@V?$tuple@ABQAVWindow@CEGUI@@@2@V?$tuple@$$V@2@@?$_Wrap_alloc@V?$allocator@U?$_Tree_node@U?$pair@QAVWindow@CEGUI@@PAVSK_PopupWindow@@@std@@PAX@std@@@std@@@std@@QAEXPAU?$pair@QAVWindow@CEGUI@@PAVSK_PopupWindow@@@1@ABUpiecewise_construct_t@1@$$QAV?$tuple@ABQAVWindow@CEGUI@@@1@$$QAV?$tuple@$$V@1@@Z
_TEXT	SEGMENT
__Ptr$ = 8						; size = 4
_<_Args_0>$ = 12					; size = 4
_<_Args_1>$ = 16					; size = 4
_<_Args_2>$ = 20					; size = 4
??$construct@U?$pair@QAVWindow@CEGUI@@PAVSK_PopupWindow@@@std@@ABUpiecewise_construct_t@2@V?$tuple@ABQAVWindow@CEGUI@@@2@V?$tuple@$$V@2@@?$_Wrap_alloc@V?$allocator@U?$_Tree_node@U?$pair@QAVWindow@CEGUI@@PAVSK_PopupWindow@@@std@@PAX@std@@@std@@@std@@QAEXPAU?$pair@QAVWindow@CEGUI@@PAVSK_PopupWindow@@@1@ABUpiecewise_construct_t@1@$$QAV?$tuple@ABQAVWindow@CEGUI@@@1@$$QAV?$tuple@$$V@1@@Z PROC ; std::_Wrap_alloc<std::allocator<std::_Tree_node<std::pair<CEGUI::Window * const,SK_PopupWindow *>,void *> > >::construct<std::pair<CEGUI::Window * const,SK_PopupWindow *>,std::piecewise_construct_t const &,std::tuple<CEGUI::Window * const &>,std::tuple<> >, COMDAT
; _this$ = ecx

; 1095 : 		{	// construct _Ty(_Types...) at _Ptr

	npad	2
	push	ebp
	mov	ebp, esp

; 840  : 		::new ((void *)_Ptr) _Objty(_STD forward<_Types>(_Args)...);

	mov	ecx, DWORD PTR __Ptr$[ebp]
	test	ecx, ecx
	je	SHORT $LN25@construct
; File c:\users\andon\source\repos\specialk\src\osd\popup.cpp

	mov	eax, DWORD PTR _<_Args_1>$[ebp]
	mov	eax, DWORD PTR [eax]
; File c:\program files (x86)\microsoft visual studio\2017\community\vc\tools\msvc\14.10.25017\include\tuple

; 1138 : 		: first(_STD get<_Indexes1>(_STD move(_Val1))...),

	mov	eax, DWORD PTR [eax]
	mov	DWORD PTR [ecx], eax

; 1139 : 			second(_STD get<_Indexes2>(_STD move(_Val2))...)

	mov	DWORD PTR [ecx+4], 0
$LN25@construct:
; File c:\program files (x86)\microsoft visual studio\2017\community\vc\tools\msvc\14.10.25017\include\xmemory0

; 1098 : 		}

	pop	ebp
	ret	16					; 00000010H
??$construct@U?$pair@QAVWindow@CEGUI@@PAVSK_PopupWindow@@@std@@ABUpiecewise_construct_t@2@V?$tuple@ABQAVWindow@CEGUI@@@2@V?$tuple@$$V@2@@?$_Wrap_alloc@V?$allocator@U?$_Tree_node@U?$pair@QAVWindow@CEGUI@@PAVSK_PopupWindow@@@std@@PAX@std@@@std@@@std@@QAEXPAU?$pair@QAVWindow@CEGUI@@PAVSK_PopupWindow@@@1@ABUpiecewise_construct_t@1@$$QAV?$tuple@ABQAVWindow@CEGUI@@@1@$$QAV?$tuple@$$V@1@@Z ENDP ; std::_Wrap_alloc<std::allocator<std::_Tree_node<std::pair<CEGUI::Window * const,SK_PopupWindow *>,void *> > >::construct<std::pair<CEGUI::Window * const,SK_PopupWindow *>,std::piecewise_construct_t const &,std::tuple<CEGUI::Window * const &>,std::tuple<> >
_TEXT	ENDS
; Function compile flags: /Ogtp
; File c:\program files (x86)\microsoft visual studio\2017\community\vc\tools\msvc\14.10.25017\include\tuple
;	COMDAT ??$?0U_Exact_args_t@std@@ABQAVWindow@CEGUI@@$$V$0A@@?$tuple@ABQAVWindow@CEGUI@@@std@@QAE@U_Exact_args_t@1@ABQAVWindow@CEGUI@@@Z
_TEXT	SEGMENT
___formal$ = 8						; size = 1
__This_arg$ = 12					; size = 4
??$?0U_Exact_args_t@std@@ABQAVWindow@CEGUI@@$$V$0A@@?$tuple@ABQAVWindow@CEGUI@@@std@@QAE@U_Exact_args_t@1@ABQAVWindow@CEGUI@@@Z PROC ; std::tuple<CEGUI::Window * const &>::tuple<CEGUI::Window * const &><std::_Exact_args_t,CEGUI::Window * const &,0>, COMDAT
; _this$ = ecx

; 292  : 		{	// construct from one arg per element

	npad	2
	push	ebp
	mov	ebp, esp

; 164  : 		: _Val(_STD forward<_Other>(_Arg))

	mov	eax, DWORD PTR __This_arg$[ebp]
	mov	DWORD PTR [ecx], eax

; 293  : 		}

	mov	eax, ecx
	pop	ebp
	ret	8
??$?0U_Exact_args_t@std@@ABQAVWindow@CEGUI@@$$V$0A@@?$tuple@ABQAVWindow@CEGUI@@@std@@QAE@U_Exact_args_t@1@ABQAVWindow@CEGUI@@@Z ENDP ; std::tuple<CEGUI::Window * const &>::tuple<CEGUI::Window * const &><std::_Exact_args_t,CEGUI::Window * const &,0>
_TEXT	ENDS
; Function compile flags: /Ogtp
; File c:\program files (x86)\microsoft visual studio\2017\community\vc\tools\msvc\14.10.25017\include\xtree
;	COMDAT ??$_Buynode_if_nil@AAU?$pair@QAVWindow@CEGUI@@PAVSK_PopupWindow@@@std@@@?$_Tree@V?$_Tmap_traits@PAVWindow@CEGUI@@PAVSK_PopupWindow@@U?$less@PAVWindow@CEGUI@@@std@@V?$allocator@U?$pair@QAVWindow@CEGUI@@PAVSK_PopupWindow@@@std@@@5@$0A@@std@@@std@@IAEPAU?$_Tree_node@U?$pair@QAVWindow@CEGUI@@PAVSK_PopupWindow@@@std@@PAX@1@PAU21@AAU?$pair@QAVWindow@CEGUI@@PAVSK_PopupWindow@@@1@@Z
_TEXT	SEGMENT
__Node$ = 8						; size = 4
___formal$ = 12						; size = 4
??$_Buynode_if_nil@AAU?$pair@QAVWindow@CEGUI@@PAVSK_PopupWindow@@@std@@@?$_Tree@V?$_Tmap_traits@PAVWindow@CEGUI@@PAVSK_PopupWindow@@U?$less@PAVWindow@CEGUI@@@std@@V?$allocator@U?$pair@QAVWindow@CEGUI@@PAVSK_PopupWindow@@@std@@@5@$0A@@std@@@std@@IAEPAU?$_Tree_node@U?$pair@QAVWindow@CEGUI@@PAVSK_PopupWindow@@@std@@PAX@1@PAU21@AAU?$pair@QAVWindow@CEGUI@@PAVSK_PopupWindow@@@1@@Z PROC ; std::_Tree<std::_Tmap_traits<CEGUI::Window *,SK_PopupWindow *,std::less<CEGUI::Window *>,std::allocator<std::pair<CEGUI::Window * const,SK_PopupWindow *> >,0> >::_Buynode_if_nil<std::pair<CEGUI::Window * const,SK_PopupWindow *> &>, COMDAT
; _this$ = ecx

; 1637 : 		{	// node exists, just return it

	npad	2
	push	ebp
	mov	ebp, esp

; 1638 : 		return (_Node);

	mov	eax, DWORD PTR __Node$[ebp]

; 1639 : 		}

	pop	ebp
	ret	8
??$_Buynode_if_nil@AAU?$pair@QAVWindow@CEGUI@@PAVSK_PopupWindow@@@std@@@?$_Tree@V?$_Tmap_traits@PAVWindow@CEGUI@@PAVSK_PopupWindow@@U?$less@PAVWindow@CEGUI@@@std@@V?$allocator@U?$pair@QAVWindow@CEGUI@@PAVSK_PopupWindow@@@std@@@5@$0A@@std@@@std@@IAEPAU?$_Tree_node@U?$pair@QAVWindow@CEGUI@@PAVSK_PopupWindow@@@std@@PAX@1@PAU21@AAU?$pair@QAVWindow@CEGUI@@PAVSK_PopupWindow@@@1@@Z ENDP ; std::_Tree<std::_Tmap_traits<CEGUI::Window *,SK_PopupWindow *,std::less<CEGUI::Window *>,std::allocator<std::pair<CEGUI::Window * const,SK_PopupWindow *> >,0> >::_Buynode_if_nil<std::pair<CEGUI::Window * const,SK_PopupWindow *> &>
_TEXT	ENDS
; Function compile flags: /Ogtp
; File c:\program files (x86)\microsoft visual studio\2017\community\vc\tools\msvc\14.10.25017\include\xmemory0
; File c:\program files (x86)\microsoft visual studio\2017\community\vc\tools\msvc\14.10.25017\include\utility
; File c:\program files (x86)\microsoft visual studio\2017\community\vc\tools\msvc\14.10.25017\include\xmemory0
;	COMDAT ??$construct@U?$pair@QAVWindow@CEGUI@@PAVSK_PopupWindow@@@std@@U?$pair@PAVWindow@CEGUI@@PAVSK_PopupWindow@@@2@@?$allocator_traits@V?$allocator@U?$_Tree_node@U?$pair@QAVWindow@CEGUI@@PAVSK_PopupWindow@@@std@@PAX@std@@@std@@@std@@SAXAAV?$allocator@U?$_Tree_node@U?$pair@QAVWindow@CEGUI@@PAVSK_PopupWindow@@@std@@PAX@std@@@1@PAU?$pair@QAVWindow@CEGUI@@PAVSK_PopupWindow@@@1@$$QAU?$pair@PAVWindow@CEGUI@@PAVSK_PopupWindow@@@1@@Z
_TEXT	SEGMENT
__Al$ = 8						; size = 4
__Ptr$ = 12						; size = 4
_<_Args_0>$ = 16					; size = 4
??$construct@U?$pair@QAVWindow@CEGUI@@PAVSK_PopupWindow@@@std@@U?$pair@PAVWindow@CEGUI@@PAVSK_PopupWindow@@@2@@?$allocator_traits@V?$allocator@U?$_Tree_node@U?$pair@QAVWindow@CEGUI@@PAVSK_PopupWindow@@@std@@PAX@std@@@std@@@std@@SAXAAV?$allocator@U?$_Tree_node@U?$pair@QAVWindow@CEGUI@@PAVSK_PopupWindow@@@std@@PAX@std@@@1@PAU?$pair@QAVWindow@CEGUI@@PAVSK_PopupWindow@@@1@$$QAU?$pair@PAVWindow@CEGUI@@PAVSK_PopupWindow@@@1@@Z PROC ; std::allocator_traits<std::allocator<std::_Tree_node<std::pair<CEGUI::Window * const,SK_PopupWindow *>,void *> > >::construct<std::pair<CEGUI::Window * const,SK_PopupWindow *>,std::pair<CEGUI::Window *,SK_PopupWindow *> >, COMDAT

; 958  : 		{	// construct _Objty(_Types...) at _Ptr

	npad	2
	push	ebp
	mov	ebp, esp

; 840  : 		::new ((void *)_Ptr) _Objty(_STD forward<_Types>(_Args)...);

	mov	edx, DWORD PTR __Ptr$[ebp]
	test	edx, edx
	je	SHORT $LN8@construct
; File c:\program files (x86)\microsoft visual studio\2017\community\vc\tools\msvc\14.10.25017\include\utility

; 215  : 		: first(_STD forward<_Other1>(_Right.first)),

	mov	ecx, DWORD PTR _<_Args_0>$[ebp]
	mov	eax, DWORD PTR [ecx]
	mov	DWORD PTR [edx], eax

; 216  : 			second(_STD forward<_Other2>(_Right.second))

	mov	eax, DWORD PTR [ecx+4]
	mov	DWORD PTR [edx+4], eax
$LN8@construct:
; File c:\program files (x86)\microsoft visual studio\2017\community\vc\tools\msvc\14.10.25017\include\xmemory0

; 960  : 		}

	pop	ebp
	ret	0
??$construct@U?$pair@QAVWindow@CEGUI@@PAVSK_PopupWindow@@@std@@U?$pair@PAVWindow@CEGUI@@PAVSK_PopupWindow@@@2@@?$allocator_traits@V?$allocator@U?$_Tree_node@U?$pair@QAVWindow@CEGUI@@PAVSK_PopupWindow@@@std@@PAX@std@@@std@@@std@@SAXAAV?$allocator@U?$_Tree_node@U?$pair@QAVWindow@CEGUI@@PAVSK_PopupWindow@@@std@@PAX@std@@@1@PAU?$pair@QAVWindow@CEGUI@@PAVSK_PopupWindow@@@1@$$QAU?$pair@PAVWindow@CEGUI@@PAVSK_PopupWindow@@@1@@Z ENDP ; std::allocator_traits<std::allocator<std::_Tree_node<std::pair<CEGUI::Window * const,SK_PopupWindow *>,void *> > >::construct<std::pair<CEGUI::Window * const,SK_PopupWindow *>,std::pair<CEGUI::Window *,SK_PopupWindow *> >
_TEXT	ENDS
; Function compile flags: /Ogtp
; File c:\program files (x86)\microsoft visual studio\2017\community\vc\tools\msvc\14.10.25017\include\type_traits
;	COMDAT ??$forward@V?$_Tree_iterator@V?$_Tree_val@U?$_Tree_simple_types@U?$pair@QAVSK_PopupWindow@@PAVWindow@CEGUI@@@std@@@std@@@std@@@std@@@std@@YA$$QAV?$_Tree_iterator@V?$_Tree_val@U?$_Tree_simple_types@U?$pair@QAVSK_PopupWindow@@PAVWindow@CEGUI@@@std@@@std@@@std@@@0@AAV10@@Z
_TEXT	SEGMENT
__Arg$ = 8						; size = 4
??$forward@V?$_Tree_iterator@V?$_Tree_val@U?$_Tree_simple_types@U?$pair@QAVSK_PopupWindow@@PAVWindow@CEGUI@@@std@@@std@@@std@@@std@@@std@@YA$$QAV?$_Tree_iterator@V?$_Tree_val@U?$_Tree_simple_types@U?$pair@QAVSK_PopupWindow@@PAVWindow@CEGUI@@@std@@@std@@@std@@@0@AAV10@@Z PROC ; std::forward<std::_Tree_iterator<std::_Tree_val<std::_Tree_simple_types<std::pair<SK_PopupWindow * const,CEGUI::Window *> > > > >, COMDAT

; 1334 : 	{	// forward an lvalue as either an lvalue or an rvalue

	npad	2
	push	ebp
	mov	ebp, esp

; 1335 : 	return (static_cast<_Ty&&>(_Arg));

	mov	eax, DWORD PTR __Arg$[ebp]

; 1336 : 	}

	pop	ebp
	ret	0
??$forward@V?$_Tree_iterator@V?$_Tree_val@U?$_Tree_simple_types@U?$pair@QAVSK_PopupWindow@@PAVWindow@CEGUI@@@std@@@std@@@std@@@std@@@std@@YA$$QAV?$_Tree_iterator@V?$_Tree_val@U?$_Tree_simple_types@U?$pair@QAVSK_PopupWindow@@PAVWindow@CEGUI@@@std@@@std@@@std@@@0@AAV10@@Z ENDP ; std::forward<std::_Tree_iterator<std::_Tree_val<std::_Tree_simple_types<std::pair<SK_PopupWindow * const,CEGUI::Window *> > > > >
_TEXT	ENDS
; Function compile flags: /Ogtp
; File c:\program files (x86)\microsoft visual studio\2017\community\vc\tools\msvc\14.10.25017\include\xtree
;	COMDAT ??$_Buynode_if_nil@AAU?$pair@QAVSK_PopupWindow@@PAVWindow@CEGUI@@@std@@@?$_Tree@V?$_Tmap_traits@PAVSK_PopupWindow@@PAVWindow@CEGUI@@U?$less@PAVSK_PopupWindow@@@std@@V?$allocator@U?$pair@QAVSK_PopupWindow@@PAVWindow@CEGUI@@@std@@@5@$0A@@std@@@std@@IAEPAU?$_Tree_node@U?$pair@QAVSK_PopupWindow@@PAVWindow@CEGUI@@@std@@PAX@1@PAU21@AAU?$pair@QAVSK_PopupWindow@@PAVWindow@CEGUI@@@1@@Z
_TEXT	SEGMENT
__Node$ = 8						; size = 4
___formal$ = 12						; size = 4
??$_Buynode_if_nil@AAU?$pair@QAVSK_PopupWindow@@PAVWindow@CEGUI@@@std@@@?$_Tree@V?$_Tmap_traits@PAVSK_PopupWindow@@PAVWindow@CEGUI@@U?$less@PAVSK_PopupWindow@@@std@@V?$allocator@U?$pair@QAVSK_PopupWindow@@PAVWindow@CEGUI@@@std@@@5@$0A@@std@@@std@@IAEPAU?$_Tree_node@U?$pair@QAVSK_PopupWindow@@PAVWindow@CEGUI@@@std@@PAX@1@PAU21@AAU?$pair@QAVSK_PopupWindow@@PAVWindow@CEGUI@@@1@@Z PROC ; std::_Tree<std::_Tmap_traits<SK_PopupWindow *,CEGUI::Window *,std::less<SK_PopupWindow *>,std::allocator<std::pair<SK_PopupWindow * const,CEGUI::Window *> >,0> >::_Buynode_if_nil<std::pair<SK_PopupWindow * const,CEGUI::Window *> &>, COMDAT
; _this$ = ecx

; 1637 : 		{	// node exists, just return it

	npad	2
	push	ebp
	mov	ebp, esp

; 1638 : 		return (_Node);

	mov	eax, DWORD PTR __Node$[ebp]

; 1639 : 		}

	pop	ebp
	ret	8
??$_Buynode_if_nil@AAU?$pair@QAVSK_PopupWindow@@PAVWindow@CEGUI@@@std@@@?$_Tree@V?$_Tmap_traits@PAVSK_PopupWindow@@PAVWindow@CEGUI@@U?$less@PAVSK_PopupWindow@@@std@@V?$allocator@U?$pair@QAVSK_PopupWindow@@PAVWindow@CEGUI@@@std@@@5@$0A@@std@@@std@@IAEPAU?$_Tree_node@U?$pair@QAVSK_PopupWindow@@PAVWindow@CEGUI@@@std@@PAX@1@PAU21@AAU?$pair@QAVSK_PopupWindow@@PAVWindow@CEGUI@@@1@@Z ENDP ; std::_Tree<std::_Tmap_traits<SK_PopupWindow *,CEGUI::Window *,std::less<SK_PopupWindow *>,std::allocator<std::pair<SK_PopupWindow * const,CEGUI::Window *> >,0> >::_Buynode_if_nil<std::pair<SK_PopupWindow * const,CEGUI::Window *> &>
_TEXT	ENDS
; Function compile flags: /Ogtp
; File c:\program files (x86)\microsoft visual studio\2017\community\vc\tools\msvc\14.10.25017\include\xmemory0
; File c:\program files (x86)\microsoft visual studio\2017\community\vc\tools\msvc\14.10.25017\include\utility
; File c:\program files (x86)\microsoft visual studio\2017\community\vc\tools\msvc\14.10.25017\include\xmemory0
;	COMDAT ??$construct@U?$pair@QAVSK_PopupWindow@@PAVWindow@CEGUI@@@std@@U?$pair@PAVSK_PopupWindow@@PAVWindow@CEGUI@@@2@@?$allocator_traits@V?$allocator@U?$_Tree_node@U?$pair@QAVSK_PopupWindow@@PAVWindow@CEGUI@@@std@@PAX@std@@@std@@@std@@SAXAAV?$allocator@U?$_Tree_node@U?$pair@QAVSK_PopupWindow@@PAVWindow@CEGUI@@@std@@PAX@std@@@1@PAU?$pair@QAVSK_PopupWindow@@PAVWindow@CEGUI@@@1@$$QAU?$pair@PAVSK_PopupWindow@@PAVWindow@CEGUI@@@1@@Z
_TEXT	SEGMENT
__Al$ = 8						; size = 4
__Ptr$ = 12						; size = 4
_<_Args_0>$ = 16					; size = 4
??$construct@U?$pair@QAVSK_PopupWindow@@PAVWindow@CEGUI@@@std@@U?$pair@PAVSK_PopupWindow@@PAVWindow@CEGUI@@@2@@?$allocator_traits@V?$allocator@U?$_Tree_node@U?$pair@QAVSK_PopupWindow@@PAVWindow@CEGUI@@@std@@PAX@std@@@std@@@std@@SAXAAV?$allocator@U?$_Tree_node@U?$pair@QAVSK_PopupWindow@@PAVWindow@CEGUI@@@std@@PAX@std@@@1@PAU?$pair@QAVSK_PopupWindow@@PAVWindow@CEGUI@@@1@$$QAU?$pair@PAVSK_PopupWindow@@PAVWindow@CEGUI@@@1@@Z PROC ; std::allocator_traits<std::allocator<std::_Tree_node<std::pair<SK_PopupWindow * const,CEGUI::Window *>,void *> > >::construct<std::pair<SK_PopupWindow * const,CEGUI::Window *>,std::pair<SK_PopupWindow *,CEGUI::Window *> >, COMDAT

; 958  : 		{	// construct _Objty(_Types...) at _Ptr

	npad	2
	push	ebp
	mov	ebp, esp

; 840  : 		::new ((void *)_Ptr) _Objty(_STD forward<_Types>(_Args)...);

	mov	edx, DWORD PTR __Ptr$[ebp]
	test	edx, edx
	je	SHORT $LN8@construct
; File c:\program files (x86)\microsoft visual studio\2017\community\vc\tools\msvc\14.10.25017\include\utility

; 215  : 		: first(_STD forward<_Other1>(_Right.first)),

	mov	ecx, DWORD PTR _<_Args_0>$[ebp]
	mov	eax, DWORD PTR [ecx]
	mov	DWORD PTR [edx], eax

; 216  : 			second(_STD forward<_Other2>(_Right.second))

	mov	eax, DWORD PTR [ecx+4]
	mov	DWORD PTR [edx+4], eax
$LN8@construct:
; File c:\program files (x86)\microsoft visual studio\2017\community\vc\tools\msvc\14.10.25017\include\xmemory0

; 960  : 		}

	pop	ebp
	ret	0
??$construct@U?$pair@QAVSK_PopupWindow@@PAVWindow@CEGUI@@@std@@U?$pair@PAVSK_PopupWindow@@PAVWindow@CEGUI@@@2@@?$allocator_traits@V?$allocator@U?$_Tree_node@U?$pair@QAVSK_PopupWindow@@PAVWindow@CEGUI@@@std@@PAX@std@@@std@@@std@@SAXAAV?$allocator@U?$_Tree_node@U?$pair@QAVSK_PopupWindow@@PAVWindow@CEGUI@@@std@@PAX@std@@@1@PAU?$pair@QAVSK_PopupWindow@@PAVWindow@CEGUI@@@1@$$QAU?$pair@PAVSK_PopupWindow@@PAVWindow@CEGUI@@@1@@Z ENDP ; std::allocator_traits<std::allocator<std::_Tree_node<std::pair<SK_PopupWindow * const,CEGUI::Window *>,void *> > >::construct<std::pair<SK_PopupWindow * const,CEGUI::Window *>,std::pair<SK_PopupWindow *,CEGUI::Window *> >
_TEXT	ENDS
; Function compile flags: /Ogtp
; File c:\program files (x86)\microsoft visual studio\2017\community\vc\tools\msvc\14.10.25017\include\type_traits
;	COMDAT ??$forward@_N@std@@YA$$QA_NAA_N@Z
_TEXT	SEGMENT
__Arg$ = 8						; size = 4
??$forward@_N@std@@YA$$QA_NAA_N@Z PROC			; std::forward<bool>, COMDAT

; 1334 : 	{	// forward an lvalue as either an lvalue or an rvalue

	npad	2
	push	ebp
	mov	ebp, esp

; 1335 : 	return (static_cast<_Ty&&>(_Arg));

	mov	eax, DWORD PTR __Arg$[ebp]

; 1336 : 	}

	pop	ebp
	ret	0
??$forward@_N@std@@YA$$QA_NAA_N@Z ENDP			; std::forward<bool>
_TEXT	ENDS
; Function compile flags: /Ogtp
; File c:\program files (x86)\microsoft visual studio\2017\community\vc\tools\msvc\14.10.25017\include\type_traits
;	COMDAT ??$forward@V?$_Tree_iterator@V?$_Tree_val@U?$_Tree_simple_types@U?$pair@QAVWindow@CEGUI@@PAVSK_PopupWindow@@@std@@@std@@@std@@@std@@@std@@YA$$QAV?$_Tree_iterator@V?$_Tree_val@U?$_Tree_simple_types@U?$pair@QAVWindow@CEGUI@@PAVSK_PopupWindow@@@std@@@std@@@std@@@0@AAV10@@Z
_TEXT	SEGMENT
__Arg$ = 8						; size = 4
??$forward@V?$_Tree_iterator@V?$_Tree_val@U?$_Tree_simple_types@U?$pair@QAVWindow@CEGUI@@PAVSK_PopupWindow@@@std@@@std@@@std@@@std@@@std@@YA$$QAV?$_Tree_iterator@V?$_Tree_val@U?$_Tree_simple_types@U?$pair@QAVWindow@CEGUI@@PAVSK_PopupWindow@@@std@@@std@@@std@@@0@AAV10@@Z PROC ; std::forward<std::_Tree_iterator<std::_Tree_val<std::_Tree_simple_types<std::pair<CEGUI::Window * const,SK_PopupWindow *> > > > >, COMDAT

; 1334 : 	{	// forward an lvalue as either an lvalue or an rvalue

	npad	2
	push	ebp
	mov	ebp, esp

; 1335 : 	return (static_cast<_Ty&&>(_Arg));

	mov	eax, DWORD PTR __Arg$[ebp]

; 1336 : 	}

	pop	ebp
	ret	0
??$forward@V?$_Tree_iterator@V?$_Tree_val@U?$_Tree_simple_types@U?$pair@QAVWindow@CEGUI@@PAVSK_PopupWindow@@@std@@@std@@@std@@@std@@@std@@YA$$QAV?$_Tree_iterator@V?$_Tree_val@U?$_Tree_simple_types@U?$pair@QAVWindow@CEGUI@@PAVSK_PopupWindow@@@std@@@std@@@std@@@0@AAV10@@Z ENDP ; std::forward<std::_Tree_iterator<std::_Tree_val<std::_Tree_simple_types<std::pair<CEGUI::Window * const,SK_PopupWindow *> > > > >
_TEXT	ENDS
; Function compile flags: /Ogtp
; File c:\program files (x86)\microsoft visual studio\2017\community\vc\tools\msvc\14.10.25017\include\xtree
; File c:\program files (x86)\microsoft visual studio\2017\community\vc\tools\msvc\14.10.25017\include\xstddef
; File c:\program files (x86)\microsoft visual studio\2017\community\vc\tools\msvc\14.10.25017\include\xtree
; File c:\program files (x86)\microsoft visual studio\2017\community\vc\tools\msvc\14.10.25017\include\map
; File c:\program files (x86)\microsoft visual studio\2017\community\vc\tools\msvc\14.10.25017\include\xstddef
; File c:\program files (x86)\microsoft visual studio\2017\community\vc\tools\msvc\14.10.25017\include\xtree
; File c:\program files (x86)\microsoft visual studio\2017\community\vc\tools\msvc\14.10.25017\include\xstddef
; File c:\program files (x86)\microsoft visual studio\2017\community\vc\tools\msvc\14.10.25017\include\xtree
; File c:\program files (x86)\microsoft visual studio\2017\community\vc\tools\msvc\14.10.25017\include\xstddef
; File c:\program files (x86)\microsoft visual studio\2017\community\vc\tools\msvc\14.10.25017\include\xtree
; File c:\program files (x86)\microsoft visual studio\2017\community\vc\tools\msvc\14.10.25017\include\xstddef
; File c:\program files (x86)\microsoft visual studio\2017\community\vc\tools\msvc\14.10.25017\include\xtree
; File c:\program files (x86)\microsoft visual studio\2017\community\vc\tools\msvc\14.10.25017\include\xstddef
; File c:\program files (x86)\microsoft visual studio\2017\community\vc\tools\msvc\14.10.25017\include\xtree
;	COMDAT ??$_Insert_hint@AAU?$pair@QAVWindow@CEGUI@@PAVSK_PopupWindow@@@std@@PAU?$_Tree_node@U?$pair@QAVWindow@CEGUI@@PAVSK_PopupWindow@@@std@@PAX@2@@?$_Tree@V?$_Tmap_traits@PAVWindow@CEGUI@@PAVSK_PopupWindow@@U?$less@PAVWindow@CEGUI@@@std@@V?$allocator@U?$pair@QAVWindow@CEGUI@@PAVSK_PopupWindow@@@std@@@5@$0A@@std@@@std@@IAE?AV?$_Tree_iterator@V?$_Tree_val@U?$_Tree_simple_types@U?$pair@QAVWindow@CEGUI@@PAVSK_PopupWindow@@@std@@@std@@@std@@@1@V?$_Tree_const_iterator@V?$_Tree_val@U?$_Tree_simple_types@U?$pair@QAVWindow@CEGUI@@PAVSK_PopupWindow@@@std@@@std@@@std@@@1@AAU?$pair@QAVWindow@CEGUI@@PAVSK_PopupWindow@@@1@PAU?$_Tree_node@U?$pair@QAVWindow@CEGUI@@PAVSK_PopupWindow@@@std@@PAX@1@@Z
_TEXT	SEGMENT
$T2 = -32						; size = 8
_this$ = -28						; size = 4
tv1433 = -24						; size = 4
__Next$ = -20						; size = 4
__$EHRec$ = -16						; size = 16
___$ReturnUdt$ = 8					; size = 4
__Where$ = 12						; size = 4
__Val$ = 16						; size = 4
__Newnode$ = 20						; size = 4
??$_Insert_hint@AAU?$pair@QAVWindow@CEGUI@@PAVSK_PopupWindow@@@std@@PAU?$_Tree_node@U?$pair@QAVWindow@CEGUI@@PAVSK_PopupWindow@@@std@@PAX@2@@?$_Tree@V?$_Tmap_traits@PAVWindow@CEGUI@@PAVSK_PopupWindow@@U?$less@PAVWindow@CEGUI@@@std@@V?$allocator@U?$pair@QAVWindow@CEGUI@@PAVSK_PopupWindow@@@std@@@5@$0A@@std@@@std@@IAE?AV?$_Tree_iterator@V?$_Tree_val@U?$_Tree_simple_types@U?$pair@QAVWindow@CEGUI@@PAVSK_PopupWindow@@@std@@@std@@@std@@@1@V?$_Tree_const_iterator@V?$_Tree_val@U?$_Tree_simple_types@U?$pair@QAVWindow@CEGUI@@PAVSK_PopupWindow@@@std@@@std@@@std@@@1@AAU?$pair@QAVWindow@CEGUI@@PAVSK_PopupWindow@@@1@PAU?$_Tree_node@U?$pair@QAVWindow@CEGUI@@PAVSK_PopupWindow@@@std@@PAX@1@@Z PROC ; std::_Tree<std::_Tmap_traits<CEGUI::Window *,SK_PopupWindow *,std::less<CEGUI::Window *>,std::allocator<std::pair<CEGUI::Window * const,SK_PopupWindow *> >,0> >::_Insert_hint<std::pair<CEGUI::Window * const,SK_PopupWindow *> &,std::_Tree_node<std::pair<CEGUI::Window * const,SK_PopupWindow *>,void *> *>, COMDAT
; _this$ = ecx

; 1663 : 		{	// try to insert node using _Where as a hint

	npad	2
	push	ebp
	mov	ebp, esp
	push	-1
	push	__ehhandler$??$_Insert_hint@AAU?$pair@QAVWindow@CEGUI@@PAVSK_PopupWindow@@@std@@PAU?$_Tree_node@U?$pair@QAVWindow@CEGUI@@PAVSK_PopupWindow@@@std@@PAX@2@@?$_Tree@V?$_Tmap_traits@PAVWindow@CEGUI@@PAVSK_PopupWindow@@U?$less@PAVWindow@CEGUI@@@std@@V?$allocator@U?$pair@QAVWindow@CEGUI@@PAVSK_PopupWindow@@@std@@@5@$0A@@std@@@std@@IAE?AV?$_Tree_iterator@V?$_Tree_val@U?$_Tree_simple_types@U?$pair@QAVWindow@CEGUI@@PAVSK_PopupWindow@@@std@@@std@@@std@@@1@V?$_Tree_const_iterator@V?$_Tree_val@U?$_Tree_simple_types@U?$pair@QAVWindow@CEGUI@@PAVSK_PopupWindow@@@std@@@std@@@std@@@1@AAU?$pair@QAVWindow@CEGUI@@PAVSK_PopupWindow@@@1@PAU?$_Tree_node@U?$pair@QAVWindow@CEGUI@@PAVSK_PopupWindow@@@std@@PAX@1@@Z
	mov	eax, DWORD PTR fs:0
	push	eax
	mov	DWORD PTR fs:0, esp
	sub	esp, 20					; 00000014H
	push	ebx
	mov	ebx, ecx

; 1664 : 		const_iterator _Next;
; 1665 : 		bool _Leftish = false;	// assume nearest point is end of sequence
; 1666 : 
; 1667 : 		_TRY_BEGIN

	mov	DWORD PTR __$EHRec$[ebp+12], 0
	push	esi
	push	edi
	mov	DWORD PTR __$EHRec$[ebp], esp

; 1668 : 
; 1669 :  #if _ITERATOR_DEBUG_LEVEL == 2
; 1670 : 		if (_Where._Getcont() != _STD addressof(this->_Get_data()))
; 1671 : 			{
; 1672 : 			_DEBUG_ERROR("map/set insert iterator outside range");
; 1673 : 			}
; 1674 :  #endif /* _ITERATOR_DEBUG_LEVEL == 2 */
; 1675 : 
; 1676 : #pragma warning(push)
; 1677 : #pragma warning(disable: 4127)	// conditional expression is constant
; 1678 : 		if (size() == 0)

	cmp	DWORD PTR [ebx+4], 0
	mov	DWORD PTR _this$[ebp], ebx
	jne	SHORT $LN3@Insert_hin

; 1679 : 			return (_Insert_at(true, this->_Myhead(),

	push	DWORD PTR __Newnode$[ebp]
	mov	esi, DWORD PTR ___$ReturnUdt$[ebp]
	push	DWORD PTR __Val$[ebp]
	push	DWORD PTR [ebx]
	push	1
	push	esi
	call	??$_Insert_at@AAU?$pair@QAVWindow@CEGUI@@PAVSK_PopupWindow@@@std@@PAU?$_Tree_node@U?$pair@QAVWindow@CEGUI@@PAVSK_PopupWindow@@@std@@PAX@2@@?$_Tree@V?$_Tmap_traits@PAVWindow@CEGUI@@PAVSK_PopupWindow@@U?$less@PAVWindow@CEGUI@@@std@@V?$allocator@U?$pair@QAVWindow@CEGUI@@PAVSK_PopupWindow@@@std@@@5@$0A@@std@@@std@@IAE?AV?$_Tree_iterator@V?$_Tree_val@U?$_Tree_simple_types@U?$pair@QAVWindow@CEGUI@@PAVSK_PopupWindow@@@std@@@std@@@std@@@1@_NPAU?$_Tree_node@U?$pair@QAVWindow@CEGUI@@PAVSK_PopupWindow@@@std@@PAX@1@AAU?$pair@QAVWindow@CEGUI@@PAVSK_PopupWindow@@@1@1@Z ; std::_Tree<std::_Tmap_traits<CEGUI::Window *,SK_PopupWindow *,std::less<CEGUI::Window *>,std::allocator<std::pair<CEGUI::Window * const,SK_PopupWindow *> >,0> >::_Insert_at<std::pair<CEGUI::Window * const,SK_PopupWindow *> &,std::_Tree_node<std::pair<CEGUI::Window * const,SK_PopupWindow *>,void *> *>
	mov	eax, esi

; 1777 : 			_STD forward<_Valty>(_Val), _Newnode).first);
; 1778 : 		}

	mov	ecx, DWORD PTR __$EHRec$[ebp+4]
	mov	DWORD PTR fs:0, ecx
	pop	edi
	pop	esi
	pop	ebx
	mov	esp, ebp
	pop	ebp
	ret	16					; 00000010H
$LN3@Insert_hin:

; 581  : 		return ((_Nodepref)_Pnode->_Left);

	mov	edi, DWORD PTR [ebx]

; 331  : 		return (this->_Ptr == _Right._Ptr);

	mov	esi, DWORD PTR __Where$[ebp]
	cmp	esi, DWORD PTR [edi]

; 1680 : 				_STD forward<_Valty>(_Val), _Newnode));	// empty tree
; 1681 : 		else if (this->_Multi)
; 1682 : 			{	// insert even if duplicate
; 1683 : 			if (_Where == begin())
; 1684 : 				{	// insert at beginning if before first element
; 1685 : 				if (!_DEBUG_LT_PRED(this->_Getcomp(),
; 1686 : 					this->_Key(_Where._Mynode()), this->_Kfn(_Val)))
; 1687 : 					return (_Insert_at(true, _Where._Mynode(),
; 1688 : 						_STD forward<_Valty>(_Val), _Newnode));
; 1689 : 				_Leftish = true;	// nearest point is beginning of sequence
; 1690 : 				}
; 1691 : 			else if (_Where == end())
; 1692 : 				{	// insert at end if after last element
; 1693 : 				if (!_DEBUG_LT_PRED(this->_Getcomp(),
; 1694 : 					this->_Kfn(_Val), this->_Key(_Rmost())))
; 1695 : 					return (_Insert_at(false, _Rmost(),
; 1696 : 						_STD forward<_Valty>(_Val), _Newnode));
; 1697 : 				}
; 1698 : 			else if (!_DEBUG_LT_PRED(this->_Getcomp(),
; 1699 : 				this->_Key(_Where._Mynode()), this->_Kfn(_Val))
; 1700 : 				&& !_DEBUG_LT_PRED(this->_Getcomp(),
; 1701 : 					this->_Kfn(_Val),
; 1702 : 					this->_Key((--(_Next = _Where))._Mynode())))
; 1703 : 				{	// insert before _Where
; 1704 : 				if (this->_Isnil(this->_Right(_Next._Mynode())))
; 1705 : 					return (_Insert_at(false, _Next._Mynode(),
; 1706 : 						_STD forward<_Valty>(_Val), _Newnode));
; 1707 : 				else
; 1708 : 					return (_Insert_at(true, _Where._Mynode(),
; 1709 : 						_STD forward<_Valty>(_Val), _Newnode));
; 1710 : 				}
; 1711 : 			else if (!_DEBUG_LT_PRED(this->_Getcomp(),
; 1712 : 				this->_Kfn(_Val), this->_Key(_Where._Mynode()))
; 1713 : 				&& (++(_Next = _Where) == end()
; 1714 : 					|| !_DEBUG_LT_PRED(this->_Getcomp(),
; 1715 : 						this->_Key(_Next._Mynode()), this->_Kfn(_Val))))
; 1716 : 				{	// insert after _Where
; 1717 : 				if (this->_Isnil(this->_Right(_Where._Mynode())))
; 1718 : 					return (_Insert_at(false, _Where._Mynode(),
; 1719 : 						_STD forward<_Valty>(_Val), _Newnode));
; 1720 : 				else
; 1721 : 					return (_Insert_at(true, _Next._Mynode(),
; 1722 : 						_STD forward<_Valty>(_Val), _Newnode));
; 1723 : 				}
; 1724 : 			else
; 1725 : 				_Leftish = true;	// nearest point is beginning of sequence
; 1726 : 			}
; 1727 : 		else
; 1728 : 			{	// insert only if unique
; 1729 : 			if (_Where == begin())

	jne	SHORT $LN22@Insert_hin
; File c:\program files (x86)\microsoft visual studio\2017\community\vc\tools\msvc\14.10.25017\include\xstddef

; 234  : 		return (_Left < _Right);

	mov	ecx, DWORD PTR __Val$[ebp]
	mov	eax, DWORD PTR [ecx]
	cmp	eax, DWORD PTR [esi+16]
; File c:\program files (x86)\microsoft visual studio\2017\community\vc\tools\msvc\14.10.25017\include\xtree

; 1731 : 				if (_DEBUG_LT_PRED(this->_Getcomp(),

	jae	$LN35@Insert_hin

; 1732 : 					this->_Kfn(_Val), this->_Key(_Where._Mynode())))
; 1733 : 					return (_Insert_at(true, _Where._Mynode(),

	push	DWORD PTR __Newnode$[ebp]
	push	ecx
	push	esi
	mov	esi, DWORD PTR ___$ReturnUdt$[ebp]
	mov	ecx, ebx
	push	1
	push	esi
	call	??$_Insert_at@AAU?$pair@QAVWindow@CEGUI@@PAVSK_PopupWindow@@@std@@PAU?$_Tree_node@U?$pair@QAVWindow@CEGUI@@PAVSK_PopupWindow@@@std@@PAX@2@@?$_Tree@V?$_Tmap_traits@PAVWindow@CEGUI@@PAVSK_PopupWindow@@U?$less@PAVWindow@CEGUI@@@std@@V?$allocator@U?$pair@QAVWindow@CEGUI@@PAVSK_PopupWindow@@@std@@@5@$0A@@std@@@std@@IAE?AV?$_Tree_iterator@V?$_Tree_val@U?$_Tree_simple_types@U?$pair@QAVWindow@CEGUI@@PAVSK_PopupWindow@@@std@@@std@@@std@@@1@_NPAU?$_Tree_node@U?$pair@QAVWindow@CEGUI@@PAVSK_PopupWindow@@@std@@PAX@1@AAU?$pair@QAVWindow@CEGUI@@PAVSK_PopupWindow@@@1@1@Z ; std::_Tree<std::_Tmap_traits<CEGUI::Window *,SK_PopupWindow *,std::less<CEGUI::Window *>,std::allocator<std::pair<CEGUI::Window * const,SK_PopupWindow *> >,0> >::_Insert_at<std::pair<CEGUI::Window * const,SK_PopupWindow *> &,std::_Tree_node<std::pair<CEGUI::Window * const,SK_PopupWindow *>,void *> *>
	mov	eax, esi

; 1777 : 			_STD forward<_Valty>(_Val), _Newnode).first);
; 1778 : 		}

	mov	ecx, DWORD PTR __$EHRec$[ebp+4]
	mov	DWORD PTR fs:0, ecx
	pop	edi
	pop	esi
	pop	ebx
	mov	esp, ebp
	pop	ebp
	ret	16					; 00000010H
$LN22@Insert_hin:

; 331  : 		return (this->_Ptr == _Right._Ptr);

	cmp	esi, edi

; 1734 : 						_STD forward<_Valty>(_Val), _Newnode));
; 1735 : 				}
; 1736 : 			else if (_Where == end())

	jne	SHORT $LN25@Insert_hin
; File c:\program files (x86)\microsoft visual studio\2017\community\vc\tools\msvc\14.10.25017\include\map

; 63   : 		return (_Val.first);

	mov	edx, DWORD PTR [edi+8]
; File c:\program files (x86)\microsoft visual studio\2017\community\vc\tools\msvc\14.10.25017\include\xstddef

; 234  : 		return (_Left < _Right);

	mov	ecx, DWORD PTR __Val$[ebp]
	mov	eax, DWORD PTR [edx+16]
	cmp	eax, DWORD PTR [ecx]
; File c:\program files (x86)\microsoft visual studio\2017\community\vc\tools\msvc\14.10.25017\include\xtree

; 1738 : 				if (_DEBUG_LT_PRED(this->_Getcomp(),

	jae	$LN35@Insert_hin

; 1739 : 					this->_Key(_Rmost()), this->_Kfn(_Val)))
; 1740 : 					return (_Insert_at(false, _Rmost(),

	push	DWORD PTR __Newnode$[ebp]
	mov	esi, DWORD PTR ___$ReturnUdt$[ebp]
	push	ecx
	push	edx
	push	0
	push	esi
	mov	ecx, ebx
	call	??$_Insert_at@AAU?$pair@QAVWindow@CEGUI@@PAVSK_PopupWindow@@@std@@PAU?$_Tree_node@U?$pair@QAVWindow@CEGUI@@PAVSK_PopupWindow@@@std@@PAX@2@@?$_Tree@V?$_Tmap_traits@PAVWindow@CEGUI@@PAVSK_PopupWindow@@U?$less@PAVWindow@CEGUI@@@std@@V?$allocator@U?$pair@QAVWindow@CEGUI@@PAVSK_PopupWindow@@@std@@@5@$0A@@std@@@std@@IAE?AV?$_Tree_iterator@V?$_Tree_val@U?$_Tree_simple_types@U?$pair@QAVWindow@CEGUI@@PAVSK_PopupWindow@@@std@@@std@@@std@@@1@_NPAU?$_Tree_node@U?$pair@QAVWindow@CEGUI@@PAVSK_PopupWindow@@@std@@PAX@1@AAU?$pair@QAVWindow@CEGUI@@PAVSK_PopupWindow@@@1@1@Z ; std::_Tree<std::_Tmap_traits<CEGUI::Window *,SK_PopupWindow *,std::less<CEGUI::Window *>,std::allocator<std::pair<CEGUI::Window * const,SK_PopupWindow *> >,0> >::_Insert_at<std::pair<CEGUI::Window * const,SK_PopupWindow *> &,std::_Tree_node<std::pair<CEGUI::Window * const,SK_PopupWindow *>,void *> *>
	mov	eax, esi

; 1777 : 			_STD forward<_Valty>(_Val), _Newnode).first);
; 1778 : 		}

	mov	ecx, DWORD PTR __$EHRec$[ebp+4]
	mov	DWORD PTR fs:0, ecx
	pop	edi
	pop	esi
	pop	ebx
	mov	esp, ebp
	pop	ebp
	ret	16					; 00000010H
$LN25@Insert_hin:
; File c:\program files (x86)\microsoft visual studio\2017\community\vc\tools\msvc\14.10.25017\include\xstddef

; 234  : 		return (_Left < _Right);

	mov	eax, DWORD PTR __Val$[ebp]
	mov	ecx, DWORD PTR [esi+16]
	mov	eax, DWORD PTR [eax]
	mov	DWORD PTR tv1433[ebp], eax
	cmp	ecx, eax
; File c:\program files (x86)\microsoft visual studio\2017\community\vc\tools\msvc\14.10.25017\include\xtree

; 1745 : 				&& _DEBUG_LT_PRED(this->_Getcomp(),

	jbe	SHORT $LN775@Insert_hin

; 306  : 		--static_cast<_Mybase&>(*this);

	lea	ecx, DWORD PTR __Next$[ebp]

; 1745 : 				&& _DEBUG_LT_PRED(this->_Getcomp(),

	mov	DWORD PTR __Next$[ebp], esi

; 306  : 		--static_cast<_Mybase&>(*this);

	call	??F?$_Tree_unchecked_const_iterator@V?$_Tree_val@U?$_Tree_simple_types@U?$pair@QAVWindow@CEGUI@@PAVSK_PopupWindow@@@std@@@std@@@std@@U_Iterator_base0@2@@std@@QAEAAV01@XZ ; std::_Tree_unchecked_const_iterator<std::_Tree_val<std::_Tree_simple_types<std::pair<CEGUI::Window * const,SK_PopupWindow *> > >,std::_Iterator_base0>::operator--
; File c:\program files (x86)\microsoft visual studio\2017\community\vc\tools\msvc\14.10.25017\include\xstddef

; 234  : 		return (_Left < _Right);

	mov	eax, DWORD PTR __Next$[ebp]
	mov	ecx, DWORD PTR tv1433[ebp]
	cmp	DWORD PTR [eax+16], ecx
; File c:\program files (x86)\microsoft visual studio\2017\community\vc\tools\msvc\14.10.25017\include\xtree

; 1745 : 				&& _DEBUG_LT_PRED(this->_Getcomp(),

	jae	SHORT $LN772@Insert_hin

; 1746 : 					this->_Key((--(_Next = _Where))._Mynode()),
; 1747 : 					this->_Kfn(_Val)))
; 1748 : 				{	// insert before _Where
; 1749 : 				if (this->_Isnil(this->_Right(_Next._Mynode())))

	mov	ecx, DWORD PTR [eax+8]

; 1750 : 					return (_Insert_at(false, _Next._Mynode(),

	push	DWORD PTR __Newnode$[ebp]
	push	DWORD PTR __Val$[ebp]
	cmp	BYTE PTR [ecx+13], 0
	mov	ecx, ebx
	je	SHORT $LN30@Insert_hin
	mov	esi, DWORD PTR ___$ReturnUdt$[ebp]
	push	eax
	push	0
	push	esi
	call	??$_Insert_at@AAU?$pair@QAVWindow@CEGUI@@PAVSK_PopupWindow@@@std@@PAU?$_Tree_node@U?$pair@QAVWindow@CEGUI@@PAVSK_PopupWindow@@@std@@PAX@2@@?$_Tree@V?$_Tmap_traits@PAVWindow@CEGUI@@PAVSK_PopupWindow@@U?$less@PAVWindow@CEGUI@@@std@@V?$allocator@U?$pair@QAVWindow@CEGUI@@PAVSK_PopupWindow@@@std@@@5@$0A@@std@@@std@@IAE?AV?$_Tree_iterator@V?$_Tree_val@U?$_Tree_simple_types@U?$pair@QAVWindow@CEGUI@@PAVSK_PopupWindow@@@std@@@std@@@std@@@1@_NPAU?$_Tree_node@U?$pair@QAVWindow@CEGUI@@PAVSK_PopupWindow@@@std@@PAX@1@AAU?$pair@QAVWindow@CEGUI@@PAVSK_PopupWindow@@@1@1@Z ; std::_Tree<std::_Tmap_traits<CEGUI::Window *,SK_PopupWindow *,std::less<CEGUI::Window *>,std::allocator<std::pair<CEGUI::Window * const,SK_PopupWindow *> >,0> >::_Insert_at<std::pair<CEGUI::Window * const,SK_PopupWindow *> &,std::_Tree_node<std::pair<CEGUI::Window * const,SK_PopupWindow *>,void *> *>
	mov	eax, esi

; 1777 : 			_STD forward<_Valty>(_Val), _Newnode).first);
; 1778 : 		}

	mov	ecx, DWORD PTR __$EHRec$[ebp+4]
	mov	DWORD PTR fs:0, ecx
	pop	edi
	pop	esi
	pop	ebx
	mov	esp, ebp
	pop	ebp
	ret	16					; 00000010H
$LN30@Insert_hin:

; 1751 : 						_STD forward<_Valty>(_Val), _Newnode));
; 1752 : 				else
; 1753 : 					return (_Insert_at(true, _Where._Mynode(),

	push	esi
	mov	esi, DWORD PTR ___$ReturnUdt$[ebp]
	push	1
	push	esi
	call	??$_Insert_at@AAU?$pair@QAVWindow@CEGUI@@PAVSK_PopupWindow@@@std@@PAU?$_Tree_node@U?$pair@QAVWindow@CEGUI@@PAVSK_PopupWindow@@@std@@PAX@2@@?$_Tree@V?$_Tmap_traits@PAVWindow@CEGUI@@PAVSK_PopupWindow@@U?$less@PAVWindow@CEGUI@@@std@@V?$allocator@U?$pair@QAVWindow@CEGUI@@PAVSK_PopupWindow@@@std@@@5@$0A@@std@@@std@@IAE?AV?$_Tree_iterator@V?$_Tree_val@U?$_Tree_simple_types@U?$pair@QAVWindow@CEGUI@@PAVSK_PopupWindow@@@std@@@std@@@std@@@1@_NPAU?$_Tree_node@U?$pair@QAVWindow@CEGUI@@PAVSK_PopupWindow@@@std@@PAX@1@AAU?$pair@QAVWindow@CEGUI@@PAVSK_PopupWindow@@@1@1@Z ; std::_Tree<std::_Tmap_traits<CEGUI::Window *,SK_PopupWindow *,std::less<CEGUI::Window *>,std::allocator<std::pair<CEGUI::Window * const,SK_PopupWindow *> >,0> >::_Insert_at<std::pair<CEGUI::Window * const,SK_PopupWindow *> &,std::_Tree_node<std::pair<CEGUI::Window * const,SK_PopupWindow *>,void *> *>
	mov	eax, esi

; 1777 : 			_STD forward<_Valty>(_Val), _Newnode).first);
; 1778 : 		}

	mov	ecx, DWORD PTR __$EHRec$[ebp+4]
	mov	DWORD PTR fs:0, ecx
	pop	edi
	pop	esi
	pop	ebx
	mov	esp, ebp
	pop	ebp
	ret	16					; 00000010H
$LN772@Insert_hin:
	mov	eax, ecx
	mov	ecx, DWORD PTR [esi+16]
; File c:\program files (x86)\microsoft visual studio\2017\community\vc\tools\msvc\14.10.25017\include\xstddef

; 234  : 		return (_Left < _Right);

	cmp	ecx, eax
$LN775@Insert_hin:
; File c:\program files (x86)\microsoft visual studio\2017\community\vc\tools\msvc\14.10.25017\include\xtree

; 1758 : 				&& (++(_Next = _Where) == end()

	jae	$LN35@Insert_hin

; 271  : 		++static_cast<_Mybase&>(*this);

	lea	ecx, DWORD PTR __Next$[ebp]

; 1758 : 				&& (++(_Next = _Where) == end()

	mov	DWORD PTR __Next$[ebp], esi

; 271  : 		++static_cast<_Mybase&>(*this);

	call	??E?$_Tree_unchecked_const_iterator@V?$_Tree_val@U?$_Tree_simple_types@U?$pair@QAVWindow@CEGUI@@PAVSK_PopupWindow@@@std@@@std@@@std@@U_Iterator_base0@2@@std@@QAEAAV01@XZ ; std::_Tree_unchecked_const_iterator<std::_Tree_val<std::_Tree_simple_types<std::pair<CEGUI::Window * const,SK_PopupWindow *> > >,std::_Iterator_base0>::operator++

; 331  : 		return (this->_Ptr == _Right._Ptr);

	mov	eax, DWORD PTR __Next$[ebp]
	cmp	eax, edi

; 1758 : 				&& (++(_Next = _Where) == end()

	je	SHORT $LN33@Insert_hin
; File c:\program files (x86)\microsoft visual studio\2017\community\vc\tools\msvc\14.10.25017\include\xstddef

; 234  : 		return (_Left < _Right);

	mov	ecx, DWORD PTR tv1433[ebp]
	cmp	ecx, DWORD PTR [eax+16]
; File c:\program files (x86)\microsoft visual studio\2017\community\vc\tools\msvc\14.10.25017\include\xtree

; 1758 : 				&& (++(_Next = _Where) == end()

	jae	SHORT $LN35@Insert_hin
$LN33@Insert_hin:

; 1759 : 					|| _DEBUG_LT_PRED(this->_Getcomp(),
; 1760 : 						this->_Kfn(_Val), this->_Key(_Next._Mynode()))))
; 1761 : 				{	// insert after _Where
; 1762 : 				if (this->_Isnil(this->_Right(_Where._Mynode())))

	mov	ecx, DWORD PTR [esi+8]

; 1763 : 					return (_Insert_at(false, _Where._Mynode(),

	push	DWORD PTR __Newnode$[ebp]
	push	DWORD PTR __Val$[ebp]
	cmp	BYTE PTR [ecx+13], 0
	mov	ecx, ebx
	je	SHORT $LN34@Insert_hin
	push	esi
	mov	esi, DWORD PTR ___$ReturnUdt$[ebp]
	push	0
	push	esi
	call	??$_Insert_at@AAU?$pair@QAVWindow@CEGUI@@PAVSK_PopupWindow@@@std@@PAU?$_Tree_node@U?$pair@QAVWindow@CEGUI@@PAVSK_PopupWindow@@@std@@PAX@2@@?$_Tree@V?$_Tmap_traits@PAVWindow@CEGUI@@PAVSK_PopupWindow@@U?$less@PAVWindow@CEGUI@@@std@@V?$allocator@U?$pair@QAVWindow@CEGUI@@PAVSK_PopupWindow@@@std@@@5@$0A@@std@@@std@@IAE?AV?$_Tree_iterator@V?$_Tree_val@U?$_Tree_simple_types@U?$pair@QAVWindow@CEGUI@@PAVSK_PopupWindow@@@std@@@std@@@std@@@1@_NPAU?$_Tree_node@U?$pair@QAVWindow@CEGUI@@PAVSK_PopupWindow@@@std@@PAX@1@AAU?$pair@QAVWindow@CEGUI@@PAVSK_PopupWindow@@@1@1@Z ; std::_Tree<std::_Tmap_traits<CEGUI::Window *,SK_PopupWindow *,std::less<CEGUI::Window *>,std::allocator<std::pair<CEGUI::Window * const,SK_PopupWindow *> >,0> >::_Insert_at<std::pair<CEGUI::Window * const,SK_PopupWindow *> &,std::_Tree_node<std::pair<CEGUI::Window * const,SK_PopupWindow *>,void *> *>
	mov	eax, esi

; 1777 : 			_STD forward<_Valty>(_Val), _Newnode).first);
; 1778 : 		}

	mov	ecx, DWORD PTR __$EHRec$[ebp+4]
	mov	DWORD PTR fs:0, ecx
	pop	edi
	pop	esi
	pop	ebx
	mov	esp, ebp
	pop	ebp
	ret	16					; 00000010H
$LN34@Insert_hin:

; 1764 : 						_STD forward<_Valty>(_Val), _Newnode));
; 1765 : 				else
; 1766 : 					return (_Insert_at(true, _Next._Mynode(),

	mov	esi, DWORD PTR ___$ReturnUdt$[ebp]
	push	eax
	push	1
	push	esi
	call	??$_Insert_at@AAU?$pair@QAVWindow@CEGUI@@PAVSK_PopupWindow@@@std@@PAU?$_Tree_node@U?$pair@QAVWindow@CEGUI@@PAVSK_PopupWindow@@@std@@PAX@2@@?$_Tree@V?$_Tmap_traits@PAVWindow@CEGUI@@PAVSK_PopupWindow@@U?$less@PAVWindow@CEGUI@@@std@@V?$allocator@U?$pair@QAVWindow@CEGUI@@PAVSK_PopupWindow@@@std@@@5@$0A@@std@@@std@@IAE?AV?$_Tree_iterator@V?$_Tree_val@U?$_Tree_simple_types@U?$pair@QAVWindow@CEGUI@@PAVSK_PopupWindow@@@std@@@std@@@std@@@1@_NPAU?$_Tree_node@U?$pair@QAVWindow@CEGUI@@PAVSK_PopupWindow@@@std@@PAX@1@AAU?$pair@QAVWindow@CEGUI@@PAVSK_PopupWindow@@@1@1@Z ; std::_Tree<std::_Tmap_traits<CEGUI::Window *,SK_PopupWindow *,std::less<CEGUI::Window *>,std::allocator<std::pair<CEGUI::Window * const,SK_PopupWindow *> >,0> >::_Insert_at<std::pair<CEGUI::Window * const,SK_PopupWindow *> &,std::_Tree_node<std::pair<CEGUI::Window * const,SK_PopupWindow *>,void *> *>
	mov	eax, esi

; 1777 : 			_STD forward<_Valty>(_Val), _Newnode).first);
; 1778 : 		}

	mov	ecx, DWORD PTR __$EHRec$[ebp+4]
	mov	DWORD PTR fs:0, ecx
	pop	edi
	pop	esi
	pop	ebx
	mov	esp, ebp
	pop	ebp
	ret	16					; 00000010H
__catch$??$_Insert_hint@AAU?$pair@QAVWindow@CEGUI@@PAVSK_PopupWindow@@@std@@PAU?$_Tree_node@U?$pair@QAVWindow@CEGUI@@PAVSK_PopupWindow@@@std@@PAX@2@@?$_Tree@V?$_Tmap_traits@PAVWindow@CEGUI@@PAVSK_PopupWindow@@U?$less@PAVWindow@CEGUI@@@std@@V?$allocator@U?$pair@QAVWindow@CEGUI@@PAVSK_PopupWindow@@@std@@@5@$0A@@std@@@std@@IAE?AV?$_Tree_iterator@V?$_Tree_val@U?$_Tree_simple_types@U?$pair@QAVWindow@CEGUI@@PAVSK_PopupWindow@@@std@@@std@@@std@@@1@V?$_Tree_const_iterator@V?$_Tree_val@U?$_Tree_simple_types@U?$pair@QAVWindow@CEGUI@@PAVSK_PopupWindow@@@std@@@std@@@std@@@1@AAU?$pair@QAVWindow@CEGUI@@PAVSK_PopupWindow@@@1@PAU?$_Tree_node@U?$pair@QAVWindow@CEGUI@@PAVSK_PopupWindow@@@std@@PAX@1@@Z$0:

; 1767 : 						_STD forward<_Valty>(_Val), _Newnode));
; 1768 : 				}
; 1769 : 			}
; 1770 : #pragma warning(pop)
; 1771 : 		_CATCH_ALL
; 1772 : 		_Destroy_if_not_nil(_Newnode);

	push	DWORD PTR __Newnode$[ebp]
	mov	ecx, DWORD PTR _this$[ebp]
	call	?_Destroy_if_not_nil@?$_Tree@V?$_Tmap_traits@PAVWindow@CEGUI@@PAVSK_PopupWindow@@U?$less@PAVWindow@CEGUI@@@std@@V?$allocator@U?$pair@QAVWindow@CEGUI@@PAVSK_PopupWindow@@@std@@@5@$0A@@std@@@std@@IAEXPAU?$_Tree_node@U?$pair@QAVWindow@CEGUI@@PAVSK_PopupWindow@@@std@@PAX@2@@Z ; std::_Tree<std::_Tmap_traits<CEGUI::Window *,SK_PopupWindow *,std::less<CEGUI::Window *>,std::allocator<std::pair<CEGUI::Window * const,SK_PopupWindow *> >,0> >::_Destroy_if_not_nil

; 1773 : 		_RERAISE;

	push	0
	push	0
	call	__CxxThrowException@8
$LN776@Insert_hin:
$LN35@Insert_hin:

; 1774 : 		_CATCH_END
; 1775 : 
; 1776 : 		return (_Insert_nohint(_Leftish,

	push	DWORD PTR __Newnode$[ebp]
	lea	eax, DWORD PTR $T2[ebp]
	mov	DWORD PTR __$EHRec$[ebp+12], -1
	push	DWORD PTR __Val$[ebp]
	mov	ecx, ebx
	push	0
	push	eax
	call	??$_Insert_nohint@AAU?$pair@QAVWindow@CEGUI@@PAVSK_PopupWindow@@@std@@PAU?$_Tree_node@U?$pair@QAVWindow@CEGUI@@PAVSK_PopupWindow@@@std@@PAX@2@@?$_Tree@V?$_Tmap_traits@PAVWindow@CEGUI@@PAVSK_PopupWindow@@U?$less@PAVWindow@CEGUI@@@std@@V?$allocator@U?$pair@QAVWindow@CEGUI@@PAVSK_PopupWindow@@@std@@@5@$0A@@std@@@std@@IAE?AU?$pair@V?$_Tree_iterator@V?$_Tree_val@U?$_Tree_simple_types@U?$pair@QAVWindow@CEGUI@@PAVSK_PopupWindow@@@std@@@std@@@std@@@std@@_N@1@_NAAU?$pair@QAVWindow@CEGUI@@PAVSK_PopupWindow@@@1@PAU?$_Tree_node@U?$pair@QAVWindow@CEGUI@@PAVSK_PopupWindow@@@std@@PAX@1@@Z ; std::_Tree<std::_Tmap_traits<CEGUI::Window *,SK_PopupWindow *,std::less<CEGUI::Window *>,std::allocator<std::pair<CEGUI::Window * const,SK_PopupWindow *> >,0> >::_Insert_nohint<std::pair<CEGUI::Window * const,SK_PopupWindow *> &,std::_Tree_node<std::pair<CEGUI::Window * const,SK_PopupWindow *>,void *> *>
	pop	edi
	pop	esi
	pop	ebx
	mov	ecx, DWORD PTR [eax]
	mov	eax, DWORD PTR ___$ReturnUdt$[ebp]
	mov	DWORD PTR [eax], ecx
	mov	ecx, DWORD PTR __$EHRec$[ebp+4]
	mov	DWORD PTR fs:0, ecx

; 1777 : 			_STD forward<_Valty>(_Val), _Newnode).first);
; 1778 : 		}

	mov	esp, ebp
	pop	ebp
	ret	16					; 00000010H
$LN774@Insert_hin:
_TEXT	ENDS
;	COMDAT text$x
text$x	SEGMENT
__ehhandler$??$_Insert_hint@AAU?$pair@QAVWindow@CEGUI@@PAVSK_PopupWindow@@@std@@PAU?$_Tree_node@U?$pair@QAVWindow@CEGUI@@PAVSK_PopupWindow@@@std@@PAX@2@@?$_Tree@V?$_Tmap_traits@PAVWindow@CEGUI@@PAVSK_PopupWindow@@U?$less@PAVWindow@CEGUI@@@std@@V?$allocator@U?$pair@QAVWindow@CEGUI@@PAVSK_PopupWindow@@@std@@@5@$0A@@std@@@std@@IAE?AV?$_Tree_iterator@V?$_Tree_val@U?$_Tree_simple_types@U?$pair@QAVWindow@CEGUI@@PAVSK_PopupWindow@@@std@@@std@@@std@@@1@V?$_Tree_const_iterator@V?$_Tree_val@U?$_Tree_simple_types@U?$pair@QAVWindow@CEGUI@@PAVSK_PopupWindow@@@std@@@std@@@std@@@1@AAU?$pair@QAVWindow@CEGUI@@PAVSK_PopupWindow@@@1@PAU?$_Tree_node@U?$pair@QAVWindow@CEGUI@@PAVSK_PopupWindow@@@std@@PAX@1@@Z:
	mov	eax, OFFSET __ehfuncinfo$??$_Insert_hint@AAU?$pair@QAVWindow@CEGUI@@PAVSK_PopupWindow@@@std@@PAU?$_Tree_node@U?$pair@QAVWindow@CEGUI@@PAVSK_PopupWindow@@@std@@PAX@2@@?$_Tree@V?$_Tmap_traits@PAVWindow@CEGUI@@PAVSK_PopupWindow@@U?$less@PAVWindow@CEGUI@@@std@@V?$allocator@U?$pair@QAVWindow@CEGUI@@PAVSK_PopupWindow@@@std@@@5@$0A@@std@@@std@@IAE?AV?$_Tree_iterator@V?$_Tree_val@U?$_Tree_simple_types@U?$pair@QAVWindow@CEGUI@@PAVSK_PopupWindow@@@std@@@std@@@std@@@1@V?$_Tree_const_iterator@V?$_Tree_val@U?$_Tree_simple_types@U?$pair@QAVWindow@CEGUI@@PAVSK_PopupWindow@@@std@@@std@@@std@@@1@AAU?$pair@QAVWindow@CEGUI@@PAVSK_PopupWindow@@@1@PAU?$_Tree_node@U?$pair@QAVWindow@CEGUI@@PAVSK_PopupWindow@@@std@@PAX@1@@Z
	jmp	___CxxFrameHandler3
text$x	ENDS
??$_Insert_hint@AAU?$pair@QAVWindow@CEGUI@@PAVSK_PopupWindow@@@std@@PAU?$_Tree_node@U?$pair@QAVWindow@CEGUI@@PAVSK_PopupWindow@@@std@@PAX@2@@?$_Tree@V?$_Tmap_traits@PAVWindow@CEGUI@@PAVSK_PopupWindow@@U?$less@PAVWindow@CEGUI@@@std@@V?$allocator@U?$pair@QAVWindow@CEGUI@@PAVSK_PopupWindow@@@std@@@5@$0A@@std@@@std@@IAE?AV?$_Tree_iterator@V?$_Tree_val@U?$_Tree_simple_types@U?$pair@QAVWindow@CEGUI@@PAVSK_PopupWindow@@@std@@@std@@@std@@@1@V?$_Tree_const_iterator@V?$_Tree_val@U?$_Tree_simple_types@U?$pair@QAVWindow@CEGUI@@PAVSK_PopupWindow@@@std@@@std@@@std@@@1@AAU?$pair@QAVWindow@CEGUI@@PAVSK_PopupWindow@@@1@PAU?$_Tree_node@U?$pair@QAVWindow@CEGUI@@PAVSK_PopupWindow@@@std@@PAX@1@@Z ENDP ; std::_Tree<std::_Tmap_traits<CEGUI::Window *,SK_PopupWindow *,std::less<CEGUI::Window *>,std::allocator<std::pair<CEGUI::Window * const,SK_PopupWindow *> >,0> >::_Insert_hint<std::pair<CEGUI::Window * const,SK_PopupWindow *> &,std::_Tree_node<std::pair<CEGUI::Window * const,SK_PopupWindow *>,void *> *>
; Function compile flags: /Ogtp
; File c:\program files (x86)\microsoft visual studio\2017\community\vc\tools\msvc\14.10.25017\include\xtree
; File c:\program files (x86)\microsoft visual studio\2017\community\vc\tools\msvc\14.10.25017\include\xmemory0
; File c:\users\andon\source\repos\specialk\src\osd\popup.cpp
; File c:\program files (x86)\microsoft visual studio\2017\community\vc\tools\msvc\14.10.25017\include\tuple
; File c:\program files (x86)\microsoft visual studio\2017\community\vc\tools\msvc\14.10.25017\include\xtree
;	COMDAT ??$_Buynode@ABUpiecewise_construct_t@std@@V?$tuple@ABQAVWindow@CEGUI@@@2@V?$tuple@$$V@2@@?$_Tree_comp_alloc@V?$_Tmap_traits@PAVWindow@CEGUI@@PAVSK_PopupWindow@@U?$less@PAVWindow@CEGUI@@@std@@V?$allocator@U?$pair@QAVWindow@CEGUI@@PAVSK_PopupWindow@@@std@@@5@$0A@@std@@@std@@QAEPAU?$_Tree_node@U?$pair@QAVWindow@CEGUI@@PAVSK_PopupWindow@@@std@@PAX@1@ABUpiecewise_construct_t@1@$$QAV?$tuple@ABQAVWindow@CEGUI@@@1@$$QAV?$tuple@$$V@1@@Z
_TEXT	SEGMENT
_<_Val_0>$ = 8						; size = 4
_<_Val_1>$ = 12						; size = 4
_<_Val_2>$ = 16						; size = 4
??$_Buynode@ABUpiecewise_construct_t@std@@V?$tuple@ABQAVWindow@CEGUI@@@2@V?$tuple@$$V@2@@?$_Tree_comp_alloc@V?$_Tmap_traits@PAVWindow@CEGUI@@PAVSK_PopupWindow@@U?$less@PAVWindow@CEGUI@@@std@@V?$allocator@U?$pair@QAVWindow@CEGUI@@PAVSK_PopupWindow@@@std@@@5@$0A@@std@@@std@@QAEPAU?$_Tree_node@U?$pair@QAVWindow@CEGUI@@PAVSK_PopupWindow@@@std@@PAX@1@ABUpiecewise_construct_t@1@$$QAV?$tuple@ABQAVWindow@CEGUI@@@1@$$QAV?$tuple@$$V@1@@Z PROC ; std::_Tree_comp_alloc<std::_Tmap_traits<CEGUI::Window *,SK_PopupWindow *,std::less<CEGUI::Window *>,std::allocator<std::pair<CEGUI::Window * const,SK_PopupWindow *> >,0> >::_Buynode<std::piecewise_construct_t const &,std::tuple<CEGUI::Window * const &>,std::tuple<> >, COMDAT
; _this$ = ecx

; 895  : 		{	// allocate a node with defaults and set links and value

	npad	2
	push	ebp
	mov	ebp, esp

; 896  : 		_Nodeptr _Pnode = _Buynode0();

	call	?_Buynode0@?$_Tree_comp_alloc@V?$_Tmap_traits@PAVWindow@CEGUI@@PAVSK_PopupWindow@@U?$less@PAVWindow@CEGUI@@@std@@V?$allocator@U?$pair@QAVWindow@CEGUI@@PAVSK_PopupWindow@@@std@@@5@$0A@@std@@@std@@QAEPAU?$_Tree_node@U?$pair@QAVWindow@CEGUI@@PAVSK_PopupWindow@@@std@@PAX@2@XZ ; std::_Tree_comp_alloc<std::_Tmap_traits<CEGUI::Window *,SK_PopupWindow *,std::less<CEGUI::Window *>,std::allocator<std::pair<CEGUI::Window * const,SK_PopupWindow *> >,0> >::_Buynode0

; 596  : 		return ((reference)_Pnode->_Myval);

	lea	edx, DWORD PTR [eax+16]

; 897  : 
; 898  : 		this->_Color(_Pnode) = _Red;

	mov	WORD PTR [eax+12], 0
; File c:\program files (x86)\microsoft visual studio\2017\community\vc\tools\msvc\14.10.25017\include\xmemory0

; 840  : 		::new ((void *)_Ptr) _Objty(_STD forward<_Types>(_Args)...);

	test	edx, edx
	je	SHORT $LN65@Buynode
; File c:\users\andon\source\repos\specialk\src\osd\popup.cpp

; 264  : }

	mov	ecx, DWORD PTR _<_Val_1>$[ebp]
	mov	ecx, DWORD PTR [ecx]
; File c:\program files (x86)\microsoft visual studio\2017\community\vc\tools\msvc\14.10.25017\include\tuple

; 1138 : 		: first(_STD get<_Indexes1>(_STD move(_Val1))...),

	mov	ecx, DWORD PTR [ecx]
	mov	DWORD PTR [edx], ecx

; 1139 : 			second(_STD get<_Indexes2>(_STD move(_Val2))...)

	mov	DWORD PTR [edx+4], 0
$LN65@Buynode:
