; Listing generated by Microsoft (R) Optimizing Compiler Version 19.10.25019.0 

	TITLE	C:\Users\andon\Source\Repos\SpecialK\src\steam\remote_storage.cpp
	.686P
	.XMM
	include listing.inc
	.model	flat

INCLUDELIB MSVCRT
INCLUDELIB OLDNAMES

PUBLIC	?SteamAPI_ISteamClient_GetISteamRemoteStorage_Original@@3P6APAVISteamRemoteStorage@@PAVISteamClient@@HHPBD@ZA ; SteamAPI_ISteamClient_GetISteamRemoteStorage_Original
_BSS	SEGMENT
?SteamAPI_ISteamClient_GetISteamRemoteStorage_Original@@3P6APAVISteamRemoteStorage@@PAVISteamClient@@HHPBD@ZA DD 01H DUP (?) ; SteamAPI_ISteamClient_GetISteamRemoteStorage_Original
_BSS	ENDS
CONST	SEGMENT
$SG166950 DB	'SteamAPI_ISteamClient_GetISteamRemoteStorage_Detour', 00H
$SG166951 DB	'[', 00H, '!', 00H, ']', 00H, ' ', 00H, '%', 00H, 'h', 00H
	DB	's', 00H, ' ', 00H, '(', 00H, '.', 00H, '.', 00H, '.', 00H, ','
	DB	00H, ' ', 00H, '%', 00H, 'h', 00H, 's', 00H, ')', 00H, 00H, 00H
	ORG $+2
$SG166955 DB	'STEAMREMOTESTORAGE_INTERFACE_VERSION012', 00H
$SG166961 DB	'STEAMREMOTESTORAGE_INTERFACE_VERSION014', 00H
	ORG $+4
$SG166966 DB	'G', 00H, 'a', 00H, 'm', 00H, 'e', 00H, ' ', 00H, 'r', 00H
	DB	'e', 00H, 'q', 00H, 'u', 00H, 'e', 00H, 's', 00H, 't', 00H, 'e'
	DB	00H, 'd', 00H, ' ', 00H, 'u', 00H, 'n', 00H, 'e', 00H, 'x', 00H
	DB	'p', 00H, 'e', 00H, 'c', 00H, 't', 00H, 'e', 00H, 'd', 00H, ' '
	DB	00H, 'i', 00H, 'n', 00H, 't', 00H, 'e', 00H, 'r', 00H, 'f', 00H
	DB	'a', 00H, 'c', 00H, 'e', 00H, ' ', 00H, 'v', 00H, 'e', 00H, 'r'
	DB	00H, 's', 00H, 'i', 00H, 'o', 00H, 'n', 00H, ' ', 00H, '(', 00H
	DB	'%', 00H, 'h', 00H, 's', 00H, ')', 00H, '!', 00H, 00H, 00H
	ORG $+2
$SG166994 DB	'SK_SteamWrapper_WrappedClient_GetISteamRemoteStorage', 00H
	ORG $+3
$SG166995 DB	'[', 00H, '!', 00H, ']', 00H, ' ', 00H, '%', 00H, 'h', 00H
	DB	's', 00H, ' ', 00H, '(', 00H, '.', 00H, '.', 00H, '.', 00H, ','
	DB	00H, ' ', 00H, '%', 00H, 'h', 00H, 's', 00H, ')', 00H, 00H, 00H
	ORG $+2
$SG166999 DB	'STEAMREMOTESTORAGE_INTERFACE_VERSION012', 00H
$SG167005 DB	'STEAMREMOTESTORAGE_INTERFACE_VERSION014', 00H
$SG167010 DB	'G', 00H, 'a', 00H, 'm', 00H, 'e', 00H, ' ', 00H, 'r', 00H
	DB	'e', 00H, 'q', 00H, 'u', 00H, 'e', 00H, 's', 00H, 't', 00H, 'e'
	DB	00H, 'd', 00H, ' ', 00H, 'u', 00H, 'n', 00H, 'e', 00H, 'x', 00H
	DB	'p', 00H, 'e', 00H, 'c', 00H, 't', 00H, 'e', 00H, 'd', 00H, ' '
	DB	00H, 'i', 00H, 'n', 00H, 't', 00H, 'e', 00H, 'r', 00H, 'f', 00H
	DB	'a', 00H, 'c', 00H, 'e', 00H, ' ', 00H, 'v', 00H, 'e', 00H, 'r'
	DB	00H, 's', 00H, 'i', 00H, 'o', 00H, 'n', 00H, ' ', 00H, '(', 00H
	DB	'%', 00H, 'h', 00H, 's', 00H, ')', 00H, '!', 00H, 00H, 00H
CONST	ENDS
PUBLIC	?__empty_global_delete@@YAXPAX@Z		; __empty_global_delete
PUBLIC	?__empty_global_delete@@YAXPAXI@Z		; __empty_global_delete
PUBLIC	??0ISteamRemoteStorage@@QAE@XZ			; ISteamRemoteStorage::ISteamRemoteStorage
PUBLIC	?_Hash_seq@std@@YAIPBEI@Z			; std::_Hash_seq
PUBLIC	??0exception@std@@QAE@QBD@Z			; std::exception::exception
PUBLIC	??0exception@std@@QAE@ABV01@@Z			; std::exception::exception
PUBLIC	??1exception@std@@UAE@XZ			; std::exception::~exception
PUBLIC	?what@exception@std@@UBEPBDXZ			; std::exception::what
PUBLIC	??_Gexception@std@@UAEPAXI@Z			; std::exception::`scalar deleting destructor'
PUBLIC	??2@YAPAXIPAX@Z					; operator new
PUBLIC	??3@YAXPAX0@Z					; operator delete
PUBLIC	?_Adopt@_Iterator_base0@std@@QAEXPBX@Z		; std::_Iterator_base0::_Adopt
PUBLIC	?_Allocate@std@@YAPAXII_N@Z			; std::_Allocate
PUBLIC	?_Deallocate@std@@YAXPAXII@Z			; std::_Deallocate
PUBLIC	??0logic_error@std@@QAE@PBD@Z			; std::logic_error::logic_error
PUBLIC	??1logic_error@std@@UAE@XZ			; std::logic_error::~logic_error
PUBLIC	??0logic_error@std@@QAE@ABV01@@Z		; std::logic_error::logic_error
PUBLIC	??_Glogic_error@std@@UAEPAXI@Z			; std::logic_error::`scalar deleting destructor'
PUBLIC	??0out_of_range@std@@QAE@PBD@Z			; std::out_of_range::out_of_range
PUBLIC	??1out_of_range@std@@UAE@XZ			; std::out_of_range::~out_of_range
PUBLIC	??0out_of_range@std@@QAE@ABV01@@Z		; std::out_of_range::out_of_range
PUBLIC	??_Gout_of_range@std@@UAEPAXI@Z			; std::out_of_range::`scalar deleting destructor'
PUBLIC	?_Reverse_byte@details@Concurrency@@YAEE@Z	; Concurrency::details::_Reverse_byte
PUBLIC	?_Get_msb@details@Concurrency@@YAEI@Z		; Concurrency::details::_Get_msb
PUBLIC	??0?$allocator@U?$pair@QAVISteamRemoteStorage@@PAVIWrapSteamRemoteStorage@@@std@@@std@@QAE@XZ ; std::allocator<std::pair<ISteamRemoteStorage * const,IWrapSteamRemoteStorage *> >::allocator<std::pair<ISteamRemoteStorage * const,IWrapSteamRemoteStorage *> >
PUBLIC	??0?$allocator@U?$pair@QAVISteamRemoteStorage@@PAVIWrapSteamRemoteStorage@@@std@@@std@@QAE@ABV01@@Z ; std::allocator<std::pair<ISteamRemoteStorage * const,IWrapSteamRemoteStorage *> >::allocator<std::pair<ISteamRemoteStorage * const,IWrapSteamRemoteStorage *> >
PUBLIC	??0?$_Concurrent_unordered_map_traits@PAVISteamRemoteStorage@@PAVIWrapSteamRemoteStorage@@V?$_Hash_compare@PAVISteamRemoteStorage@@U?$hash@PAVISteamRemoteStorage@@@std@@U?$equal_to@PAVISteamRemoteStorage@@@3@@details@Concurrency@@V?$allocator@U?$pair@QAVISteamRemoteStorage@@PAVIWrapSteamRemoteStorage@@@std@@@std@@$0A@@details@Concurrency@@QAE@ABV?$_Hash_compare@PAVISteamRemoteStorage@@U?$hash@PAVISteamRemoteStorage@@@std@@U?$equal_to@PAVISteamRemoteStorage@@@3@@12@@Z ; Concurrency::details::_Concurrent_unordered_map_traits<ISteamRemoteStorage *,IWrapSteamRemoteStorage *,Concurrency::details::_Hash_compare<ISteamRemoteStorage *,std::hash<ISteamRemoteStorage *>,std::equal_to<ISteamRemoteStorage *> >,std::allocator<std::pair<ISteamRemoteStorage * const,IWrapSteamRemoteStorage *> >,0>::_Concurrent_unordered_map_traits<ISteamRemoteStorage *,IWrapSteamRemoteStorage *,Concurrency::details::_Hash_compare<ISteamRemoteStorage *,std::hash<ISteamRemoteStorage *>,std::equal_to<ISteamRemoteStorage *> >,std::allocator<std::pair<ISteamRemoteStorage * const,IWrapSteamRemoteStorage *> >,0>
PUBLIC	??0?$_Hash_compare@PAVISteamRemoteStorage@@U?$hash@PAVISteamRemoteStorage@@@std@@U?$equal_to@PAVISteamRemoteStorage@@@3@@details@Concurrency@@QAE@U?$hash@PAVISteamRemoteStorage@@@std@@U?$equal_to@PAVISteamRemoteStorage@@@4@@Z ; Concurrency::details::_Hash_compare<ISteamRemoteStorage *,std::hash<ISteamRemoteStorage *>,std::equal_to<ISteamRemoteStorage *> >::_Hash_compare<ISteamRemoteStorage *,std::hash<ISteamRemoteStorage *>,std::equal_to<ISteamRemoteStorage *> >
PUBLIC	??R?$_Hash_compare@PAVISteamRemoteStorage@@U?$hash@PAVISteamRemoteStorage@@@std@@U?$equal_to@PAVISteamRemoteStorage@@@3@@details@Concurrency@@QBEIABQAVISteamRemoteStorage@@@Z ; Concurrency::details::_Hash_compare<ISteamRemoteStorage *,std::hash<ISteamRemoteStorage *>,std::equal_to<ISteamRemoteStorage *> >::operator()
PUBLIC	??R?$_Hash_compare@PAVISteamRemoteStorage@@U?$hash@PAVISteamRemoteStorage@@@std@@U?$equal_to@PAVISteamRemoteStorage@@@3@@details@Concurrency@@QBE_NABQAVISteamRemoteStorage@@0@Z ; Concurrency::details::_Hash_compare<ISteamRemoteStorage *,std::hash<ISteamRemoteStorage *>,std::equal_to<ISteamRemoteStorage *> >::operator()
PUBLIC	??R?$_Bitwise_hash@PAVISteamRemoteStorage@@@std@@QBEIABQAVISteamRemoteStorage@@@Z ; std::_Bitwise_hash<ISteamRemoteStorage *>::operator()
PUBLIC	??R?$equal_to@PAVISteamRemoteStorage@@@std@@QBE_NABQAVISteamRemoteStorage@@0@Z ; std::equal_to<ISteamRemoteStorage *>::operator()
PUBLIC	??0?$_Split_order_list_node@U?$pair@QAVISteamRemoteStorage@@PAVIWrapSteamRemoteStorage@@@std@@V?$allocator@U?$pair@QAVISteamRemoteStorage@@PAVIWrapSteamRemoteStorage@@@std@@@2@@details@Concurrency@@QAE@V?$allocator@U?$pair@QAVISteamRemoteStorage@@PAVIWrapSteamRemoteStorage@@@std@@@std@@@Z ; Concurrency::details::_Split_order_list_node<std::pair<ISteamRemoteStorage * const,IWrapSteamRemoteStorage *>,std::allocator<std::pair<ISteamRemoteStorage * const,IWrapSteamRemoteStorage *> > >::_Split_order_list_node<std::pair<ISteamRemoteStorage * const,IWrapSteamRemoteStorage *>,std::allocator<std::pair<ISteamRemoteStorage * const,IWrapSteamRemoteStorage *> > >
PUBLIC	?deallocate@?$allocator@U_Node@?$_Split_order_list_node@U?$pair@QAVISteamRemoteStorage@@PAVIWrapSteamRemoteStorage@@@std@@V?$allocator@U?$pair@QAVISteamRemoteStorage@@PAVIWrapSteamRemoteStorage@@@std@@@2@@details@Concurrency@@@std@@QAEXPAU_Node@?$_Split_order_list_node@U?$pair@QAVISteamRemoteStorage@@PAVIWrapSteamRemoteStorage@@@std@@V?$allocator@U?$pair@QAVISteamRemoteStorage@@PAVIWrapSteamRemoteStorage@@@std@@@2@@details@Concurrency@@I@Z ; std::allocator<Concurrency::details::_Split_order_list_node<std::pair<ISteamRemoteStorage * const,IWrapSteamRemoteStorage *>,std::allocator<std::pair<ISteamRemoteStorage * const,IWrapSteamRemoteStorage *> > >::_Node>::deallocate
PUBLIC	?allocate@?$allocator@U_Node@?$_Split_order_list_node@U?$pair@QAVISteamRemoteStorage@@PAVIWrapSteamRemoteStorage@@@std@@V?$allocator@U?$pair@QAVISteamRemoteStorage@@PAVIWrapSteamRemoteStorage@@@std@@@2@@details@Concurrency@@@std@@QAEPAU_Node@?$_Split_order_list_node@U?$pair@QAVISteamRemoteStorage@@PAVIWrapSteamRemoteStorage@@@std@@V?$allocator@U?$pair@QAVISteamRemoteStorage@@PAVIWrapSteamRemoteStorage@@@std@@@2@@details@Concurrency@@I@Z ; std::allocator<Concurrency::details::_Split_order_list_node<std::pair<ISteamRemoteStorage * const,IWrapSteamRemoteStorage *>,std::allocator<std::pair<ISteamRemoteStorage * const,IWrapSteamRemoteStorage *> > >::_Node>::allocate
PUBLIC	??0?$_Split_order_list_value@U?$pair@QAVISteamRemoteStorage@@PAVIWrapSteamRemoteStorage@@@std@@V?$allocator@U?$pair@QAVISteamRemoteStorage@@PAVIWrapSteamRemoteStorage@@@std@@@2@@details@Concurrency@@QAE@V?$allocator@U?$pair@QAVISteamRemoteStorage@@PAVIWrapSteamRemoteStorage@@@std@@@std@@@Z ; Concurrency::details::_Split_order_list_value<std::pair<ISteamRemoteStorage * const,IWrapSteamRemoteStorage *>,std::allocator<std::pair<ISteamRemoteStorage * const,IWrapSteamRemoteStorage *> > >::_Split_order_list_value<std::pair<ISteamRemoteStorage * const,IWrapSteamRemoteStorage *>,std::allocator<std::pair<ISteamRemoteStorage * const,IWrapSteamRemoteStorage *> > >
PUBLIC	??1?$_Split_order_list_value@U?$pair@QAVISteamRemoteStorage@@PAVIWrapSteamRemoteStorage@@@std@@V?$allocator@U?$pair@QAVISteamRemoteStorage@@PAVIWrapSteamRemoteStorage@@@std@@@2@@details@Concurrency@@QAE@XZ ; Concurrency::details::_Split_order_list_value<std::pair<ISteamRemoteStorage * const,IWrapSteamRemoteStorage *>,std::allocator<std::pair<ISteamRemoteStorage * const,IWrapSteamRemoteStorage *> > >::~_Split_order_list_value<std::pair<ISteamRemoteStorage * const,IWrapSteamRemoteStorage *>,std::allocator<std::pair<ISteamRemoteStorage * const,IWrapSteamRemoteStorage *> > >
PUBLIC	?_Buynode@?$_Split_order_list_value@U?$pair@QAVISteamRemoteStorage@@PAVIWrapSteamRemoteStorage@@@std@@V?$allocator@U?$pair@QAVISteamRemoteStorage@@PAVIWrapSteamRemoteStorage@@@std@@@2@@details@Concurrency@@QAEPAU_Node@?$_Split_order_list_node@U?$pair@QAVISteamRemoteStorage@@PAVIWrapSteamRemoteStorage@@@std@@V?$allocator@U?$pair@QAVISteamRemoteStorage@@PAVIWrapSteamRemoteStorage@@@std@@@2@@23@I@Z ; Concurrency::details::_Split_order_list_value<std::pair<ISteamRemoteStorage * const,IWrapSteamRemoteStorage *>,std::allocator<std::pair<ISteamRemoteStorage * const,IWrapSteamRemoteStorage *> > >::_Buynode
PUBLIC	?_Nextnode@?$_Split_order_list_value@U?$pair@QAVISteamRemoteStorage@@PAVIWrapSteamRemoteStorage@@@std@@V?$allocator@U?$pair@QAVISteamRemoteStorage@@PAVIWrapSteamRemoteStorage@@@std@@@2@@details@Concurrency@@SAAAPAU_Node@?$_Split_order_list_node@U?$pair@QAVISteamRemoteStorage@@PAVIWrapSteamRemoteStorage@@@std@@V?$allocator@U?$pair@QAVISteamRemoteStorage@@PAVIWrapSteamRemoteStorage@@@std@@@2@@23@PAU4523@@Z ; Concurrency::details::_Split_order_list_value<std::pair<ISteamRemoteStorage * const,IWrapSteamRemoteStorage *>,std::allocator<std::pair<ISteamRemoteStorage * const,IWrapSteamRemoteStorage *> > >::_Nextnode
PUBLIC	?_Myval@?$_Split_order_list_value@U?$pair@QAVISteamRemoteStorage@@PAVIWrapSteamRemoteStorage@@@std@@V?$allocator@U?$pair@QAVISteamRemoteStorage@@PAVIWrapSteamRemoteStorage@@@std@@@2@@details@Concurrency@@SAAAU?$pair@QAVISteamRemoteStorage@@PAVIWrapSteamRemoteStorage@@@std@@PAU_Node@?$_Split_order_list_node@U?$pair@QAVISteamRemoteStorage@@PAVIWrapSteamRemoteStorage@@@std@@V?$allocator@U?$pair@QAVISteamRemoteStorage@@PAVIWrapSteamRemoteStorage@@@std@@@2@@23@@Z ; Concurrency::details::_Split_order_list_value<std::pair<ISteamRemoteStorage * const,IWrapSteamRemoteStorage *>,std::allocator<std::pair<ISteamRemoteStorage * const,IWrapSteamRemoteStorage *> > >::_Myval
PUBLIC	??0?$_Split_ordered_list@U?$pair@QAVISteamRemoteStorage@@PAVIWrapSteamRemoteStorage@@@std@@V?$allocator@U?$pair@QAVISteamRemoteStorage@@PAVIWrapSteamRemoteStorage@@@std@@@2@@details@Concurrency@@QAE@V?$allocator@U?$pair@QAVISteamRemoteStorage@@PAVIWrapSteamRemoteStorage@@@std@@@std@@@Z ; Concurrency::details::_Split_ordered_list<std::pair<ISteamRemoteStorage * const,IWrapSteamRemoteStorage *>,std::allocator<std::pair<ISteamRemoteStorage * const,IWrapSteamRemoteStorage *> > >::_Split_ordered_list<std::pair<ISteamRemoteStorage * const,IWrapSteamRemoteStorage *>,std::allocator<std::pair<ISteamRemoteStorage * const,IWrapSteamRemoteStorage *> > >
PUBLIC	??1?$_Split_ordered_list@U?$pair@QAVISteamRemoteStorage@@PAVIWrapSteamRemoteStorage@@@std@@V?$allocator@U?$pair@QAVISteamRemoteStorage@@PAVIWrapSteamRemoteStorage@@@std@@@2@@details@Concurrency@@QAE@XZ ; Concurrency::details::_Split_ordered_list<std::pair<ISteamRemoteStorage * const,IWrapSteamRemoteStorage *>,std::allocator<std::pair<ISteamRemoteStorage * const,IWrapSteamRemoteStorage *> > >::~_Split_ordered_list<std::pair<ISteamRemoteStorage * const,IWrapSteamRemoteStorage *>,std::allocator<std::pair<ISteamRemoteStorage * const,IWrapSteamRemoteStorage *> > >
PUBLIC	?clear@?$_Split_ordered_list@U?$pair@QAVISteamRemoteStorage@@PAVIWrapSteamRemoteStorage@@@std@@V?$allocator@U?$pair@QAVISteamRemoteStorage@@PAVIWrapSteamRemoteStorage@@@std@@@2@@details@Concurrency@@QAEXXZ ; Concurrency::details::_Split_ordered_list<std::pair<ISteamRemoteStorage * const,IWrapSteamRemoteStorage *>,std::allocator<std::pair<ISteamRemoteStorage * const,IWrapSteamRemoteStorage *> > >::clear
PUBLIC	?end@?$_Split_ordered_list@U?$pair@QAVISteamRemoteStorage@@PAVIWrapSteamRemoteStorage@@@std@@V?$allocator@U?$pair@QAVISteamRemoteStorage@@PAVIWrapSteamRemoteStorage@@@std@@@2@@details@Concurrency@@QAE?AV?$_Solist_iterator@V?$_Split_order_list_value@U?$pair@QAVISteamRemoteStorage@@PAVIWrapSteamRemoteStorage@@@std@@V?$allocator@U?$pair@QAVISteamRemoteStorage@@PAVIWrapSteamRemoteStorage@@@std@@@2@@details@Concurrency@@@23@XZ ; Concurrency::details::_Split_ordered_list<std::pair<ISteamRemoteStorage * const,IWrapSteamRemoteStorage *>,std::allocator<std::pair<ISteamRemoteStorage * const,IWrapSteamRemoteStorage *> > >::end
PUBLIC	?end@?$_Split_ordered_list@U?$pair@QAVISteamRemoteStorage@@PAVIWrapSteamRemoteStorage@@@std@@V?$allocator@U?$pair@QAVISteamRemoteStorage@@PAVIWrapSteamRemoteStorage@@@std@@@2@@details@Concurrency@@QBE?AV?$_Solist_const_iterator@V?$_Split_order_list_value@U?$pair@QAVISteamRemoteStorage@@PAVIWrapSteamRemoteStorage@@@std@@V?$allocator@U?$pair@QAVISteamRemoteStorage@@PAVIWrapSteamRemoteStorage@@@std@@@2@@details@Concurrency@@@23@XZ ; Concurrency::details::_Split_ordered_list<std::pair<ISteamRemoteStorage * const,IWrapSteamRemoteStorage *>,std::allocator<std::pair<ISteamRemoteStorage * const,IWrapSteamRemoteStorage *> > >::end
PUBLIC	?_Begin@?$_Split_ordered_list@U?$pair@QAVISteamRemoteStorage@@PAVIWrapSteamRemoteStorage@@@std@@V?$allocator@U?$pair@QAVISteamRemoteStorage@@PAVIWrapSteamRemoteStorage@@@std@@@2@@details@Concurrency@@QAE?AV?$_Flist_iterator@V?$_Split_order_list_value@U?$pair@QAVISteamRemoteStorage@@PAVIWrapSteamRemoteStorage@@@std@@V?$allocator@U?$pair@QAVISteamRemoteStorage@@PAVIWrapSteamRemoteStorage@@@std@@@2@@details@Concurrency@@@std@@XZ ; Concurrency::details::_Split_ordered_list<std::pair<ISteamRemoteStorage * const,IWrapSteamRemoteStorage *>,std::allocator<std::pair<ISteamRemoteStorage * const,IWrapSteamRemoteStorage *> > >::_Begin
PUBLIC	?_End@?$_Split_ordered_list@U?$pair@QAVISteamRemoteStorage@@PAVIWrapSteamRemoteStorage@@@std@@V?$allocator@U?$pair@QAVISteamRemoteStorage@@PAVIWrapSteamRemoteStorage@@@std@@@2@@details@Concurrency@@QAE?AV?$_Flist_iterator@V?$_Split_order_list_value@U?$pair@QAVISteamRemoteStorage@@PAVIWrapSteamRemoteStorage@@@std@@V?$allocator@U?$pair@QAVISteamRemoteStorage@@PAVIWrapSteamRemoteStorage@@@std@@@2@@details@Concurrency@@@std@@XZ ; Concurrency::details::_Split_ordered_list<std::pair<ISteamRemoteStorage * const,IWrapSteamRemoteStorage *>,std::allocator<std::pair<ISteamRemoteStorage * const,IWrapSteamRemoteStorage *> > >::_End
PUBLIC	?_End@?$_Split_ordered_list@U?$pair@QAVISteamRemoteStorage@@PAVIWrapSteamRemoteStorage@@@std@@V?$allocator@U?$pair@QAVISteamRemoteStorage@@PAVIWrapSteamRemoteStorage@@@std@@@2@@details@Concurrency@@QBE?AV?$_Flist_const_iterator@V?$_Split_order_list_value@U?$pair@QAVISteamRemoteStorage@@PAVIWrapSteamRemoteStorage@@@std@@V?$allocator@U?$pair@QAVISteamRemoteStorage@@PAVIWrapSteamRemoteStorage@@@std@@@2@@details@Concurrency@@@std@@XZ ; Concurrency::details::_Split_ordered_list<std::pair<ISteamRemoteStorage * const,IWrapSteamRemoteStorage *>,std::allocator<std::pair<ISteamRemoteStorage * const,IWrapSteamRemoteStorage *> > >::_End
PUBLIC	?_Get_key@?$_Split_ordered_list@U?$pair@QAVISteamRemoteStorage@@PAVIWrapSteamRemoteStorage@@@std@@V?$allocator@U?$pair@QAVISteamRemoteStorage@@PAVIWrapSteamRemoteStorage@@@std@@@2@@details@Concurrency@@SAIABV?$_Flist_const_iterator@V?$_Split_order_list_value@U?$pair@QAVISteamRemoteStorage@@PAVIWrapSteamRemoteStorage@@@std@@V?$allocator@U?$pair@QAVISteamRemoteStorage@@PAVIWrapSteamRemoteStorage@@@std@@@2@@details@Concurrency@@@std@@@Z ; Concurrency::details::_Split_ordered_list<std::pair<ISteamRemoteStorage * const,IWrapSteamRemoteStorage *>,std::allocator<std::pair<ISteamRemoteStorage * const,IWrapSteamRemoteStorage *> > >::_Get_key
PUBLIC	?_Get_iterator@?$_Split_ordered_list@U?$pair@QAVISteamRemoteStorage@@PAVIWrapSteamRemoteStorage@@@std@@V?$allocator@U?$pair@QAVISteamRemoteStorage@@PAVIWrapSteamRemoteStorage@@@std@@@2@@details@Concurrency@@QAE?AV?$_Solist_iterator@V?$_Split_order_list_value@U?$pair@QAVISteamRemoteStorage@@PAVIWrapSteamRemoteStorage@@@std@@V?$allocator@U?$pair@QAVISteamRemoteStorage@@PAVIWrapSteamRemoteStorage@@@std@@@2@@details@Concurrency@@@23@V?$_Flist_iterator@V?$_Split_order_list_value@U?$pair@QAVISteamRemoteStorage@@PAVIWrapSteamRemoteStorage@@@std@@V?$allocator@U?$pair@QAVISteamRemoteStorage@@PAVIWrapSteamRemoteStorage@@@std@@@2@@details@Concurrency@@@std@@@Z ; Concurrency::details::_Split_ordered_list<std::pair<ISteamRemoteStorage * const,IWrapSteamRemoteStorage *>,std::allocator<std::pair<ISteamRemoteStorage * const,IWrapSteamRemoteStorage *> > >::_Get_iterator
PUBLIC	?_Get_iterator@?$_Split_ordered_list@U?$pair@QAVISteamRemoteStorage@@PAVIWrapSteamRemoteStorage@@@std@@V?$allocator@U?$pair@QAVISteamRemoteStorage@@PAVIWrapSteamRemoteStorage@@@std@@@2@@details@Concurrency@@QBE?AV?$_Solist_const_iterator@V?$_Split_order_list_value@U?$pair@QAVISteamRemoteStorage@@PAVIWrapSteamRemoteStorage@@@std@@V?$allocator@U?$pair@QAVISteamRemoteStorage@@PAVIWrapSteamRemoteStorage@@@std@@@2@@details@Concurrency@@@23@V?$_Flist_const_iterator@V?$_Split_order_list_value@U?$pair@QAVISteamRemoteStorage@@PAVIWrapSteamRemoteStorage@@@std@@V?$allocator@U?$pair@QAVISteamRemoteStorage@@PAVIWrapSteamRemoteStorage@@@std@@@2@@details@Concurrency@@@std@@@Z ; Concurrency::details::_Split_ordered_list<std::pair<ISteamRemoteStorage * const,IWrapSteamRemoteStorage *>,std::allocator<std::pair<ISteamRemoteStorage * const,IWrapSteamRemoteStorage *> > >::_Get_iterator
PUBLIC	?_Erase@?$_Split_ordered_list@U?$pair@QAVISteamRemoteStorage@@PAVIWrapSteamRemoteStorage@@@std@@V?$allocator@U?$pair@QAVISteamRemoteStorage@@PAVIWrapSteamRemoteStorage@@@std@@@2@@details@Concurrency@@QAEXPAU_Node@?$_Split_order_list_node@U?$pair@QAVISteamRemoteStorage@@PAVIWrapSteamRemoteStorage@@@std@@V?$allocator@U?$pair@QAVISteamRemoteStorage@@PAVIWrapSteamRemoteStorage@@@std@@@2@@23@@Z ; Concurrency::details::_Split_ordered_list<std::pair<ISteamRemoteStorage * const,IWrapSteamRemoteStorage *>,std::allocator<std::pair<ISteamRemoteStorage * const,IWrapSteamRemoteStorage *> > >::_Erase
PUBLIC	?_Insert@?$_Split_ordered_list@U?$pair@QAVISteamRemoteStorage@@PAVIWrapSteamRemoteStorage@@@std@@V?$allocator@U?$pair@QAVISteamRemoteStorage@@PAVIWrapSteamRemoteStorage@@@std@@@2@@details@Concurrency@@QAEPAU_Node@?$_Split_order_list_node@U?$pair@QAVISteamRemoteStorage@@PAVIWrapSteamRemoteStorage@@@std@@V?$allocator@U?$pair@QAVISteamRemoteStorage@@PAVIWrapSteamRemoteStorage@@@std@@@2@@23@PAU4523@00@Z ; Concurrency::details::_Split_ordered_list<std::pair<ISteamRemoteStorage * const,IWrapSteamRemoteStorage *>,std::allocator<std::pair<ISteamRemoteStorage * const,IWrapSteamRemoteStorage *> > >::_Insert
PUBLIC	?_Insert@?$_Split_ordered_list@U?$pair@QAVISteamRemoteStorage@@PAVIWrapSteamRemoteStorage@@@std@@V?$allocator@U?$pair@QAVISteamRemoteStorage@@PAVIWrapSteamRemoteStorage@@@std@@@2@@details@Concurrency@@QAE?AU?$pair@V?$_Solist_iterator@V?$_Split_order_list_value@U?$pair@QAVISteamRemoteStorage@@PAVIWrapSteamRemoteStorage@@@std@@V?$allocator@U?$pair@QAVISteamRemoteStorage@@PAVIWrapSteamRemoteStorage@@@std@@@2@@details@Concurrency@@@details@Concurrency@@_N@std@@V?$_Flist_iterator@V?$_Split_order_list_value@U?$pair@QAVISteamRemoteStorage@@PAVIWrapSteamRemoteStorage@@@std@@V?$allocator@U?$pair@QAVISteamRemoteStorage@@PAVIWrapSteamRemoteStorage@@@std@@@2@@details@Concurrency@@@5@0PAU_Node@?$_Split_order_list_node@U?$pair@QAVISteamRemoteStorage@@PAVIWrapSteamRemoteStorage@@@std@@V?$allocator@U?$pair@QAVISteamRemoteStorage@@PAVIWrapSteamRemoteStorage@@@std@@@2@@23@PAJ@Z ; Concurrency::details::_Split_ordered_list<std::pair<ISteamRemoteStorage * const,IWrapSteamRemoteStorage *>,std::allocator<std::pair<ISteamRemoteStorage * const,IWrapSteamRemoteStorage *> > >::_Insert
PUBLIC	?_Insert_dummy@?$_Split_ordered_list@U?$pair@QAVISteamRemoteStorage@@PAVIWrapSteamRemoteStorage@@@std@@V?$allocator@U?$pair@QAVISteamRemoteStorage@@PAVIWrapSteamRemoteStorage@@@std@@@2@@details@Concurrency@@QAE?AV?$_Flist_iterator@V?$_Split_order_list_value@U?$pair@QAVISteamRemoteStorage@@PAVIWrapSteamRemoteStorage@@@std@@V?$allocator@U?$pair@QAVISteamRemoteStorage@@PAVIWrapSteamRemoteStorage@@@std@@@2@@details@Concurrency@@@std@@V45@I@Z ; Concurrency::details::_Split_ordered_list<std::pair<ISteamRemoteStorage * const,IWrapSteamRemoteStorage *>,std::allocator<std::pair<ISteamRemoteStorage * const,IWrapSteamRemoteStorage *> > >::_Insert_dummy
PUBLIC	?_Check_range@?$_Split_ordered_list@U?$pair@QAVISteamRemoteStorage@@PAVIWrapSteamRemoteStorage@@@std@@V?$allocator@U?$pair@QAVISteamRemoteStorage@@PAVIWrapSteamRemoteStorage@@@std@@@2@@details@Concurrency@@AAEXXZ ; Concurrency::details::_Split_ordered_list<std::pair<ISteamRemoteStorage * const,IWrapSteamRemoteStorage *>,std::allocator<std::pair<ISteamRemoteStorage * const,IWrapSteamRemoteStorage *> > >::_Check_range
PUBLIC	??0?$_Concurrent_hash@V?$_Concurrent_unordered_map_traits@PAVISteamRemoteStorage@@PAVIWrapSteamRemoteStorage@@V?$_Hash_compare@PAVISteamRemoteStorage@@U?$hash@PAVISteamRemoteStorage@@@std@@U?$equal_to@PAVISteamRemoteStorage@@@3@@details@Concurrency@@V?$allocator@U?$pair@QAVISteamRemoteStorage@@PAVIWrapSteamRemoteStorage@@@std@@@std@@$0A@@details@Concurrency@@@details@Concurrency@@QAE@IABV?$_Hash_compare@PAVISteamRemoteStorage@@U?$hash@PAVISteamRemoteStorage@@@std@@U?$equal_to@PAVISteamRemoteStorage@@@3@@12@ABV?$allocator@U?$pair@QAVISteamRemoteStorage@@PAVIWrapSteamRemoteStorage@@@std@@@std@@@Z ; Concurrency::details::_Concurrent_hash<Concurrency::details::_Concurrent_unordered_map_traits<ISteamRemoteStorage *,IWrapSteamRemoteStorage *,Concurrency::details::_Hash_compare<ISteamRemoteStorage *,std::hash<ISteamRemoteStorage *>,std::equal_to<ISteamRemoteStorage *> >,std::allocator<std::pair<ISteamRemoteStorage * const,IWrapSteamRemoteStorage *> >,0> >::_Concurrent_hash<Concurrency::details::_Concurrent_unordered_map_traits<ISteamRemoteStorage *,IWrapSteamRemoteStorage *,Concurrency::details::_Hash_compare<ISteamRemoteStorage *,std::hash<ISteamRemoteStorage *>,std::equal_to<ISteamRemoteStorage *> >,std::allocator<std::pair<ISteamRemoteStorage * const,IWrapSteamRemoteStorage *> >,0> >
PUBLIC	??1?$_Concurrent_hash@V?$_Concurrent_unordered_map_traits@PAVISteamRemoteStorage@@PAVIWrapSteamRemoteStorage@@V?$_Hash_compare@PAVISteamRemoteStorage@@U?$hash@PAVISteamRemoteStorage@@@std@@U?$equal_to@PAVISteamRemoteStorage@@@3@@details@Concurrency@@V?$allocator@U?$pair@QAVISteamRemoteStorage@@PAVIWrapSteamRemoteStorage@@@std@@@std@@$0A@@details@Concurrency@@@details@Concurrency@@QAE@XZ ; Concurrency::details::_Concurrent_hash<Concurrency::details::_Concurrent_unordered_map_traits<ISteamRemoteStorage *,IWrapSteamRemoteStorage *,Concurrency::details::_Hash_compare<ISteamRemoteStorage *,std::hash<ISteamRemoteStorage *>,std::equal_to<ISteamRemoteStorage *> >,std::allocator<std::pair<ISteamRemoteStorage * const,IWrapSteamRemoteStorage *> >,0> >::~_Concurrent_hash<Concurrency::details::_Concurrent_unordered_map_traits<ISteamRemoteStorage *,IWrapSteamRemoteStorage *,Concurrency::details::_Hash_compare<ISteamRemoteStorage *,std::hash<ISteamRemoteStorage *>,std::equal_to<ISteamRemoteStorage *> >,std::allocator<std::pair<ISteamRemoteStorage * const,IWrapSteamRemoteStorage *> >,0> >
PUBLIC	?_Segment_index_of@?$_Concurrent_hash@V?$_Concurrent_unordered_map_traits@PAVISteamRemoteStorage@@PAVIWrapSteamRemoteStorage@@V?$_Hash_compare@PAVISteamRemoteStorage@@U?$hash@PAVISteamRemoteStorage@@@std@@U?$equal_to@PAVISteamRemoteStorage@@@3@@details@Concurrency@@V?$allocator@U?$pair@QAVISteamRemoteStorage@@PAVIWrapSteamRemoteStorage@@@std@@@std@@$0A@@details@Concurrency@@@details@Concurrency@@SAII@Z ; Concurrency::details::_Concurrent_hash<Concurrency::details::_Concurrent_unordered_map_traits<ISteamRemoteStorage *,IWrapSteamRemoteStorage *,Concurrency::details::_Hash_compare<ISteamRemoteStorage *,std::hash<ISteamRemoteStorage *>,std::equal_to<ISteamRemoteStorage *> >,std::allocator<std::pair<ISteamRemoteStorage * const,IWrapSteamRemoteStorage *> >,0> >::_Segment_index_of
PUBLIC	?_Segment_base@?$_Concurrent_hash@V?$_Concurrent_unordered_map_traits@PAVISteamRemoteStorage@@PAVIWrapSteamRemoteStorage@@V?$_Hash_compare@PAVISteamRemoteStorage@@U?$hash@PAVISteamRemoteStorage@@@std@@U?$equal_to@PAVISteamRemoteStorage@@@3@@details@Concurrency@@V?$allocator@U?$pair@QAVISteamRemoteStorage@@PAVIWrapSteamRemoteStorage@@@std@@@std@@$0A@@details@Concurrency@@@details@Concurrency@@SAII@Z ; Concurrency::details::_Concurrent_hash<Concurrency::details::_Concurrent_unordered_map_traits<ISteamRemoteStorage *,IWrapSteamRemoteStorage *,Concurrency::details::_Hash_compare<ISteamRemoteStorage *,std::hash<ISteamRemoteStorage *>,std::equal_to<ISteamRemoteStorage *> >,std::allocator<std::pair<ISteamRemoteStorage * const,IWrapSteamRemoteStorage *> >,0> >::_Segment_base
PUBLIC	?_Segment_size@?$_Concurrent_hash@V?$_Concurrent_unordered_map_traits@PAVISteamRemoteStorage@@PAVIWrapSteamRemoteStorage@@V?$_Hash_compare@PAVISteamRemoteStorage@@U?$hash@PAVISteamRemoteStorage@@@std@@U?$equal_to@PAVISteamRemoteStorage@@@3@@details@Concurrency@@V?$allocator@U?$pair@QAVISteamRemoteStorage@@PAVIWrapSteamRemoteStorage@@@std@@@std@@$0A@@details@Concurrency@@@details@Concurrency@@SAII@Z ; Concurrency::details::_Concurrent_hash<Concurrency::details::_Concurrent_unordered_map_traits<ISteamRemoteStorage *,IWrapSteamRemoteStorage *,Concurrency::details::_Hash_compare<ISteamRemoteStorage *,std::hash<ISteamRemoteStorage *>,std::equal_to<ISteamRemoteStorage *> >,std::allocator<std::pair<ISteamRemoteStorage * const,IWrapSteamRemoteStorage *> >,0> >::_Segment_size
PUBLIC	?end@?$_Concurrent_hash@V?$_Concurrent_unordered_map_traits@PAVISteamRemoteStorage@@PAVIWrapSteamRemoteStorage@@V?$_Hash_compare@PAVISteamRemoteStorage@@U?$hash@PAVISteamRemoteStorage@@@std@@U?$equal_to@PAVISteamRemoteStorage@@@3@@details@Concurrency@@V?$allocator@U?$pair@QAVISteamRemoteStorage@@PAVIWrapSteamRemoteStorage@@@std@@@std@@$0A@@details@Concurrency@@@details@Concurrency@@QAE?AV?$_Solist_iterator@V?$_Split_order_list_value@U?$pair@QAVISteamRemoteStorage@@PAVIWrapSteamRemoteStorage@@@std@@V?$allocator@U?$pair@QAVISteamRemoteStorage@@PAVIWrapSteamRemoteStorage@@@std@@@2@@details@Concurrency@@@23@XZ ; Concurrency::details::_Concurrent_hash<Concurrency::details::_Concurrent_unordered_map_traits<ISteamRemoteStorage *,IWrapSteamRemoteStorage *,Concurrency::details::_Hash_compare<ISteamRemoteStorage *,std::hash<ISteamRemoteStorage *>,std::equal_to<ISteamRemoteStorage *> >,std::allocator<std::pair<ISteamRemoteStorage * const,IWrapSteamRemoteStorage *> >,0> >::end
PUBLIC	?end@?$_Concurrent_hash@V?$_Concurrent_unordered_map_traits@PAVISteamRemoteStorage@@PAVIWrapSteamRemoteStorage@@V?$_Hash_compare@PAVISteamRemoteStorage@@U?$hash@PAVISteamRemoteStorage@@@std@@U?$equal_to@PAVISteamRemoteStorage@@@3@@details@Concurrency@@V?$allocator@U?$pair@QAVISteamRemoteStorage@@PAVIWrapSteamRemoteStorage@@@std@@@std@@$0A@@details@Concurrency@@@details@Concurrency@@QBE?AV?$_Solist_const_iterator@V?$_Split_order_list_value@U?$pair@QAVISteamRemoteStorage@@PAVIWrapSteamRemoteStorage@@@std@@V?$allocator@U?$pair@QAVISteamRemoteStorage@@PAVIWrapSteamRemoteStorage@@@std@@@2@@details@Concurrency@@@23@XZ ; Concurrency::details::_Concurrent_hash<Concurrency::details::_Concurrent_unordered_map_traits<ISteamRemoteStorage *,IWrapSteamRemoteStorage *,Concurrency::details::_Hash_compare<ISteamRemoteStorage *,std::hash<ISteamRemoteStorage *>,std::equal_to<ISteamRemoteStorage *> >,std::allocator<std::pair<ISteamRemoteStorage * const,IWrapSteamRemoteStorage *> >,0> >::end
PUBLIC	?find@?$_Concurrent_hash@V?$_Concurrent_unordered_map_traits@PAVISteamRemoteStorage@@PAVIWrapSteamRemoteStorage@@V?$_Hash_compare@PAVISteamRemoteStorage@@U?$hash@PAVISteamRemoteStorage@@@std@@U?$equal_to@PAVISteamRemoteStorage@@@3@@details@Concurrency@@V?$allocator@U?$pair@QAVISteamRemoteStorage@@PAVIWrapSteamRemoteStorage@@@std@@@std@@$0A@@details@Concurrency@@@details@Concurrency@@QAE?AV?$_Solist_iterator@V?$_Split_order_list_value@U?$pair@QAVISteamRemoteStorage@@PAVIWrapSteamRemoteStorage@@@std@@V?$allocator@U?$pair@QAVISteamRemoteStorage@@PAVIWrapSteamRemoteStorage@@@std@@@2@@details@Concurrency@@@23@ABQAVISteamRemoteStorage@@@Z ; Concurrency::details::_Concurrent_hash<Concurrency::details::_Concurrent_unordered_map_traits<ISteamRemoteStorage *,IWrapSteamRemoteStorage *,Concurrency::details::_Hash_compare<ISteamRemoteStorage *,std::hash<ISteamRemoteStorage *>,std::equal_to<ISteamRemoteStorage *> >,std::allocator<std::pair<ISteamRemoteStorage * const,IWrapSteamRemoteStorage *> >,0> >::find
PUBLIC	?count@?$_Concurrent_hash@V?$_Concurrent_unordered_map_traits@PAVISteamRemoteStorage@@PAVIWrapSteamRemoteStorage@@V?$_Hash_compare@PAVISteamRemoteStorage@@U?$hash@PAVISteamRemoteStorage@@@std@@U?$equal_to@PAVISteamRemoteStorage@@@3@@details@Concurrency@@V?$allocator@U?$pair@QAVISteamRemoteStorage@@PAVIWrapSteamRemoteStorage@@@std@@@std@@$0A@@details@Concurrency@@@details@Concurrency@@QBEIABQAVISteamRemoteStorage@@@Z ; Concurrency::details::_Concurrent_hash<Concurrency::details::_Concurrent_unordered_map_traits<ISteamRemoteStorage *,IWrapSteamRemoteStorage *,Concurrency::details::_Hash_compare<ISteamRemoteStorage *,std::hash<ISteamRemoteStorage *>,std::equal_to<ISteamRemoteStorage *> >,std::allocator<std::pair<ISteamRemoteStorage * const,IWrapSteamRemoteStorage *> >,0> >::count
PUBLIC	?unsafe_max_bucket_count@?$_Concurrent_hash@V?$_Concurrent_unordered_map_traits@PAVISteamRemoteStorage@@PAVIWrapSteamRemoteStorage@@V?$_Hash_compare@PAVISteamRemoteStorage@@U?$hash@PAVISteamRemoteStorage@@@std@@U?$equal_to@PAVISteamRemoteStorage@@@3@@details@Concurrency@@V?$allocator@U?$pair@QAVISteamRemoteStorage@@PAVIWrapSteamRemoteStorage@@@std@@@std@@$0A@@details@Concurrency@@@details@Concurrency@@QBEIXZ ; Concurrency::details::_Concurrent_hash<Concurrency::details::_Concurrent_unordered_map_traits<ISteamRemoteStorage *,IWrapSteamRemoteStorage *,Concurrency::details::_Hash_compare<ISteamRemoteStorage *,std::hash<ISteamRemoteStorage *>,std::equal_to<ISteamRemoteStorage *> >,std::allocator<std::pair<ISteamRemoteStorage * const,IWrapSteamRemoteStorage *> >,0> >::unsafe_max_bucket_count
PUBLIC	?rehash@?$_Concurrent_hash@V?$_Concurrent_unordered_map_traits@PAVISteamRemoteStorage@@PAVIWrapSteamRemoteStorage@@V?$_Hash_compare@PAVISteamRemoteStorage@@U?$hash@PAVISteamRemoteStorage@@@std@@U?$equal_to@PAVISteamRemoteStorage@@@3@@details@Concurrency@@V?$allocator@U?$pair@QAVISteamRemoteStorage@@PAVIWrapSteamRemoteStorage@@@std@@@std@@$0A@@details@Concurrency@@@details@Concurrency@@QAEXI@Z ; Concurrency::details::_Concurrent_hash<Concurrency::details::_Concurrent_unordered_map_traits<ISteamRemoteStorage *,IWrapSteamRemoteStorage *,Concurrency::details::_Hash_compare<ISteamRemoteStorage *,std::hash<ISteamRemoteStorage *>,std::equal_to<ISteamRemoteStorage *> >,std::allocator<std::pair<ISteamRemoteStorage * const,IWrapSteamRemoteStorage *> >,0> >::rehash
PUBLIC	?_Init@?$_Concurrent_hash@V?$_Concurrent_unordered_map_traits@PAVISteamRemoteStorage@@PAVIWrapSteamRemoteStorage@@V?$_Hash_compare@PAVISteamRemoteStorage@@U?$hash@PAVISteamRemoteStorage@@@std@@U?$equal_to@PAVISteamRemoteStorage@@@3@@details@Concurrency@@V?$allocator@U?$pair@QAVISteamRemoteStorage@@PAVIWrapSteamRemoteStorage@@@std@@@std@@$0A@@details@Concurrency@@@details@Concurrency@@AAEXXZ ; Concurrency::details::_Concurrent_hash<Concurrency::details::_Concurrent_unordered_map_traits<ISteamRemoteStorage *,IWrapSteamRemoteStorage *,Concurrency::details::_Hash_compare<ISteamRemoteStorage *,std::hash<ISteamRemoteStorage *>,std::equal_to<ISteamRemoteStorage *> >,std::allocator<std::pair<ISteamRemoteStorage * const,IWrapSteamRemoteStorage *> >,0> >::_Init
PUBLIC	?_Find@?$_Concurrent_hash@V?$_Concurrent_unordered_map_traits@PAVISteamRemoteStorage@@PAVIWrapSteamRemoteStorage@@V?$_Hash_compare@PAVISteamRemoteStorage@@U?$hash@PAVISteamRemoteStorage@@@std@@U?$equal_to@PAVISteamRemoteStorage@@@3@@details@Concurrency@@V?$allocator@U?$pair@QAVISteamRemoteStorage@@PAVIWrapSteamRemoteStorage@@@std@@@std@@$0A@@details@Concurrency@@@details@Concurrency@@AAE?AV?$_Solist_iterator@V?$_Split_order_list_value@U?$pair@QAVISteamRemoteStorage@@PAVIWrapSteamRemoteStorage@@@std@@V?$allocator@U?$pair@QAVISteamRemoteStorage@@PAVIWrapSteamRemoteStorage@@@std@@@2@@details@Concurrency@@@23@ABQAVISteamRemoteStorage@@@Z ; Concurrency::details::_Concurrent_hash<Concurrency::details::_Concurrent_unordered_map_traits<ISteamRemoteStorage *,IWrapSteamRemoteStorage *,Concurrency::details::_Hash_compare<ISteamRemoteStorage *,std::hash<ISteamRemoteStorage *>,std::equal_to<ISteamRemoteStorage *> >,std::allocator<std::pair<ISteamRemoteStorage * const,IWrapSteamRemoteStorage *> >,0> >::_Find
PUBLIC	?_Find@?$_Concurrent_hash@V?$_Concurrent_unordered_map_traits@PAVISteamRemoteStorage@@PAVIWrapSteamRemoteStorage@@V?$_Hash_compare@PAVISteamRemoteStorage@@U?$hash@PAVISteamRemoteStorage@@@std@@U?$equal_to@PAVISteamRemoteStorage@@@3@@details@Concurrency@@V?$allocator@U?$pair@QAVISteamRemoteStorage@@PAVIWrapSteamRemoteStorage@@@std@@@std@@$0A@@details@Concurrency@@@details@Concurrency@@ABE?AV?$_Solist_const_iterator@V?$_Split_order_list_value@U?$pair@QAVISteamRemoteStorage@@PAVIWrapSteamRemoteStorage@@@std@@V?$allocator@U?$pair@QAVISteamRemoteStorage@@PAVIWrapSteamRemoteStorage@@@std@@@2@@details@Concurrency@@@23@ABQAVISteamRemoteStorage@@@Z ; Concurrency::details::_Concurrent_hash<Concurrency::details::_Concurrent_unordered_map_traits<ISteamRemoteStorage *,IWrapSteamRemoteStorage *,Concurrency::details::_Hash_compare<ISteamRemoteStorage *,std::hash<ISteamRemoteStorage *>,std::equal_to<ISteamRemoteStorage *> >,std::allocator<std::pair<ISteamRemoteStorage * const,IWrapSteamRemoteStorage *> >,0> >::_Find
PUBLIC	?_Initialize_bucket@?$_Concurrent_hash@V?$_Concurrent_unordered_map_traits@PAVISteamRemoteStorage@@PAVIWrapSteamRemoteStorage@@V?$_Hash_compare@PAVISteamRemoteStorage@@U?$hash@PAVISteamRemoteStorage@@@std@@U?$equal_to@PAVISteamRemoteStorage@@@3@@details@Concurrency@@V?$allocator@U?$pair@QAVISteamRemoteStorage@@PAVIWrapSteamRemoteStorage@@@std@@@std@@$0A@@details@Concurrency@@@details@Concurrency@@AAEXI@Z ; Concurrency::details::_Concurrent_hash<Concurrency::details::_Concurrent_unordered_map_traits<ISteamRemoteStorage *,IWrapSteamRemoteStorage *,Concurrency::details::_Hash_compare<ISteamRemoteStorage *,std::hash<ISteamRemoteStorage *>,std::equal_to<ISteamRemoteStorage *> >,std::allocator<std::pair<ISteamRemoteStorage * const,IWrapSteamRemoteStorage *> >,0> >::_Initialize_bucket
PUBLIC	?_Adjust_table_size@?$_Concurrent_hash@V?$_Concurrent_unordered_map_traits@PAVISteamRemoteStorage@@PAVIWrapSteamRemoteStorage@@V?$_Hash_compare@PAVISteamRemoteStorage@@U?$hash@PAVISteamRemoteStorage@@@std@@U?$equal_to@PAVISteamRemoteStorage@@@3@@details@Concurrency@@V?$allocator@U?$pair@QAVISteamRemoteStorage@@PAVIWrapSteamRemoteStorage@@@std@@@std@@$0A@@details@Concurrency@@@details@Concurrency@@AAEXII@Z ; Concurrency::details::_Concurrent_hash<Concurrency::details::_Concurrent_unordered_map_traits<ISteamRemoteStorage *,IWrapSteamRemoteStorage *,Concurrency::details::_Hash_compare<ISteamRemoteStorage *,std::hash<ISteamRemoteStorage *>,std::equal_to<ISteamRemoteStorage *> >,std::allocator<std::pair<ISteamRemoteStorage * const,IWrapSteamRemoteStorage *> >,0> >::_Adjust_table_size
PUBLIC	?_Get_parent@?$_Concurrent_hash@V?$_Concurrent_unordered_map_traits@PAVISteamRemoteStorage@@PAVIWrapSteamRemoteStorage@@V?$_Hash_compare@PAVISteamRemoteStorage@@U?$hash@PAVISteamRemoteStorage@@@std@@U?$equal_to@PAVISteamRemoteStorage@@@3@@details@Concurrency@@V?$allocator@U?$pair@QAVISteamRemoteStorage@@PAVIWrapSteamRemoteStorage@@@std@@@std@@$0A@@details@Concurrency@@@details@Concurrency@@ABEII@Z ; Concurrency::details::_Concurrent_hash<Concurrency::details::_Concurrent_unordered_map_traits<ISteamRemoteStorage *,IWrapSteamRemoteStorage *,Concurrency::details::_Hash_compare<ISteamRemoteStorage *,std::hash<ISteamRemoteStorage *>,std::equal_to<ISteamRemoteStorage *> >,std::allocator<std::pair<ISteamRemoteStorage * const,IWrapSteamRemoteStorage *> >,0> >::_Get_parent
PUBLIC	?_Get_bucket@?$_Concurrent_hash@V?$_Concurrent_unordered_map_traits@PAVISteamRemoteStorage@@PAVIWrapSteamRemoteStorage@@V?$_Hash_compare@PAVISteamRemoteStorage@@U?$hash@PAVISteamRemoteStorage@@@std@@U?$equal_to@PAVISteamRemoteStorage@@@3@@details@Concurrency@@V?$allocator@U?$pair@QAVISteamRemoteStorage@@PAVIWrapSteamRemoteStorage@@@std@@@std@@$0A@@details@Concurrency@@@details@Concurrency@@ABE?AV?$_Flist_iterator@V?$_Split_order_list_value@U?$pair@QAVISteamRemoteStorage@@PAVIWrapSteamRemoteStorage@@@std@@V?$allocator@U?$pair@QAVISteamRemoteStorage@@PAVIWrapSteamRemoteStorage@@@std@@@2@@details@Concurrency@@@std@@I@Z ; Concurrency::details::_Concurrent_hash<Concurrency::details::_Concurrent_unordered_map_traits<ISteamRemoteStorage *,IWrapSteamRemoteStorage *,Concurrency::details::_Hash_compare<ISteamRemoteStorage *,std::hash<ISteamRemoteStorage *>,std::equal_to<ISteamRemoteStorage *> >,std::allocator<std::pair<ISteamRemoteStorage * const,IWrapSteamRemoteStorage *> >,0> >::_Get_bucket
PUBLIC	?_Set_bucket@?$_Concurrent_hash@V?$_Concurrent_unordered_map_traits@PAVISteamRemoteStorage@@PAVIWrapSteamRemoteStorage@@V?$_Hash_compare@PAVISteamRemoteStorage@@U?$hash@PAVISteamRemoteStorage@@@std@@U?$equal_to@PAVISteamRemoteStorage@@@3@@details@Concurrency@@V?$allocator@U?$pair@QAVISteamRemoteStorage@@PAVIWrapSteamRemoteStorage@@@std@@@std@@$0A@@details@Concurrency@@@details@Concurrency@@AAEXIV?$_Flist_iterator@V?$_Split_order_list_value@U?$pair@QAVISteamRemoteStorage@@PAVIWrapSteamRemoteStorage@@@std@@V?$allocator@U?$pair@QAVISteamRemoteStorage@@PAVIWrapSteamRemoteStorage@@@std@@@2@@details@Concurrency@@@std@@@Z ; Concurrency::details::_Concurrent_hash<Concurrency::details::_Concurrent_unordered_map_traits<ISteamRemoteStorage *,IWrapSteamRemoteStorage *,Concurrency::details::_Hash_compare<ISteamRemoteStorage *,std::hash<ISteamRemoteStorage *>,std::equal_to<ISteamRemoteStorage *> >,std::allocator<std::pair<ISteamRemoteStorage * const,IWrapSteamRemoteStorage *> >,0> >::_Set_bucket
PUBLIC	?_Is_initialized@?$_Concurrent_hash@V?$_Concurrent_unordered_map_traits@PAVISteamRemoteStorage@@PAVIWrapSteamRemoteStorage@@V?$_Hash_compare@PAVISteamRemoteStorage@@U?$hash@PAVISteamRemoteStorage@@@std@@U?$equal_to@PAVISteamRemoteStorage@@@3@@details@Concurrency@@V?$allocator@U?$pair@QAVISteamRemoteStorage@@PAVIWrapSteamRemoteStorage@@@std@@@std@@$0A@@details@Concurrency@@@details@Concurrency@@ABE_NI@Z ; Concurrency::details::_Concurrent_hash<Concurrency::details::_Concurrent_unordered_map_traits<ISteamRemoteStorage *,IWrapSteamRemoteStorage *,Concurrency::details::_Hash_compare<ISteamRemoteStorage *,std::hash<ISteamRemoteStorage *>,std::equal_to<ISteamRemoteStorage *> >,std::allocator<std::pair<ISteamRemoteStorage * const,IWrapSteamRemoteStorage *> >,0> >::_Is_initialized
PUBLIC	?_Reverse@?$_Concurrent_hash@V?$_Concurrent_unordered_map_traits@PAVISteamRemoteStorage@@PAVIWrapSteamRemoteStorage@@V?$_Hash_compare@PAVISteamRemoteStorage@@U?$hash@PAVISteamRemoteStorage@@@std@@U?$equal_to@PAVISteamRemoteStorage@@@3@@details@Concurrency@@V?$allocator@U?$pair@QAVISteamRemoteStorage@@PAVIWrapSteamRemoteStorage@@@std@@@std@@$0A@@details@Concurrency@@@details@Concurrency@@ABEII@Z ; Concurrency::details::_Concurrent_hash<Concurrency::details::_Concurrent_unordered_map_traits<ISteamRemoteStorage *,IWrapSteamRemoteStorage *,Concurrency::details::_Hash_compare<ISteamRemoteStorage *,std::hash<ISteamRemoteStorage *>,std::equal_to<ISteamRemoteStorage *> >,std::allocator<std::pair<ISteamRemoteStorage * const,IWrapSteamRemoteStorage *> >,0> >::_Reverse
PUBLIC	?_Split_order_regular_key@?$_Concurrent_hash@V?$_Concurrent_unordered_map_traits@PAVISteamRemoteStorage@@PAVIWrapSteamRemoteStorage@@V?$_Hash_compare@PAVISteamRemoteStorage@@U?$hash@PAVISteamRemoteStorage@@@std@@U?$equal_to@PAVISteamRemoteStorage@@@3@@details@Concurrency@@V?$allocator@U?$pair@QAVISteamRemoteStorage@@PAVIWrapSteamRemoteStorage@@@std@@@std@@$0A@@details@Concurrency@@@details@Concurrency@@ABEII@Z ; Concurrency::details::_Concurrent_hash<Concurrency::details::_Concurrent_unordered_map_traits<ISteamRemoteStorage *,IWrapSteamRemoteStorage *,Concurrency::details::_Hash_compare<ISteamRemoteStorage *,std::hash<ISteamRemoteStorage *>,std::equal_to<ISteamRemoteStorage *> >,std::allocator<std::pair<ISteamRemoteStorage * const,IWrapSteamRemoteStorage *> >,0> >::_Split_order_regular_key
PUBLIC	?_Split_order_dummy_key@?$_Concurrent_hash@V?$_Concurrent_unordered_map_traits@PAVISteamRemoteStorage@@PAVIWrapSteamRemoteStorage@@V?$_Hash_compare@PAVISteamRemoteStorage@@U?$hash@PAVISteamRemoteStorage@@@std@@U?$equal_to@PAVISteamRemoteStorage@@@3@@details@Concurrency@@V?$allocator@U?$pair@QAVISteamRemoteStorage@@PAVIWrapSteamRemoteStorage@@@std@@@std@@$0A@@details@Concurrency@@@details@Concurrency@@ABEII@Z ; Concurrency::details::_Concurrent_hash<Concurrency::details::_Concurrent_unordered_map_traits<ISteamRemoteStorage *,IWrapSteamRemoteStorage *,Concurrency::details::_Hash_compare<ISteamRemoteStorage *,std::hash<ISteamRemoteStorage *>,std::equal_to<ISteamRemoteStorage *> >,std::allocator<std::pair<ISteamRemoteStorage * const,IWrapSteamRemoteStorage *> >,0> >::_Split_order_dummy_key
PUBLIC	??0?$allocator@V?$_Flist_iterator@V?$_Split_order_list_value@U?$pair@QAVISteamRemoteStorage@@PAVIWrapSteamRemoteStorage@@@std@@V?$allocator@U?$pair@QAVISteamRemoteStorage@@PAVIWrapSteamRemoteStorage@@@std@@@2@@details@Concurrency@@@std@@@std@@QAE@ABV01@@Z ; std::allocator<std::_Flist_iterator<Concurrency::details::_Split_order_list_value<std::pair<ISteamRemoteStorage * const,IWrapSteamRemoteStorage *>,std::allocator<std::pair<ISteamRemoteStorage * const,IWrapSteamRemoteStorage *> > > > >::allocator<std::_Flist_iterator<Concurrency::details::_Split_order_list_value<std::pair<ISteamRemoteStorage * const,IWrapSteamRemoteStorage *>,std::allocator<std::pair<ISteamRemoteStorage * const,IWrapSteamRemoteStorage *> > > > >
PUBLIC	?deallocate@?$allocator@V?$_Flist_iterator@V?$_Split_order_list_value@U?$pair@QAVISteamRemoteStorage@@PAVIWrapSteamRemoteStorage@@@std@@V?$allocator@U?$pair@QAVISteamRemoteStorage@@PAVIWrapSteamRemoteStorage@@@std@@@2@@details@Concurrency@@@std@@@std@@QAEXPAV?$_Flist_iterator@V?$_Split_order_list_value@U?$pair@QAVISteamRemoteStorage@@PAVIWrapSteamRemoteStorage@@@std@@V?$allocator@U?$pair@QAVISteamRemoteStorage@@PAVIWrapSteamRemoteStorage@@@std@@@2@@details@Concurrency@@@2@I@Z ; std::allocator<std::_Flist_iterator<Concurrency::details::_Split_order_list_value<std::pair<ISteamRemoteStorage * const,IWrapSteamRemoteStorage *>,std::allocator<std::pair<ISteamRemoteStorage * const,IWrapSteamRemoteStorage *> > > > >::deallocate
PUBLIC	?allocate@?$allocator@V?$_Flist_iterator@V?$_Split_order_list_value@U?$pair@QAVISteamRemoteStorage@@PAVIWrapSteamRemoteStorage@@@std@@V?$allocator@U?$pair@QAVISteamRemoteStorage@@PAVIWrapSteamRemoteStorage@@@std@@@2@@details@Concurrency@@@std@@@std@@QAEPAV?$_Flist_iterator@V?$_Split_order_list_value@U?$pair@QAVISteamRemoteStorage@@PAVIWrapSteamRemoteStorage@@@std@@V?$allocator@U?$pair@QAVISteamRemoteStorage@@PAVIWrapSteamRemoteStorage@@@std@@@2@@details@Concurrency@@@2@I@Z ; std::allocator<std::_Flist_iterator<Concurrency::details::_Split_order_list_value<std::pair<ISteamRemoteStorage * const,IWrapSteamRemoteStorage *>,std::allocator<std::pair<ISteamRemoteStorage * const,IWrapSteamRemoteStorage *> > > > >::allocate
PUBLIC	??0?$concurrent_unordered_map@PAVISteamRemoteStorage@@PAVIWrapSteamRemoteStorage@@U?$hash@PAVISteamRemoteStorage@@@std@@U?$equal_to@PAVISteamRemoteStorage@@@4@V?$allocator@U?$pair@QAVISteamRemoteStorage@@PAVIWrapSteamRemoteStorage@@@std@@@4@@Concurrency@@QAE@IABU?$hash@PAVISteamRemoteStorage@@@std@@ABU?$equal_to@PAVISteamRemoteStorage@@@3@ABV?$allocator@U?$pair@QAVISteamRemoteStorage@@PAVIWrapSteamRemoteStorage@@@std@@@3@@Z ; Concurrency::concurrent_unordered_map<ISteamRemoteStorage *,IWrapSteamRemoteStorage *,std::hash<ISteamRemoteStorage *>,std::equal_to<ISteamRemoteStorage *>,std::allocator<std::pair<ISteamRemoteStorage * const,IWrapSteamRemoteStorage *> > >::concurrent_unordered_map<ISteamRemoteStorage *,IWrapSteamRemoteStorage *,std::hash<ISteamRemoteStorage *>,std::equal_to<ISteamRemoteStorage *>,std::allocator<std::pair<ISteamRemoteStorage * const,IWrapSteamRemoteStorage *> > >
PUBLIC	??A?$concurrent_unordered_map@PAVISteamRemoteStorage@@PAVIWrapSteamRemoteStorage@@U?$hash@PAVISteamRemoteStorage@@@std@@U?$equal_to@PAVISteamRemoteStorage@@@4@V?$allocator@U?$pair@QAVISteamRemoteStorage@@PAVIWrapSteamRemoteStorage@@@std@@@4@@Concurrency@@QAEAAPAVIWrapSteamRemoteStorage@@ABQAVISteamRemoteStorage@@@Z ; Concurrency::concurrent_unordered_map<ISteamRemoteStorage *,IWrapSteamRemoteStorage *,std::hash<ISteamRemoteStorage *>,std::equal_to<ISteamRemoteStorage *>,std::allocator<std::pair<ISteamRemoteStorage * const,IWrapSteamRemoteStorage *> > >::operator[]
PUBLIC	??1?$concurrent_unordered_map@PAVISteamRemoteStorage@@PAVIWrapSteamRemoteStorage@@U?$hash@PAVISteamRemoteStorage@@@std@@U?$equal_to@PAVISteamRemoteStorage@@@4@V?$allocator@U?$pair@QAVISteamRemoteStorage@@PAVIWrapSteamRemoteStorage@@@std@@@4@@Concurrency@@QAE@XZ ; Concurrency::concurrent_unordered_map<ISteamRemoteStorage *,IWrapSteamRemoteStorage *,std::hash<ISteamRemoteStorage *>,std::equal_to<ISteamRemoteStorage *>,std::allocator<std::pair<ISteamRemoteStorage * const,IWrapSteamRemoteStorage *> > >::~concurrent_unordered_map<ISteamRemoteStorage *,IWrapSteamRemoteStorage *,std::hash<ISteamRemoteStorage *>,std::equal_to<ISteamRemoteStorage *>,std::allocator<std::pair<ISteamRemoteStorage * const,IWrapSteamRemoteStorage *> > >
PUBLIC	??0IWrapSteamRemoteStorage012@@QAE@PAVISteamRemoteStorage@@@Z ; IWrapSteamRemoteStorage012::IWrapSteamRemoteStorage012
PUBLIC	?FileWrite@IWrapSteamRemoteStorage012@@UAE_NPBDPBXH@Z ; IWrapSteamRemoteStorage012::FileWrite
PUBLIC	?FileRead@IWrapSteamRemoteStorage012@@UAEHPBDPAXH@Z ; IWrapSteamRemoteStorage012::FileRead
PUBLIC	?FileForget@IWrapSteamRemoteStorage012@@UAE_NPBD@Z ; IWrapSteamRemoteStorage012::FileForget
PUBLIC	?FileDelete@IWrapSteamRemoteStorage012@@UAE_NPBD@Z ; IWrapSteamRemoteStorage012::FileDelete
PUBLIC	?FileShare@IWrapSteamRemoteStorage012@@UAE_KPBD@Z ; IWrapSteamRemoteStorage012::FileShare
PUBLIC	?SetSyncPlatforms@IWrapSteamRemoteStorage012@@UAE_NPBDW4ERemoteStoragePlatform@@@Z ; IWrapSteamRemoteStorage012::SetSyncPlatforms
PUBLIC	?FileWriteStreamOpen@IWrapSteamRemoteStorage012@@UAE_KPBD@Z ; IWrapSteamRemoteStorage012::FileWriteStreamOpen
PUBLIC	?FileWriteStreamWriteChunk@IWrapSteamRemoteStorage012@@UAE_N_KPBXH@Z ; IWrapSteamRemoteStorage012::FileWriteStreamWriteChunk
PUBLIC	?FileWriteStreamClose@IWrapSteamRemoteStorage012@@UAE_N_K@Z ; IWrapSteamRemoteStorage012::FileWriteStreamClose
PUBLIC	?FileWriteStreamCancel@IWrapSteamRemoteStorage012@@UAE_N_K@Z ; IWrapSteamRemoteStorage012::FileWriteStreamCancel
PUBLIC	?FileExists@IWrapSteamRemoteStorage012@@UAE_NPBD@Z ; IWrapSteamRemoteStorage012::FileExists
PUBLIC	?FilePersisted@IWrapSteamRemoteStorage012@@UAE_NPBD@Z ; IWrapSteamRemoteStorage012::FilePersisted
PUBLIC	?GetFileSize@IWrapSteamRemoteStorage012@@UAEHPBD@Z ; IWrapSteamRemoteStorage012::GetFileSize
PUBLIC	?GetFileTimestamp@IWrapSteamRemoteStorage012@@UAE_JPBD@Z ; IWrapSteamRemoteStorage012::GetFileTimestamp
PUBLIC	?GetSyncPlatforms@IWrapSteamRemoteStorage012@@UAE?AW4ERemoteStoragePlatform@@PBD@Z ; IWrapSteamRemoteStorage012::GetSyncPlatforms
PUBLIC	?GetFileCount@IWrapSteamRemoteStorage012@@UAEHXZ ; IWrapSteamRemoteStorage012::GetFileCount
PUBLIC	?GetFileNameAndSize@IWrapSteamRemoteStorage012@@UAEPBDHPAH@Z ; IWrapSteamRemoteStorage012::GetFileNameAndSize
PUBLIC	?GetQuota@IWrapSteamRemoteStorage012@@UAE_NPAH0@Z ; IWrapSteamRemoteStorage012::GetQuota
PUBLIC	?IsCloudEnabledForAccount@IWrapSteamRemoteStorage012@@UAE_NXZ ; IWrapSteamRemoteStorage012::IsCloudEnabledForAccount
PUBLIC	?IsCloudEnabledForApp@IWrapSteamRemoteStorage012@@UAE_NXZ ; IWrapSteamRemoteStorage012::IsCloudEnabledForApp
PUBLIC	?SetCloudEnabledForApp@IWrapSteamRemoteStorage012@@UAEX_N@Z ; IWrapSteamRemoteStorage012::SetCloudEnabledForApp
PUBLIC	?UGCDownload@IWrapSteamRemoteStorage012@@UAE_K_KI@Z ; IWrapSteamRemoteStorage012::UGCDownload
PUBLIC	?GetUGCDownloadProgress@IWrapSteamRemoteStorage012@@UAE_N_KPAH1@Z ; IWrapSteamRemoteStorage012::GetUGCDownloadProgress
PUBLIC	?GetUGCDetails@IWrapSteamRemoteStorage012@@UAE_N_KPAIPAPADPAHPAVCSteamID@@@Z ; IWrapSteamRemoteStorage012::GetUGCDetails
PUBLIC	?UGCRead@IWrapSteamRemoteStorage012@@UAEH_KPAXHIW4EUGCReadAction@@@Z ; IWrapSteamRemoteStorage012::UGCRead
PUBLIC	?GetCachedUGCCount@IWrapSteamRemoteStorage012@@UAEHXZ ; IWrapSteamRemoteStorage012::GetCachedUGCCount
PUBLIC	?GetCachedUGCHandle@IWrapSteamRemoteStorage012@@UAE_KH@Z ; IWrapSteamRemoteStorage012::GetCachedUGCHandle
PUBLIC	?PublishWorkshopFile@IWrapSteamRemoteStorage012@@UAE_KPBD0I00W4ERemoteStoragePublishedFileVisibility@@PAUSteamParamStringArray_t@@W4EWorkshopFileType@@@Z ; IWrapSteamRemoteStorage012::PublishWorkshopFile
PUBLIC	?CreatePublishedFileUpdateRequest@IWrapSteamRemoteStorage012@@UAE_K_K@Z ; IWrapSteamRemoteStorage012::CreatePublishedFileUpdateRequest
PUBLIC	?UpdatePublishedFileFile@IWrapSteamRemoteStorage012@@UAE_N_KPBD@Z ; IWrapSteamRemoteStorage012::UpdatePublishedFileFile
PUBLIC	?UpdatePublishedFilePreviewFile@IWrapSteamRemoteStorage012@@UAE_N_KPBD@Z ; IWrapSteamRemoteStorage012::UpdatePublishedFilePreviewFile
PUBLIC	?UpdatePublishedFileTitle@IWrapSteamRemoteStorage012@@UAE_N_KPBD@Z ; IWrapSteamRemoteStorage012::UpdatePublishedFileTitle
PUBLIC	?UpdatePublishedFileDescription@IWrapSteamRemoteStorage012@@UAE_N_KPBD@Z ; IWrapSteamRemoteStorage012::UpdatePublishedFileDescription
PUBLIC	?UpdatePublishedFileVisibility@IWrapSteamRemoteStorage012@@UAE_N_KW4ERemoteStoragePublishedFileVisibility@@@Z ; IWrapSteamRemoteStorage012::UpdatePublishedFileVisibility
PUBLIC	?UpdatePublishedFileTags@IWrapSteamRemoteStorage012@@UAE_N_KPAUSteamParamStringArray_t@@@Z ; IWrapSteamRemoteStorage012::UpdatePublishedFileTags
PUBLIC	?CommitPublishedFileUpdate@IWrapSteamRemoteStorage012@@UAE_K_K@Z ; IWrapSteamRemoteStorage012::CommitPublishedFileUpdate
PUBLIC	?GetPublishedFileDetails@IWrapSteamRemoteStorage012@@UAE_K_KI@Z ; IWrapSteamRemoteStorage012::GetPublishedFileDetails
PUBLIC	?DeletePublishedFile@IWrapSteamRemoteStorage012@@UAE_K_K@Z ; IWrapSteamRemoteStorage012::DeletePublishedFile
PUBLIC	?EnumerateUserPublishedFiles@IWrapSteamRemoteStorage012@@UAE_KI@Z ; IWrapSteamRemoteStorage012::EnumerateUserPublishedFiles
PUBLIC	?SubscribePublishedFile@IWrapSteamRemoteStorage012@@UAE_K_K@Z ; IWrapSteamRemoteStorage012::SubscribePublishedFile
PUBLIC	?EnumerateUserSubscribedFiles@IWrapSteamRemoteStorage012@@UAE_KI@Z ; IWrapSteamRemoteStorage012::EnumerateUserSubscribedFiles
PUBLIC	?UnsubscribePublishedFile@IWrapSteamRemoteStorage012@@UAE_K_K@Z ; IWrapSteamRemoteStorage012::UnsubscribePublishedFile
PUBLIC	?UpdatePublishedFileSetChangeDescription@IWrapSteamRemoteStorage012@@UAE_N_KPBD@Z ; IWrapSteamRemoteStorage012::UpdatePublishedFileSetChangeDescription
PUBLIC	?GetPublishedItemVoteDetails@IWrapSteamRemoteStorage012@@UAE_K_K@Z ; IWrapSteamRemoteStorage012::GetPublishedItemVoteDetails
PUBLIC	?UpdateUserPublishedItemVote@IWrapSteamRemoteStorage012@@UAE_K_K_N@Z ; IWrapSteamRemoteStorage012::UpdateUserPublishedItemVote
PUBLIC	?GetUserPublishedItemVoteDetails@IWrapSteamRemoteStorage012@@UAE_K_K@Z ; IWrapSteamRemoteStorage012::GetUserPublishedItemVoteDetails
PUBLIC	?EnumerateUserSharedWorkshopFiles@IWrapSteamRemoteStorage012@@UAE_KVCSteamID@@IPAUSteamParamStringArray_t@@1@Z ; IWrapSteamRemoteStorage012::EnumerateUserSharedWorkshopFiles
PUBLIC	?PublishVideo@IWrapSteamRemoteStorage012@@UAE_KW4EWorkshopVideoProvider@@PBD11I11W4ERemoteStoragePublishedFileVisibility@@PAUSteamParamStringArray_t@@@Z ; IWrapSteamRemoteStorage012::PublishVideo
PUBLIC	?SetUserPublishedFileAction@IWrapSteamRemoteStorage012@@UAE_K_KW4EWorkshopFileAction@@@Z ; IWrapSteamRemoteStorage012::SetUserPublishedFileAction
PUBLIC	?EnumeratePublishedFilesByUserAction@IWrapSteamRemoteStorage012@@UAE_KW4EWorkshopFileAction@@I@Z ; IWrapSteamRemoteStorage012::EnumeratePublishedFilesByUserAction
PUBLIC	?EnumeratePublishedWorkshopFiles@IWrapSteamRemoteStorage012@@UAE_KW4EWorkshopEnumerationType@@IIIPAUSteamParamStringArray_t@@1@Z ; IWrapSteamRemoteStorage012::EnumeratePublishedWorkshopFiles
PUBLIC	?UGCDownloadToLocation@IWrapSteamRemoteStorage012@@UAE_K_KPBDI@Z ; IWrapSteamRemoteStorage012::UGCDownloadToLocation
PUBLIC	??0ISteamRemoteStorage014@@QAE@XZ		; ISteamRemoteStorage014::ISteamRemoteStorage014
PUBLIC	??0IWrapSteamRemoteStorage014@@QAE@PAVISteamRemoteStorage014@@@Z ; IWrapSteamRemoteStorage014::IWrapSteamRemoteStorage014
PUBLIC	?FileWrite@IWrapSteamRemoteStorage014@@UAE_NPBDPBXH@Z ; IWrapSteamRemoteStorage014::FileWrite
PUBLIC	?FileRead@IWrapSteamRemoteStorage014@@UAEHPBDPAXH@Z ; IWrapSteamRemoteStorage014::FileRead
PUBLIC	?FileWriteAsync@IWrapSteamRemoteStorage014@@UAE_KPBDPBXI@Z ; IWrapSteamRemoteStorage014::FileWriteAsync
PUBLIC	?FileReadAsync@IWrapSteamRemoteStorage014@@UAE_KPBDII@Z ; IWrapSteamRemoteStorage014::FileReadAsync
PUBLIC	?FileReadAsyncComplete@IWrapSteamRemoteStorage014@@UAE_N_KPAXI@Z ; IWrapSteamRemoteStorage014::FileReadAsyncComplete
PUBLIC	?FileForget@IWrapSteamRemoteStorage014@@UAE_NPBD@Z ; IWrapSteamRemoteStorage014::FileForget
PUBLIC	?FileDelete@IWrapSteamRemoteStorage014@@UAE_NPBD@Z ; IWrapSteamRemoteStorage014::FileDelete
PUBLIC	?FileShare@IWrapSteamRemoteStorage014@@UAE_KPBD@Z ; IWrapSteamRemoteStorage014::FileShare
PUBLIC	?SetSyncPlatforms@IWrapSteamRemoteStorage014@@UAE_NPBDW4ERemoteStoragePlatform@@@Z ; IWrapSteamRemoteStorage014::SetSyncPlatforms
PUBLIC	?FileWriteStreamOpen@IWrapSteamRemoteStorage014@@UAE_KPBD@Z ; IWrapSteamRemoteStorage014::FileWriteStreamOpen
PUBLIC	?FileWriteStreamWriteChunk@IWrapSteamRemoteStorage014@@UAE_N_KPBXH@Z ; IWrapSteamRemoteStorage014::FileWriteStreamWriteChunk
PUBLIC	?FileWriteStreamClose@IWrapSteamRemoteStorage014@@UAE_N_K@Z ; IWrapSteamRemoteStorage014::FileWriteStreamClose
PUBLIC	?FileWriteStreamCancel@IWrapSteamRemoteStorage014@@UAE_N_K@Z ; IWrapSteamRemoteStorage014::FileWriteStreamCancel
PUBLIC	?FileExists@IWrapSteamRemoteStorage014@@UAE_NPBD@Z ; IWrapSteamRemoteStorage014::FileExists
PUBLIC	?FilePersisted@IWrapSteamRemoteStorage014@@UAE_NPBD@Z ; IWrapSteamRemoteStorage014::FilePersisted
PUBLIC	?GetFileSize@IWrapSteamRemoteStorage014@@UAEHPBD@Z ; IWrapSteamRemoteStorage014::GetFileSize
PUBLIC	?GetFileTimestamp@IWrapSteamRemoteStorage014@@UAE_JPBD@Z ; IWrapSteamRemoteStorage014::GetFileTimestamp
PUBLIC	?GetSyncPlatforms@IWrapSteamRemoteStorage014@@UAE?AW4ERemoteStoragePlatform@@PBD@Z ; IWrapSteamRemoteStorage014::GetSyncPlatforms
PUBLIC	?GetFileCount@IWrapSteamRemoteStorage014@@UAEHXZ ; IWrapSteamRemoteStorage014::GetFileCount
PUBLIC	?GetFileNameAndSize@IWrapSteamRemoteStorage014@@UAEPBDHPAH@Z ; IWrapSteamRemoteStorage014::GetFileNameAndSize
PUBLIC	?GetQuota@IWrapSteamRemoteStorage014@@UAE_NPA_K0@Z ; IWrapSteamRemoteStorage014::GetQuota
PUBLIC	?IsCloudEnabledForAccount@IWrapSteamRemoteStorage014@@UAE_NXZ ; IWrapSteamRemoteStorage014::IsCloudEnabledForAccount
PUBLIC	?IsCloudEnabledForApp@IWrapSteamRemoteStorage014@@UAE_NXZ ; IWrapSteamRemoteStorage014::IsCloudEnabledForApp
PUBLIC	?SetCloudEnabledForApp@IWrapSteamRemoteStorage014@@UAEX_N@Z ; IWrapSteamRemoteStorage014::SetCloudEnabledForApp
PUBLIC	?UGCDownload@IWrapSteamRemoteStorage014@@UAE_K_KI@Z ; IWrapSteamRemoteStorage014::UGCDownload
PUBLIC	?GetUGCDownloadProgress@IWrapSteamRemoteStorage014@@UAE_N_KPAH1@Z ; IWrapSteamRemoteStorage014::GetUGCDownloadProgress
PUBLIC	?GetUGCDetails@IWrapSteamRemoteStorage014@@UAE_N_KPAIPAPADPAHPAVCSteamID@@@Z ; IWrapSteamRemoteStorage014::GetUGCDetails
PUBLIC	?UGCRead@IWrapSteamRemoteStorage014@@UAEH_KPAXHIW4EUGCReadAction@@@Z ; IWrapSteamRemoteStorage014::UGCRead
PUBLIC	?GetCachedUGCCount@IWrapSteamRemoteStorage014@@UAEHXZ ; IWrapSteamRemoteStorage014::GetCachedUGCCount
PUBLIC	?GetCachedUGCHandle@IWrapSteamRemoteStorage014@@UAE_KH@Z ; IWrapSteamRemoteStorage014::GetCachedUGCHandle
PUBLIC	?PublishWorkshopFile@IWrapSteamRemoteStorage014@@UAE_KPBD0I00W4ERemoteStoragePublishedFileVisibility@@PAUSteamParamStringArray_t@@W4EWorkshopFileType@@@Z ; IWrapSteamRemoteStorage014::PublishWorkshopFile
PUBLIC	?CreatePublishedFileUpdateRequest@IWrapSteamRemoteStorage014@@UAE_K_K@Z ; IWrapSteamRemoteStorage014::CreatePublishedFileUpdateRequest
PUBLIC	?UpdatePublishedFileFile@IWrapSteamRemoteStorage014@@UAE_N_KPBD@Z ; IWrapSteamRemoteStorage014::UpdatePublishedFileFile
PUBLIC	?UpdatePublishedFilePreviewFile@IWrapSteamRemoteStorage014@@UAE_N_KPBD@Z ; IWrapSteamRemoteStorage014::UpdatePublishedFilePreviewFile
PUBLIC	?UpdatePublishedFileTitle@IWrapSteamRemoteStorage014@@UAE_N_KPBD@Z ; IWrapSteamRemoteStorage014::UpdatePublishedFileTitle
PUBLIC	?UpdatePublishedFileDescription@IWrapSteamRemoteStorage014@@UAE_N_KPBD@Z ; IWrapSteamRemoteStorage014::UpdatePublishedFileDescription
PUBLIC	?UpdatePublishedFileVisibility@IWrapSteamRemoteStorage014@@UAE_N_KW4ERemoteStoragePublishedFileVisibility@@@Z ; IWrapSteamRemoteStorage014::UpdatePublishedFileVisibility
PUBLIC	?UpdatePublishedFileTags@IWrapSteamRemoteStorage014@@UAE_N_KPAUSteamParamStringArray_t@@@Z ; IWrapSteamRemoteStorage014::UpdatePublishedFileTags
PUBLIC	?CommitPublishedFileUpdate@IWrapSteamRemoteStorage014@@UAE_K_K@Z ; IWrapSteamRemoteStorage014::CommitPublishedFileUpdate
PUBLIC	?GetPublishedFileDetails@IWrapSteamRemoteStorage014@@UAE_K_KI@Z ; IWrapSteamRemoteStorage014::GetPublishedFileDetails
PUBLIC	?DeletePublishedFile@IWrapSteamRemoteStorage014@@UAE_K_K@Z ; IWrapSteamRemoteStorage014::DeletePublishedFile
PUBLIC	?EnumerateUserPublishedFiles@IWrapSteamRemoteStorage014@@UAE_KI@Z ; IWrapSteamRemoteStorage014::EnumerateUserPublishedFiles
PUBLIC	?SubscribePublishedFile@IWrapSteamRemoteStorage014@@UAE_K_K@Z ; IWrapSteamRemoteStorage014::SubscribePublishedFile
PUBLIC	?EnumerateUserSubscribedFiles@IWrapSteamRemoteStorage014@@UAE_KI@Z ; IWrapSteamRemoteStorage014::EnumerateUserSubscribedFiles
PUBLIC	?UnsubscribePublishedFile@IWrapSteamRemoteStorage014@@UAE_K_K@Z ; IWrapSteamRemoteStorage014::UnsubscribePublishedFile
PUBLIC	?UpdatePublishedFileSetChangeDescription@IWrapSteamRemoteStorage014@@UAE_N_KPBD@Z ; IWrapSteamRemoteStorage014::UpdatePublishedFileSetChangeDescription
PUBLIC	?GetPublishedItemVoteDetails@IWrapSteamRemoteStorage014@@UAE_K_K@Z ; IWrapSteamRemoteStorage014::GetPublishedItemVoteDetails
PUBLIC	?UpdateUserPublishedItemVote@IWrapSteamRemoteStorage014@@UAE_K_K_N@Z ; IWrapSteamRemoteStorage014::UpdateUserPublishedItemVote
PUBLIC	?GetUserPublishedItemVoteDetails@IWrapSteamRemoteStorage014@@UAE_K_K@Z ; IWrapSteamRemoteStorage014::GetUserPublishedItemVoteDetails
PUBLIC	?EnumerateUserSharedWorkshopFiles@IWrapSteamRemoteStorage014@@UAE_KVCSteamID@@IPAUSteamParamStringArray_t@@1@Z ; IWrapSteamRemoteStorage014::EnumerateUserSharedWorkshopFiles
PUBLIC	?PublishVideo@IWrapSteamRemoteStorage014@@UAE_KW4EWorkshopVideoProvider@@PBD11I11W4ERemoteStoragePublishedFileVisibility@@PAUSteamParamStringArray_t@@@Z ; IWrapSteamRemoteStorage014::PublishVideo
PUBLIC	?SetUserPublishedFileAction@IWrapSteamRemoteStorage014@@UAE_K_KW4EWorkshopFileAction@@@Z ; IWrapSteamRemoteStorage014::SetUserPublishedFileAction
PUBLIC	?EnumeratePublishedFilesByUserAction@IWrapSteamRemoteStorage014@@UAE_KW4EWorkshopFileAction@@I@Z ; IWrapSteamRemoteStorage014::EnumeratePublishedFilesByUserAction
PUBLIC	?EnumeratePublishedWorkshopFiles@IWrapSteamRemoteStorage014@@UAE_KW4EWorkshopEnumerationType@@IIIPAUSteamParamStringArray_t@@1@Z ; IWrapSteamRemoteStorage014::EnumeratePublishedWorkshopFiles
PUBLIC	?UGCDownloadToLocation@IWrapSteamRemoteStorage014@@UAE_K_KPBDI@Z ; IWrapSteamRemoteStorage014::UGCDownloadToLocation
PUBLIC	?SteamAPI_ISteamClient_GetISteamRemoteStorage_Detour@@YAPAVISteamRemoteStorage@@PAVISteamClient@@HHPBD@Z ; SteamAPI_ISteamClient_GetISteamRemoteStorage_Detour
PUBLIC	?SK_SteamWrapper_WrappedClient_GetISteamRemoteStorage@@YAPAVISteamRemoteStorage@@PAVISteamClient@@HHPBD@Z ; SK_SteamWrapper_WrappedClient_GetISteamRemoteStorage
PUBLIC	??0?$_Flist_unchecked_const_iterator@V?$_Split_order_list_value@U?$pair@QAVISteamRemoteStorage@@PAVIWrapSteamRemoteStorage@@@std@@V?$allocator@U?$pair@QAVISteamRemoteStorage@@PAVIWrapSteamRemoteStorage@@@std@@@2@@details@Concurrency@@U_Iterator_base0@std@@@std@@QAE@XZ ; std::_Flist_unchecked_const_iterator<Concurrency::details::_Split_order_list_value<std::pair<ISteamRemoteStorage * const,IWrapSteamRemoteStorage *>,std::allocator<std::pair<ISteamRemoteStorage * const,IWrapSteamRemoteStorage *> > >,std::_Iterator_base0>::_Flist_unchecked_const_iterator<Concurrency::details::_Split_order_list_value<std::pair<ISteamRemoteStorage * const,IWrapSteamRemoteStorage *>,std::allocator<std::pair<ISteamRemoteStorage * const,IWrapSteamRemoteStorage *> > >,std::_Iterator_base0>
PUBLIC	??0?$_Flist_unchecked_const_iterator@V?$_Split_order_list_value@U?$pair@QAVISteamRemoteStorage@@PAVIWrapSteamRemoteStorage@@@std@@V?$allocator@U?$pair@QAVISteamRemoteStorage@@PAVIWrapSteamRemoteStorage@@@std@@@2@@details@Concurrency@@U_Iterator_base0@std@@@std@@QAE@PAU_Node@?$_Split_order_list_node@U?$pair@QAVISteamRemoteStorage@@PAVIWrapSteamRemoteStorage@@@std@@V?$allocator@U?$pair@QAVISteamRemoteStorage@@PAVIWrapSteamRemoteStorage@@@std@@@2@@details@Concurrency@@PBV?$_Split_order_list_value@U?$pair@QAVISteamRemoteStorage@@PAVIWrapSteamRemoteStorage@@@std@@V?$allocator@U?$pair@QAVISteamRemoteStorage@@PAVIWrapSteamRemoteStorage@@@std@@@2@@45@@Z ; std::_Flist_unchecked_const_iterator<Concurrency::details::_Split_order_list_value<std::pair<ISteamRemoteStorage * const,IWrapSteamRemoteStorage *>,std::allocator<std::pair<ISteamRemoteStorage * const,IWrapSteamRemoteStorage *> > >,std::_Iterator_base0>::_Flist_unchecked_const_iterator<Concurrency::details::_Split_order_list_value<std::pair<ISteamRemoteStorage * const,IWrapSteamRemoteStorage *>,std::allocator<std::pair<ISteamRemoteStorage * const,IWrapSteamRemoteStorage *> > >,std::_Iterator_base0>
PUBLIC	?_Mynode@?$_Flist_unchecked_const_iterator@V?$_Split_order_list_value@U?$pair@QAVISteamRemoteStorage@@PAVIWrapSteamRemoteStorage@@@std@@V?$allocator@U?$pair@QAVISteamRemoteStorage@@PAVIWrapSteamRemoteStorage@@@std@@@2@@details@Concurrency@@U_Iterator_base0@std@@@std@@QBEPAU_Node@?$_Split_order_list_node@U?$pair@QAVISteamRemoteStorage@@PAVIWrapSteamRemoteStorage@@@std@@V?$allocator@U?$pair@QAVISteamRemoteStorage@@PAVIWrapSteamRemoteStorage@@@std@@@2@@details@Concurrency@@XZ ; std::_Flist_unchecked_const_iterator<Concurrency::details::_Split_order_list_value<std::pair<ISteamRemoteStorage * const,IWrapSteamRemoteStorage *>,std::allocator<std::pair<ISteamRemoteStorage * const,IWrapSteamRemoteStorage *> > >,std::_Iterator_base0>::_Mynode
PUBLIC	??0?$_Flist_const_iterator@V?$_Split_order_list_value@U?$pair@QAVISteamRemoteStorage@@PAVIWrapSteamRemoteStorage@@@std@@V?$allocator@U?$pair@QAVISteamRemoteStorage@@PAVIWrapSteamRemoteStorage@@@std@@@2@@details@Concurrency@@@std@@QAE@XZ ; std::_Flist_const_iterator<Concurrency::details::_Split_order_list_value<std::pair<ISteamRemoteStorage * const,IWrapSteamRemoteStorage *>,std::allocator<std::pair<ISteamRemoteStorage * const,IWrapSteamRemoteStorage *> > > >::_Flist_const_iterator<Concurrency::details::_Split_order_list_value<std::pair<ISteamRemoteStorage * const,IWrapSteamRemoteStorage *>,std::allocator<std::pair<ISteamRemoteStorage * const,IWrapSteamRemoteStorage *> > > >
PUBLIC	??0?$_Flist_const_iterator@V?$_Split_order_list_value@U?$pair@QAVISteamRemoteStorage@@PAVIWrapSteamRemoteStorage@@@std@@V?$allocator@U?$pair@QAVISteamRemoteStorage@@PAVIWrapSteamRemoteStorage@@@std@@@2@@details@Concurrency@@@std@@QAE@PAU_Node@?$_Split_order_list_node@U?$pair@QAVISteamRemoteStorage@@PAVIWrapSteamRemoteStorage@@@std@@V?$allocator@U?$pair@QAVISteamRemoteStorage@@PAVIWrapSteamRemoteStorage@@@std@@@2@@details@Concurrency@@PBV?$_Split_order_list_value@U?$pair@QAVISteamRemoteStorage@@PAVIWrapSteamRemoteStorage@@@std@@V?$allocator@U?$pair@QAVISteamRemoteStorage@@PAVIWrapSteamRemoteStorage@@@std@@@2@@45@@Z ; std::_Flist_const_iterator<Concurrency::details::_Split_order_list_value<std::pair<ISteamRemoteStorage * const,IWrapSteamRemoteStorage *>,std::allocator<std::pair<ISteamRemoteStorage * const,IWrapSteamRemoteStorage *> > > >::_Flist_const_iterator<Concurrency::details::_Split_order_list_value<std::pair<ISteamRemoteStorage * const,IWrapSteamRemoteStorage *>,std::allocator<std::pair<ISteamRemoteStorage * const,IWrapSteamRemoteStorage *> > > >
PUBLIC	??D?$_Flist_const_iterator@V?$_Split_order_list_value@U?$pair@QAVISteamRemoteStorage@@PAVIWrapSteamRemoteStorage@@@std@@V?$allocator@U?$pair@QAVISteamRemoteStorage@@PAVIWrapSteamRemoteStorage@@@std@@@2@@details@Concurrency@@@std@@QBEABU?$pair@QAVISteamRemoteStorage@@PAVIWrapSteamRemoteStorage@@@1@XZ ; std::_Flist_const_iterator<Concurrency::details::_Split_order_list_value<std::pair<ISteamRemoteStorage * const,IWrapSteamRemoteStorage *>,std::allocator<std::pair<ISteamRemoteStorage * const,IWrapSteamRemoteStorage *> > > >::operator*
PUBLIC	??E?$_Flist_const_iterator@V?$_Split_order_list_value@U?$pair@QAVISteamRemoteStorage@@PAVIWrapSteamRemoteStorage@@@std@@V?$allocator@U?$pair@QAVISteamRemoteStorage@@PAVIWrapSteamRemoteStorage@@@std@@@2@@details@Concurrency@@@std@@QAEAAV01@XZ ; std::_Flist_const_iterator<Concurrency::details::_Split_order_list_value<std::pair<ISteamRemoteStorage * const,IWrapSteamRemoteStorage *>,std::allocator<std::pair<ISteamRemoteStorage * const,IWrapSteamRemoteStorage *> > > >::operator++
PUBLIC	??E?$_Flist_const_iterator@V?$_Split_order_list_value@U?$pair@QAVISteamRemoteStorage@@PAVIWrapSteamRemoteStorage@@@std@@V?$allocator@U?$pair@QAVISteamRemoteStorage@@PAVIWrapSteamRemoteStorage@@@std@@@2@@details@Concurrency@@@std@@QAE?AV01@H@Z ; std::_Flist_const_iterator<Concurrency::details::_Split_order_list_value<std::pair<ISteamRemoteStorage * const,IWrapSteamRemoteStorage *>,std::allocator<std::pair<ISteamRemoteStorage * const,IWrapSteamRemoteStorage *> > > >::operator++
PUBLIC	??8?$_Flist_const_iterator@V?$_Split_order_list_value@U?$pair@QAVISteamRemoteStorage@@PAVIWrapSteamRemoteStorage@@@std@@V?$allocator@U?$pair@QAVISteamRemoteStorage@@PAVIWrapSteamRemoteStorage@@@std@@@2@@details@Concurrency@@@std@@QBE_NABV01@@Z ; std::_Flist_const_iterator<Concurrency::details::_Split_order_list_value<std::pair<ISteamRemoteStorage * const,IWrapSteamRemoteStorage *>,std::allocator<std::pair<ISteamRemoteStorage * const,IWrapSteamRemoteStorage *> > > >::operator==
PUBLIC	??9?$_Flist_const_iterator@V?$_Split_order_list_value@U?$pair@QAVISteamRemoteStorage@@PAVIWrapSteamRemoteStorage@@@std@@V?$allocator@U?$pair@QAVISteamRemoteStorage@@PAVIWrapSteamRemoteStorage@@@std@@@2@@details@Concurrency@@@std@@QBE_NABV01@@Z ; std::_Flist_const_iterator<Concurrency::details::_Split_order_list_value<std::pair<ISteamRemoteStorage * const,IWrapSteamRemoteStorage *>,std::allocator<std::pair<ISteamRemoteStorage * const,IWrapSteamRemoteStorage *> > > >::operator!=
PUBLIC	??0?$_Solist_const_iterator@V?$_Split_order_list_value@U?$pair@QAVISteamRemoteStorage@@PAVIWrapSteamRemoteStorage@@@std@@V?$allocator@U?$pair@QAVISteamRemoteStorage@@PAVIWrapSteamRemoteStorage@@@std@@@2@@details@Concurrency@@@details@Concurrency@@QAE@PAU_Node@?$_Split_order_list_node@U?$pair@QAVISteamRemoteStorage@@PAVIWrapSteamRemoteStorage@@@std@@V?$allocator@U?$pair@QAVISteamRemoteStorage@@PAVIWrapSteamRemoteStorage@@@std@@@2@@12@PBV?$_Split_order_list_value@U?$pair@QAVISteamRemoteStorage@@PAVIWrapSteamRemoteStorage@@@std@@V?$allocator@U?$pair@QAVISteamRemoteStorage@@PAVIWrapSteamRemoteStorage@@@std@@@2@@12@@Z ; Concurrency::details::_Solist_const_iterator<Concurrency::details::_Split_order_list_value<std::pair<ISteamRemoteStorage * const,IWrapSteamRemoteStorage *>,std::allocator<std::pair<ISteamRemoteStorage * const,IWrapSteamRemoteStorage *> > > >::_Solist_const_iterator<Concurrency::details::_Split_order_list_value<std::pair<ISteamRemoteStorage * const,IWrapSteamRemoteStorage *>,std::allocator<std::pair<ISteamRemoteStorage * const,IWrapSteamRemoteStorage *> > > >
PUBLIC	??D?$_Solist_const_iterator@V?$_Split_order_list_value@U?$pair@QAVISteamRemoteStorage@@PAVIWrapSteamRemoteStorage@@@std@@V?$allocator@U?$pair@QAVISteamRemoteStorage@@PAVIWrapSteamRemoteStorage@@@std@@@2@@details@Concurrency@@@details@Concurrency@@QBEABU?$pair@QAVISteamRemoteStorage@@PAVIWrapSteamRemoteStorage@@@std@@XZ ; Concurrency::details::_Solist_const_iterator<Concurrency::details::_Split_order_list_value<std::pair<ISteamRemoteStorage * const,IWrapSteamRemoteStorage *>,std::allocator<std::pair<ISteamRemoteStorage * const,IWrapSteamRemoteStorage *> > > >::operator*
PUBLIC	??E?$_Solist_const_iterator@V?$_Split_order_list_value@U?$pair@QAVISteamRemoteStorage@@PAVIWrapSteamRemoteStorage@@@std@@V?$allocator@U?$pair@QAVISteamRemoteStorage@@PAVIWrapSteamRemoteStorage@@@std@@@2@@details@Concurrency@@@details@Concurrency@@QAEAAV012@XZ ; Concurrency::details::_Solist_const_iterator<Concurrency::details::_Split_order_list_value<std::pair<ISteamRemoteStorage * const,IWrapSteamRemoteStorage *>,std::allocator<std::pair<ISteamRemoteStorage * const,IWrapSteamRemoteStorage *> > > >::operator++
PUBLIC	??E?$_Solist_const_iterator@V?$_Split_order_list_value@U?$pair@QAVISteamRemoteStorage@@PAVIWrapSteamRemoteStorage@@@std@@V?$allocator@U?$pair@QAVISteamRemoteStorage@@PAVIWrapSteamRemoteStorage@@@std@@@2@@details@Concurrency@@@details@Concurrency@@QAE?AV012@H@Z ; Concurrency::details::_Solist_const_iterator<Concurrency::details::_Split_order_list_value<std::pair<ISteamRemoteStorage * const,IWrapSteamRemoteStorage *>,std::allocator<std::pair<ISteamRemoteStorage * const,IWrapSteamRemoteStorage *> > > >::operator++
PUBLIC	??$_Key_function@QAVISteamRemoteStorage@@PAVIWrapSteamRemoteStorage@@@?$_Concurrent_unordered_map_traits@PAVISteamRemoteStorage@@PAVIWrapSteamRemoteStorage@@V?$_Hash_compare@PAVISteamRemoteStorage@@U?$hash@PAVISteamRemoteStorage@@@std@@U?$equal_to@PAVISteamRemoteStorage@@@3@@details@Concurrency@@V?$allocator@U?$pair@QAVISteamRemoteStorage@@PAVIWrapSteamRemoteStorage@@@std@@@std@@$0A@@details@Concurrency@@SAABQAVISteamRemoteStorage@@ABU?$pair@QAVISteamRemoteStorage@@PAVIWrapSteamRemoteStorage@@@std@@@Z ; Concurrency::details::_Concurrent_unordered_map_traits<ISteamRemoteStorage *,IWrapSteamRemoteStorage *,Concurrency::details::_Hash_compare<ISteamRemoteStorage *,std::hash<ISteamRemoteStorage *>,std::equal_to<ISteamRemoteStorage *> >,std::allocator<std::pair<ISteamRemoteStorage * const,IWrapSteamRemoteStorage *> >,0>::_Key_function<ISteamRemoteStorage * const,IWrapSteamRemoteStorage *>
PUBLIC	??0?$_Flist_iterator@V?$_Split_order_list_value@U?$pair@QAVISteamRemoteStorage@@PAVIWrapSteamRemoteStorage@@@std@@V?$allocator@U?$pair@QAVISteamRemoteStorage@@PAVIWrapSteamRemoteStorage@@@std@@@2@@details@Concurrency@@@std@@QAE@XZ ; std::_Flist_iterator<Concurrency::details::_Split_order_list_value<std::pair<ISteamRemoteStorage * const,IWrapSteamRemoteStorage *>,std::allocator<std::pair<ISteamRemoteStorage * const,IWrapSteamRemoteStorage *> > > >::_Flist_iterator<Concurrency::details::_Split_order_list_value<std::pair<ISteamRemoteStorage * const,IWrapSteamRemoteStorage *>,std::allocator<std::pair<ISteamRemoteStorage * const,IWrapSteamRemoteStorage *> > > >
PUBLIC	??0?$_Flist_iterator@V?$_Split_order_list_value@U?$pair@QAVISteamRemoteStorage@@PAVIWrapSteamRemoteStorage@@@std@@V?$allocator@U?$pair@QAVISteamRemoteStorage@@PAVIWrapSteamRemoteStorage@@@std@@@2@@details@Concurrency@@@std@@QAE@PAU_Node@?$_Split_order_list_node@U?$pair@QAVISteamRemoteStorage@@PAVIWrapSteamRemoteStorage@@@std@@V?$allocator@U?$pair@QAVISteamRemoteStorage@@PAVIWrapSteamRemoteStorage@@@std@@@2@@details@Concurrency@@PBV?$_Split_order_list_value@U?$pair@QAVISteamRemoteStorage@@PAVIWrapSteamRemoteStorage@@@std@@V?$allocator@U?$pair@QAVISteamRemoteStorage@@PAVIWrapSteamRemoteStorage@@@std@@@2@@45@@Z ; std::_Flist_iterator<Concurrency::details::_Split_order_list_value<std::pair<ISteamRemoteStorage * const,IWrapSteamRemoteStorage *>,std::allocator<std::pair<ISteamRemoteStorage * const,IWrapSteamRemoteStorage *> > > >::_Flist_iterator<Concurrency::details::_Split_order_list_value<std::pair<ISteamRemoteStorage * const,IWrapSteamRemoteStorage *>,std::allocator<std::pair<ISteamRemoteStorage * const,IWrapSteamRemoteStorage *> > > >
PUBLIC	??D?$_Flist_iterator@V?$_Split_order_list_value@U?$pair@QAVISteamRemoteStorage@@PAVIWrapSteamRemoteStorage@@@std@@V?$allocator@U?$pair@QAVISteamRemoteStorage@@PAVIWrapSteamRemoteStorage@@@std@@@2@@details@Concurrency@@@std@@QBEAAU?$pair@QAVISteamRemoteStorage@@PAVIWrapSteamRemoteStorage@@@1@XZ ; std::_Flist_iterator<Concurrency::details::_Split_order_list_value<std::pair<ISteamRemoteStorage * const,IWrapSteamRemoteStorage *>,std::allocator<std::pair<ISteamRemoteStorage * const,IWrapSteamRemoteStorage *> > > >::operator*
PUBLIC	??E?$_Flist_iterator@V?$_Split_order_list_value@U?$pair@QAVISteamRemoteStorage@@PAVIWrapSteamRemoteStorage@@@std@@V?$allocator@U?$pair@QAVISteamRemoteStorage@@PAVIWrapSteamRemoteStorage@@@std@@@2@@details@Concurrency@@@std@@QAEAAV01@XZ ; std::_Flist_iterator<Concurrency::details::_Split_order_list_value<std::pair<ISteamRemoteStorage * const,IWrapSteamRemoteStorage *>,std::allocator<std::pair<ISteamRemoteStorage * const,IWrapSteamRemoteStorage *> > > >::operator++
PUBLIC	??E?$_Flist_iterator@V?$_Split_order_list_value@U?$pair@QAVISteamRemoteStorage@@PAVIWrapSteamRemoteStorage@@@std@@V?$allocator@U?$pair@QAVISteamRemoteStorage@@PAVIWrapSteamRemoteStorage@@@std@@@2@@details@Concurrency@@@std@@QAE?AV01@H@Z ; std::_Flist_iterator<Concurrency::details::_Split_order_list_value<std::pair<ISteamRemoteStorage * const,IWrapSteamRemoteStorage *>,std::allocator<std::pair<ISteamRemoteStorage * const,IWrapSteamRemoteStorage *> > > >::operator++
PUBLIC	??$destroy@V?$_Flist_iterator@V?$_Split_order_list_value@U?$pair@QAVISteamRemoteStorage@@PAVIWrapSteamRemoteStorage@@@std@@V?$allocator@U?$pair@QAVISteamRemoteStorage@@PAVIWrapSteamRemoteStorage@@@std@@@2@@details@Concurrency@@@std@@@?$allocator@V?$_Flist_iterator@V?$_Split_order_list_value@U?$pair@QAVISteamRemoteStorage@@PAVIWrapSteamRemoteStorage@@@std@@V?$allocator@U?$pair@QAVISteamRemoteStorage@@PAVIWrapSteamRemoteStorage@@@std@@@2@@details@Concurrency@@@std@@@std@@QAEXPAV?$_Flist_iterator@V?$_Split_order_list_value@U?$pair@QAVISteamRemoteStorage@@PAVIWrapSteamRemoteStorage@@@std@@V?$allocator@U?$pair@QAVISteamRemoteStorage@@PAVIWrapSteamRemoteStorage@@@std@@@2@@details@Concurrency@@@1@@Z ; std::allocator<std::_Flist_iterator<Concurrency::details::_Split_order_list_value<std::pair<ISteamRemoteStorage * const,IWrapSteamRemoteStorage *>,std::allocator<std::pair<ISteamRemoteStorage * const,IWrapSteamRemoteStorage *> > > > >::destroy<std::_Flist_iterator<Concurrency::details::_Split_order_list_value<std::pair<ISteamRemoteStorage * const,IWrapSteamRemoteStorage *>,std::allocator<std::pair<ISteamRemoteStorage * const,IWrapSteamRemoteStorage *> > > > >
PUBLIC	??0?$_Solist_iterator@V?$_Split_order_list_value@U?$pair@QAVISteamRemoteStorage@@PAVIWrapSteamRemoteStorage@@@std@@V?$allocator@U?$pair@QAVISteamRemoteStorage@@PAVIWrapSteamRemoteStorage@@@std@@@2@@details@Concurrency@@@details@Concurrency@@QAE@PAU_Node@?$_Split_order_list_node@U?$pair@QAVISteamRemoteStorage@@PAVIWrapSteamRemoteStorage@@@std@@V?$allocator@U?$pair@QAVISteamRemoteStorage@@PAVIWrapSteamRemoteStorage@@@std@@@2@@12@PBV?$_Split_order_list_value@U?$pair@QAVISteamRemoteStorage@@PAVIWrapSteamRemoteStorage@@@std@@V?$allocator@U?$pair@QAVISteamRemoteStorage@@PAVIWrapSteamRemoteStorage@@@std@@@2@@12@@Z ; Concurrency::details::_Solist_iterator<Concurrency::details::_Split_order_list_value<std::pair<ISteamRemoteStorage * const,IWrapSteamRemoteStorage *>,std::allocator<std::pair<ISteamRemoteStorage * const,IWrapSteamRemoteStorage *> > > >::_Solist_iterator<Concurrency::details::_Split_order_list_value<std::pair<ISteamRemoteStorage * const,IWrapSteamRemoteStorage *>,std::allocator<std::pair<ISteamRemoteStorage * const,IWrapSteamRemoteStorage *> > > >
PUBLIC	??D?$_Solist_iterator@V?$_Split_order_list_value@U?$pair@QAVISteamRemoteStorage@@PAVIWrapSteamRemoteStorage@@@std@@V?$allocator@U?$pair@QAVISteamRemoteStorage@@PAVIWrapSteamRemoteStorage@@@std@@@2@@details@Concurrency@@@details@Concurrency@@QBEAAU?$pair@QAVISteamRemoteStorage@@PAVIWrapSteamRemoteStorage@@@std@@XZ ; Concurrency::details::_Solist_iterator<Concurrency::details::_Split_order_list_value<std::pair<ISteamRemoteStorage * const,IWrapSteamRemoteStorage *>,std::allocator<std::pair<ISteamRemoteStorage * const,IWrapSteamRemoteStorage *> > > >::operator*
PUBLIC	??$make_pair@ABQAVISteamRemoteStorage@@PAVIWrapSteamRemoteStorage@@@std@@YA?AU?$pair@PAVISteamRemoteStorage@@PAVIWrapSteamRemoteStorage@@@0@ABQAVISteamRemoteStorage@@$$QAPAVIWrapSteamRemoteStorage@@@Z ; std::make_pair<ISteamRemoteStorage * const &,IWrapSteamRemoteStorage *>
PUBLIC	??$_Insert@U?$pair@PAVISteamRemoteStorage@@PAVIWrapSteamRemoteStorage@@@std@@@?$_Concurrent_hash@V?$_Concurrent_unordered_map_traits@PAVISteamRemoteStorage@@PAVIWrapSteamRemoteStorage@@V?$_Hash_compare@PAVISteamRemoteStorage@@U?$hash@PAVISteamRemoteStorage@@@std@@U?$equal_to@PAVISteamRemoteStorage@@@3@@details@Concurrency@@V?$allocator@U?$pair@QAVISteamRemoteStorage@@PAVIWrapSteamRemoteStorage@@@std@@@std@@$0A@@details@Concurrency@@@details@Concurrency@@IAE?AU?$pair@V?$_Solist_iterator@V?$_Split_order_list_value@U?$pair@QAVISteamRemoteStorage@@PAVIWrapSteamRemoteStorage@@@std@@V?$allocator@U?$pair@QAVISteamRemoteStorage@@PAVIWrapSteamRemoteStorage@@@std@@@2@@details@Concurrency@@@details@Concurrency@@_N@std@@$$QAU?$pair@PAVISteamRemoteStorage@@PAVIWrapSteamRemoteStorage@@@4@@Z ; Concurrency::details::_Concurrent_hash<Concurrency::details::_Concurrent_unordered_map_traits<ISteamRemoteStorage *,IWrapSteamRemoteStorage *,Concurrency::details::_Hash_compare<ISteamRemoteStorage *,std::hash<ISteamRemoteStorage *>,std::equal_to<ISteamRemoteStorage *> >,std::allocator<std::pair<ISteamRemoteStorage * const,IWrapSteamRemoteStorage *> >,0> >::_Insert<std::pair<ISteamRemoteStorage *,IWrapSteamRemoteStorage *> >
PUBLIC	?_Init@_Node@?$_Split_order_list_node@U?$pair@QAVISteamRemoteStorage@@PAVIWrapSteamRemoteStorage@@@std@@V?$allocator@U?$pair@QAVISteamRemoteStorage@@PAVIWrapSteamRemoteStorage@@@std@@@2@@details@Concurrency@@QAEXI@Z ; Concurrency::details::_Split_order_list_node<std::pair<ISteamRemoteStorage * const,IWrapSteamRemoteStorage *>,std::allocator<std::pair<ISteamRemoteStorage * const,IWrapSteamRemoteStorage *> > >::_Node::_Init
PUBLIC	?_Get_order_key@_Node@?$_Split_order_list_node@U?$pair@QAVISteamRemoteStorage@@PAVIWrapSteamRemoteStorage@@@std@@V?$allocator@U?$pair@QAVISteamRemoteStorage@@PAVIWrapSteamRemoteStorage@@@std@@@2@@details@Concurrency@@QBEIXZ ; Concurrency::details::_Split_order_list_node<std::pair<ISteamRemoteStorage * const,IWrapSteamRemoteStorage *>,std::allocator<std::pair<ISteamRemoteStorage * const,IWrapSteamRemoteStorage *> > >::_Node::_Get_order_key
PUBLIC	?_Atomic_set_next@_Node@?$_Split_order_list_node@U?$pair@QAVISteamRemoteStorage@@PAVIWrapSteamRemoteStorage@@@std@@V?$allocator@U?$pair@QAVISteamRemoteStorage@@PAVIWrapSteamRemoteStorage@@@std@@@2@@details@Concurrency@@QAEPAU1234@PAU1234@0@Z ; Concurrency::details::_Split_order_list_node<std::pair<ISteamRemoteStorage * const,IWrapSteamRemoteStorage *>,std::allocator<std::pair<ISteamRemoteStorage * const,IWrapSteamRemoteStorage *> > >::_Node::_Atomic_set_next
PUBLIC	?_Is_dummy@_Node@?$_Split_order_list_node@U?$pair@QAVISteamRemoteStorage@@PAVIWrapSteamRemoteStorage@@@std@@V?$allocator@U?$pair@QAVISteamRemoteStorage@@PAVIWrapSteamRemoteStorage@@@std@@@2@@details@Concurrency@@QBE_NXZ ; Concurrency::details::_Split_order_list_node<std::pair<ISteamRemoteStorage * const,IWrapSteamRemoteStorage *>,std::allocator<std::pair<ISteamRemoteStorage * const,IWrapSteamRemoteStorage *> > >::_Node::_Is_dummy
PUBLIC	??$?0U?$pair@QAVISteamRemoteStorage@@PAVIWrapSteamRemoteStorage@@@std@@@?$allocator@V?$_Flist_iterator@V?$_Split_order_list_value@U?$pair@QAVISteamRemoteStorage@@PAVIWrapSteamRemoteStorage@@@std@@V?$allocator@U?$pair@QAVISteamRemoteStorage@@PAVIWrapSteamRemoteStorage@@@std@@@2@@details@Concurrency@@@std@@@std@@QAE@ABV?$allocator@U?$pair@QAVISteamRemoteStorage@@PAVIWrapSteamRemoteStorage@@@std@@@1@@Z ; std::allocator<std::_Flist_iterator<Concurrency::details::_Split_order_list_value<std::pair<ISteamRemoteStorage * const,IWrapSteamRemoteStorage *>,std::allocator<std::pair<ISteamRemoteStorage * const,IWrapSteamRemoteStorage *> > > > >::allocator<std::_Flist_iterator<Concurrency::details::_Split_order_list_value<std::pair<ISteamRemoteStorage * const,IWrapSteamRemoteStorage *>,std::allocator<std::pair<ISteamRemoteStorage * const,IWrapSteamRemoteStorage *> > > > ><std::pair<ISteamRemoteStorage * const,IWrapSteamRemoteStorage *> >
PUBLIC	??$destroy@U_Node@?$_Split_order_list_node@U?$pair@QAVISteamRemoteStorage@@PAVIWrapSteamRemoteStorage@@@std@@V?$allocator@U?$pair@QAVISteamRemoteStorage@@PAVIWrapSteamRemoteStorage@@@std@@@2@@details@Concurrency@@@?$allocator@U_Node@?$_Split_order_list_node@U?$pair@QAVISteamRemoteStorage@@PAVIWrapSteamRemoteStorage@@@std@@V?$allocator@U?$pair@QAVISteamRemoteStorage@@PAVIWrapSteamRemoteStorage@@@std@@@2@@details@Concurrency@@@std@@QAEXPAU_Node@?$_Split_order_list_node@U?$pair@QAVISteamRemoteStorage@@PAVIWrapSteamRemoteStorage@@@std@@V?$allocator@U?$pair@QAVISteamRemoteStorage@@PAVIWrapSteamRemoteStorage@@@std@@@2@@details@Concurrency@@@Z ; std::allocator<Concurrency::details::_Split_order_list_node<std::pair<ISteamRemoteStorage * const,IWrapSteamRemoteStorage *>,std::allocator<std::pair<ISteamRemoteStorage * const,IWrapSteamRemoteStorage *> > >::_Node>::destroy<Concurrency::details::_Split_order_list_node<std::pair<ISteamRemoteStorage * const,IWrapSteamRemoteStorage *>,std::allocator<std::pair<ISteamRemoteStorage * const,IWrapSteamRemoteStorage *> > >::_Node>
PUBLIC	??$?0AAV?$allocator@V?$_Flist_iterator@V?$_Split_order_list_value@U?$pair@QAVISteamRemoteStorage@@PAVIWrapSteamRemoteStorage@@@std@@V?$allocator@U?$pair@QAVISteamRemoteStorage@@PAVIWrapSteamRemoteStorage@@@std@@@2@@details@Concurrency@@@std@@@std@@@?$_Wrap_alloc@V?$allocator@V?$_Flist_iterator@V?$_Split_order_list_value@U?$pair@QAVISteamRemoteStorage@@PAVIWrapSteamRemoteStorage@@@std@@V?$allocator@U?$pair@QAVISteamRemoteStorage@@PAVIWrapSteamRemoteStorage@@@std@@@2@@details@Concurrency@@@std@@@std@@@std@@QAE@AAV?$allocator@V?$_Flist_iterator@V?$_Split_order_list_value@U?$pair@QAVISteamRemoteStorage@@PAVIWrapSteamRemoteStorage@@@std@@V?$allocator@U?$pair@QAVISteamRemoteStorage@@PAVIWrapSteamRemoteStorage@@@std@@@2@@details@Concurrency@@@std@@@1@@Z ; std::_Wrap_alloc<std::allocator<std::_Flist_iterator<Concurrency::details::_Split_order_list_value<std::pair<ISteamRemoteStorage * const,IWrapSteamRemoteStorage *>,std::allocator<std::pair<ISteamRemoteStorage * const,IWrapSteamRemoteStorage *> > > > > >::_Wrap_alloc<std::allocator<std::_Flist_iterator<Concurrency::details::_Split_order_list_value<std::pair<ISteamRemoteStorage * const,IWrapSteamRemoteStorage *>,std::allocator<std::pair<ISteamRemoteStorage * const,IWrapSteamRemoteStorage *> > > > > ><std::allocator<std::_Flist_iterator<Concurrency::details::_Split_order_list_value<std::pair<ISteamRemoteStorage * const,IWrapSteamRemoteStorage *>,std::allocator<std::pair<ISteamRemoteStorage * const,IWrapSteamRemoteStorage *> > > > > &>
PUBLIC	??$_Uninitialized_default_fill_n@PAV?$_Flist_iterator@V?$_Split_order_list_value@U?$pair@QAVISteamRemoteStorage@@PAVIWrapSteamRemoteStorage@@@std@@V?$allocator@U?$pair@QAVISteamRemoteStorage@@PAVIWrapSteamRemoteStorage@@@std@@@2@@details@Concurrency@@@std@@IV?$allocator@V?$_Flist_iterator@V?$_Split_order_list_value@U?$pair@QAVISteamRemoteStorage@@PAVIWrapSteamRemoteStorage@@@std@@V?$allocator@U?$pair@QAVISteamRemoteStorage@@PAVIWrapSteamRemoteStorage@@@std@@@2@@details@Concurrency@@@std@@@2@@std@@YAPAV?$_Flist_iterator@V?$_Split_order_list_value@U?$pair@QAVISteamRemoteStorage@@PAVIWrapSteamRemoteStorage@@@std@@V?$allocator@U?$pair@QAVISteamRemoteStorage@@PAVIWrapSteamRemoteStorage@@@std@@@2@@details@Concurrency@@@0@PAV10@IAAU?$_Wrap_alloc@V?$allocator@V?$_Flist_iterator@V?$_Split_order_list_value@U?$pair@QAVISteamRemoteStorage@@PAVIWrapSteamRemoteStorage@@@std@@V?$allocator@U?$pair@QAVISteamRemoteStorage@@PAVIWrapSteamRemoteStorage@@@std@@@2@@details@Concurrency@@@std@@@std@@@0@@Z ; std::_Uninitialized_default_fill_n<std::_Flist_iterator<Concurrency::details::_Split_order_list_value<std::pair<ISteamRemoteStorage * const,IWrapSteamRemoteStorage *>,std::allocator<std::pair<ISteamRemoteStorage * const,IWrapSteamRemoteStorage *> > > > *,unsigned int,std::allocator<std::_Flist_iterator<Concurrency::details::_Split_order_list_value<std::pair<ISteamRemoteStorage * const,IWrapSteamRemoteStorage *>,std::allocator<std::pair<ISteamRemoteStorage * const,IWrapSteamRemoteStorage *> > > > > >
PUBLIC	??$?0U?$pair@QAVISteamRemoteStorage@@PAVIWrapSteamRemoteStorage@@@std@@@?$allocator@U_Node@?$_Split_order_list_node@U?$pair@QAVISteamRemoteStorage@@PAVIWrapSteamRemoteStorage@@@std@@V?$allocator@U?$pair@QAVISteamRemoteStorage@@PAVIWrapSteamRemoteStorage@@@std@@@2@@details@Concurrency@@@std@@QAE@ABV?$allocator@U?$pair@QAVISteamRemoteStorage@@PAVIWrapSteamRemoteStorage@@@std@@@1@@Z ; std::allocator<Concurrency::details::_Split_order_list_node<std::pair<ISteamRemoteStorage * const,IWrapSteamRemoteStorage *>,std::allocator<std::pair<ISteamRemoteStorage * const,IWrapSteamRemoteStorage *> > >::_Node>::allocator<Concurrency::details::_Split_order_list_node<std::pair<ISteamRemoteStorage * const,IWrapSteamRemoteStorage *>,std::allocator<std::pair<ISteamRemoteStorage * const,IWrapSteamRemoteStorage *> > >::_Node><std::pair<ISteamRemoteStorage * const,IWrapSteamRemoteStorage *> >
PUBLIC	??$forward@ABQAVISteamRemoteStorage@@@std@@YAABQAVISteamRemoteStorage@@ABQAV1@@Z ; std::forward<ISteamRemoteStorage * const &>
PUBLIC	??$forward@PAVIWrapSteamRemoteStorage@@@std@@YA$$QAPAVIWrapSteamRemoteStorage@@AAPAV1@@Z ; std::forward<IWrapSteamRemoteStorage *>
PUBLIC	??$?0ABQAVISteamRemoteStorage@@PAVIWrapSteamRemoteStorage@@X$0A@@?$pair@PAVISteamRemoteStorage@@PAVIWrapSteamRemoteStorage@@@std@@QAE@ABQAVISteamRemoteStorage@@$$QAPAVIWrapSteamRemoteStorage@@@Z ; std::pair<ISteamRemoteStorage *,IWrapSteamRemoteStorage *>::pair<ISteamRemoteStorage *,IWrapSteamRemoteStorage *><ISteamRemoteStorage * const &,IWrapSteamRemoteStorage *,void,0>
PUBLIC	??$_Key_function@PAVISteamRemoteStorage@@PAVIWrapSteamRemoteStorage@@@?$_Concurrent_unordered_map_traits@PAVISteamRemoteStorage@@PAVIWrapSteamRemoteStorage@@V?$_Hash_compare@PAVISteamRemoteStorage@@U?$hash@PAVISteamRemoteStorage@@@std@@U?$equal_to@PAVISteamRemoteStorage@@@3@@details@Concurrency@@V?$allocator@U?$pair@QAVISteamRemoteStorage@@PAVIWrapSteamRemoteStorage@@@std@@@std@@$0A@@details@Concurrency@@SAABQAVISteamRemoteStorage@@ABU?$pair@PAVISteamRemoteStorage@@PAVIWrapSteamRemoteStorage@@@std@@@Z ; Concurrency::details::_Concurrent_unordered_map_traits<ISteamRemoteStorage *,IWrapSteamRemoteStorage *,Concurrency::details::_Hash_compare<ISteamRemoteStorage *,std::hash<ISteamRemoteStorage *>,std::equal_to<ISteamRemoteStorage *> >,std::allocator<std::pair<ISteamRemoteStorage * const,IWrapSteamRemoteStorage *> >,0>::_Key_function<ISteamRemoteStorage *,IWrapSteamRemoteStorage *>
PUBLIC	??$forward@U?$pair@PAVISteamRemoteStorage@@PAVIWrapSteamRemoteStorage@@@std@@@std@@YA$$QAU?$pair@PAVISteamRemoteStorage@@PAVIWrapSteamRemoteStorage@@@0@AAU10@@Z ; std::forward<std::pair<ISteamRemoteStorage *,IWrapSteamRemoteStorage *> >
PUBLIC	??$_Buynode@U?$pair@PAVISteamRemoteStorage@@PAVIWrapSteamRemoteStorage@@@std@@@?$_Split_order_list_value@U?$pair@QAVISteamRemoteStorage@@PAVIWrapSteamRemoteStorage@@@std@@V?$allocator@U?$pair@QAVISteamRemoteStorage@@PAVIWrapSteamRemoteStorage@@@std@@@2@@details@Concurrency@@QAEPAU_Node@?$_Split_order_list_node@U?$pair@QAVISteamRemoteStorage@@PAVIWrapSteamRemoteStorage@@@std@@V?$allocator@U?$pair@QAVISteamRemoteStorage@@PAVIWrapSteamRemoteStorage@@@std@@@2@@12@I$$QAU?$pair@PAVISteamRemoteStorage@@PAVIWrapSteamRemoteStorage@@@std@@@Z ; Concurrency::details::_Split_order_list_value<std::pair<ISteamRemoteStorage * const,IWrapSteamRemoteStorage *>,std::allocator<std::pair<ISteamRemoteStorage * const,IWrapSteamRemoteStorage *> > >::_Buynode<std::pair<ISteamRemoteStorage *,IWrapSteamRemoteStorage *> >
PUBLIC	??$?0V?$_Solist_iterator@V?$_Split_order_list_value@U?$pair@QAVISteamRemoteStorage@@PAVIWrapSteamRemoteStorage@@@std@@V?$allocator@U?$pair@QAVISteamRemoteStorage@@PAVIWrapSteamRemoteStorage@@@std@@@2@@details@Concurrency@@@details@Concurrency@@_NX$0A@@?$pair@V?$_Solist_iterator@V?$_Split_order_list_value@U?$pair@QAVISteamRemoteStorage@@PAVIWrapSteamRemoteStorage@@@std@@V?$allocator@U?$pair@QAVISteamRemoteStorage@@PAVIWrapSteamRemoteStorage@@@std@@@2@@details@Concurrency@@@details@Concurrency@@_N@std@@QAE@$$QAV?$_Solist_iterator@V?$_Split_order_list_value@U?$pair@QAVISteamRemoteStorage@@PAVIWrapSteamRemoteStorage@@@std@@V?$allocator@U?$pair@QAVISteamRemoteStorage@@PAVIWrapSteamRemoteStorage@@@std@@@2@@details@Concurrency@@@details@Concurrency@@$$QA_N@Z ; std::pair<Concurrency::details::_Solist_iterator<Concurrency::details::_Split_order_list_value<std::pair<ISteamRemoteStorage * const,IWrapSteamRemoteStorage *>,std::allocator<std::pair<ISteamRemoteStorage * const,IWrapSteamRemoteStorage *> > > >,bool>::pair<Concurrency::details::_Solist_iterator<Concurrency::details::_Split_order_list_value<std::pair<ISteamRemoteStorage * const,IWrapSteamRemoteStorage *>,std::allocator<std::pair<ISteamRemoteStorage * const,IWrapSteamRemoteStorage *> > > >,bool><Concurrency::details::_Solist_iterator<Concurrency::details::_Split_order_list_value<std::pair<ISteamRemoteStorage * const,IWrapSteamRemoteStorage *>,std::allocator<std::pair<ISteamRemoteStorage * const,IWrapSteamRemoteStorage *> > > >,bool,void,0>
PUBLIC	??$forward@AAV?$allocator@V?$_Flist_iterator@V?$_Split_order_list_value@U?$pair@QAVISteamRemoteStorage@@PAVIWrapSteamRemoteStorage@@@std@@V?$allocator@U?$pair@QAVISteamRemoteStorage@@PAVIWrapSteamRemoteStorage@@@std@@@2@@details@Concurrency@@@std@@@std@@@std@@YAAAV?$allocator@V?$_Flist_iterator@V?$_Split_order_list_value@U?$pair@QAVISteamRemoteStorage@@PAVIWrapSteamRemoteStorage@@@std@@V?$allocator@U?$pair@QAVISteamRemoteStorage@@PAVIWrapSteamRemoteStorage@@@std@@@2@@details@Concurrency@@@std@@@0@AAV10@@Z ; std::forward<std::allocator<std::_Flist_iterator<Concurrency::details::_Split_order_list_value<std::pair<ISteamRemoteStorage * const,IWrapSteamRemoteStorage *>,std::allocator<std::pair<ISteamRemoteStorage * const,IWrapSteamRemoteStorage *> > > > > &>
PUBLIC	??$_Unfancy@V?$_Flist_iterator@V?$_Split_order_list_value@U?$pair@QAVISteamRemoteStorage@@PAVIWrapSteamRemoteStorage@@@std@@V?$allocator@U?$pair@QAVISteamRemoteStorage@@PAVIWrapSteamRemoteStorage@@@std@@@2@@details@Concurrency@@@std@@@std@@YAPAV?$_Flist_iterator@V?$_Split_order_list_value@U?$pair@QAVISteamRemoteStorage@@PAVIWrapSteamRemoteStorage@@@std@@V?$allocator@U?$pair@QAVISteamRemoteStorage@@PAVIWrapSteamRemoteStorage@@@std@@@2@@details@Concurrency@@@0@PAV10@@Z ; std::_Unfancy<std::_Flist_iterator<Concurrency::details::_Split_order_list_value<std::pair<ISteamRemoteStorage * const,IWrapSteamRemoteStorage *>,std::allocator<std::pair<ISteamRemoteStorage * const,IWrapSteamRemoteStorage *> > > > >
PUBLIC	??$_Uninitialized_default_fill_n1@PAV?$_Flist_iterator@V?$_Split_order_list_value@U?$pair@QAVISteamRemoteStorage@@PAVIWrapSteamRemoteStorage@@@std@@V?$allocator@U?$pair@QAVISteamRemoteStorage@@PAVIWrapSteamRemoteStorage@@@std@@@2@@details@Concurrency@@@std@@IV?$allocator@V?$_Flist_iterator@V?$_Split_order_list_value@U?$pair@QAVISteamRemoteStorage@@PAVIWrapSteamRemoteStorage@@@std@@V?$allocator@U?$pair@QAVISteamRemoteStorage@@PAVIWrapSteamRemoteStorage@@@std@@@2@@details@Concurrency@@@std@@@2@@std@@YAPAV?$_Flist_iterator@V?$_Split_order_list_value@U?$pair@QAVISteamRemoteStorage@@PAVIWrapSteamRemoteStorage@@@std@@V?$allocator@U?$pair@QAVISteamRemoteStorage@@PAVIWrapSteamRemoteStorage@@@std@@@2@@details@Concurrency@@@0@PAV10@IAAU?$_Wrap_alloc@V?$allocator@V?$_Flist_iterator@V?$_Split_order_list_value@U?$pair@QAVISteamRemoteStorage@@PAVIWrapSteamRemoteStorage@@@std@@V?$allocator@U?$pair@QAVISteamRemoteStorage@@PAVIWrapSteamRemoteStorage@@@std@@@2@@details@Concurrency@@@std@@@std@@@0@U?$integral_constant@_N$0A@@0@@Z ; std::_Uninitialized_default_fill_n1<std::_Flist_iterator<Concurrency::details::_Split_order_list_value<std::pair<ISteamRemoteStorage * const,IWrapSteamRemoteStorage *>,std::allocator<std::pair<ISteamRemoteStorage * const,IWrapSteamRemoteStorage *> > > > *,unsigned int,std::allocator<std::_Flist_iterator<Concurrency::details::_Split_order_list_value<std::pair<ISteamRemoteStorage * const,IWrapSteamRemoteStorage *>,std::allocator<std::pair<ISteamRemoteStorage * const,IWrapSteamRemoteStorage *> > > > > >
PUBLIC	??$addressof@U?$pair@QAVISteamRemoteStorage@@PAVIWrapSteamRemoteStorage@@@std@@@std@@YAPAU?$pair@QAVISteamRemoteStorage@@PAVIWrapSteamRemoteStorage@@@0@AAU10@@Z ; std::addressof<std::pair<ISteamRemoteStorage * const,IWrapSteamRemoteStorage *> >
PUBLIC	??$construct@U?$pair@QAVISteamRemoteStorage@@PAVIWrapSteamRemoteStorage@@@std@@U?$pair@PAVISteamRemoteStorage@@PAVIWrapSteamRemoteStorage@@@2@@?$allocator@U?$pair@QAVISteamRemoteStorage@@PAVIWrapSteamRemoteStorage@@@std@@@std@@QAEXPAU?$pair@QAVISteamRemoteStorage@@PAVIWrapSteamRemoteStorage@@@1@$$QAU?$pair@PAVISteamRemoteStorage@@PAVIWrapSteamRemoteStorage@@@1@@Z ; std::allocator<std::pair<ISteamRemoteStorage * const,IWrapSteamRemoteStorage *> >::construct<std::pair<ISteamRemoteStorage * const,IWrapSteamRemoteStorage *>,std::pair<ISteamRemoteStorage *,IWrapSteamRemoteStorage *> >
PUBLIC	??$forward@V?$_Solist_iterator@V?$_Split_order_list_value@U?$pair@QAVISteamRemoteStorage@@PAVIWrapSteamRemoteStorage@@@std@@V?$allocator@U?$pair@QAVISteamRemoteStorage@@PAVIWrapSteamRemoteStorage@@@std@@@2@@details@Concurrency@@@details@Concurrency@@@std@@YA$$QAV?$_Solist_iterator@V?$_Split_order_list_value@U?$pair@QAVISteamRemoteStorage@@PAVIWrapSteamRemoteStorage@@@std@@V?$allocator@U?$pair@QAVISteamRemoteStorage@@PAVIWrapSteamRemoteStorage@@@std@@@2@@details@Concurrency@@@details@Concurrency@@AAV123@@Z ; std::forward<Concurrency::details::_Solist_iterator<Concurrency::details::_Split_order_list_value<std::pair<ISteamRemoteStorage * const,IWrapSteamRemoteStorage *>,std::allocator<std::pair<ISteamRemoteStorage * const,IWrapSteamRemoteStorage *> > > > >
PUBLIC	??$forward@_N@std@@YA$$QA_NAA_N@Z		; std::forward<bool>
PUBLIC	??$construct@V?$_Flist_iterator@V?$_Split_order_list_value@U?$pair@QAVISteamRemoteStorage@@PAVIWrapSteamRemoteStorage@@@std@@V?$allocator@U?$pair@QAVISteamRemoteStorage@@PAVIWrapSteamRemoteStorage@@@std@@@2@@details@Concurrency@@@std@@$$V@?$_Wrap_alloc@V?$allocator@V?$_Flist_iterator@V?$_Split_order_list_value@U?$pair@QAVISteamRemoteStorage@@PAVIWrapSteamRemoteStorage@@@std@@V?$allocator@U?$pair@QAVISteamRemoteStorage@@PAVIWrapSteamRemoteStorage@@@std@@@2@@details@Concurrency@@@std@@@std@@@std@@QAEXPAV?$_Flist_iterator@V?$_Split_order_list_value@U?$pair@QAVISteamRemoteStorage@@PAVIWrapSteamRemoteStorage@@@std@@V?$allocator@U?$pair@QAVISteamRemoteStorage@@PAVIWrapSteamRemoteStorage@@@std@@@2@@details@Concurrency@@@1@@Z ; std::_Wrap_alloc<std::allocator<std::_Flist_iterator<Concurrency::details::_Split_order_list_value<std::pair<ISteamRemoteStorage * const,IWrapSteamRemoteStorage *>,std::allocator<std::pair<ISteamRemoteStorage * const,IWrapSteamRemoteStorage *> > > > > >::construct<std::_Flist_iterator<Concurrency::details::_Split_order_list_value<std::pair<ISteamRemoteStorage * const,IWrapSteamRemoteStorage *>,std::allocator<std::pair<ISteamRemoteStorage * const,IWrapSteamRemoteStorage *> > > > >
PUBLIC	??$_Destroy_range@V?$allocator@V?$_Flist_iterator@V?$_Split_order_list_value@U?$pair@QAVISteamRemoteStorage@@PAVIWrapSteamRemoteStorage@@@std@@V?$allocator@U?$pair@QAVISteamRemoteStorage@@PAVIWrapSteamRemoteStorage@@@std@@@2@@details@Concurrency@@@std@@@std@@PAV?$_Flist_iterator@V?$_Split_order_list_value@U?$pair@QAVISteamRemoteStorage@@PAVIWrapSteamRemoteStorage@@@std@@V?$allocator@U?$pair@QAVISteamRemoteStorage@@PAVIWrapSteamRemoteStorage@@@std@@@2@@details@Concurrency@@@2@@std@@YAXPAV?$_Flist_iterator@V?$_Split_order_list_value@U?$pair@QAVISteamRemoteStorage@@PAVIWrapSteamRemoteStorage@@@std@@V?$allocator@U?$pair@QAVISteamRemoteStorage@@PAVIWrapSteamRemoteStorage@@@std@@@2@@details@Concurrency@@@0@0AAU?$_Wrap_alloc@V?$allocator@V?$_Flist_iterator@V?$_Split_order_list_value@U?$pair@QAVISteamRemoteStorage@@PAVIWrapSteamRemoteStorage@@@std@@V?$allocator@U?$pair@QAVISteamRemoteStorage@@PAVIWrapSteamRemoteStorage@@@std@@@2@@details@Concurrency@@@std@@@std@@@0@@Z ; std::_Destroy_range<std::allocator<std::_Flist_iterator<Concurrency::details::_Split_order_list_value<std::pair<ISteamRemoteStorage * const,IWrapSteamRemoteStorage *>,std::allocator<std::pair<ISteamRemoteStorage * const,IWrapSteamRemoteStorage *> > > > >,std::_Flist_iterator<Concurrency::details::_Split_order_list_value<std::pair<ISteamRemoteStorage * const,IWrapSteamRemoteStorage *>,std::allocator<std::pair<ISteamRemoteStorage * const,IWrapSteamRemoteStorage *> > > > *>
PUBLIC	??$?0PAVISteamRemoteStorage@@PAVIWrapSteamRemoteStorage@@X$0A@@?$pair@QAVISteamRemoteStorage@@PAVIWrapSteamRemoteStorage@@@std@@QAE@$$QAU?$pair@PAVISteamRemoteStorage@@PAVIWrapSteamRemoteStorage@@@1@@Z ; std::pair<ISteamRemoteStorage * const,IWrapSteamRemoteStorage *>::pair<ISteamRemoteStorage * const,IWrapSteamRemoteStorage *><ISteamRemoteStorage *,IWrapSteamRemoteStorage *,void,0>
PUBLIC	??$construct@V?$_Flist_iterator@V?$_Split_order_list_value@U?$pair@QAVISteamRemoteStorage@@PAVIWrapSteamRemoteStorage@@@std@@V?$allocator@U?$pair@QAVISteamRemoteStorage@@PAVIWrapSteamRemoteStorage@@@std@@@2@@details@Concurrency@@@std@@$$V@?$allocator_traits@V?$allocator@V?$_Flist_iterator@V?$_Split_order_list_value@U?$pair@QAVISteamRemoteStorage@@PAVIWrapSteamRemoteStorage@@@std@@V?$allocator@U?$pair@QAVISteamRemoteStorage@@PAVIWrapSteamRemoteStorage@@@std@@@2@@details@Concurrency@@@std@@@std@@@std@@SAXAAV?$allocator@V?$_Flist_iterator@V?$_Split_order_list_value@U?$pair@QAVISteamRemoteStorage@@PAVIWrapSteamRemoteStorage@@@std@@V?$allocator@U?$pair@QAVISteamRemoteStorage@@PAVIWrapSteamRemoteStorage@@@std@@@2@@details@Concurrency@@@std@@@1@PAV?$_Flist_iterator@V?$_Split_order_list_value@U?$pair@QAVISteamRemoteStorage@@PAVIWrapSteamRemoteStorage@@@std@@V?$allocator@U?$pair@QAVISteamRemoteStorage@@PAVIWrapSteamRemoteStorage@@@std@@@2@@details@Concurrency@@@1@@Z ; std::allocator_traits<std::allocator<std::_Flist_iterator<Concurrency::details::_Split_order_list_value<std::pair<ISteamRemoteStorage * const,IWrapSteamRemoteStorage *>,std::allocator<std::pair<ISteamRemoteStorage * const,IWrapSteamRemoteStorage *> > > > > >::construct<std::_Flist_iterator<Concurrency::details::_Split_order_list_value<std::pair<ISteamRemoteStorage * const,IWrapSteamRemoteStorage *>,std::allocator<std::pair<ISteamRemoteStorage * const,IWrapSteamRemoteStorage *> > > > >
PUBLIC	??$_Destroy_range1@V?$allocator@V?$_Flist_iterator@V?$_Split_order_list_value@U?$pair@QAVISteamRemoteStorage@@PAVIWrapSteamRemoteStorage@@@std@@V?$allocator@U?$pair@QAVISteamRemoteStorage@@PAVIWrapSteamRemoteStorage@@@std@@@2@@details@Concurrency@@@std@@@std@@PAV?$_Flist_iterator@V?$_Split_order_list_value@U?$pair@QAVISteamRemoteStorage@@PAVIWrapSteamRemoteStorage@@@std@@V?$allocator@U?$pair@QAVISteamRemoteStorage@@PAVIWrapSteamRemoteStorage@@@std@@@2@@details@Concurrency@@@2@@std@@YAXPAV?$_Flist_iterator@V?$_Split_order_list_value@U?$pair@QAVISteamRemoteStorage@@PAVIWrapSteamRemoteStorage@@@std@@V?$allocator@U?$pair@QAVISteamRemoteStorage@@PAVIWrapSteamRemoteStorage@@@std@@@2@@details@Concurrency@@@0@0AAU?$_Wrap_alloc@V?$allocator@V?$_Flist_iterator@V?$_Split_order_list_value@U?$pair@QAVISteamRemoteStorage@@PAVIWrapSteamRemoteStorage@@@std@@V?$allocator@U?$pair@QAVISteamRemoteStorage@@PAVIWrapSteamRemoteStorage@@@std@@@2@@details@Concurrency@@@std@@@std@@@0@U?$integral_constant@_N$00@0@@Z ; std::_Destroy_range1<std::allocator<std::_Flist_iterator<Concurrency::details::_Split_order_list_value<std::pair<ISteamRemoteStorage * const,IWrapSteamRemoteStorage *>,std::allocator<std::pair<ISteamRemoteStorage * const,IWrapSteamRemoteStorage *> > > > >,std::_Flist_iterator<Concurrency::details::_Split_order_list_value<std::pair<ISteamRemoteStorage * const,IWrapSteamRemoteStorage *>,std::allocator<std::pair<ISteamRemoteStorage * const,IWrapSteamRemoteStorage *> > > > *>
PUBLIC	??$forward@PAVISteamRemoteStorage@@@std@@YA$$QAPAVISteamRemoteStorage@@AAPAV1@@Z ; std::forward<ISteamRemoteStorage *>
PUBLIC	??$construct@V?$_Flist_iterator@V?$_Split_order_list_value@U?$pair@QAVISteamRemoteStorage@@PAVIWrapSteamRemoteStorage@@@std@@V?$allocator@U?$pair@QAVISteamRemoteStorage@@PAVIWrapSteamRemoteStorage@@@std@@@2@@details@Concurrency@@@std@@$$V@?$allocator@V?$_Flist_iterator@V?$_Split_order_list_value@U?$pair@QAVISteamRemoteStorage@@PAVIWrapSteamRemoteStorage@@@std@@V?$allocator@U?$pair@QAVISteamRemoteStorage@@PAVIWrapSteamRemoteStorage@@@std@@@2@@details@Concurrency@@@std@@@std@@QAEXPAV?$_Flist_iterator@V?$_Split_order_list_value@U?$pair@QAVISteamRemoteStorage@@PAVIWrapSteamRemoteStorage@@@std@@V?$allocator@U?$pair@QAVISteamRemoteStorage@@PAVIWrapSteamRemoteStorage@@@std@@@2@@details@Concurrency@@@1@@Z ; std::allocator<std::_Flist_iterator<Concurrency::details::_Split_order_list_value<std::pair<ISteamRemoteStorage * const,IWrapSteamRemoteStorage *>,std::allocator<std::pair<ISteamRemoteStorage * const,IWrapSteamRemoteStorage *> > > > >::construct<std::_Flist_iterator<Concurrency::details::_Split_order_list_value<std::pair<ISteamRemoteStorage * const,IWrapSteamRemoteStorage *>,std::allocator<std::pair<ISteamRemoteStorage * const,IWrapSteamRemoteStorage *> > > > >
PUBLIC	??_7ISteamRemoteStorage@@6B@			; ISteamRemoteStorage::`vftable'
PUBLIC	??_7exception@std@@6B@				; std::exception::`vftable'
PUBLIC	??_C@_0BC@EOODALEL@Unknown?5exception?$AA@	; `string'
PUBLIC	??_7logic_error@std@@6B@			; std::logic_error::`vftable'
PUBLIC	??_7out_of_range@std@@6B@			; std::out_of_range::`vftable'
PUBLIC	??_R0?AVexception@std@@@8			; std::exception `RTTI Type Descriptor'
PUBLIC	__CT??_R0?AVexception@std@@@8??0exception@std@@QAE@ABV01@@Z12
PUBLIC	?SK_SteamWrapper_remap_remotestorage@@3V?$concurrent_unordered_map@PAVISteamRemoteStorage@@PAVIWrapSteamRemoteStorage@@U?$hash@PAVISteamRemoteStorage@@@std@@U?$equal_to@PAVISteamRemoteStorage@@@4@V?$allocator@U?$pair@QAVISteamRemoteStorage@@PAVIWrapSteamRemoteStorage@@@std@@@4@@Concurrency@@A ; SK_SteamWrapper_remap_remotestorage
PUBLIC	??_7IWrapSteamRemoteStorage012@@6B@		; IWrapSteamRemoteStorage012::`vftable'
PUBLIC	??_C@_1GG@FOPFFAFO@?$AAI?$AAS?$AAt?$AAe?$AAa?$AAm?$AAR?$AAe?$AAm?$AAo?$AAt?$AAe?$AAS?$AAt?$AAo?$AAr?$AAa?$AAg?$AAe?$AA?5?$AA?$CK?$AA?$CK?$AA?5?$AAF?$AAi?$AAl?$AAe?$AA?3?$AA?5?$AA?$CI?$AA?$CF?$AAh@ ; `string'
PUBLIC	??_7ISteamRemoteStorage014@@6B@			; ISteamRemoteStorage014::`vftable'
PUBLIC	??_7IWrapSteamRemoteStorage014@@6B@		; IWrapSteamRemoteStorage014::`vftable'
PUBLIC	??_C@_1GM@NGJPJAAG@?$AAI?$AAS?$AAt?$AAe?$AAa?$AAm?$AAR?$AAe?$AAm?$AAo?$AAt?$AAe?$AAS?$AAt?$AAo?$AAr?$AAa?$AAg?$AAe?$AA0?$AA1?$AA4?$AA?5?$AA?$CK?$AA?$CK?$AA?5?$AAF?$AAi?$AAl?$AAe?$AA?3?$AA?5@ ; `string'
PUBLIC	__TI3?AVout_of_range@std@@
PUBLIC	__CTA3?AVout_of_range@std@@
PUBLIC	??_R0?AVout_of_range@std@@@8			; std::out_of_range `RTTI Type Descriptor'
PUBLIC	__CT??_R0?AVout_of_range@std@@@8??0out_of_range@std@@QAE@ABV01@@Z12
PUBLIC	??_R0?AVlogic_error@std@@@8			; std::logic_error `RTTI Type Descriptor'
PUBLIC	__CT??_R0?AVlogic_error@std@@@8??0logic_error@std@@QAE@ABV01@@Z12
PUBLIC	??_C@_0BK@KDCGEAPC@invalid?5number?5of?5buckets?$AA@ ; `string'
PUBLIC	??_R4ISteamRemoteStorage@@6B@			; ISteamRemoteStorage::`RTTI Complete Object Locator'
PUBLIC	??_R0?AVISteamRemoteStorage@@@8			; ISteamRemoteStorage `RTTI Type Descriptor'
PUBLIC	??_R3ISteamRemoteStorage@@8			; ISteamRemoteStorage::`RTTI Class Hierarchy Descriptor'
PUBLIC	??_R2ISteamRemoteStorage@@8			; ISteamRemoteStorage::`RTTI Base Class Array'
PUBLIC	??_R1A@?0A@EA@ISteamRemoteStorage@@8		; ISteamRemoteStorage::`RTTI Base Class Descriptor at (0,-1,0,64)'
PUBLIC	??_R4exception@std@@6B@				; std::exception::`RTTI Complete Object Locator'
PUBLIC	??_R3exception@std@@8				; std::exception::`RTTI Class Hierarchy Descriptor'
PUBLIC	??_R2exception@std@@8				; std::exception::`RTTI Base Class Array'
PUBLIC	??_R1A@?0A@EA@exception@std@@8			; std::exception::`RTTI Base Class Descriptor at (0,-1,0,64)'
PUBLIC	??_R4logic_error@std@@6B@			; std::logic_error::`RTTI Complete Object Locator'
PUBLIC	??_R3logic_error@std@@8				; std::logic_error::`RTTI Class Hierarchy Descriptor'
PUBLIC	??_R2logic_error@std@@8				; std::logic_error::`RTTI Base Class Array'
PUBLIC	??_R1A@?0A@EA@logic_error@std@@8		; std::logic_error::`RTTI Base Class Descriptor at (0,-1,0,64)'
PUBLIC	??_R4out_of_range@std@@6B@			; std::out_of_range::`RTTI Complete Object Locator'
PUBLIC	??_R3out_of_range@std@@8			; std::out_of_range::`RTTI Class Hierarchy Descriptor'
PUBLIC	??_R2out_of_range@std@@8			; std::out_of_range::`RTTI Base Class Array'
PUBLIC	??_R1A@?0A@EA@out_of_range@std@@8		; std::out_of_range::`RTTI Base Class Descriptor at (0,-1,0,64)'
PUBLIC	??_R4IWrapSteamRemoteStorage012@@6B@		; IWrapSteamRemoteStorage012::`RTTI Complete Object Locator'
PUBLIC	??_R0?AVIWrapSteamRemoteStorage012@@@8		; IWrapSteamRemoteStorage012 `RTTI Type Descriptor'
PUBLIC	??_R3IWrapSteamRemoteStorage012@@8		; IWrapSteamRemoteStorage012::`RTTI Class Hierarchy Descriptor'
PUBLIC	??_R2IWrapSteamRemoteStorage012@@8		; IWrapSteamRemoteStorage012::`RTTI Base Class Array'
PUBLIC	??_R1A@?0A@EA@IWrapSteamRemoteStorage012@@8	; IWrapSteamRemoteStorage012::`RTTI Base Class Descriptor at (0,-1,0,64)'
PUBLIC	??_R4ISteamRemoteStorage014@@6B@		; ISteamRemoteStorage014::`RTTI Complete Object Locator'
PUBLIC	??_R0?AVISteamRemoteStorage014@@@8		; ISteamRemoteStorage014 `RTTI Type Descriptor'
PUBLIC	??_R3ISteamRemoteStorage014@@8			; ISteamRemoteStorage014::`RTTI Class Hierarchy Descriptor'
PUBLIC	??_R2ISteamRemoteStorage014@@8			; ISteamRemoteStorage014::`RTTI Base Class Array'
PUBLIC	??_R1A@?0A@EA@ISteamRemoteStorage014@@8		; ISteamRemoteStorage014::`RTTI Base Class Descriptor at (0,-1,0,64)'
PUBLIC	??_R4IWrapSteamRemoteStorage014@@6B@		; IWrapSteamRemoteStorage014::`RTTI Complete Object Locator'
PUBLIC	??_R0?AVIWrapSteamRemoteStorage014@@@8		; IWrapSteamRemoteStorage014 `RTTI Type Descriptor'
PUBLIC	??_R3IWrapSteamRemoteStorage014@@8		; IWrapSteamRemoteStorage014::`RTTI Class Hierarchy Descriptor'
PUBLIC	??_R2IWrapSteamRemoteStorage014@@8		; IWrapSteamRemoteStorage014::`RTTI Base Class Array'
PUBLIC	??_R1A@?0A@EA@IWrapSteamRemoteStorage014@@8	; IWrapSteamRemoteStorage014::`RTTI Base Class Descriptor at (0,-1,0,64)'
PUBLIC	__xmm@41f00000000000000000000000000000
EXTRN	__purecall:PROC
EXTRN	??2@YAPAXI@Z:PROC				; operator new
EXTRN	??3@YAXPAX@Z:PROC				; operator delete
EXTRN	??3@YAXPAXI@Z:PROC				; operator delete
EXTRN	_atexit:PROC
EXTRN	__imp___invalid_parameter_noinfo_noreturn:PROC
EXTRN	__imp__lstrcmpA@8:PROC
EXTRN	__imp____std_exception_copy:PROC
EXTRN	__imp____std_exception_destroy:PROC
EXTRN	??_Eexception@std@@UAEPAXI@Z:PROC		; std::exception::`vector deleting destructor'
EXTRN	__imp_?_Xbad_alloc@std@@YAXXZ:PROC
EXTRN	??_Elogic_error@std@@UAEPAXI@Z:PROC		; std::logic_error::`vector deleting destructor'
EXTRN	??_Eout_of_range@std@@UAEPAXI@Z:PROC		; std::out_of_range::`vector deleting destructor'
EXTRN	?Log@iSK_Logger@@UAAXQB_WZZ:PROC		; iSK_Logger::Log
EXTRN	__CxxThrowException@8:PROC
EXTRN	___CxxFrameHandler3:PROC
EXTRN	_memset:PROC
EXTRN	??_7type_info@@6B@:QWORD			; type_info::`vftable'
EXTRN	?steam_log@@3UiSK_Logger@@A:BYTE		; steam_log
EXTRN	__imp_?_Byte_reverse_table@details@Concurrency@@3QBEB:BYTE
EXTRN	__fltused:DWORD
_BSS	SEGMENT
?SK_SteamWrapper_remap_remotestorage@@3V?$concurrent_unordered_map@PAVISteamRemoteStorage@@PAVIWrapSteamRemoteStorage@@U?$hash@PAVISteamRemoteStorage@@@std@@U?$equal_to@PAVISteamRemoteStorage@@@4@V?$allocator@U?$pair@QAVISteamRemoteStorage@@PAVIWrapSteamRemoteStorage@@@std@@@4@@Concurrency@@A DB 09cH DUP (?) ; SK_SteamWrapper_remap_remotestorage
_BSS	ENDS
CRT$XCU	SEGMENT
?SK_SteamWrapper_remap_remotestorage$initializer$@@3P6AXXZA DD FLAT:??__ESK_SteamWrapper_remap_remotestorage@@YAXXZ ; SK_SteamWrapper_remap_remotestorage$initializer$
CRT$XCU	ENDS
;	COMDAT __xmm@41f00000000000000000000000000000
CONST	SEGMENT
__xmm@41f00000000000000000000000000000 DB 00H, 00H, 00H, 00H, 00H, 00H, 00H
	DB	00H, 00H, 00H, 00H, 00H, 00H, 00H, 0f0H, 'A'
CONST	ENDS
;	COMDAT ??_R1A@?0A@EA@IWrapSteamRemoteStorage014@@8
rdata$r	SEGMENT
??_R1A@?0A@EA@IWrapSteamRemoteStorage014@@8 DD FLAT:??_R0?AVIWrapSteamRemoteStorage014@@@8 ; IWrapSteamRemoteStorage014::`RTTI Base Class Descriptor at (0,-1,0,64)'
	DD	01H
	DD	00H
	DD	0ffffffffH
	DD	00H
	DD	040H
	DD	FLAT:??_R3IWrapSteamRemoteStorage014@@8
rdata$r	ENDS
;	COMDAT ??_R2IWrapSteamRemoteStorage014@@8
rdata$r	SEGMENT
??_R2IWrapSteamRemoteStorage014@@8 DD FLAT:??_R1A@?0A@EA@IWrapSteamRemoteStorage014@@8 ; IWrapSteamRemoteStorage014::`RTTI Base Class Array'
	DD	FLAT:??_R1A@?0A@EA@ISteamRemoteStorage014@@8
rdata$r	ENDS
;	COMDAT ??_R3IWrapSteamRemoteStorage014@@8
rdata$r	SEGMENT
??_R3IWrapSteamRemoteStorage014@@8 DD 00H		; IWrapSteamRemoteStorage014::`RTTI Class Hierarchy Descriptor'
	DD	00H
	DD	02H
	DD	FLAT:??_R2IWrapSteamRemoteStorage014@@8
rdata$r	ENDS
;	COMDAT ??_R0?AVIWrapSteamRemoteStorage014@@@8
data$r	SEGMENT
??_R0?AVIWrapSteamRemoteStorage014@@@8 DD FLAT:??_7type_info@@6B@ ; IWrapSteamRemoteStorage014 `RTTI Type Descriptor'
	DD	00H
	DB	'.?AVIWrapSteamRemoteStorage014@@', 00H
data$r	ENDS
;	COMDAT ??_R4IWrapSteamRemoteStorage014@@6B@
rdata$r	SEGMENT
??_R4IWrapSteamRemoteStorage014@@6B@ DD 00H		; IWrapSteamRemoteStorage014::`RTTI Complete Object Locator'
	DD	00H
	DD	00H
	DD	FLAT:??_R0?AVIWrapSteamRemoteStorage014@@@8
	DD	FLAT:??_R3IWrapSteamRemoteStorage014@@8
rdata$r	ENDS
;	COMDAT ??_R1A@?0A@EA@ISteamRemoteStorage014@@8
rdata$r	SEGMENT
??_R1A@?0A@EA@ISteamRemoteStorage014@@8 DD FLAT:??_R0?AVISteamRemoteStorage014@@@8 ; ISteamRemoteStorage014::`RTTI Base Class Descriptor at (0,-1,0,64)'
	DD	00H
	DD	00H
	DD	0ffffffffH
	DD	00H
	DD	040H
	DD	FLAT:??_R3ISteamRemoteStorage014@@8
rdata$r	ENDS
;	COMDAT ??_R2ISteamRemoteStorage014@@8
rdata$r	SEGMENT
??_R2ISteamRemoteStorage014@@8 DD FLAT:??_R1A@?0A@EA@ISteamRemoteStorage014@@8 ; ISteamRemoteStorage014::`RTTI Base Class Array'
rdata$r	ENDS
;	COMDAT ??_R3ISteamRemoteStorage014@@8
rdata$r	SEGMENT
??_R3ISteamRemoteStorage014@@8 DD 00H			; ISteamRemoteStorage014::`RTTI Class Hierarchy Descriptor'
	DD	00H
	DD	01H
	DD	FLAT:??_R2ISteamRemoteStorage014@@8
rdata$r	ENDS
;	COMDAT ??_R0?AVISteamRemoteStorage014@@@8
data$r	SEGMENT
??_R0?AVISteamRemoteStorage014@@@8 DD FLAT:??_7type_info@@6B@ ; ISteamRemoteStorage014 `RTTI Type Descriptor'
	DD	00H
	DB	'.?AVISteamRemoteStorage014@@', 00H
data$r	ENDS
;	COMDAT ??_R4ISteamRemoteStorage014@@6B@
rdata$r	SEGMENT
??_R4ISteamRemoteStorage014@@6B@ DD 00H			; ISteamRemoteStorage014::`RTTI Complete Object Locator'
	DD	00H
	DD	00H
	DD	FLAT:??_R0?AVISteamRemoteStorage014@@@8
	DD	FLAT:??_R3ISteamRemoteStorage014@@8
rdata$r	ENDS
;	COMDAT ??_R1A@?0A@EA@IWrapSteamRemoteStorage012@@8
rdata$r	SEGMENT
??_R1A@?0A@EA@IWrapSteamRemoteStorage012@@8 DD FLAT:??_R0?AVIWrapSteamRemoteStorage012@@@8 ; IWrapSteamRemoteStorage012::`RTTI Base Class Descriptor at (0,-1,0,64)'
	DD	01H
	DD	00H
	DD	0ffffffffH
	DD	00H
	DD	040H
	DD	FLAT:??_R3IWrapSteamRemoteStorage012@@8
rdata$r	ENDS
;	COMDAT ??_R2IWrapSteamRemoteStorage012@@8
rdata$r	SEGMENT
??_R2IWrapSteamRemoteStorage012@@8 DD FLAT:??_R1A@?0A@EA@IWrapSteamRemoteStorage012@@8 ; IWrapSteamRemoteStorage012::`RTTI Base Class Array'
	DD	FLAT:??_R1A@?0A@EA@ISteamRemoteStorage@@8
rdata$r	ENDS
;	COMDAT ??_R3IWrapSteamRemoteStorage012@@8
rdata$r	SEGMENT
??_R3IWrapSteamRemoteStorage012@@8 DD 00H		; IWrapSteamRemoteStorage012::`RTTI Class Hierarchy Descriptor'
	DD	00H
	DD	02H
	DD	FLAT:??_R2IWrapSteamRemoteStorage012@@8
rdata$r	ENDS
;	COMDAT ??_R0?AVIWrapSteamRemoteStorage012@@@8
data$r	SEGMENT
??_R0?AVIWrapSteamRemoteStorage012@@@8 DD FLAT:??_7type_info@@6B@ ; IWrapSteamRemoteStorage012 `RTTI Type Descriptor'
	DD	00H
	DB	'.?AVIWrapSteamRemoteStorage012@@', 00H
data$r	ENDS
;	COMDAT ??_R4IWrapSteamRemoteStorage012@@6B@
rdata$r	SEGMENT
??_R4IWrapSteamRemoteStorage012@@6B@ DD 00H		; IWrapSteamRemoteStorage012::`RTTI Complete Object Locator'
	DD	00H
	DD	00H
	DD	FLAT:??_R0?AVIWrapSteamRemoteStorage012@@@8
	DD	FLAT:??_R3IWrapSteamRemoteStorage012@@8
rdata$r	ENDS
;	COMDAT ??_R1A@?0A@EA@out_of_range@std@@8
rdata$r	SEGMENT
??_R1A@?0A@EA@out_of_range@std@@8 DD FLAT:??_R0?AVout_of_range@std@@@8 ; std::out_of_range::`RTTI Base Class Descriptor at (0,-1,0,64)'
	DD	02H
	DD	00H
	DD	0ffffffffH
	DD	00H
	DD	040H
	DD	FLAT:??_R3out_of_range@std@@8
rdata$r	ENDS
;	COMDAT ??_R2out_of_range@std@@8
rdata$r	SEGMENT
??_R2out_of_range@std@@8 DD FLAT:??_R1A@?0A@EA@out_of_range@std@@8 ; std::out_of_range::`RTTI Base Class Array'
	DD	FLAT:??_R1A@?0A@EA@logic_error@std@@8
	DD	FLAT:??_R1A@?0A@EA@exception@std@@8
rdata$r	ENDS
;	COMDAT ??_R3out_of_range@std@@8
rdata$r	SEGMENT
??_R3out_of_range@std@@8 DD 00H				; std::out_of_range::`RTTI Class Hierarchy Descriptor'
	DD	00H
	DD	03H
	DD	FLAT:??_R2out_of_range@std@@8
rdata$r	ENDS
;	COMDAT ??_R4out_of_range@std@@6B@
rdata$r	SEGMENT
??_R4out_of_range@std@@6B@ DD 00H			; std::out_of_range::`RTTI Complete Object Locator'
	DD	00H
	DD	00H
	DD	FLAT:??_R0?AVout_of_range@std@@@8
	DD	FLAT:??_R3out_of_range@std@@8
rdata$r	ENDS
;	COMDAT ??_R1A@?0A@EA@logic_error@std@@8
rdata$r	SEGMENT
??_R1A@?0A@EA@logic_error@std@@8 DD FLAT:??_R0?AVlogic_error@std@@@8 ; std::logic_error::`RTTI Base Class Descriptor at (0,-1,0,64)'
	DD	01H
	DD	00H
	DD	0ffffffffH
	DD	00H
	DD	040H
	DD	FLAT:??_R3logic_error@std@@8
rdata$r	ENDS
;	COMDAT ??_R2logic_error@std@@8
rdata$r	SEGMENT
??_R2logic_error@std@@8 DD FLAT:??_R1A@?0A@EA@logic_error@std@@8 ; std::logic_error::`RTTI Base Class Array'
	DD	FLAT:??_R1A@?0A@EA@exception@std@@8
rdata$r	ENDS
;	COMDAT ??_R3logic_error@std@@8
rdata$r	SEGMENT
??_R3logic_error@std@@8 DD 00H				; std::logic_error::`RTTI Class Hierarchy Descriptor'
	DD	00H
	DD	02H
	DD	FLAT:??_R2logic_error@std@@8
rdata$r	ENDS
;	COMDAT ??_R4logic_error@std@@6B@
rdata$r	SEGMENT
??_R4logic_error@std@@6B@ DD 00H			; std::logic_error::`RTTI Complete Object Locator'
	DD	00H
	DD	00H
	DD	FLAT:??_R0?AVlogic_error@std@@@8
	DD	FLAT:??_R3logic_error@std@@8
rdata$r	ENDS
;	COMDAT ??_R1A@?0A@EA@exception@std@@8
rdata$r	SEGMENT
??_R1A@?0A@EA@exception@std@@8 DD FLAT:??_R0?AVexception@std@@@8 ; std::exception::`RTTI Base Class Descriptor at (0,-1,0,64)'
	DD	00H
	DD	00H
	DD	0ffffffffH
	DD	00H
	DD	040H
	DD	FLAT:??_R3exception@std@@8
rdata$r	ENDS
;	COMDAT ??_R2exception@std@@8
rdata$r	SEGMENT
??_R2exception@std@@8 DD FLAT:??_R1A@?0A@EA@exception@std@@8 ; std::exception::`RTTI Base Class Array'
rdata$r	ENDS
;	COMDAT ??_R3exception@std@@8
rdata$r	SEGMENT
??_R3exception@std@@8 DD 00H				; std::exception::`RTTI Class Hierarchy Descriptor'
	DD	00H
	DD	01H
	DD	FLAT:??_R2exception@std@@8
rdata$r	ENDS
;	COMDAT ??_R4exception@std@@6B@
rdata$r	SEGMENT
??_R4exception@std@@6B@ DD 00H				; std::exception::`RTTI Complete Object Locator'
	DD	00H
	DD	00H
	DD	FLAT:??_R0?AVexception@std@@@8
	DD	FLAT:??_R3exception@std@@8
rdata$r	ENDS
;	COMDAT ??_R1A@?0A@EA@ISteamRemoteStorage@@8
rdata$r	SEGMENT
??_R1A@?0A@EA@ISteamRemoteStorage@@8 DD FLAT:??_R0?AVISteamRemoteStorage@@@8 ; ISteamRemoteStorage::`RTTI Base Class Descriptor at (0,-1,0,64)'
	DD	00H
	DD	00H
	DD	0ffffffffH
	DD	00H
	DD	040H
	DD	FLAT:??_R3ISteamRemoteStorage@@8
rdata$r	ENDS
;	COMDAT ??_R2ISteamRemoteStorage@@8
rdata$r	SEGMENT
??_R2ISteamRemoteStorage@@8 DD FLAT:??_R1A@?0A@EA@ISteamRemoteStorage@@8 ; ISteamRemoteStorage::`RTTI Base Class Array'
rdata$r	ENDS
;	COMDAT ??_R3ISteamRemoteStorage@@8
rdata$r	SEGMENT
??_R3ISteamRemoteStorage@@8 DD 00H			; ISteamRemoteStorage::`RTTI Class Hierarchy Descriptor'
	DD	00H
	DD	01H
	DD	FLAT:??_R2ISteamRemoteStorage@@8
rdata$r	ENDS
;	COMDAT ??_R0?AVISteamRemoteStorage@@@8
data$r	SEGMENT
??_R0?AVISteamRemoteStorage@@@8 DD FLAT:??_7type_info@@6B@ ; ISteamRemoteStorage `RTTI Type Descriptor'
	DD	00H
	DB	'.?AVISteamRemoteStorage@@', 00H
data$r	ENDS
;	COMDAT ??_R4ISteamRemoteStorage@@6B@
rdata$r	SEGMENT
??_R4ISteamRemoteStorage@@6B@ DD 00H			; ISteamRemoteStorage::`RTTI Complete Object Locator'
	DD	00H
	DD	00H
	DD	FLAT:??_R0?AVISteamRemoteStorage@@@8
	DD	FLAT:??_R3ISteamRemoteStorage@@8
rdata$r	ENDS
;	COMDAT ??_C@_0BK@KDCGEAPC@invalid?5number?5of?5buckets?$AA@
CONST	SEGMENT
??_C@_0BK@KDCGEAPC@invalid?5number?5of?5buckets?$AA@ DB 'invalid number o'
	DB	'f buckets', 00H				; `string'
CONST	ENDS
;	COMDAT __CT??_R0?AVlogic_error@std@@@8??0logic_error@std@@QAE@ABV01@@Z12
xdata$x	SEGMENT
__CT??_R0?AVlogic_error@std@@@8??0logic_error@std@@QAE@ABV01@@Z12 DD 00H
	DD	FLAT:??_R0?AVlogic_error@std@@@8
	DD	00H
	DD	0ffffffffH
	ORG $+4
	DD	0cH
	DD	FLAT:??0logic_error@std@@QAE@ABV01@@Z
xdata$x	ENDS
;	COMDAT ??_R0?AVlogic_error@std@@@8
data$r	SEGMENT
??_R0?AVlogic_error@std@@@8 DD FLAT:??_7type_info@@6B@	; std::logic_error `RTTI Type Descriptor'
	DD	00H
	DB	'.?AVlogic_error@std@@', 00H
data$r	ENDS
;	COMDAT __CT??_R0?AVout_of_range@std@@@8??0out_of_range@std@@QAE@ABV01@@Z12
xdata$x	SEGMENT
__CT??_R0?AVout_of_range@std@@@8??0out_of_range@std@@QAE@ABV01@@Z12 DD 00H
	DD	FLAT:??_R0?AVout_of_range@std@@@8
	DD	00H
	DD	0ffffffffH
	ORG $+4
	DD	0cH
	DD	FLAT:??0out_of_range@std@@QAE@ABV01@@Z
xdata$x	ENDS
;	COMDAT ??_R0?AVout_of_range@std@@@8
data$r	SEGMENT
??_R0?AVout_of_range@std@@@8 DD FLAT:??_7type_info@@6B@	; std::out_of_range `RTTI Type Descriptor'
	DD	00H
	DB	'.?AVout_of_range@std@@', 00H
data$r	ENDS
;	COMDAT __CTA3?AVout_of_range@std@@
xdata$x	SEGMENT
__CTA3?AVout_of_range@std@@ DD 03H
	DD	FLAT:__CT??_R0?AVout_of_range@std@@@8??0out_of_range@std@@QAE@ABV01@@Z12
	DD	FLAT:__CT??_R0?AVlogic_error@std@@@8??0logic_error@std@@QAE@ABV01@@Z12
	DD	FLAT:__CT??_R0?AVexception@std@@@8??0exception@std@@QAE@ABV01@@Z12
xdata$x	ENDS
;	COMDAT __TI3?AVout_of_range@std@@
xdata$x	SEGMENT
__TI3?AVout_of_range@std@@ DD 00H
	DD	FLAT:??1out_of_range@std@@UAE@XZ
	DD	00H
	DD	FLAT:__CTA3?AVout_of_range@std@@
xdata$x	ENDS
;	COMDAT ?first@?BL@??SK_SteamWrapper_WrappedClient_GetISteamRemoteStorage@@YAPAVISteamRemoteStorage@@PAVISteamClient@@HHPBD@Z@4_NA
_DATA	SEGMENT
?first@?BL@??SK_SteamWrapper_WrappedClient_GetISteamRemoteStorage@@YAPAVISteamRemoteStorage@@PAVISteamClient@@HHPBD@Z@4_NA DB 01H ; `SK_SteamWrapper_WrappedClient_GetISteamRemoteStorage'::`27'::first
_DATA	ENDS
;	COMDAT ?first@?2??SK_SteamWrapper_WrappedClient_GetISteamRemoteStorage@@YAPAVISteamRemoteStorage@@PAVISteamClient@@HHPBD@Z@4_NA
_DATA	SEGMENT
?first@?2??SK_SteamWrapper_WrappedClient_GetISteamRemoteStorage@@YAPAVISteamRemoteStorage@@PAVISteamClient@@HHPBD@Z@4_NA DB 01H ; `SK_SteamWrapper_WrappedClient_GetISteamRemoteStorage'::`3'::first
_DATA	ENDS
;	COMDAT ?first@?BL@??SteamAPI_ISteamClient_GetISteamRemoteStorage_Detour@@YAPAVISteamRemoteStorage@@PAVISteamClient@@HHPBD@Z@4_NA
_DATA	SEGMENT
?first@?BL@??SteamAPI_ISteamClient_GetISteamRemoteStorage_Detour@@YAPAVISteamRemoteStorage@@PAVISteamClient@@HHPBD@Z@4_NA DB 01H ; `SteamAPI_ISteamClient_GetISteamRemoteStorage_Detour'::`27'::first
_DATA	ENDS
;	COMDAT ?first@?2??SteamAPI_ISteamClient_GetISteamRemoteStorage_Detour@@YAPAVISteamRemoteStorage@@PAVISteamClient@@HHPBD@Z@4_NA
_DATA	SEGMENT
?first@?2??SteamAPI_ISteamClient_GetISteamRemoteStorage_Detour@@YAPAVISteamRemoteStorage@@PAVISteamClient@@HHPBD@Z@4_NA DB 01H ; `SteamAPI_ISteamClient_GetISteamRemoteStorage_Detour'::`3'::first
_DATA	ENDS
;	COMDAT ??_C@_1GM@NGJPJAAG@?$AAI?$AAS?$AAt?$AAe?$AAa?$AAm?$AAR?$AAe?$AAm?$AAo?$AAt?$AAe?$AAS?$AAt?$AAo?$AAr?$AAa?$AAg?$AAe?$AA0?$AA1?$AA4?$AA?5?$AA?$CK?$AA?$CK?$AA?5?$AAF?$AAi?$AAl?$AAe?$AA?3?$AA?5@
CONST	SEGMENT
??_C@_1GM@NGJPJAAG@?$AAI?$AAS?$AAt?$AAe?$AAa?$AAm?$AAR?$AAe?$AAm?$AAo?$AAt?$AAe?$AAS?$AAt?$AAo?$AAr?$AAa?$AAg?$AAe?$AA0?$AA1?$AA4?$AA?5?$AA?$CK?$AA?$CK?$AA?5?$AAF?$AAi?$AAl?$AAe?$AA?3?$AA?5@ DB 'I'
	DB	00H, 'S', 00H, 't', 00H, 'e', 00H, 'a', 00H, 'm', 00H, 'R', 00H
	DB	'e', 00H, 'm', 00H, 'o', 00H, 't', 00H, 'e', 00H, 'S', 00H, 't'
	DB	00H, 'o', 00H, 'r', 00H, 'a', 00H, 'g', 00H, 'e', 00H, '0', 00H
	DB	'1', 00H, '4', 00H, ' ', 00H, '*', 00H, '*', 00H, ' ', 00H, 'F'
	DB	00H, 'i', 00H, 'l', 00H, 'e', 00H, ':', 00H, ' ', 00H, '(', 00H
	DB	'%', 00H, 'h', 00H, 's', 00H, ':', 00H, '%', 00H, 'l', 00H, 'u'
	DB	00H, ')', 00H, ' ', 00H, '-', 00H, ' ', 00H, '%', 00H, 'l', 00H
	DB	'u', 00H, ' ', 00H, 'B', 00H, 'y', 00H, 't', 00H, 'e', 00H, 's'
	DB	00H, 00H, 00H				; `string'
CONST	ENDS
;	COMDAT ??_7IWrapSteamRemoteStorage014@@6B@
CONST	SEGMENT
??_7IWrapSteamRemoteStorage014@@6B@ DD FLAT:??_R4IWrapSteamRemoteStorage014@@6B@ ; IWrapSteamRemoteStorage014::`vftable'
	DD	FLAT:?FileWrite@IWrapSteamRemoteStorage014@@UAE_NPBDPBXH@Z
	DD	FLAT:?FileRead@IWrapSteamRemoteStorage014@@UAEHPBDPAXH@Z
	DD	FLAT:?FileWriteAsync@IWrapSteamRemoteStorage014@@UAE_KPBDPBXI@Z
	DD	FLAT:?FileReadAsync@IWrapSteamRemoteStorage014@@UAE_KPBDII@Z
	DD	FLAT:?FileReadAsyncComplete@IWrapSteamRemoteStorage014@@UAE_N_KPAXI@Z
	DD	FLAT:?FileForget@IWrapSteamRemoteStorage014@@UAE_NPBD@Z
	DD	FLAT:?FileDelete@IWrapSteamRemoteStorage014@@UAE_NPBD@Z
	DD	FLAT:?FileShare@IWrapSteamRemoteStorage014@@UAE_KPBD@Z
	DD	FLAT:?SetSyncPlatforms@IWrapSteamRemoteStorage014@@UAE_NPBDW4ERemoteStoragePlatform@@@Z
	DD	FLAT:?FileWriteStreamOpen@IWrapSteamRemoteStorage014@@UAE_KPBD@Z
	DD	FLAT:?FileWriteStreamWriteChunk@IWrapSteamRemoteStorage014@@UAE_N_KPBXH@Z
	DD	FLAT:?FileWriteStreamClose@IWrapSteamRemoteStorage014@@UAE_N_K@Z
	DD	FLAT:?FileWriteStreamCancel@IWrapSteamRemoteStorage014@@UAE_N_K@Z
	DD	FLAT:?FileExists@IWrapSteamRemoteStorage014@@UAE_NPBD@Z
	DD	FLAT:?FilePersisted@IWrapSteamRemoteStorage014@@UAE_NPBD@Z
	DD	FLAT:?GetFileSize@IWrapSteamRemoteStorage014@@UAEHPBD@Z
	DD	FLAT:?GetFileTimestamp@IWrapSteamRemoteStorage014@@UAE_JPBD@Z
	DD	FLAT:?GetSyncPlatforms@IWrapSteamRemoteStorage014@@UAE?AW4ERemoteStoragePlatform@@PBD@Z
	DD	FLAT:?GetFileCount@IWrapSteamRemoteStorage014@@UAEHXZ
	DD	FLAT:?GetFileNameAndSize@IWrapSteamRemoteStorage014@@UAEPBDHPAH@Z
	DD	FLAT:?GetQuota@IWrapSteamRemoteStorage014@@UAE_NPA_K0@Z
	DD	FLAT:?IsCloudEnabledForAccount@IWrapSteamRemoteStorage014@@UAE_NXZ
	DD	FLAT:?IsCloudEnabledForApp@IWrapSteamRemoteStorage014@@UAE_NXZ
	DD	FLAT:?SetCloudEnabledForApp@IWrapSteamRemoteStorage014@@UAEX_N@Z
	DD	FLAT:?UGCDownload@IWrapSteamRemoteStorage014@@UAE_K_KI@Z
	DD	FLAT:?GetUGCDownloadProgress@IWrapSteamRemoteStorage014@@UAE_N_KPAH1@Z
	DD	FLAT:?GetUGCDetails@IWrapSteamRemoteStorage014@@UAE_N_KPAIPAPADPAHPAVCSteamID@@@Z
	DD	FLAT:?UGCRead@IWrapSteamRemoteStorage014@@UAEH_KPAXHIW4EUGCReadAction@@@Z
	DD	FLAT:?GetCachedUGCCount@IWrapSteamRemoteStorage014@@UAEHXZ
	DD	FLAT:?GetCachedUGCHandle@IWrapSteamRemoteStorage014@@UAE_KH@Z
	DD	FLAT:?PublishWorkshopFile@IWrapSteamRemoteStorage014@@UAE_KPBD0I00W4ERemoteStoragePublishedFileVisibility@@PAUSteamParamStringArray_t@@W4EWorkshopFileType@@@Z
	DD	FLAT:?CreatePublishedFileUpdateRequest@IWrapSteamRemoteStorage014@@UAE_K_K@Z
	DD	FLAT:?UpdatePublishedFileFile@IWrapSteamRemoteStorage014@@UAE_N_KPBD@Z
	DD	FLAT:?UpdatePublishedFilePreviewFile@IWrapSteamRemoteStorage014@@UAE_N_KPBD@Z
	DD	FLAT:?UpdatePublishedFileTitle@IWrapSteamRemoteStorage014@@UAE_N_KPBD@Z
	DD	FLAT:?UpdatePublishedFileDescription@IWrapSteamRemoteStorage014@@UAE_N_KPBD@Z
	DD	FLAT:?UpdatePublishedFileVisibility@IWrapSteamRemoteStorage014@@UAE_N_KW4ERemoteStoragePublishedFileVisibility@@@Z
	DD	FLAT:?UpdatePublishedFileTags@IWrapSteamRemoteStorage014@@UAE_N_KPAUSteamParamStringArray_t@@@Z
	DD	FLAT:?CommitPublishedFileUpdate@IWrapSteamRemoteStorage014@@UAE_K_K@Z
	DD	FLAT:?GetPublishedFileDetails@IWrapSteamRemoteStorage014@@UAE_K_KI@Z
	DD	FLAT:?DeletePublishedFile@IWrapSteamRemoteStorage014@@UAE_K_K@Z
	DD	FLAT:?EnumerateUserPublishedFiles@IWrapSteamRemoteStorage014@@UAE_KI@Z
	DD	FLAT:?SubscribePublishedFile@IWrapSteamRemoteStorage014@@UAE_K_K@Z
	DD	FLAT:?EnumerateUserSubscribedFiles@IWrapSteamRemoteStorage014@@UAE_KI@Z
	DD	FLAT:?UnsubscribePublishedFile@IWrapSteamRemoteStorage014@@UAE_K_K@Z
	DD	FLAT:?UpdatePublishedFileSetChangeDescription@IWrapSteamRemoteStorage014@@UAE_N_KPBD@Z
	DD	FLAT:?GetPublishedItemVoteDetails@IWrapSteamRemoteStorage014@@UAE_K_K@Z
	DD	FLAT:?UpdateUserPublishedItemVote@IWrapSteamRemoteStorage014@@UAE_K_K_N@Z
	DD	FLAT:?GetUserPublishedItemVoteDetails@IWrapSteamRemoteStorage014@@UAE_K_K@Z
	DD	FLAT:?EnumerateUserSharedWorkshopFiles@IWrapSteamRemoteStorage014@@UAE_KVCSteamID@@IPAUSteamParamStringArray_t@@1@Z
	DD	FLAT:?PublishVideo@IWrapSteamRemoteStorage014@@UAE_KW4EWorkshopVideoProvider@@PBD11I11W4ERemoteStoragePublishedFileVisibility@@PAUSteamParamStringArray_t@@@Z
	DD	FLAT:?SetUserPublishedFileAction@IWrapSteamRemoteStorage014@@UAE_K_KW4EWorkshopFileAction@@@Z
	DD	FLAT:?EnumeratePublishedFilesByUserAction@IWrapSteamRemoteStorage014@@UAE_KW4EWorkshopFileAction@@I@Z
	DD	FLAT:?EnumeratePublishedWorkshopFiles@IWrapSteamRemoteStorage014@@UAE_KW4EWorkshopEnumerationType@@IIIPAUSteamParamStringArray_t@@1@Z
	DD	FLAT:?UGCDownloadToLocation@IWrapSteamRemoteStorage014@@UAE_K_KPBDI@Z
CONST	ENDS
;	COMDAT ??_7ISteamRemoteStorage014@@6B@
CONST	SEGMENT
??_7ISteamRemoteStorage014@@6B@ DD FLAT:??_R4ISteamRemoteStorage014@@6B@ ; ISteamRemoteStorage014::`vftable'
	DD	FLAT:__purecall
	DD	FLAT:__purecall
	DD	FLAT:__purecall
	DD	FLAT:__purecall
	DD	FLAT:__purecall
	DD	FLAT:__purecall
	DD	FLAT:__purecall
	DD	FLAT:__purecall
	DD	FLAT:__purecall
	DD	FLAT:__purecall
	DD	FLAT:__purecall
	DD	FLAT:__purecall
	DD	FLAT:__purecall
	DD	FLAT:__purecall
	DD	FLAT:__purecall
	DD	FLAT:__purecall
	DD	FLAT:__purecall
	DD	FLAT:__purecall
	DD	FLAT:__purecall
	DD	FLAT:__purecall
	DD	FLAT:__purecall
	DD	FLAT:__purecall
	DD	FLAT:__purecall
	DD	FLAT:__purecall
	DD	FLAT:__purecall
	DD	FLAT:__purecall
	DD	FLAT:__purecall
	DD	FLAT:__purecall
	DD	FLAT:__purecall
	DD	FLAT:__purecall
	DD	FLAT:__purecall
	DD	FLAT:__purecall
	DD	FLAT:__purecall
	DD	FLAT:__purecall
	DD	FLAT:__purecall
	DD	FLAT:__purecall
	DD	FLAT:__purecall
	DD	FLAT:__purecall
	DD	FLAT:__purecall
	DD	FLAT:__purecall
	DD	FLAT:__purecall
	DD	FLAT:__purecall
	DD	FLAT:__purecall
	DD	FLAT:__purecall
	DD	FLAT:__purecall
	DD	FLAT:__purecall
	DD	FLAT:__purecall
	DD	FLAT:__purecall
	DD	FLAT:__purecall
	DD	FLAT:__purecall
	DD	FLAT:__purecall
	DD	FLAT:__purecall
	DD	FLAT:__purecall
	DD	FLAT:__purecall
	DD	FLAT:__purecall
CONST	ENDS
;	COMDAT ??_C@_1GG@FOPFFAFO@?$AAI?$AAS?$AAt?$AAe?$AAa?$AAm?$AAR?$AAe?$AAm?$AAo?$AAt?$AAe?$AAS?$AAt?$AAo?$AAr?$AAa?$AAg?$AAe?$AA?5?$AA?$CK?$AA?$CK?$AA?5?$AAF?$AAi?$AAl?$AAe?$AA?3?$AA?5?$AA?$CI?$AA?$CF?$AAh@
CONST	SEGMENT
??_C@_1GG@FOPFFAFO@?$AAI?$AAS?$AAt?$AAe?$AAa?$AAm?$AAR?$AAe?$AAm?$AAo?$AAt?$AAe?$AAS?$AAt?$AAo?$AAr?$AAa?$AAg?$AAe?$AA?5?$AA?$CK?$AA?$CK?$AA?5?$AAF?$AAi?$AAl?$AAe?$AA?3?$AA?5?$AA?$CI?$AA?$CF?$AAh@ DB 'I'
	DB	00H, 'S', 00H, 't', 00H, 'e', 00H, 'a', 00H, 'm', 00H, 'R', 00H
	DB	'e', 00H, 'm', 00H, 'o', 00H, 't', 00H, 'e', 00H, 'S', 00H, 't'
	DB	00H, 'o', 00H, 'r', 00H, 'a', 00H, 'g', 00H, 'e', 00H, ' ', 00H
	DB	'*', 00H, '*', 00H, ' ', 00H, 'F', 00H, 'i', 00H, 'l', 00H, 'e'
	DB	00H, ':', 00H, ' ', 00H, '(', 00H, '%', 00H, 'h', 00H, 's', 00H
	DB	':', 00H, '%', 00H, 'l', 00H, 'u', 00H, ')', 00H, ' ', 00H, '-'
	DB	00H, ' ', 00H, '%', 00H, 'l', 00H, 'u', 00H, ' ', 00H, 'B', 00H
	DB	'y', 00H, 't', 00H, 'e', 00H, 's', 00H, 00H, 00H ; `string'
CONST	ENDS
;	COMDAT ??_7IWrapSteamRemoteStorage012@@6B@
CONST	SEGMENT
??_7IWrapSteamRemoteStorage012@@6B@ DD FLAT:??_R4IWrapSteamRemoteStorage012@@6B@ ; IWrapSteamRemoteStorage012::`vftable'
	DD	FLAT:?FileWrite@IWrapSteamRemoteStorage012@@UAE_NPBDPBXH@Z
	DD	FLAT:?FileRead@IWrapSteamRemoteStorage012@@UAEHPBDPAXH@Z
	DD	FLAT:?FileForget@IWrapSteamRemoteStorage012@@UAE_NPBD@Z
	DD	FLAT:?FileDelete@IWrapSteamRemoteStorage012@@UAE_NPBD@Z
	DD	FLAT:?FileShare@IWrapSteamRemoteStorage012@@UAE_KPBD@Z
	DD	FLAT:?SetSyncPlatforms@IWrapSteamRemoteStorage012@@UAE_NPBDW4ERemoteStoragePlatform@@@Z
	DD	FLAT:?FileWriteStreamOpen@IWrapSteamRemoteStorage012@@UAE_KPBD@Z
	DD	FLAT:?FileWriteStreamWriteChunk@IWrapSteamRemoteStorage012@@UAE_N_KPBXH@Z
	DD	FLAT:?FileWriteStreamClose@IWrapSteamRemoteStorage012@@UAE_N_K@Z
	DD	FLAT:?FileWriteStreamCancel@IWrapSteamRemoteStorage012@@UAE_N_K@Z
	DD	FLAT:?FileExists@IWrapSteamRemoteStorage012@@UAE_NPBD@Z
	DD	FLAT:?FilePersisted@IWrapSteamRemoteStorage012@@UAE_NPBD@Z
	DD	FLAT:?GetFileSize@IWrapSteamRemoteStorage012@@UAEHPBD@Z
	DD	FLAT:?GetFileTimestamp@IWrapSteamRemoteStorage012@@UAE_JPBD@Z
	DD	FLAT:?GetSyncPlatforms@IWrapSteamRemoteStorage012@@UAE?AW4ERemoteStoragePlatform@@PBD@Z
	DD	FLAT:?GetFileCount@IWrapSteamRemoteStorage012@@UAEHXZ
	DD	FLAT:?GetFileNameAndSize@IWrapSteamRemoteStorage012@@UAEPBDHPAH@Z
	DD	FLAT:?GetQuota@IWrapSteamRemoteStorage012@@UAE_NPAH0@Z
	DD	FLAT:?IsCloudEnabledForAccount@IWrapSteamRemoteStorage012@@UAE_NXZ
	DD	FLAT:?IsCloudEnabledForApp@IWrapSteamRemoteStorage012@@UAE_NXZ
	DD	FLAT:?SetCloudEnabledForApp@IWrapSteamRemoteStorage012@@UAEX_N@Z
	DD	FLAT:?UGCDownload@IWrapSteamRemoteStorage012@@UAE_K_KI@Z
	DD	FLAT:?GetUGCDownloadProgress@IWrapSteamRemoteStorage012@@UAE_N_KPAH1@Z
	DD	FLAT:?GetUGCDetails@IWrapSteamRemoteStorage012@@UAE_N_KPAIPAPADPAHPAVCSteamID@@@Z
	DD	FLAT:?UGCRead@IWrapSteamRemoteStorage012@@UAEH_KPAXHIW4EUGCReadAction@@@Z
	DD	FLAT:?GetCachedUGCCount@IWrapSteamRemoteStorage012@@UAEHXZ
	DD	FLAT:?GetCachedUGCHandle@IWrapSteamRemoteStorage012@@UAE_KH@Z
	DD	FLAT:?PublishWorkshopFile@IWrapSteamRemoteStorage012@@UAE_KPBD0I00W4ERemoteStoragePublishedFileVisibility@@PAUSteamParamStringArray_t@@W4EWorkshopFileType@@@Z
	DD	FLAT:?CreatePublishedFileUpdateRequest@IWrapSteamRemoteStorage012@@UAE_K_K@Z
	DD	FLAT:?UpdatePublishedFileFile@IWrapSteamRemoteStorage012@@UAE_N_KPBD@Z
	DD	FLAT:?UpdatePublishedFilePreviewFile@IWrapSteamRemoteStorage012@@UAE_N_KPBD@Z
	DD	FLAT:?UpdatePublishedFileTitle@IWrapSteamRemoteStorage012@@UAE_N_KPBD@Z
	DD	FLAT:?UpdatePublishedFileDescription@IWrapSteamRemoteStorage012@@UAE_N_KPBD@Z
	DD	FLAT:?UpdatePublishedFileVisibility@IWrapSteamRemoteStorage012@@UAE_N_KW4ERemoteStoragePublishedFileVisibility@@@Z
	DD	FLAT:?UpdatePublishedFileTags@IWrapSteamRemoteStorage012@@UAE_N_KPAUSteamParamStringArray_t@@@Z
	DD	FLAT:?CommitPublishedFileUpdate@IWrapSteamRemoteStorage012@@UAE_K_K@Z
	DD	FLAT:?GetPublishedFileDetails@IWrapSteamRemoteStorage012@@UAE_K_KI@Z
	DD	FLAT:?DeletePublishedFile@IWrapSteamRemoteStorage012@@UAE_K_K@Z
	DD	FLAT:?EnumerateUserPublishedFiles@IWrapSteamRemoteStorage012@@UAE_KI@Z
	DD	FLAT:?SubscribePublishedFile@IWrapSteamRemoteStorage012@@UAE_K_K@Z
	DD	FLAT:?EnumerateUserSubscribedFiles@IWrapSteamRemoteStorage012@@UAE_KI@Z
	DD	FLAT:?UnsubscribePublishedFile@IWrapSteamRemoteStorage012@@UAE_K_K@Z
	DD	FLAT:?UpdatePublishedFileSetChangeDescription@IWrapSteamRemoteStorage012@@UAE_N_KPBD@Z
	DD	FLAT:?GetPublishedItemVoteDetails@IWrapSteamRemoteStorage012@@UAE_K_K@Z
	DD	FLAT:?UpdateUserPublishedItemVote@IWrapSteamRemoteStorage012@@UAE_K_K_N@Z
	DD	FLAT:?GetUserPublishedItemVoteDetails@IWrapSteamRemoteStorage012@@UAE_K_K@Z
	DD	FLAT:?EnumerateUserSharedWorkshopFiles@IWrapSteamRemoteStorage012@@UAE_KVCSteamID@@IPAUSteamParamStringArray_t@@1@Z
	DD	FLAT:?PublishVideo@IWrapSteamRemoteStorage012@@UAE_KW4EWorkshopVideoProvider@@PBD11I11W4ERemoteStoragePublishedFileVisibility@@PAUSteamParamStringArray_t@@@Z
	DD	FLAT:?SetUserPublishedFileAction@IWrapSteamRemoteStorage012@@UAE_K_KW4EWorkshopFileAction@@@Z
	DD	FLAT:?EnumeratePublishedFilesByUserAction@IWrapSteamRemoteStorage012@@UAE_KW4EWorkshopFileAction@@I@Z
	DD	FLAT:?EnumeratePublishedWorkshopFiles@IWrapSteamRemoteStorage012@@UAE_KW4EWorkshopEnumerationType@@IIIPAUSteamParamStringArray_t@@1@Z
	DD	FLAT:?UGCDownloadToLocation@IWrapSteamRemoteStorage012@@UAE_K_KPBDI@Z
CONST	ENDS
;	COMDAT __CT??_R0?AVexception@std@@@8??0exception@std@@QAE@ABV01@@Z12
xdata$x	SEGMENT
__CT??_R0?AVexception@std@@@8??0exception@std@@QAE@ABV01@@Z12 DD 00H
	DD	FLAT:??_R0?AVexception@std@@@8
	DD	00H
	DD	0ffffffffH
	ORG $+4
	DD	0cH
	DD	FLAT:??0exception@std@@QAE@ABV01@@Z
xdata$x	ENDS
;	COMDAT ??_R0?AVexception@std@@@8
data$r	SEGMENT
??_R0?AVexception@std@@@8 DD FLAT:??_7type_info@@6B@	; std::exception `RTTI Type Descriptor'
	DD	00H
	DB	'.?AVexception@std@@', 00H
data$r	ENDS
;	COMDAT ??_7out_of_range@std@@6B@
CONST	SEGMENT
??_7out_of_range@std@@6B@ DD FLAT:??_R4out_of_range@std@@6B@ ; std::out_of_range::`vftable'
	DD	FLAT:??_Eout_of_range@std@@UAEPAXI@Z
	DD	FLAT:?what@exception@std@@UBEPBDXZ
CONST	ENDS
;	COMDAT ??_7logic_error@std@@6B@
CONST	SEGMENT
??_7logic_error@std@@6B@ DD FLAT:??_R4logic_error@std@@6B@ ; std::logic_error::`vftable'
	DD	FLAT:??_Elogic_error@std@@UAEPAXI@Z
	DD	FLAT:?what@exception@std@@UBEPBDXZ
CONST	ENDS
;	COMDAT ??_C@_0BC@EOODALEL@Unknown?5exception?$AA@
CONST	SEGMENT
??_C@_0BC@EOODALEL@Unknown?5exception?$AA@ DB 'Unknown exception', 00H ; `string'
CONST	ENDS
;	COMDAT ??_7exception@std@@6B@
CONST	SEGMENT
??_7exception@std@@6B@ DD FLAT:??_R4exception@std@@6B@	; std::exception::`vftable'
	DD	FLAT:??_Eexception@std@@UAEPAXI@Z
	DD	FLAT:?what@exception@std@@UBEPBDXZ
CONST	ENDS
;	COMDAT ??_7ISteamRemoteStorage@@6B@
CONST	SEGMENT
??_7ISteamRemoteStorage@@6B@ DD FLAT:??_R4ISteamRemoteStorage@@6B@ ; ISteamRemoteStorage::`vftable'
	DD	FLAT:__purecall
	DD	FLAT:__purecall
	DD	FLAT:__purecall
	DD	FLAT:__purecall
	DD	FLAT:__purecall
	DD	FLAT:__purecall
	DD	FLAT:__purecall
	DD	FLAT:__purecall
	DD	FLAT:__purecall
	DD	FLAT:__purecall
	DD	FLAT:__purecall
	DD	FLAT:__purecall
	DD	FLAT:__purecall
	DD	FLAT:__purecall
	DD	FLAT:__purecall
	DD	FLAT:__purecall
	DD	FLAT:__purecall
	DD	FLAT:__purecall
	DD	FLAT:__purecall
	DD	FLAT:__purecall
	DD	FLAT:__purecall
	DD	FLAT:__purecall
	DD	FLAT:__purecall
	DD	FLAT:__purecall
	DD	FLAT:__purecall
	DD	FLAT:__purecall
	DD	FLAT:__purecall
	DD	FLAT:__purecall
	DD	FLAT:__purecall
	DD	FLAT:__purecall
	DD	FLAT:__purecall
	DD	FLAT:__purecall
	DD	FLAT:__purecall
	DD	FLAT:__purecall
	DD	FLAT:__purecall
	DD	FLAT:__purecall
	DD	FLAT:__purecall
	DD	FLAT:__purecall
	DD	FLAT:__purecall
	DD	FLAT:__purecall
	DD	FLAT:__purecall
	DD	FLAT:__purecall
	DD	FLAT:__purecall
	DD	FLAT:__purecall
	DD	FLAT:__purecall
	DD	FLAT:__purecall
	DD	FLAT:__purecall
	DD	FLAT:__purecall
	DD	FLAT:__purecall
	DD	FLAT:__purecall
	DD	FLAT:__purecall
	DD	FLAT:__purecall
CONST	ENDS
;	COMDAT xdata$x
xdata$x	SEGMENT
__unwindtable$??__ESK_SteamWrapper_remap_remotestorage@@YAXXZ DD 0ffffffffH
	DD	FLAT:__unwindfunclet$??__ESK_SteamWrapper_remap_remotestorage@@YAXXZ$1
__ehfuncinfo$??__ESK_SteamWrapper_remap_remotestorage@@YAXXZ DD 019930522H
	DD	01H
	DD	FLAT:__unwindtable$??__ESK_SteamWrapper_remap_remotestorage@@YAXXZ
	DD	2 DUP(00H)
	DD	2 DUP(00H)
	DD	00H
	DD	01H
xdata$x	ENDS
;	COMDAT xdata$x
xdata$x	SEGMENT
__unwindtable$??0?$concurrent_unordered_map@PAVISteamRemoteStorage@@PAVIWrapSteamRemoteStorage@@U?$hash@PAVISteamRemoteStorage@@@std@@U?$equal_to@PAVISteamRemoteStorage@@@4@V?$allocator@U?$pair@QAVISteamRemoteStorage@@PAVIWrapSteamRemoteStorage@@@std@@@4@@Concurrency@@QAE@IABU?$hash@PAVISteamRemoteStorage@@@std@@ABU?$equal_to@PAVISteamRemoteStorage@@@3@ABV?$allocator@U?$pair@QAVISteamRemoteStorage@@PAVIWrapSteamRemoteStorage@@@std@@@3@@Z DD 0ffffffffH
	DD	FLAT:__unwindfunclet$??0?$concurrent_unordered_map@PAVISteamRemoteStorage@@PAVIWrapSteamRemoteStorage@@U?$hash@PAVISteamRemoteStorage@@@std@@U?$equal_to@PAVISteamRemoteStorage@@@4@V?$allocator@U?$pair@QAVISteamRemoteStorage@@PAVIWrapSteamRemoteStorage@@@std@@@4@@Concurrency@@QAE@IABU?$hash@PAVISteamRemoteStorage@@@std@@ABU?$equal_to@PAVISteamRemoteStorage@@@3@ABV?$allocator@U?$pair@QAVISteamRemoteStorage@@PAVIWrapSteamRemoteStorage@@@std@@@3@@Z$0
__ehfuncinfo$??0?$concurrent_unordered_map@PAVISteamRemoteStorage@@PAVIWrapSteamRemoteStorage@@U?$hash@PAVISteamRemoteStorage@@@std@@U?$equal_to@PAVISteamRemoteStorage@@@4@V?$allocator@U?$pair@QAVISteamRemoteStorage@@PAVIWrapSteamRemoteStorage@@@std@@@4@@Concurrency@@QAE@IABU?$hash@PAVISteamRemoteStorage@@@std@@ABU?$equal_to@PAVISteamRemoteStorage@@@3@ABV?$allocator@U?$pair@QAVISteamRemoteStorage@@PAVIWrapSteamRemoteStorage@@@std@@@3@@Z DD 019930522H
	DD	01H
	DD	FLAT:__unwindtable$??0?$concurrent_unordered_map@PAVISteamRemoteStorage@@PAVIWrapSteamRemoteStorage@@U?$hash@PAVISteamRemoteStorage@@@std@@U?$equal_to@PAVISteamRemoteStorage@@@4@V?$allocator@U?$pair@QAVISteamRemoteStorage@@PAVIWrapSteamRemoteStorage@@@std@@@4@@Concurrency@@QAE@IABU?$hash@PAVISteamRemoteStorage@@@std@@ABU?$equal_to@PAVISteamRemoteStorage@@@3@ABV?$allocator@U?$pair@QAVISteamRemoteStorage@@PAVIWrapSteamRemoteStorage@@@std@@@3@@Z
	DD	2 DUP(00H)
	DD	2 DUP(00H)
	DD	00H
	DD	01H
xdata$x	ENDS
;	COMDAT xdata$x
xdata$x	SEGMENT
__unwindtable$??0?$_Concurrent_hash@V?$_Concurrent_unordered_map_traits@PAVISteamRemoteStorage@@PAVIWrapSteamRemoteStorage@@V?$_Hash_compare@PAVISteamRemoteStorage@@U?$hash@PAVISteamRemoteStorage@@@std@@U?$equal_to@PAVISteamRemoteStorage@@@3@@details@Concurrency@@V?$allocator@U?$pair@QAVISteamRemoteStorage@@PAVIWrapSteamRemoteStorage@@@std@@@std@@$0A@@details@Concurrency@@@details@Concurrency@@QAE@IABV?$_Hash_compare@PAVISteamRemoteStorage@@U?$hash@PAVISteamRemoteStorage@@@std@@U?$equal_to@PAVISteamRemoteStorage@@@3@@12@ABV?$allocator@U?$pair@QAVISteamRemoteStorage@@PAVIWrapSteamRemoteStorage@@@std@@@std@@@Z DD 0ffffffffH
	DD	FLAT:__unwindfunclet$??0?$_Concurrent_hash@V?$_Concurrent_unordered_map_traits@PAVISteamRemoteStorage@@PAVIWrapSteamRemoteStorage@@V?$_Hash_compare@PAVISteamRemoteStorage@@U?$hash@PAVISteamRemoteStorage@@@std@@U?$equal_to@PAVISteamRemoteStorage@@@3@@details@Concurrency@@V?$allocator@U?$pair@QAVISteamRemoteStorage@@PAVIWrapSteamRemoteStorage@@@std@@@std@@$0A@@details@Concurrency@@@details@Concurrency@@QAE@IABV?$_Hash_compare@PAVISteamRemoteStorage@@U?$hash@PAVISteamRemoteStorage@@@std@@U?$equal_to@PAVISteamRemoteStorage@@@3@@12@ABV?$allocator@U?$pair@QAVISteamRemoteStorage@@PAVIWrapSteamRemoteStorage@@@std@@@std@@@Z$0
__ehfuncinfo$??0?$_Concurrent_hash@V?$_Concurrent_unordered_map_traits@PAVISteamRemoteStorage@@PAVIWrapSteamRemoteStorage@@V?$_Hash_compare@PAVISteamRemoteStorage@@U?$hash@PAVISteamRemoteStorage@@@std@@U?$equal_to@PAVISteamRemoteStorage@@@3@@details@Concurrency@@V?$allocator@U?$pair@QAVISteamRemoteStorage@@PAVIWrapSteamRemoteStorage@@@std@@@std@@$0A@@details@Concurrency@@@details@Concurrency@@QAE@IABV?$_Hash_compare@PAVISteamRemoteStorage@@U?$hash@PAVISteamRemoteStorage@@@std@@U?$equal_to@PAVISteamRemoteStorage@@@3@@12@ABV?$allocator@U?$pair@QAVISteamRemoteStorage@@PAVIWrapSteamRemoteStorage@@@std@@@std@@@Z DD 019930522H
	DD	01H
	DD	FLAT:__unwindtable$??0?$_Concurrent_hash@V?$_Concurrent_unordered_map_traits@PAVISteamRemoteStorage@@PAVIWrapSteamRemoteStorage@@V?$_Hash_compare@PAVISteamRemoteStorage@@U?$hash@PAVISteamRemoteStorage@@@std@@U?$equal_to@PAVISteamRemoteStorage@@@3@@details@Concurrency@@V?$allocator@U?$pair@QAVISteamRemoteStorage@@PAVIWrapSteamRemoteStorage@@@std@@@std@@$0A@@details@Concurrency@@@details@Concurrency@@QAE@IABV?$_Hash_compare@PAVISteamRemoteStorage@@U?$hash@PAVISteamRemoteStorage@@@std@@U?$equal_to@PAVISteamRemoteStorage@@@3@@12@ABV?$allocator@U?$pair@QAVISteamRemoteStorage@@PAVIWrapSteamRemoteStorage@@@std@@@std@@@Z
	DD	2 DUP(00H)
	DD	2 DUP(00H)
	DD	00H
	DD	01H
xdata$x	ENDS
; Function compile flags: /Ogtp
; File c:\program files (x86)\microsoft visual studio\2017\community\vc\tools\msvc\14.10.25017\include\xmemory0
; File c:\program files (x86)\microsoft visual studio\2017\community\vc\tools\msvc\14.10.25017\include\forward_list
; File c:\program files (x86)\microsoft visual studio\2017\community\vc\tools\msvc\14.10.25017\include\xmemory0
;	COMDAT ??$construct@V?$_Flist_iterator@V?$_Split_order_list_value@U?$pair@QAVISteamRemoteStorage@@PAVIWrapSteamRemoteStorage@@@std@@V?$allocator@U?$pair@QAVISteamRemoteStorage@@PAVIWrapSteamRemoteStorage@@@std@@@2@@details@Concurrency@@@std@@$$V@?$allocator@V?$_Flist_iterator@V?$_Split_order_list_value@U?$pair@QAVISteamRemoteStorage@@PAVIWrapSteamRemoteStorage@@@std@@V?$allocator@U?$pair@QAVISteamRemoteStorage@@PAVIWrapSteamRemoteStorage@@@std@@@2@@details@Concurrency@@@std@@@std@@QAEXPAV?$_Flist_iterator@V?$_Split_order_list_value@U?$pair@QAVISteamRemoteStorage@@PAVIWrapSteamRemoteStorage@@@std@@V?$allocator@U?$pair@QAVISteamRemoteStorage@@PAVIWrapSteamRemoteStorage@@@std@@@2@@details@Concurrency@@@1@@Z
_TEXT	SEGMENT
__Ptr$ = 8						; size = 4
??$construct@V?$_Flist_iterator@V?$_Split_order_list_value@U?$pair@QAVISteamRemoteStorage@@PAVIWrapSteamRemoteStorage@@@std@@V?$allocator@U?$pair@QAVISteamRemoteStorage@@PAVIWrapSteamRemoteStorage@@@std@@@2@@details@Concurrency@@@std@@$$V@?$allocator@V?$_Flist_iterator@V?$_Split_order_list_value@U?$pair@QAVISteamRemoteStorage@@PAVIWrapSteamRemoteStorage@@@std@@V?$allocator@U?$pair@QAVISteamRemoteStorage@@PAVIWrapSteamRemoteStorage@@@std@@@2@@details@Concurrency@@@std@@@std@@QAEXPAV?$_Flist_iterator@V?$_Split_order_list_value@U?$pair@QAVISteamRemoteStorage@@PAVIWrapSteamRemoteStorage@@@std@@V?$allocator@U?$pair@QAVISteamRemoteStorage@@PAVIWrapSteamRemoteStorage@@@std@@@2@@details@Concurrency@@@1@@Z PROC ; std::allocator<std::_Flist_iterator<Concurrency::details::_Split_order_list_value<std::pair<ISteamRemoteStorage * const,IWrapSteamRemoteStorage *>,std::allocator<std::pair<ISteamRemoteStorage * const,IWrapSteamRemoteStorage *> > > > >::construct<std::_Flist_iterator<Concurrency::details::_Split_order_list_value<std::pair<ISteamRemoteStorage * const,IWrapSteamRemoteStorage *>,std::allocator<std::pair<ISteamRemoteStorage * const,IWrapSteamRemoteStorage *> > > > >, COMDAT
; _this$ = ecx

; 839  : 		{	// construct _Objty(_Types...) at _Ptr

	npad	2
	push	ebp
	mov	ebp, esp

; 840  : 		::new ((void *)_Ptr) _Objty(_STD forward<_Types>(_Args)...);

	mov	eax, DWORD PTR __Ptr$[ebp]
	test	eax, eax
	je	SHORT $LN3@construct
; File c:\program files (x86)\microsoft visual studio\2017\community\vc\tools\msvc\14.10.25017\include\forward_list

; 38   : 		: _Ptr()

	mov	DWORD PTR [eax], 0
$LN3@construct:
; File c:\program files (x86)\microsoft visual studio\2017\community\vc\tools\msvc\14.10.25017\include\xmemory0

; 841  : 		}

	pop	ebp
	ret	4
??$construct@V?$_Flist_iterator@V?$_Split_order_list_value@U?$pair@QAVISteamRemoteStorage@@PAVIWrapSteamRemoteStorage@@@std@@V?$allocator@U?$pair@QAVISteamRemoteStorage@@PAVIWrapSteamRemoteStorage@@@std@@@2@@details@Concurrency@@@std@@$$V@?$allocator@V?$_Flist_iterator@V?$_Split_order_list_value@U?$pair@QAVISteamRemoteStorage@@PAVIWrapSteamRemoteStorage@@@std@@V?$allocator@U?$pair@QAVISteamRemoteStorage@@PAVIWrapSteamRemoteStorage@@@std@@@2@@details@Concurrency@@@std@@@std@@QAEXPAV?$_Flist_iterator@V?$_Split_order_list_value@U?$pair@QAVISteamRemoteStorage@@PAVIWrapSteamRemoteStorage@@@std@@V?$allocator@U?$pair@QAVISteamRemoteStorage@@PAVIWrapSteamRemoteStorage@@@std@@@2@@details@Concurrency@@@1@@Z ENDP ; std::allocator<std::_Flist_iterator<Concurrency::details::_Split_order_list_value<std::pair<ISteamRemoteStorage * const,IWrapSteamRemoteStorage *>,std::allocator<std::pair<ISteamRemoteStorage * const,IWrapSteamRemoteStorage *> > > > >::construct<std::_Flist_iterator<Concurrency::details::_Split_order_list_value<std::pair<ISteamRemoteStorage * const,IWrapSteamRemoteStorage *>,std::allocator<std::pair<ISteamRemoteStorage * const,IWrapSteamRemoteStorage *> > > > >
_TEXT	ENDS
; Function compile flags: /Ogtp
; File c:\program files (x86)\microsoft visual studio\2017\community\vc\tools\msvc\14.10.25017\include\type_traits
;	COMDAT ??$forward@PAVISteamRemoteStorage@@@std@@YA$$QAPAVISteamRemoteStorage@@AAPAV1@@Z
_TEXT	SEGMENT
__Arg$ = 8						; size = 4
??$forward@PAVISteamRemoteStorage@@@std@@YA$$QAPAVISteamRemoteStorage@@AAPAV1@@Z PROC ; std::forward<ISteamRemoteStorage *>, COMDAT

; 1334 : 	{	// forward an lvalue as either an lvalue or an rvalue

	npad	2
	push	ebp
	mov	ebp, esp

; 1335 : 	return (static_cast<_Ty&&>(_Arg));

	mov	eax, DWORD PTR __Arg$[ebp]

; 1336 : 	}

	pop	ebp
	ret	0
??$forward@PAVISteamRemoteStorage@@@std@@YA$$QAPAVISteamRemoteStorage@@AAPAV1@@Z ENDP ; std::forward<ISteamRemoteStorage *>
_TEXT	ENDS
; Function compile flags: /Ogtp
; File c:\program files (x86)\microsoft visual studio\2017\community\vc\tools\msvc\14.10.25017\include\xmemory0
;	COMDAT ??$_Destroy_range1@V?$allocator@V?$_Flist_iterator@V?$_Split_order_list_value@U?$pair@QAVISteamRemoteStorage@@PAVIWrapSteamRemoteStorage@@@std@@V?$allocator@U?$pair@QAVISteamRemoteStorage@@PAVIWrapSteamRemoteStorage@@@std@@@2@@details@Concurrency@@@std@@@std@@PAV?$_Flist_iterator@V?$_Split_order_list_value@U?$pair@QAVISteamRemoteStorage@@PAVIWrapSteamRemoteStorage@@@std@@V?$allocator@U?$pair@QAVISteamRemoteStorage@@PAVIWrapSteamRemoteStorage@@@std@@@2@@details@Concurrency@@@2@@std@@YAXPAV?$_Flist_iterator@V?$_Split_order_list_value@U?$pair@QAVISteamRemoteStorage@@PAVIWrapSteamRemoteStorage@@@std@@V?$allocator@U?$pair@QAVISteamRemoteStorage@@PAVIWrapSteamRemoteStorage@@@std@@@2@@details@Concurrency@@@0@0AAU?$_Wrap_alloc@V?$allocator@V?$_Flist_iterator@V?$_Split_order_list_value@U?$pair@QAVISteamRemoteStorage@@PAVIWrapSteamRemoteStorage@@@std@@V?$allocator@U?$pair@QAVISteamRemoteStorage@@PAVIWrapSteamRemoteStorage@@@std@@@2@@details@Concurrency@@@std@@@std@@@0@U?$integral_constant@_N$00@0@@Z
_TEXT	SEGMENT
___formal$ = 8						; size = 4
___formal$ = 12						; size = 4
___formal$ = 16						; size = 4
___formal$ = 20						; size = 1
??$_Destroy_range1@V?$allocator@V?$_Flist_iterator@V?$_Split_order_list_value@U?$pair@QAVISteamRemoteStorage@@PAVIWrapSteamRemoteStorage@@@std@@V?$allocator@U?$pair@QAVISteamRemoteStorage@@PAVIWrapSteamRemoteStorage@@@std@@@2@@details@Concurrency@@@std@@@std@@PAV?$_Flist_iterator@V?$_Split_order_list_value@U?$pair@QAVISteamRemoteStorage@@PAVIWrapSteamRemoteStorage@@@std@@V?$allocator@U?$pair@QAVISteamRemoteStorage@@PAVIWrapSteamRemoteStorage@@@std@@@2@@details@Concurrency@@@2@@std@@YAXPAV?$_Flist_iterator@V?$_Split_order_list_value@U?$pair@QAVISteamRemoteStorage@@PAVIWrapSteamRemoteStorage@@@std@@V?$allocator@U?$pair@QAVISteamRemoteStorage@@PAVIWrapSteamRemoteStorage@@@std@@@2@@details@Concurrency@@@0@0AAU?$_Wrap_alloc@V?$allocator@V?$_Flist_iterator@V?$_Split_order_list_value@U?$pair@QAVISteamRemoteStorage@@PAVIWrapSteamRemoteStorage@@@std@@V?$allocator@U?$pair@QAVISteamRemoteStorage@@PAVIWrapSteamRemoteStorage@@@std@@@2@@details@Concurrency@@@std@@@std@@@0@U?$integral_constant@_N$00@0@@Z PROC ; std::_Destroy_range1<std::allocator<std::_Flist_iterator<Concurrency::details::_Split_order_list_value<std::pair<ISteamRemoteStorage * const,IWrapSteamRemoteStorage *>,std::allocator<std::pair<ISteamRemoteStorage * const,IWrapSteamRemoteStorage *> > > > >,std::_Flist_iterator<Concurrency::details::_Split_order_list_value<std::pair<ISteamRemoteStorage * const,IWrapSteamRemoteStorage *>,std::allocator<std::pair<ISteamRemoteStorage * const,IWrapSteamRemoteStorage *> > > > *>, COMDAT

; 1208 : 		// nothing to do
; 1209 : 	}

	ret	0
??$_Destroy_range1@V?$allocator@V?$_Flist_iterator@V?$_Split_order_list_value@U?$pair@QAVISteamRemoteStorage@@PAVIWrapSteamRemoteStorage@@@std@@V?$allocator@U?$pair@QAVISteamRemoteStorage@@PAVIWrapSteamRemoteStorage@@@std@@@2@@details@Concurrency@@@std@@@std@@PAV?$_Flist_iterator@V?$_Split_order_list_value@U?$pair@QAVISteamRemoteStorage@@PAVIWrapSteamRemoteStorage@@@std@@V?$allocator@U?$pair@QAVISteamRemoteStorage@@PAVIWrapSteamRemoteStorage@@@std@@@2@@details@Concurrency@@@2@@std@@YAXPAV?$_Flist_iterator@V?$_Split_order_list_value@U?$pair@QAVISteamRemoteStorage@@PAVIWrapSteamRemoteStorage@@@std@@V?$allocator@U?$pair@QAVISteamRemoteStorage@@PAVIWrapSteamRemoteStorage@@@std@@@2@@details@Concurrency@@@0@0AAU?$_Wrap_alloc@V?$allocator@V?$_Flist_iterator@V?$_Split_order_list_value@U?$pair@QAVISteamRemoteStorage@@PAVIWrapSteamRemoteStorage@@@std@@V?$allocator@U?$pair@QAVISteamRemoteStorage@@PAVIWrapSteamRemoteStorage@@@std@@@2@@details@Concurrency@@@std@@@std@@@0@U?$integral_constant@_N$00@0@@Z ENDP ; std::_Destroy_range1<std::allocator<std::_Flist_iterator<Concurrency::details::_Split_order_list_value<std::pair<ISteamRemoteStorage * const,IWrapSteamRemoteStorage *>,std::allocator<std::pair<ISteamRemoteStorage * const,IWrapSteamRemoteStorage *> > > > >,std::_Flist_iterator<Concurrency::details::_Split_order_list_value<std::pair<ISteamRemoteStorage * const,IWrapSteamRemoteStorage *>,std::allocator<std::pair<ISteamRemoteStorage * const,IWrapSteamRemoteStorage *> > > > *>
_TEXT	ENDS
; Function compile flags: /Ogtp
; File c:\program files (x86)\microsoft visual studio\2017\community\vc\tools\msvc\14.10.25017\include\xmemory0
; File c:\program files (x86)\microsoft visual studio\2017\community\vc\tools\msvc\14.10.25017\include\forward_list
; File c:\program files (x86)\microsoft visual studio\2017\community\vc\tools\msvc\14.10.25017\include\xmemory0
;	COMDAT ??$construct@V?$_Flist_iterator@V?$_Split_order_list_value@U?$pair@QAVISteamRemoteStorage@@PAVIWrapSteamRemoteStorage@@@std@@V?$allocator@U?$pair@QAVISteamRemoteStorage@@PAVIWrapSteamRemoteStorage@@@std@@@2@@details@Concurrency@@@std@@$$V@?$allocator_traits@V?$allocator@V?$_Flist_iterator@V?$_Split_order_list_value@U?$pair@QAVISteamRemoteStorage@@PAVIWrapSteamRemoteStorage@@@std@@V?$allocator@U?$pair@QAVISteamRemoteStorage@@PAVIWrapSteamRemoteStorage@@@std@@@2@@details@Concurrency@@@std@@@std@@@std@@SAXAAV?$allocator@V?$_Flist_iterator@V?$_Split_order_list_value@U?$pair@QAVISteamRemoteStorage@@PAVIWrapSteamRemoteStorage@@@std@@V?$allocator@U?$pair@QAVISteamRemoteStorage@@PAVIWrapSteamRemoteStorage@@@std@@@2@@details@Concurrency@@@std@@@1@PAV?$_Flist_iterator@V?$_Split_order_list_value@U?$pair@QAVISteamRemoteStorage@@PAVIWrapSteamRemoteStorage@@@std@@V?$allocator@U?$pair@QAVISteamRemoteStorage@@PAVIWrapSteamRemoteStorage@@@std@@@2@@details@Concurrency@@@1@@Z
_TEXT	SEGMENT
__Al$ = 8						; size = 4
__Ptr$ = 12						; size = 4
??$construct@V?$_Flist_iterator@V?$_Split_order_list_value@U?$pair@QAVISteamRemoteStorage@@PAVIWrapSteamRemoteStorage@@@std@@V?$allocator@U?$pair@QAVISteamRemoteStorage@@PAVIWrapSteamRemoteStorage@@@std@@@2@@details@Concurrency@@@std@@$$V@?$allocator_traits@V?$allocator@V?$_Flist_iterator@V?$_Split_order_list_value@U?$pair@QAVISteamRemoteStorage@@PAVIWrapSteamRemoteStorage@@@std@@V?$allocator@U?$pair@QAVISteamRemoteStorage@@PAVIWrapSteamRemoteStorage@@@std@@@2@@details@Concurrency@@@std@@@std@@@std@@SAXAAV?$allocator@V?$_Flist_iterator@V?$_Split_order_list_value@U?$pair@QAVISteamRemoteStorage@@PAVIWrapSteamRemoteStorage@@@std@@V?$allocator@U?$pair@QAVISteamRemoteStorage@@PAVIWrapSteamRemoteStorage@@@std@@@2@@details@Concurrency@@@std@@@1@PAV?$_Flist_iterator@V?$_Split_order_list_value@U?$pair@QAVISteamRemoteStorage@@PAVIWrapSteamRemoteStorage@@@std@@V?$allocator@U?$pair@QAVISteamRemoteStorage@@PAVIWrapSteamRemoteStorage@@@std@@@2@@details@Concurrency@@@1@@Z PROC ; std::allocator_traits<std::allocator<std::_Flist_iterator<Concurrency::details::_Split_order_list_value<std::pair<ISteamRemoteStorage * const,IWrapSteamRemoteStorage *>,std::allocator<std::pair<ISteamRemoteStorage * const,IWrapSteamRemoteStorage *> > > > > >::construct<std::_Flist_iterator<Concurrency::details::_Split_order_list_value<std::pair<ISteamRemoteStorage * const,IWrapSteamRemoteStorage *>,std::allocator<std::pair<ISteamRemoteStorage * const,IWrapSteamRemoteStorage *> > > > >, COMDAT

; 958  : 		{	// construct _Objty(_Types...) at _Ptr

	npad	2
	push	ebp
	mov	ebp, esp

; 840  : 		::new ((void *)_Ptr) _Objty(_STD forward<_Types>(_Args)...);

	mov	eax, DWORD PTR __Ptr$[ebp]
	test	eax, eax
	je	SHORT $LN5@construct
; File c:\program files (x86)\microsoft visual studio\2017\community\vc\tools\msvc\14.10.25017\include\forward_list

; 38   : 		: _Ptr()

	mov	DWORD PTR [eax], 0
$LN5@construct:
; File c:\program files (x86)\microsoft visual studio\2017\community\vc\tools\msvc\14.10.25017\include\xmemory0

; 960  : 		}

	pop	ebp
	ret	0
??$construct@V?$_Flist_iterator@V?$_Split_order_list_value@U?$pair@QAVISteamRemoteStorage@@PAVIWrapSteamRemoteStorage@@@std@@V?$allocator@U?$pair@QAVISteamRemoteStorage@@PAVIWrapSteamRemoteStorage@@@std@@@2@@details@Concurrency@@@std@@$$V@?$allocator_traits@V?$allocator@V?$_Flist_iterator@V?$_Split_order_list_value@U?$pair@QAVISteamRemoteStorage@@PAVIWrapSteamRemoteStorage@@@std@@V?$allocator@U?$pair@QAVISteamRemoteStorage@@PAVIWrapSteamRemoteStorage@@@std@@@2@@details@Concurrency@@@std@@@std@@@std@@SAXAAV?$allocator@V?$_Flist_iterator@V?$_Split_order_list_value@U?$pair@QAVISteamRemoteStorage@@PAVIWrapSteamRemoteStorage@@@std@@V?$allocator@U?$pair@QAVISteamRemoteStorage@@PAVIWrapSteamRemoteStorage@@@std@@@2@@details@Concurrency@@@std@@@1@PAV?$_Flist_iterator@V?$_Split_order_list_value@U?$pair@QAVISteamRemoteStorage@@PAVIWrapSteamRemoteStorage@@@std@@V?$allocator@U?$pair@QAVISteamRemoteStorage@@PAVIWrapSteamRemoteStorage@@@std@@@2@@details@Concurrency@@@1@@Z ENDP ; std::allocator_traits<std::allocator<std::_Flist_iterator<Concurrency::details::_Split_order_list_value<std::pair<ISteamRemoteStorage * const,IWrapSteamRemoteStorage *>,std::allocator<std::pair<ISteamRemoteStorage * const,IWrapSteamRemoteStorage *> > > > > >::construct<std::_Flist_iterator<Concurrency::details::_Split_order_list_value<std::pair<ISteamRemoteStorage * const,IWrapSteamRemoteStorage *>,std::allocator<std::pair<ISteamRemoteStorage * const,IWrapSteamRemoteStorage *> > > > >
_TEXT	ENDS
; Function compile flags: /Ogtp
; File c:\program files (x86)\microsoft visual studio\2017\community\vc\tools\msvc\14.10.25017\include\utility
;	COMDAT ??$?0PAVISteamRemoteStorage@@PAVIWrapSteamRemoteStorage@@X$0A@@?$pair@QAVISteamRemoteStorage@@PAVIWrapSteamRemoteStorage@@@std@@QAE@$$QAU?$pair@PAVISteamRemoteStorage@@PAVIWrapSteamRemoteStorage@@@1@@Z
_TEXT	SEGMENT
__Right$ = 8						; size = 4
??$?0PAVISteamRemoteStorage@@PAVIWrapSteamRemoteStorage@@X$0A@@?$pair@QAVISteamRemoteStorage@@PAVIWrapSteamRemoteStorage@@@std@@QAE@$$QAU?$pair@PAVISteamRemoteStorage@@PAVIWrapSteamRemoteStorage@@@1@@Z PROC ; std::pair<ISteamRemoteStorage * const,IWrapSteamRemoteStorage *>::pair<ISteamRemoteStorage * const,IWrapSteamRemoteStorage *><ISteamRemoteStorage *,IWrapSteamRemoteStorage *,void,0>, COMDAT
; _this$ = ecx

; 217  : 		{	// construct from moved compatible pair

	npad	2
	push	ebp
	mov	ebp, esp

; 215  : 		: first(_STD forward<_Other1>(_Right.first)),

	mov	edx, DWORD PTR __Right$[ebp]
	mov	eax, DWORD PTR [edx]
	mov	DWORD PTR [ecx], eax

; 216  : 			second(_STD forward<_Other2>(_Right.second))

	mov	eax, DWORD PTR [edx+4]
	mov	DWORD PTR [ecx+4], eax

; 218  : 		}

	mov	eax, ecx
	pop	ebp
	ret	4
??$?0PAVISteamRemoteStorage@@PAVIWrapSteamRemoteStorage@@X$0A@@?$pair@QAVISteamRemoteStorage@@PAVIWrapSteamRemoteStorage@@@std@@QAE@$$QAU?$pair@PAVISteamRemoteStorage@@PAVIWrapSteamRemoteStorage@@@1@@Z ENDP ; std::pair<ISteamRemoteStorage * const,IWrapSteamRemoteStorage *>::pair<ISteamRemoteStorage * const,IWrapSteamRemoteStorage *><ISteamRemoteStorage *,IWrapSteamRemoteStorage *,void,0>
_TEXT	ENDS
; Function compile flags: /Ogtp
; File c:\program files (x86)\microsoft visual studio\2017\community\vc\tools\msvc\14.10.25017\include\xmemory0
;	COMDAT ??$_Destroy_range@V?$allocator@V?$_Flist_iterator@V?$_Split_order_list_value@U?$pair@QAVISteamRemoteStorage@@PAVIWrapSteamRemoteStorage@@@std@@V?$allocator@U?$pair@QAVISteamRemoteStorage@@PAVIWrapSteamRemoteStorage@@@std@@@2@@details@Concurrency@@@std@@@std@@PAV?$_Flist_iterator@V?$_Split_order_list_value@U?$pair@QAVISteamRemoteStorage@@PAVIWrapSteamRemoteStorage@@@std@@V?$allocator@U?$pair@QAVISteamRemoteStorage@@PAVIWrapSteamRemoteStorage@@@std@@@2@@details@Concurrency@@@2@@std@@YAXPAV?$_Flist_iterator@V?$_Split_order_list_value@U?$pair@QAVISteamRemoteStorage@@PAVIWrapSteamRemoteStorage@@@std@@V?$allocator@U?$pair@QAVISteamRemoteStorage@@PAVIWrapSteamRemoteStorage@@@std@@@2@@details@Concurrency@@@0@0AAU?$_Wrap_alloc@V?$allocator@V?$_Flist_iterator@V?$_Split_order_list_value@U?$pair@QAVISteamRemoteStorage@@PAVIWrapSteamRemoteStorage@@@std@@V?$allocator@U?$pair@QAVISteamRemoteStorage@@PAVIWrapSteamRemoteStorage@@@std@@@2@@details@Concurrency@@@std@@@std@@@0@@Z
_TEXT	SEGMENT
__First$ = 8						; size = 4
__Last$ = 12						; size = 4
__Al$ = 16						; size = 4
??$_Destroy_range@V?$allocator@V?$_Flist_iterator@V?$_Split_order_list_value@U?$pair@QAVISteamRemoteStorage@@PAVIWrapSteamRemoteStorage@@@std@@V?$allocator@U?$pair@QAVISteamRemoteStorage@@PAVIWrapSteamRemoteStorage@@@std@@@2@@details@Concurrency@@@std@@@std@@PAV?$_Flist_iterator@V?$_Split_order_list_value@U?$pair@QAVISteamRemoteStorage@@PAVIWrapSteamRemoteStorage@@@std@@V?$allocator@U?$pair@QAVISteamRemoteStorage@@PAVIWrapSteamRemoteStorage@@@std@@@2@@details@Concurrency@@@2@@std@@YAXPAV?$_Flist_iterator@V?$_Split_order_list_value@U?$pair@QAVISteamRemoteStorage@@PAVIWrapSteamRemoteStorage@@@std@@V?$allocator@U?$pair@QAVISteamRemoteStorage@@PAVIWrapSteamRemoteStorage@@@std@@@2@@details@Concurrency@@@0@0AAU?$_Wrap_alloc@V?$allocator@V?$_Flist_iterator@V?$_Split_order_list_value@U?$pair@QAVISteamRemoteStorage@@PAVIWrapSteamRemoteStorage@@@std@@V?$allocator@U?$pair@QAVISteamRemoteStorage@@PAVIWrapSteamRemoteStorage@@@std@@@2@@details@Concurrency@@@std@@@std@@@0@@Z PROC ; std::_Destroy_range<std::allocator<std::_Flist_iterator<Concurrency::details::_Split_order_list_value<std::pair<ISteamRemoteStorage * const,IWrapSteamRemoteStorage *>,std::allocator<std::pair<ISteamRemoteStorage * const,IWrapSteamRemoteStorage *> > > > >,std::_Flist_iterator<Concurrency::details::_Split_order_list_value<std::pair<ISteamRemoteStorage * const,IWrapSteamRemoteStorage *>,std::allocator<std::pair<ISteamRemoteStorage * const,IWrapSteamRemoteStorage *> > > > *>, COMDAT

; 1215 : 		// note that this is an optimization for debug mode codegen;
; 1216 : 		// in release mode the BE removes all of this
; 1217 : 	typedef typename _Alloc::value_type _Val;
; 1218 : 	_Destroy_range1(_First, _Last, _Al, _Conjunction_t<
; 1219 : 		is_trivially_destructible<_Val>,
; 1220 : 		_Uses_default_destroy<_Alloc, _Val *>>());
; 1221 : 	}

	ret	0
??$_Destroy_range@V?$allocator@V?$_Flist_iterator@V?$_Split_order_list_value@U?$pair@QAVISteamRemoteStorage@@PAVIWrapSteamRemoteStorage@@@std@@V?$allocator@U?$pair@QAVISteamRemoteStorage@@PAVIWrapSteamRemoteStorage@@@std@@@2@@details@Concurrency@@@std@@@std@@PAV?$_Flist_iterator@V?$_Split_order_list_value@U?$pair@QAVISteamRemoteStorage@@PAVIWrapSteamRemoteStorage@@@std@@V?$allocator@U?$pair@QAVISteamRemoteStorage@@PAVIWrapSteamRemoteStorage@@@std@@@2@@details@Concurrency@@@2@@std@@YAXPAV?$_Flist_iterator@V?$_Split_order_list_value@U?$pair@QAVISteamRemoteStorage@@PAVIWrapSteamRemoteStorage@@@std@@V?$allocator@U?$pair@QAVISteamRemoteStorage@@PAVIWrapSteamRemoteStorage@@@std@@@2@@details@Concurrency@@@0@0AAU?$_Wrap_alloc@V?$allocator@V?$_Flist_iterator@V?$_Split_order_list_value@U?$pair@QAVISteamRemoteStorage@@PAVIWrapSteamRemoteStorage@@@std@@V?$allocator@U?$pair@QAVISteamRemoteStorage@@PAVIWrapSteamRemoteStorage@@@std@@@2@@details@Concurrency@@@std@@@std@@@0@@Z ENDP ; std::_Destroy_range<std::allocator<std::_Flist_iterator<Concurrency::details::_Split_order_list_value<std::pair<ISteamRemoteStorage * const,IWrapSteamRemoteStorage *>,std::allocator<std::pair<ISteamRemoteStorage * const,IWrapSteamRemoteStorage *> > > > >,std::_Flist_iterator<Concurrency::details::_Split_order_list_value<std::pair<ISteamRemoteStorage * const,IWrapSteamRemoteStorage *>,std::allocator<std::pair<ISteamRemoteStorage * const,IWrapSteamRemoteStorage *> > > > *>
_TEXT	ENDS
; Function compile flags: /Ogtp
; File c:\program files (x86)\microsoft visual studio\2017\community\vc\tools\msvc\14.10.25017\include\xmemory0
; File c:\program files (x86)\microsoft visual studio\2017\community\vc\tools\msvc\14.10.25017\include\forward_list
; File c:\program files (x86)\microsoft visual studio\2017\community\vc\tools\msvc\14.10.25017\include\xmemory0
;	COMDAT ??$construct@V?$_Flist_iterator@V?$_Split_order_list_value@U?$pair@QAVISteamRemoteStorage@@PAVIWrapSteamRemoteStorage@@@std@@V?$allocator@U?$pair@QAVISteamRemoteStorage@@PAVIWrapSteamRemoteStorage@@@std@@@2@@details@Concurrency@@@std@@$$V@?$_Wrap_alloc@V?$allocator@V?$_Flist_iterator@V?$_Split_order_list_value@U?$pair@QAVISteamRemoteStorage@@PAVIWrapSteamRemoteStorage@@@std@@V?$allocator@U?$pair@QAVISteamRemoteStorage@@PAVIWrapSteamRemoteStorage@@@std@@@2@@details@Concurrency@@@std@@@std@@@std@@QAEXPAV?$_Flist_iterator@V?$_Split_order_list_value@U?$pair@QAVISteamRemoteStorage@@PAVIWrapSteamRemoteStorage@@@std@@V?$allocator@U?$pair@QAVISteamRemoteStorage@@PAVIWrapSteamRemoteStorage@@@std@@@2@@details@Concurrency@@@1@@Z
_TEXT	SEGMENT
__Ptr$ = 8						; size = 4
??$construct@V?$_Flist_iterator@V?$_Split_order_list_value@U?$pair@QAVISteamRemoteStorage@@PAVIWrapSteamRemoteStorage@@@std@@V?$allocator@U?$pair@QAVISteamRemoteStorage@@PAVIWrapSteamRemoteStorage@@@std@@@2@@details@Concurrency@@@std@@$$V@?$_Wrap_alloc@V?$allocator@V?$_Flist_iterator@V?$_Split_order_list_value@U?$pair@QAVISteamRemoteStorage@@PAVIWrapSteamRemoteStorage@@@std@@V?$allocator@U?$pair@QAVISteamRemoteStorage@@PAVIWrapSteamRemoteStorage@@@std@@@2@@details@Concurrency@@@std@@@std@@@std@@QAEXPAV?$_Flist_iterator@V?$_Split_order_list_value@U?$pair@QAVISteamRemoteStorage@@PAVIWrapSteamRemoteStorage@@@std@@V?$allocator@U?$pair@QAVISteamRemoteStorage@@PAVIWrapSteamRemoteStorage@@@std@@@2@@details@Concurrency@@@1@@Z PROC ; std::_Wrap_alloc<std::allocator<std::_Flist_iterator<Concurrency::details::_Split_order_list_value<std::pair<ISteamRemoteStorage * const,IWrapSteamRemoteStorage *>,std::allocator<std::pair<ISteamRemoteStorage * const,IWrapSteamRemoteStorage *> > > > > >::construct<std::_Flist_iterator<Concurrency::details::_Split_order_list_value<std::pair<ISteamRemoteStorage * const,IWrapSteamRemoteStorage *>,std::allocator<std::pair<ISteamRemoteStorage * const,IWrapSteamRemoteStorage *> > > > >, COMDAT
; _this$ = ecx

; 1095 : 		{	// construct _Ty(_Types...) at _Ptr

	npad	2
	push	ebp
	mov	ebp, esp

; 840  : 		::new ((void *)_Ptr) _Objty(_STD forward<_Types>(_Args)...);

	mov	eax, DWORD PTR __Ptr$[ebp]
	test	eax, eax
	je	SHORT $LN7@construct
; File c:\program files (x86)\microsoft visual studio\2017\community\vc\tools\msvc\14.10.25017\include\forward_list

; 38   : 		: _Ptr()

	mov	DWORD PTR [eax], 0
$LN7@construct:
; File c:\program files (x86)\microsoft visual studio\2017\community\vc\tools\msvc\14.10.25017\include\xmemory0

; 1098 : 		}

	pop	ebp
	ret	4
??$construct@V?$_Flist_iterator@V?$_Split_order_list_value@U?$pair@QAVISteamRemoteStorage@@PAVIWrapSteamRemoteStorage@@@std@@V?$allocator@U?$pair@QAVISteamRemoteStorage@@PAVIWrapSteamRemoteStorage@@@std@@@2@@details@Concurrency@@@std@@$$V@?$_Wrap_alloc@V?$allocator@V?$_Flist_iterator@V?$_Split_order_list_value@U?$pair@QAVISteamRemoteStorage@@PAVIWrapSteamRemoteStorage@@@std@@V?$allocator@U?$pair@QAVISteamRemoteStorage@@PAVIWrapSteamRemoteStorage@@@std@@@2@@details@Concurrency@@@std@@@std@@@std@@QAEXPAV?$_Flist_iterator@V?$_Split_order_list_value@U?$pair@QAVISteamRemoteStorage@@PAVIWrapSteamRemoteStorage@@@std@@V?$allocator@U?$pair@QAVISteamRemoteStorage@@PAVIWrapSteamRemoteStorage@@@std@@@2@@details@Concurrency@@@1@@Z ENDP ; std::_Wrap_alloc<std::allocator<std::_Flist_iterator<Concurrency::details::_Split_order_list_value<std::pair<ISteamRemoteStorage * const,IWrapSteamRemoteStorage *>,std::allocator<std::pair<ISteamRemoteStorage * const,IWrapSteamRemoteStorage *> > > > > >::construct<std::_Flist_iterator<Concurrency::details::_Split_order_list_value<std::pair<ISteamRemoteStorage * const,IWrapSteamRemoteStorage *>,std::allocator<std::pair<ISteamRemoteStorage * const,IWrapSteamRemoteStorage *> > > > >
_TEXT	ENDS
; Function compile flags: /Ogtp
; File c:\program files (x86)\microsoft visual studio\2017\community\vc\tools\msvc\14.10.25017\include\type_traits
;	COMDAT ??$forward@_N@std@@YA$$QA_NAA_N@Z
_TEXT	SEGMENT
__Arg$ = 8						; size = 4
??$forward@_N@std@@YA$$QA_NAA_N@Z PROC			; std::forward<bool>, COMDAT

; 1334 : 	{	// forward an lvalue as either an lvalue or an rvalue

	npad	2
	push	ebp
	mov	ebp, esp

; 1335 : 	return (static_cast<_Ty&&>(_Arg));

	mov	eax, DWORD PTR __Arg$[ebp]

; 1336 : 	}

	pop	ebp
	ret	0
??$forward@_N@std@@YA$$QA_NAA_N@Z ENDP			; std::forward<bool>
_TEXT	ENDS
; Function compile flags: /Ogtp
; File c:\program files (x86)\microsoft visual studio\2017\community\vc\tools\msvc\14.10.25017\include\type_traits
;	COMDAT ??$forward@V?$_Solist_iterator@V?$_Split_order_list_value@U?$pair@QAVISteamRemoteStorage@@PAVIWrapSteamRemoteStorage@@@std@@V?$allocator@U?$pair@QAVISteamRemoteStorage@@PAVIWrapSteamRemoteStorage@@@std@@@2@@details@Concurrency@@@details@Concurrency@@@std@@YA$$QAV?$_Solist_iterator@V?$_Split_order_list_value@U?$pair@QAVISteamRemoteStorage@@PAVIWrapSteamRemoteStorage@@@std@@V?$allocator@U?$pair@QAVISteamRemoteStorage@@PAVIWrapSteamRemoteStorage@@@std@@@2@@details@Concurrency@@@details@Concurrency@@AAV123@@Z
_TEXT	SEGMENT
__Arg$ = 8						; size = 4
??$forward@V?$_Solist_iterator@V?$_Split_order_list_value@U?$pair@QAVISteamRemoteStorage@@PAVIWrapSteamRemoteStorage@@@std@@V?$allocator@U?$pair@QAVISteamRemoteStorage@@PAVIWrapSteamRemoteStorage@@@std@@@2@@details@Concurrency@@@details@Concurrency@@@std@@YA$$QAV?$_Solist_iterator@V?$_Split_order_list_value@U?$pair@QAVISteamRemoteStorage@@PAVIWrapSteamRemoteStorage@@@std@@V?$allocator@U?$pair@QAVISteamRemoteStorage@@PAVIWrapSteamRemoteStorage@@@std@@@2@@details@Concurrency@@@details@Concurrency@@AAV123@@Z PROC ; std::forward<Concurrency::details::_Solist_iterator<Concurrency::details::_Split_order_list_value<std::pair<ISteamRemoteStorage * const,IWrapSteamRemoteStorage *>,std::allocator<std::pair<ISteamRemoteStorage * const,IWrapSteamRemoteStorage *> > > > >, COMDAT

; 1334 : 	{	// forward an lvalue as either an lvalue or an rvalue

	npad	2
	push	ebp
	mov	ebp, esp

; 1335 : 	return (static_cast<_Ty&&>(_Arg));

	mov	eax, DWORD PTR __Arg$[ebp]

; 1336 : 	}

	pop	ebp
	ret	0
??$forward@V?$_Solist_iterator@V?$_Split_order_list_value@U?$pair@QAVISteamRemoteStorage@@PAVIWrapSteamRemoteStorage@@@std@@V?$allocator@U?$pair@QAVISteamRemoteStorage@@PAVIWrapSteamRemoteStorage@@@std@@@2@@details@Concurrency@@@details@Concurrency@@@std@@YA$$QAV?$_Solist_iterator@V?$_Split_order_list_value@U?$pair@QAVISteamRemoteStorage@@PAVIWrapSteamRemoteStorage@@@std@@V?$allocator@U?$pair@QAVISteamRemoteStorage@@PAVIWrapSteamRemoteStorage@@@std@@@2@@details@Concurrency@@@details@Concurrency@@AAV123@@Z ENDP ; std::forward<Concurrency::details::_Solist_iterator<Concurrency::details::_Split_order_list_value<std::pair<ISteamRemoteStorage * const,IWrapSteamRemoteStorage *>,std::allocator<std::pair<ISteamRemoteStorage * const,IWrapSteamRemoteStorage *> > > > >
_TEXT	ENDS
; Function compile flags: /Ogtp
; File c:\program files (x86)\microsoft visual studio\2017\community\vc\tools\msvc\14.10.25017\include\xmemory0
; File c:\program files (x86)\microsoft visual studio\2017\community\vc\tools\msvc\14.10.25017\include\utility
; File c:\program files (x86)\microsoft visual studio\2017\community\vc\tools\msvc\14.10.25017\include\xmemory0
;	COMDAT ??$construct@U?$pair@QAVISteamRemoteStorage@@PAVIWrapSteamRemoteStorage@@@std@@U?$pair@PAVISteamRemoteStorage@@PAVIWrapSteamRemoteStorage@@@2@@?$allocator@U?$pair@QAVISteamRemoteStorage@@PAVIWrapSteamRemoteStorage@@@std@@@std@@QAEXPAU?$pair@QAVISteamRemoteStorage@@PAVIWrapSteamRemoteStorage@@@1@$$QAU?$pair@PAVISteamRemoteStorage@@PAVIWrapSteamRemoteStorage@@@1@@Z
_TEXT	SEGMENT
__Ptr$ = 8						; size = 4
_<_Args_0>$ = 12					; size = 4
??$construct@U?$pair@QAVISteamRemoteStorage@@PAVIWrapSteamRemoteStorage@@@std@@U?$pair@PAVISteamRemoteStorage@@PAVIWrapSteamRemoteStorage@@@2@@?$allocator@U?$pair@QAVISteamRemoteStorage@@PAVIWrapSteamRemoteStorage@@@std@@@std@@QAEXPAU?$pair@QAVISteamRemoteStorage@@PAVIWrapSteamRemoteStorage@@@1@$$QAU?$pair@PAVISteamRemoteStorage@@PAVIWrapSteamRemoteStorage@@@1@@Z PROC ; std::allocator<std::pair<ISteamRemoteStorage * const,IWrapSteamRemoteStorage *> >::construct<std::pair<ISteamRemoteStorage * const,IWrapSteamRemoteStorage *>,std::pair<ISteamRemoteStorage *,IWrapSteamRemoteStorage *> >, COMDAT
; _this$ = ecx

; 839  : 		{	// construct _Objty(_Types...) at _Ptr

	npad	2
	push	ebp
	mov	ebp, esp

; 840  : 		::new ((void *)_Ptr) _Objty(_STD forward<_Types>(_Args)...);

	mov	edx, DWORD PTR __Ptr$[ebp]
	test	edx, edx
	je	SHORT $LN3@construct
; File c:\program files (x86)\microsoft visual studio\2017\community\vc\tools\msvc\14.10.25017\include\utility

; 215  : 		: first(_STD forward<_Other1>(_Right.first)),

	mov	ecx, DWORD PTR _<_Args_0>$[ebp]
	mov	eax, DWORD PTR [ecx]
	mov	DWORD PTR [edx], eax

; 216  : 			second(_STD forward<_Other2>(_Right.second))

	mov	eax, DWORD PTR [ecx+4]
	mov	DWORD PTR [edx+4], eax
$LN3@construct:
; File c:\program files (x86)\microsoft visual studio\2017\community\vc\tools\msvc\14.10.25017\include\xmemory0

; 841  : 		}

	pop	ebp
	ret	8
??$construct@U?$pair@QAVISteamRemoteStorage@@PAVIWrapSteamRemoteStorage@@@std@@U?$pair@PAVISteamRemoteStorage@@PAVIWrapSteamRemoteStorage@@@2@@?$allocator@U?$pair@QAVISteamRemoteStorage@@PAVIWrapSteamRemoteStorage@@@std@@@std@@QAEXPAU?$pair@QAVISteamRemoteStorage@@PAVIWrapSteamRemoteStorage@@@1@$$QAU?$pair@PAVISteamRemoteStorage@@PAVIWrapSteamRemoteStorage@@@1@@Z ENDP ; std::allocator<std::pair<ISteamRemoteStorage * const,IWrapSteamRemoteStorage *> >::construct<std::pair<ISteamRemoteStorage * const,IWrapSteamRemoteStorage *>,std::pair<ISteamRemoteStorage *,IWrapSteamRemoteStorage *> >
_TEXT	ENDS
; Function compile flags: /Ogtp
; File c:\program files (x86)\microsoft visual studio\2017\community\vc\tools\msvc\14.10.25017\include\xstddef
;	COMDAT ??$addressof@U?$pair@QAVISteamRemoteStorage@@PAVIWrapSteamRemoteStorage@@@std@@@std@@YAPAU?$pair@QAVISteamRemoteStorage@@PAVIWrapSteamRemoteStorage@@@0@AAU10@@Z
_TEXT	SEGMENT
__Val$ = 8						; size = 4
??$addressof@U?$pair@QAVISteamRemoteStorage@@PAVIWrapSteamRemoteStorage@@@std@@@std@@YAPAU?$pair@QAVISteamRemoteStorage@@PAVIWrapSteamRemoteStorage@@@0@AAU10@@Z PROC ; std::addressof<std::pair<ISteamRemoteStorage * const,IWrapSteamRemoteStorage *> >, COMDAT

; 629  : 	{	// return address of _Val

	npad	2
	push	ebp
	mov	ebp, esp

; 630  : 	return (__builtin_addressof(_Val));

	mov	eax, DWORD PTR __Val$[ebp]

; 631  : 	}

	pop	ebp
	ret	0
??$addressof@U?$pair@QAVISteamRemoteStorage@@PAVIWrapSteamRemoteStorage@@@std@@@std@@YAPAU?$pair@QAVISteamRemoteStorage@@PAVIWrapSteamRemoteStorage@@@0@AAU10@@Z ENDP ; std::addressof<std::pair<ISteamRemoteStorage * const,IWrapSteamRemoteStorage *> >
_TEXT	ENDS
; Function compile flags: /Ogtp
; File c:\program files (x86)\microsoft visual studio\2017\community\vc\tools\msvc\14.10.25017\include\xmemory
; File c:\program files (x86)\microsoft visual studio\2017\community\vc\tools\msvc\14.10.25017\include\xmemory0
; File c:\program files (x86)\microsoft visual studio\2017\community\vc\tools\msvc\14.10.25017\include\forward_list
; File c:\program files (x86)\microsoft visual studio\2017\community\vc\tools\msvc\14.10.25017\include\xmemory
;	COMDAT ??$_Uninitialized_default_fill_n1@PAV?$_Flist_iterator@V?$_Split_order_list_value@U?$pair@QAVISteamRemoteStorage@@PAVIWrapSteamRemoteStorage@@@std@@V?$allocator@U?$pair@QAVISteamRemoteStorage@@PAVIWrapSteamRemoteStorage@@@std@@@2@@details@Concurrency@@@std@@IV?$allocator@V?$_Flist_iterator@V?$_Split_order_list_value@U?$pair@QAVISteamRemoteStorage@@PAVIWrapSteamRemoteStorage@@@std@@V?$allocator@U?$pair@QAVISteamRemoteStorage@@PAVIWrapSteamRemoteStorage@@@std@@@2@@details@Concurrency@@@std@@@2@@std@@YAPAV?$_Flist_iterator@V?$_Split_order_list_value@U?$pair@QAVISteamRemoteStorage@@PAVIWrapSteamRemoteStorage@@@std@@V?$allocator@U?$pair@QAVISteamRemoteStorage@@PAVIWrapSteamRemoteStorage@@@std@@@2@@details@Concurrency@@@0@PAV10@IAAU?$_Wrap_alloc@V?$allocator@V?$_Flist_iterator@V?$_Split_order_list_value@U?$pair@QAVISteamRemoteStorage@@PAVIWrapSteamRemoteStorage@@@std@@V?$allocator@U?$pair@QAVISteamRemoteStorage@@PAVIWrapSteamRemoteStorage@@@std@@@2@@details@Concurrency@@@std@@@std@@@0@U?$integral_constant@_N$0A@@0@@Z
_TEXT	SEGMENT
__First$ = 8						; size = 4
__Count$ = 12						; size = 4
__Al$ = 16						; size = 4
___formal$ = 20						; size = 1
??$_Uninitialized_default_fill_n1@PAV?$_Flist_iterator@V?$_Split_order_list_value@U?$pair@QAVISteamRemoteStorage@@PAVIWrapSteamRemoteStorage@@@std@@V?$allocator@U?$pair@QAVISteamRemoteStorage@@PAVIWrapSteamRemoteStorage@@@std@@@2@@details@Concurrency@@@std@@IV?$allocator@V?$_Flist_iterator@V?$_Split_order_list_value@U?$pair@QAVISteamRemoteStorage@@PAVIWrapSteamRemoteStorage@@@std@@V?$allocator@U?$pair@QAVISteamRemoteStorage@@PAVIWrapSteamRemoteStorage@@@std@@@2@@details@Concurrency@@@std@@@2@@std@@YAPAV?$_Flist_iterator@V?$_Split_order_list_value@U?$pair@QAVISteamRemoteStorage@@PAVIWrapSteamRemoteStorage@@@std@@V?$allocator@U?$pair@QAVISteamRemoteStorage@@PAVIWrapSteamRemoteStorage@@@std@@@2@@details@Concurrency@@@0@PAV10@IAAU?$_Wrap_alloc@V?$allocator@V?$_Flist_iterator@V?$_Split_order_list_value@U?$pair@QAVISteamRemoteStorage@@PAVIWrapSteamRemoteStorage@@@std@@V?$allocator@U?$pair@QAVISteamRemoteStorage@@PAVIWrapSteamRemoteStorage@@@std@@@2@@details@Concurrency@@@std@@@std@@@0@U?$integral_constant@_N$0A@@0@@Z PROC ; std::_Uninitialized_default_fill_n1<std::_Flist_iterator<Concurrency::details::_Split_order_list_value<std::pair<ISteamRemoteStorage * const,IWrapSteamRemoteStorage *>,std::allocator<std::pair<ISteamRemoteStorage * const,IWrapSteamRemoteStorage *> > > > *,unsigned int,std::allocator<std::_Flist_iterator<Concurrency::details::_Split_order_list_value<std::pair<ISteamRemoteStorage * const,IWrapSteamRemoteStorage *>,std::allocator<std::pair<ISteamRemoteStorage * const,IWrapSteamRemoteStorage *> > > > > >, COMDAT

; 228  : 	{	// value-initialize _Count objects to raw _First, using _Al, no special optimization

	npad	2
	push	ebp
	mov	ebp, esp

; 232  : 	for (; 0 < _Count; --_Count, (void)++_First)

	mov	ecx, DWORD PTR __Count$[ebp]
	mov	eax, DWORD PTR __First$[ebp]
	test	ecx, ecx
	je	SHORT $LN3@Uninitiali
	npad	1
$LL4@Uninitiali:
; File c:\program files (x86)\microsoft visual studio\2017\community\vc\tools\msvc\14.10.25017\include\xmemory0

; 840  : 		::new ((void *)_Ptr) _Objty(_STD forward<_Types>(_Args)...);

	test	eax, eax
	je	SHORT $LN19@Uninitiali
; File c:\program files (x86)\microsoft visual studio\2017\community\vc\tools\msvc\14.10.25017\include\forward_list

; 38   : 		: _Ptr()

	mov	DWORD PTR [eax], 0
$LN19@Uninitiali:
; File c:\program files (x86)\microsoft visual studio\2017\community\vc\tools\msvc\14.10.25017\include\xmemory

; 232  : 	for (; 0 < _Count; --_Count, (void)++_First)

	add	eax, 4
	sub	ecx, 1
	jne	SHORT $LL4@Uninitiali
$LN3@Uninitiali:

; 233  : 		{
; 234  : 		_Al.construct(_Unfancy(_First));
; 235  : 		}
; 236  : 
; 237  : 	_CATCH_ALL
; 238  : 	_Destroy_range(_Next, _First, _Al);
; 239  : 	_RERAISE;
; 240  : 	_CATCH_END
; 241  : 
; 242  : 	return (_First);
; 243  : 	}

	pop	ebp
	ret	0
??$_Uninitialized_default_fill_n1@PAV?$_Flist_iterator@V?$_Split_order_list_value@U?$pair@QAVISteamRemoteStorage@@PAVIWrapSteamRemoteStorage@@@std@@V?$allocator@U?$pair@QAVISteamRemoteStorage@@PAVIWrapSteamRemoteStorage@@@std@@@2@@details@Concurrency@@@std@@IV?$allocator@V?$_Flist_iterator@V?$_Split_order_list_value@U?$pair@QAVISteamRemoteStorage@@PAVIWrapSteamRemoteStorage@@@std@@V?$allocator@U?$pair@QAVISteamRemoteStorage@@PAVIWrapSteamRemoteStorage@@@std@@@2@@details@Concurrency@@@std@@@2@@std@@YAPAV?$_Flist_iterator@V?$_Split_order_list_value@U?$pair@QAVISteamRemoteStorage@@PAVIWrapSteamRemoteStorage@@@std@@V?$allocator@U?$pair@QAVISteamRemoteStorage@@PAVIWrapSteamRemoteStorage@@@std@@@2@@details@Concurrency@@@0@PAV10@IAAU?$_Wrap_alloc@V?$allocator@V?$_Flist_iterator@V?$_Split_order_list_value@U?$pair@QAVISteamRemoteStorage@@PAVIWrapSteamRemoteStorage@@@std@@V?$allocator@U?$pair@QAVISteamRemoteStorage@@PAVIWrapSteamRemoteStorage@@@std@@@2@@details@Concurrency@@@std@@@std@@@0@U?$integral_constant@_N$0A@@0@@Z ENDP ; std::_Uninitialized_default_fill_n1<std::_Flist_iterator<Concurrency::details::_Split_order_list_value<std::pair<ISteamRemoteStorage * const,IWrapSteamRemoteStorage *>,std::allocator<std::pair<ISteamRemoteStorage * const,IWrapSteamRemoteStorage *> > > > *,unsigned int,std::allocator<std::_Flist_iterator<Concurrency::details::_Split_order_list_value<std::pair<ISteamRemoteStorage * const,IWrapSteamRemoteStorage *>,std::allocator<std::pair<ISteamRemoteStorage * const,IWrapSteamRemoteStorage *> > > > > >
_TEXT	ENDS
; Function compile flags: /Ogtp
; File c:\program files (x86)\microsoft visual studio\2017\community\vc\tools\msvc\14.10.25017\include\xstddef
;	COMDAT ??$_Unfancy@V?$_Flist_iterator@V?$_Split_order_list_value@U?$pair@QAVISteamRemoteStorage@@PAVIWrapSteamRemoteStorage@@@std@@V?$allocator@U?$pair@QAVISteamRemoteStorage@@PAVIWrapSteamRemoteStorage@@@std@@@2@@details@Concurrency@@@std@@@std@@YAPAV?$_Flist_iterator@V?$_Split_order_list_value@U?$pair@QAVISteamRemoteStorage@@PAVIWrapSteamRemoteStorage@@@std@@V?$allocator@U?$pair@QAVISteamRemoteStorage@@PAVIWrapSteamRemoteStorage@@@std@@@2@@details@Concurrency@@@0@PAV10@@Z
_TEXT	SEGMENT
__Ptr$ = 8						; size = 4
??$_Unfancy@V?$_Flist_iterator@V?$_Split_order_list_value@U?$pair@QAVISteamRemoteStorage@@PAVIWrapSteamRemoteStorage@@@std@@V?$allocator@U?$pair@QAVISteamRemoteStorage@@PAVIWrapSteamRemoteStorage@@@std@@@2@@details@Concurrency@@@std@@@std@@YAPAV?$_Flist_iterator@V?$_Split_order_list_value@U?$pair@QAVISteamRemoteStorage@@PAVIWrapSteamRemoteStorage@@@std@@V?$allocator@U?$pair@QAVISteamRemoteStorage@@PAVIWrapSteamRemoteStorage@@@std@@@2@@details@Concurrency@@@0@PAV10@@Z PROC ; std::_Unfancy<std::_Flist_iterator<Concurrency::details::_Split_order_list_value<std::pair<ISteamRemoteStorage * const,IWrapSteamRemoteStorage *>,std::allocator<std::pair<ISteamRemoteStorage * const,IWrapSteamRemoteStorage *> > > > >, COMDAT

; 642  : 	{	// do nothing for plain pointers

	npad	2
	push	ebp
	mov	ebp, esp

; 643  : 	return (_Ptr);

	mov	eax, DWORD PTR __Ptr$[ebp]

; 644  : 	}

	pop	ebp
	ret	0
??$_Unfancy@V?$_Flist_iterator@V?$_Split_order_list_value@U?$pair@QAVISteamRemoteStorage@@PAVIWrapSteamRemoteStorage@@@std@@V?$allocator@U?$pair@QAVISteamRemoteStorage@@PAVIWrapSteamRemoteStorage@@@std@@@2@@details@Concurrency@@@std@@@std@@YAPAV?$_Flist_iterator@V?$_Split_order_list_value@U?$pair@QAVISteamRemoteStorage@@PAVIWrapSteamRemoteStorage@@@std@@V?$allocator@U?$pair@QAVISteamRemoteStorage@@PAVIWrapSteamRemoteStorage@@@std@@@2@@details@Concurrency@@@0@PAV10@@Z ENDP ; std::_Unfancy<std::_Flist_iterator<Concurrency::details::_Split_order_list_value<std::pair<ISteamRemoteStorage * const,IWrapSteamRemoteStorage *>,std::allocator<std::pair<ISteamRemoteStorage * const,IWrapSteamRemoteStorage *> > > > >
_TEXT	ENDS
; Function compile flags: /Ogtp
; File c:\program files (x86)\microsoft visual studio\2017\community\vc\tools\msvc\14.10.25017\include\type_traits
;	COMDAT ??$forward@AAV?$allocator@V?$_Flist_iterator@V?$_Split_order_list_value@U?$pair@QAVISteamRemoteStorage@@PAVIWrapSteamRemoteStorage@@@std@@V?$allocator@U?$pair@QAVISteamRemoteStorage@@PAVIWrapSteamRemoteStorage@@@std@@@2@@details@Concurrency@@@std@@@std@@@std@@YAAAV?$allocator@V?$_Flist_iterator@V?$_Split_order_list_value@U?$pair@QAVISteamRemoteStorage@@PAVIWrapSteamRemoteStorage@@@std@@V?$allocator@U?$pair@QAVISteamRemoteStorage@@PAVIWrapSteamRemoteStorage@@@std@@@2@@details@Concurrency@@@std@@@0@AAV10@@Z
_TEXT	SEGMENT
__Arg$ = 8						; size = 4
??$forward@AAV?$allocator@V?$_Flist_iterator@V?$_Split_order_list_value@U?$pair@QAVISteamRemoteStorage@@PAVIWrapSteamRemoteStorage@@@std@@V?$allocator@U?$pair@QAVISteamRemoteStorage@@PAVIWrapSteamRemoteStorage@@@std@@@2@@details@Concurrency@@@std@@@std@@@std@@YAAAV?$allocator@V?$_Flist_iterator@V?$_Split_order_list_value@U?$pair@QAVISteamRemoteStorage@@PAVIWrapSteamRemoteStorage@@@std@@V?$allocator@U?$pair@QAVISteamRemoteStorage@@PAVIWrapSteamRemoteStorage@@@std@@@2@@details@Concurrency@@@std@@@0@AAV10@@Z PROC ; std::forward<std::allocator<std::_Flist_iterator<Concurrency::details::_Split_order_list_value<std::pair<ISteamRemoteStorage * const,IWrapSteamRemoteStorage *>,std::allocator<std::pair<ISteamRemoteStorage * const,IWrapSteamRemoteStorage *> > > > > &>, COMDAT

; 1334 : 	{	// forward an lvalue as either an lvalue or an rvalue

	npad	2
	push	ebp
	mov	ebp, esp

; 1335 : 	return (static_cast<_Ty&&>(_Arg));

	mov	eax, DWORD PTR __Arg$[ebp]

; 1336 : 	}

	pop	ebp
	ret	0
??$forward@AAV?$allocator@V?$_Flist_iterator@V?$_Split_order_list_value@U?$pair@QAVISteamRemoteStorage@@PAVIWrapSteamRemoteStorage@@@std@@V?$allocator@U?$pair@QAVISteamRemoteStorage@@PAVIWrapSteamRemoteStorage@@@std@@@2@@details@Concurrency@@@std@@@std@@@std@@YAAAV?$allocator@V?$_Flist_iterator@V?$_Split_order_list_value@U?$pair@QAVISteamRemoteStorage@@PAVIWrapSteamRemoteStorage@@@std@@V?$allocator@U?$pair@QAVISteamRemoteStorage@@PAVIWrapSteamRemoteStorage@@@std@@@2@@details@Concurrency@@@std@@@0@AAV10@@Z ENDP ; std::forward<std::allocator<std::_Flist_iterator<Concurrency::details::_Split_order_list_value<std::pair<ISteamRemoteStorage * const,IWrapSteamRemoteStorage *>,std::allocator<std::pair<ISteamRemoteStorage * const,IWrapSteamRemoteStorage *> > > > > &>
_TEXT	ENDS
; Function compile flags: /Ogtp
; File c:\program files (x86)\microsoft visual studio\2017\community\vc\tools\msvc\14.10.25017\include\utility
;	COMDAT ??$?0V?$_Solist_iterator@V?$_Split_order_list_value@U?$pair@QAVISteamRemoteStorage@@PAVIWrapSteamRemoteStorage@@@std@@V?$allocator@U?$pair@QAVISteamRemoteStorage@@PAVIWrapSteamRemoteStorage@@@std@@@2@@details@Concurrency@@@details@Concurrency@@_NX$0A@@?$pair@V?$_Solist_iterator@V?$_Split_order_list_value@U?$pair@QAVISteamRemoteStorage@@PAVIWrapSteamRemoteStorage@@@std@@V?$allocator@U?$pair@QAVISteamRemoteStorage@@PAVIWrapSteamRemoteStorage@@@std@@@2@@details@Concurrency@@@details@Concurrency@@_N@std@@QAE@$$QAV?$_Solist_iterator@V?$_Split_order_list_value@U?$pair@QAVISteamRemoteStorage@@PAVIWrapSteamRemoteStorage@@@std@@V?$allocator@U?$pair@QAVISteamRemoteStorage@@PAVIWrapSteamRemoteStorage@@@std@@@2@@details@Concurrency@@@details@Concurrency@@$$QA_N@Z
_TEXT	SEGMENT
__Val1$ = 8						; size = 4
__Val2$ = 12						; size = 4
??$?0V?$_Solist_iterator@V?$_Split_order_list_value@U?$pair@QAVISteamRemoteStorage@@PAVIWrapSteamRemoteStorage@@@std@@V?$allocator@U?$pair@QAVISteamRemoteStorage@@PAVIWrapSteamRemoteStorage@@@std@@@2@@details@Concurrency@@@details@Concurrency@@_NX$0A@@?$pair@V?$_Solist_iterator@V?$_Split_order_list_value@U?$pair@QAVISteamRemoteStorage@@PAVIWrapSteamRemoteStorage@@@std@@V?$allocator@U?$pair@QAVISteamRemoteStorage@@PAVIWrapSteamRemoteStorage@@@std@@@2@@details@Concurrency@@@details@Concurrency@@_N@std@@QAE@$$QAV?$_Solist_iterator@V?$_Split_order_list_value@U?$pair@QAVISteamRemoteStorage@@PAVIWrapSteamRemoteStorage@@@std@@V?$allocator@U?$pair@QAVISteamRemoteStorage@@PAVIWrapSteamRemoteStorage@@@std@@@2@@details@Concurrency@@@details@Concurrency@@$$QA_N@Z PROC ; std::pair<Concurrency::details::_Solist_iterator<Concurrency::details::_Split_order_list_value<std::pair<ISteamRemoteStorage * const,IWrapSteamRemoteStorage *>,std::allocator<std::pair<ISteamRemoteStorage * const,IWrapSteamRemoteStorage *> > > >,bool>::pair<Concurrency::details::_Solist_iterator<Concurrency::details::_Split_order_list_value<std::pair<ISteamRemoteStorage * const,IWrapSteamRemoteStorage *>,std::allocator<std::pair<ISteamRemoteStorage * const,IWrapSteamRemoteStorage *> > > >,bool><Concurrency::details::_Solist_iterator<Concurrency::details::_Split_order_list_value<std::pair<ISteamRemoteStorage * const,IWrapSteamRemoteStorage *>,std::allocator<std::pair<ISteamRemoteStorage * const,IWrapSteamRemoteStorage *> > > >,bool,void,0>, COMDAT
; _this$ = ecx

; 189  : 		{	// construct from moved values

	npad	2
	push	ebp
	mov	ebp, esp

; 187  : 		: first(_STD forward<_Other1>(_Val1)),

	mov	eax, DWORD PTR __Val1$[ebp]
	mov	eax, DWORD PTR [eax]
	mov	DWORD PTR [ecx], eax

; 188  : 				second(_STD forward<_Other2>(_Val2))

	mov	eax, DWORD PTR __Val2$[ebp]
	mov	al, BYTE PTR [eax]
	mov	BYTE PTR [ecx+4], al

; 190  : 		}

	mov	eax, ecx
	pop	ebp
	ret	8
??$?0V?$_Solist_iterator@V?$_Split_order_list_value@U?$pair@QAVISteamRemoteStorage@@PAVIWrapSteamRemoteStorage@@@std@@V?$allocator@U?$pair@QAVISteamRemoteStorage@@PAVIWrapSteamRemoteStorage@@@std@@@2@@details@Concurrency@@@details@Concurrency@@_NX$0A@@?$pair@V?$_Solist_iterator@V?$_Split_order_list_value@U?$pair@QAVISteamRemoteStorage@@PAVIWrapSteamRemoteStorage@@@std@@V?$allocator@U?$pair@QAVISteamRemoteStorage@@PAVIWrapSteamRemoteStorage@@@std@@@2@@details@Concurrency@@@details@Concurrency@@_N@std@@QAE@$$QAV?$_Solist_iterator@V?$_Split_order_list_value@U?$pair@QAVISteamRemoteStorage@@PAVIWrapSteamRemoteStorage@@@std@@V?$allocator@U?$pair@QAVISteamRemoteStorage@@PAVIWrapSteamRemoteStorage@@@std@@@2@@details@Concurrency@@@details@Concurrency@@$$QA_N@Z ENDP ; std::pair<Concurrency::details::_Solist_iterator<Concurrency::details::_Split_order_list_value<std::pair<ISteamRemoteStorage * const,IWrapSteamRemoteStorage *>,std::allocator<std::pair<ISteamRemoteStorage * const,IWrapSteamRemoteStorage *> > > >,bool>::pair<Concurrency::details::_Solist_iterator<Concurrency::details::_Split_order_list_value<std::pair<ISteamRemoteStorage * const,IWrapSteamRemoteStorage *>,std::allocator<std::pair<ISteamRemoteStorage * const,IWrapSteamRemoteStorage *> > > >,bool><Concurrency::details::_Solist_iterator<Concurrency::details::_Split_order_list_value<std::pair<ISteamRemoteStorage * const,IWrapSteamRemoteStorage *>,std::allocator<std::pair<ISteamRemoteStorage * const,IWrapSteamRemoteStorage *> > > >,bool,void,0>
_TEXT	ENDS
; Function compile flags: /Ogtp
; File c:\program files (x86)\microsoft visual studio\2017\community\vc\tools\msvc\14.10.25017\include\internal_split_ordered_list.h
; File c:\program files (x86)\microsoft visual studio\2017\community\vc\tools\msvc\14.10.25017\include\xmemory0
; File c:\program files (x86)\microsoft visual studio\2017\community\vc\tools\msvc\14.10.25017\include\internal_split_ordered_list.h
; File c:\program files (x86)\microsoft visual studio\2017\community\vc\tools\msvc\14.10.25017\include\xmemory0
; File c:\program files (x86)\microsoft visual studio\2017\community\vc\tools\msvc\14.10.25017\include\utility
; File c:\program files (x86)\microsoft visual studio\2017\community\vc\tools\msvc\14.10.25017\include\internal_split_ordered_list.h
;	COMDAT ??$_Buynode@U?$pair@PAVISteamRemoteStorage@@PAVIWrapSteamRemoteStorage@@@std@@@?$_Split_order_list_value@U?$pair@QAVISteamRemoteStorage@@PAVIWrapSteamRemoteStorage@@@std@@V?$allocator@U?$pair@QAVISteamRemoteStorage@@PAVIWrapSteamRemoteStorage@@@std@@@2@@details@Concurrency@@QAEPAU_Node@?$_Split_order_list_node@U?$pair@QAVISteamRemoteStorage@@PAVIWrapSteamRemoteStorage@@@std@@V?$allocator@U?$pair@QAVISteamRemoteStorage@@PAVIWrapSteamRemoteStorage@@@std@@@2@@12@I$$QAU?$pair@PAVISteamRemoteStorage@@PAVIWrapSteamRemoteStorage@@@std@@@Z
_TEXT	SEGMENT
__Order_key$ = 8					; size = 4
__Value$ = 12						; size = 4
??$_Buynode@U?$pair@PAVISteamRemoteStorage@@PAVIWrapSteamRemoteStorage@@@std@@@?$_Split_order_list_value@U?$pair@QAVISteamRemoteStorage@@PAVIWrapSteamRemoteStorage@@@std@@V?$allocator@U?$pair@QAVISteamRemoteStorage@@PAVIWrapSteamRemoteStorage@@@std@@@2@@details@Concurrency@@QAEPAU_Node@?$_Split_order_list_node@U?$pair@QAVISteamRemoteStorage@@PAVIWrapSteamRemoteStorage@@@std@@V?$allocator@U?$pair@QAVISteamRemoteStorage@@PAVIWrapSteamRemoteStorage@@@std@@@2@@12@I$$QAU?$pair@PAVISteamRemoteStorage@@PAVIWrapSteamRemoteStorage@@@std@@@Z PROC ; Concurrency::details::_Split_order_list_value<std::pair<ISteamRemoteStorage * const,IWrapSteamRemoteStorage *>,std::allocator<std::pair<ISteamRemoteStorage * const,IWrapSteamRemoteStorage *> > >::_Buynode<std::pair<ISteamRemoteStorage *,IWrapSteamRemoteStorage *> >, COMDAT
; _this$ = ecx

; 323  :     {

	npad	2
	push	ebp
	mov	ebp, esp
; File c:\program files (x86)\microsoft visual studio\2017\community\vc\tools\msvc\14.10.25017\include\xmemory0

; 87   : 		_Ptr = ::operator new(_User_size);

	push	16					; 00000010H
	call	??2@YAPAXI@Z				; operator new
	mov	edx, eax
	add	esp, 4

; 88   : 		_SCL_SECURE_ALWAYS_VALIDATE(_Ptr != 0);

	test	edx, edx
	jne	SHORT $LN17@Buynode
	call	DWORD PTR __imp___invalid_parameter_noinfo_noreturn
$LN51@Buynode:
$LN17@Buynode:
	push	esi
; File c:\program files (x86)\microsoft visual studio\2017\community\vc\tools\msvc\14.10.25017\include\internal_split_ordered_list.h

; 358  :         return ((reference)(*_Pnode)._M_element);

	lea	esi, DWORD PTR [edx+4]
; File c:\program files (x86)\microsoft visual studio\2017\community\vc\tools\msvc\14.10.25017\include\xmemory0

; 840  : 		::new ((void *)_Ptr) _Objty(_STD forward<_Types>(_Args)...);

	test	esi, esi
	je	SHORT $LN31@Buynode
; File c:\program files (x86)\microsoft visual studio\2017\community\vc\tools\msvc\14.10.25017\include\utility

; 215  : 		: first(_STD forward<_Other1>(_Right.first)),

	mov	ecx, DWORD PTR __Value$[ebp]
	mov	eax, DWORD PTR [ecx]
	mov	DWORD PTR [esi], eax

; 216  : 			second(_STD forward<_Other2>(_Right.second))

	mov	eax, DWORD PTR [ecx+4]
	mov	DWORD PTR [esi+4], eax
$LN31@Buynode:
; File c:\program files (x86)\microsoft visual studio\2017\community\vc\tools\msvc\14.10.25017\include\internal_split_ordered_list.h

; 215  :             _M_order_key = _Order_key;

	mov	eax, DWORD PTR __Order_key$[ebp]
	mov	DWORD PTR [edx+12], eax

; 324  :         _Nodeptr _Pnode = this->_M_node_allocator.allocate(1);
; 325  : 
; 326  :         try
; 327  :         {
; 328  :             this->_M_value_allocator.construct(std::addressof(_Myval(_Pnode)), std::forward<_ValTy>(_Value));
; 329  :             _Pnode->_Init(_Order_key);
; 330  :         }
; 331  :         catch(...)
; 332  :         {
; 333  :             this->_M_node_allocator.deallocate(_Pnode, 1);
; 334  :             throw;
; 335  :         }
; 336  : 
; 337  :         return (_Pnode);

	mov	eax, edx

; 216  :             _M_next = NULL;

	mov	DWORD PTR [edx], 0
	pop	esi

; 338  :     }

	pop	ebp
	ret	8
$LN50@Buynode:
??$_Buynode@U?$pair@PAVISteamRemoteStorage@@PAVIWrapSteamRemoteStorage@@@std@@@?$_Split_order_list_value@U?$pair@QAVISteamRemoteStorage@@PAVIWrapSteamRemoteStorage@@@std@@V?$allocator@U?$pair@QAVISteamRemoteStorage@@PAVIWrapSteamRemoteStorage@@@std@@@2@@details@Concurrency@@QAEPAU_Node@?$_Split_order_list_node@U?$pair@QAVISteamRemoteStorage@@PAVIWrapSteamRemoteStorage@@@std@@V?$allocator@U?$pair@QAVISteamRemoteStorage@@PAVIWrapSteamRemoteStorage@@@std@@@2@@12@I$$QAU?$pair@PAVISteamRemoteStorage@@PAVIWrapSteamRemoteStorage@@@std@@@Z ENDP ; Concurrency::details::_Split_order_list_value<std::pair<ISteamRemoteStorage * const,IWrapSteamRemoteStorage *>,std::allocator<std::pair<ISteamRemoteStorage * const,IWrapSteamRemoteStorage *> > >::_Buynode<std::pair<ISteamRemoteStorage *,IWrapSteamRemoteStorage *> >
_TEXT	ENDS
; Function compile flags: /Ogtp
; File c:\program files (x86)\microsoft visual studio\2017\community\vc\tools\msvc\14.10.25017\include\type_traits
;	COMDAT ??$forward@U?$pair@PAVISteamRemoteStorage@@PAVIWrapSteamRemoteStorage@@@std@@@std@@YA$$QAU?$pair@PAVISteamRemoteStorage@@PAVIWrapSteamRemoteStorage@@@0@AAU10@@Z
_TEXT	SEGMENT
__Arg$ = 8						; size = 4
??$forward@U?$pair@PAVISteamRemoteStorage@@PAVIWrapSteamRemoteStorage@@@std@@@std@@YA$$QAU?$pair@PAVISteamRemoteStorage@@PAVIWrapSteamRemoteStorage@@@0@AAU10@@Z PROC ; std::forward<std::pair<ISteamRemoteStorage *,IWrapSteamRemoteStorage *> >, COMDAT

; 1334 : 	{	// forward an lvalue as either an lvalue or an rvalue

	npad	2
	push	ebp
	mov	ebp, esp

; 1335 : 	return (static_cast<_Ty&&>(_Arg));

	mov	eax, DWORD PTR __Arg$[ebp]

; 1336 : 	}

	pop	ebp
	ret	0
??$forward@U?$pair@PAVISteamRemoteStorage@@PAVIWrapSteamRemoteStorage@@@std@@@std@@YA$$QAU?$pair@PAVISteamRemoteStorage@@PAVIWrapSteamRemoteStorage@@@0@AAU10@@Z ENDP ; std::forward<std::pair<ISteamRemoteStorage *,IWrapSteamRemoteStorage *> >
_TEXT	ENDS
; Function compile flags: /Ogtp
; File c:\program files (x86)\microsoft visual studio\2017\community\vc\tools\msvc\14.10.25017\include\concurrent_unordered_map.h
;	COMDAT ??$_Key_function@PAVISteamRemoteStorage@@PAVIWrapSteamRemoteStorage@@@?$_Concurrent_unordered_map_traits@PAVISteamRemoteStorage@@PAVIWrapSteamRemoteStorage@@V?$_Hash_compare@PAVISteamRemoteStorage@@U?$hash@PAVISteamRemoteStorage@@@std@@U?$equal_to@PAVISteamRemoteStorage@@@3@@details@Concurrency@@V?$allocator@U?$pair@QAVISteamRemoteStorage@@PAVIWrapSteamRemoteStorage@@@std@@@std@@$0A@@details@Concurrency@@SAABQAVISteamRemoteStorage@@ABU?$pair@PAVISteamRemoteStorage@@PAVIWrapSteamRemoteStorage@@@std@@@Z
_TEXT	SEGMENT
__Value$ = 8						; size = 4
??$_Key_function@PAVISteamRemoteStorage@@PAVIWrapSteamRemoteStorage@@@?$_Concurrent_unordered_map_traits@PAVISteamRemoteStorage@@PAVIWrapSteamRemoteStorage@@V?$_Hash_compare@PAVISteamRemoteStorage@@U?$hash@PAVISteamRemoteStorage@@@std@@U?$equal_to@PAVISteamRemoteStorage@@@3@@details@Concurrency@@V?$allocator@U?$pair@QAVISteamRemoteStorage@@PAVIWrapSteamRemoteStorage@@@std@@@std@@$0A@@details@Concurrency@@SAABQAVISteamRemoteStorage@@ABU?$pair@PAVISteamRemoteStorage@@PAVIWrapSteamRemoteStorage@@@std@@@Z PROC ; Concurrency::details::_Concurrent_unordered_map_traits<ISteamRemoteStorage *,IWrapSteamRemoteStorage *,Concurrency::details::_Hash_compare<ISteamRemoteStorage *,std::hash<ISteamRemoteStorage *>,std::equal_to<ISteamRemoteStorage *> >,std::allocator<std::pair<ISteamRemoteStorage * const,IWrapSteamRemoteStorage *> >,0>::_Key_function<ISteamRemoteStorage *,IWrapSteamRemoteStorage *>, COMDAT

; 84   :     {

	npad	2
	push	ebp
	mov	ebp, esp

; 85   :         return (_Value.first);

	mov	eax, DWORD PTR __Value$[ebp]

; 86   :     }

	pop	ebp
	ret	0
??$_Key_function@PAVISteamRemoteStorage@@PAVIWrapSteamRemoteStorage@@@?$_Concurrent_unordered_map_traits@PAVISteamRemoteStorage@@PAVIWrapSteamRemoteStorage@@V?$_Hash_compare@PAVISteamRemoteStorage@@U?$hash@PAVISteamRemoteStorage@@@std@@U?$equal_to@PAVISteamRemoteStorage@@@3@@details@Concurrency@@V?$allocator@U?$pair@QAVISteamRemoteStorage@@PAVIWrapSteamRemoteStorage@@@std@@@std@@$0A@@details@Concurrency@@SAABQAVISteamRemoteStorage@@ABU?$pair@PAVISteamRemoteStorage@@PAVIWrapSteamRemoteStorage@@@std@@@Z ENDP ; Concurrency::details::_Concurrent_unordered_map_traits<ISteamRemoteStorage *,IWrapSteamRemoteStorage *,Concurrency::details::_Hash_compare<ISteamRemoteStorage *,std::hash<ISteamRemoteStorage *>,std::equal_to<ISteamRemoteStorage *> >,std::allocator<std::pair<ISteamRemoteStorage * const,IWrapSteamRemoteStorage *> >,0>::_Key_function<ISteamRemoteStorage *,IWrapSteamRemoteStorage *>
_TEXT	ENDS
; Function compile flags: /Ogtp
; File c:\program files (x86)\microsoft visual studio\2017\community\vc\tools\msvc\14.10.25017\include\utility
;	COMDAT ??$?0ABQAVISteamRemoteStorage@@PAVIWrapSteamRemoteStorage@@X$0A@@?$pair@PAVISteamRemoteStorage@@PAVIWrapSteamRemoteStorage@@@std@@QAE@ABQAVISteamRemoteStorage@@$$QAPAVIWrapSteamRemoteStorage@@@Z
_TEXT	SEGMENT
__Val1$ = 8						; size = 4
__Val2$ = 12						; size = 4
??$?0ABQAVISteamRemoteStorage@@PAVIWrapSteamRemoteStorage@@X$0A@@?$pair@PAVISteamRemoteStorage@@PAVIWrapSteamRemoteStorage@@@std@@QAE@ABQAVISteamRemoteStorage@@$$QAPAVIWrapSteamRemoteStorage@@@Z PROC ; std::pair<ISteamRemoteStorage *,IWrapSteamRemoteStorage *>::pair<ISteamRemoteStorage *,IWrapSteamRemoteStorage *><ISteamRemoteStorage * const &,IWrapSteamRemoteStorage *,void,0>, COMDAT
; _this$ = ecx

; 189  : 		{	// construct from moved values

	npad	2
	push	ebp
	mov	ebp, esp

; 187  : 		: first(_STD forward<_Other1>(_Val1)),

	mov	eax, DWORD PTR __Val1$[ebp]
	mov	eax, DWORD PTR [eax]
	mov	DWORD PTR [ecx], eax

; 188  : 				second(_STD forward<_Other2>(_Val2))

	mov	eax, DWORD PTR __Val2$[ebp]
	mov	eax, DWORD PTR [eax]
	mov	DWORD PTR [ecx+4], eax

; 190  : 		}

	mov	eax, ecx
	pop	ebp
	ret	8
??$?0ABQAVISteamRemoteStorage@@PAVIWrapSteamRemoteStorage@@X$0A@@?$pair@PAVISteamRemoteStorage@@PAVIWrapSteamRemoteStorage@@@std@@QAE@ABQAVISteamRemoteStorage@@$$QAPAVIWrapSteamRemoteStorage@@@Z ENDP ; std::pair<ISteamRemoteStorage *,IWrapSteamRemoteStorage *>::pair<ISteamRemoteStorage *,IWrapSteamRemoteStorage *><ISteamRemoteStorage * const &,IWrapSteamRemoteStorage *,void,0>
_TEXT	ENDS
; Function compile flags: /Ogtp
; File c:\program files (x86)\microsoft visual studio\2017\community\vc\tools\msvc\14.10.25017\include\type_traits
;	COMDAT ??$forward@PAVIWrapSteamRemoteStorage@@@std@@YA$$QAPAVIWrapSteamRemoteStorage@@AAPAV1@@Z
_TEXT	SEGMENT
__Arg$ = 8						; size = 4
??$forward@PAVIWrapSteamRemoteStorage@@@std@@YA$$QAPAVIWrapSteamRemoteStorage@@AAPAV1@@Z PROC ; std::forward<IWrapSteamRemoteStorage *>, COMDAT

; 1334 : 	{	// forward an lvalue as either an lvalue or an rvalue

	npad	2
	push	ebp
	mov	ebp, esp

; 1335 : 	return (static_cast<_Ty&&>(_Arg));

	mov	eax, DWORD PTR __Arg$[ebp]

; 1336 : 	}

	pop	ebp
	ret	0
??$forward@PAVIWrapSteamRemoteStorage@@@std@@YA$$QAPAVIWrapSteamRemoteStorage@@AAPAV1@@Z ENDP ; std::forward<IWrapSteamRemoteStorage *>
_TEXT	ENDS
; Function compile flags: /Ogtp
; File c:\program files (x86)\microsoft visual studio\2017\community\vc\tools\msvc\14.10.25017\include\type_traits
;	COMDAT ??$forward@ABQAVISteamRemoteStorage@@@std@@YAABQAVISteamRemoteStorage@@ABQAV1@@Z
_TEXT	SEGMENT
__Arg$ = 8						; size = 4
??$forward@ABQAVISteamRemoteStorage@@@std@@YAABQAVISteamRemoteStorage@@ABQAV1@@Z PROC ; std::forward<ISteamRemoteStorage * const &>, COMDAT

; 1334 : 	{	// forward an lvalue as either an lvalue or an rvalue

	npad	2
	push	ebp
	mov	ebp, esp

; 1335 : 	return (static_cast<_Ty&&>(_Arg));

	mov	eax, DWORD PTR __Arg$[ebp]

; 1336 : 	}

	pop	ebp
	ret	0
??$forward@ABQAVISteamRemoteStorage@@@std@@YAABQAVISteamRemoteStorage@@ABQAV1@@Z ENDP ; std::forward<ISteamRemoteStorage * const &>
_TEXT	ENDS
; Function compile flags: /Ogtp
; File c:\program files (x86)\microsoft visual studio\2017\community\vc\tools\msvc\14.10.25017\include\xmemory0
;	COMDAT ??$?0U?$pair@QAVISteamRemoteStorage@@PAVIWrapSteamRemoteStorage@@@std@@@?$allocator@U_Node@?$_Split_order_list_node@U?$pair@QAVISteamRemoteStorage@@PAVIWrapSteamRemoteStorage@@@std@@V?$allocator@U?$pair@QAVISteamRemoteStorage@@PAVIWrapSteamRemoteStorage@@@std@@@2@@details@Concurrency@@@std@@QAE@ABV?$allocator@U?$pair@QAVISteamRemoteStorage@@PAVIWrapSteamRemoteStorage@@@std@@@1@@Z
_TEXT	SEGMENT
___formal$ = 8						; size = 4
??$?0U?$pair@QAVISteamRemoteStorage@@PAVIWrapSteamRemoteStorage@@@std@@@?$allocator@U_Node@?$_Split_order_list_node@U?$pair@QAVISteamRemoteStorage@@PAVIWrapSteamRemoteStorage@@@std@@V?$allocator@U?$pair@QAVISteamRemoteStorage@@PAVIWrapSteamRemoteStorage@@@std@@@2@@details@Concurrency@@@std@@QAE@ABV?$allocator@U?$pair@QAVISteamRemoteStorage@@PAVIWrapSteamRemoteStorage@@@std@@@1@@Z PROC ; std::allocator<Concurrency::details::_Split_order_list_node<std::pair<ISteamRemoteStorage * const,IWrapSteamRemoteStorage *>,std::allocator<std::pair<ISteamRemoteStorage * const,IWrapSteamRemoteStorage *> > >::_Node>::allocator<Concurrency::details::_Split_order_list_node<std::pair<ISteamRemoteStorage * const,IWrapSteamRemoteStorage *>,std::allocator<std::pair<ISteamRemoteStorage * const,IWrapSteamRemoteStorage *> > >::_Node><std::pair<ISteamRemoteStorage * const,IWrapSteamRemoteStorage *> >, COMDAT
; _this$ = ecx

; 813  : 		}

	mov	eax, ecx
	ret	4
??$?0U?$pair@QAVISteamRemoteStorage@@PAVIWrapSteamRemoteStorage@@@std@@@?$allocator@U_Node@?$_Split_order_list_node@U?$pair@QAVISteamRemoteStorage@@PAVIWrapSteamRemoteStorage@@@std@@V?$allocator@U?$pair@QAVISteamRemoteStorage@@PAVIWrapSteamRemoteStorage@@@std@@@2@@details@Concurrency@@@std@@QAE@ABV?$allocator@U?$pair@QAVISteamRemoteStorage@@PAVIWrapSteamRemoteStorage@@@std@@@1@@Z ENDP ; std::allocator<Concurrency::details::_Split_order_list_node<std::pair<ISteamRemoteStorage * const,IWrapSteamRemoteStorage *>,std::allocator<std::pair<ISteamRemoteStorage * const,IWrapSteamRemoteStorage *> > >::_Node>::allocator<Concurrency::details::_Split_order_list_node<std::pair<ISteamRemoteStorage * const,IWrapSteamRemoteStorage *>,std::allocator<std::pair<ISteamRemoteStorage * const,IWrapSteamRemoteStorage *> > >::_Node><std::pair<ISteamRemoteStorage * const,IWrapSteamRemoteStorage *> >
_TEXT	ENDS
; Function compile flags: /Ogtp
; File c:\program files (x86)\microsoft visual studio\2017\community\vc\tools\msvc\14.10.25017\include\xmemory
;	COMDAT ??$_Uninitialized_default_fill_n@PAV?$_Flist_iterator@V?$_Split_order_list_value@U?$pair@QAVISteamRemoteStorage@@PAVIWrapSteamRemoteStorage@@@std@@V?$allocator@U?$pair@QAVISteamRemoteStorage@@PAVIWrapSteamRemoteStorage@@@std@@@2@@details@Concurrency@@@std@@IV?$allocator@V?$_Flist_iterator@V?$_Split_order_list_value@U?$pair@QAVISteamRemoteStorage@@PAVIWrapSteamRemoteStorage@@@std@@V?$allocator@U?$pair@QAVISteamRemoteStorage@@PAVIWrapSteamRemoteStorage@@@std@@@2@@details@Concurrency@@@std@@@2@@std@@YAPAV?$_Flist_iterator@V?$_Split_order_list_value@U?$pair@QAVISteamRemoteStorage@@PAVIWrapSteamRemoteStorage@@@std@@V?$allocator@U?$pair@QAVISteamRemoteStorage@@PAVIWrapSteamRemoteStorage@@@std@@@2@@details@Concurrency@@@0@PAV10@IAAU?$_Wrap_alloc@V?$allocator@V?$_Flist_iterator@V?$_Split_order_list_value@U?$pair@QAVISteamRemoteStorage@@PAVIWrapSteamRemoteStorage@@@std@@V?$allocator@U?$pair@QAVISteamRemoteStorage@@PAVIWrapSteamRemoteStorage@@@std@@@2@@details@Concurrency@@@std@@@std@@@0@@Z
_TEXT	SEGMENT
$T1 = -4						; size = 1
__First$ = 8						; size = 4
__Count$ = 12						; size = 4
__Al$ = 16						; size = 4
??$_Uninitialized_default_fill_n@PAV?$_Flist_iterator@V?$_Split_order_list_value@U?$pair@QAVISteamRemoteStorage@@PAVIWrapSteamRemoteStorage@@@std@@V?$allocator@U?$pair@QAVISteamRemoteStorage@@PAVIWrapSteamRemoteStorage@@@std@@@2@@details@Concurrency@@@std@@IV?$allocator@V?$_Flist_iterator@V?$_Split_order_list_value@U?$pair@QAVISteamRemoteStorage@@PAVIWrapSteamRemoteStorage@@@std@@V?$allocator@U?$pair@QAVISteamRemoteStorage@@PAVIWrapSteamRemoteStorage@@@std@@@2@@details@Concurrency@@@std@@@2@@std@@YAPAV?$_Flist_iterator@V?$_Split_order_list_value@U?$pair@QAVISteamRemoteStorage@@PAVIWrapSteamRemoteStorage@@@std@@V?$allocator@U?$pair@QAVISteamRemoteStorage@@PAVIWrapSteamRemoteStorage@@@std@@@2@@details@Concurrency@@@0@PAV10@IAAU?$_Wrap_alloc@V?$allocator@V?$_Flist_iterator@V?$_Split_order_list_value@U?$pair@QAVISteamRemoteStorage@@PAVIWrapSteamRemoteStorage@@@std@@V?$allocator@U?$pair@QAVISteamRemoteStorage@@PAVIWrapSteamRemoteStorage@@@std@@@2@@details@Concurrency@@@std@@@std@@@0@@Z PROC ; std::_Uninitialized_default_fill_n<std::_Flist_iterator<Concurrency::details::_Split_order_list_value<std::pair<ISteamRemoteStorage * const,IWrapSteamRemoteStorage *>,std::allocator<std::pair<ISteamRemoteStorage * const,IWrapSteamRemoteStorage *> > > > *,unsigned int,std::allocator<std::_Flist_iterator<Concurrency::details::_Split_order_list_value<std::pair<ISteamRemoteStorage * const,IWrapSteamRemoteStorage *>,std::allocator<std::pair<ISteamRemoteStorage * const,IWrapSteamRemoteStorage *> > > > > >, COMDAT

; 260  : 	{	// value-initialize _Count objects to raw _First, using _Al

	npad	2
	push	ebp
	mov	ebp, esp
	push	ecx

; 261  : 	typedef _Iter_value_t<_FwdIt> _Ty;
; 262  : 	return (_Uninitialized_default_fill_n1(_First, _Count, _Al,

	push	DWORD PTR $T1[ebp]
	push	DWORD PTR __Al$[ebp]
	push	DWORD PTR __Count$[ebp]
	push	DWORD PTR __First$[ebp]
	call	??$_Uninitialized_default_fill_n1@PAV?$_Flist_iterator@V?$_Split_order_list_value@U?$pair@QAVISteamRemoteStorage@@PAVIWrapSteamRemoteStorage@@@std@@V?$allocator@U?$pair@QAVISteamRemoteStorage@@PAVIWrapSteamRemoteStorage@@@std@@@2@@details@Concurrency@@@std@@IV?$allocator@V?$_Flist_iterator@V?$_Split_order_list_value@U?$pair@QAVISteamRemoteStorage@@PAVIWrapSteamRemoteStorage@@@std@@V?$allocator@U?$pair@QAVISteamRemoteStorage@@PAVIWrapSteamRemoteStorage@@@std@@@2@@details@Concurrency@@@std@@@2@@std@@YAPAV?$_Flist_iterator@V?$_Split_order_list_value@U?$pair@QAVISteamRemoteStorage@@PAVIWrapSteamRemoteStorage@@@std@@V?$allocator@U?$pair@QAVISteamRemoteStorage@@PAVIWrapSteamRemoteStorage@@@std@@@2@@details@Concurrency@@@0@PAV10@IAAU?$_Wrap_alloc@V?$allocator@V?$_Flist_iterator@V?$_Split_order_list_value@U?$pair@QAVISteamRemoteStorage@@PAVIWrapSteamRemoteStorage@@@std@@V?$allocator@U?$pair@QAVISteamRemoteStorage@@PAVIWrapSteamRemoteStorage@@@std@@@2@@details@Concurrency@@@std@@@std@@@0@U?$integral_constant@_N$0A@@0@@Z ; std::_Uninitialized_default_fill_n1<std::_Flist_iterator<Concurrency::details::_Split_order_list_value<std::pair<ISteamRemoteStorage * const,IWrapSteamRemoteStorage *>,std::allocator<std::pair<ISteamRemoteStorage * const,IWrapSteamRemoteStorage *> > > > *,unsigned int,std::allocator<std::_Flist_iterator<Concurrency::details::_Split_order_list_value<std::pair<ISteamRemoteStorage * const,IWrapSteamRemoteStorage *>,std::allocator<std::pair<ISteamRemoteStorage * const,IWrapSteamRemoteStorage *> > > > > >
	add	esp, 16					; 00000010H

; 263  : 		_Conjunction_t<
; 264  : 			is_pointer<_FwdIt>,
; 265  : 			is_scalar<_Ty>,
; 266  : 			negation<is_volatile<_Ty>>,
; 267  : 			negation<is_member_pointer<_Ty>>,
; 268  : 			_Uses_default_construct<_Alloc, decltype(_Unfancy(_First))>>()));
; 269  : 	}

	mov	esp, ebp
	pop	ebp
	ret	0
??$_Uninitialized_default_fill_n@PAV?$_Flist_iterator@V?$_Split_order_list_value@U?$pair@QAVISteamRemoteStorage@@PAVIWrapSteamRemoteStorage@@@std@@V?$allocator@U?$pair@QAVISteamRemoteStorage@@PAVIWrapSteamRemoteStorage@@@std@@@2@@details@Concurrency@@@std@@IV?$allocator@V?$_Flist_iterator@V?$_Split_order_list_value@U?$pair@QAVISteamRemoteStorage@@PAVIWrapSteamRemoteStorage@@@std@@V?$allocator@U?$pair@QAVISteamRemoteStorage@@PAVIWrapSteamRemoteStorage@@@std@@@2@@details@Concurrency@@@std@@@2@@std@@YAPAV?$_Flist_iterator@V?$_Split_order_list_value@U?$pair@QAVISteamRemoteStorage@@PAVIWrapSteamRemoteStorage@@@std@@V?$allocator@U?$pair@QAVISteamRemoteStorage@@PAVIWrapSteamRemoteStorage@@@std@@@2@@details@Concurrency@@@0@PAV10@IAAU?$_Wrap_alloc@V?$allocator@V?$_Flist_iterator@V?$_Split_order_list_value@U?$pair@QAVISteamRemoteStorage@@PAVIWrapSteamRemoteStorage@@@std@@V?$allocator@U?$pair@QAVISteamRemoteStorage@@PAVIWrapSteamRemoteStorage@@@std@@@2@@details@Concurrency@@@std@@@std@@@0@@Z ENDP ; std::_Uninitialized_default_fill_n<std::_Flist_iterator<Concurrency::details::_Split_order_list_value<std::pair<ISteamRemoteStorage * const,IWrapSteamRemoteStorage *>,std::allocator<std::pair<ISteamRemoteStorage * const,IWrapSteamRemoteStorage *> > > > *,unsigned int,std::allocator<std::_Flist_iterator<Concurrency::details::_Split_order_list_value<std::pair<ISteamRemoteStorage * const,IWrapSteamRemoteStorage *>,std::allocator<std::pair<ISteamRemoteStorage * const,IWrapSteamRemoteStorage *> > > > > >
_TEXT	ENDS
; Function compile flags: /Ogtp
; File c:\program files (x86)\microsoft visual studio\2017\community\vc\tools\msvc\14.10.25017\include\xmemory0
;	COMDAT ??$?0AAV?$allocator@V?$_Flist_iterator@V?$_Split_order_list_value@U?$pair@QAVISteamRemoteStorage@@PAVIWrapSteamRemoteStorage@@@std@@V?$allocator@U?$pair@QAVISteamRemoteStorage@@PAVIWrapSteamRemoteStorage@@@std@@@2@@details@Concurrency@@@std@@@std@@@?$_Wrap_alloc@V?$allocator@V?$_Flist_iterator@V?$_Split_order_list_value@U?$pair@QAVISteamRemoteStorage@@PAVIWrapSteamRemoteStorage@@@std@@V?$allocator@U?$pair@QAVISteamRemoteStorage@@PAVIWrapSteamRemoteStorage@@@std@@@2@@details@Concurrency@@@std@@@std@@@std@@QAE@AAV?$allocator@V?$_Flist_iterator@V?$_Split_order_list_value@U?$pair@QAVISteamRemoteStorage@@PAVIWrapSteamRemoteStorage@@@std@@V?$allocator@U?$pair@QAVISteamRemoteStorage@@PAVIWrapSteamRemoteStorage@@@std@@@2@@details@Concurrency@@@std@@@1@@Z
_TEXT	SEGMENT
__Right$ = 8						; size = 4
??$?0AAV?$allocator@V?$_Flist_iterator@V?$_Split_order_list_value@U?$pair@QAVISteamRemoteStorage@@PAVIWrapSteamRemoteStorage@@@std@@V?$allocator@U?$pair@QAVISteamRemoteStorage@@PAVIWrapSteamRemoteStorage@@@std@@@2@@details@Concurrency@@@std@@@std@@@?$_Wrap_alloc@V?$allocator@V?$_Flist_iterator@V?$_Split_order_list_value@U?$pair@QAVISteamRemoteStorage@@PAVIWrapSteamRemoteStorage@@@std@@V?$allocator@U?$pair@QAVISteamRemoteStorage@@PAVIWrapSteamRemoteStorage@@@std@@@2@@details@Concurrency@@@std@@@std@@@std@@QAE@AAV?$allocator@V?$_Flist_iterator@V?$_Split_order_list_value@U?$pair@QAVISteamRemoteStorage@@PAVIWrapSteamRemoteStorage@@@std@@V?$allocator@U?$pair@QAVISteamRemoteStorage@@PAVIWrapSteamRemoteStorage@@@std@@@2@@details@Concurrency@@@std@@@1@@Z PROC ; std::_Wrap_alloc<std::allocator<std::_Flist_iterator<Concurrency::details::_Split_order_list_value<std::pair<ISteamRemoteStorage * const,IWrapSteamRemoteStorage *>,std::allocator<std::pair<ISteamRemoteStorage * const,IWrapSteamRemoteStorage *> > > > > >::_Wrap_alloc<std::allocator<std::_Flist_iterator<Concurrency::details::_Split_order_list_value<std::pair<ISteamRemoteStorage * const,IWrapSteamRemoteStorage *>,std::allocator<std::pair<ISteamRemoteStorage * const,IWrapSteamRemoteStorage *> > > > > ><std::allocator<std::_Flist_iterator<Concurrency::details::_Split_order_list_value<std::pair<ISteamRemoteStorage * const,IWrapSteamRemoteStorage *>,std::allocator<std::pair<ISteamRemoteStorage * const,IWrapSteamRemoteStorage *> > > > > &>, COMDAT
; _this$ = ecx

; 1054 : 		}

	mov	eax, ecx
	ret	4
??$?0AAV?$allocator@V?$_Flist_iterator@V?$_Split_order_list_value@U?$pair@QAVISteamRemoteStorage@@PAVIWrapSteamRemoteStorage@@@std@@V?$allocator@U?$pair@QAVISteamRemoteStorage@@PAVIWrapSteamRemoteStorage@@@std@@@2@@details@Concurrency@@@std@@@std@@@?$_Wrap_alloc@V?$allocator@V?$_Flist_iterator@V?$_Split_order_list_value@U?$pair@QAVISteamRemoteStorage@@PAVIWrapSteamRemoteStorage@@@std@@V?$allocator@U?$pair@QAVISteamRemoteStorage@@PAVIWrapSteamRemoteStorage@@@std@@@2@@details@Concurrency@@@std@@@std@@@std@@QAE@AAV?$allocator@V?$_Flist_iterator@V?$_Split_order_list_value@U?$pair@QAVISteamRemoteStorage@@PAVIWrapSteamRemoteStorage@@@std@@V?$allocator@U?$pair@QAVISteamRemoteStorage@@PAVIWrapSteamRemoteStorage@@@std@@@2@@details@Concurrency@@@std@@@1@@Z ENDP ; std::_Wrap_alloc<std::allocator<std::_Flist_iterator<Concurrency::details::_Split_order_list_value<std::pair<ISteamRemoteStorage * const,IWrapSteamRemoteStorage *>,std::allocator<std::pair<ISteamRemoteStorage * const,IWrapSteamRemoteStorage *> > > > > >::_Wrap_alloc<std::allocator<std::_Flist_iterator<Concurrency::details::_Split_order_list_value<std::pair<ISteamRemoteStorage * const,IWrapSteamRemoteStorage *>,std::allocator<std::pair<ISteamRemoteStorage * const,IWrapSteamRemoteStorage *> > > > > ><std::allocator<std::_Flist_iterator<Concurrency::details::_Split_order_list_value<std::pair<ISteamRemoteStorage * const,IWrapSteamRemoteStorage *>,std::allocator<std::pair<ISteamRemoteStorage * const,IWrapSteamRemoteStorage *> > > > > &>
_TEXT	ENDS
; Function compile flags: /Ogtp
; File c:\program files (x86)\microsoft visual studio\2017\community\vc\tools\msvc\14.10.25017\include\xmemory0
;	COMDAT ??$destroy@U_Node@?$_Split_order_list_node@U?$pair@QAVISteamRemoteStorage@@PAVIWrapSteamRemoteStorage@@@std@@V?$allocator@U?$pair@QAVISteamRemoteStorage@@PAVIWrapSteamRemoteStorage@@@std@@@2@@details@Concurrency@@@?$allocator@U_Node@?$_Split_order_list_node@U?$pair@QAVISteamRemoteStorage@@PAVIWrapSteamRemoteStorage@@@std@@V?$allocator@U?$pair@QAVISteamRemoteStorage@@PAVIWrapSteamRemoteStorage@@@std@@@2@@details@Concurrency@@@std@@QAEXPAU_Node@?$_Split_order_list_node@U?$pair@QAVISteamRemoteStorage@@PAVIWrapSteamRemoteStorage@@@std@@V?$allocator@U?$pair@QAVISteamRemoteStorage@@PAVIWrapSteamRemoteStorage@@@std@@@2@@details@Concurrency@@@Z
_TEXT	SEGMENT
__Ptr$ = 8						; size = 4
??$destroy@U_Node@?$_Split_order_list_node@U?$pair@QAVISteamRemoteStorage@@PAVIWrapSteamRemoteStorage@@@std@@V?$allocator@U?$pair@QAVISteamRemoteStorage@@PAVIWrapSteamRemoteStorage@@@std@@@2@@details@Concurrency@@@?$allocator@U_Node@?$_Split_order_list_node@U?$pair@QAVISteamRemoteStorage@@PAVIWrapSteamRemoteStorage@@@std@@V?$allocator@U?$pair@QAVISteamRemoteStorage@@PAVIWrapSteamRemoteStorage@@@std@@@2@@details@Concurrency@@@std@@QAEXPAU_Node@?$_Split_order_list_node@U?$pair@QAVISteamRemoteStorage@@PAVIWrapSteamRemoteStorage@@@std@@V?$allocator@U?$pair@QAVISteamRemoteStorage@@PAVIWrapSteamRemoteStorage@@@std@@@2@@details@Concurrency@@@Z PROC ; std::allocator<Concurrency::details::_Split_order_list_node<std::pair<ISteamRemoteStorage * const,IWrapSteamRemoteStorage *>,std::allocator<std::pair<ISteamRemoteStorage * const,IWrapSteamRemoteStorage *> > >::_Node>::destroy<Concurrency::details::_Split_order_list_node<std::pair<ISteamRemoteStorage * const,IWrapSteamRemoteStorage *>,std::allocator<std::pair<ISteamRemoteStorage * const,IWrapSteamRemoteStorage *> > >::_Node>, COMDAT
; _this$ = ecx

; 846  : 		_Ptr->~_Uty();
; 847  : 		}

	ret	4
??$destroy@U_Node@?$_Split_order_list_node@U?$pair@QAVISteamRemoteStorage@@PAVIWrapSteamRemoteStorage@@@std@@V?$allocator@U?$pair@QAVISteamRemoteStorage@@PAVIWrapSteamRemoteStorage@@@std@@@2@@details@Concurrency@@@?$allocator@U_Node@?$_Split_order_list_node@U?$pair@QAVISteamRemoteStorage@@PAVIWrapSteamRemoteStorage@@@std@@V?$allocator@U?$pair@QAVISteamRemoteStorage@@PAVIWrapSteamRemoteStorage@@@std@@@2@@details@Concurrency@@@std@@QAEXPAU_Node@?$_Split_order_list_node@U?$pair@QAVISteamRemoteStorage@@PAVIWrapSteamRemoteStorage@@@std@@V?$allocator@U?$pair@QAVISteamRemoteStorage@@PAVIWrapSteamRemoteStorage@@@std@@@2@@details@Concurrency@@@Z ENDP ; std::allocator<Concurrency::details::_Split_order_list_node<std::pair<ISteamRemoteStorage * const,IWrapSteamRemoteStorage *>,std::allocator<std::pair<ISteamRemoteStorage * const,IWrapSteamRemoteStorage *> > >::_Node>::destroy<Concurrency::details::_Split_order_list_node<std::pair<ISteamRemoteStorage * const,IWrapSteamRemoteStorage *>,std::allocator<std::pair<ISteamRemoteStorage * const,IWrapSteamRemoteStorage *> > >::_Node>
_TEXT	ENDS
; Function compile flags: /Ogtp
; File c:\program files (x86)\microsoft visual studio\2017\community\vc\tools\msvc\14.10.25017\include\xmemory0
;	COMDAT ??$?0U?$pair@QAVISteamRemoteStorage@@PAVIWrapSteamRemoteStorage@@@std@@@?$allocator@V?$_Flist_iterator@V?$_Split_order_list_value@U?$pair@QAVISteamRemoteStorage@@PAVIWrapSteamRemoteStorage@@@std@@V?$allocator@U?$pair@QAVISteamRemoteStorage@@PAVIWrapSteamRemoteStorage@@@std@@@2@@details@Concurrency@@@std@@@std@@QAE@ABV?$allocator@U?$pair@QAVISteamRemoteStorage@@PAVIWrapSteamRemoteStorage@@@std@@@1@@Z
_TEXT	SEGMENT
___formal$ = 8						; size = 4
??$?0U?$pair@QAVISteamRemoteStorage@@PAVIWrapSteamRemoteStorage@@@std@@@?$allocator@V?$_Flist_iterator@V?$_Split_order_list_value@U?$pair@QAVISteamRemoteStorage@@PAVIWrapSteamRemoteStorage@@@std@@V?$allocator@U?$pair@QAVISteamRemoteStorage@@PAVIWrapSteamRemoteStorage@@@std@@@2@@details@Concurrency@@@std@@@std@@QAE@ABV?$allocator@U?$pair@QAVISteamRemoteStorage@@PAVIWrapSteamRemoteStorage@@@std@@@1@@Z PROC ; std::allocator<std::_Flist_iterator<Concurrency::details::_Split_order_list_value<std::pair<ISteamRemoteStorage * const,IWrapSteamRemoteStorage *>,std::allocator<std::pair<ISteamRemoteStorage * const,IWrapSteamRemoteStorage *> > > > >::allocator<std::_Flist_iterator<Concurrency::details::_Split_order_list_value<std::pair<ISteamRemoteStorage * const,IWrapSteamRemoteStorage *>,std::allocator<std::pair<ISteamRemoteStorage * const,IWrapSteamRemoteStorage *> > > > ><std::pair<ISteamRemoteStorage * const,IWrapSteamRemoteStorage *> >, COMDAT
; _this$ = ecx

; 813  : 		}

	mov	eax, ecx
	ret	4
??$?0U?$pair@QAVISteamRemoteStorage@@PAVIWrapSteamRemoteStorage@@@std@@@?$allocator@V?$_Flist_iterator@V?$_Split_order_list_value@U?$pair@QAVISteamRemoteStorage@@PAVIWrapSteamRemoteStorage@@@std@@V?$allocator@U?$pair@QAVISteamRemoteStorage@@PAVIWrapSteamRemoteStorage@@@std@@@2@@details@Concurrency@@@std@@@std@@QAE@ABV?$allocator@U?$pair@QAVISteamRemoteStorage@@PAVIWrapSteamRemoteStorage@@@std@@@1@@Z ENDP ; std::allocator<std::_Flist_iterator<Concurrency::details::_Split_order_list_value<std::pair<ISteamRemoteStorage * const,IWrapSteamRemoteStorage *>,std::allocator<std::pair<ISteamRemoteStorage * const,IWrapSteamRemoteStorage *> > > > >::allocator<std::_Flist_iterator<Concurrency::details::_Split_order_list_value<std::pair<ISteamRemoteStorage * const,IWrapSteamRemoteStorage *>,std::allocator<std::pair<ISteamRemoteStorage * const,IWrapSteamRemoteStorage *> > > > ><std::pair<ISteamRemoteStorage * const,IWrapSteamRemoteStorage *> >
_TEXT	ENDS
; Function compile flags: /Ogtp
; File c:\program files (x86)\microsoft visual studio\2017\community\vc\tools\msvc\14.10.25017\include\internal_split_ordered_list.h
;	COMDAT ?_Is_dummy@_Node@?$_Split_order_list_node@U?$pair@QAVISteamRemoteStorage@@PAVIWrapSteamRemoteStorage@@@std@@V?$allocator@U?$pair@QAVISteamRemoteStorage@@PAVIWrapSteamRemoteStorage@@@std@@@2@@details@Concurrency@@QBE_NXZ
_TEXT	SEGMENT
?_Is_dummy@_Node@?$_Split_order_list_node@U?$pair@QAVISteamRemoteStorage@@PAVIWrapSteamRemoteStorage@@@std@@V?$allocator@U?$pair@QAVISteamRemoteStorage@@PAVIWrapSteamRemoteStorage@@@std@@@2@@details@Concurrency@@QBE_NXZ PROC ; Concurrency::details::_Split_order_list_node<std::pair<ISteamRemoteStorage * const,IWrapSteamRemoteStorage *>,std::allocator<std::pair<ISteamRemoteStorage * const,IWrapSteamRemoteStorage *> > >::_Node::_Is_dummy, COMDAT
; _this$ = ecx

; 247  :             return (_M_order_key & 0x1) == 0;

	mov	eax, DWORD PTR [ecx+12]
	not	eax
	and	eax, 1

; 248  :         }

	ret	0
?_Is_dummy@_Node@?$_Split_order_list_node@U?$pair@QAVISteamRemoteStorage@@PAVIWrapSteamRemoteStorage@@@std@@V?$allocator@U?$pair@QAVISteamRemoteStorage@@PAVIWrapSteamRemoteStorage@@@std@@@2@@details@Concurrency@@QBE_NXZ ENDP ; Concurrency::details::_Split_order_list_node<std::pair<ISteamRemoteStorage * const,IWrapSteamRemoteStorage *>,std::allocator<std::pair<ISteamRemoteStorage * const,IWrapSteamRemoteStorage *> > >::_Node::_Is_dummy
_TEXT	ENDS
; Function compile flags: /Ogtp
; File c:\program files (x86)\microsoft visual studio\2017\community\vc\tools\msvc\14.10.25017\include\internal_split_ordered_list.h
;	COMDAT ?_Atomic_set_next@_Node@?$_Split_order_list_node@U?$pair@QAVISteamRemoteStorage@@PAVIWrapSteamRemoteStorage@@@std@@V?$allocator@U?$pair@QAVISteamRemoteStorage@@PAVIWrapSteamRemoteStorage@@@std@@@2@@details@Concurrency@@QAEPAU1234@PAU1234@0@Z
_TEXT	SEGMENT
__New_node$ = 8						; size = 4
__Current_node$ = 12					; size = 4
?_Atomic_set_next@_Node@?$_Split_order_list_node@U?$pair@QAVISteamRemoteStorage@@PAVIWrapSteamRemoteStorage@@@std@@V?$allocator@U?$pair@QAVISteamRemoteStorage@@PAVIWrapSteamRemoteStorage@@@std@@@2@@details@Concurrency@@QAEPAU1234@PAU1234@0@Z PROC ; Concurrency::details::_Split_order_list_node<std::pair<ISteamRemoteStorage * const,IWrapSteamRemoteStorage *>,std::allocator<std::pair<ISteamRemoteStorage * const,IWrapSteamRemoteStorage *> > >::_Node::_Atomic_set_next, COMDAT
; _this$ = ecx

; 227  :         {

	npad	2
	push	ebp
	mov	ebp, esp

; 228  :             // Try to change the next pointer on the current element to a new element, only if it still points to the cached next
; 229  :             _Nodeptr _Exchange_node = (_Nodeptr) _InterlockedCompareExchangePointer((void * volatile *) &_M_next, _New_node, _Current_node);

	mov	edx, DWORD PTR __New_node$[ebp]
	mov	eax, DWORD PTR __Current_node$[ebp]
	lock	 cmpxchg DWORD PTR [ecx], edx

; 230  : 
; 231  :             if (_Exchange_node == _Current_node)

	cmp	eax, DWORD PTR __Current_node$[ebp]
	cmove	eax, DWORD PTR __New_node$[ebp]

; 232  :             {
; 233  :                 // Operation succeeded, return the new node
; 234  :                 return _New_node;
; 235  :             }
; 236  :             else
; 237  :             {
; 238  :                 // Operation failed, return the "interfering" node
; 239  :                 return _Exchange_node;
; 240  :             }
; 241  :         }

	pop	ebp
	ret	8
?_Atomic_set_next@_Node@?$_Split_order_list_node@U?$pair@QAVISteamRemoteStorage@@PAVIWrapSteamRemoteStorage@@@std@@V?$allocator@U?$pair@QAVISteamRemoteStorage@@PAVIWrapSteamRemoteStorage@@@std@@@2@@details@Concurrency@@QAEPAU1234@PAU1234@0@Z ENDP ; Concurrency::details::_Split_order_list_node<std::pair<ISteamRemoteStorage * const,IWrapSteamRemoteStorage *>,std::allocator<std::pair<ISteamRemoteStorage * const,IWrapSteamRemoteStorage *> > >::_Node::_Atomic_set_next
_TEXT	ENDS
; Function compile flags: /Ogtp
; File c:\program files (x86)\microsoft visual studio\2017\community\vc\tools\msvc\14.10.25017\include\internal_split_ordered_list.h
;	COMDAT ?_Get_order_key@_Node@?$_Split_order_list_node@U?$pair@QAVISteamRemoteStorage@@PAVIWrapSteamRemoteStorage@@@std@@V?$allocator@U?$pair@QAVISteamRemoteStorage@@PAVIWrapSteamRemoteStorage@@@std@@@2@@details@Concurrency@@QBEIXZ
_TEXT	SEGMENT
?_Get_order_key@_Node@?$_Split_order_list_node@U?$pair@QAVISteamRemoteStorage@@PAVIWrapSteamRemoteStorage@@@std@@V?$allocator@U?$pair@QAVISteamRemoteStorage@@PAVIWrapSteamRemoteStorage@@@std@@@2@@details@Concurrency@@QBEIXZ PROC ; Concurrency::details::_Split_order_list_node<std::pair<ISteamRemoteStorage * const,IWrapSteamRemoteStorage *>,std::allocator<std::pair<ISteamRemoteStorage * const,IWrapSteamRemoteStorage *> > >::_Node::_Get_order_key, COMDAT
; _this$ = ecx

; 222  :             return _M_order_key;

	mov	eax, DWORD PTR [ecx+12]

; 223  :         }

	ret	0
?_Get_order_key@_Node@?$_Split_order_list_node@U?$pair@QAVISteamRemoteStorage@@PAVIWrapSteamRemoteStorage@@@std@@V?$allocator@U?$pair@QAVISteamRemoteStorage@@PAVIWrapSteamRemoteStorage@@@std@@@2@@details@Concurrency@@QBEIXZ ENDP ; Concurrency::details::_Split_order_list_node<std::pair<ISteamRemoteStorage * const,IWrapSteamRemoteStorage *>,std::allocator<std::pair<ISteamRemoteStorage * const,IWrapSteamRemoteStorage *> > >::_Node::_Get_order_key
_TEXT	ENDS
; Function compile flags: /Ogtp
; File c:\program files (x86)\microsoft visual studio\2017\community\vc\tools\msvc\14.10.25017\include\internal_split_ordered_list.h
;	COMDAT ?_Init@_Node@?$_Split_order_list_node@U?$pair@QAVISteamRemoteStorage@@PAVIWrapSteamRemoteStorage@@@std@@V?$allocator@U?$pair@QAVISteamRemoteStorage@@PAVIWrapSteamRemoteStorage@@@std@@@2@@details@Concurrency@@QAEXI@Z
_TEXT	SEGMENT
__Order_key$ = 8					; size = 4
?_Init@_Node@?$_Split_order_list_node@U?$pair@QAVISteamRemoteStorage@@PAVIWrapSteamRemoteStorage@@@std@@V?$allocator@U?$pair@QAVISteamRemoteStorage@@PAVIWrapSteamRemoteStorage@@@std@@@2@@details@Concurrency@@QAEXI@Z PROC ; Concurrency::details::_Split_order_list_node<std::pair<ISteamRemoteStorage * const,IWrapSteamRemoteStorage *>,std::allocator<std::pair<ISteamRemoteStorage * const,IWrapSteamRemoteStorage *> > >::_Node::_Init, COMDAT
; _this$ = ecx

; 214  :         {

	npad	2
	push	ebp
	mov	ebp, esp

; 215  :             _M_order_key = _Order_key;

	mov	eax, DWORD PTR __Order_key$[ebp]
	mov	DWORD PTR [ecx+12], eax

; 216  :             _M_next = NULL;

	mov	DWORD PTR [ecx], 0

; 217  :         }

	pop	ebp
	ret	4
?_Init@_Node@?$_Split_order_list_node@U?$pair@QAVISteamRemoteStorage@@PAVIWrapSteamRemoteStorage@@@std@@V?$allocator@U?$pair@QAVISteamRemoteStorage@@PAVIWrapSteamRemoteStorage@@@std@@@2@@details@Concurrency@@QAEXI@Z ENDP ; Concurrency::details::_Split_order_list_node<std::pair<ISteamRemoteStorage * const,IWrapSteamRemoteStorage *>,std::allocator<std::pair<ISteamRemoteStorage * const,IWrapSteamRemoteStorage *> > >::_Node::_Init
_TEXT	ENDS
; Function compile flags: /Ogtp
; File c:\program files (x86)\microsoft visual studio\2017\community\vc\tools\msvc\14.10.25017\include\internal_concurrent_hash.h
; File c:\program files (x86)\microsoft visual studio\2017\community\vc\tools\msvc\14.10.25017\include\xstddef
; File c:\program files (x86)\microsoft visual studio\2017\community\vc\tools\msvc\14.10.25017\include\internal_concurrent_hash.h
; File c:\program files (x86)\microsoft visual studio\2017\community\vc\tools\msvc\14.10.25017\include\xstddef
; File c:\program files (x86)\microsoft visual studio\2017\community\vc\tools\msvc\14.10.25017\include\internal_concurrent_hash.h
; File c:\program files (x86)\microsoft visual studio\2017\community\vc\tools\msvc\14.10.25017\include\xstddef
; File c:\program files (x86)\microsoft visual studio\2017\community\vc\tools\msvc\14.10.25017\include\internal_concurrent_hash.h
; File c:\program files (x86)\microsoft visual studio\2017\community\vc\tools\msvc\14.10.25017\include\xstddef
; File c:\program files (x86)\microsoft visual studio\2017\community\vc\tools\msvc\14.10.25017\include\internal_concurrent_hash.h
; File c:\program files (x86)\microsoft visual studio\2017\community\vc\tools\msvc\14.10.25017\include\forward_list
; File c:\program files (x86)\microsoft visual studio\2017\community\vc\tools\msvc\14.10.25017\include\internal_concurrent_hash.h
; File c:\program files (x86)\microsoft visual studio\2017\community\vc\tools\msvc\14.10.25017\include\xstddef
; File c:\program files (x86)\microsoft visual studio\2017\community\vc\tools\msvc\14.10.25017\include\internal_concurrent_hash.h
; File c:\program files (x86)\microsoft visual studio\2017\community\vc\tools\msvc\14.10.25017\include\forward_list
; File c:\program files (x86)\microsoft visual studio\2017\community\vc\tools\msvc\14.10.25017\include\internal_concurrent_hash.h
; File c:\program files (x86)\microsoft visual studio\2017\community\vc\tools\msvc\14.10.25017\include\internal_split_ordered_list.h
; File c:\program files (x86)\microsoft visual studio\2017\community\vc\tools\msvc\14.10.25017\include\utility
; File c:\program files (x86)\microsoft visual studio\2017\community\vc\tools\msvc\14.10.25017\include\internal_concurrent_hash.h
; File c:\program files (x86)\microsoft visual studio\2017\community\vc\tools\msvc\14.10.25017\include\xmemory0
; File c:\program files (x86)\microsoft visual studio\2017\community\vc\tools\msvc\14.10.25017\include\utility
; File c:\program files (x86)\microsoft visual studio\2017\community\vc\tools\msvc\14.10.25017\include\xmemory0
; File c:\program files (x86)\microsoft visual studio\2017\community\vc\tools\msvc\14.10.25017\include\utility
; File c:\program files (x86)\microsoft visual studio\2017\community\vc\tools\msvc\14.10.25017\include\internal_concurrent_hash.h
; File c:\program files (x86)\microsoft visual studio\2017\community\vc\tools\msvc\14.10.25017\include\internal_split_ordered_list.h
; File c:\program files (x86)\microsoft visual studio\2017\community\vc\tools\msvc\14.10.25017\include\internal_concurrent_hash.h
; File c:\program files (x86)\microsoft visual studio\2017\community\vc\tools\msvc\14.10.25017\include\utility
; File c:\program files (x86)\microsoft visual studio\2017\community\vc\tools\msvc\14.10.25017\include\internal_concurrent_hash.h
;	COMDAT ??$_Insert@U?$pair@PAVISteamRemoteStorage@@PAVIWrapSteamRemoteStorage@@@std@@@?$_Concurrent_hash@V?$_Concurrent_unordered_map_traits@PAVISteamRemoteStorage@@PAVIWrapSteamRemoteStorage@@V?$_Hash_compare@PAVISteamRemoteStorage@@U?$hash@PAVISteamRemoteStorage@@@std@@U?$equal_to@PAVISteamRemoteStorage@@@3@@details@Concurrency@@V?$allocator@U?$pair@QAVISteamRemoteStorage@@PAVIWrapSteamRemoteStorage@@@std@@@std@@$0A@@details@Concurrency@@@details@Concurrency@@IAE?AU?$pair@V?$_Solist_iterator@V?$_Split_order_list_value@U?$pair@QAVISteamRemoteStorage@@PAVIWrapSteamRemoteStorage@@@std@@V?$allocator@U?$pair@QAVISteamRemoteStorage@@PAVIWrapSteamRemoteStorage@@@std@@@2@@details@Concurrency@@@details@Concurrency@@_N@std@@$$QAU?$pair@PAVISteamRemoteStorage@@PAVIWrapSteamRemoteStorage@@@4@@Z
_TEXT	SEGMENT
__Result$1 = -24					; size = 8
tv811 = -20						; size = 4
_this$1$ = -16						; size = 4
__Reversed_order_key$2 = -12				; size = 4
tv813 = -8						; size = 4
__Index$3 = -8						; size = 4
__Index$4 = -8						; size = 4
__Val$5 = -4						; size = 4
___$ReturnUdt$ = 8					; size = 4
__Value$ = 12						; size = 4
??$_Insert@U?$pair@PAVISteamRemoteStorage@@PAVIWrapSteamRemoteStorage@@@std@@@?$_Concurrent_hash@V?$_Concurrent_unordered_map_traits@PAVISteamRemoteStorage@@PAVIWrapSteamRemoteStorage@@V?$_Hash_compare@PAVISteamRemoteStorage@@U?$hash@PAVISteamRemoteStorage@@@std@@U?$equal_to@PAVISteamRemoteStorage@@@3@@details@Concurrency@@V?$allocator@U?$pair@QAVISteamRemoteStorage@@PAVIWrapSteamRemoteStorage@@@std@@@std@@$0A@@details@Concurrency@@@details@Concurrency@@IAE?AU?$pair@V?$_Solist_iterator@V?$_Split_order_list_value@U?$pair@QAVISteamRemoteStorage@@PAVIWrapSteamRemoteStorage@@@std@@V?$allocator@U?$pair@QAVISteamRemoteStorage@@PAVIWrapSteamRemoteStorage@@@std@@@2@@details@Concurrency@@@details@Concurrency@@_N@std@@$$QAU?$pair@PAVISteamRemoteStorage@@PAVIWrapSteamRemoteStorage@@@4@@Z PROC ; Concurrency::details::_Concurrent_hash<Concurrency::details::_Concurrent_unordered_map_traits<ISteamRemoteStorage *,IWrapSteamRemoteStorage *,Concurrency::details::_Hash_compare<ISteamRemoteStorage *,std::hash<ISteamRemoteStorage *>,std::equal_to<ISteamRemoteStorage *> >,std::allocator<std::pair<ISteamRemoteStorage * const,IWrapSteamRemoteStorage *> >,0> >::_Insert<std::pair<ISteamRemoteStorage *,IWrapSteamRemoteStorage *> >, COMDAT
; _this$ = ecx

; 862  :     {

	npad	2
	push	ebp
	mov	ebp, esp
	sub	esp, 24					; 00000018H
	push	ebx
	push	esi
; File c:\program files (x86)\microsoft visual studio\2017\community\vc\tools\msvc\14.10.25017\include\xstddef

; 346  : 		_Val ^= (size_t)_First[_Next];

	mov	esi, DWORD PTR __Value$[ebp]
; File c:\program files (x86)\microsoft visual studio\2017\community\vc\tools\msvc\14.10.25017\include\internal_concurrent_hash.h

; 862  :     {

	mov	ebx, ecx

; 73   :     unsigned long _Index = 0;

	mov	DWORD PTR __Index$4[ebp], 0
	push	edi

; 862  :     {

	mov	DWORD PTR _this$1$[ebp], ebx

; 1267 :         if (_M_buckets[_Segment] == NULL)

	mov	edi, 1
; File c:\program files (x86)\microsoft visual studio\2017\community\vc\tools\msvc\14.10.25017\include\xstddef

; 346  : 		_Val ^= (size_t)_First[_Next];

	movzx	eax, BYTE PTR [esi]
	xor	eax, -2128831035			; 811c9dc5H

; 347  : 		_Val *= _FNV_prime;

	imul	edx, eax, 16777619
	movzx	eax, BYTE PTR [esi+1]
	xor	edx, eax
	movzx	eax, BYTE PTR [esi+2]
	imul	edx, edx, 16777619
	xor	edx, eax
	movzx	eax, BYTE PTR [esi+3]
	imul	ecx, edx, 16777619
; File c:\program files (x86)\microsoft visual studio\2017\community\vc\tools\msvc\14.10.25017\include\internal_concurrent_hash.h

; 864  :         size_type _Bucket = _Order_key % _M_number_of_buckets;

	xor	edx, edx
; File c:\program files (x86)\microsoft visual studio\2017\community\vc\tools\msvc\14.10.25017\include\xstddef

; 346  : 		_Val ^= (size_t)_First[_Next];

	xor	ecx, eax

; 347  : 		_Val *= _FNV_prime;

	imul	eax, ecx, 16777619
; File c:\program files (x86)\microsoft visual studio\2017\community\vc\tools\msvc\14.10.25017\include\internal_concurrent_hash.h

; 864  :         size_type _Bucket = _Order_key % _M_number_of_buckets;

	lea	ecx, DWORD PTR [ebx+148]
; File c:\program files (x86)\microsoft visual studio\2017\community\vc\tools\msvc\14.10.25017\include\xstddef

; 347  : 		_Val *= _FNV_prime;

	mov	DWORD PTR __Val$5[ebp], eax
; File c:\program files (x86)\microsoft visual studio\2017\community\vc\tools\msvc\14.10.25017\include\internal_concurrent_hash.h

; 864  :         size_type _Bucket = _Order_key % _M_number_of_buckets;

	div	DWORD PTR [ecx]
	mov	esi, edx

; 188  :         return size_type( _Get_msb( _Index|1 ) );

	mov	eax, esi
	or	eax, 1
	mov	DWORD PTR tv811[ebp], eax

; 76   :     _BitScanReverse(&_Index, _Mask);

	bsr	eax, eax

; 188  :         return size_type( _Get_msb( _Index|1 ) );

	movzx	ecx, al

; 76   :     _BitScanReverse(&_Index, _Mask);

	mov	DWORD PTR __Index$4[ebp], eax

; 1267 :         if (_M_buckets[_Segment] == NULL)

	mov	eax, DWORD PTR [ebx+ecx*4+4]
	test	eax, eax
	je	SHORT $LN232@Insert

; 193  :         return (size_type(1)<<_K & ~size_type(1));

	mov	edx, edi

; 1273 :         return (_Iterator._Mynode() != NULL);

	mov	eax, esi

; 193  :         return (size_type(1)<<_K & ~size_type(1));

	shl	edx, cl

; 1273 :         return (_Iterator._Mynode() != NULL);

	mov	ecx, DWORD PTR [ebx+ecx*4+4]

; 193  :         return (size_type(1)<<_K & ~size_type(1));

	and	edx, -2					; fffffffeH

; 1273 :         return (_Iterator._Mynode() != NULL);

	sub	eax, edx
	cmp	DWORD PTR [ecx+eax*4], 0
	setne	al

; 865  : 
; 866  :         // If bucket is empty, initialize it first
; 867  :         if (!_Is_initialized(_Bucket))

	test	al, al
	jne	SHORT $LN5@Insert
$LN232@Insert:

; 868  :         {
; 869  :             _Initialize_bucket(_Bucket);

	push	esi
	mov	ecx, ebx
	call	?_Initialize_bucket@?$_Concurrent_hash@V?$_Concurrent_unordered_map_traits@PAVISteamRemoteStorage@@PAVIWrapSteamRemoteStorage@@V?$_Hash_compare@PAVISteamRemoteStorage@@U?$hash@PAVISteamRemoteStorage@@@std@@U?$equal_to@PAVISteamRemoteStorage@@@3@@details@Concurrency@@V?$allocator@U?$pair@QAVISteamRemoteStorage@@PAVIWrapSteamRemoteStorage@@@std@@@std@@$0A@@details@Concurrency@@@details@Concurrency@@AAEXI@Z ; Concurrency::details::_Concurrent_hash<Concurrency::details::_Concurrent_unordered_map_traits<ISteamRemoteStorage *,IWrapSteamRemoteStorage *,Concurrency::details::_Hash_compare<ISteamRemoteStorage *,std::hash<ISteamRemoteStorage *>,std::equal_to<ISteamRemoteStorage *> >,std::allocator<std::pair<ISteamRemoteStorage * const,IWrapSteamRemoteStorage *> >,0> >::_Initialize_bucket
$LN5@Insert:

; 1287 :             _Reversed[_Size - _Index - 1] = _Reverse_byte(_Original[_Index]);

	mov	ecx, DWORD PTR __imp_?_Byte_reverse_table@details@Concurrency@@3QBEB

; 67   :     return _Byte_reverse_table[_Original_byte];

	mov	edx, DWORD PTR __Val$5[ebp]
	movzx	eax, dl

; 870  :         }
; 871  : 
; 872  :         long _New_count;
; 873  :         _Order_key = _Split_order_regular_key(_Order_key);
; 874  :         _Full_iterator _Iterator = _Get_bucket(_Bucket);
; 875  :         _Full_iterator _Last = _M_split_ordered_list._End();
; 876  :         _Full_iterator _Where = _Iterator;
; 877  :         _Nodeptr _New_node = _M_split_ordered_list._Buynode(_Order_key, std::forward<_ValTy>(_Value));

	push	DWORD PTR __Value$[ebp]

; 73   :     unsigned long _Index = 0;

	mov	DWORD PTR __Index$3[ebp], 0

; 1287 :             _Reversed[_Size - _Index - 1] = _Reverse_byte(_Original[_Index]);

	movzx	eax, BYTE PTR [eax+ecx]
	mov	BYTE PTR __Reversed_order_key$2[ebp+3], al

; 67   :     return _Byte_reverse_table[_Original_byte];

	movzx	eax, dh

; 1287 :             _Reversed[_Size - _Index - 1] = _Reverse_byte(_Original[_Index]);

	movzx	eax, BYTE PTR [eax+ecx]
	mov	BYTE PTR __Reversed_order_key$2[ebp+2], al

; 67   :     return _Byte_reverse_table[_Original_byte];

	movzx	eax, BYTE PTR __Val$5[ebp+2]

; 1287 :             _Reversed[_Size - _Index - 1] = _Reverse_byte(_Original[_Index]);

	movzx	eax, BYTE PTR [eax+ecx]
	mov	BYTE PTR __Reversed_order_key$2[ebp+1], al

; 67   :     return _Byte_reverse_table[_Original_byte];

	movzx	eax, BYTE PTR __Val$5[ebp+3]

; 1287 :             _Reversed[_Size - _Index - 1] = _Reverse_byte(_Original[_Index]);

	movzx	eax, BYTE PTR [eax+ecx]
	mov	BYTE PTR __Reversed_order_key$2[ebp], al

; 76   :     _BitScanReverse(&_Index, _Mask);

	mov	eax, DWORD PTR tv811[ebp]

; 1296 :         return _Reverse(_Order_key) | 0x1;

	mov	ebx, DWORD PTR __Reversed_order_key$2[ebp]

; 76   :     _BitScanReverse(&_Index, _Mask);

	bsr	eax, eax

; 1296 :         return _Reverse(_Order_key) | 0x1;

	or	ebx, edi

; 188  :         return size_type( _Get_msb( _Index|1 ) );

	movzx	ecx, al

; 76   :     _BitScanReverse(&_Index, _Mask);

	mov	DWORD PTR __Index$3[ebp], eax

; 193  :         return (size_type(1)<<_K & ~size_type(1));

	mov	eax, edi
	shl	eax, cl
	and	eax, -2					; fffffffeH

; 1240 :         return _M_buckets[_Segment][_Bucket];

	sub	esi, eax
	mov	eax, DWORD PTR _this$1$[ebp]

; 870  :         }
; 871  : 
; 872  :         long _New_count;
; 873  :         _Order_key = _Split_order_regular_key(_Order_key);
; 874  :         _Full_iterator _Iterator = _Get_bucket(_Bucket);
; 875  :         _Full_iterator _Last = _M_split_ordered_list._End();
; 876  :         _Full_iterator _Where = _Iterator;
; 877  :         _Nodeptr _New_node = _M_split_ordered_list._Buynode(_Order_key, std::forward<_ValTy>(_Value));

	push	ebx

; 1240 :         return _M_buckets[_Segment][_Bucket];

	mov	edi, DWORD PTR [eax+ecx*4+4]

; 870  :         }
; 871  : 
; 872  :         long _New_count;
; 873  :         _Order_key = _Split_order_regular_key(_Order_key);
; 874  :         _Full_iterator _Iterator = _Get_bucket(_Bucket);
; 875  :         _Full_iterator _Last = _M_split_ordered_list._End();
; 876  :         _Full_iterator _Where = _Iterator;
; 877  :         _Nodeptr _New_node = _M_split_ordered_list._Buynode(_Order_key, std::forward<_ValTy>(_Value));

	lea	ecx, DWORD PTR [eax+132]

; 1240 :         return _M_buckets[_Segment][_Bucket];

	mov	edi, DWORD PTR [edi+esi*4]

; 870  :         }
; 871  : 
; 872  :         long _New_count;
; 873  :         _Order_key = _Split_order_regular_key(_Order_key);
; 874  :         _Full_iterator _Iterator = _Get_bucket(_Bucket);
; 875  :         _Full_iterator _Last = _M_split_ordered_list._End();
; 876  :         _Full_iterator _Where = _Iterator;
; 877  :         _Nodeptr _New_node = _M_split_ordered_list._Buynode(_Order_key, std::forward<_ValTy>(_Value));

	call	??$_Buynode@U?$pair@PAVISteamRemoteStorage@@PAVIWrapSteamRemoteStorage@@@std@@@?$_Split_order_list_value@U?$pair@QAVISteamRemoteStorage@@PAVIWrapSteamRemoteStorage@@@std@@V?$allocator@U?$pair@QAVISteamRemoteStorage@@PAVIWrapSteamRemoteStorage@@@std@@@2@@details@Concurrency@@QAEPAU_Node@?$_Split_order_list_node@U?$pair@QAVISteamRemoteStorage@@PAVIWrapSteamRemoteStorage@@@std@@V?$allocator@U?$pair@QAVISteamRemoteStorage@@PAVIWrapSteamRemoteStorage@@@std@@@2@@12@I$$QAU?$pair@PAVISteamRemoteStorage@@PAVIWrapSteamRemoteStorage@@@std@@@Z ; Concurrency::details::_Split_order_list_value<std::pair<ISteamRemoteStorage * const,IWrapSteamRemoteStorage *>,std::allocator<std::pair<ISteamRemoteStorage * const,IWrapSteamRemoteStorage *> > >::_Buynode<std::pair<ISteamRemoteStorage *,IWrapSteamRemoteStorage *> >
	mov	ecx, eax
$LN236@Insert:
; File c:\program files (x86)\microsoft visual studio\2017\community\vc\tools\msvc\14.10.25017\include\forward_list

; 210  : 		this->_Ptr = _Mylist::_Nextnode(this->_Ptr);

	mov	esi, DWORD PTR [edi]
	npad	4
$LL2@Insert:

; 233  : 		return (this->_Ptr == _Right._Ptr);

	test	esi, esi
; File c:\program files (x86)\microsoft visual studio\2017\community\vc\tools\msvc\14.10.25017\include\internal_concurrent_hash.h

; 886  :             if (_Where == _Last || _Mylist::_Get_key(_Where) > _Order_key)

	je	SHORT $LN8@Insert
	mov	eax, DWORD PTR [esi+12]
	cmp	eax, ebx
	ja	SHORT $LN8@Insert

; 909  :             else if (!this->_M_allow_multimapping && _Mylist::_Get_key(_Where) == _Order_key &&

	jne	SHORT $LN11@Insert
; File c:\program files (x86)\microsoft visual studio\2017\community\vc\tools\msvc\14.10.25017\include\xstddef

; 220  : 		return (_Left == _Right);

	mov	eax, DWORD PTR [esi+4]
	cmp	eax, DWORD PTR [ecx+4]
; File c:\program files (x86)\microsoft visual studio\2017\community\vc\tools\msvc\14.10.25017\include\internal_concurrent_hash.h

; 909  :             else if (!this->_M_allow_multimapping && _Mylist::_Get_key(_Where) == _Order_key &&

	je	SHORT $LN212@Insert
$LN11@Insert:

; 910  :                 this->_M_comparator(this->_Key_function(*_Where), this->_Key_function(_New_node->_M_element)) == 0)
; 911  :             {
; 912  :                 // If the insert failed (element already there), then delete the new one
; 913  :                 _M_split_ordered_list._Erase(_New_node);
; 914  : 
; 915  :                 // Element already in the list, return it
; 916  :                 return std::pair<iterator, bool>(_M_split_ordered_list._Get_iterator(_Where), false);
; 917  :             }
; 918  : 
; 919  :             // Move the iterator forward
; 920  :             _Iterator = _Where;

	mov	edi, esi
; File c:\program files (x86)\microsoft visual studio\2017\community\vc\tools\msvc\14.10.25017\include\forward_list

; 210  : 		this->_Ptr = _Mylist::_Nextnode(this->_Ptr);

	mov	esi, DWORD PTR [esi]
; File c:\program files (x86)\microsoft visual studio\2017\community\vc\tools\msvc\14.10.25017\include\internal_concurrent_hash.h

; 922  :         }

	jmp	SHORT $LL2@Insert
$LN8@Insert:
; File c:\program files (x86)\microsoft visual studio\2017\community\vc\tools\msvc\14.10.25017\include\internal_split_ordered_list.h

; 610  :         _New_node->_M_next = _Current_node;

	mov	DWORD PTR [ecx], esi

; 229  :             _Nodeptr _Exchange_node = (_Nodeptr) _InterlockedCompareExchangePointer((void * volatile *) &_M_next, _New_node, _Current_node);

	mov	edx, ecx
	mov	eax, esi
	lock	 cmpxchg DWORD PTR [edi], edx

; 230  : 
; 231  :             if (_Exchange_node == _Current_node)

	cmp	eax, esi
	je	SHORT $LN235@Insert

; 619  :         if (_Inserted_node == _List_node)

	cmp	eax, ecx
	je	SHORT $LN235@Insert
; File c:\program files (x86)\microsoft visual studio\2017\community\vc\tools\msvc\14.10.25017\include\utility

; 187  : 		: first(_STD forward<_Other1>(_Val1)),

	mov	DWORD PTR __Result$1[ebp], 0

; 188  : 				second(_STD forward<_Other2>(_Val2))

	mov	BYTE PTR __Result$1[ebp+4], 0
; File c:\program files (x86)\microsoft visual studio\2017\community\vc\tools\msvc\14.10.25017\include\internal_concurrent_hash.h

; 906  :                     continue;

	jmp	SHORT $LN236@Insert
$LN212@Insert:
; File c:\program files (x86)\microsoft visual studio\2017\community\vc\tools\msvc\14.10.25017\include\xmemory0

; 823  : 		_Deallocate(_Ptr, _Count, sizeof (_Ty));

	push	16					; 00000010H
	push	1
	push	ecx
	call	?_Deallocate@std@@YAXPAXII@Z		; std::_Deallocate
; File c:\program files (x86)\microsoft visual studio\2017\community\vc\tools\msvc\14.10.25017\include\utility

; 187  : 		: first(_STD forward<_Other1>(_Val1)),

	mov	eax, DWORD PTR ___$ReturnUdt$[ebp]
; File c:\program files (x86)\microsoft visual studio\2017\community\vc\tools\msvc\14.10.25017\include\xmemory0

; 823  : 		_Deallocate(_Ptr, _Count, sizeof (_Ty));

	add	esp, 12					; 0000000cH
	pop	edi
; File c:\program files (x86)\microsoft visual studio\2017\community\vc\tools\msvc\14.10.25017\include\utility

; 187  : 		: first(_STD forward<_Other1>(_Val1)),

	mov	DWORD PTR [eax], esi
	pop	esi

; 188  : 				second(_STD forward<_Other2>(_Val2))

	mov	BYTE PTR [eax+4], 0
	pop	ebx
; File c:\program files (x86)\microsoft visual studio\2017\community\vc\tools\msvc\14.10.25017\include\internal_concurrent_hash.h

; 923  :     }

	mov	esp, ebp
	pop	ebp
	ret	8
$LN235@Insert:
; File c:\program files (x86)\microsoft visual studio\2017\community\vc\tools\msvc\14.10.25017\include\internal_split_ordered_list.h

; 623  :             *_New_count = _InterlockedIncrement(&_M_element_count);

	mov	edx, DWORD PTR _this$1$[ebp]
	mov	eax, 1
	lock	 xadd	 DWORD PTR [edx+140], eax
	inc	eax
; File c:\program files (x86)\microsoft visual studio\2017\community\vc\tools\msvc\14.10.25017\include\internal_concurrent_hash.h

; 894  :                     _Adjust_table_size(_New_count, _M_number_of_buckets);

	mov	esi, DWORD PTR [edx+148]
	lea	edi, DWORD PTR [edx+148]
	movd	xmm0, eax

; 1221 :         if (((float) _Total_elements / (float) _Current_size) > _M_maximum_bucket_size)

	cvtdq2pd xmm0, xmm0
	shr	eax, 31					; 0000001fH
; File c:\program files (x86)\microsoft visual studio\2017\community\vc\tools\msvc\14.10.25017\include\utility

; 188  : 				second(_STD forward<_Other2>(_Val2))

	mov	BYTE PTR __Result$1[ebp+4], 1
; File c:\program files (x86)\microsoft visual studio\2017\community\vc\tools\msvc\14.10.25017\include\internal_concurrent_hash.h

; 1221 :         if (((float) _Total_elements / (float) _Current_size) > _M_maximum_bucket_size)

	addsd	xmm0, QWORD PTR __xmm@41f00000000000000000000000000000[eax*8]
	mov	eax, esi
	shr	eax, 31					; 0000001fH
	cvtpd2ps xmm1, xmm0
	movd	xmm0, esi
	cvtdq2pd xmm0, xmm0
	addsd	xmm0, QWORD PTR __xmm@41f00000000000000000000000000000[eax*8]
	cvtpd2ps xmm0, xmm0
	divss	xmm1, xmm0
	comiss	xmm1, DWORD PTR [edx+152]
	jbe	SHORT $LN138@Insert

; 1222 :         {
; 1223 :              // Double the size of the hash only if size has not changed inbetween loads
; 1224 :             _InterlockedCompareExchangeSizeT(&_M_number_of_buckets, 2 * _Current_size, _Current_size);

	lea	edx, DWORD PTR [esi+esi]
	mov	eax, esi
	lock	 cmpxchg DWORD PTR [edi], edx
$LN138@Insert:

; 895  :                     return _Result;

	mov	eax, DWORD PTR ___$ReturnUdt$[ebp]
	pop	edi
	pop	esi
	pop	ebx
	mov	DWORD PTR [eax], ecx
	mov	ecx, DWORD PTR __Result$1[ebp+4]
	mov	DWORD PTR [eax+4], ecx

; 923  :     }

	mov	esp, ebp
	pop	ebp
	ret	8
??$_Insert@U?$pair@PAVISteamRemoteStorage@@PAVIWrapSteamRemoteStorage@@@std@@@?$_Concurrent_hash@V?$_Concurrent_unordered_map_traits@PAVISteamRemoteStorage@@PAVIWrapSteamRemoteStorage@@V?$_Hash_compare@PAVISteamRemoteStorage@@U?$hash@PAVISteamRemoteStorage@@@std@@U?$equal_to@PAVISteamRemoteStorage@@@3@@details@Concurrency@@V?$allocator@U?$pair@QAVISteamRemoteStorage@@PAVIWrapSteamRemoteStorage@@@std@@@std@@$0A@@details@Concurrency@@@details@Concurrency@@IAE?AU?$pair@V?$_Solist_iterator@V?$_Split_order_list_value@U?$pair@QAVISteamRemoteStorage@@PAVIWrapSteamRemoteStorage@@@std@@V?$allocator@U?$pair@QAVISteamRemoteStorage@@PAVIWrapSteamRemoteStorage@@@std@@@2@@details@Concurrency@@@details@Concurrency@@_N@std@@$$QAU?$pair@PAVISteamRemoteStorage@@PAVIWrapSteamRemoteStorage@@@4@@Z ENDP ; Concurrency::details::_Concurrent_hash<Concurrency::details::_Concurrent_unordered_map_traits<ISteamRemoteStorage *,IWrapSteamRemoteStorage *,Concurrency::details::_Hash_compare<ISteamRemoteStorage *,std::hash<ISteamRemoteStorage *>,std::equal_to<ISteamRemoteStorage *> >,std::allocator<std::pair<ISteamRemoteStorage * const,IWrapSteamRemoteStorage *> >,0> >::_Insert<std::pair<ISteamRemoteStorage *,IWrapSteamRemoteStorage *> >
_TEXT	ENDS
; Function compile flags: /Ogtp
; File c:\program files (x86)\microsoft visual studio\2017\community\vc\tools\msvc\14.10.25017\include\utility
;	COMDAT ??$make_pair@ABQAVISteamRemoteStorage@@PAVIWrapSteamRemoteStorage@@@std@@YA?AU?$pair@PAVISteamRemoteStorage@@PAVIWrapSteamRemoteStorage@@@0@ABQAVISteamRemoteStorage@@$$QAPAVIWrapSteamRemoteStorage@@@Z
_TEXT	SEGMENT
___$ReturnUdt$ = 8					; size = 4
__Val1$ = 12						; size = 4
__Val2$ = 16						; size = 4
??$make_pair@ABQAVISteamRemoteStorage@@PAVIWrapSteamRemoteStorage@@@std@@YA?AU?$pair@PAVISteamRemoteStorage@@PAVIWrapSteamRemoteStorage@@@0@ABQAVISteamRemoteStorage@@$$QAPAVIWrapSteamRemoteStorage@@@Z PROC ; std::make_pair<ISteamRemoteStorage * const &,IWrapSteamRemoteStorage *>, COMDAT

; 341  : 	{	// return pair composed from arguments

	npad	2
	push	ebp
	mov	ebp, esp

; 187  : 		: first(_STD forward<_Other1>(_Val1)),

	mov	eax, DWORD PTR __Val1$[ebp]
	mov	ecx, DWORD PTR [eax]
	mov	eax, DWORD PTR ___$ReturnUdt$[ebp]
	mov	DWORD PTR [eax], ecx

; 188  : 				second(_STD forward<_Other2>(_Val2))

	mov	ecx, DWORD PTR __Val2$[ebp]
	mov	ecx, DWORD PTR [ecx]
	mov	DWORD PTR [eax+4], ecx

