; Listing generated by Microsoft (R) Optimizing Compiler Version 19.10.25019.0 

	TITLE	C:\Users\andon\Source\Repos\SpecialK\src\utility.cpp
	.686P
	.XMM
	include listing.inc
	.model	flat

INCLUDELIB MSVCRT
INCLUDELIB OLDNAMES

PUBLIC	_IID_IAxWinAmbientDispatchEx
PUBLIC	_IID_IInternalConnection
PUBLIC	?chDirSep@ATL@@3_WB				; ATL::chDirSep
PUBLIC	?chRightBracket@ATL@@3_WB			; ATL::chRightBracket
PUBLIC	?chLeftBracket@ATL@@3_WB			; ATL::chLeftBracket
PUBLIC	?chQuote@ATL@@3_WB				; ATL::chQuote
PUBLIC	?chEquals@ATL@@3_WB				; ATL::chEquals
PUBLIC	?szStringVal@ATL@@3QB_WB			; ATL::szStringVal
PUBLIC	?multiszStringVal@ATL@@3QB_WB			; ATL::multiszStringVal
PUBLIC	?szDwordVal@ATL@@3QB_WB				; ATL::szDwordVal
PUBLIC	?szBinaryVal@ATL@@3QB_WB			; ATL::szBinaryVal
PUBLIC	?szValToken@ATL@@3QB_WB				; ATL::szValToken
PUBLIC	?szForceRemove@ATL@@3QB_WB			; ATL::szForceRemove
PUBLIC	?szNoRemove@ATL@@3QB_WB				; ATL::szNoRemove
PUBLIC	?szDelete@ATL@@3QB_WB				; ATL::szDelete
PUBLIC	_CLSID_Registrar
PUBLIC	_IID_IRegistrar
PUBLIC	?_pAtlAutoThreadModule@ATL@@3PAUIAtlAutoThreadModule@1@A ; ATL::_pAtlAutoThreadModule
PUBLIC	_IID_IDocHostUIHandlerDispatch
PUBLIC	_IID_IAxWinHostWindow
PUBLIC	?_pAtlModule@ATL@@3PAVCAtlModule@1@A		; ATL::_pAtlModule
PUBLIC	_IID_IAxWinHostWindowLic
PUBLIC	?__SK_base_img_addr@@3PAXA			; __SK_base_img_addr
PUBLIC	?__SK_end_img_addr@@3PAXA			; __SK_end_img_addr
PUBLIC	_IID_IAxWinAmbientDispatch
PUBLIC	_LIBID_ATLLib
PUBLIC	___pobjMapEntryFirst
PUBLIC	___pobjMapEntryLast
PUBLIC	?_pPerfRegFunc@ATL@@3P6AJPAUHINSTANCE__@@@ZA	; ATL::_pPerfRegFunc
PUBLIC	?_pPerfUnRegFunc@ATL@@3P6AJXZA			; ATL::_pPerfUnRegFunc
PUBLIC	?_AtlRegisterPerUser@ATL@@3_NA			; ATL::_AtlRegisterPerUser
PUBLIC	?_pModule@ATL@@3PAVCComModule@1@A		; ATL::_pModule
PUBLIC	?__SK_RunDLL_Bypass@@3_NA			; __SK_RunDLL_Bypass
;	COMDAT ?_pAtlAutoThreadModule@ATL@@3PAUIAtlAutoThreadModule@1@A
_BSS	SEGMENT
?_pAtlAutoThreadModule@ATL@@3PAUIAtlAutoThreadModule@1@A DD 01H DUP (?) ; ATL::_pAtlAutoThreadModule
_BSS	ENDS
;	COMDAT ?_pAtlModule@ATL@@3PAVCAtlModule@1@A
_BSS	SEGMENT
?_pAtlModule@ATL@@3PAVCAtlModule@1@A DD 01H DUP (?)	; ATL::_pAtlModule
_BSS	ENDS
_BSS	SEGMENT
?__SK_base_img_addr@@3PAXA DD 01H DUP (?)		; __SK_base_img_addr
?__SK_end_img_addr@@3PAXA DD 01H DUP (?)		; __SK_end_img_addr
?_tableInitialized@@3_NA DB 01H DUP (?)			; _tableInitialized
	ALIGN	4

?append_func@@3P6AIIPBXI@ZA DD 01H DUP (?)		; append_func
_BSS	ENDS
;	COMDAT ?_pPerfRegFunc@ATL@@3P6AJPAUHINSTANCE__@@@ZA
_BSS	SEGMENT
?_pPerfRegFunc@ATL@@3P6AJPAUHINSTANCE__@@@ZA DD 01H DUP (?) ; ATL::_pPerfRegFunc
_BSS	ENDS
;	COMDAT ?_pPerfUnRegFunc@ATL@@3P6AJXZA
_BSS	SEGMENT
?_pPerfUnRegFunc@ATL@@3P6AJXZA DD 01H DUP (?)		; ATL::_pPerfUnRegFunc
_BSS	ENDS
;	COMDAT ?_AtlRegisterPerUser@ATL@@3_NA
_BSS	SEGMENT
?_AtlRegisterPerUser@ATL@@3_NA DB 01H DUP (?)		; ATL::_AtlRegisterPerUser
_BSS	ENDS
;	COMDAT ?_pModule@ATL@@3PAVCComModule@1@A
_BSS	SEGMENT
?_pModule@ATL@@3PAVCComModule@1@A DD 01H DUP (?)	; ATL::_pModule
_BSS	ENDS
_BSS	SEGMENT
?__SK_RunDLL_Bypass@@3_NA DB 01H DUP (?)		; __SK_RunDLL_Bypass
_BSS	ENDS
;	COMDAT ___pobjMapEntryLast
ATL$__z	SEGMENT
___pobjMapEntryLast DD 00H
ATL$__z	ENDS
;	COMDAT ___pobjMapEntryFirst
ATL$__a	SEGMENT
___pobjMapEntryFirst DD 00H
ATL$__a	ENDS
;	COMDAT _LIBID_ATLLib
CONST	SEGMENT
_LIBID_ATLLib DD 044ec0535H
	DW	0400fH
	DW	011d0H
	DB	09dH
	DB	0cdH
	DB	00H
	DB	0a0H
	DB	0c9H
	DB	03H
	DB	091H
	DB	0d3H
CONST	ENDS
;	COMDAT _IID_IAxWinAmbientDispatch
CONST	SEGMENT
_IID_IAxWinAmbientDispatch DD 0b6ea2051H
	DW	048aH
	DW	011d1H
	DB	082H
	DB	0b9H
	DB	00H
	DB	0c0H
	DB	04fH
	DB	0b9H
	DB	094H
	DB	02eH
CONST	ENDS
;	COMDAT _IID_IAxWinHostWindowLic
CONST	SEGMENT
_IID_IAxWinHostWindowLic DD 03935bda8H
	DW	04ed9H
	DW	0495cH
	DB	086H
	DB	050H
	DB	0e0H
	DB	01fH
	DB	0c1H
	DB	0e3H
	DB	08aH
	DB	04bH
CONST	ENDS
;	COMDAT _IID_IAxWinHostWindow
CONST	SEGMENT
_IID_IAxWinHostWindow DD 0b6ea2050H
	DW	048aH
	DW	011d1H
	DB	082H
	DB	0b9H
	DB	00H
	DB	0c0H
	DB	04fH
	DB	0b9H
	DB	094H
	DB	02eH
CONST	ENDS
;	COMDAT _IID_IDocHostUIHandlerDispatch
CONST	SEGMENT
_IID_IDocHostUIHandlerDispatch DD 0425b5af0H
	DW	065f1H
	DW	011d1H
	DB	096H
	DB	011H
	DB	00H
	DB	00H
	DB	0f8H
	DB	01eH
	DB	0dH
	DB	0dH
CONST	ENDS
;	COMDAT _IID_IRegistrar
CONST	SEGMENT
_IID_IRegistrar DD 044ec053bH
	DW	0400fH
	DW	011d0H
	DB	09dH
	DB	0cdH
	DB	00H
	DB	0a0H
	DB	0c9H
	DB	03H
	DB	091H
	DB	0d3H
CONST	ENDS
;	COMDAT _CLSID_Registrar
CONST	SEGMENT
_CLSID_Registrar DD 044ec053aH
	DW	0400fH
	DW	011d0H
	DB	09dH
	DB	0cdH
	DB	00H
	DB	0a0H
	DB	0c9H
	DB	03H
	DB	091H
	DB	0d3H
CONST	ENDS
;	COMDAT ?szDelete@ATL@@3QB_WB
CONST	SEGMENT
?szDelete@ATL@@3QB_WB DD FLAT:$SG180368			; ATL::szDelete
CONST	ENDS
;	COMDAT ?szNoRemove@ATL@@3QB_WB
CONST	SEGMENT
?szNoRemove@ATL@@3QB_WB DD FLAT:$SG180366		; ATL::szNoRemove
CONST	ENDS
;	COMDAT ?szForceRemove@ATL@@3QB_WB
CONST	SEGMENT
?szForceRemove@ATL@@3QB_WB DD FLAT:$SG180364		; ATL::szForceRemove
CONST	ENDS
;	COMDAT ?szValToken@ATL@@3QB_WB
CONST	SEGMENT
?szValToken@ATL@@3QB_WB DD FLAT:$SG180362		; ATL::szValToken
CONST	ENDS
;	COMDAT ?szBinaryVal@ATL@@3QB_WB
CONST	SEGMENT
?szBinaryVal@ATL@@3QB_WB DD FLAT:$SG180360		; ATL::szBinaryVal
CONST	ENDS
;	COMDAT ?szDwordVal@ATL@@3QB_WB
CONST	SEGMENT
?szDwordVal@ATL@@3QB_WB DD FLAT:$SG180358		; ATL::szDwordVal
CONST	ENDS
;	COMDAT ?multiszStringVal@ATL@@3QB_WB
CONST	SEGMENT
?multiszStringVal@ATL@@3QB_WB DD FLAT:$SG180356		; ATL::multiszStringVal
CONST	ENDS
;	COMDAT ?szStringVal@ATL@@3QB_WB
CONST	SEGMENT
?szStringVal@ATL@@3QB_WB DD FLAT:$SG180354		; ATL::szStringVal
CONST	ENDS
;	COMDAT ?chEquals@ATL@@3_WB
CONST	SEGMENT
?chEquals@ATL@@3_WB DW 03dH				; ATL::chEquals
CONST	ENDS
;	COMDAT ?chQuote@ATL@@3_WB
CONST	SEGMENT
?chQuote@ATL@@3_WB DW 027H				; ATL::chQuote
CONST	ENDS
;	COMDAT ?chLeftBracket@ATL@@3_WB
CONST	SEGMENT
?chLeftBracket@ATL@@3_WB DW 07bH			; ATL::chLeftBracket
CONST	ENDS
;	COMDAT ?chRightBracket@ATL@@3_WB
CONST	SEGMENT
?chRightBracket@ATL@@3_WB DW 07dH			; ATL::chRightBracket
CONST	ENDS
;	COMDAT ?chDirSep@ATL@@3_WB
CONST	SEGMENT
?chDirSep@ATL@@3_WB DW 05cH				; ATL::chDirSep
CONST	ENDS
_DATA	SEGMENT
?crc32_tab@@3PAIA DD 00H				; crc32_tab
	DD	077073096H
	DD	0ee0e612cH
	DD	0990951baH
	DD	076dc419H
	DD	0706af48fH
	DD	0e963a535H
	DD	09e6495a3H
	DD	0edb8832H
	DD	079dcb8a4H
	DD	0e0d5e91eH
	DD	097d2d988H
	DD	09b64c2bH
	DD	07eb17cbdH
	DD	0e7b82d07H
	DD	090bf1d91H
	DD	01db71064H
	DD	06ab020f2H
	DD	0f3b97148H
	DD	084be41deH
	DD	01adad47dH
	DD	06ddde4ebH
	DD	0f4d4b551H
	DD	083d385c7H
	DD	0136c9856H
	DD	0646ba8c0H
	DD	0fd62f97aH
	DD	08a65c9ecH
	DD	014015c4fH
	DD	063066cd9H
	DD	0fa0f3d63H
	DD	08d080df5H
	DD	03b6e20c8H
	DD	04c69105eH
	DD	0d56041e4H
	DD	0a2677172H
	DD	03c03e4d1H
	DD	04b04d447H
	DD	0d20d85fdH
	DD	0a50ab56bH
	DD	035b5a8faH
	DD	042b2986cH
	DD	0dbbbc9d6H
	DD	0acbcf940H
	DD	032d86ce3H
	DD	045df5c75H
	DD	0dcd60dcfH
	DD	0abd13d59H
	DD	026d930acH
	DD	051de003aH
	DD	0c8d75180H
	DD	0bfd06116H
	DD	021b4f4b5H
	DD	056b3c423H
	DD	0cfba9599H
	DD	0b8bda50fH
	DD	02802b89eH
	DD	05f058808H
	DD	0c60cd9b2H
	DD	0b10be924H
	DD	02f6f7c87H
	DD	058684c11H
	DD	0c1611dabH
	DD	0b6662d3dH
	DD	076dc4190H
	DD	01db7106H
	DD	098d220bcH
	DD	0efd5102aH
	DD	071b18589H
	DD	06b6b51fH
	DD	09fbfe4a5H
	DD	0e8b8d433H
	DD	07807c9a2H
	DD	0f00f934H
	DD	09609a88eH
	DD	0e10e9818H
	DD	07f6a0dbbH
	DD	086d3d2dH
	DD	091646c97H
	DD	0e6635c01H
	DD	06b6b51f4H
	DD	01c6c6162H
	DD	0856530d8H
	DD	0f262004eH
	DD	06c0695edH
	DD	01b01a57bH
	DD	08208f4c1H
	DD	0f50fc457H
	DD	065b0d9c6H
	DD	012b7e950H
	DD	08bbeb8eaH
	DD	0fcb9887cH
	DD	062dd1ddfH
	DD	015da2d49H
	DD	08cd37cf3H
	DD	0fbd44c65H
	DD	04db26158H
	DD	03ab551ceH
	DD	0a3bc0074H
	DD	0d4bb30e2H
	DD	04adfa541H
	DD	03dd895d7H
	DD	0a4d1c46dH
	DD	0d3d6f4fbH
	DD	04369e96aH
	DD	0346ed9fcH
	DD	0ad678846H
	DD	0da60b8d0H
	DD	044042d73H
	DD	033031de5H
	DD	0aa0a4c5fH
	DD	0dd0d7cc9H
	DD	05005713cH
	DD	0270241aaH
	DD	0be0b1010H
	DD	0c90c2086H
	DD	05768b525H
	DD	0206f85b3H
	DD	0b966d409H
	DD	0ce61e49fH
	DD	05edef90eH
	DD	029d9c998H
	DD	0b0d09822H
	DD	0c7d7a8b4H
	DD	059b33d17H
	DD	02eb40d81H
	DD	0b7bd5c3bH
	DD	0c0ba6cadH
	DD	0edb88320H
	DD	09abfb3b6H
	DD	03b6e20cH
	DD	074b1d29aH
	DD	0ead54739H
	DD	09dd277afH
	DD	04db2615H
	DD	073dc1683H
	DD	0e3630b12H
	DD	094643b84H
	DD	0d6d6a3eH
	DD	07a6a5aa8H
	DD	0e40ecf0bH
	DD	09309ff9dH
	DD	0a00ae27H
	DD	07d079eb1H
	DD	0f00f9344H
	DD	08708a3d2H
	DD	01e01f268H
	DD	06906c2feH
	DD	0f762575dH
	DD	0806567cbH
	DD	0196c3671H
	DD	06e6b06e7H
	DD	0fed41b76H
	DD	089d32be0H
	DD	010da7a5aH
	DD	067dd4accH
	DD	0f9b9df6fH
	DD	08ebeeff9H
	DD	017b7be43H
	DD	060b08ed5H
	DD	0d6d6a3e8H
	DD	0a1d1937eH
	DD	038d8c2c4H
	DD	04fdff252H
	DD	0d1bb67f1H
	DD	0a6bc5767H
	DD	03fb506ddH
	DD	048b2364bH
	DD	0d80d2bdaH
	DD	0af0a1b4cH
	DD	036034af6H
	DD	041047a60H
	DD	0df60efc3H
	DD	0a867df55H
	DD	0316e8eefH
	DD	04669be79H
	DD	0cb61b38cH
	DD	0bc66831aH
	DD	0256fd2a0H
	DD	05268e236H
	DD	0cc0c7795H
	DD	0bb0b4703H
	DD	0220216b9H
	DD	05505262fH
	DD	0c5ba3bbeH
	DD	0b2bd0b28H
	DD	02bb45a92H
	DD	05cb36a04H
	DD	0c2d7ffa7H
	DD	0b5d0cf31H
	DD	02cd99e8bH
	DD	05bdeae1dH
	DD	09b64c2b0H
	DD	0ec63f226H
	DD	0756aa39cH
	DD	026d930aH
	DD	09c0906a9H
	DD	0eb0e363fH
	DD	072076785H
	DD	05005713H
	DD	095bf4a82H
	DD	0e2b87a14H
	DD	07bb12baeH
	DD	0cb61b38H
	DD	092d28e9bH
	DD	0e5d5be0dH
	DD	07cdcefb7H
	DD	0bdbdf21H
	DD	086d3d2d4H
	DD	0f1d4e242H
	DD	068ddb3f8H
	DD	01fda836eH
	DD	081be16cdH
	DD	0f6b9265bH
	DD	06fb077e1H
	DD	018b74777H
	DD	088085ae6H
	DD	0ff0f6a70H
	DD	066063bcaH
	DD	011010b5cH
	DD	08f659effH
	DD	0f862ae69H
	DD	0616bffd3H
	DD	0166ccf45H
	DD	0a00ae278H
	DD	0d70dd2eeH
	DD	04e048354H
	DD	03903b3c2H
	DD	0a7672661H
	DD	0d06016f7H
	DD	04969474dH
	DD	03e6e77dbH
	DD	0aed16a4aH
	DD	0d9d65adcH
	DD	040df0b66H
	DD	037d83bf0H
	DD	0a9bcae53H
	DD	0debb9ec5H
	DD	047b2cf7fH
	DD	030b5ffe9H
	DD	0bdbdf21cH
	DD	0cabac28aH
	DD	053b39330H
	DD	024b4a3a6H
	DD	0bad03605H
	DD	0cdd70693H
	DD	054de5729H
	DD	023d967bfH
	DD	0b3667a2eH
	DD	0c4614ab8H
	DD	05d681b02H
	DD	02a6f2b94H
	DD	0b40bbe37H
	DD	0c30c8ea1H
	DD	05a05df1bH
	DD	02d02ef8dH
_DATA	ENDS
;	COMDAT _IID_IInternalConnection
CONST	SEGMENT
_IID_IInternalConnection DD 072ad0770H
	DW	06a9fH
	DW	011d1H
	DB	0bcH
	DB	0ecH
	DB	00H
	DB	060H
	DB	08H
	DB	08fH
	DB	044H
	DB	04eH
CONST	ENDS
CONST	SEGMENT
$SG183322 DB	'S', 00H, 'K', 00H, 'I', 00H, 00H, 00H
$SG171043 DB	'a', 00H, 't', 00H, 'l', 00H, 'T', 00H, 'r', 00H, 'a', 00H
	DB	'c', 00H, 'e', 00H, 'C', 00H, 'O', 00H, 'M', 00H, 00H, 00H
$SG299087 DB	'\', 00H, 00H, 00H
$SG299091 DB	'\', 00H, 00H, 00H
$SG299089 DB	'[', 00H, 'C', 00H, 'l', 00H, 'e', 00H, 'a', 00H, 'n', 00H
	DB	' ', 00H, 'M', 00H, 'g', 00H, 'r', 00H, '.', 00H, ']', 00H, ' '
	DB	00H, 'C', 00H, 'l', 00H, 'e', 00H, 'a', 00H, 'n', 00H, 'i', 00H
	DB	'n', 00H, 'g', 00H, ' ', 00H, 't', 00H, 'e', 00H, 'm', 00H, 'p'
	DB	00H, 'o', 00H, 'r', 00H, 'a', 00H, 'r', 00H, 'y', 00H, ' ', 00H
	DB	'f', 00H, 'i', 00H, 'l', 00H, 'e', 00H, 's', 00H, ' ', 00H, 'i'
	DB	00H, 'n', 00H, ' ', 00H, '''', 00H, '%', 00H, 's', 00H, '''', 00H
	DB	'.', 00H, '.', 00H, '.', 00H, ' ', 00H, ' ', 00H, ' ', 00H, ' '
	DB	00H, 00H, 00H
?piecewise_construct@std@@3Upiecewise_construct_t@1@B	ORG $+1 ; std::piecewise_construct
	ORG $+1
$SG171090 DB	'a', 00H, 't', 00H, 'l', 00H, 'T', 00H, 'r', 00H, 'a', 00H
	DB	'c', 00H, 'e', 00H, 'Q', 00H, 'I', 00H, 00H, 00H
	ORG $+2
$SG299093 DB	'%', 00H, 'z', 00H, 'u', 00H, ' ', 00H, 'f', 00H, 'i', 00H
	DB	'l', 00H, 'e', 00H, 's', 00H, ' ', 00H, 'd', 00H, 'e', 00H, 'l'
	DB	00H, 'e', 00H, 't', 00H, 'e', 00H, 'd', 00H, 0aH, 00H, 00H, 00H
	ORG $+2
$SG185432 DB	'R', 00H, 'T', 00H, 'S', 00H, 'S', 00H, '.', 00H, 'e', 00H
	DB	'x', 00H, 'e', 00H, 00H, 00H
	ORG $+2
$SG299097 DB	' ', 00H, 00H, 00H
$SG185434 DB	'R', 00H, 'T', 00H, 'S', 00H, 'S', 00H, '.', 00H, 'e', 00H
	DB	'x', 00H, 'e', 00H, 00H, 00H
	ORG $+2
$SG185435 DB	'R', 00H, 'T', 00H, 'S', 00H, 'S', 00H, '.', 00H, 'e', 00H
	DB	'x', 00H, 'e', 00H, 00H, 00H
	ORG $+2
$SG299105 DB	' ', 00H, 00H, 00H
$SG171137 DB	'a', 00H, 't', 00H, 'l', 00H, 'T', 00H, 'r', 00H, 'a', 00H
	DB	'c', 00H, 'e', 00H, 'R', 00H, 'e', 00H, 'g', 00H, 'i', 00H, 's'
	DB	00H, 't', 00H, 'r', 00H, 'a', 00H, 'r', 00H, 00H, 00H
$SG299138 DB	'S', 00H, 'e', 00H, 'R', 00H, 'e', 00H, 's', 00H, 't', 00H
	DB	'o', 00H, 'r', 00H, 'e', 00H, 'P', 00H, 'r', 00H, 'i', 00H, 'v'
	DB	00H, 'i', 00H, 'l', 00H, 'e', 00H, 'g', 00H, 'e', 00H, 00H, 00H
	ORG $+2
$SG180354 DB	'S', 00H, 00H, 00H
$SG299139 DB	'S', 00H, 'e', 00H, 'B', 00H, 'a', 00H, 'c', 00H, 'k', 00H
	DB	'u', 00H, 'p', 00H, 'P', 00H, 'r', 00H, 'i', 00H, 'v', 00H, 'i'
	DB	00H, 'l', 00H, 'e', 00H, 'g', 00H, 'e', 00H, 00H, 00H
$SG180356 DB	'M', 00H, 00H, 00H
$SG180358 DB	'D', 00H, 00H, 00H
$SG180360 DB	'B', 00H, 00H, 00H
$SG180362 DB	'V', 00H, 'a', 00H, 'l', 00H, 00H, 00H
$SG180364 DB	'F', 00H, 'o', 00H, 'r', 00H, 'c', 00H, 'e', 00H, 'R', 00H
	DB	'e', 00H, 'm', 00H, 'o', 00H, 'v', 00H, 'e', 00H, 00H, 00H
$SG180366 DB	'N', 00H, 'o', 00H, 'R', 00H, 'e', 00H, 'm', 00H, 'o', 00H
	DB	'v', 00H, 'e', 00H, 00H, 00H
	ORG $+2
$SG299152 DB	'%', 00H, 's', 00H, 00H, 00H
	ORG $+2
$SG180368 DB	'D', 00H, 'e', 00H, 'l', 00H, 'e', 00H, 't', 00H, 'e', 00H
	DB	00H, 00H
	ORG $+2
$SG299153 DB	'%', 00H, 's', 00H, '.', 00H, '%', 00H, 's', 00H, 00H, 00H
$SG299154 DB	'%', 00H, 's', 00H, 00H, 00H
	ORG $+2
$SG299155 DB	'%', 00H, 's', 00H, '.', 00H, '%', 00H, 's', 00H, 00H, 00H
$SG299156 DB	'%', 00H, 's', 00H, 00H, 00H
	ORG $+2
$SG299157 DB	'%', 00H, 's', 00H, '.', 00H, '%', 00H, 's', 00H, 00H, 00H
$SG171184 DB	'a', 00H, 't', 00H, 'l', 00H, 'T', 00H, 'r', 00H, 'a', 00H
	DB	'c', 00H, 'e', 00H, 'R', 00H, 'e', 00H, 'f', 00H, 'c', 00H, 'o'
	DB	00H, 'u', 00H, 'n', 00H, 't', 00H, 00H, 00H
	ORG $+2
$SG171231 DB	'a', 00H, 't', 00H, 'l', 00H, 'T', 00H, 'r', 00H, 'a', 00H
	DB	'c', 00H, 'e', 00H, 'W', 00H, 'i', 00H, 'n', 00H, 'd', 00H, 'o'
	DB	00H, 'w', 00H, 'i', 00H, 'n', 00H, 'g', 00H, 00H, 00H
$SG299192 DB	'C', 00H, 'a', 00H, 'n', 00H, 'n', 00H, 'o', 00H, 't', 00H
	DB	' ', 00H, 'A', 00H, 'u', 00H, 't', 00H, 'o', 00H, 'm', 00H, 'a'
	DB	00H, 't', 00H, 'i', 00H, 'c', 00H, 'a', 00H, 'l', 00H, 'l', 00H
	DB	'y', 00H, ' ', 00H, 'R', 00H, 'e', 00H, 's', 00H, 't', 00H, 'a'
	DB	00H, 'r', 00H, 't', 00H, ' ', 00H, 'G', 00H, 'a', 00H, 'm', 00H
	DB	'e', 00H, ' ', 00H, 'B', 00H, 'e', 00H, 'c', 00H, 'a', 00H, 'u'
	DB	00H, 's', 00H, 'e', 00H, ' ', 00H, 'o', 00H, 'f', 00H, ' ', 00H
	DB	'B', 00H, 'a', 00H, 'd', 00H, ' ', 00H, 'F', 00H, 'i', 00H, 'l'
	DB	00H, 'e', 00H, ' ', 00H, 's', 00H, 'y', 00H, 's', 00H, 't', 00H
	DB	'e', 00H, 'm', 00H, ' ', 00H, 'P', 00H, 'o', 00H, 'l', 00H, 'i'
	DB	00H, 'c', 00H, 'y', 00H, '.', 00H, 00H, 00H
	ORG $+2
$SG293134 DB	'd', 00H, '3', 00H, 'd', 00H, '9', 00H, 00H, 00H
	ORG $+2
$SG299193 DB	'Y', 00H, 'o', 00H, 'u', 00H, 'r', 00H, ' ', 00H, 'c', 00H
	DB	'o', 00H, 'm', 00H, 'p', 00H, 'u', 00H, 't', 00H, 'e', 00H, 'r'
	DB	00H, ' ', 00H, 'i', 00H, 's', 00H, ' ', 00H, 'm', 00H, 'i', 00H
	DB	's', 00H, 'c', 00H, 'o', 00H, 'n', 00H, 'f', 00H, 'i', 00H, 'g'
	DB	00H, 'u', 00H, 'r', 00H, 'e', 00H, 'd', 00H, ';', 00H, ' ', 00H
	DB	'p', 00H, 'l', 00H, 'e', 00H, 'a', 00H, 's', 00H, 'e', 00H, ' '
	DB	00H, 'e', 00H, 'n', 00H, 'a', 00H, 'b', 00H, 'l', 00H, 'e', 00H
	DB	' ', 00H, 'D', 00H, 'O', 00H, 'S', 00H, ' ', 00H, '8', 00H, '.'
	DB	00H, '3', 00H, ' ', 00H, 'f', 00H, 'i', 00H, 'l', 00H, 'e', 00H
	DB	'n', 00H, 'a', 00H, 'm', 00H, 'e', 00H, ' ', 00H, 'g', 00H, 'e'
	DB	00H, 'n', 00H, 'e', 00H, 'r', 00H, 'a', 00H, 't', 00H, 'i', 00H
	DB	'o', 00H, 'n', 00H, '.', 00H, 0dH, 00H, 0aH, 00H, 0dH, 00H, 0aH
	DB	00H, 09H, 00H, 'T', 00H, 'h', 00H, 'i', 00H, 's', 00H, ' ', 00H
	DB	'i', 00H, 's', 00H, ' ', 00H, 'a', 00H, ' ', 00H, 'c', 00H, 'o'
	DB	00H, 'm', 00H, 'm', 00H, 'o', 00H, 'n', 00H, ' ', 00H, 'p', 00H
	DB	'r', 00H, 'o', 00H, 'b', 00H, 'l', 00H, 'e', 00H, 'm', 00H, ' '
	DB	00H, 'f', 00H, 'o', 00H, 'r', 00H, ' ', 00H, 'n', 00H, 'o', 00H
	DB	'n', 00H, '-', 00H, 'b', 00H, 'o', 00H, 'o', 00H, 't', 00H, ' '
	DB	00H, 'd', 00H, 'r', 00H, 'i', 00H, 'v', 00H, 'e', 00H, 's', 00H
	DB	',', 00H, ' ', 00H, 'p', 00H, 'l', 00H, 'e', 00H, 'a', 00H, 's'
	DB	00H, 'e', 00H, ' ', 00H, 'e', 00H, 'n', 00H, 's', 00H, 'u', 00H
	DB	'r', 00H, 'e', 00H, ' ', 00H, 't', 00H, 'h', 00H, 'a', 00H, 't'
	DB	00H, ' ', 00H, 't', 00H, 'h', 00H, 'e', 00H, ' ', 00H, 'd', 00H
	DB	'r', 00H, 'i', 00H, 'v', 00H, 'e', 00H, ' ', 00H, 'y', 00H, 'o'
	DB	00H, 'u', 00H, 'r', 00H, ' ', 00H, 'g', 00H, 'a', 00H, 'm', 00H
	DB	'e', 00H, ' ', 00H, 'i', 00H, 's', 00H, ' ', 00H, 'i', 00H, 'n'
	DB	00H, 's', 00H, 't', 00H, 'a', 00H, 'l', 00H, 'l', 00H, 'e', 00H
	DB	'd', 00H, ' ', 00H, 't', 00H, 'o', 00H, ' ', 00H, 'h', 00H, 'a'
	DB	00H, 's', 00H, ' ', 00H, '8', 00H, '.', 00H, '3', 00H, ' ', 00H
	DB	'f', 00H, 'i', 00H, 'l', 00H, 'e', 00H, 'n', 00H, 'a', 00H, 'm'
	DB	00H, 'e', 00H, ' ', 00H, 'g', 00H, 'e', 00H, 'n', 00H, 'e', 00H
	DB	'r', 00H, 'a', 00H, 't', 00H, 'i', 00H, 'o', 00H, 'n', 00H, ' '
	DB	00H, 'e', 00H, 'n', 00H, 'a', 00H, 'b', 00H, 'l', 00H, 'e', 00H
	DB	'd', 00H, ' ', 00H, 'a', 00H, 'n', 00H, 'd', 00H, ' ', 00H, 't'
	DB	00H, 'h', 00H, 'e', 00H, 'n', 00H, ' ', 00H, 'r', 00H, 'e', 00H
	DB	'-', 00H, 'i', 00H, 'n', 00H, 's', 00H, 't', 00H, 'a', 00H, 'l'
	DB	00H, 'l', 00H, ' ', 00H, 't', 00H, 'h', 00H, 'e', 00H, ' ', 00H
	DB	'm', 00H, 'o', 00H, 'd', 00H, '.', 00H, 00H, 00H
	ORG $+2
$SG299195 DB	'\', 00H, 'M', 00H, 'y', 00H, ' ', 00H, 'M', 00H, 'o', 00H
	DB	'd', 00H, 's', 00H, '\', 00H, 'S', 00H, 'p', 00H, 'e', 00H, 'c'
	DB	00H, 'i', 00H, 'a', 00H, 'l', 00H, 'K', 00H, '\', 00H, 'S', 00H
	DB	'p', 00H, 'e', 00H, 'c', 00H, 'i', 00H, 'a', 00H, 'l', 00H, 'K'
	DB	00H, 00H, 00H
	ORG $+2
$SG299196 DB	'3', 00H, '2', 00H, '.', 00H, 'd', 00H, 'l', 00H, 'l', 00H
	DB	00H, 00H
	ORG $+2
$SG171278 DB	'a', 00H, 't', 00H, 'l', 00H, 'T', 00H, 'r', 00H, 'a', 00H
	DB	'c', 00H, 'e', 00H, 'C', 00H, 'o', 00H, 'n', 00H, 't', 00H, 'r'
	DB	00H, 'o', 00H, 'l', 00H, 's', 00H, 00H, 00H
	ORG $+2
$SG299199 DB	'R', 00H, 'u', 00H, 'n', 00H, 'D', 00H, 'l', 00H, 'l', 00H
	DB	'3', 00H, '2', 00H, '.', 00H, 'e', 00H, 'x', 00H, 'e', 00H, ' '
	DB	00H, '%', 00H, 's', 00H, ',', 00H, 'R', 00H, 'u', 00H, 'n', 00H
	DB	'D', 00H, 'L', 00H, 'L', 00H, '_', 00H, 'R', 00H, 'e', 00H, 's'
	DB	00H, 't', 00H, 'a', 00H, 'r', 00H, 't', 00H, 'G', 00H, 'a', 00H
	DB	'm', 00H, 'e', 00H, ' ', 00H, '%', 00H, 's', 00H, 00H, 00H
$SG293137 DB	'd', 00H, 'x', 00H, 'g', 00H, 'i', 00H, 00H, 00H
	ORG $+2
$SG299222 DB	'C', 00H, 'a', 00H, 'n', 00H, 'n', 00H, 'o', 00H, 't', 00H
	DB	' ', 00H, 'E', 00H, 'l', 00H, 'e', 00H, 'v', 00H, 'a', 00H, 't'
	DB	00H, 'e', 00H, ' ', 00H, 'T', 00H, 'o', 00H, ' ', 00H, 'A', 00H
	DB	'd', 00H, 'm', 00H, 'i', 00H, 'n', 00H, ' ', 00H, 'B', 00H, 'e'
	DB	00H, 'c', 00H, 'a', 00H, 'u', 00H, 's', 00H, 'e', 00H, ' ', 00H
	DB	'o', 00H, 'f', 00H, ' ', 00H, 'B', 00H, 'a', 00H, 'd', 00H, ' '
	DB	00H, 'F', 00H, 'i', 00H, 'l', 00H, 'e', 00H, ' ', 00H, 's', 00H
	DB	'y', 00H, 's', 00H, 't', 00H, 'e', 00H, 'm', 00H, ' ', 00H, 'P'
	DB	00H, 'o', 00H, 'l', 00H, 'i', 00H, 'c', 00H, 'y', 00H, '.', 00H
	DB	00H, 00H
	ORG $+2
$SG299223 DB	'Y', 00H, 'o', 00H, 'u', 00H, 'r', 00H, ' ', 00H, 'c', 00H
	DB	'o', 00H, 'm', 00H, 'p', 00H, 'u', 00H, 't', 00H, 'e', 00H, 'r'
	DB	00H, ' ', 00H, 'i', 00H, 's', 00H, ' ', 00H, 'm', 00H, 'i', 00H
	DB	's', 00H, 'c', 00H, 'o', 00H, 'n', 00H, 'f', 00H, 'i', 00H, 'g'
	DB	00H, 'u', 00H, 'r', 00H, 'e', 00H, 'd', 00H, ';', 00H, ' ', 00H
	DB	'p', 00H, 'l', 00H, 'e', 00H, 'a', 00H, 's', 00H, 'e', 00H, ' '
	DB	00H, 'e', 00H, 'n', 00H, 'a', 00H, 'b', 00H, 'l', 00H, 'e', 00H
	DB	' ', 00H, 'D', 00H, 'O', 00H, 'S', 00H, ' ', 00H, '8', 00H, '.'
	DB	00H, '3', 00H, ' ', 00H, 'f', 00H, 'i', 00H, 'l', 00H, 'e', 00H
	DB	'n', 00H, 'a', 00H, 'm', 00H, 'e', 00H, ' ', 00H, 'g', 00H, 'e'
	DB	00H, 'n', 00H, 'e', 00H, 'r', 00H, 'a', 00H, 't', 00H, 'i', 00H
	DB	'o', 00H, 'n', 00H, '.', 00H, 0dH, 00H, 0aH, 00H, 0dH, 00H, 0aH
	DB	00H, 09H, 00H, 'T', 00H, 'h', 00H, 'i', 00H, 's', 00H, ' ', 00H
	DB	'i', 00H, 's', 00H, ' ', 00H, 'a', 00H, ' ', 00H, 'c', 00H, 'o'
	DB	00H, 'm', 00H, 'm', 00H, 'o', 00H, 'n', 00H, ' ', 00H, 'p', 00H
	DB	'r', 00H, 'o', 00H, 'b', 00H, 'l', 00H, 'e', 00H, 'm', 00H, ' '
	DB	00H, 'f', 00H, 'o', 00H, 'r', 00H, ' ', 00H, 'n', 00H, 'o', 00H
	DB	'n', 00H, '-', 00H, 'b', 00H, 'o', 00H, 'o', 00H, 't', 00H, ' '
	DB	00H, 'd', 00H, 'r', 00H, 'i', 00H, 'v', 00H, 'e', 00H, 's', 00H
	DB	',', 00H, ' ', 00H, 'p', 00H, 'l', 00H, 'e', 00H, 'a', 00H, 's'
	DB	00H, 'e', 00H, ' ', 00H, 'e', 00H, 'n', 00H, 's', 00H, 'u', 00H
	DB	'r', 00H, 'e', 00H, ' ', 00H, 't', 00H, 'h', 00H, 'a', 00H, 't'
	DB	00H, ' ', 00H, 't', 00H, 'h', 00H, 'e', 00H, ' ', 00H, 'd', 00H
	DB	'r', 00H, 'i', 00H, 'v', 00H, 'e', 00H, ' ', 00H, 'y', 00H, 'o'
	DB	00H, 'u', 00H, 'r', 00H, ' ', 00H, 'g', 00H, 'a', 00H, 'm', 00H
	DB	'e', 00H, ' ', 00H, 'i', 00H, 's', 00H, ' ', 00H, 'i', 00H, 'n'
	DB	00H, 's', 00H, 't', 00H, 'a', 00H, 'l', 00H, 'l', 00H, 'e', 00H
	DB	'd', 00H, ' ', 00H, 't', 00H, 'o', 00H, ' ', 00H, 'h', 00H, 'a'
	DB	00H, 's', 00H, ' ', 00H, '8', 00H, '.', 00H, '3', 00H, ' ', 00H
	DB	'f', 00H, 'i', 00H, 'l', 00H, 'e', 00H, 'n', 00H, 'a', 00H, 'm'
	DB	00H, 'e', 00H, ' ', 00H, 'g', 00H, 'e', 00H, 'n', 00H, 'e', 00H
	DB	'r', 00H, 'a', 00H, 't', 00H, 'i', 00H, 'o', 00H, 'n', 00H, ' '
	DB	00H, 'e', 00H, 'n', 00H, 'a', 00H, 'b', 00H, 'l', 00H, 'e', 00H
	DB	'd', 00H, ' ', 00H, 'a', 00H, 'n', 00H, 'd', 00H, ' ', 00H, 't'
	DB	00H, 'h', 00H, 'e', 00H, 'n', 00H, ' ', 00H, 'r', 00H, 'e', 00H
	DB	'-', 00H, 'i', 00H, 'n', 00H, 's', 00H, 't', 00H, 'a', 00H, 'l'
	DB	00H, 'l', 00H, ' ', 00H, 't', 00H, 'h', 00H, 'e', 00H, ' ', 00H
	DB	'm', 00H, 'o', 00H, 'd', 00H, '.', 00H, 00H, 00H
	ORG $+2
$SG293139 DB	'O', 00H, 'p', 00H, 'e', 00H, 'n', 00H, 'G', 00H, 'L', 00H
	DB	'3', 00H, '2', 00H, 00H, 00H
	ORG $+2
$SG299224 DB	'R', 00H, 'u', 00H, 'n', 00H, 'D', 00H, 'l', 00H, 'l', 00H
	DB	'3', 00H, '2', 00H, '.', 00H, 'e', 00H, 'x', 00H, 'e', 00H, ' '
	DB	00H, '%', 00H, 's', 00H, ',', 00H, 'R', 00H, 'u', 00H, 'n', 00H
	DB	'D', 00H, 'L', 00H, 'L', 00H, '_', 00H, 'E', 00H, 'l', 00H, 'e'
	DB	00H, 'v', 00H, 'a', 00H, 't', 00H, 'e', 00H, 'M', 00H, 'e', 00H
	DB	' ', 00H, '%', 00H, 's', 00H, 00H, 00H
$SG171325 DB	'a', 00H, 't', 00H, 'l', 00H, 'T', 00H, 'r', 00H, 'a', 00H
	DB	'c', 00H, 'e', 00H, 'H', 00H, 'o', 00H, 's', 00H, 't', 00H, 'i'
	DB	00H, 'n', 00H, 'g', 00H, 00H, 00H
$SG171372 DB	'a', 00H, 't', 00H, 'l', 00H, 'T', 00H, 'r', 00H, 'a', 00H
	DB	'c', 00H, 'e', 00H, 'D', 00H, 'B', 00H, 'C', 00H, 'l', 00H, 'i'
	DB	00H, 'e', 00H, 'n', 00H, 't', 00H, 00H, 00H
	ORG $+2
$SG171419 DB	'a', 00H, 't', 00H, 'l', 00H, 'T', 00H, 'r', 00H, 'a', 00H
	DB	'c', 00H, 'e', 00H, 'D', 00H, 'B', 00H, 'P', 00H, 'r', 00H, 'o'
	DB	00H, 'v', 00H, 'i', 00H, 'd', 00H, 'e', 00H, 'r', 00H, 00H, 00H
	ORG $+2
$SG171466 DB	'a', 00H, 't', 00H, 'l', 00H, 'T', 00H, 'r', 00H, 'a', 00H
	DB	'c', 00H, 'e', 00H, 'S', 00H, 'n', 00H, 'a', 00H, 'p', 00H, 'i'
	DB	00H, 'n', 00H, 00H, 00H
	ORG $+2
$SG171513 DB	'a', 00H, 't', 00H, 'l', 00H, 'T', 00H, 'r', 00H, 'a', 00H
	DB	'c', 00H, 'e', 00H, 'N', 00H, 'o', 00H, 't', 00H, 'I', 00H, 'm'
	DB	00H, 'p', 00H, 'l', 00H, 00H, 00H
$SG171560 DB	'a', 00H, 't', 00H, 'l', 00H, 'T', 00H, 'r', 00H, 'a', 00H
	DB	'c', 00H, 'e', 00H, 'A', 00H, 'l', 00H, 'l', 00H, 'o', 00H, 'c'
	DB	00H, 'a', 00H, 't', 00H, 'i', 00H, 'o', 00H, 'n', 00H, 00H, 00H
	ORG $+2
$SG171607 DB	'a', 00H, 't', 00H, 'l', 00H, 'T', 00H, 'r', 00H, 'a', 00H
	DB	'c', 00H, 'e', 00H, 'E', 00H, 'x', 00H, 'c', 00H, 'e', 00H, 'p'
	DB	00H, 't', 00H, 'i', 00H, 'o', 00H, 'n', 00H, 00H, 00H
$SG298584 DB	'[', 00H, 'I', 00H, 'm', 00H, 'p', 00H, 'o', 00H, 'r', 00H
	DB	't', 00H, ' ', 00H, 'T', 00H, 'b', 00H, 'l', 00H, ']', 00H, ' '
	DB	00H, 'A', 00H, 'c', 00H, 'c', 00H, 'e', 00H, 's', 00H, 's', 00H
	DB	' ', 00H, 'V', 00H, 'i', 00H, 'o', 00H, 'l', 00H, 'a', 00H, 't'
	DB	00H, 'i', 00H, 'o', 00H, 'n', 00H, ' ', 00H, 'A', 00H, 't', 00H
	DB	't', 00H, 'e', 00H, 'm', 00H, 'p', 00H, 't', 00H, 'i', 00H, 'n'
	DB	00H, 'g', 00H, ' ', 00H, 't', 00H, 'o', 00H, ' ', 00H, 'W', 00H
	DB	'a', 00H, 'l', 00H, 'k', 00H, ' ', 00H, 'I', 00H, 'm', 00H, 'p'
	DB	00H, 'o', 00H, 'r', 00H, 't', 00H, ' ', 00H, 'T', 00H, 'a', 00H
	DB	'b', 00H, 'l', 00H, 'e', 00H, '.', 00H, 00H, 00H
	ORG $+2
$SG298600 DB	'OpenGL32.dll', 00H
	ORG $+3
$SG298601 DB	'vulkan-1.dll', 00H
	ORG $+3
$SG298602 DB	'd3d9.dll', 00H
	ORG $+3
$SG298603 DB	'd3d11.dll', 00H
	ORG $+2
$SG298604 DB	'd3d8.dll', 00H
	ORG $+3
$SG298605 DB	'ddraw.dll', 00H
	ORG $+2
$SG298606 DB	'glide.dll', 00H
	ORG $+2
$SG171654 DB	'a', 00H, 't', 00H, 'l', 00H, 'T', 00H, 'r', 00H, 'a', 00H
	DB	'c', 00H, 'e', 00H, 'T', 00H, 'i', 00H, 'm', 00H, 'e', 00H, 00H
	DB	00H
	ORG $+2
$SG298671 DB	'\', 00H, 00H, 00H
$SG298674 DB	'\', 00H, 'V', 00H, 'a', 00H, 'r', 00H, 'F', 00H, 'i', 00H
	DB	'l', 00H, 'e', 00H, 'I', 00H, 'n', 00H, 'f', 00H, 'o', 00H, '\'
	DB	00H, 'T', 00H, 'r', 00H, 'a', 00H, 'n', 00H, 's', 00H, 'l', 00H
	DB	'a', 00H, 't', 00H, 'i', 00H, 'o', 00H, 'n', 00H, 00H, 00H
	ORG $+2
$SG298675 DB	'\', 00H, 'S', 00H, 't', 00H, 'r', 00H, 'i', 00H, 'n', 00H
	DB	'g', 00H, 'F', 00H, 'i', 00H, 'l', 00H, 'e', 00H, 'I', 00H, 'n'
	DB	00H, 'f', 00H, 'o', 00H, '\', 00H, '%', 00H, '0', 00H, '4', 00H
	DB	'x', 00H, '%', 00H, '0', 00H, '4', 00H, 'x', 00H, '\', 00H, 'P'
	DB	00H, 'r', 00H, 'o', 00H, 'd', 00H, 'u', 00H, 'c', 00H, 't', 00H
	DB	'N', 00H, 'a', 00H, 'm', 00H, 'e', 00H, 00H, 00H
	ORG $+2
$SG298676 DB	'S', 00H, 'p', 00H, 'e', 00H, 'c', 00H, 'i', 00H, 'a', 00H
	DB	'l', 00H, ' ', 00H, 'K', 00H, 00H, 00H
$SG171701 DB	'a', 00H, 't', 00H, 'l', 00H, 'T', 00H, 'r', 00H, 'a', 00H
	DB	'c', 00H, 'e', 00H, 'C', 00H, 'a', 00H, 'c', 00H, 'h', 00H, 'e'
	DB	00H, 00H, 00H
$SG298710 DB	'N', 00H, '/', 00H, 'A', 00H, 00H, 00H
$SG298712 DB	'\', 00H, 'V', 00H, 'a', 00H, 'r', 00H, 'F', 00H, 'i', 00H
	DB	'l', 00H, 'e', 00H, 'I', 00H, 'n', 00H, 'f', 00H, 'o', 00H, '\'
	DB	00H, 'T', 00H, 'r', 00H, 'a', 00H, 'n', 00H, 's', 00H, 'l', 00H
	DB	'a', 00H, 't', 00H, 'i', 00H, 'o', 00H, 'n', 00H, 00H, 00H
	ORG $+2
$SG298713 DB	'\', 00H, 'S', 00H, 't', 00H, 'r', 00H, 'i', 00H, 'n', 00H
	DB	'g', 00H, 'F', 00H, 'i', 00H, 'l', 00H, 'e', 00H, 'I', 00H, 'n'
	DB	00H, 'f', 00H, 'o', 00H, '\', 00H, '%', 00H, '0', 00H, '4', 00H
	DB	'x', 00H, '%', 00H, '0', 00H, '4', 00H, 'x', 00H, '\', 00H, 'F'
	DB	00H, 'i', 00H, 'l', 00H, 'e', 00H, 'D', 00H, 'e', 00H, 's', 00H
	DB	'c', 00H, 'r', 00H, 'i', 00H, 'p', 00H, 't', 00H, 'i', 00H, 'o'
	DB	00H, 'n', 00H, 00H, 00H
	ORG $+2
$SG298718 DB	00H, 00H
	ORG $+2
$SG298714 DB	'\', 00H, 'S', 00H, 't', 00H, 'r', 00H, 'i', 00H, 'n', 00H
	DB	'g', 00H, 'F', 00H, 'i', 00H, 'l', 00H, 'e', 00H, 'I', 00H, 'n'
	DB	00H, 'f', 00H, 'o', 00H, '\', 00H, '%', 00H, '0', 00H, '4', 00H
	DB	'x', 00H, '%', 00H, '0', 00H, '4', 00H, 'x', 00H, '\', 00H, 'F'
	DB	00H, 'i', 00H, 'l', 00H, 'e', 00H, 'V', 00H, 'e', 00H, 'r', 00H
	DB	's', 00H, 'i', 00H, 'o', 00H, 'n', 00H, 00H, 00H
	ORG $+2
$SG298717 DB	' ', 00H, ' ', 00H, 00H, 00H
	ORG $+2
$SG298720 DB	' ', 00H, ' ', 00H, 00H, 00H
	ORG $+2
$SG171748 DB	'a', 00H, 't', 00H, 'l', 00H, 'T', 00H, 'r', 00H, 'a', 00H
	DB	'c', 00H, 'e', 00H, 'S', 00H, 't', 00H, 'e', 00H, 'n', 00H, 'c'
	DB	00H, 'i', 00H, 'l', 00H, 00H, 00H
$SG171795 DB	'a', 00H, 't', 00H, 'l', 00H, 'T', 00H, 'r', 00H, 'a', 00H
	DB	'c', 00H, 'e', 00H, 'S', 00H, 't', 00H, 'r', 00H, 'i', 00H, 'n'
	DB	00H, 'g', 00H, 00H, 00H
	ORG $+2
$SG181044 DB	'A', 00H, 'p', 00H, 'p', 00H, 'I', 00H, 'D', 00H, 00H, 00H
$SG298781 DB	'[', 00H, ' ', 00H, 'S', 00H, 'i', 00H, 'g', 00H, ' ', 00H
	DB	'S', 00H, 'c', 00H, 'a', 00H, 'n', 00H, ' ', 00H, ']', 00H, ' '
	DB	00H, 'M', 00H, 'o', 00H, 'd', 00H, 'u', 00H, 'l', 00H, 'e', 00H
	DB	' ', 00H, 'p', 00H, 'a', 00H, 'g', 00H, 'e', 00H, ' ', 00H, 'w'
	DB	00H, 'a', 00H, 'l', 00H, 'k', 00H, ' ', 00H, 'r', 00H, 'e', 00H
	DB	's', 00H, 'u', 00H, 'l', 00H, 't', 00H, 'e', 00H, 'd', 00H, ' '
	DB	00H, 'i', 00H, 'n', 00H, ' ', 00H, 'e', 00H, 'n', 00H, 'd', 00H
	DB	' ', 00H, 'a', 00H, 'd', 00H, 'd', 00H, 'r', 00H, '.', 00H, ' '
	DB	00H, 'o', 00H, 'u', 00H, 't', 00H, '-', 00H, 'o', 00H, 'f', 00H
	DB	'-', 00H, 'r', 00H, 'a', 00H, 'n', 00H, 'g', 00H, 'e', 00H, ':'
	DB	00H, ' ', 00H, '%', 00H, 'p', 00H, 'h', 00H, 00H, 00H
$SG181045 DB	'C', 00H, 'L', 00H, 'S', 00H, 'I', 00H, 'D', 00H, 00H, 00H
$SG298782 DB	'[', 00H, ' ', 00H, 'S', 00H, 'i', 00H, 'g', 00H, ' ', 00H
	DB	'S', 00H, 'c', 00H, 'a', 00H, 'n', 00H, ' ', 00H, ']', 00H, ' '
	DB	00H, ' ', 00H, '>', 00H, '>', 00H, ' ', 00H, 'R', 00H, 'e', 00H
	DB	's', 00H, 't', 00H, 'r', 00H, 'i', 00H, 'c', 00H, 't', 00H, 'i'
	DB	00H, 'n', 00H, 'g', 00H, ' ', 00H, 't', 00H, 'o', 00H, ' ', 00H
	DB	'%', 00H, 'p', 00H, 'h', 00H, 00H, 00H
$SG181046 DB	'C', 00H, 'o', 00H, 'm', 00H, 'p', 00H, 'o', 00H, 'n', 00H
	DB	'e', 00H, 'n', 00H, 't', 00H, ' ', 00H, 'C', 00H, 'a', 00H, 't'
	DB	00H, 'e', 00H, 'g', 00H, 'o', 00H, 'r', 00H, 'i', 00H, 'e', 00H
	DB	's', 00H, 00H, 00H
	ORG $+2
$SG181047 DB	'F', 00H, 'i', 00H, 'l', 00H, 'e', 00H, 'T', 00H, 'y', 00H
	DB	'p', 00H, 'e', 00H, 00H, 00H
	ORG $+2
$SG181048 DB	'I', 00H, 'n', 00H, 't', 00H, 'e', 00H, 'r', 00H, 'f', 00H
	DB	'a', 00H, 'c', 00H, 'e', 00H, 00H, 00H
$SG181049 DB	'H', 00H, 'a', 00H, 'r', 00H, 'd', 00H, 'w', 00H, 'a', 00H
	DB	'r', 00H, 'e', 00H, 00H, 00H
	ORG $+2
$SG181050 DB	'M', 00H, 'i', 00H, 'm', 00H, 'e', 00H, 00H, 00H
	ORG $+2
$SG181051 DB	'S', 00H, 'A', 00H, 'M', 00H, 00H, 00H
$SG181052 DB	'S', 00H, 'E', 00H, 'C', 00H, 'U', 00H, 'R', 00H, 'I', 00H
	DB	'T', 00H, 'Y', 00H, 00H, 00H
	ORG $+2
$SG181053 DB	'S', 00H, 'Y', 00H, 'S', 00H, 'T', 00H, 'E', 00H, 'M', 00H
	DB	00H, 00H
	ORG $+2
$SG181054 DB	'S', 00H, 'o', 00H, 'f', 00H, 't', 00H, 'w', 00H, 'a', 00H
	DB	'r', 00H, 'e', 00H, 00H, 00H
	ORG $+2
$SG181055 DB	'T', 00H, 'y', 00H, 'p', 00H, 'e', 00H, 'L', 00H, 'i', 00H
	DB	'b', 00H, 00H, 00H
$SG171842 DB	'a', 00H, 't', 00H, 'l', 00H, 'T', 00H, 'r', 00H, 'a', 00H
	DB	'c', 00H, 'e', 00H, 'M', 00H, 'a', 00H, 'p', 00H, 00H, 00H
$SG171847 DB	'a', 00H, 't', 00H, 'l', 00H, 'T', 00H, 'r', 00H, 'a', 00H
	DB	'c', 00H, 'e', 00H, 'U', 00H, 't', 00H, 'i', 00H, 'l', 00H, 00H
	DB	00H
	ORG $+2
$SG299848 DB	'S', 00H, 'K', 00H, 'I', 00H, 'M', 00H, 00H, 00H
	ORG $+2
$SG299849 DB	'R', 00H, 'u', 00H, 'n', 00H, 'D', 00H, 'L', 00H, 'L', 00H
	DB	'3', 00H, '2', 00H, 00H, 00H
	ORG $+2
$SG171894 DB	'a', 00H, 't', 00H, 'l', 00H, 'T', 00H, 'r', 00H, 'a', 00H
	DB	'c', 00H, 'e', 00H, 'S', 00H, 'e', 00H, 'c', 00H, 'u', 00H, 'r'
	DB	00H, 'i', 00H, 't', 00H, 'y', 00H, 00H, 00H
	ORG $+2
$SG183176 DB	'(', 00H, 'n', 00H, 'u', 00H, 'l', 00H, 'l', 00H, ')', 00H
	DB	00H, 00H
	ORG $+2
$SG183189 DB	'(', 00H, 'n', 00H, 'u', 00H, 'l', 00H, 'l', 00H, ')', 00H
	DB	00H, 00H
	ORG $+2
$SG171941 DB	'a', 00H, 't', 00H, 'l', 00H, 'T', 00H, 'r', 00H, 'a', 00H
	DB	'c', 00H, 'e', 00H, 'S', 00H, 'y', 00H, 'n', 00H, 'c', 00H, 00H
	DB	00H
	ORG $+2
$SG171988 DB	'a', 00H, 't', 00H, 'l', 00H, 'T', 00H, 'r', 00H, 'a', 00H
	DB	'c', 00H, 'e', 00H, 'I', 00H, 'S', 00H, 'A', 00H, 'P', 00H, 'I'
	DB	00H, 00H, 00H
$SG170972 DB	'a', 00H, 't', 00H, 'l', 00H, 'T', 00H, 'r', 00H, 'a', 00H
	DB	'c', 00H, 'e', 00H, 'G', 00H, 'e', 00H, 'n', 00H, 'e', 00H, 'r'
	DB	00H, 'a', 00H, 'l', 00H, 00H, 00H
$SG298974 DB	'S', 00H, 'K', 00H, 'I', 00H, 'M', 00H, 00H, 00H
	ORG $+2
$SG298982 DB	'R', 00H, 'u', 00H, 'n', 00H, 'd', 00H, 'l', 00H, 'l', 00H
	DB	'3', 00H, '2', 00H, 00H, 00H
	ORG $+2
$SG298985 DB	'R', 00H, 'u', 00H, 'n', 00H, 'D', 00H, 'L', 00H, 'L', 00H
	DB	'_', 00H, 00H, 00H
$SG299006 DB	'\', 00H, 'S', 00H, 'p', 00H, 'e', 00H, 'c', 00H, 'i', 00H
	DB	'a', 00H, 'l', 00H, 'K', 00H, '.', 00H, 'd', 00H, 'e', 00H, 'n'
	DB	00H, 'y', 00H, '.', 00H, 00H, 00H
$SG183294 DB	'O', 00H, 'U', 00H, 'T', 00H, '_', 00H, 'O', 00H, 'F', 00H
	DB	'_', 00H, 'M', 00H, 'E', 00H, 'M', 00H, 'O', 00H, 'R', 00H, 'Y'
	DB	00H, 00H, 00H
CONST	ENDS
;	COMDAT _IID_IAxWinAmbientDispatchEx
CONST	SEGMENT
_IID_IAxWinAmbientDispatchEx DD 0b2d0778bH
	DW	0ac99H
	DW	04c58H
	DB	0a5H
	DB	0c8H
	DB	0e7H
	DB	072H
	DB	04eH
	DB	053H
	DB	016H
	DB	0b5H
CONST	ENDS
PUBLIC	?__empty_global_delete@@YAXPAX@Z		; __empty_global_delete
PUBLIC	?__empty_global_delete@@YAXPAXI@Z		; __empty_global_delete
PUBLIC	?wcsrchr@@YAPA_WPA_W_W@Z			; wcsrchr
PUBLIC	?wcsstr@@YAPA_WPA_WPB_W@Z			; wcsstr
PUBLIC	?strstr@@YAPADQADQBD@Z				; strstr
PUBLIC	_HRESULT_FROM_WIN32
PUBLIC	?_InterlockedCompareExchange@@YAKPCKKK@Z	; _InterlockedCompareExchange
PUBLIC	??$__vcrt_va_start_verify_argument_type@QB_W@@YAXXZ ; __vcrt_va_start_verify_argument_type<wchar_t const * const>
PUBLIC	_wmemcpy
PUBLIC	_wmemmove
PUBLIC	_wmemset
PUBLIC	?max@?$numeric_limits@I@std@@SAIXZ		; std::numeric_limits<unsigned int>::max
PUBLIC	??2@YAPAXIPAX@Z					; operator new
PUBLIC	?length@?$char_traits@_W@std@@SAIQB_W@Z		; std::char_traits<wchar_t>::length
PUBLIC	?copy@?$char_traits@_W@std@@SAPA_WQA_WQB_WI@Z	; std::char_traits<wchar_t>::copy
PUBLIC	?move@?$char_traits@_W@std@@SAPA_WQA_WQB_WI@Z	; std::char_traits<wchar_t>::move
PUBLIC	?assign@?$char_traits@_W@std@@SAPA_WQA_WI_W@Z	; std::char_traits<wchar_t>::assign
PUBLIC	?assign@?$char_traits@_W@std@@SAXAA_WAB_W@Z	; std::char_traits<wchar_t>::assign
PUBLIC	?compare@?$char_traits@D@std@@SAHQBD0I@Z	; std::char_traits<char>::compare
PUBLIC	?length@?$char_traits@D@std@@SAIQBD@Z		; std::char_traits<char>::length
PUBLIC	?copy@?$char_traits@D@std@@SAPADQADQBDI@Z	; std::char_traits<char>::copy
PUBLIC	?move@?$char_traits@D@std@@SAPADQADQBDI@Z	; std::char_traits<char>::move
PUBLIC	?assign@?$char_traits@D@std@@SAPADQADID@Z	; std::char_traits<char>::assign
PUBLIC	?assign@?$char_traits@D@std@@SAXAADABD@Z	; std::char_traits<char>::assign
PUBLIC	?_Orphan_all@_Container_base0@std@@QAEXXZ	; std::_Container_base0::_Orphan_all
PUBLIC	?_Adopt@_Iterator_base0@std@@QAEXPBX@Z		; std::_Iterator_base0::_Adopt
PUBLIC	??0_Container_proxy@std@@QAE@XZ			; std::_Container_proxy::_Container_proxy
PUBLIC	??0_Container_base12@std@@QAE@XZ		; std::_Container_base12::_Container_base12
PUBLIC	??1_Container_base12@std@@QAE@XZ		; std::_Container_base12::~_Container_base12
PUBLIC	?_Orphan_all@_Container_base12@std@@QAEXXZ	; std::_Container_base12::_Orphan_all
PUBLIC	?_Swap_all@_Container_base12@std@@QAEXAAU12@@Z	; std::_Container_base12::_Swap_all
PUBLIC	??0_Iterator_base12@std@@QAE@XZ			; std::_Iterator_base12::_Iterator_base12
PUBLIC	??1_Iterator_base12@std@@QAE@XZ			; std::_Iterator_base12::~_Iterator_base12
PUBLIC	?_Adopt@_Iterator_base12@std@@QAEXPBU_Container_base12@2@@Z ; std::_Iterator_base12::_Adopt
PUBLIC	?_Getcont@_Iterator_base12@std@@QBEPBU_Container_base12@2@XZ ; std::_Iterator_base12::_Getcont
PUBLIC	?_Allocate@std@@YAPAXII_N@Z			; std::_Allocate
PUBLIC	?_Deallocate@std@@YAXPAXII@Z			; std::_Deallocate
PUBLIC	??0?$allocator@D@std@@QAE@XZ			; std::allocator<char>::allocator<char>
PUBLIC	??0?$allocator@D@std@@QAE@ABV01@@Z		; std::allocator<char>::allocator<char>
PUBLIC	?deallocate@?$allocator@D@std@@QAEXPADI@Z	; std::allocator<char>::deallocate
PUBLIC	?allocate@?$allocator@D@std@@QAEPADI@Z		; std::allocator<char>::allocate
PUBLIC	?max_size@?$allocator@D@std@@QBEIXZ		; std::allocator<char>::max_size
PUBLIC	?max_size@?$allocator_traits@V?$allocator@D@std@@@std@@SAIABV?$allocator@D@2@@Z ; std::allocator_traits<std::allocator<char> >::max_size
PUBLIC	?address@?$_Wrap_alloc@V?$allocator@D@std@@@std@@QBEPADAAD@Z ; std::_Wrap_alloc<std::allocator<char> >::address
PUBLIC	??0?$_Wrap_alloc@V?$allocator@D@std@@@std@@QAE@XZ ; std::_Wrap_alloc<std::allocator<char> >::_Wrap_alloc<std::allocator<char> >
PUBLIC	??0?$_Wrap_alloc@V?$allocator@D@std@@@std@@QAE@$$QAU01@@Z ; std::_Wrap_alloc<std::allocator<char> >::_Wrap_alloc<std::allocator<char> >
PUBLIC	?allocate@?$_Wrap_alloc@V?$allocator@D@std@@@std@@QAEPADI@Z ; std::_Wrap_alloc<std::allocator<char> >::allocate
PUBLIC	?deallocate@?$_Wrap_alloc@V?$allocator@D@std@@@std@@QAEXPADI@Z ; std::_Wrap_alloc<std::allocator<char> >::deallocate
PUBLIC	?max_size@?$_Wrap_alloc@V?$allocator@D@std@@@std@@QBEIU_Nil@2@@Z ; std::_Wrap_alloc<std::allocator<char> >::max_size
PUBLIC	??0?$_String_val@U?$_Simple_types@D@std@@@std@@QAE@XZ ; std::_String_val<std::_Simple_types<char> >::_String_val<std::_Simple_types<char> >
PUBLIC	?_Myptr@?$_String_val@U?$_Simple_types@D@std@@@std@@QAEPADXZ ; std::_String_val<std::_Simple_types<char> >::_Myptr
PUBLIC	?_Myptr@?$_String_val@U?$_Simple_types@D@std@@@std@@QBEPBDXZ ; std::_String_val<std::_Simple_types<char> >::_Myptr
PUBLIC	?_Large_string_engaged@?$_String_val@U?$_Simple_types@D@std@@@std@@QBE_NXZ ; std::_String_val<std::_Simple_types<char> >::_Large_string_engaged
PUBLIC	??0_Bxty@?$_String_val@U?$_Simple_types@D@std@@@std@@QAE@XZ ; std::_String_val<std::_Simple_types<char> >::_Bxty::_Bxty
PUBLIC	??1_Bxty@?$_String_val@U?$_Simple_types@D@std@@@std@@QAE@XZ ; std::_String_val<std::_Simple_types<char> >::_Bxty::~_Bxty
PUBLIC	??1?$_String_val@U?$_Simple_types@D@std@@@std@@QAE@XZ ; std::_String_val<std::_Simple_types<char> >::~_String_val<std::_Simple_types<char> >
PUBLIC	?_Myptr@?$_String_alloc@U?$_String_base_types@DV?$allocator@D@std@@@std@@@std@@QAEPADXZ ; std::_String_alloc<std::_String_base_types<char,std::allocator<char> > >::_Myptr
PUBLIC	?_Myptr@?$_String_alloc@U?$_String_base_types@DV?$allocator@D@std@@@std@@@std@@QBEPBDXZ ; std::_String_alloc<std::_String_base_types<char,std::allocator<char> > >::_Myptr
PUBLIC	??0?$_String_alloc@U?$_String_base_types@DV?$allocator@D@std@@@std@@@std@@QAE@XZ ; std::_String_alloc<std::_String_base_types<char,std::allocator<char> > >::_String_alloc<std::_String_base_types<char,std::allocator<char> > >
PUBLIC	?_Orphan_all@?$_String_alloc@U?$_String_base_types@DV?$allocator@D@std@@@std@@@std@@QAEXXZ ; std::_String_alloc<std::_String_base_types<char,std::allocator<char> > >::_Orphan_all
PUBLIC	?_Getal@?$_String_alloc@U?$_String_base_types@DV?$allocator@D@std@@@std@@@std@@QAEAAU?$_Wrap_alloc@V?$allocator@D@std@@@2@XZ ; std::_String_alloc<std::_String_base_types<char,std::allocator<char> > >::_Getal
PUBLIC	?_Getal@?$_String_alloc@U?$_String_base_types@DV?$allocator@D@std@@@std@@@std@@QBEABU?$_Wrap_alloc@V?$allocator@D@std@@@2@XZ ; std::_String_alloc<std::_String_base_types<char,std::allocator<char> > >::_Getal
PUBLIC	?_Get_data@?$_String_alloc@U?$_String_base_types@DV?$allocator@D@std@@@std@@@std@@QAEAAV?$_String_val@U?$_Simple_types@D@std@@@2@XZ ; std::_String_alloc<std::_String_base_types<char,std::allocator<char> > >::_Get_data
PUBLIC	?_Get_data@?$_String_alloc@U?$_String_base_types@DV?$allocator@D@std@@@std@@@std@@QBEABV?$_String_val@U?$_Simple_types@D@std@@@2@XZ ; std::_String_alloc<std::_String_base_types<char,std::allocator<char> > >::_Get_data
PUBLIC	?_Mysize@?$_String_alloc@U?$_String_base_types@DV?$allocator@D@std@@@std@@@std@@QAEAAIXZ ; std::_String_alloc<std::_String_base_types<char,std::allocator<char> > >::_Mysize
PUBLIC	?_Mysize@?$_String_alloc@U?$_String_base_types@DV?$allocator@D@std@@@std@@@std@@QBEABIXZ ; std::_String_alloc<std::_String_base_types<char,std::allocator<char> > >::_Mysize
PUBLIC	?_Myres@?$_String_alloc@U?$_String_base_types@DV?$allocator@D@std@@@std@@@std@@QAEAAIXZ ; std::_String_alloc<std::_String_base_types<char,std::allocator<char> > >::_Myres
PUBLIC	?_Get_first@?$_Compressed_pair@U?$_Wrap_alloc@V?$allocator@D@std@@@std@@V?$_String_val@U?$_Simple_types@D@std@@@2@$00@std@@QAEAAU?$_Wrap_alloc@V?$allocator@D@std@@@2@XZ ; std::_Compressed_pair<std::_Wrap_alloc<std::allocator<char> >,std::_String_val<std::_Simple_types<char> >,1>::_Get_first
PUBLIC	?_Get_first@?$_Compressed_pair@U?$_Wrap_alloc@V?$allocator@D@std@@@std@@V?$_String_val@U?$_Simple_types@D@std@@@2@$00@std@@QBEABU?$_Wrap_alloc@V?$allocator@D@std@@@2@XZ ; std::_Compressed_pair<std::_Wrap_alloc<std::allocator<char> >,std::_String_val<std::_Simple_types<char> >,1>::_Get_first
PUBLIC	?_Get_second@?$_Compressed_pair@U?$_Wrap_alloc@V?$allocator@D@std@@@std@@V?$_String_val@U?$_Simple_types@D@std@@@2@$00@std@@QAEAAV?$_String_val@U?$_Simple_types@D@std@@@2@XZ ; std::_Compressed_pair<std::_Wrap_alloc<std::allocator<char> >,std::_String_val<std::_Simple_types<char> >,1>::_Get_second
PUBLIC	?_Get_second@?$_Compressed_pair@U?$_Wrap_alloc@V?$allocator@D@std@@@std@@V?$_String_val@U?$_Simple_types@D@std@@@2@$00@std@@QBEABV?$_String_val@U?$_Simple_types@D@std@@@2@XZ ; std::_Compressed_pair<std::_Wrap_alloc<std::allocator<char> >,std::_String_val<std::_Simple_types<char> >,1>::_Get_second
PUBLIC	??1?$_Compressed_pair@U?$_Wrap_alloc@V?$allocator@D@std@@@std@@V?$_String_val@U?$_Simple_types@D@std@@@2@$00@std@@QAE@XZ ; std::_Compressed_pair<std::_Wrap_alloc<std::allocator<char> >,std::_String_val<std::_Simple_types<char> >,1>::~_Compressed_pair<std::_Wrap_alloc<std::allocator<char> >,std::_String_val<std::_Simple_types<char> >,1>
PUBLIC	??1?$_String_alloc@U?$_String_base_types@DV?$allocator@D@std@@@std@@@std@@QAE@XZ ; std::_String_alloc<std::_String_base_types<char,std::allocator<char> > >::~_String_alloc<std::_String_base_types<char,std::allocator<char> > >
PUBLIC	??0?$basic_string@DU?$char_traits@D@std@@V?$allocator@D@2@@std@@QAE@XZ ; std::basic_string<char,std::char_traits<char>,std::allocator<char> >::basic_string<char,std::char_traits<char>,std::allocator<char> >
PUBLIC	??0?$basic_string@DU?$char_traits@D@std@@V?$allocator@D@2@@std@@QAE@QBD@Z ; std::basic_string<char,std::char_traits<char>,std::allocator<char> >::basic_string<char,std::char_traits<char>,std::allocator<char> >
PUBLIC	??0?$basic_string@DU?$char_traits@D@std@@V?$allocator@D@2@@std@@QAE@$$QAV01@@Z ; std::basic_string<char,std::char_traits<char>,std::allocator<char> >::basic_string<char,std::char_traits<char>,std::allocator<char> >
PUBLIC	?_Assign_rv_contents_with_alloc_always_equal@?$basic_string@DU?$char_traits@D@std@@V?$allocator@D@2@@std@@QAEX$$QAV12@U?$integral_constant@_N$00@2@@Z ; std::basic_string<char,std::char_traits<char>,std::allocator<char> >::_Assign_rv_contents_with_alloc_always_equal
PUBLIC	??1?$basic_string@DU?$char_traits@D@std@@V?$allocator@D@2@@std@@QAE@XZ ; std::basic_string<char,std::char_traits<char>,std::allocator<char> >::~basic_string<char,std::char_traits<char>,std::allocator<char> >
PUBLIC	??4?$basic_string@DU?$char_traits@D@std@@V?$allocator@D@2@@std@@QAEAAV01@QBD@Z ; std::basic_string<char,std::char_traits<char>,std::allocator<char> >::operator=
PUBLIC	?append@?$basic_string@DU?$char_traits@D@std@@V?$allocator@D@2@@std@@QAEAAV12@ID@Z ; std::basic_string<char,std::char_traits<char>,std::allocator<char> >::append
PUBLIC	?assign@?$basic_string@DU?$char_traits@D@std@@V?$allocator@D@2@@std@@QAEAAV12@ABV12@II@Z ; std::basic_string<char,std::char_traits<char>,std::allocator<char> >::assign
PUBLIC	?assign@?$basic_string@DU?$char_traits@D@std@@V?$allocator@D@2@@std@@QAEAAV12@QBDI@Z ; std::basic_string<char,std::char_traits<char>,std::allocator<char> >::assign
PUBLIC	?assign@?$basic_string@DU?$char_traits@D@std@@V?$allocator@D@2@@std@@QAEAAV12@QBD@Z ; std::basic_string<char,std::char_traits<char>,std::allocator<char> >::assign
PUBLIC	?erase@?$basic_string@DU?$char_traits@D@std@@V?$allocator@D@2@@std@@QAEAAV12@I@Z ; std::basic_string<char,std::char_traits<char>,std::allocator<char> >::erase
PUBLIC	?erase@?$basic_string@DU?$char_traits@D@std@@V?$allocator@D@2@@std@@QAEAAV12@II@Z ; std::basic_string<char,std::char_traits<char>,std::allocator<char> >::erase
PUBLIC	?erase@?$basic_string@DU?$char_traits@D@std@@V?$allocator@D@2@@std@@QAE?AV?$_String_iterator@V?$_String_val@U?$_Simple_types@D@std@@@std@@@2@V?$_String_const_iterator@V?$_String_val@U?$_Simple_types@D@std@@@std@@@2@0@Z ; std::basic_string<char,std::char_traits<char>,std::allocator<char> >::erase
PUBLIC	?begin@?$basic_string@DU?$char_traits@D@std@@V?$allocator@D@2@@std@@QAE?AV?$_String_iterator@V?$_String_val@U?$_Simple_types@D@std@@@std@@@2@XZ ; std::basic_string<char,std::char_traits<char>,std::allocator<char> >::begin
PUBLIC	?end@?$basic_string@DU?$char_traits@D@std@@V?$allocator@D@2@@std@@QAE?AV?$_String_iterator@V?$_String_val@U?$_Simple_types@D@std@@@std@@@2@XZ ; std::basic_string<char,std::char_traits<char>,std::allocator<char> >::end
PUBLIC	?c_str@?$basic_string@DU?$char_traits@D@std@@V?$allocator@D@2@@std@@QBEPBDXZ ; std::basic_string<char,std::char_traits<char>,std::allocator<char> >::c_str
PUBLIC	?data@?$basic_string@DU?$char_traits@D@std@@V?$allocator@D@2@@std@@QAEPADXZ ; std::basic_string<char,std::char_traits<char>,std::allocator<char> >::data
PUBLIC	?length@?$basic_string@DU?$char_traits@D@std@@V?$allocator@D@2@@std@@QBEIXZ ; std::basic_string<char,std::char_traits<char>,std::allocator<char> >::length
PUBLIC	?max_size@?$basic_string@DU?$char_traits@D@std@@V?$allocator@D@2@@std@@QBEIXZ ; std::basic_string<char,std::char_traits<char>,std::allocator<char> >::max_size
PUBLIC	?resize@?$basic_string@DU?$char_traits@D@std@@V?$allocator@D@2@@std@@QAEXI@Z ; std::basic_string<char,std::char_traits<char>,std::allocator<char> >::resize
PUBLIC	?resize@?$basic_string@DU?$char_traits@D@std@@V?$allocator@D@2@@std@@QAEXID@Z ; std::basic_string<char,std::char_traits<char>,std::allocator<char> >::resize
PUBLIC	?_Clamp_suffix_size@?$basic_string@DU?$char_traits@D@std@@V?$allocator@D@2@@std@@QBEIII@Z ; std::basic_string<char,std::char_traits<char>,std::allocator<char> >::_Clamp_suffix_size
PUBLIC	?_Equal@?$basic_string@DU?$char_traits@D@std@@V?$allocator@D@2@@std@@QBE_NQBD@Z ; std::basic_string<char,std::char_traits<char>,std::allocator<char> >::_Equal
PUBLIC	?_Chassign@?$basic_string@DU?$char_traits@D@std@@V?$allocator@D@2@@std@@QAEXIID@Z ; std::basic_string<char,std::char_traits<char>,std::allocator<char> >::_Chassign
PUBLIC	?_Copy@?$basic_string@DU?$char_traits@D@std@@V?$allocator@D@2@@std@@QAEXI@Z ; std::basic_string<char,std::char_traits<char>,std::allocator<char> >::_Copy
PUBLIC	?_Eos@?$basic_string@DU?$char_traits@D@std@@V?$allocator@D@2@@std@@QAEXI@Z ; std::basic_string<char,std::char_traits<char>,std::allocator<char> >::_Eos
PUBLIC	?_Grow@?$basic_string@DU?$char_traits@D@std@@V?$allocator@D@2@@std@@QAE_NI@Z ; std::basic_string<char,std::char_traits<char>,std::allocator<char> >::_Grow
PUBLIC	?_Inside@?$basic_string@DU?$char_traits@D@std@@V?$allocator@D@2@@std@@QBE_NQBD@Z ; std::basic_string<char,std::char_traits<char>,std::allocator<char> >::_Inside
PUBLIC	?_Tidy_init@?$basic_string@DU?$char_traits@D@std@@V?$allocator@D@2@@std@@QAEXXZ ; std::basic_string<char,std::char_traits<char>,std::allocator<char> >::_Tidy_init
PUBLIC	?_Tidy_deallocate@?$basic_string@DU?$char_traits@D@std@@V?$allocator@D@2@@std@@QAEXXZ ; std::basic_string<char,std::char_traits<char>,std::allocator<char> >::_Tidy_deallocate
PUBLIC	?_Xlen@?$basic_string@DU?$char_traits@D@std@@V?$allocator@D@2@@std@@SAXXZ ; std::basic_string<char,std::char_traits<char>,std::allocator<char> >::_Xlen
PUBLIC	?_Check_offset@?$basic_string@DU?$char_traits@D@std@@V?$allocator@D@2@@std@@QBEXI@Z ; std::basic_string<char,std::char_traits<char>,std::allocator<char> >::_Check_offset
PUBLIC	?_Xran@?$basic_string@DU?$char_traits@D@std@@V?$allocator@D@2@@std@@SAXXZ ; std::basic_string<char,std::char_traits<char>,std::allocator<char> >::_Xran
PUBLIC	??0?$allocator@_W@std@@QAE@XZ			; std::allocator<wchar_t>::allocator<wchar_t>
PUBLIC	??0?$allocator@_W@std@@QAE@ABV01@@Z		; std::allocator<wchar_t>::allocator<wchar_t>
PUBLIC	?deallocate@?$allocator@_W@std@@QAEXPA_WI@Z	; std::allocator<wchar_t>::deallocate
PUBLIC	?allocate@?$allocator@_W@std@@QAEPA_WI@Z	; std::allocator<wchar_t>::allocate
PUBLIC	?max_size@?$allocator@_W@std@@QBEIXZ		; std::allocator<wchar_t>::max_size
PUBLIC	?max_size@?$allocator_traits@V?$allocator@_W@std@@@std@@SAIABV?$allocator@_W@2@@Z ; std::allocator_traits<std::allocator<wchar_t> >::max_size
PUBLIC	?select_on_container_copy_construction@?$allocator_traits@V?$allocator@_W@std@@@std@@SA?AV?$allocator@_W@2@ABV32@@Z ; std::allocator_traits<std::allocator<wchar_t> >::select_on_container_copy_construction
PUBLIC	?select_on_container_copy_construction@?$_Wrap_alloc@V?$allocator@_W@std@@@std@@QBE?AU12@U_Nil@2@@Z ; std::_Wrap_alloc<std::allocator<wchar_t> >::select_on_container_copy_construction
PUBLIC	?address@?$_Wrap_alloc@V?$allocator@_W@std@@@std@@QBEPA_WAA_W@Z ; std::_Wrap_alloc<std::allocator<wchar_t> >::address
PUBLIC	??0?$_Wrap_alloc@V?$allocator@_W@std@@@std@@QAE@XZ ; std::_Wrap_alloc<std::allocator<wchar_t> >::_Wrap_alloc<std::allocator<wchar_t> >
PUBLIC	??0?$_Wrap_alloc@V?$allocator@_W@std@@@std@@QAE@$$QAU01@@Z ; std::_Wrap_alloc<std::allocator<wchar_t> >::_Wrap_alloc<std::allocator<wchar_t> >
PUBLIC	?allocate@?$_Wrap_alloc@V?$allocator@_W@std@@@std@@QAEPA_WI@Z ; std::_Wrap_alloc<std::allocator<wchar_t> >::allocate
PUBLIC	?deallocate@?$_Wrap_alloc@V?$allocator@_W@std@@@std@@QAEXPA_WI@Z ; std::_Wrap_alloc<std::allocator<wchar_t> >::deallocate
PUBLIC	?max_size@?$_Wrap_alloc@V?$allocator@_W@std@@@std@@QBEIU_Nil@2@@Z ; std::_Wrap_alloc<std::allocator<wchar_t> >::max_size
PUBLIC	??0?$_String_val@U?$_Simple_types@_W@std@@@std@@QAE@XZ ; std::_String_val<std::_Simple_types<wchar_t> >::_String_val<std::_Simple_types<wchar_t> >
PUBLIC	?_Myptr@?$_String_val@U?$_Simple_types@_W@std@@@std@@QAEPA_WXZ ; std::_String_val<std::_Simple_types<wchar_t> >::_Myptr
PUBLIC	?_Myptr@?$_String_val@U?$_Simple_types@_W@std@@@std@@QBEPB_WXZ ; std::_String_val<std::_Simple_types<wchar_t> >::_Myptr
PUBLIC	?_Large_string_engaged@?$_String_val@U?$_Simple_types@_W@std@@@std@@QBE_NXZ ; std::_String_val<std::_Simple_types<wchar_t> >::_Large_string_engaged
PUBLIC	??0_Bxty@?$_String_val@U?$_Simple_types@_W@std@@@std@@QAE@XZ ; std::_String_val<std::_Simple_types<wchar_t> >::_Bxty::_Bxty
PUBLIC	??1_Bxty@?$_String_val@U?$_Simple_types@_W@std@@@std@@QAE@XZ ; std::_String_val<std::_Simple_types<wchar_t> >::_Bxty::~_Bxty
PUBLIC	??1?$_String_val@U?$_Simple_types@_W@std@@@std@@QAE@XZ ; std::_String_val<std::_Simple_types<wchar_t> >::~_String_val<std::_Simple_types<wchar_t> >
PUBLIC	?_Myptr@?$_String_alloc@U?$_String_base_types@_WV?$allocator@_W@std@@@std@@@std@@QAEPA_WXZ ; std::_String_alloc<std::_String_base_types<wchar_t,std::allocator<wchar_t> > >::_Myptr
PUBLIC	?_Myptr@?$_String_alloc@U?$_String_base_types@_WV?$allocator@_W@std@@@std@@@std@@QBEPB_WXZ ; std::_String_alloc<std::_String_base_types<wchar_t,std::allocator<wchar_t> > >::_Myptr
PUBLIC	??0?$_String_alloc@U?$_String_base_types@_WV?$allocator@_W@std@@@std@@@std@@QAE@XZ ; std::_String_alloc<std::_String_base_types<wchar_t,std::allocator<wchar_t> > >::_String_alloc<std::_String_base_types<wchar_t,std::allocator<wchar_t> > >
PUBLIC	?_Orphan_all@?$_String_alloc@U?$_String_base_types@_WV?$allocator@_W@std@@@std@@@std@@QAEXXZ ; std::_String_alloc<std::_String_base_types<wchar_t,std::allocator<wchar_t> > >::_Orphan_all
PUBLIC	?_Getal@?$_String_alloc@U?$_String_base_types@_WV?$allocator@_W@std@@@std@@@std@@QAEAAU?$_Wrap_alloc@V?$allocator@_W@std@@@2@XZ ; std::_String_alloc<std::_String_base_types<wchar_t,std::allocator<wchar_t> > >::_Getal
PUBLIC	?_Getal@?$_String_alloc@U?$_String_base_types@_WV?$allocator@_W@std@@@std@@@std@@QBEABU?$_Wrap_alloc@V?$allocator@_W@std@@@2@XZ ; std::_String_alloc<std::_String_base_types<wchar_t,std::allocator<wchar_t> > >::_Getal
PUBLIC	?_Get_data@?$_String_alloc@U?$_String_base_types@_WV?$allocator@_W@std@@@std@@@std@@QAEAAV?$_String_val@U?$_Simple_types@_W@std@@@2@XZ ; std::_String_alloc<std::_String_base_types<wchar_t,std::allocator<wchar_t> > >::_Get_data
PUBLIC	?_Get_data@?$_String_alloc@U?$_String_base_types@_WV?$allocator@_W@std@@@std@@@std@@QBEABV?$_String_val@U?$_Simple_types@_W@std@@@2@XZ ; std::_String_alloc<std::_String_base_types<wchar_t,std::allocator<wchar_t> > >::_Get_data
PUBLIC	?_Mysize@?$_String_alloc@U?$_String_base_types@_WV?$allocator@_W@std@@@std@@@std@@QAEAAIXZ ; std::_String_alloc<std::_String_base_types<wchar_t,std::allocator<wchar_t> > >::_Mysize
PUBLIC	?_Mysize@?$_String_alloc@U?$_String_base_types@_WV?$allocator@_W@std@@@std@@@std@@QBEABIXZ ; std::_String_alloc<std::_String_base_types<wchar_t,std::allocator<wchar_t> > >::_Mysize
PUBLIC	?_Myres@?$_String_alloc@U?$_String_base_types@_WV?$allocator@_W@std@@@std@@@std@@QAEAAIXZ ; std::_String_alloc<std::_String_base_types<wchar_t,std::allocator<wchar_t> > >::_Myres
PUBLIC	?_Get_first@?$_Compressed_pair@U?$_Wrap_alloc@V?$allocator@_W@std@@@std@@V?$_String_val@U?$_Simple_types@_W@std@@@2@$00@std@@QAEAAU?$_Wrap_alloc@V?$allocator@_W@std@@@2@XZ ; std::_Compressed_pair<std::_Wrap_alloc<std::allocator<wchar_t> >,std::_String_val<std::_Simple_types<wchar_t> >,1>::_Get_first
PUBLIC	?_Get_first@?$_Compressed_pair@U?$_Wrap_alloc@V?$allocator@_W@std@@@std@@V?$_String_val@U?$_Simple_types@_W@std@@@2@$00@std@@QBEABU?$_Wrap_alloc@V?$allocator@_W@std@@@2@XZ ; std::_Compressed_pair<std::_Wrap_alloc<std::allocator<wchar_t> >,std::_String_val<std::_Simple_types<wchar_t> >,1>::_Get_first
PUBLIC	?_Get_second@?$_Compressed_pair@U?$_Wrap_alloc@V?$allocator@_W@std@@@std@@V?$_String_val@U?$_Simple_types@_W@std@@@2@$00@std@@QAEAAV?$_String_val@U?$_Simple_types@_W@std@@@2@XZ ; std::_Compressed_pair<std::_Wrap_alloc<std::allocator<wchar_t> >,std::_String_val<std::_Simple_types<wchar_t> >,1>::_Get_second
PUBLIC	?_Get_second@?$_Compressed_pair@U?$_Wrap_alloc@V?$allocator@_W@std@@@std@@V?$_String_val@U?$_Simple_types@_W@std@@@2@$00@std@@QBEABV?$_String_val@U?$_Simple_types@_W@std@@@2@XZ ; std::_Compressed_pair<std::_Wrap_alloc<std::allocator<wchar_t> >,std::_String_val<std::_Simple_types<wchar_t> >,1>::_Get_second
PUBLIC	??1?$_Compressed_pair@U?$_Wrap_alloc@V?$allocator@_W@std@@@std@@V?$_String_val@U?$_Simple_types@_W@std@@@2@$00@std@@QAE@XZ ; std::_Compressed_pair<std::_Wrap_alloc<std::allocator<wchar_t> >,std::_String_val<std::_Simple_types<wchar_t> >,1>::~_Compressed_pair<std::_Wrap_alloc<std::allocator<wchar_t> >,std::_String_val<std::_Simple_types<wchar_t> >,1>
PUBLIC	??1?$_String_alloc@U?$_String_base_types@_WV?$allocator@_W@std@@@std@@@std@@QAE@XZ ; std::_String_alloc<std::_String_base_types<wchar_t,std::allocator<wchar_t> > >::~_String_alloc<std::_String_base_types<wchar_t,std::allocator<wchar_t> > >
PUBLIC	??0?$basic_string@_WU?$char_traits@_W@std@@V?$allocator@_W@2@@std@@QAE@ABV01@@Z ; std::basic_string<wchar_t,std::char_traits<wchar_t>,std::allocator<wchar_t> >::basic_string<wchar_t,std::char_traits<wchar_t>,std::allocator<wchar_t> >
PUBLIC	??0?$basic_string@_WU?$char_traits@_W@std@@V?$allocator@_W@2@@std@@QAE@XZ ; std::basic_string<wchar_t,std::char_traits<wchar_t>,std::allocator<wchar_t> >::basic_string<wchar_t,std::char_traits<wchar_t>,std::allocator<wchar_t> >
PUBLIC	??0?$basic_string@_WU?$char_traits@_W@std@@V?$allocator@_W@2@@std@@QAE@QB_W@Z ; std::basic_string<wchar_t,std::char_traits<wchar_t>,std::allocator<wchar_t> >::basic_string<wchar_t,std::char_traits<wchar_t>,std::allocator<wchar_t> >
PUBLIC	??0?$basic_string@_WU?$char_traits@_W@std@@V?$allocator@_W@2@@std@@QAE@$$QAV01@@Z ; std::basic_string<wchar_t,std::char_traits<wchar_t>,std::allocator<wchar_t> >::basic_string<wchar_t,std::char_traits<wchar_t>,std::allocator<wchar_t> >
PUBLIC	?_Assign_rv_contents_with_alloc_always_equal@?$basic_string@_WU?$char_traits@_W@std@@V?$allocator@_W@2@@std@@QAEX$$QAV12@U?$integral_constant@_N$00@2@@Z ; std::basic_string<wchar_t,std::char_traits<wchar_t>,std::allocator<wchar_t> >::_Assign_rv_contents_with_alloc_always_equal
PUBLIC	?_Assign_lv_contents@?$basic_string@_WU?$char_traits@_W@std@@V?$allocator@_W@2@@std@@QAEXABV12@@Z ; std::basic_string<wchar_t,std::char_traits<wchar_t>,std::allocator<wchar_t> >::_Assign_lv_contents
PUBLIC	??1?$basic_string@_WU?$char_traits@_W@std@@V?$allocator@_W@2@@std@@QAE@XZ ; std::basic_string<wchar_t,std::char_traits<wchar_t>,std::allocator<wchar_t> >::~basic_string<wchar_t,std::char_traits<wchar_t>,std::allocator<wchar_t> >
PUBLIC	??Y?$basic_string@_WU?$char_traits@_W@std@@V?$allocator@_W@2@@std@@QAEAAV01@QB_W@Z ; std::basic_string<wchar_t,std::char_traits<wchar_t>,std::allocator<wchar_t> >::operator+=
PUBLIC	?append@?$basic_string@_WU?$char_traits@_W@std@@V?$allocator@_W@2@@std@@QAEAAV12@ABV12@II@Z ; std::basic_string<wchar_t,std::char_traits<wchar_t>,std::allocator<wchar_t> >::append
PUBLIC	?append@?$basic_string@_WU?$char_traits@_W@std@@V?$allocator@_W@2@@std@@QAEAAV12@QB_WI@Z ; std::basic_string<wchar_t,std::char_traits<wchar_t>,std::allocator<wchar_t> >::append
PUBLIC	?append@?$basic_string@_WU?$char_traits@_W@std@@V?$allocator@_W@2@@std@@QAEAAV12@QB_W@Z ; std::basic_string<wchar_t,std::char_traits<wchar_t>,std::allocator<wchar_t> >::append
PUBLIC	?append@?$basic_string@_WU?$char_traits@_W@std@@V?$allocator@_W@2@@std@@QAEAAV12@I_W@Z ; std::basic_string<wchar_t,std::char_traits<wchar_t>,std::allocator<wchar_t> >::append
PUBLIC	?assign@?$basic_string@_WU?$char_traits@_W@std@@V?$allocator@_W@2@@std@@QAEAAV12@ABV12@II@Z ; std::basic_string<wchar_t,std::char_traits<wchar_t>,std::allocator<wchar_t> >::assign
PUBLIC	?assign@?$basic_string@_WU?$char_traits@_W@std@@V?$allocator@_W@2@@std@@QAEAAV12@QB_WI@Z ; std::basic_string<wchar_t,std::char_traits<wchar_t>,std::allocator<wchar_t> >::assign
PUBLIC	?assign@?$basic_string@_WU?$char_traits@_W@std@@V?$allocator@_W@2@@std@@QAEAAV12@QB_W@Z ; std::basic_string<wchar_t,std::char_traits<wchar_t>,std::allocator<wchar_t> >::assign
PUBLIC	?erase@?$basic_string@_WU?$char_traits@_W@std@@V?$allocator@_W@2@@std@@QAEAAV12@I@Z ; std::basic_string<wchar_t,std::char_traits<wchar_t>,std::allocator<wchar_t> >::erase
PUBLIC	?erase@?$basic_string@_WU?$char_traits@_W@std@@V?$allocator@_W@2@@std@@QAEAAV12@II@Z ; std::basic_string<wchar_t,std::char_traits<wchar_t>,std::allocator<wchar_t> >::erase
PUBLIC	?erase@?$basic_string@_WU?$char_traits@_W@std@@V?$allocator@_W@2@@std@@QAE?AV?$_String_iterator@V?$_String_val@U?$_Simple_types@_W@std@@@std@@@2@V?$_String_const_iterator@V?$_String_val@U?$_Simple_types@_W@std@@@std@@@2@0@Z ; std::basic_string<wchar_t,std::char_traits<wchar_t>,std::allocator<wchar_t> >::erase
PUBLIC	?begin@?$basic_string@_WU?$char_traits@_W@std@@V?$allocator@_W@2@@std@@QAE?AV?$_String_iterator@V?$_String_val@U?$_Simple_types@_W@std@@@std@@@2@XZ ; std::basic_string<wchar_t,std::char_traits<wchar_t>,std::allocator<wchar_t> >::begin
PUBLIC	?end@?$basic_string@_WU?$char_traits@_W@std@@V?$allocator@_W@2@@std@@QAE?AV?$_String_iterator@V?$_String_val@U?$_Simple_types@_W@std@@@std@@@2@XZ ; std::basic_string<wchar_t,std::char_traits<wchar_t>,std::allocator<wchar_t> >::end
PUBLIC	?c_str@?$basic_string@_WU?$char_traits@_W@std@@V?$allocator@_W@2@@std@@QBEPB_WXZ ; std::basic_string<wchar_t,std::char_traits<wchar_t>,std::allocator<wchar_t> >::c_str
PUBLIC	?data@?$basic_string@_WU?$char_traits@_W@std@@V?$allocator@_W@2@@std@@QAEPA_WXZ ; std::basic_string<wchar_t,std::char_traits<wchar_t>,std::allocator<wchar_t> >::data
PUBLIC	?length@?$basic_string@_WU?$char_traits@_W@std@@V?$allocator@_W@2@@std@@QBEIXZ ; std::basic_string<wchar_t,std::char_traits<wchar_t>,std::allocator<wchar_t> >::length
PUBLIC	?max_size@?$basic_string@_WU?$char_traits@_W@std@@V?$allocator@_W@2@@std@@QBEIXZ ; std::basic_string<wchar_t,std::char_traits<wchar_t>,std::allocator<wchar_t> >::max_size
PUBLIC	?resize@?$basic_string@_WU?$char_traits@_W@std@@V?$allocator@_W@2@@std@@QAEXI@Z ; std::basic_string<wchar_t,std::char_traits<wchar_t>,std::allocator<wchar_t> >::resize
PUBLIC	?resize@?$basic_string@_WU?$char_traits@_W@std@@V?$allocator@_W@2@@std@@QAEXI_W@Z ; std::basic_string<wchar_t,std::char_traits<wchar_t>,std::allocator<wchar_t> >::resize
PUBLIC	?_Clamp_suffix_size@?$basic_string@_WU?$char_traits@_W@std@@V?$allocator@_W@2@@std@@QBEIII@Z ; std::basic_string<wchar_t,std::char_traits<wchar_t>,std::allocator<wchar_t> >::_Clamp_suffix_size
PUBLIC	?_Chassign@?$basic_string@_WU?$char_traits@_W@std@@V?$allocator@_W@2@@std@@QAEXII_W@Z ; std::basic_string<wchar_t,std::char_traits<wchar_t>,std::allocator<wchar_t> >::_Chassign
PUBLIC	?_Copy@?$basic_string@_WU?$char_traits@_W@std@@V?$allocator@_W@2@@std@@QAEXI@Z ; std::basic_string<wchar_t,std::char_traits<wchar_t>,std::allocator<wchar_t> >::_Copy
PUBLIC	?_Eos@?$basic_string@_WU?$char_traits@_W@std@@V?$allocator@_W@2@@std@@QAEXI@Z ; std::basic_string<wchar_t,std::char_traits<wchar_t>,std::allocator<wchar_t> >::_Eos
PUBLIC	?_Grow@?$basic_string@_WU?$char_traits@_W@std@@V?$allocator@_W@2@@std@@QAE_NI@Z ; std::basic_string<wchar_t,std::char_traits<wchar_t>,std::allocator<wchar_t> >::_Grow
PUBLIC	?_Inside@?$basic_string@_WU?$char_traits@_W@std@@V?$allocator@_W@2@@std@@QBE_NQB_W@Z ; std::basic_string<wchar_t,std::char_traits<wchar_t>,std::allocator<wchar_t> >::_Inside
PUBLIC	?_Tidy_init@?$basic_string@_WU?$char_traits@_W@std@@V?$allocator@_W@2@@std@@QAEXXZ ; std::basic_string<wchar_t,std::char_traits<wchar_t>,std::allocator<wchar_t> >::_Tidy_init
PUBLIC	?_Tidy_deallocate@?$basic_string@_WU?$char_traits@_W@std@@V?$allocator@_W@2@@std@@QAEXXZ ; std::basic_string<wchar_t,std::char_traits<wchar_t>,std::allocator<wchar_t> >::_Tidy_deallocate
PUBLIC	?_Xlen@?$basic_string@_WU?$char_traits@_W@std@@V?$allocator@_W@2@@std@@SAXXZ ; std::basic_string<wchar_t,std::char_traits<wchar_t>,std::allocator<wchar_t> >::_Xlen
PUBLIC	?_Check_offset@?$basic_string@_WU?$char_traits@_W@std@@V?$allocator@_W@2@@std@@QBEXI@Z ; std::basic_string<wchar_t,std::char_traits<wchar_t>,std::allocator<wchar_t> >::_Check_offset
PUBLIC	?_Xran@?$basic_string@_WU?$char_traits@_W@std@@V?$allocator@_W@2@@std@@SAXXZ ; std::basic_string<wchar_t,std::char_traits<wchar_t>,std::allocator<wchar_t> >::_Xran
PUBLIC	?SK_GetHostApp@@YAPB_WXZ			; SK_GetHostApp
PUBLIC	?SK_GetHostPath@@YAPB_WXZ			; SK_GetHostPath
PUBLIC	?SK_GetBlacklistFilename@@YAPB_WXZ		; SK_GetBlacklistFilename
PUBLIC	?SK_GetDocumentsDir@@YA_NPA_WPAI@Z		; SK_GetDocumentsDir
PUBLIC	?SK_GetDocumentsDir@@YA?AV?$basic_string@_WU?$char_traits@_W@std@@V?$allocator@_W@2@@std@@XZ ; SK_GetDocumentsDir
PUBLIC	?SK_GetFontsDir@@YA?AV?$basic_string@_WU?$char_traits@_W@std@@V?$allocator@_W@2@@std@@XZ ; SK_GetFontsDir
PUBLIC	?SK_GetRTSSInstallDir@@YA?AV?$basic_string@_WU?$char_traits@_W@std@@V?$allocator@_W@2@@std@@XZ ; SK_GetRTSSInstallDir
PUBLIC	?SK_CreateDirectories@@YG_NPB_W@Z		; SK_CreateDirectories
PUBLIC	?SK_DeleteTemporaryFiles@@YAIPB_W0@Z		; SK_DeleteTemporaryFiles
PUBLIC	?SK_EvalEnvironmentVars@@YA?AV?$basic_string@_WU?$char_traits@_W@std@@V?$allocator@_W@2@@std@@PB_W@Z ; SK_EvalEnvironmentVars
PUBLIC	?SK_GetUserProfileDir@@YA_NPA_WPAI@Z		; SK_GetUserProfileDir
PUBLIC	?SK_IsTrue@@YA_NPB_W@Z				; SK_IsTrue
PUBLIC	?SK_IsAdmin@@YA_NXZ				; SK_IsAdmin
PUBLIC	?SK_ElevateToAdmin@@YAXXZ			; SK_ElevateToAdmin
PUBLIC	?SK_RestartGame@@YAXPB_W@Z			; SK_RestartGame
PUBLIC	?SK_MessageBox@@YAHV?$basic_string@_WU?$char_traits@_W@std@@V?$allocator@_W@2@@std@@0I@Z ; SK_MessageBox
PUBLIC	?SK_WideCharToUTF8@@YA?AV?$basic_string@DU?$char_traits@D@std@@V?$allocator@D@2@@std@@V?$basic_string@_WU?$char_traits@_W@std@@V?$allocator@_W@2@@2@@Z ; SK_WideCharToUTF8
PUBLIC	?SK_UTF8ToWideChar@@YA?AV?$basic_string@_WU?$char_traits@_W@std@@V?$allocator@_W@2@@std@@V?$basic_string@DU?$char_traits@D@std@@V?$allocator@D@2@@2@@Z ; SK_UTF8ToWideChar
PUBLIC	?SK_FormatString@@YA?AV?$basic_string@DU?$char_traits@D@std@@V?$allocator@D@2@@std@@QBDZZ ; SK_FormatString
PUBLIC	?SK_FormatStringW@@YA?AV?$basic_string@_WU?$char_traits@_W@std@@V?$allocator@_W@2@@std@@QB_WZZ ; SK_FormatStringW
PUBLIC	?SK_StripTrailingSlashesW@@YAXPA_W@Z		; SK_StripTrailingSlashesW
PUBLIC	?SK_FixSlashesW@@YAXPA_W@Z			; SK_FixSlashesW
PUBLIC	?SK_StripTrailingSlashesA@@YAXPAD@Z		; SK_StripTrailingSlashesA
PUBLIC	?SK_FixSlashesA@@YAXPAD@Z			; SK_FixSlashesA
PUBLIC	?SK_SetNormalFileAttribs@@YAXV?$basic_string@_WU?$char_traits@_W@std@@V?$allocator@_W@2@@std@@@Z ; SK_SetNormalFileAttribs
PUBLIC	?SK_MoveFileNoFail@@YAXPB_W0@Z			; SK_MoveFileNoFail
PUBLIC	?SK_FullCopy@@YAXV?$basic_string@_WU?$char_traits@_W@std@@V?$allocator@_W@2@@std@@0@Z ; SK_FullCopy
PUBLIC	?SK_GetSystemDirectory@@YAPB_WXZ		; SK_GetSystemDirectory
PUBLIC	?SK_GetDLLConfig@@YAPAUiSK_INI@@XZ		; SK_GetDLLConfig
PUBLIC	?SK_GetCallingDLL@@YAPAUHINSTANCE__@@PAX@Z	; SK_GetCallingDLL
PUBLIC	?SK_GetCallerName@@YA?AV?$basic_string@_WU?$char_traits@_W@std@@V?$allocator@_W@2@@std@@PAX@Z ; SK_GetCallerName
PUBLIC	?SK_GetModuleName@@YA?AV?$basic_string@_WU?$char_traits@_W@std@@V?$allocator@_W@2@@std@@PAUHINSTANCE__@@@Z ; SK_GetModuleName
PUBLIC	?SK_GetModuleFullName@@YA?AV?$basic_string@_WU?$char_traits@_W@std@@V?$allocator@_W@2@@std@@PAUHINSTANCE__@@@Z ; SK_GetModuleFullName
PUBLIC	?SK_StripUserNameFromPathA@@YA_NPAD@Z		; SK_StripUserNameFromPathA
PUBLIC	?SK_StripUserNameFromPathW@@YA_NPA_W@Z		; SK_StripUserNameFromPathW
PUBLIC	?SK_GetProcAddress@@YAPAXPB_WPBD@Z		; SK_GetProcAddress
PUBLIC	?SK_GetDLLVersionStr@@YG?AV?$basic_string@_WU?$char_traits@_W@std@@V?$allocator@_W@2@@std@@PB_W@Z ; SK_GetDLLVersionStr
PUBLIC	?SK_SuspendAllOtherThreads@@YA?AV?$queue@KV?$deque@KV?$allocator@K@std@@@std@@@std@@XZ ; SK_SuspendAllOtherThreads
PUBLIC	?SK_ResumeThreads@@YAXV?$queue@KV?$deque@KV?$allocator@K@std@@@std@@@std@@@Z ; SK_ResumeThreads
PUBLIC	?SK_IsRunDLLInvocation@@YA_NXZ			; SK_IsRunDLLInvocation
PUBLIC	?SK_IsSuperSpecialK@@YA_NXZ			; SK_IsSuperSpecialK
PUBLIC	??0SK_HostAppUtil@@QAE@XZ			; SK_HostAppUtil::SK_HostAppUtil
PUBLIC	?SK_IsDLLSpecialK@@YG_NPB_W@Z			; SK_IsDLLSpecialK
PUBLIC	?SK_SelfDestruct@@YGXXZ				; SK_SelfDestruct
PUBLIC	?SK_TestImports@@YGXPAUHINSTANCE__@@PAUsk_import_test_s@@H@Z ; SK_TestImports
PUBLIC	?SK_TestRenderImports@@YAXPAUHINSTANCE__@@PA_N1111111@Z ; SK_TestRenderImports
PUBLIC	?SK_GetFileSize@@YG_KPB_W@Z			; SK_GetFileSize
PUBLIC	?SK_GetFileCRC32@@YGIPB_WP6GX_K1@Z@Z		; SK_GetFileCRC32
PUBLIC	?SK_GetFileCRC32C@@YGIPB_WP6GX_K1@Z@Z		; SK_GetFileCRC32C
PUBLIC	?SK_Path_wcsrchr@@YAPB_WPB_W_W@Z		; SK_Path_wcsrchr
PUBLIC	?SK_Path_wcsstr@@YAPB_WPB_W0@Z			; SK_Path_wcsstr
PUBLIC	?SK_Path_wcsicmp@@YAHPB_W0@Z			; SK_Path_wcsicmp
PUBLIC	?SK_RemoveTrailingDecimalZeros@@YAIPA_WI@Z	; SK_RemoveTrailingDecimalZeros
PUBLIC	?SK_RemoveTrailingDecimalZeros@@YAIPADI@Z	; SK_RemoveTrailingDecimalZeros
PUBLIC	?SK_Scan@@YGPAXPBXI0@Z				; SK_Scan
PUBLIC	?SK_ScanAligned@@YGPAXPBXI0H@Z			; SK_ScanAligned
PUBLIC	?SK_ScanAlignedEx@@YGPAXPBXI0PAXH@Z		; SK_ScanAlignedEx
PUBLIC	?SK_InjectMemory@@YGHPAX0IK0@Z			; SK_InjectMemory
PUBLIC	_crc32
PUBLIC	_crc32c
PUBLIC	___crc32_init
PUBLIC	_crc32c_append_sw
PUBLIC	_crc32c_append_hw
PUBLIC	_crc32c_hw_available
PUBLIC	?SK_IsHostAppSKIM@@YA_NXZ			; SK_IsHostAppSKIM
PUBLIC	??$AtlMultiply@I@ATL@@YAJPAIII@Z		; ATL::AtlMultiply<unsigned int>
PUBLIC	?Allocate@CCRTAllocator@ATL@@SAPAXI@Z		; ATL::CCRTAllocator::Allocate
PUBLIC	?Free@CCRTAllocator@ATL@@SAXPAX@Z		; ATL::CCRTAllocator::Free
PUBLIC	??0?$CTraceCategoryEx@$0IAAAA@$0A@@ATL@@QAE@PB_W@Z ; ATL::CTraceCategoryEx<524288,0>::CTraceCategoryEx<524288,0>
PUBLIC	??0?$CTraceCategoryEx@$00$0A@@ATL@@QAE@PB_W@Z	; ATL::CTraceCategoryEx<1,0>::CTraceCategoryEx<1,0>
PUBLIC	??0?$CTraceCategoryEx@$01$0A@@ATL@@QAE@PB_W@Z	; ATL::CTraceCategoryEx<2,0>::CTraceCategoryEx<2,0>
PUBLIC	??0?$CTraceCategoryEx@$03$0A@@ATL@@QAE@PB_W@Z	; ATL::CTraceCategoryEx<4,0>::CTraceCategoryEx<4,0>
PUBLIC	??0?$CTraceCategoryEx@$07$0A@@ATL@@QAE@PB_W@Z	; ATL::CTraceCategoryEx<8,0>::CTraceCategoryEx<8,0>
PUBLIC	??0?$CTraceCategoryEx@$0BA@$0A@@ATL@@QAE@PB_W@Z	; ATL::CTraceCategoryEx<16,0>::CTraceCategoryEx<16,0>
PUBLIC	??0?$CTraceCategoryEx@$0CA@$0A@@ATL@@QAE@PB_W@Z	; ATL::CTraceCategoryEx<32,0>::CTraceCategoryEx<32,0>
PUBLIC	??0?$CTraceCategoryEx@$0EA@$0A@@ATL@@QAE@PB_W@Z	; ATL::CTraceCategoryEx<64,0>::CTraceCategoryEx<64,0>
PUBLIC	??0?$CTraceCategoryEx@$0IA@$0A@@ATL@@QAE@PB_W@Z	; ATL::CTraceCategoryEx<128,0>::CTraceCategoryEx<128,0>
PUBLIC	??0?$CTraceCategoryEx@$0BAA@$0A@@ATL@@QAE@PB_W@Z ; ATL::CTraceCategoryEx<256,0>::CTraceCategoryEx<256,0>
PUBLIC	??0?$CTraceCategoryEx@$0CAA@$0A@@ATL@@QAE@PB_W@Z ; ATL::CTraceCategoryEx<512,0>::CTraceCategoryEx<512,0>
PUBLIC	??0?$CTraceCategoryEx@$0EAA@$0A@@ATL@@QAE@PB_W@Z ; ATL::CTraceCategoryEx<1024,0>::CTraceCategoryEx<1024,0>
PUBLIC	??0?$CTraceCategoryEx@$0IAA@$0A@@ATL@@QAE@PB_W@Z ; ATL::CTraceCategoryEx<2048,0>::CTraceCategoryEx<2048,0>
PUBLIC	??0?$CTraceCategoryEx@$0BAAA@$0A@@ATL@@QAE@PB_W@Z ; ATL::CTraceCategoryEx<4096,0>::CTraceCategoryEx<4096,0>
PUBLIC	??0?$CTraceCategoryEx@$0CAAA@$0A@@ATL@@QAE@PB_W@Z ; ATL::CTraceCategoryEx<8192,0>::CTraceCategoryEx<8192,0>
PUBLIC	??0?$CTraceCategoryEx@$0EAAA@$0A@@ATL@@QAE@PB_W@Z ; ATL::CTraceCategoryEx<16384,0>::CTraceCategoryEx<16384,0>
PUBLIC	??0?$CTraceCategoryEx@$0IAAA@$0A@@ATL@@QAE@PB_W@Z ; ATL::CTraceCategoryEx<32768,0>::CTraceCategoryEx<32768,0>
PUBLIC	??0?$CTraceCategoryEx@$0BAAAA@$0A@@ATL@@QAE@PB_W@Z ; ATL::CTraceCategoryEx<65536,0>::CTraceCategoryEx<65536,0>
PUBLIC	??0?$CTraceCategoryEx@$0CAAAA@$0A@@ATL@@QAE@PB_W@Z ; ATL::CTraceCategoryEx<131072,0>::CTraceCategoryEx<131072,0>
PUBLIC	??0?$CTraceCategoryEx@$0EAAAA@$0A@@ATL@@QAE@PB_W@Z ; ATL::CTraceCategoryEx<262144,0>::CTraceCategoryEx<262144,0>
PUBLIC	??0?$CTraceCategoryEx@$0BAAAAA@$0A@@ATL@@QAE@PB_W@Z ; ATL::CTraceCategoryEx<1048576,0>::CTraceCategoryEx<1048576,0>
PUBLIC	??0?$CTraceCategoryEx@$0CAAAAA@$0A@@ATL@@QAE@PB_W@Z ; ATL::CTraceCategoryEx<2097152,0>::CTraceCategoryEx<2097152,0>
PUBLIC	??0?$CTraceCategoryEx@$0EAAAAA@$0A@@ATL@@QAE@PB_W@Z ; ATL::CTraceCategoryEx<4194304,0>::CTraceCategoryEx<4194304,0>
PUBLIC	?_AtlRaiseException@ATL@@YAXKK@Z		; ATL::_AtlRaiseException
PUBLIC	?_AtlInitializeCriticalSectionEx@ATL@@YAHPAU_RTL_CRITICAL_SECTION@@KK@Z ; ATL::_AtlInitializeCriticalSectionEx
PUBLIC	??0CComCriticalSection@ATL@@QAE@XZ		; ATL::CComCriticalSection::CComCriticalSection
PUBLIC	??1CComCriticalSection@ATL@@QAE@XZ		; ATL::CComCriticalSection::~CComCriticalSection
PUBLIC	?Init@CComCriticalSection@ATL@@QAEJXZ		; ATL::CComCriticalSection::Init
PUBLIC	?Term@CComCriticalSection@ATL@@QAEJXZ		; ATL::CComCriticalSection::Term
PUBLIC	?GetModuleInstance@CAtlBaseModule@ATL@@QAEPAUHINSTANCE__@@XZ ; ATL::CAtlBaseModule::GetModuleInstance
PUBLIC	??0_ATL_COM_MODULE70@ATL@@QAE@XZ		; ATL::_ATL_COM_MODULE70::_ATL_COM_MODULE70
PUBLIC	??1_ATL_COM_MODULE70@ATL@@QAE@XZ		; ATL::_ATL_COM_MODULE70::~_ATL_COM_MODULE70
PUBLIC	??0?$CSimpleArray@GV?$CSimpleArrayEqualHelper@G@ATL@@@ATL@@QAE@XZ ; ATL::CSimpleArray<unsigned short,ATL::CSimpleArrayEqualHelper<unsigned short> >::CSimpleArray<unsigned short,ATL::CSimpleArrayEqualHelper<unsigned short> >
PUBLIC	??1?$CSimpleArray@GV?$CSimpleArrayEqualHelper@G@ATL@@@ATL@@QAE@XZ ; ATL::CSimpleArray<unsigned short,ATL::CSimpleArrayEqualHelper<unsigned short> >::~CSimpleArray<unsigned short,ATL::CSimpleArrayEqualHelper<unsigned short> >
PUBLIC	?GetSize@?$CSimpleArray@GV?$CSimpleArrayEqualHelper@G@ATL@@@ATL@@QBEHXZ ; ATL::CSimpleArray<unsigned short,ATL::CSimpleArrayEqualHelper<unsigned short> >::GetSize
PUBLIC	?RemoveAll@?$CSimpleArray@GV?$CSimpleArrayEqualHelper@G@ATL@@@ATL@@QAEXXZ ; ATL::CSimpleArray<unsigned short,ATL::CSimpleArrayEqualHelper<unsigned short> >::RemoveAll
PUBLIC	??A?$CSimpleArray@GV?$CSimpleArrayEqualHelper@G@ATL@@@ATL@@QAEAAGH@Z ; ATL::CSimpleArray<unsigned short,ATL::CSimpleArrayEqualHelper<unsigned short> >::operator[]
PUBLIC	??0_ATL_WIN_MODULE70@ATL@@QAE@XZ		; ATL::_ATL_WIN_MODULE70::_ATL_WIN_MODULE70
PUBLIC	??1_ATL_WIN_MODULE70@ATL@@QAE@XZ		; ATL::_ATL_WIN_MODULE70::~_ATL_WIN_MODULE70
PUBLIC	?AtlWinModuleInit@ATL@@YGJPAU_ATL_WIN_MODULE70@1@@Z ; ATL::AtlWinModuleInit
PUBLIC	?AtlWinModuleTerm@ATL@@YGJPAU_ATL_WIN_MODULE70@1@PAUHINSTANCE__@@@Z ; ATL::AtlWinModuleTerm
PUBLIC	?Free@CComAllocator@ATL@@SAXPAX@Z		; ATL::CComAllocator::Free
PUBLIC	??0CHandle@ATL@@QAE@XZ				; ATL::CHandle::CHandle
PUBLIC	??0CHandle@ATL@@QAE@PAX@Z			; ATL::CHandle::CHandle
PUBLIC	??1CHandle@ATL@@QAE@XZ				; ATL::CHandle::~CHandle
PUBLIC	??BCHandle@ATL@@QBEPAXXZ			; ATL::CHandle::operator void *
PUBLIC	?Close@CHandle@ATL@@QAEXXZ			; ATL::CHandle::Close
PUBLIC	??0CAtlComModule@ATL@@QAE@XZ			; ATL::CAtlComModule::CAtlComModule
PUBLIC	??1CAtlComModule@ATL@@QAE@XZ			; ATL::CAtlComModule::~CAtlComModule
PUBLIC	?Term@CAtlComModule@ATL@@QAEXXZ			; ATL::CAtlComModule::Term
PUBLIC	??0CAtlWinModule@ATL@@QAE@XZ			; ATL::CAtlWinModule::CAtlWinModule
PUBLIC	??1CAtlWinModule@ATL@@QAE@XZ			; ATL::CAtlWinModule::~CAtlWinModule
PUBLIC	?Term@CAtlWinModule@ATL@@QAEXXZ			; ATL::CAtlWinModule::Term
PUBLIC	?SK_GetFullyQualifiedApp@@YAPB_WXZ		; SK_GetFullyQualifiedApp
PUBLIC	??0?$CHeapPtrBase@_WVCComAllocator@ATL@@@ATL@@IAE@XZ ; ATL::CHeapPtrBase<wchar_t,ATL::CComAllocator>::CHeapPtrBase<wchar_t,ATL::CComAllocator>
PUBLIC	??1?$CHeapPtrBase@_WVCComAllocator@ATL@@@ATL@@QAE@XZ ; ATL::CHeapPtrBase<wchar_t,ATL::CComAllocator>::~CHeapPtrBase<wchar_t,ATL::CComAllocator>
PUBLIC	??B?$CHeapPtrBase@_WVCComAllocator@ATL@@@ATL@@QBEPA_WXZ ; ATL::CHeapPtrBase<wchar_t,ATL::CComAllocator>::operator wchar_t *
PUBLIC	??I?$CHeapPtrBase@_WVCComAllocator@ATL@@@ATL@@QAEPAPA_WXZ ; ATL::CHeapPtrBase<wchar_t,ATL::CComAllocator>::operator&
PUBLIC	?Free@?$CHeapPtrBase@_WVCComAllocator@ATL@@@ATL@@QAEXXZ ; ATL::CHeapPtrBase<wchar_t,ATL::CComAllocator>::Free
PUBLIC	??0?$CHeapPtr@_WVCComAllocator@ATL@@@ATL@@QAE@XZ ; ATL::CHeapPtr<wchar_t,ATL::CComAllocator>::CHeapPtr<wchar_t,ATL::CComAllocator>
PUBLIC	??1?$CHeapPtr@_WVCComAllocator@ATL@@@ATL@@QAE@XZ ; ATL::CHeapPtr<wchar_t,ATL::CComAllocator>::~CHeapPtr<wchar_t,ATL::CComAllocator>
PUBLIC	??0?$CComHeapPtr@_W@ATL@@QAE@XZ			; ATL::CComHeapPtr<wchar_t>::CComHeapPtr<wchar_t>
PUBLIC	??1?$CComHeapPtr@_W@ATL@@QAE@XZ			; ATL::CComHeapPtr<wchar_t>::~CComHeapPtr<wchar_t>
PUBLIC	??0?$CHeapPtrBase@_WVCCRTAllocator@ATL@@@ATL@@IAE@XZ ; ATL::CHeapPtrBase<wchar_t,ATL::CCRTAllocator>::CHeapPtrBase<wchar_t,ATL::CCRTAllocator>
PUBLIC	??0?$CHeapPtrBase@_WVCCRTAllocator@ATL@@@ATL@@IAE@PA_W@Z ; ATL::CHeapPtrBase<wchar_t,ATL::CCRTAllocator>::CHeapPtrBase<wchar_t,ATL::CCRTAllocator>
PUBLIC	??1?$CHeapPtrBase@_WVCCRTAllocator@ATL@@@ATL@@QAE@XZ ; ATL::CHeapPtrBase<wchar_t,ATL::CCRTAllocator>::~CHeapPtrBase<wchar_t,ATL::CCRTAllocator>
PUBLIC	??B?$CHeapPtrBase@_WVCCRTAllocator@ATL@@@ATL@@QBEPA_WXZ ; ATL::CHeapPtrBase<wchar_t,ATL::CCRTAllocator>::operator wchar_t *
PUBLIC	?AllocateBytes@?$CHeapPtrBase@_WVCCRTAllocator@ATL@@@ATL@@QAE_NI@Z ; ATL::CHeapPtrBase<wchar_t,ATL::CCRTAllocator>::AllocateBytes
PUBLIC	?Free@?$CHeapPtrBase@_WVCCRTAllocator@ATL@@@ATL@@QAEXXZ ; ATL::CHeapPtrBase<wchar_t,ATL::CCRTAllocator>::Free
PUBLIC	??0?$CHeapPtr@_WVCCRTAllocator@ATL@@@ATL@@QAE@XZ ; ATL::CHeapPtr<wchar_t,ATL::CCRTAllocator>::CHeapPtr<wchar_t,ATL::CCRTAllocator>
PUBLIC	??0?$CHeapPtr@_WVCCRTAllocator@ATL@@@ATL@@QAE@PA_W@Z ; ATL::CHeapPtr<wchar_t,ATL::CCRTAllocator>::CHeapPtr<wchar_t,ATL::CCRTAllocator>
PUBLIC	?Allocate@?$CHeapPtr@_WVCCRTAllocator@ATL@@@ATL@@QAE_NI@Z ; ATL::CHeapPtr<wchar_t,ATL::CCRTAllocator>::Allocate
PUBLIC	??1?$CHeapPtr@_WVCCRTAllocator@ATL@@@ATL@@QAE@XZ ; ATL::CHeapPtr<wchar_t,ATL::CCRTAllocator>::~CHeapPtr<wchar_t,ATL::CCRTAllocator>
PUBLIC	?SK_IsProcessRunning@@YA_NPB_W@Z		; SK_IsProcessRunning
PUBLIC	??0InstructionSet_Internal@InstructionSet@@QAE@XZ ; InstructionSet::InstructionSet_Internal::InstructionSet_Internal
PUBLIC	??0?$bitset@$0CA@@std@@QAE@_K@Z			; std::bitset<32>::bitset<32>
PUBLIC	??0?$allocator@V?$array@H$03@std@@@std@@QAE@XZ	; std::allocator<std::array<int,4> >::allocator<std::array<int,4> >
PUBLIC	?deallocate@?$allocator@V?$array@H$03@std@@@std@@QAEXPAV?$array@H$03@2@I@Z ; std::allocator<std::array<int,4> >::deallocate
PUBLIC	?allocate@?$allocator@V?$array@H$03@std@@@std@@QAEPAV?$array@H$03@2@I@Z ; std::allocator<std::array<int,4> >::allocate
PUBLIC	?max_size@?$allocator@V?$array@H$03@std@@@std@@QBEIXZ ; std::allocator<std::array<int,4> >::max_size
PUBLIC	?max_size@?$allocator_traits@V?$allocator@V?$array@H$03@std@@@std@@@std@@SAIABV?$allocator@V?$array@H$03@std@@@2@@Z ; std::allocator_traits<std::allocator<std::array<int,4> > >::max_size
PUBLIC	??0?$_Wrap_alloc@V?$allocator@V?$array@H$03@std@@@std@@@std@@QAE@XZ ; std::_Wrap_alloc<std::allocator<std::array<int,4> > >::_Wrap_alloc<std::allocator<std::array<int,4> > >
PUBLIC	?allocate@?$_Wrap_alloc@V?$allocator@V?$array@H$03@std@@@std@@@std@@QAEPAV?$array@H$03@2@I@Z ; std::_Wrap_alloc<std::allocator<std::array<int,4> > >::allocate
PUBLIC	?deallocate@?$_Wrap_alloc@V?$allocator@V?$array@H$03@std@@@std@@@std@@QAEXPAV?$array@H$03@2@I@Z ; std::_Wrap_alloc<std::allocator<std::array<int,4> > >::deallocate
PUBLIC	?max_size@?$_Wrap_alloc@V?$allocator@V?$array@H$03@std@@@std@@@std@@QBEIU_Nil@2@@Z ; std::_Wrap_alloc<std::allocator<std::array<int,4> > >::max_size
PUBLIC	??0?$_Vector_alloc@U?$_Vec_base_types@V?$array@H$03@std@@V?$allocator@V?$array@H$03@std@@@2@@std@@@std@@QAE@XZ ; std::_Vector_alloc<std::_Vec_base_types<std::array<int,4>,std::allocator<std::array<int,4> > > >::_Vector_alloc<std::_Vec_base_types<std::array<int,4>,std::allocator<std::array<int,4> > > >
PUBLIC	?_Orphan_all@?$_Vector_alloc@U?$_Vec_base_types@V?$array@H$03@std@@V?$allocator@V?$array@H$03@std@@@2@@std@@@std@@QAEXXZ ; std::_Vector_alloc<std::_Vec_base_types<std::array<int,4>,std::allocator<std::array<int,4> > > >::_Orphan_all
PUBLIC	?_Getal@?$_Vector_alloc@U?$_Vec_base_types@V?$array@H$03@std@@V?$allocator@V?$array@H$03@std@@@2@@std@@@std@@QAEAAU?$_Wrap_alloc@V?$allocator@V?$array@H$03@std@@@std@@@2@XZ ; std::_Vector_alloc<std::_Vec_base_types<std::array<int,4>,std::allocator<std::array<int,4> > > >::_Getal
PUBLIC	?_Getal@?$_Vector_alloc@U?$_Vec_base_types@V?$array@H$03@std@@V?$allocator@V?$array@H$03@std@@@2@@std@@@std@@QBEABU?$_Wrap_alloc@V?$allocator@V?$array@H$03@std@@@std@@@2@XZ ; std::_Vector_alloc<std::_Vec_base_types<std::array<int,4>,std::allocator<std::array<int,4> > > >::_Getal
PUBLIC	?_Get_data@?$_Vector_alloc@U?$_Vec_base_types@V?$array@H$03@std@@V?$allocator@V?$array@H$03@std@@@2@@std@@@std@@QAEAAV?$_Vector_val@U?$_Simple_types@V?$array@H$03@std@@@std@@@2@XZ ; std::_Vector_alloc<std::_Vec_base_types<std::array<int,4>,std::allocator<std::array<int,4> > > >::_Get_data
PUBLIC	?_Get_data@?$_Vector_alloc@U?$_Vec_base_types@V?$array@H$03@std@@V?$allocator@V?$array@H$03@std@@@2@@std@@@std@@QBEABV?$_Vector_val@U?$_Simple_types@V?$array@H$03@std@@@std@@@2@XZ ; std::_Vector_alloc<std::_Vec_base_types<std::array<int,4>,std::allocator<std::array<int,4> > > >::_Get_data
PUBLIC	?_Myfirst@?$_Vector_alloc@U?$_Vec_base_types@V?$array@H$03@std@@V?$allocator@V?$array@H$03@std@@@2@@std@@@std@@QAEAAPAV?$array@H$03@2@XZ ; std::_Vector_alloc<std::_Vec_base_types<std::array<int,4>,std::allocator<std::array<int,4> > > >::_Myfirst
PUBLIC	?_Myfirst@?$_Vector_alloc@U?$_Vec_base_types@V?$array@H$03@std@@V?$allocator@V?$array@H$03@std@@@2@@std@@@std@@QBEABQAV?$array@H$03@2@XZ ; std::_Vector_alloc<std::_Vec_base_types<std::array<int,4>,std::allocator<std::array<int,4> > > >::_Myfirst
PUBLIC	?_Mylast@?$_Vector_alloc@U?$_Vec_base_types@V?$array@H$03@std@@V?$allocator@V?$array@H$03@std@@@2@@std@@@std@@QAEAAPAV?$array@H$03@2@XZ ; std::_Vector_alloc<std::_Vec_base_types<std::array<int,4>,std::allocator<std::array<int,4> > > >::_Mylast
PUBLIC	?_Mylast@?$_Vector_alloc@U?$_Vec_base_types@V?$array@H$03@std@@V?$allocator@V?$array@H$03@std@@@2@@std@@@std@@QBEABQAV?$array@H$03@2@XZ ; std::_Vector_alloc<std::_Vec_base_types<std::array<int,4>,std::allocator<std::array<int,4> > > >::_Mylast
PUBLIC	?_Myend@?$_Vector_alloc@U?$_Vec_base_types@V?$array@H$03@std@@V?$allocator@V?$array@H$03@std@@@2@@std@@@std@@QAEAAPAV?$array@H$03@2@XZ ; std::_Vector_alloc<std::_Vec_base_types<std::array<int,4>,std::allocator<std::array<int,4> > > >::_Myend
PUBLIC	?_Myend@?$_Vector_alloc@U?$_Vec_base_types@V?$array@H$03@std@@V?$allocator@V?$array@H$03@std@@@2@@std@@@std@@QBEABQAV?$array@H$03@2@XZ ; std::_Vector_alloc<std::_Vec_base_types<std::array<int,4>,std::allocator<std::array<int,4> > > >::_Myend
PUBLIC	??0?$_Vector_val@U?$_Simple_types@V?$array@H$03@std@@@std@@@std@@QAE@XZ ; std::_Vector_val<std::_Simple_types<std::array<int,4> > >::_Vector_val<std::_Simple_types<std::array<int,4> > >
PUBLIC	?_Get_first@?$_Compressed_pair@U?$_Wrap_alloc@V?$allocator@V?$array@H$03@std@@@std@@@std@@V?$_Vector_val@U?$_Simple_types@V?$array@H$03@std@@@std@@@2@$00@std@@QAEAAU?$_Wrap_alloc@V?$allocator@V?$array@H$03@std@@@std@@@2@XZ ; std::_Compressed_pair<std::_Wrap_alloc<std::allocator<std::array<int,4> > >,std::_Vector_val<std::_Simple_types<std::array<int,4> > >,1>::_Get_first
PUBLIC	?_Get_first@?$_Compressed_pair@U?$_Wrap_alloc@V?$allocator@V?$array@H$03@std@@@std@@@std@@V?$_Vector_val@U?$_Simple_types@V?$array@H$03@std@@@std@@@2@$00@std@@QBEABU?$_Wrap_alloc@V?$allocator@V?$array@H$03@std@@@std@@@2@XZ ; std::_Compressed_pair<std::_Wrap_alloc<std::allocator<std::array<int,4> > >,std::_Vector_val<std::_Simple_types<std::array<int,4> > >,1>::_Get_first
PUBLIC	?_Get_second@?$_Compressed_pair@U?$_Wrap_alloc@V?$allocator@V?$array@H$03@std@@@std@@@std@@V?$_Vector_val@U?$_Simple_types@V?$array@H$03@std@@@std@@@2@$00@std@@QAEAAV?$_Vector_val@U?$_Simple_types@V?$array@H$03@std@@@std@@@2@XZ ; std::_Compressed_pair<std::_Wrap_alloc<std::allocator<std::array<int,4> > >,std::_Vector_val<std::_Simple_types<std::array<int,4> > >,1>::_Get_second
PUBLIC	?_Get_second@?$_Compressed_pair@U?$_Wrap_alloc@V?$allocator@V?$array@H$03@std@@@std@@@std@@V?$_Vector_val@U?$_Simple_types@V?$array@H$03@std@@@std@@@2@$00@std@@QBEABV?$_Vector_val@U?$_Simple_types@V?$array@H$03@std@@@std@@@2@XZ ; std::_Compressed_pair<std::_Wrap_alloc<std::allocator<std::array<int,4> > >,std::_Vector_val<std::_Simple_types<std::array<int,4> > >,1>::_Get_second
PUBLIC	??0?$vector@V?$array@H$03@std@@V?$allocator@V?$array@H$03@std@@@2@@std@@QAE@XZ ; std::vector<std::array<int,4>,std::allocator<std::array<int,4> > >::vector<std::array<int,4>,std::allocator<std::array<int,4> > >
PUBLIC	??1?$vector@V?$array@H$03@std@@V?$allocator@V?$array@H$03@std@@@2@@std@@QAE@XZ ; std::vector<std::array<int,4>,std::allocator<std::array<int,4> > >::~vector<std::array<int,4>,std::allocator<std::array<int,4> > >
PUBLIC	?push_back@?$vector@V?$array@H$03@std@@V?$allocator@V?$array@H$03@std@@@2@@std@@QAEXABV?$array@H$03@2@@Z ; std::vector<std::array<int,4>,std::allocator<std::array<int,4> > >::push_back
PUBLIC	?size@?$vector@V?$array@H$03@std@@V?$allocator@V?$array@H$03@std@@@2@@std@@QBEIXZ ; std::vector<std::array<int,4>,std::allocator<std::array<int,4> > >::size
PUBLIC	?max_size@?$vector@V?$array@H$03@std@@V?$allocator@V?$array@H$03@std@@@2@@std@@QBEIXZ ; std::vector<std::array<int,4>,std::allocator<std::array<int,4> > >::max_size
PUBLIC	?capacity@?$vector@V?$array@H$03@std@@V?$allocator@V?$array@H$03@std@@@2@@std@@QBEIXZ ; std::vector<std::array<int,4>,std::allocator<std::array<int,4> > >::capacity
PUBLIC	?_Has_unused_capacity@?$vector@V?$array@H$03@std@@V?$allocator@V?$array@H$03@std@@@2@@std@@ABE_NXZ ; std::vector<std::array<int,4>,std::allocator<std::array<int,4> > >::_Has_unused_capacity
PUBLIC	??A?$vector@V?$array@H$03@std@@V?$allocator@V?$array@H$03@std@@@2@@std@@QAEAAV?$array@H$03@1@I@Z ; std::vector<std::array<int,4>,std::allocator<std::array<int,4> > >::operator[]
PUBLIC	?_Umove_if_noexcept1@?$vector@V?$array@H$03@std@@V?$allocator@V?$array@H$03@std@@@2@@std@@AAEXPAV?$array@H$03@2@00U?$integral_constant@_N$00@2@@Z ; std::vector<std::array<int,4>,std::allocator<std::array<int,4> > >::_Umove_if_noexcept1
PUBLIC	?_Umove_if_noexcept@?$vector@V?$array@H$03@std@@V?$allocator@V?$array@H$03@std@@@2@@std@@AAEXPAV?$array@H$03@2@00@Z ; std::vector<std::array<int,4>,std::allocator<std::array<int,4> > >::_Umove_if_noexcept
PUBLIC	?_Destroy@?$vector@V?$array@H$03@std@@V?$allocator@V?$array@H$03@std@@@2@@std@@AAEXPAV?$array@H$03@2@0@Z ; std::vector<std::array<int,4>,std::allocator<std::array<int,4> > >::_Destroy
PUBLIC	?_Calculate_growth@?$vector@V?$array@H$03@std@@V?$allocator@V?$array@H$03@std@@@2@@std@@ABEII@Z ; std::vector<std::array<int,4>,std::allocator<std::array<int,4> > >::_Calculate_growth
PUBLIC	?_Change_array@?$vector@V?$array@H$03@std@@V?$allocator@V?$array@H$03@std@@@2@@std@@AAEXQAV?$array@H$03@2@II@Z ; std::vector<std::array<int,4>,std::allocator<std::array<int,4> > >::_Change_array
PUBLIC	?_Tidy@?$vector@V?$array@H$03@std@@V?$allocator@V?$array@H$03@std@@@2@@std@@AAEXXZ ; std::vector<std::array<int,4>,std::allocator<std::array<int,4> > >::_Tidy
PUBLIC	?_Xlength@?$vector@V?$array@H$03@std@@V?$allocator@V?$array@H$03@std@@@2@@std@@CAXXZ ; std::vector<std::array<int,4>,std::allocator<std::array<int,4> > >::_Xlength
PUBLIC	?_Orphan_range@?$vector@V?$array@H$03@std@@V?$allocator@V?$array@H$03@std@@@2@@std@@ABEXPAV?$array@H$03@2@0@Z ; std::vector<std::array<int,4>,std::allocator<std::array<int,4> > >::_Orphan_range
PUBLIC	??1InstructionSet_Internal@InstructionSet@@QAE@XZ ; InstructionSet::InstructionSet_Internal::~InstructionSet_Internal
PUBLIC	??A?$array@H$03@std@@QAEAAHI@Z			; std::array<int,4>::operator[]
PUBLIC	?data@?$array@H$03@std@@QAEPAHXZ		; std::array<int,4>::data
PUBLIC	??$?8DU?$char_traits@D@std@@V?$allocator@D@1@@std@@YA_NABV?$basic_string@DU?$char_traits@D@std@@V?$allocator@D@2@@0@QBD@Z ; std::operator==<char,std::char_traits<char>,std::allocator<char> >
PUBLIC	_calculate_table
PUBLIC	_calculate_table_hw
PUBLIC	?FindProcessByName@@YA?AUtagPROCESSENTRY32W@@PB_W@Z ; FindProcessByName
PUBLIC	??0?$allocator@K@std@@QAE@XZ			; std::allocator<unsigned long>::allocator<unsigned long>
PUBLIC	??0?$allocator@K@std@@QAE@ABV01@@Z		; std::allocator<unsigned long>::allocator<unsigned long>
PUBLIC	?deallocate@?$allocator@K@std@@QAEXPAKI@Z	; std::allocator<unsigned long>::deallocate
PUBLIC	?allocate@?$allocator@K@std@@QAEPAKI@Z		; std::allocator<unsigned long>::allocate
PUBLIC	?max_size@?$allocator@K@std@@QBEIXZ		; std::allocator<unsigned long>::max_size
PUBLIC	?max_size@?$allocator_traits@V?$allocator@K@std@@@std@@SAIABV?$allocator@K@2@@Z ; std::allocator_traits<std::allocator<unsigned long> >::max_size
PUBLIC	??0?$_Wrap_alloc@V?$allocator@K@std@@@std@@QAE@XZ ; std::_Wrap_alloc<std::allocator<unsigned long> >::_Wrap_alloc<std::allocator<unsigned long> >
PUBLIC	??0?$_Wrap_alloc@V?$allocator@K@std@@@std@@QAE@$$QAU01@@Z ; std::_Wrap_alloc<std::allocator<unsigned long> >::_Wrap_alloc<std::allocator<unsigned long> >
PUBLIC	?allocate@?$_Wrap_alloc@V?$allocator@K@std@@@std@@QAEPAKI@Z ; std::_Wrap_alloc<std::allocator<unsigned long> >::allocate
PUBLIC	?deallocate@?$_Wrap_alloc@V?$allocator@K@std@@@std@@QAEXPAKI@Z ; std::_Wrap_alloc<std::allocator<unsigned long> >::deallocate
PUBLIC	?max_size@?$_Wrap_alloc@V?$allocator@K@std@@@std@@QBEIU_Nil@2@@Z ; std::_Wrap_alloc<std::allocator<unsigned long> >::max_size
PUBLIC	?deallocate@?$allocator@PAK@std@@QAEXPAPAKI@Z	; std::allocator<unsigned long *>::deallocate
PUBLIC	?allocate@?$allocator@PAK@std@@QAEPAPAKI@Z	; std::allocator<unsigned long *>::allocate
PUBLIC	?allocate@?$_Wrap_alloc@V?$allocator@PAK@std@@@std@@QAEPAPAKI@Z ; std::_Wrap_alloc<std::allocator<unsigned long *> >::allocate
PUBLIC	?deallocate@?$_Wrap_alloc@V?$allocator@PAK@std@@@std@@QAEXPAPAKI@Z ; std::_Wrap_alloc<std::allocator<unsigned long *> >::deallocate
PUBLIC	?_Getblock@?$_Deque_alloc@U?$_Deque_base_types@KV?$allocator@K@std@@@std@@@std@@QBEII@Z ; std::_Deque_alloc<std::_Deque_base_types<unsigned long,std::allocator<unsigned long> > >::_Getblock
PUBLIC	??0?$_Deque_alloc@U?$_Deque_base_types@KV?$allocator@K@std@@@std@@@std@@QAE@XZ ; std::_Deque_alloc<std::_Deque_base_types<unsigned long,std::allocator<unsigned long> > >::_Deque_alloc<std::_Deque_base_types<unsigned long,std::allocator<unsigned long> > >
PUBLIC	??1?$_Deque_alloc@U?$_Deque_base_types@KV?$allocator@K@std@@@std@@@std@@QAE@XZ ; std::_Deque_alloc<std::_Deque_base_types<unsigned long,std::allocator<unsigned long> > >::~_Deque_alloc<std::_Deque_base_types<unsigned long,std::allocator<unsigned long> > >
PUBLIC	?_Alloc_proxy@?$_Deque_alloc@U?$_Deque_base_types@KV?$allocator@K@std@@@std@@@std@@QAEXXZ ; std::_Deque_alloc<std::_Deque_base_types<unsigned long,std::allocator<unsigned long> > >::_Alloc_proxy
PUBLIC	?_Free_proxy@?$_Deque_alloc@U?$_Deque_base_types@KV?$allocator@K@std@@@std@@@std@@QAEXXZ ; std::_Deque_alloc<std::_Deque_base_types<unsigned long,std::allocator<unsigned long> > >::_Free_proxy
PUBLIC	?_Myproxy@?$_Deque_alloc@U?$_Deque_base_types@KV?$allocator@K@std@@@std@@@std@@QAEAAPAU_Container_proxy@2@XZ ; std::_Deque_alloc<std::_Deque_base_types<unsigned long,std::allocator<unsigned long> > >::_Myproxy
PUBLIC	?_Orphan_all@?$_Deque_alloc@U?$_Deque_base_types@KV?$allocator@K@std@@@std@@@std@@QAEXXZ ; std::_Deque_alloc<std::_Deque_base_types<unsigned long,std::allocator<unsigned long> > >::_Orphan_all
PUBLIC	?_Swap_all@?$_Deque_alloc@U?$_Deque_base_types@KV?$allocator@K@std@@@std@@@std@@QAEXAAV12@@Z ; std::_Deque_alloc<std::_Deque_base_types<unsigned long,std::allocator<unsigned long> > >::_Swap_all
PUBLIC	?_Getal@?$_Deque_alloc@U?$_Deque_base_types@KV?$allocator@K@std@@@std@@@std@@QAEAAU?$_Wrap_alloc@V?$allocator@K@std@@@2@XZ ; std::_Deque_alloc<std::_Deque_base_types<unsigned long,std::allocator<unsigned long> > >::_Getal
PUBLIC	?_Getal@?$_Deque_alloc@U?$_Deque_base_types@KV?$allocator@K@std@@@std@@@std@@QBEABU?$_Wrap_alloc@V?$allocator@K@std@@@2@XZ ; std::_Deque_alloc<std::_Deque_base_types<unsigned long,std::allocator<unsigned long> > >::_Getal
PUBLIC	?_Get_data@?$_Deque_alloc@U?$_Deque_base_types@KV?$allocator@K@std@@@std@@@std@@QAEAAV?$_Deque_val@U?$_Deque_simple_types@K@std@@@2@XZ ; std::_Deque_alloc<std::_Deque_base_types<unsigned long,std::allocator<unsigned long> > >::_Get_data
PUBLIC	?_Get_data@?$_Deque_alloc@U?$_Deque_base_types@KV?$allocator@K@std@@@std@@@std@@QBEABV?$_Deque_val@U?$_Deque_simple_types@K@std@@@2@XZ ; std::_Deque_alloc<std::_Deque_base_types<unsigned long,std::allocator<unsigned long> > >::_Get_data
PUBLIC	?_Map@?$_Deque_alloc@U?$_Deque_base_types@KV?$allocator@K@std@@@std@@@std@@QAEAAPAPAKXZ ; std::_Deque_alloc<std::_Deque_base_types<unsigned long,std::allocator<unsigned long> > >::_Map
PUBLIC	?_Mapsize@?$_Deque_alloc@U?$_Deque_base_types@KV?$allocator@K@std@@@std@@@std@@QAEAAIXZ ; std::_Deque_alloc<std::_Deque_base_types<unsigned long,std::allocator<unsigned long> > >::_Mapsize
PUBLIC	?_Myoff@?$_Deque_alloc@U?$_Deque_base_types@KV?$allocator@K@std@@@std@@@std@@QAEAAIXZ ; std::_Deque_alloc<std::_Deque_base_types<unsigned long,std::allocator<unsigned long> > >::_Myoff
PUBLIC	?_Mysize@?$_Deque_alloc@U?$_Deque_base_types@KV?$allocator@K@std@@@std@@@std@@QAEAAIXZ ; std::_Deque_alloc<std::_Deque_base_types<unsigned long,std::allocator<unsigned long> > >::_Mysize
PUBLIC	?_Mysize@?$_Deque_alloc@U?$_Deque_base_types@KV?$allocator@K@std@@@std@@@std@@QBEABIXZ ; std::_Deque_alloc<std::_Deque_base_types<unsigned long,std::allocator<unsigned long> > >::_Mysize
PUBLIC	??0?$_Deque_val@U?$_Deque_simple_types@K@std@@@std@@QAE@XZ ; std::_Deque_val<std::_Deque_simple_types<unsigned long> >::_Deque_val<std::_Deque_simple_types<unsigned long> >
PUBLIC	?_Getblock@?$_Deque_val@U?$_Deque_simple_types@K@std@@@std@@QBEII@Z ; std::_Deque_val<std::_Deque_simple_types<unsigned long> >::_Getblock
PUBLIC	??1?$_Deque_val@U?$_Deque_simple_types@K@std@@@std@@QAE@XZ ; std::_Deque_val<std::_Deque_simple_types<unsigned long> >::~_Deque_val<std::_Deque_simple_types<unsigned long> >
PUBLIC	?_Get_first@?$_Compressed_pair@U?$_Wrap_alloc@V?$allocator@K@std@@@std@@V?$_Deque_val@U?$_Deque_simple_types@K@std@@@2@$00@std@@QAEAAU?$_Wrap_alloc@V?$allocator@K@std@@@2@XZ ; std::_Compressed_pair<std::_Wrap_alloc<std::allocator<unsigned long> >,std::_Deque_val<std::_Deque_simple_types<unsigned long> >,1>::_Get_first
PUBLIC	?_Get_first@?$_Compressed_pair@U?$_Wrap_alloc@V?$allocator@K@std@@@std@@V?$_Deque_val@U?$_Deque_simple_types@K@std@@@2@$00@std@@QBEABU?$_Wrap_alloc@V?$allocator@K@std@@@2@XZ ; std::_Compressed_pair<std::_Wrap_alloc<std::allocator<unsigned long> >,std::_Deque_val<std::_Deque_simple_types<unsigned long> >,1>::_Get_first
PUBLIC	?_Get_second@?$_Compressed_pair@U?$_Wrap_alloc@V?$allocator@K@std@@@std@@V?$_Deque_val@U?$_Deque_simple_types@K@std@@@2@$00@std@@QAEAAV?$_Deque_val@U?$_Deque_simple_types@K@std@@@2@XZ ; std::_Compressed_pair<std::_Wrap_alloc<std::allocator<unsigned long> >,std::_Deque_val<std::_Deque_simple_types<unsigned long> >,1>::_Get_second
PUBLIC	?_Get_second@?$_Compressed_pair@U?$_Wrap_alloc@V?$allocator@K@std@@@std@@V?$_Deque_val@U?$_Deque_simple_types@K@std@@@2@$00@std@@QBEABV?$_Deque_val@U?$_Deque_simple_types@K@std@@@2@XZ ; std::_Compressed_pair<std::_Wrap_alloc<std::allocator<unsigned long> >,std::_Deque_val<std::_Deque_simple_types<unsigned long> >,1>::_Get_second
PUBLIC	??1?$_Compressed_pair@U?$_Wrap_alloc@V?$allocator@K@std@@@std@@V?$_Deque_val@U?$_Deque_simple_types@K@std@@@2@$00@std@@QAE@XZ ; std::_Compressed_pair<std::_Wrap_alloc<std::allocator<unsigned long> >,std::_Deque_val<std::_Deque_simple_types<unsigned long> >,1>::~_Compressed_pair<std::_Wrap_alloc<std::allocator<unsigned long> >,std::_Deque_val<std::_Deque_simple_types<unsigned long> >,1>
PUBLIC	??0?$deque@KV?$allocator@K@std@@@std@@QAE@XZ	; std::deque<unsigned long,std::allocator<unsigned long> >::deque<unsigned long,std::allocator<unsigned long> >
PUBLIC	??0?$deque@KV?$allocator@K@std@@@std@@QAE@$$QAV01@@Z ; std::deque<unsigned long,std::allocator<unsigned long> >::deque<unsigned long,std::allocator<unsigned long> >
PUBLIC	?_Assign_rv@?$deque@KV?$allocator@K@std@@@std@@QAEX$$QAV12@U?$integral_constant@_N$00@2@@Z ; std::deque<unsigned long,std::allocator<unsigned long> >::_Assign_rv
PUBLIC	??1?$deque@KV?$allocator@K@std@@@std@@QAE@XZ	; std::deque<unsigned long,std::allocator<unsigned long> >::~deque<unsigned long,std::allocator<unsigned long> >
PUBLIC	?begin@?$deque@KV?$allocator@K@std@@@std@@QAE?AV?$_Deque_iterator@V?$_Deque_val@U?$_Deque_simple_types@K@std@@@std@@@2@XZ ; std::deque<unsigned long,std::allocator<unsigned long> >::begin
PUBLIC	?max_size@?$deque@KV?$allocator@K@std@@@std@@QBEIXZ ; std::deque<unsigned long,std::allocator<unsigned long> >::max_size
PUBLIC	?empty@?$deque@KV?$allocator@K@std@@@std@@QBE_NXZ ; std::deque<unsigned long,std::allocator<unsigned long> >::empty
PUBLIC	?front@?$deque@KV?$allocator@K@std@@@std@@QAEAAKXZ ; std::deque<unsigned long,std::allocator<unsigned long> >::front
PUBLIC	?pop_front@?$deque@KV?$allocator@K@std@@@std@@QAEXXZ ; std::deque<unsigned long,std::allocator<unsigned long> >::pop_front
PUBLIC	?push_back@?$deque@KV?$allocator@K@std@@@std@@QAEXABK@Z ; std::deque<unsigned long,std::allocator<unsigned long> >::push_back
PUBLIC	?pop_back@?$deque@KV?$allocator@K@std@@@std@@QAEXXZ ; std::deque<unsigned long,std::allocator<unsigned long> >::pop_back
PUBLIC	?_Xlen@?$deque@KV?$allocator@K@std@@@std@@IBEXXZ ; std::deque<unsigned long,std::allocator<unsigned long> >::_Xlen
PUBLIC	?_Growmap@?$deque@KV?$allocator@K@std@@@std@@IAEXI@Z ; std::deque<unsigned long,std::allocator<unsigned long> >::_Growmap
PUBLIC	?_Tidy@?$deque@KV?$allocator@K@std@@@std@@IAEXXZ ; std::deque<unsigned long,std::allocator<unsigned long> >::_Tidy
PUBLIC	??0?$queue@KV?$deque@KV?$allocator@K@std@@@std@@@std@@QAE@XZ ; std::queue<unsigned long,std::deque<unsigned long,std::allocator<unsigned long> > >::queue<unsigned long,std::deque<unsigned long,std::allocator<unsigned long> > >
PUBLIC	?empty@?$queue@KV?$deque@KV?$allocator@K@std@@@std@@@std@@QBE_NXZ ; std::queue<unsigned long,std::deque<unsigned long,std::allocator<unsigned long> > >::empty
PUBLIC	?front@?$queue@KV?$deque@KV?$allocator@K@std@@@std@@@std@@QAEAAKXZ ; std::queue<unsigned long,std::deque<unsigned long,std::allocator<unsigned long> > >::front
PUBLIC	?push@?$queue@KV?$deque@KV?$allocator@K@std@@@std@@@std@@QAEXABK@Z ; std::queue<unsigned long,std::deque<unsigned long,std::allocator<unsigned long> > >::push
PUBLIC	?pop@?$queue@KV?$deque@KV?$allocator@K@std@@@std@@@std@@QAEXXZ ; std::queue<unsigned long,std::deque<unsigned long,std::allocator<unsigned long> > >::pop
PUBLIC	??1?$queue@KV?$deque@KV?$allocator@K@std@@@std@@@std@@QAE@XZ ; std::queue<unsigned long,std::deque<unsigned long,std::allocator<unsigned long> > >::~queue<unsigned long,std::deque<unsigned long,std::allocator<unsigned long> > >
PUBLIC	??0?$queue@KV?$deque@KV?$allocator@K@std@@@std@@@std@@QAE@$$QAV01@@Z ; std::queue<unsigned long,std::deque<unsigned long,std::allocator<unsigned long> > >::queue<unsigned long,std::deque<unsigned long,std::allocator<unsigned long> > >
PUBLIC	??$static_cast_p2p@X_W@@YAPAPAXPAPA_W@Z		; static_cast_p2p<void,wchar_t>
PUBLIC	??$max@PAE@std@@YAABQAEABQAE0@Z			; std::max<unsigned char *>
PUBLIC	?SK_GetFileHash_32@@YGIW4sk_hash_algo@@PB_WP6GX_K2@Z@Z ; SK_GetFileHash_32
PUBLIC	??$min@I@std@@YAABIABI0@Z			; std::min<unsigned int>
PUBLIC	??0?$CHeapPtrBase@EVCCRTAllocator@ATL@@@ATL@@IAE@XZ ; ATL::CHeapPtrBase<unsigned char,ATL::CCRTAllocator>::CHeapPtrBase<unsigned char,ATL::CCRTAllocator>
PUBLIC	??1?$CHeapPtrBase@EVCCRTAllocator@ATL@@@ATL@@QAE@XZ ; ATL::CHeapPtrBase<unsigned char,ATL::CCRTAllocator>::~CHeapPtrBase<unsigned char,ATL::CCRTAllocator>
PUBLIC	??B?$CHeapPtrBase@EVCCRTAllocator@ATL@@@ATL@@QBEPAEXZ ; ATL::CHeapPtrBase<unsigned char,ATL::CCRTAllocator>::operator unsigned char *
PUBLIC	?AllocateBytes@?$CHeapPtrBase@EVCCRTAllocator@ATL@@@ATL@@QAE_NI@Z ; ATL::CHeapPtrBase<unsigned char,ATL::CCRTAllocator>::AllocateBytes
PUBLIC	?Free@?$CHeapPtrBase@EVCCRTAllocator@ATL@@@ATL@@QAEXXZ ; ATL::CHeapPtrBase<unsigned char,ATL::CCRTAllocator>::Free
PUBLIC	??0?$CHeapPtr@EVCCRTAllocator@ATL@@@ATL@@QAE@XZ	; ATL::CHeapPtr<unsigned char,ATL::CCRTAllocator>::CHeapPtr<unsigned char,ATL::CCRTAllocator>
PUBLIC	?Allocate@?$CHeapPtr@EVCCRTAllocator@ATL@@@ATL@@QAE_NI@Z ; ATL::CHeapPtr<unsigned char,ATL::CCRTAllocator>::Allocate
PUBLIC	??1?$CHeapPtr@EVCCRTAllocator@ATL@@@ATL@@QAE@XZ	; ATL::CHeapPtr<unsigned char,ATL::CCRTAllocator>::~CHeapPtr<unsigned char,ATL::CCRTAllocator>
PUBLIC	??0sk_host_process_s@@QAE@XZ			; sk_host_process_s::sk_host_process_s
PUBLIC	?SK_PathRemoveExtension@@YAXPA_W@Z		; SK_PathRemoveExtension
PUBLIC	?SK_FileHasSpaces@@YA_NPB_W@Z			; SK_FileHasSpaces
PUBLIC	?SK_FileHas8Dot3Name@@YAHPB_W@Z			; SK_FileHas8Dot3Name
PUBLIC	?ModifyPrivilege@@YAJPB_WH@Z			; ModifyPrivilege
PUBLIC	?SK_Generate8Dot3@@YA_NPB_W@Z			; SK_Generate8Dot3
PUBLIC	??$?H_WU?$char_traits@_W@std@@V?$allocator@_W@1@@std@@YA?AV?$basic_string@_WU?$char_traits@_W@std@@V?$allocator@_W@2@@0@$$QAV10@QB_W@Z ; std::operator+<wchar_t,std::char_traits<wchar_t>,std::allocator<wchar_t> >
PUBLIC	??$__vcrt_va_start_verify_argument_type@QBD@@YAXXZ ; __vcrt_va_start_verify_argument_type<char const * const>
PUBLIC	??0?$_String_const_iterator@V?$_String_val@U?$_Simple_types@_W@std@@@std@@@std@@QAE@PB_WPBU_Container_base0@1@@Z ; std::_String_const_iterator<std::_String_val<std::_Simple_types<wchar_t> > >::_String_const_iterator<std::_String_val<std::_Simple_types<wchar_t> > >
PUBLIC	??D?$_String_const_iterator@V?$_String_val@U?$_Simple_types@_W@std@@@std@@@std@@QBEAB_WXZ ; std::_String_const_iterator<std::_String_val<std::_Simple_types<wchar_t> > >::operator*
PUBLIC	??E?$_String_const_iterator@V?$_String_val@U?$_Simple_types@_W@std@@@std@@@std@@QAEAAV01@XZ ; std::_String_const_iterator<std::_String_val<std::_Simple_types<wchar_t> > >::operator++
PUBLIC	??Y?$_String_const_iterator@V?$_String_val@U?$_Simple_types@_W@std@@@std@@@std@@QAEAAV01@H@Z ; std::_String_const_iterator<std::_String_val<std::_Simple_types<wchar_t> > >::operator+=
PUBLIC	??G?$_String_const_iterator@V?$_String_val@U?$_Simple_types@_W@std@@@std@@@std@@QBEHABV01@@Z ; std::_String_const_iterator<std::_String_val<std::_Simple_types<wchar_t> > >::operator-
PUBLIC	??8?$_String_const_iterator@V?$_String_val@U?$_Simple_types@_W@std@@@std@@@std@@QBE_NABV01@@Z ; std::_String_const_iterator<std::_String_val<std::_Simple_types<wchar_t> > >::operator==
PUBLIC	??9?$_String_const_iterator@V?$_String_val@U?$_Simple_types@_W@std@@@std@@@std@@QBE_NABV01@@Z ; std::_String_const_iterator<std::_String_val<std::_Simple_types<wchar_t> > >::operator!=
PUBLIC	?_Compat@?$_String_const_iterator@V?$_String_val@U?$_Simple_types@_W@std@@@std@@@std@@QBEXABV12@@Z ; std::_String_const_iterator<std::_String_val<std::_Simple_types<wchar_t> > >::_Compat
PUBLIC	??0?$_String_iterator@V?$_String_val@U?$_Simple_types@_W@std@@@std@@@std@@QAE@PA_WPBU_Container_base0@1@@Z ; std::_String_iterator<std::_String_val<std::_Simple_types<wchar_t> > >::_String_iterator<std::_String_val<std::_Simple_types<wchar_t> > >
PUBLIC	?_Rechecked@?$_String_iterator@V?$_String_val@U?$_Simple_types@_W@std@@@std@@@std@@QAEAAV12@PA_W@Z ; std::_String_iterator<std::_String_val<std::_Simple_types<wchar_t> > >::_Rechecked
PUBLIC	?_Unchecked@?$_String_iterator@V?$_String_val@U?$_Simple_types@_W@std@@@std@@@std@@QBEPA_WXZ ; std::_String_iterator<std::_String_val<std::_Simple_types<wchar_t> > >::_Unchecked
PUBLIC	??D?$_String_iterator@V?$_String_val@U?$_Simple_types@_W@std@@@std@@@std@@QBEAA_WXZ ; std::_String_iterator<std::_String_val<std::_Simple_types<wchar_t> > >::operator*
PUBLIC	??E?$_String_iterator@V?$_String_val@U?$_Simple_types@_W@std@@@std@@@std@@QAEAAV01@XZ ; std::_String_iterator<std::_String_val<std::_Simple_types<wchar_t> > >::operator++
PUBLIC	??Y?$_String_iterator@V?$_String_val@U?$_Simple_types@_W@std@@@std@@@std@@QAEAAV01@H@Z ; std::_String_iterator<std::_String_val<std::_Simple_types<wchar_t> > >::operator+=
PUBLIC	??H?$_String_iterator@V?$_String_val@U?$_Simple_types@_W@std@@@std@@@std@@QBE?AV01@H@Z ; std::_String_iterator<std::_String_val<std::_Simple_types<wchar_t> > >::operator+
PUBLIC	??0?$_String_const_iterator@V?$_String_val@U?$_Simple_types@D@std@@@std@@@std@@QAE@PBDPBU_Container_base0@1@@Z ; std::_String_const_iterator<std::_String_val<std::_Simple_types<char> > >::_String_const_iterator<std::_String_val<std::_Simple_types<char> > >
PUBLIC	??D?$_String_const_iterator@V?$_String_val@U?$_Simple_types@D@std@@@std@@@std@@QBEABDXZ ; std::_String_const_iterator<std::_String_val<std::_Simple_types<char> > >::operator*
PUBLIC	??E?$_String_const_iterator@V?$_String_val@U?$_Simple_types@D@std@@@std@@@std@@QAEAAV01@XZ ; std::_String_const_iterator<std::_String_val<std::_Simple_types<char> > >::operator++
PUBLIC	??Y?$_String_const_iterator@V?$_String_val@U?$_Simple_types@D@std@@@std@@@std@@QAEAAV01@H@Z ; std::_String_const_iterator<std::_String_val<std::_Simple_types<char> > >::operator+=
PUBLIC	??G?$_String_const_iterator@V?$_String_val@U?$_Simple_types@D@std@@@std@@@std@@QBEHABV01@@Z ; std::_String_const_iterator<std::_String_val<std::_Simple_types<char> > >::operator-
PUBLIC	??8?$_String_const_iterator@V?$_String_val@U?$_Simple_types@D@std@@@std@@@std@@QBE_NABV01@@Z ; std::_String_const_iterator<std::_String_val<std::_Simple_types<char> > >::operator==
PUBLIC	??9?$_String_const_iterator@V?$_String_val@U?$_Simple_types@D@std@@@std@@@std@@QBE_NABV01@@Z ; std::_String_const_iterator<std::_String_val<std::_Simple_types<char> > >::operator!=
PUBLIC	?_Compat@?$_String_const_iterator@V?$_String_val@U?$_Simple_types@D@std@@@std@@@std@@QBEXABV12@@Z ; std::_String_const_iterator<std::_String_val<std::_Simple_types<char> > >::_Compat
PUBLIC	??0?$_String_iterator@V?$_String_val@U?$_Simple_types@D@std@@@std@@@std@@QAE@PADPBU_Container_base0@1@@Z ; std::_String_iterator<std::_String_val<std::_Simple_types<char> > >::_String_iterator<std::_String_val<std::_Simple_types<char> > >
PUBLIC	?_Rechecked@?$_String_iterator@V?$_String_val@U?$_Simple_types@D@std@@@std@@@std@@QAEAAV12@PAD@Z ; std::_String_iterator<std::_String_val<std::_Simple_types<char> > >::_Rechecked
PUBLIC	?_Unchecked@?$_String_iterator@V?$_String_val@U?$_Simple_types@D@std@@@std@@@std@@QBEPADXZ ; std::_String_iterator<std::_String_val<std::_Simple_types<char> > >::_Unchecked
PUBLIC	??D?$_String_iterator@V?$_String_val@U?$_Simple_types@D@std@@@std@@@std@@QBEAADXZ ; std::_String_iterator<std::_String_val<std::_Simple_types<char> > >::operator*
PUBLIC	??E?$_String_iterator@V?$_String_val@U?$_Simple_types@D@std@@@std@@@std@@QAEAAV01@XZ ; std::_String_iterator<std::_String_val<std::_Simple_types<char> > >::operator++
PUBLIC	??Y?$_String_iterator@V?$_String_val@U?$_Simple_types@D@std@@@std@@@std@@QAEAAV01@H@Z ; std::_String_iterator<std::_String_val<std::_Simple_types<char> > >::operator+=
PUBLIC	??H?$_String_iterator@V?$_String_val@U?$_Simple_types@D@std@@@std@@@std@@QBE?AV01@H@Z ; std::_String_iterator<std::_String_val<std::_Simple_types<char> > >::operator+
PUBLIC	??$emplace_back@ABV?$array@H$03@std@@@?$vector@V?$array@H$03@std@@V?$allocator@V?$array@H$03@std@@@2@@std@@QAEXABV?$array@H$03@1@@Z ; std::vector<std::array<int,4>,std::allocator<std::array<int,4> > >::emplace_back<std::array<int,4> const &>
PUBLIC	??$move@AAU?$_Wrap_alloc@V?$allocator@K@std@@@std@@@std@@YA$$QAU?$_Wrap_alloc@V?$allocator@K@std@@@0@AAU10@@Z ; std::move<std::_Wrap_alloc<std::allocator<unsigned long> > &>
PUBLIC	??$?0U?$_Wrap_alloc@V?$allocator@K@std@@@std@@X@?$_Deque_alloc@U?$_Deque_base_types@KV?$allocator@K@std@@@std@@@std@@QAE@$$QAU?$_Wrap_alloc@V?$allocator@K@std@@@1@@Z ; std::_Deque_alloc<std::_Deque_base_types<unsigned long,std::allocator<unsigned long> > >::_Deque_alloc<std::_Deque_base_types<unsigned long,std::allocator<unsigned long> > ><std::_Wrap_alloc<std::allocator<unsigned long> >,void>
PUBLIC	??$move@AAV?$deque@KV?$allocator@K@std@@@std@@@std@@YA$$QAV?$deque@KV?$allocator@K@std@@@0@AAV10@@Z ; std::move<std::deque<unsigned long,std::allocator<unsigned long> > &>
PUBLIC	??$addressof@V?$_String_val@U?$_Simple_types@_W@std@@@std@@@std@@YAPAV?$_String_val@U?$_Simple_types@_W@std@@@0@AAV10@@Z ; std::addressof<std::_String_val<std::_Simple_types<wchar_t> > >
PUBLIC	??$move@AAU?$_Wrap_alloc@V?$allocator@_W@std@@@std@@@std@@YA$$QAU?$_Wrap_alloc@V?$allocator@_W@std@@@0@AAU10@@Z ; std::move<std::_Wrap_alloc<std::allocator<wchar_t> > &>
PUBLIC	??$?0U?$_Wrap_alloc@V?$allocator@_W@std@@@std@@X@?$_String_alloc@U?$_String_base_types@_WV?$allocator@_W@std@@@std@@@std@@QAE@$$QAU?$_Wrap_alloc@V?$allocator@_W@std@@@1@@Z ; std::_String_alloc<std::_String_base_types<wchar_t,std::allocator<wchar_t> > >::_String_alloc<std::_String_base_types<wchar_t,std::allocator<wchar_t> > ><std::_Wrap_alloc<std::allocator<wchar_t> >,void>
PUBLIC	??$move@AAV?$basic_string@_WU?$char_traits@_W@std@@V?$allocator@_W@2@@std@@@std@@YA$$QAV?$basic_string@_WU?$char_traits@_W@std@@V?$allocator@_W@2@@0@AAV10@@Z ; std::move<std::basic_string<wchar_t,std::char_traits<wchar_t>,std::allocator<wchar_t> > &>
PUBLIC	??$addressof@V?$_String_val@U?$_Simple_types@D@std@@@std@@@std@@YAPAV?$_String_val@U?$_Simple_types@D@std@@@0@AAV10@@Z ; std::addressof<std::_String_val<std::_Simple_types<char> > >
PUBLIC	??$move@AAU?$_Wrap_alloc@V?$allocator@D@std@@@std@@@std@@YA$$QAU?$_Wrap_alloc@V?$allocator@D@std@@@0@AAU10@@Z ; std::move<std::_Wrap_alloc<std::allocator<char> > &>
PUBLIC	??$?0U?$_Wrap_alloc@V?$allocator@D@std@@@std@@X@?$_String_alloc@U?$_String_base_types@DV?$allocator@D@std@@@std@@@std@@QAE@$$QAU?$_Wrap_alloc@V?$allocator@D@std@@@1@@Z ; std::_String_alloc<std::_String_base_types<char,std::allocator<char> > >::_String_alloc<std::_String_base_types<char,std::allocator<char> > ><std::_Wrap_alloc<std::allocator<char> >,void>
PUBLIC	??$move@AAV?$basic_string@DU?$char_traits@D@std@@V?$allocator@D@2@@std@@@std@@YA$$QAV?$basic_string@DU?$char_traits@D@std@@V?$allocator@D@2@@0@AAV10@@Z ; std::move<std::basic_string<char,std::char_traits<char>,std::allocator<char> > &>
PUBLIC	??$?0$$V@?$_Compressed_pair@U?$_Wrap_alloc@V?$allocator@V?$array@H$03@std@@@std@@@std@@V?$_Vector_val@U?$_Simple_types@V?$array@H$03@std@@@std@@@2@$00@std@@QAE@U_Zero_then_variadic_args_t@1@@Z ; std::_Compressed_pair<std::_Wrap_alloc<std::allocator<std::array<int,4> > >,std::_Vector_val<std::_Simple_types<std::array<int,4> > >,1>::_Compressed_pair<std::_Wrap_alloc<std::allocator<std::array<int,4> > >,std::_Vector_val<std::_Simple_types<std::array<int,4> > >,1><>
PUBLIC	??$?0AAU?$_Wrap_alloc@V?$allocator@K@std@@@std@@@?$_Wrap_alloc@V?$allocator@PAK@std@@@std@@QAE@AAU?$_Wrap_alloc@V?$allocator@K@std@@@1@@Z ; std::_Wrap_alloc<std::allocator<unsigned long *> >::_Wrap_alloc<std::allocator<unsigned long *> ><std::_Wrap_alloc<std::allocator<unsigned long> > &>
PUBLIC	??$addressof@PAK@std@@YAPAPAKAAPAK@Z		; std::addressof<unsigned long *>
PUBLIC	??$destroy@PAK@?$_Wrap_alloc@V?$allocator@K@std@@@std@@QAEXPAPAK@Z ; std::_Wrap_alloc<std::allocator<unsigned long> >::destroy<unsigned long *>
PUBLIC	??$_Unfancy@K@std@@YAPAKPAK@Z			; std::_Unfancy<unsigned long>
PUBLIC	??$construct@KABK@?$_Wrap_alloc@V?$allocator@K@std@@@std@@QAEXPAKABK@Z ; std::_Wrap_alloc<std::allocator<unsigned long> >::construct<unsigned long,unsigned long const &>
PUBLIC	??$destroy@K@?$_Wrap_alloc@V?$allocator@K@std@@@std@@QAEXPAK@Z ; std::_Wrap_alloc<std::allocator<unsigned long> >::destroy<unsigned long>
PUBLIC	??0?$_Deque_const_iterator@V?$_Deque_val@U?$_Deque_simple_types@K@std@@@std@@@std@@QAE@IPBU_Container_base12@1@@Z ; std::_Deque_const_iterator<std::_Deque_val<std::_Deque_simple_types<unsigned long> > >::_Deque_const_iterator<std::_Deque_val<std::_Deque_simple_types<unsigned long> > >
PUBLIC	??D?$_Deque_const_iterator@V?$_Deque_val@U?$_Deque_simple_types@K@std@@@std@@@std@@QBEABKXZ ; std::_Deque_const_iterator<std::_Deque_val<std::_Deque_simple_types<unsigned long> > >::operator*
PUBLIC	?_Setcont@?$_Deque_const_iterator@V?$_Deque_val@U?$_Deque_simple_types@K@std@@@std@@@std@@QAEXPBV?$_Deque_val@U?$_Deque_simple_types@K@std@@@2@@Z ; std::_Deque_const_iterator<std::_Deque_val<std::_Deque_simple_types<unsigned long> > >::_Setcont
PUBLIC	??1?$_Deque_const_iterator@V?$_Deque_val@U?$_Deque_simple_types@K@std@@@std@@@std@@QAE@XZ ; std::_Deque_const_iterator<std::_Deque_val<std::_Deque_simple_types<unsigned long> > >::~_Deque_const_iterator<std::_Deque_val<std::_Deque_simple_types<unsigned long> > >
PUBLIC	??0?$_Deque_iterator@V?$_Deque_val@U?$_Deque_simple_types@K@std@@@std@@@std@@QAE@IPBU_Container_base12@1@@Z ; std::_Deque_iterator<std::_Deque_val<std::_Deque_simple_types<unsigned long> > >::_Deque_iterator<std::_Deque_val<std::_Deque_simple_types<unsigned long> > >
PUBLIC	??D?$_Deque_iterator@V?$_Deque_val@U?$_Deque_simple_types@K@std@@@std@@@std@@QBEAAKXZ ; std::_Deque_iterator<std::_Deque_val<std::_Deque_simple_types<unsigned long> > >::operator*
PUBLIC	??1?$_Deque_iterator@V?$_Deque_val@U?$_Deque_simple_types@K@std@@@std@@@std@@QAE@XZ ; std::_Deque_iterator<std::_Deque_val<std::_Deque_simple_types<unsigned long> > >::~_Deque_iterator<std::_Deque_val<std::_Deque_simple_types<unsigned long> > >
PUBLIC	??$_Unfancy@_W@std@@YAPA_WPA_W@Z		; std::_Unfancy<wchar_t>
PUBLIC	?pointer_to@?$pointer_traits@PA_W@std@@SAPA_WAA_W@Z ; std::pointer_traits<wchar_t *>::pointer_to
PUBLIC	??$?0V?$allocator@_W@std@@@?$_Wrap_alloc@V?$allocator@_W@std@@@std@@QAE@$$QAV?$allocator@_W@1@@Z ; std::_Wrap_alloc<std::allocator<wchar_t> >::_Wrap_alloc<std::allocator<wchar_t> ><std::allocator<wchar_t> >
PUBLIC	??$?0$$V@?$_Compressed_pair@U?$_Wrap_alloc@V?$allocator@_W@std@@@std@@V?$_String_val@U?$_Simple_types@_W@std@@@2@$00@std@@QAE@U_Zero_then_variadic_args_t@1@@Z ; std::_Compressed_pair<std::_Wrap_alloc<std::allocator<wchar_t> >,std::_String_val<std::_Simple_types<wchar_t> >,1>::_Compressed_pair<std::_Wrap_alloc<std::allocator<wchar_t> >,std::_String_val<std::_Simple_types<wchar_t> >,1><>
PUBLIC	??$_Unfancy@D@std@@YAPADPAD@Z			; std::_Unfancy<char>
PUBLIC	?pointer_to@?$pointer_traits@PAD@std@@SAPADAAD@Z ; std::pointer_traits<char *>::pointer_to
PUBLIC	??$?0$$V@?$_Compressed_pair@U?$_Wrap_alloc@V?$allocator@D@std@@@std@@V?$_String_val@U?$_Simple_types@D@std@@@2@$00@std@@QAE@U_Zero_then_variadic_args_t@1@@Z ; std::_Compressed_pair<std::_Wrap_alloc<std::allocator<char> >,std::_String_val<std::_Simple_types<char> >,1>::_Compressed_pair<std::_Wrap_alloc<std::allocator<char> >,std::_String_val<std::_Simple_types<char> >,1><>
PUBLIC	??$addressof@PA_W@std@@YAPAPA_WAAPA_W@Z		; std::addressof<wchar_t *>
PUBLIC	??$destroy@PA_W@?$_Wrap_alloc@V?$allocator@_W@std@@@std@@QAEXPAPA_W@Z ; std::_Wrap_alloc<std::allocator<wchar_t> >::destroy<wchar_t *>
PUBLIC	??$addressof@PAD@std@@YAPAPADAAPAD@Z		; std::addressof<char *>
PUBLIC	??$destroy@PAD@?$_Wrap_alloc@V?$allocator@D@std@@@std@@QAEXPAPAD@Z ; std::_Wrap_alloc<std::allocator<char> >::destroy<char *>
PUBLIC	??$addressof@D@std@@YAPADAAD@Z			; std::addressof<char>
PUBLIC	??$addressof@_W@std@@YAPA_WAA_W@Z		; std::addressof<wchar_t>
PUBLIC	?deallocate@?$allocator@U_Container_proxy@std@@@std@@QAEXPAU_Container_proxy@2@I@Z ; std::allocator<std::_Container_proxy>::deallocate
PUBLIC	?allocate@?$allocator@U_Container_proxy@std@@@std@@QAEPAU_Container_proxy@2@I@Z ; std::allocator<std::_Container_proxy>::allocate
PUBLIC	?address@?$_Wrap_alloc@V?$allocator@U_Container_proxy@std@@@std@@@std@@QBEPAU_Container_proxy@2@AAU32@@Z ; std::_Wrap_alloc<std::allocator<std::_Container_proxy> >::address
PUBLIC	?allocate@?$_Wrap_alloc@V?$allocator@U_Container_proxy@std@@@std@@@std@@QAEPAU_Container_proxy@2@I@Z ; std::_Wrap_alloc<std::allocator<std::_Container_proxy> >::allocate
PUBLIC	?deallocate@?$_Wrap_alloc@V?$allocator@U_Container_proxy@std@@@std@@@std@@QAEXPAU_Container_proxy@2@I@Z ; std::_Wrap_alloc<std::allocator<std::_Container_proxy> >::deallocate
PUBLIC	??$?0AAU?$_Wrap_alloc@V?$allocator@K@std@@@std@@@?$_Wrap_alloc@V?$allocator@U_Container_proxy@std@@@std@@@std@@QAE@AAU?$_Wrap_alloc@V?$allocator@K@std@@@1@@Z ; std::_Wrap_alloc<std::allocator<std::_Container_proxy> >::_Wrap_alloc<std::allocator<std::_Container_proxy> ><std::_Wrap_alloc<std::allocator<unsigned long> > &>
PUBLIC	??$destroy@U_Container_proxy@std@@@?$_Wrap_alloc@V?$allocator@U_Container_proxy@std@@@std@@@std@@QAEXPAU_Container_proxy@1@@Z ; std::_Wrap_alloc<std::allocator<std::_Container_proxy> >::destroy<std::_Container_proxy>
PUBLIC	??$?0$$V@?$_Compressed_pair@U?$_Wrap_alloc@V?$allocator@K@std@@@std@@V?$_Deque_val@U?$_Deque_simple_types@K@std@@@2@$00@std@@QAE@U_Zero_then_variadic_args_t@1@@Z ; std::_Compressed_pair<std::_Wrap_alloc<std::allocator<unsigned long> >,std::_Deque_val<std::_Deque_simple_types<unsigned long> >,1>::_Compressed_pair<std::_Wrap_alloc<std::allocator<unsigned long> >,std::_Deque_val<std::_Deque_simple_types<unsigned long> >,1><>
PUBLIC	??$_Destroy_range@V?$allocator@V?$array@H$03@std@@@std@@PAV?$array@H$03@2@@std@@YAXPAV?$array@H$03@0@0AAU?$_Wrap_alloc@V?$allocator@V?$array@H$03@std@@@std@@@0@@Z ; std::_Destroy_range<std::allocator<std::array<int,4> >,std::array<int,4> *>
PUBLIC	??$_Uninitialized_copy@PAPAKPAPAKV?$allocator@PAK@std@@@std@@YAPAPAKPAPAK00AAU?$_Wrap_alloc@V?$allocator@PAK@std@@@0@@Z ; std::_Uninitialized_copy<unsigned long * *,unsigned long * *,std::allocator<unsigned long *> >
PUBLIC	??$_Uninitialized_default_fill_n@PAPAKIV?$allocator@PAK@std@@@std@@YAPAPAKPAPAKIAAU?$_Wrap_alloc@V?$allocator@PAK@std@@@0@@Z ; std::_Uninitialized_default_fill_n<unsigned long * *,unsigned int,std::allocator<unsigned long *> >
PUBLIC	??$_Destroy_range@V?$allocator@PAK@std@@PAPAK@std@@YAXPAPAK0AAU?$_Wrap_alloc@V?$allocator@PAK@std@@@0@@Z ; std::_Destroy_range<std::allocator<unsigned long *>,unsigned long * *>
PUBLIC	??$addressof@V?$_Deque_val@U?$_Deque_simple_types@K@std@@@std@@@std@@YAPAV?$_Deque_val@U?$_Deque_simple_types@K@std@@@0@AAV10@@Z ; std::addressof<std::_Deque_val<std::_Deque_simple_types<unsigned long> > >
PUBLIC	??$addressof@$$CBV?$basic_string@_WU?$char_traits@_W@std@@V?$allocator@_W@2@@std@@@std@@YAPBV?$basic_string@_WU?$char_traits@_W@std@@V?$allocator@_W@2@@0@ABV10@@Z ; std::addressof<std::basic_string<wchar_t,std::char_traits<wchar_t>,std::allocator<wchar_t> > const >
PUBLIC	??$_Min_value@I@std@@YAABIABI0@Z		; std::_Min_value<unsigned int>
PUBLIC	??$addressof@$$CBV?$basic_string@DU?$char_traits@D@std@@V?$allocator@D@2@@std@@@std@@YAPBV?$basic_string@DU?$char_traits@D@std@@V?$allocator@D@2@@0@ABV10@@Z ; std::addressof<std::basic_string<char,std::char_traits<char>,std::allocator<char> > const >
PUBLIC	?pointer_to@?$pointer_traits@PAU_Container_proxy@std@@@std@@SAPAU_Container_proxy@2@AAU32@@Z ; std::pointer_traits<std::_Container_proxy *>::pointer_to
PUBLIC	??$_Unfancy@U_Container_proxy@std@@@std@@YAPAU_Container_proxy@0@PAU10@@Z ; std::_Unfancy<std::_Container_proxy>
PUBLIC	??$construct@U_Container_proxy@std@@U12@@?$_Wrap_alloc@V?$allocator@U_Container_proxy@std@@@std@@@std@@QAEXPAU_Container_proxy@1@$$QAU21@@Z ; std::_Wrap_alloc<std::allocator<std::_Container_proxy> >::construct<std::_Container_proxy,std::_Container_proxy>
PUBLIC	??$construct@PA_WAAPA_W@?$_Wrap_alloc@V?$allocator@_W@std@@@std@@QAEXPAPA_WAAPA_W@Z ; std::_Wrap_alloc<std::allocator<wchar_t> >::construct<wchar_t *,wchar_t * &>
PUBLIC	??$construct@PADAAPAD@?$_Wrap_alloc@V?$allocator@D@std@@@std@@QAEXPAPADAAPAD@Z ; std::_Wrap_alloc<std::allocator<char> >::construct<char *,char * &>
PUBLIC	??$addressof@U_Container_proxy@std@@@std@@YAPAU_Container_proxy@0@AAU10@@Z ; std::addressof<std::_Container_proxy>
PUBLIC	??$_Unchecked@V?$_String_val@U?$_Simple_types@_W@std@@@std@@@std@@YAPA_WV?$_String_iterator@V?$_String_val@U?$_Simple_types@_W@std@@@std@@@0@@Z ; std::_Unchecked<std::_String_val<std::_Simple_types<wchar_t> > >
PUBLIC	??$_Rechecked@V?$_String_val@U?$_Simple_types@_W@std@@@std@@@std@@YA?AV?$_String_iterator@V?$_String_val@U?$_Simple_types@_W@std@@@std@@@0@AAV10@PA_W@Z ; std::_Rechecked<std::_String_val<std::_Simple_types<wchar_t> > >
PUBLIC	??$_Unchecked@V?$_String_val@U?$_Simple_types@D@std@@@std@@@std@@YAPADV?$_String_iterator@V?$_String_val@U?$_Simple_types@D@std@@@std@@@0@@Z ; std::_Unchecked<std::_String_val<std::_Simple_types<char> > >
PUBLIC	??$_Rechecked@V?$_String_val@U?$_Simple_types@D@std@@@std@@@std@@YA?AV?$_String_iterator@V?$_String_val@U?$_Simple_types@D@std@@@std@@@0@AAV10@PAD@Z ; std::_Rechecked<std::_String_val<std::_Simple_types<char> > >
PUBLIC	??$forward@ABV?$array@H$03@std@@@std@@YAABV?$array@H$03@0@ABV10@@Z ; std::forward<std::array<int,4> const &>
PUBLIC	??$_Emplace_back_with_unused_capacity@ABV?$array@H$03@std@@@?$vector@V?$array@H$03@std@@V?$allocator@V?$array@H$03@std@@@2@@std@@AAEXABV?$array@H$03@1@@Z ; std::vector<std::array<int,4>,std::allocator<std::array<int,4> > >::_Emplace_back_with_unused_capacity<std::array<int,4> const &>
PUBLIC	??$_Unfancy@V?$array@H$03@std@@@std@@YAPAV?$array@H$03@0@PAV10@@Z ; std::_Unfancy<std::array<int,4> >
PUBLIC	??$construct@V?$array@H$03@std@@ABV12@@?$_Wrap_alloc@V?$allocator@V?$array@H$03@std@@@std@@@std@@QAEXPAV?$array@H$03@1@ABV21@@Z ; std::_Wrap_alloc<std::allocator<std::array<int,4> > >::construct<std::array<int,4>,std::array<int,4> const &>
PUBLIC	??$destroy@V?$array@H$03@std@@@?$_Wrap_alloc@V?$allocator@V?$array@H$03@std@@@std@@@std@@QAEXPAV?$array@H$03@1@@Z ; std::_Wrap_alloc<std::allocator<std::array<int,4> > >::destroy<std::array<int,4> >
PUBLIC	??$forward@U?$_Wrap_alloc@V?$allocator@K@std@@@std@@@std@@YA$$QAU?$_Wrap_alloc@V?$allocator@K@std@@@0@AAU10@@Z ; std::forward<std::_Wrap_alloc<std::allocator<unsigned long> > >
PUBLIC	??$?0U?$_Wrap_alloc@V?$allocator@K@std@@@std@@$$V@?$_Compressed_pair@U?$_Wrap_alloc@V?$allocator@K@std@@@std@@V?$_Deque_val@U?$_Deque_simple_types@K@std@@@2@$00@std@@QAE@U_One_then_variadic_args_t@1@$$QAU?$_Wrap_alloc@V?$allocator@K@std@@@1@@Z ; std::_Compressed_pair<std::_Wrap_alloc<std::allocator<unsigned long> >,std::_Deque_val<std::_Deque_simple_types<unsigned long> >,1>::_Compressed_pair<std::_Wrap_alloc<std::allocator<unsigned long> >,std::_Deque_val<std::_Deque_simple_types<unsigned long> >,1><std::_Wrap_alloc<std::allocator<unsigned long> > >
PUBLIC	??$forward@U?$_Wrap_alloc@V?$allocator@_W@std@@@std@@@std@@YA$$QAU?$_Wrap_alloc@V?$allocator@_W@std@@@0@AAU10@@Z ; std::forward<std::_Wrap_alloc<std::allocator<wchar_t> > >
PUBLIC	??$?0U?$_Wrap_alloc@V?$allocator@_W@std@@@std@@$$V@?$_Compressed_pair@U?$_Wrap_alloc@V?$allocator@_W@std@@@std@@V?$_String_val@U?$_Simple_types@_W@std@@@2@$00@std@@QAE@U_One_then_variadic_args_t@1@$$QAU?$_Wrap_alloc@V?$allocator@_W@std@@@1@@Z ; std::_Compressed_pair<std::_Wrap_alloc<std::allocator<wchar_t> >,std::_String_val<std::_Simple_types<wchar_t> >,1>::_Compressed_pair<std::_Wrap_alloc<std::allocator<wchar_t> >,std::_String_val<std::_Simple_types<wchar_t> >,1><std::_Wrap_alloc<std::allocator<wchar_t> > >
PUBLIC	??$forward@U?$_Wrap_alloc@V?$allocator@D@std@@@std@@@std@@YA$$QAU?$_Wrap_alloc@V?$allocator@D@std@@@0@AAU10@@Z ; std::forward<std::_Wrap_alloc<std::allocator<char> > >
PUBLIC	??$?0U?$_Wrap_alloc@V?$allocator@D@std@@@std@@$$V@?$_Compressed_pair@U?$_Wrap_alloc@V?$allocator@D@std@@@std@@V?$_String_val@U?$_Simple_types@D@std@@@2@$00@std@@QAE@U_One_then_variadic_args_t@1@$$QAU?$_Wrap_alloc@V?$allocator@D@std@@@1@@Z ; std::_Compressed_pair<std::_Wrap_alloc<std::allocator<char> >,std::_String_val<std::_Simple_types<char> >,1>::_Compressed_pair<std::_Wrap_alloc<std::allocator<char> >,std::_String_val<std::_Simple_types<char> >,1><std::_Wrap_alloc<std::allocator<char> > >
PUBLIC	??$forward@AAU?$_Wrap_alloc@V?$allocator@K@std@@@std@@@std@@YAAAU?$_Wrap_alloc@V?$allocator@K@std@@@0@AAU10@@Z ; std::forward<std::_Wrap_alloc<std::allocator<unsigned long> > &>
PUBLIC	??$?0K@?$allocator@PAK@std@@QAE@ABV?$allocator@K@1@@Z ; std::allocator<unsigned long *>::allocator<unsigned long *><unsigned long>
PUBLIC	??$destroy@PAK@?$allocator_traits@V?$allocator@K@std@@@std@@SAXAAV?$allocator@K@1@PAPAK@Z ; std::allocator_traits<std::allocator<unsigned long> >::destroy<unsigned long *>
PUBLIC	??$forward@ABK@std@@YAABKABK@Z			; std::forward<unsigned long const &>
PUBLIC	??$construct@KABK@?$allocator_traits@V?$allocator@K@std@@@std@@SAXAAV?$allocator@K@1@PAKABK@Z ; std::allocator_traits<std::allocator<unsigned long> >::construct<unsigned long,unsigned long const &>
PUBLIC	??$destroy@K@?$allocator_traits@V?$allocator@K@std@@@std@@SAXAAV?$allocator@K@1@PAK@Z ; std::allocator_traits<std::allocator<unsigned long> >::destroy<unsigned long>
PUBLIC	??$forward@V?$allocator@_W@std@@@std@@YA$$QAV?$allocator@_W@0@AAV10@@Z ; std::forward<std::allocator<wchar_t> >
PUBLIC	??$destroy@PA_W@?$allocator_traits@V?$allocator@_W@std@@@std@@SAXAAV?$allocator@_W@1@PAPA_W@Z ; std::allocator_traits<std::allocator<wchar_t> >::destroy<wchar_t *>
PUBLIC	??$destroy@PAD@?$allocator_traits@V?$allocator@D@std@@@std@@SAXAAV?$allocator@D@1@PAPAD@Z ; std::allocator_traits<std::allocator<char> >::destroy<char *>
PUBLIC	??$?0K@?$allocator@U_Container_proxy@std@@@std@@QAE@ABV?$allocator@K@1@@Z ; std::allocator<std::_Container_proxy>::allocator<std::_Container_proxy><unsigned long>
PUBLIC	??$destroy@U_Container_proxy@std@@@?$allocator_traits@V?$allocator@U_Container_proxy@std@@@std@@@std@@SAXAAV?$allocator@U_Container_proxy@std@@@1@PAU_Container_proxy@1@@Z ; std::allocator_traits<std::allocator<std::_Container_proxy> >::destroy<std::_Container_proxy>
PUBLIC	??$_Destroy_range1@V?$allocator@V?$array@H$03@std@@@std@@PAV?$array@H$03@2@@std@@YAXPAV?$array@H$03@0@0AAU?$_Wrap_alloc@V?$allocator@V?$array@H$03@std@@@std@@@0@U?$integral_constant@_N$00@0@@Z ; std::_Destroy_range1<std::allocator<std::array<int,4> >,std::array<int,4> *>
PUBLIC	??$_Unchecked@PAPAK@std@@YAPAPAKPAPAK@Z		; std::_Unchecked<unsigned long * *>
PUBLIC	??$_Ptr_copy_cat@PAKPAK@std@@YA?AU_Really_trivial_ptr_iterator_tag@0@ABQAPAK0@Z ; std::_Ptr_copy_cat<unsigned long *,unsigned long *>
PUBLIC	??$_Uninitialized_copy_al_unchecked@PAKPAKV?$allocator@PAK@std@@@std@@YAPAPAKPAPAK00AAU?$_Wrap_alloc@V?$allocator@PAK@std@@@0@U_Really_trivial_ptr_iterator_tag@0@U?$integral_constant@_N$00@0@@Z ; std::_Uninitialized_copy_al_unchecked<unsigned long *,unsigned long *,std::allocator<unsigned long *> >
PUBLIC	??$_Rechecked@PAPAKPAPAK@std@@YAAAPAPAKAAPAPAKPAPAK@Z ; std::_Rechecked<unsigned long * *,unsigned long * *>
PUBLIC	??$_Uninitialized_default_fill_n1@PAPAKIV?$allocator@PAK@std@@@std@@YAPAPAKPAPAKIAAU?$_Wrap_alloc@V?$allocator@PAK@std@@@0@U?$integral_constant@_N$00@0@@Z ; std::_Uninitialized_default_fill_n1<unsigned long * *,unsigned int,std::allocator<unsigned long *> >
PUBLIC	??$_Destroy_range1@V?$allocator@PAK@std@@PAPAK@std@@YAXPAPAK0AAU?$_Wrap_alloc@V?$allocator@PAK@std@@@0@U?$integral_constant@_N$00@0@@Z ; std::_Destroy_range1<std::allocator<unsigned long *>,unsigned long * *>
PUBLIC	??$forward@U_Container_proxy@std@@@std@@YA$$QAU_Container_proxy@0@AAU10@@Z ; std::forward<std::_Container_proxy>
PUBLIC	??$construct@U_Container_proxy@std@@U12@@?$allocator_traits@V?$allocator@U_Container_proxy@std@@@std@@@std@@SAXAAV?$allocator@U_Container_proxy@std@@@1@PAU_Container_proxy@1@$$QAU31@@Z ; std::allocator_traits<std::allocator<std::_Container_proxy> >::construct<std::_Container_proxy,std::_Container_proxy>
PUBLIC	??$forward@AAPA_W@std@@YAAAPA_WAAPA_W@Z		; std::forward<wchar_t * &>
PUBLIC	??$construct@PA_WAAPA_W@?$allocator_traits@V?$allocator@_W@std@@@std@@SAXAAV?$allocator@_W@1@PAPA_WAAPA_W@Z ; std::allocator_traits<std::allocator<wchar_t> >::construct<wchar_t *,wchar_t * &>
PUBLIC	??$forward@AAPAD@std@@YAAAPADAAPAD@Z		; std::forward<char * &>
PUBLIC	??$construct@PADAAPAD@?$allocator_traits@V?$allocator@D@std@@@std@@SAXAAV?$allocator@D@1@PAPADAAPAD@Z ; std::allocator_traits<std::allocator<char> >::construct<char *,char * &>
PUBLIC	??$_Traits_equal@U?$char_traits@D@std@@@std@@YA_NQBDI0I@Z ; std::_Traits_equal<std::char_traits<char> >
PUBLIC	??$_Uninitialized_move@PAV?$array@H$03@std@@PAV12@V?$allocator@V?$array@H$03@std@@@2@@std@@YAPAV?$array@H$03@0@PAV10@00AAU?$_Wrap_alloc@V?$allocator@V?$array@H$03@std@@@std@@@0@@Z ; std::_Uninitialized_move<std::array<int,4> *,std::array<int,4> *,std::allocator<std::array<int,4> > >
PUBLIC	??$move@AA_W@std@@YA$$QA_WAA_W@Z		; std::move<wchar_t &>
PUBLIC	??$move@AAD@std@@YA$$QADAAD@Z			; std::move<char &>
PUBLIC	??$construct@V?$array@H$03@std@@ABV12@@?$allocator_traits@V?$allocator@V?$array@H$03@std@@@std@@@std@@SAXAAV?$allocator@V?$array@H$03@std@@@1@PAV?$array@H$03@1@ABV31@@Z ; std::allocator_traits<std::allocator<std::array<int,4> > >::construct<std::array<int,4>,std::array<int,4> const &>
PUBLIC	??$destroy@V?$array@H$03@std@@@?$allocator_traits@V?$allocator@V?$array@H$03@std@@@std@@@std@@SAXAAV?$allocator@V?$array@H$03@std@@@1@PAV?$array@H$03@1@@Z ; std::allocator_traits<std::allocator<std::array<int,4> > >::destroy<std::array<int,4> >
PUBLIC	??$destroy@PAK@?$allocator@K@std@@QAEXPAPAK@Z	; std::allocator<unsigned long>::destroy<unsigned long *>
PUBLIC	??$construct@KABK@?$allocator@K@std@@QAEXPAKABK@Z ; std::allocator<unsigned long>::construct<unsigned long,unsigned long const &>
PUBLIC	??$destroy@K@?$allocator@K@std@@QAEXPAK@Z	; std::allocator<unsigned long>::destroy<unsigned long>
PUBLIC	??$destroy@PA_W@?$allocator@_W@std@@QAEXPAPA_W@Z ; std::allocator<wchar_t>::destroy<wchar_t *>
PUBLIC	??$destroy@PAD@?$allocator@D@std@@QAEXPAPAD@Z	; std::allocator<char>::destroy<char *>
PUBLIC	??$destroy@U_Container_proxy@std@@@?$allocator@U_Container_proxy@std@@@std@@QAEXPAU_Container_proxy@1@@Z ; std::allocator<std::_Container_proxy>::destroy<std::_Container_proxy>
PUBLIC	??$_Copy_memmove@PAPAKPAPAK@std@@YAPAPAKPAPAK00@Z ; std::_Copy_memmove<unsigned long * *,unsigned long * *>
PUBLIC	??$construct@U_Container_proxy@std@@U12@@?$allocator@U_Container_proxy@std@@@std@@QAEXPAU_Container_proxy@1@$$QAU21@@Z ; std::allocator<std::_Container_proxy>::construct<std::_Container_proxy,std::_Container_proxy>
PUBLIC	??$construct@PA_WAAPA_W@?$allocator@_W@std@@QAEXPAPA_WAAPA_W@Z ; std::allocator<wchar_t>::construct<wchar_t *,wchar_t * &>
PUBLIC	??$construct@PADAAPAD@?$allocator@D@std@@QAEXPAPADAAPAD@Z ; std::allocator<char>::construct<char *,char * &>
PUBLIC	??$_Unchecked@PAV?$array@H$03@std@@@std@@YAPAV?$array@H$03@0@PAV10@@Z ; std::_Unchecked<std::array<int,4> *>
PUBLIC	??$_Ptr_move_cat@V?$array@H$03@std@@V12@@std@@YA?AU_Really_trivial_ptr_iterator_tag@0@ABQAV?$array@H$03@0@0@Z ; std::_Ptr_move_cat<std::array<int,4>,std::array<int,4> >
PUBLIC	??$_Uninitialized_move_al_unchecked@V?$array@H$03@std@@V12@V?$allocator@V?$array@H$03@std@@@2@@std@@YAPAV?$array@H$03@0@PAV10@00AAU?$_Wrap_alloc@V?$allocator@V?$array@H$03@std@@@std@@@0@U_Really_trivial_ptr_iterator_tag@0@U?$integral_constant@_N$00@0@@Z ; std::_Uninitialized_move_al_unchecked<std::array<int,4>,std::array<int,4>,std::allocator<std::array<int,4> > >
PUBLIC	??$_Rechecked@PAV?$array@H$03@std@@PAV12@@std@@YAAAPAV?$array@H$03@0@AAPAV10@PAV10@@Z ; std::_Rechecked<std::array<int,4> *,std::array<int,4> *>
PUBLIC	??$_Const_cast@$$CB_W@std@@YAPA_WPB_W@Z		; std::_Const_cast<wchar_t const >
PUBLIC	??$_Const_cast@$$CBD@std@@YAPADPBD@Z		; std::_Const_cast<char const >
PUBLIC	??$construct@V?$array@H$03@std@@ABV12@@?$allocator@V?$array@H$03@std@@@std@@QAEXPAV?$array@H$03@1@ABV21@@Z ; std::allocator<std::array<int,4> >::construct<std::array<int,4>,std::array<int,4> const &>
PUBLIC	??$destroy@V?$array@H$03@std@@@?$allocator@V?$array@H$03@std@@@std@@QAEXPAV?$array@H$03@1@@Z ; std::allocator<std::array<int,4> >::destroy<std::array<int,4> >
PUBLIC	??$_Copy_memmove@PAV?$array@H$03@std@@PAV12@@std@@YAPAV?$array@H$03@0@PAV10@00@Z ; std::_Copy_memmove<std::array<int,4> *,std::array<int,4> *>
PUBLIC	?SK_HostApp@@3VSK_HostAppUtil@@A		; SK_HostApp
PUBLIC	?atlTraceGeneral@ATL@@3V?$CTraceCategoryEx@$00$0A@@1@A ; ATL::atlTraceGeneral
PUBLIC	?atlTraceCOM@ATL@@3V?$CTraceCategoryEx@$01$0A@@1@A ; ATL::atlTraceCOM
PUBLIC	?atlTraceQI@ATL@@3V?$CTraceCategoryEx@$03$0A@@1@A ; ATL::atlTraceQI
PUBLIC	?atlTraceRegistrar@ATL@@3V?$CTraceCategoryEx@$07$0A@@1@A ; ATL::atlTraceRegistrar
PUBLIC	?atlTraceRefcount@ATL@@3V?$CTraceCategoryEx@$0BA@$0A@@1@A ; ATL::atlTraceRefcount
PUBLIC	?atlTraceWindowing@ATL@@3V?$CTraceCategoryEx@$0CA@$0A@@1@A ; ATL::atlTraceWindowing
PUBLIC	?atlTraceControls@ATL@@3V?$CTraceCategoryEx@$0EA@$0A@@1@A ; ATL::atlTraceControls
PUBLIC	?atlTraceHosting@ATL@@3V?$CTraceCategoryEx@$0IA@$0A@@1@A ; ATL::atlTraceHosting
PUBLIC	?atlTraceDBClient@ATL@@3V?$CTraceCategoryEx@$0BAA@$0A@@1@A ; ATL::atlTraceDBClient
PUBLIC	?atlTraceDBProvider@ATL@@3V?$CTraceCategoryEx@$0CAA@$0A@@1@A ; ATL::atlTraceDBProvider
PUBLIC	?atlTraceSnapin@ATL@@3V?$CTraceCategoryEx@$0EAA@$0A@@1@A ; ATL::atlTraceSnapin
PUBLIC	?atlTraceNotImpl@ATL@@3V?$CTraceCategoryEx@$0IAA@$0A@@1@A ; ATL::atlTraceNotImpl
PUBLIC	?atlTraceAllocation@ATL@@3V?$CTraceCategoryEx@$0BAAA@$0A@@1@A ; ATL::atlTraceAllocation
PUBLIC	?atlTraceException@ATL@@3V?$CTraceCategoryEx@$0CAAA@$0A@@1@A ; ATL::atlTraceException
PUBLIC	?atlTraceTime@ATL@@3V?$CTraceCategoryEx@$0EAAA@$0A@@1@A ; ATL::atlTraceTime
PUBLIC	?atlTraceCache@ATL@@3V?$CTraceCategoryEx@$0IAAA@$0A@@1@A ; ATL::atlTraceCache
PUBLIC	?atlTraceStencil@ATL@@3V?$CTraceCategoryEx@$0BAAAA@$0A@@1@A ; ATL::atlTraceStencil
PUBLIC	?atlTraceString@ATL@@3V?$CTraceCategoryEx@$0CAAAA@$0A@@1@A ; ATL::atlTraceString
PUBLIC	?atlTraceMap@ATL@@3V?$CTraceCategoryEx@$0EAAAA@$0A@@1@A ; ATL::atlTraceMap
PUBLIC	?atlTraceUtil@ATL@@3V?$CTraceCategoryEx@$0IAAAA@$0A@@1@A ; ATL::atlTraceUtil
PUBLIC	?atlTraceSecurity@ATL@@3V?$CTraceCategoryEx@$0BAAAAA@$0A@@1@A ; ATL::atlTraceSecurity
PUBLIC	?atlTraceSync@ATL@@3V?$CTraceCategoryEx@$0CAAAAA@$0A@@1@A ; ATL::atlTraceSync
PUBLIC	?atlTraceISAPI@ATL@@3V?$CTraceCategoryEx@$0EAAAAA@$0A@@1@A ; ATL::atlTraceISAPI
PUBLIC	?m_bInitFailed@CAtlBaseModule@ATL@@2_NA		; ATL::CAtlBaseModule::m_bInitFailed
PUBLIC	?_AtlComModule@ATL@@3VCAtlComModule@1@A		; ATL::_AtlComModule
PUBLIC	?_AtlWinModule@ATL@@3VCAtlWinModule@1@A		; ATL::_AtlWinModule
PUBLIC	?CPU_Rep@InstructionSet@@0VInstructionSet_Internal@1@B ; InstructionSet::CPU_Rep
PUBLIC	??_C@_0N@BDDFKIGD@GenuineIntel?$AA@		; `string'
PUBLIC	??_C@_0N@FFJGBINN@AuthenticAMD?$AA@		; `string'
PUBLIC	?host_proc@@3Usk_host_process_s@@A		; host_proc
PUBLIC	??_C@_0BA@JFNIOLAK@string?5too?5long?$AA@	; `string'
PUBLIC	??_C@_0BD@OLBABOEK@vector?$DMT?$DO?5too?5long?$AA@ ; `string'
PUBLIC	??_C@_0BC@KBDMBKEH@deque?$DMT?$DO?5too?5long?$AA@ ; `string'
PUBLIC	??_C@_0BI@CFPLBAOH@invalid?5string?5position?$AA@ ; `string'
EXTRN	??2@YAPAXI@Z:PROC				; operator new
EXTRN	??3@YAXPAX@Z:PROC				; operator delete
EXTRN	??_U@YAPAXI@Z:PROC				; operator new[]
EXTRN	??_V@YAXPAX@Z:PROC				; operator delete[]
EXTRN	_atexit:PROC
EXTRN	___std_terminate:PROC
EXTRN	__imp___invalid_parameter_noinfo_noreturn:PROC
EXTRN	__imp__free:PROC
EXTRN	__imp__malloc:PROC
EXTRN	__imp__towlower:PROC
EXTRN	__imp__memmove:PROC
EXTRN	__imp__strstr:PROC
EXTRN	__imp__wcsrchr:PROC
EXTRN	__imp__wcsstr:PROC
EXTRN	__imp___wcsdup:PROC
EXTRN	__imp__wcsncat:PROC
EXTRN	__imp__wcsncpy:PROC
EXTRN	__imp___wcsicmp:PROC
EXTRN	__imp__GetCommandLineW@0:PROC
EXTRN	__imp__ExpandEnvironmentStringsW@12:PROC
EXTRN	__imp__CreateDirectoryW@8:PROC
EXTRN	__imp__CreateFileW@28:PROC
EXTRN	__imp__DeleteFileW@4:PROC
EXTRN	__imp__FindClose@4:PROC
EXTRN	__imp__FindFirstFileW@8:PROC
EXTRN	__imp__FindNextFileW@8:PROC
EXTRN	__imp__GetFileAttributesW@4:PROC
EXTRN	__imp__GetFileAttributesExW@12:PROC
EXTRN	__imp__GetShortPathNameW@12:PROC
EXTRN	__imp__GetTempFileNameW@16:PROC
EXTRN	__imp__ReadFile@20:PROC
EXTRN	__imp__SetFileAttributesW@8:PROC
EXTRN	__imp__SetFileTime@16:PROC
EXTRN	__imp__DecodePointer@4:PROC
EXTRN	__imp__CloseHandle@4:PROC
EXTRN	__imp__RaiseException@16:PROC
EXTRN	__imp__GetLastError@0:PROC
EXTRN	__imp__InitializeCriticalSectionEx@12:PROC
EXTRN	__imp__DeleteCriticalSection@4:PROC
EXTRN	__imp__GetCurrentProcess@0:PROC
EXTRN	__imp__GetCurrentProcessId@0:PROC
EXTRN	__imp__ExitProcess@4:PROC
EXTRN	__imp__TerminateProcess@8:PROC
EXTRN	__imp__GetCurrentThreadId@0:PROC
EXTRN	__imp__OpenThread@12:PROC
EXTRN	__imp__SuspendThread@4:PROC
EXTRN	__imp__ResumeThread@4:PROC
EXTRN	__imp__CreateProcessW@40:PROC
EXTRN	__imp__OpenProcessToken@12:PROC
EXTRN	__imp__OpenProcess@12:PROC
EXTRN	__imp__GetSystemDirectoryW@8:PROC
EXTRN	__imp__VirtualProtect@16:PROC
EXTRN	__imp__VirtualQuery@12:PROC
EXTRN	__imp__IsWow64Process@8:PROC
EXTRN	__imp__GetModuleFileNameW@12:PROC
EXTRN	__imp__GetModuleHandleW@4:PROC
EXTRN	__imp__GetModuleHandleExA@12:PROC
EXTRN	__imp__GetModuleHandleExW@12:PROC
EXTRN	__imp__GetProcAddress@8:PROC
EXTRN	__imp__AdjustTokenPrivileges@24:PROC
EXTRN	__imp__GetTokenInformation@20:PROC
EXTRN	__imp__SetFileShortNameW@8:PROC
EXTRN	__imp__lstrcpynW@12:PROC
EXTRN	__imp__lstrcatW@8:PROC
EXTRN	__imp__lstrlenW@4:PROC
EXTRN	__imp__QueryFullProcessImageNameW@16:PROC
EXTRN	__imp__GetSystemWow64DirectoryW@8:PROC
EXTRN	__imp__CopyFileW@12:PROC
EXTRN	__imp__MoveFileExW@12:PROC
EXTRN	__imp__LookupPrivilegeValueW@12:PROC
EXTRN	__imp__GetUserNameA@8:PROC
EXTRN	__imp__GetUserNameW@8:PROC
EXTRN	__imp__wsprintfW:PROC
EXTRN	__imp__UnregisterClassW@8:PROC
EXTRN	__imp__CharNextA@4:PROC
EXTRN	__imp__CharNextW@4:PROC
EXTRN	__imp__CharPrevW@8:PROC
EXTRN	__imp__MessageBoxW@16:PROC
EXTRN	__imp__CompareStringW@24:PROC
EXTRN	__imp__MultiByteToWideChar@24:PROC
EXTRN	__imp__WideCharToMultiByte@32:PROC
EXTRN	_GetFileVersionInfoExW@20:PROC
EXTRN	_VerQueryValueW@16:PROC
EXTRN	__imp__timeGetTime@0:PROC
EXTRN	__imp__CoTaskMemFree@4:PROC
EXTRN	__vsnwprintf:PROC
EXTRN	__vswprintf:PROC
EXTRN	__swprintf:PROC
EXTRN	_vsnprintf:PROC
EXTRN	_vsprintf:PROC
EXTRN	__imp_?_Xbad_alloc@std@@YAXXZ:PROC
EXTRN	__imp_?_Xlength_error@std@@YAXPBD@Z:PROC
EXTRN	__imp_?_Xout_of_range@std@@YAXPBD@Z:PROC
EXTRN	?SK_SYS_GetInstallPath@@YA?AV?$basic_string@_WU?$char_traits@_W@std@@V?$allocator@_W@2@@std@@XZ:PROC ; SK_SYS_GetInstallPath
EXTRN	?SK_GetDLL@@YGPAUHINSTANCE__@@XZ:PROC		; SK_GetDLL
EXTRN	?SK_HasGlobalInjector@@YG_NXZ:PROC		; SK_HasGlobalInjector
EXTRN	__imp__GetUserProfileDirectoryW@12:PROC
EXTRN	_SHGetKnownFolderPath@16:PROC
EXTRN	_CreateToolhelp32Snapshot@8:PROC
EXTRN	_Process32FirstW@8:PROC
EXTRN	_Process32NextW@8:PROC
EXTRN	_Thread32First@8:PROC
EXTRN	_Thread32Next@8:PROC
EXTRN	__imp__StrStrW@8:PROC
EXTRN	__imp__StrStrIA@8:PROC
EXTRN	__imp__StrStrIW@8:PROC
EXTRN	__imp__PathFindExtensionW@4:PROC
EXTRN	__imp__PathGetArgsW@4:PROC
EXTRN	__imp__PathRemoveBackslashW@4:PROC
EXTRN	__imp__PathRemoveBlanksW@4:PROC
EXTRN	__imp__PathRemoveExtensionW@4:PROC
EXTRN	__imp__PathRemoveFileSpecW@4:PROC
EXTRN	__imp__PathStripPathW@4:PROC
EXTRN	?LogEx@iSK_Logger@@UAAX_NQB_WZZ:PROC		; iSK_Logger::LogEx
EXTRN	?Log@iSK_Logger@@UAAXQB_WZZ:PROC		; iSK_Logger::Log
EXTRN	?Shutdown@DXGI@SK@@YA_NXZ:PROC			; SK::DXGI::Shutdown
EXTRN	?Shutdown@D3D9@SK@@YA_NXZ:PROC			; SK::D3D9::Shutdown
EXTRN	?Shutdown@OpenGL@SK@@YA_NXZ:PROC		; SK::OpenGL::Shutdown
EXTRN	?SK_GetBackend@@YGPB_WXZ:PROC			; SK_GetBackend
EXTRN	?contains@SK_ModuleAddrMap@@QAE_NPAXPAPAUHINSTANCE__@@@Z:PROC ; SK_ModuleAddrMap::contains
EXTRN	?insert@SK_ModuleAddrMap@@QAEXPAXPAUHINSTANCE__@@@Z:PROC ; SK_ModuleAddrMap::insert
EXTRN	?SK_TLS_Bottom@@YGPAUSK_TLS@@XZ:PROC		; SK_TLS_Bottom
EXTRN	__CxxThrowException@8:PROC
EXTRN	___CxxFrameHandler3:PROC
EXTRN	__chkstk:PROC
EXTRN	__except_handler3:PROC
EXTRN	_memcpy:PROC
EXTRN	_memset:PROC
EXTRN	?__SK_DLL_Ending@@3JC:DWORD			; __SK_DLL_Ending
EXTRN	_FOLDERID_Fonts:BYTE
EXTRN	_FOLDERID_Documents:BYTE
EXTRN	?_AtlBaseModule@ATL@@3VCAtlBaseModule@1@A:BYTE	; ATL::_AtlBaseModule
EXTRN	___ImageBase:BYTE
EXTRN	?dll_log@@3UiSK_Logger@@A:BYTE			; dll_log
EXTRN	?dll_ini@@3PAUiSK_INI@@A:DWORD			; dll_ini
_BSS	SEGMENT
	ALIGN	4

?SK_HostApp@@3VSK_HostAppUtil@@A DW 01H DUP (?)		; SK_HostApp
_BSS	ENDS
;	COMDAT ?atlTraceGeneral@ATL@@3V?$CTraceCategoryEx@$00$0A@@1@A
_BSS	SEGMENT
?atlTraceGeneral@ATL@@3V?$CTraceCategoryEx@$00$0A@@1@A DD 01H DUP (?) ; ATL::atlTraceGeneral
_BSS	ENDS
;	COMDAT ?atlTraceCOM@ATL@@3V?$CTraceCategoryEx@$01$0A@@1@A
_BSS	SEGMENT
?atlTraceCOM@ATL@@3V?$CTraceCategoryEx@$01$0A@@1@A DD 01H DUP (?) ; ATL::atlTraceCOM
_BSS	ENDS
;	COMDAT ?atlTraceQI@ATL@@3V?$CTraceCategoryEx@$03$0A@@1@A
_BSS	SEGMENT
?atlTraceQI@ATL@@3V?$CTraceCategoryEx@$03$0A@@1@A DD 01H DUP (?) ; ATL::atlTraceQI
_BSS	ENDS
;	COMDAT ?atlTraceRegistrar@ATL@@3V?$CTraceCategoryEx@$07$0A@@1@A
_BSS	SEGMENT
?atlTraceRegistrar@ATL@@3V?$CTraceCategoryEx@$07$0A@@1@A DD 01H DUP (?) ; ATL::atlTraceRegistrar
_BSS	ENDS
;	COMDAT ?atlTraceRefcount@ATL@@3V?$CTraceCategoryEx@$0BA@$0A@@1@A
_BSS	SEGMENT
?atlTraceRefcount@ATL@@3V?$CTraceCategoryEx@$0BA@$0A@@1@A DD 01H DUP (?) ; ATL::atlTraceRefcount
_BSS	ENDS
;	COMDAT ?atlTraceWindowing@ATL@@3V?$CTraceCategoryEx@$0CA@$0A@@1@A
_BSS	SEGMENT
?atlTraceWindowing@ATL@@3V?$CTraceCategoryEx@$0CA@$0A@@1@A DD 01H DUP (?) ; ATL::atlTraceWindowing
_BSS	ENDS
;	COMDAT ?atlTraceControls@ATL@@3V?$CTraceCategoryEx@$0EA@$0A@@1@A
_BSS	SEGMENT
?atlTraceControls@ATL@@3V?$CTraceCategoryEx@$0EA@$0A@@1@A DD 01H DUP (?) ; ATL::atlTraceControls
_BSS	ENDS
;	COMDAT ?atlTraceHosting@ATL@@3V?$CTraceCategoryEx@$0IA@$0A@@1@A
_BSS	SEGMENT
?atlTraceHosting@ATL@@3V?$CTraceCategoryEx@$0IA@$0A@@1@A DD 01H DUP (?) ; ATL::atlTraceHosting
_BSS	ENDS
;	COMDAT ?atlTraceDBClient@ATL@@3V?$CTraceCategoryEx@$0BAA@$0A@@1@A
_BSS	SEGMENT
?atlTraceDBClient@ATL@@3V?$CTraceCategoryEx@$0BAA@$0A@@1@A DD 01H DUP (?) ; ATL::atlTraceDBClient
_BSS	ENDS
;	COMDAT ?atlTraceDBProvider@ATL@@3V?$CTraceCategoryEx@$0CAA@$0A@@1@A
_BSS	SEGMENT
?atlTraceDBProvider@ATL@@3V?$CTraceCategoryEx@$0CAA@$0A@@1@A DD 01H DUP (?) ; ATL::atlTraceDBProvider
_BSS	ENDS
;	COMDAT ?atlTraceSnapin@ATL@@3V?$CTraceCategoryEx@$0EAA@$0A@@1@A
_BSS	SEGMENT
?atlTraceSnapin@ATL@@3V?$CTraceCategoryEx@$0EAA@$0A@@1@A DD 01H DUP (?) ; ATL::atlTraceSnapin
_BSS	ENDS
;	COMDAT ?atlTraceNotImpl@ATL@@3V?$CTraceCategoryEx@$0IAA@$0A@@1@A
_BSS	SEGMENT
?atlTraceNotImpl@ATL@@3V?$CTraceCategoryEx@$0IAA@$0A@@1@A DD 01H DUP (?) ; ATL::atlTraceNotImpl
_BSS	ENDS
;	COMDAT ?atlTraceAllocation@ATL@@3V?$CTraceCategoryEx@$0BAAA@$0A@@1@A
_BSS	SEGMENT
?atlTraceAllocation@ATL@@3V?$CTraceCategoryEx@$0BAAA@$0A@@1@A DD 01H DUP (?) ; ATL::atlTraceAllocation
_BSS	ENDS
;	COMDAT ?atlTraceException@ATL@@3V?$CTraceCategoryEx@$0CAAA@$0A@@1@A
_BSS	SEGMENT
?atlTraceException@ATL@@3V?$CTraceCategoryEx@$0CAAA@$0A@@1@A DD 01H DUP (?) ; ATL::atlTraceException
_BSS	ENDS
;	COMDAT ?atlTraceTime@ATL@@3V?$CTraceCategoryEx@$0EAAA@$0A@@1@A
_BSS	SEGMENT
?atlTraceTime@ATL@@3V?$CTraceCategoryEx@$0EAAA@$0A@@1@A DD 01H DUP (?) ; ATL::atlTraceTime
_BSS	ENDS
;	COMDAT ?atlTraceCache@ATL@@3V?$CTraceCategoryEx@$0IAAA@$0A@@1@A
_BSS	SEGMENT
?atlTraceCache@ATL@@3V?$CTraceCategoryEx@$0IAAA@$0A@@1@A DD 01H DUP (?) ; ATL::atlTraceCache
_BSS	ENDS
;	COMDAT ?atlTraceStencil@ATL@@3V?$CTraceCategoryEx@$0BAAAA@$0A@@1@A
_BSS	SEGMENT
?atlTraceStencil@ATL@@3V?$CTraceCategoryEx@$0BAAAA@$0A@@1@A DD 01H DUP (?) ; ATL::atlTraceStencil
_BSS	ENDS
;	COMDAT ?atlTraceString@ATL@@3V?$CTraceCategoryEx@$0CAAAA@$0A@@1@A
_BSS	SEGMENT
?atlTraceString@ATL@@3V?$CTraceCategoryEx@$0CAAAA@$0A@@1@A DD 01H DUP (?) ; ATL::atlTraceString
_BSS	ENDS
;	COMDAT ?atlTraceMap@ATL@@3V?$CTraceCategoryEx@$0EAAAA@$0A@@1@A
_BSS	SEGMENT
?atlTraceMap@ATL@@3V?$CTraceCategoryEx@$0EAAAA@$0A@@1@A DD 01H DUP (?) ; ATL::atlTraceMap
_BSS	ENDS
;	COMDAT ?atlTraceUtil@ATL@@3V?$CTraceCategoryEx@$0IAAAA@$0A@@1@A
_BSS	SEGMENT
?atlTraceUtil@ATL@@3V?$CTraceCategoryEx@$0IAAAA@$0A@@1@A DD 01H DUP (?) ; ATL::atlTraceUtil
_BSS	ENDS
;	COMDAT ?atlTraceSecurity@ATL@@3V?$CTraceCategoryEx@$0BAAAAA@$0A@@1@A
_BSS	SEGMENT
?atlTraceSecurity@ATL@@3V?$CTraceCategoryEx@$0BAAAAA@$0A@@1@A DD 01H DUP (?) ; ATL::atlTraceSecurity
_BSS	ENDS
;	COMDAT ?atlTraceSync@ATL@@3V?$CTraceCategoryEx@$0CAAAAA@$0A@@1@A
_BSS	SEGMENT
?atlTraceSync@ATL@@3V?$CTraceCategoryEx@$0CAAAAA@$0A@@1@A DD 01H DUP (?) ; ATL::atlTraceSync
_BSS	ENDS
;	COMDAT ?atlTraceISAPI@ATL@@3V?$CTraceCategoryEx@$0EAAAAA@$0A@@1@A
_BSS	SEGMENT
?atlTraceISAPI@ATL@@3V?$CTraceCategoryEx@$0EAAAAA@$0A@@1@A DD 01H DUP (?) ; ATL::atlTraceISAPI
_BSS	ENDS
;	COMDAT ?m_bInitFailed@CAtlBaseModule@ATL@@2_NA
_BSS	SEGMENT
?m_bInitFailed@CAtlBaseModule@ATL@@2_NA DB 01H DUP (?)	; ATL::CAtlBaseModule::m_bInitFailed
_BSS	ENDS
;	COMDAT ?_AtlWinModule@ATL@@3VCAtlWinModule@1@A
_BSS	SEGMENT
?_AtlWinModule@ATL@@3VCAtlWinModule@1@A DB 02cH DUP (?)	; ATL::_AtlWinModule
_BSS	ENDS
_BSS	SEGMENT
	ALIGN	4

?CPU_Rep@InstructionSet@@0VInstructionSet_Internal@1@B DB 06cH DUP (?) ; InstructionSet::CPU_Rep
?table@@3PAY0BAA@IA DD 01000H DUP (?)			; table
?long_shifts@@3PAY0BAA@IA DD 0400H DUP (?)		; long_shifts
?short_shifts@@3PAY0BAA@IA DD 0400H DUP (?)		; short_shifts
_BSS	ENDS
;	COMDAT ?warned@?8??SK_ScanAlignedEx@@YGPAXPBXI0PAXH@Z@4_NA
_BSS	SEGMENT
?warned@?8??SK_ScanAlignedEx@@YGPAXPBXI0PAXH@Z@4_NA DB 01H DUP (?) ; `SK_ScanAlignedEx'::`9'::warned
_BSS	ENDS
_BSS	SEGMENT
?host_proc@@3Usk_host_process_s@@A DB 01450H DUP (?)	; host_proc
_BSS	ENDS
;	COMDAT ?init@?1??SK_GetBlacklistFilename@@YAPB_WXZ@4KC
_BSS	SEGMENT
?init@?1??SK_GetBlacklistFilename@@YAPB_WXZ@4KC DD 01H DUP (?) ; `SK_GetBlacklistFilename'::`2'::init
_BSS	ENDS
;	COMDAT ?init@?1??SK_GetHostApp@@YAPB_WXZ@4KC
_BSS	SEGMENT
?init@?1??SK_GetHostApp@@YAPB_WXZ@4KC DD 01H DUP (?)	; `SK_GetHostApp'::`2'::init
_BSS	ENDS
;	COMDAT ?init@?1??SK_GetFullyQualifiedApp@@YAPB_WXZ@4KC
_BSS	SEGMENT
?init@?1??SK_GetFullyQualifiedApp@@YAPB_WXZ@4KC DD 01H DUP (?) ; `SK_GetFullyQualifiedApp'::`2'::init
_BSS	ENDS
;	COMDAT ?init@?1??SK_GetHostPath@@YAPB_WXZ@4KC
_BSS	SEGMENT
?init@?1??SK_GetHostPath@@YAPB_WXZ@4KC DD 01H DUP (?)	; `SK_GetHostPath'::`2'::init
_BSS	ENDS
;	COMDAT ?init@?1??SK_GetSystemDirectory@@YAPB_WXZ@4KC
_BSS	SEGMENT
?init@?1??SK_GetSystemDirectory@@YAPB_WXZ@4KC DD 01H DUP (?) ; `SK_GetSystemDirectory'::`2'::init
_BSS	ENDS
;	COMDAT ?szUserName@?1??SK_StripUserNameFromPathA@@YA_NPAD@Z@4PADA
_BSS	SEGMENT
?szUserName@?1??SK_StripUserNameFromPathA@@YA_NPAD@Z@4PADA DB 0104H DUP (?) ; `SK_StripUserNameFromPathA'::`2'::szUserName
_BSS	ENDS
;	COMDAT ?wszUserName@?1??SK_StripUserNameFromPathW@@YA_NPA_W@Z@4PA_WA
_BSS	SEGMENT
?wszUserName@?1??SK_StripUserNameFromPathW@@YA_NPA_W@Z@4PA_WA DW 0104H DUP (?) ; `SK_StripUserNameFromPathW'::`2'::wszUserName
_BSS	ENDS
;	COMDAT CRT$XCU
CRT$XCU	SEGMENT
?_AtlComModule$initializer$@ATL@@3P6AXXZA DD FLAT:??__E_AtlComModule@ATL@@YAXXZ ; ATL::_AtlComModule$initializer$
CRT$XCU	ENDS
;	COMDAT ??_C@_0BI@CFPLBAOH@invalid?5string?5position?$AA@
CONST	SEGMENT
??_C@_0BI@CFPLBAOH@invalid?5string?5position?$AA@ DB 'invalid string posi'
	DB	'tion', 00H					; `string'
CONST	ENDS
;	COMDAT ??_C@_0BC@KBDMBKEH@deque?$DMT?$DO?5too?5long?$AA@
CONST	SEGMENT
??_C@_0BC@KBDMBKEH@deque?$DMT?$DO?5too?5long?$AA@ DB 'deque<T> too long', 00H ; `string'
CONST	ENDS
;	COMDAT ??_C@_0BD@OLBABOEK@vector?$DMT?$DO?5too?5long?$AA@
CONST	SEGMENT
??_C@_0BD@OLBABOEK@vector?$DMT?$DO?5too?5long?$AA@ DB 'vector<T> too long'
	DB	00H						; `string'
CONST	ENDS
;	COMDAT ??_C@_0BA@JFNIOLAK@string?5too?5long?$AA@
CONST	SEGMENT
??_C@_0BA@JFNIOLAK@string?5too?5long?$AA@ DB 'string too long', 00H ; `string'
CONST	ENDS
;	COMDAT ?tests@?1??SK_TestRenderImports@@YAXPAUHINSTANCE__@@PA_N1111111@Z@4PAUsk_import_test_s@@A
_DATA	SEGMENT
?tests@?1??SK_TestRenderImports@@YAXPAUHINSTANCE__@@PA_N1111111@Z@4PAUsk_import_test_s@@A DD FLAT:$SG298600 ; `SK_TestRenderImports'::`2'::tests
	DB	00H
	ORG $+3
	DD	FLAT:$SG298601
	DB	00H
	ORG $+3
	DD	FLAT:$SG298602
	DB	00H
	ORG $+3
	DD	FLAT:$SG298603
	DB	00H
	ORG $+3
	DD	FLAT:$SG298604
	DB	00H
	ORG $+3
	DD	FLAT:$SG298605
	DB	00H
	ORG $+3
	DD	FLAT:$SG298606
	DB	00H
	ORG $+3
_DATA	ENDS
;	COMDAT ??_C@_0N@FFJGBINN@AuthenticAMD?$AA@
CONST	SEGMENT
??_C@_0N@FFJGBINN@AuthenticAMD?$AA@ DB 'AuthenticAMD', 00H ; `string'
CONST	ENDS
;	COMDAT ??_C@_0N@BDDFKIGD@GenuineIntel?$AA@
CONST	SEGMENT
??_C@_0N@BDDFKIGD@GenuineIntel?$AA@ DB 'GenuineIntel', 00H ; `string'
CONST	ENDS
;	COMDAT ?_AtlComModule@ATL@@3VCAtlComModule@1@A
_DATA	SEGMENT
?_AtlComModule@ATL@@3VCAtlComModule@1@A DB 04H DUP (?)
	DD	FLAT:___ImageBase			; ATL::_AtlComModule
	DD	FLAT:___pobjMapEntryFirst+4
	DD	FLAT:___pobjMapEntryLast
_DATA	ENDS
;	COMDAT xdata$x
xdata$x	SEGMENT
__unwindtable$??0InstructionSet_Internal@InstructionSet@@QAE@XZ DD 0ffffffffH
	DD	FLAT:__unwindfunclet$??0InstructionSet_Internal@InstructionSet@@QAE@XZ$0
	DD	00H
	DD	FLAT:__unwindfunclet$??0InstructionSet_Internal@InstructionSet@@QAE@XZ$1
	DD	01H
	DD	FLAT:__unwindfunclet$??0InstructionSet_Internal@InstructionSet@@QAE@XZ$2
	DD	02H
	DD	FLAT:__unwindfunclet$??0InstructionSet_Internal@InstructionSet@@QAE@XZ$3
__ehfuncinfo$??0InstructionSet_Internal@InstructionSet@@QAE@XZ DD 019930522H
	DD	04H
	DD	FLAT:__unwindtable$??0InstructionSet_Internal@InstructionSet@@QAE@XZ
	DD	2 DUP(00H)
	DD	2 DUP(00H)
	DD	00H
	DD	01H
xdata$x	ENDS
;	COMDAT xdata$x
xdata$x	SEGMENT
__unwindtable$??__F_AtlComModule@ATL@@YAXXZ DD 0ffffffffH
	DD	FLAT:___std_terminate
__ehfuncinfo$??__F_AtlComModule@ATL@@YAXXZ DD 019930522H
	DD	01H
	DD	FLAT:__unwindtable$??__F_AtlComModule@ATL@@YAXXZ
	DD	2 DUP(00H)
	DD	2 DUP(00H)
	DD	00H
	DD	01H
xdata$x	ENDS
;	COMDAT xdata$x
xdata$x	SEGMENT
__ehfuncinfo$??1CAtlComModule@ATL@@QAE@XZ DD 019930522H
	DD	00H
	DD	00H
	DD	2 DUP(00H)
	DD	2 DUP(00H)
	DD	00H
	DD	05H
xdata$x	ENDS
xdata$x	SEGMENT
__unwindtable$?SK_GetDLLVersionStr@@YG?AV?$basic_string@_WU?$char_traits@_W@std@@V?$allocator@_W@2@@std@@PB_W@Z DD 0ffffffffH
	DD	FLAT:__unwindfunclet$?SK_GetDLLVersionStr@@YG?AV?$basic_string@_WU?$char_traits@_W@std@@V?$allocator@_W@2@@std@@PB_W@Z$1
__unwindtable$?SK_StripTrailingSlashesA@@YAXPAD@Z DD 0ffffffffH
	DD	FLAT:__unwindfunclet$?SK_StripTrailingSlashesA@@YAXPAD@Z$0
__unwindtable$?SK_StripTrailingSlashesW@@YAXPA_W@Z DD 0ffffffffH
	DD	FLAT:__unwindfunclet$?SK_StripTrailingSlashesW@@YAXPA_W@Z$0
__unwindtable$?SK_ElevateToAdmin@@YAXXZ DD 0ffffffffH
	DD	FLAT:__unwindfunclet$?SK_ElevateToAdmin@@YAXXZ$1
__unwindtable$?SK_EvalEnvironmentVars@@YA?AV?$basic_string@_WU?$char_traits@_W@std@@V?$allocator@_W@2@@std@@PB_W@Z DD 0ffffffffH
	DD	FLAT:__unwindfunclet$?SK_EvalEnvironmentVars@@YA?AV?$basic_string@_WU?$char_traits@_W@std@@V?$allocator@_W@2@@std@@PB_W@Z$0
__sehtable$?SK_InjectMemory@@YGHPAX0IK0@Z DD 0ffffffffH
	DD	FLAT:$LN12@SK_InjectM
	DD	FLAT:$LN8@SK_InjectM
__unwindtable$?SK_GetFileHash_32@@YGIW4sk_hash_algo@@PB_WP6GX_K2@Z@Z DD 0ffffffffH
	DD	FLAT:__unwindfunclet$?SK_GetFileHash_32@@YGIW4sk_hash_algo@@PB_WP6GX_K2@Z@Z$0
	DD	00H
	DD	FLAT:__unwindfunclet$?SK_GetFileHash_32@@YGIW4sk_hash_algo@@PB_WP6GX_K2@Z@Z$1
__unwindtable$?SK_FullCopy@@YAXV?$basic_string@_WU?$char_traits@_W@std@@V?$allocator@_W@2@@std@@0@Z DD 0ffffffffH
	DD	FLAT:__unwindfunclet$?SK_FullCopy@@YAXV?$basic_string@_WU?$char_traits@_W@std@@V?$allocator@_W@2@@std@@0@Z$0
	DD	00H
	DD	FLAT:__unwindfunclet$?SK_FullCopy@@YAXV?$basic_string@_WU?$char_traits@_W@std@@V?$allocator@_W@2@@std@@0@Z$1
__unwindtable$?SK_UTF8ToWideChar@@YA?AV?$basic_string@_WU?$char_traits@_W@std@@V?$allocator@_W@2@@std@@V?$basic_string@DU?$char_traits@D@std@@V?$allocator@D@2@@2@@Z DD 0ffffffffH
	DD	FLAT:__unwindfunclet$?SK_UTF8ToWideChar@@YA?AV?$basic_string@_WU?$char_traits@_W@std@@V?$allocator@_W@2@@std@@V?$basic_string@DU?$char_traits@D@std@@V?$allocator@D@2@@2@@Z$1
	DD	00H
	DD	FLAT:__unwindfunclet$?SK_UTF8ToWideChar@@YA?AV?$basic_string@_WU?$char_traits@_W@std@@V?$allocator@_W@2@@std@@V?$basic_string@DU?$char_traits@D@std@@V?$allocator@D@2@@2@@Z$0
__unwindtable$?SK_WideCharToUTF8@@YA?AV?$basic_string@DU?$char_traits@D@std@@V?$allocator@D@2@@std@@V?$basic_string@_WU?$char_traits@_W@std@@V?$allocator@_W@2@@2@@Z DD 0ffffffffH
	DD	FLAT:__unwindfunclet$?SK_WideCharToUTF8@@YA?AV?$basic_string@DU?$char_traits@D@std@@V?$allocator@D@2@@std@@V?$basic_string@_WU?$char_traits@_W@std@@V?$allocator@_W@2@@2@@Z$1
	DD	00H
	DD	FLAT:__unwindfunclet$?SK_WideCharToUTF8@@YA?AV?$basic_string@DU?$char_traits@D@std@@V?$allocator@D@2@@std@@V?$basic_string@_WU?$char_traits@_W@std@@V?$allocator@_W@2@@2@@Z$0
__unwindtable$?SK_GetFontsDir@@YA?AV?$basic_string@_WU?$char_traits@_W@std@@V?$allocator@_W@2@@std@@XZ DD 0ffffffffH
	DD	FLAT:__unwindfunclet$?SK_GetFontsDir@@YA?AV?$basic_string@_WU?$char_traits@_W@std@@V?$allocator@_W@2@@std@@XZ$0
	DD	00H
	DD	FLAT:__unwindfunclet$?SK_GetFontsDir@@YA?AV?$basic_string@_WU?$char_traits@_W@std@@V?$allocator@_W@2@@std@@XZ$1
__unwindtable$?SK_GetDocumentsDir@@YA?AV?$basic_string@_WU?$char_traits@_W@std@@V?$allocator@_W@2@@std@@XZ DD 0ffffffffH
	DD	FLAT:__unwindfunclet$?SK_GetDocumentsDir@@YA?AV?$basic_string@_WU?$char_traits@_W@std@@V?$allocator@_W@2@@std@@XZ$0
	DD	00H
	DD	FLAT:__unwindfunclet$?SK_GetDocumentsDir@@YA?AV?$basic_string@_WU?$char_traits@_W@std@@V?$allocator@_W@2@@std@@XZ$1
__ehfuncinfo$?SK_GetFileHash_32@@YGIW4sk_hash_algo@@PB_WP6GX_K2@Z@Z DD 019930522H
	DD	02H
	DD	FLAT:__unwindtable$?SK_GetFileHash_32@@YGIW4sk_hash_algo@@PB_WP6GX_K2@Z@Z
	DD	2 DUP(00H)
	DD	2 DUP(00H)
	DD	00H
	DD	01H
__sehtable$?SK_TestImports@@YGXPAUHINSTANCE__@@PAUsk_import_test_s@@H@Z DD 0ffffffffH
	DD	FLAT:$LN45@SK_TestImp
	DD	FLAT:$LN21@SK_TestImp
	DD	00H
	DD	FLAT:$LN44@SK_TestImp
	DD	FLAT:$LN25@SK_TestImp
__unwindtable$?SK_SuspendAllOtherThreads@@YA?AV?$queue@KV?$deque@KV?$allocator@K@std@@@std@@@std@@XZ DD 0ffffffffH
	DD	FLAT:__unwindfunclet$?SK_SuspendAllOtherThreads@@YA?AV?$queue@KV?$deque@KV?$allocator@K@std@@@std@@@std@@XZ$0
	DD	00H
	DD	FLAT:__unwindfunclet$?SK_SuspendAllOtherThreads@@YA?AV?$queue@KV?$deque@KV?$allocator@K@std@@@std@@@std@@XZ$1
	DD	01H
	DD	FLAT:__unwindfunclet$?SK_SuspendAllOtherThreads@@YA?AV?$queue@KV?$deque@KV?$allocator@K@std@@@std@@@std@@XZ$2
__unwindtable$?SK_RestartGame@@YAXPB_W@Z DD 0ffffffffH
	DD	FLAT:__unwindfunclet$?SK_RestartGame@@YAXPB_W@Z$1
	DD	0ffffffffH
	DD	FLAT:__unwindfunclet$?SK_RestartGame@@YAXPB_W@Z$3
	DD	01H
	DD	FLAT:__unwindfunclet$?SK_RestartGame@@YAXPB_W@Z$4
	DD	0ffffffffH
	DD	FLAT:__unwindfunclet$?SK_RestartGame@@YAXPB_W@Z$4
__ehfuncinfo$?SK_SuspendAllOtherThreads@@YA?AV?$queue@KV?$deque@KV?$allocator@K@std@@@std@@@std@@XZ DD 019930522H
	DD	03H
	DD	FLAT:__unwindtable$?SK_SuspendAllOtherThreads@@YA?AV?$queue@KV?$deque@KV?$allocator@K@std@@@std@@@std@@XZ
	DD	2 DUP(00H)
	DD	2 DUP(00H)
	DD	00H
	DD	01H
__ehfuncinfo$?SK_GetDLLVersionStr@@YG?AV?$basic_string@_WU?$char_traits@_W@std@@V?$allocator@_W@2@@std@@PB_W@Z DD 019930522H
	DD	01H
	DD	FLAT:__unwindtable$?SK_GetDLLVersionStr@@YG?AV?$basic_string@_WU?$char_traits@_W@std@@V?$allocator@_W@2@@std@@PB_W@Z
	DD	2 DUP(00H)
	DD	2 DUP(00H)
	DD	00H
	DD	01H
__ehfuncinfo$?SK_FullCopy@@YAXV?$basic_string@_WU?$char_traits@_W@std@@V?$allocator@_W@2@@std@@0@Z DD 019930522H
	DD	02H
	DD	FLAT:__unwindtable$?SK_FullCopy@@YAXV?$basic_string@_WU?$char_traits@_W@std@@V?$allocator@_W@2@@std@@0@Z
	DD	2 DUP(00H)
	DD	2 DUP(00H)
	DD	00H
	DD	01H
__ehfuncinfo$?SK_StripTrailingSlashesA@@YAXPAD@Z DD 019930522H
	DD	01H
	DD	FLAT:__unwindtable$?SK_StripTrailingSlashesA@@YAXPAD@Z
	DD	2 DUP(00H)
	DD	2 DUP(00H)
	DD	00H
	DD	01H
__ehfuncinfo$?SK_StripTrailingSlashesW@@YAXPA_W@Z DD 019930522H
	DD	01H
	DD	FLAT:__unwindtable$?SK_StripTrailingSlashesW@@YAXPA_W@Z
	DD	2 DUP(00H)
	DD	2 DUP(00H)
	DD	00H
	DD	01H
__ehfuncinfo$?SK_UTF8ToWideChar@@YA?AV?$basic_string@_WU?$char_traits@_W@std@@V?$allocator@_W@2@@std@@V?$basic_string@DU?$char_traits@D@std@@V?$allocator@D@2@@2@@Z DD 019930522H
	DD	02H
	DD	FLAT:__unwindtable$?SK_UTF8ToWideChar@@YA?AV?$basic_string@_WU?$char_traits@_W@std@@V?$allocator@_W@2@@std@@V?$basic_string@DU?$char_traits@D@std@@V?$allocator@D@2@@2@@Z
	DD	2 DUP(00H)
	DD	2 DUP(00H)
	DD	00H
	DD	01H
__ehfuncinfo$?SK_WideCharToUTF8@@YA?AV?$basic_string@DU?$char_traits@D@std@@V?$allocator@D@2@@std@@V?$basic_string@_WU?$char_traits@_W@std@@V?$allocator@_W@2@@2@@Z DD 019930522H
	DD	02H
	DD	FLAT:__unwindtable$?SK_WideCharToUTF8@@YA?AV?$basic_string@DU?$char_traits@D@std@@V?$allocator@D@2@@std@@V?$basic_string@_WU?$char_traits@_W@std@@V?$allocator@_W@2@@2@@Z
	DD	2 DUP(00H)
	DD	2 DUP(00H)
	DD	00H
	DD	01H
__ehfuncinfo$?SK_RestartGame@@YAXPB_W@Z DD 019930522H
	DD	04H
	DD	FLAT:__unwindtable$?SK_RestartGame@@YAXPB_W@Z
	DD	2 DUP(00H)
	DD	2 DUP(00H)
	DD	00H
	DD	01H
__ehfuncinfo$?SK_ElevateToAdmin@@YAXXZ DD 019930522H
	DD	01H
	DD	FLAT:__unwindtable$?SK_ElevateToAdmin@@YAXXZ
	DD	2 DUP(00H)
	DD	2 DUP(00H)
	DD	00H
	DD	01H
__ehfuncinfo$?SK_EvalEnvironmentVars@@YA?AV?$basic_string@_WU?$char_traits@_W@std@@V?$allocator@_W@2@@std@@PB_W@Z DD 019930522H
	DD	01H
	DD	FLAT:__unwindtable$?SK_EvalEnvironmentVars@@YA?AV?$basic_string@_WU?$char_traits@_W@std@@V?$allocator@_W@2@@std@@PB_W@Z
	DD	2 DUP(00H)
	DD	2 DUP(00H)
	DD	00H
	DD	01H
__ehfuncinfo$?SK_GetFontsDir@@YA?AV?$basic_string@_WU?$char_traits@_W@std@@V?$allocator@_W@2@@std@@XZ DD 019930522H
	DD	02H
	DD	FLAT:__unwindtable$?SK_GetFontsDir@@YA?AV?$basic_string@_WU?$char_traits@_W@std@@V?$allocator@_W@2@@std@@XZ
	DD	2 DUP(00H)
	DD	2 DUP(00H)
	DD	00H
	DD	01H
__ehfuncinfo$?SK_GetDocumentsDir@@YA?AV?$basic_string@_WU?$char_traits@_W@std@@V?$allocator@_W@2@@std@@XZ DD 019930522H
	DD	02H
	DD	FLAT:__unwindtable$?SK_GetDocumentsDir@@YA?AV?$basic_string@_WU?$char_traits@_W@std@@V?$allocator@_W@2@@std@@XZ
	DD	2 DUP(00H)
	DD	2 DUP(00H)
	DD	00H
	DD	01H
xdata$x	ENDS
;	COMDAT xdata$x
xdata$x	SEGMENT
__catchsym$?_Copy@?$basic_string@_WU?$char_traits@_W@std@@V?$allocator@_W@2@@std@@QAEXI@Z$18 DD 040H
	DD	00H
	DD	00H
	DD	FLAT:__catch$?_Copy@?$basic_string@_WU?$char_traits@_W@std@@V?$allocator@_W@2@@std@@QAEXI@Z$0
__unwindtable$?_Copy@?$basic_string@_WU?$char_traits@_W@std@@V?$allocator@_W@2@@std@@QAEXI@Z DD 0ffffffffH
	DD	00H
	DD	0ffffffffH
	DD	00H
__tryblocktable$?_Copy@?$basic_string@_WU?$char_traits@_W@std@@V?$allocator@_W@2@@std@@QAEXI@Z DD 00H
	DD	00H
	DD	01H
	DD	01H
	DD	FLAT:__catchsym$?_Copy@?$basic_string@_WU?$char_traits@_W@std@@V?$allocator@_W@2@@std@@QAEXI@Z$18
__ehfuncinfo$?_Copy@?$basic_string@_WU?$char_traits@_W@std@@V?$allocator@_W@2@@std@@QAEXI@Z DD 019930522H
	DD	02H
	DD	FLAT:__unwindtable$?_Copy@?$basic_string@_WU?$char_traits@_W@std@@V?$allocator@_W@2@@std@@QAEXI@Z
	DD	01H
	DD	FLAT:__tryblocktable$?_Copy@?$basic_string@_WU?$char_traits@_W@std@@V?$allocator@_W@2@@std@@QAEXI@Z
	DD	2 DUP(00H)
	DD	00H
	DD	01H
xdata$x	ENDS
;	COMDAT xdata$x
xdata$x	SEGMENT
__catchsym$?_Copy@?$basic_string@DU?$char_traits@D@std@@V?$allocator@D@2@@std@@QAEXI@Z$18 DD 040H
	DD	00H
	DD	00H
	DD	FLAT:__catch$?_Copy@?$basic_string@DU?$char_traits@D@std@@V?$allocator@D@2@@std@@QAEXI@Z$0
__unwindtable$?_Copy@?$basic_string@DU?$char_traits@D@std@@V?$allocator@D@2@@std@@QAEXI@Z DD 0ffffffffH
	DD	00H
	DD	0ffffffffH
	DD	00H
__tryblocktable$?_Copy@?$basic_string@DU?$char_traits@D@std@@V?$allocator@D@2@@std@@QAEXI@Z DD 00H
	DD	00H
	DD	01H
	DD	01H
	DD	FLAT:__catchsym$?_Copy@?$basic_string@DU?$char_traits@D@std@@V?$allocator@D@2@@std@@QAEXI@Z$18
__ehfuncinfo$?_Copy@?$basic_string@DU?$char_traits@D@std@@V?$allocator@D@2@@std@@QAEXI@Z DD 019930522H
	DD	02H
	DD	FLAT:__unwindtable$?_Copy@?$basic_string@DU?$char_traits@D@std@@V?$allocator@D@2@@std@@QAEXI@Z
	DD	01H
	DD	FLAT:__tryblocktable$?_Copy@?$basic_string@DU?$char_traits@D@std@@V?$allocator@D@2@@std@@QAEXI@Z
	DD	2 DUP(00H)
	DD	00H
	DD	01H
xdata$x	ENDS
;	COMDAT CRT$XCU
CRT$XCU	SEGMENT
?_AtlWinModule$initializer$@ATL@@3P6AXXZA DD FLAT:??__E_AtlWinModule@ATL@@YAXXZ ; ATL::_AtlWinModule$initializer$
CRT$XCU	ENDS
CRT$XCU	SEGMENT
??CPU_Rep$initializer$@InstructionSet@@0P6AXXZA@@3P6AXXZA DD FLAT:??__E?CPU_Rep@InstructionSet@@0VInstructionSet_Internal@1@B@@YAXXZ ; InstructionSet::PU_Rep$initializer$::operator->
CRT$XCU	ENDS
CRT$XCU	SEGMENT
?SK_HostApp$initializer$@@3P6AXXZA DD FLAT:??__ESK_HostApp@@YAXXZ ; SK_HostApp$initializer$
CRT$XCU	ENDS
; Function compile flags: /Ogtp
; File c:\program files (x86)\microsoft visual studio\2017\community\vc\tools\msvc\14.10.25017\include\xutility
;	COMDAT ??$_Copy_memmove@PAV?$array@H$03@std@@PAV12@@std@@YAPAV?$array@H$03@0@PAV10@00@Z
_TEXT	SEGMENT
__First$ = 8						; size = 4
__Last$ = 12						; size = 4
__Dest$ = 16						; size = 4
??$_Copy_memmove@PAV?$array@H$03@std@@PAV12@@std@@YAPAV?$array@H$03@0@PAV10@00@Z PROC ; std::_Copy_memmove<std::array<int,4> *,std::array<int,4> *>, COMDAT

; 2295 : 	{	// implement copy-like function as memmove

	npad	2
	push	ebp
	mov	ebp, esp

; 2296 : 	const char * const _First_ch = reinterpret_cast<const char *>(_First);
; 2297 : 	const char * const _Last_ch = reinterpret_cast<const char *>(_Last);
; 2298 : 	char * const _Dest_ch = reinterpret_cast<char *>(_Dest);
; 2299 : 	const size_t _Count = _Last_ch - _First_ch;

	mov	eax, DWORD PTR __First$[ebp]
	push	esi

; 2300 : 	_CSTD memmove(_Dest_ch, _First_ch, _Count);

	mov	esi, DWORD PTR __Dest$[ebp]
	push	edi
	mov	edi, DWORD PTR __Last$[ebp]
	sub	edi, eax
	push	edi
	push	eax
	push	esi
	call	DWORD PTR __imp__memmove
	add	esp, 12					; 0000000cH

; 2301 : 	return (reinterpret_cast<_OutIt>(_Dest_ch + _Count));

	lea	eax, DWORD PTR [edi+esi]
	pop	edi
	pop	esi

; 2302 : 	}

	pop	ebp
	ret	0
??$_Copy_memmove@PAV?$array@H$03@std@@PAV12@@std@@YAPAV?$array@H$03@0@PAV10@00@Z ENDP ; std::_Copy_memmove<std::array<int,4> *,std::array<int,4> *>
_TEXT	ENDS
; Function compile flags: /Ogtp
; File c:\program files (x86)\microsoft visual studio\2017\community\vc\tools\msvc\14.10.25017\include\xmemory0
;	COMDAT ??$destroy@V?$array@H$03@std@@@?$allocator@V?$array@H$03@std@@@std@@QAEXPAV?$array@H$03@1@@Z
_TEXT	SEGMENT
__Ptr$ = 8						; size = 4
??$destroy@V?$array@H$03@std@@@?$allocator@V?$array@H$03@std@@@std@@QAEXPAV?$array@H$03@1@@Z PROC ; std::allocator<std::array<int,4> >::destroy<std::array<int,4> >, COMDAT
; _this$ = ecx

; 846  : 		_Ptr->~_Uty();
; 847  : 		}

	ret	4
??$destroy@V?$array@H$03@std@@@?$allocator@V?$array@H$03@std@@@std@@QAEXPAV?$array@H$03@1@@Z ENDP ; std::allocator<std::array<int,4> >::destroy<std::array<int,4> >
_TEXT	ENDS
; Function compile flags: /Ogtp
; File c:\program files (x86)\microsoft visual studio\2017\community\vc\tools\msvc\14.10.25017\include\xmemory0
;	COMDAT ??$construct@V?$array@H$03@std@@ABV12@@?$allocator@V?$array@H$03@std@@@std@@QAEXPAV?$array@H$03@1@ABV21@@Z
_TEXT	SEGMENT
__Ptr$ = 8						; size = 4
_<_Args_0>$ = 12					; size = 4
??$construct@V?$array@H$03@std@@ABV12@@?$allocator@V?$array@H$03@std@@@std@@QAEXPAV?$array@H$03@1@ABV21@@Z PROC ; std::allocator<std::array<int,4> >::construct<std::array<int,4>,std::array<int,4> const &>, COMDAT
; _this$ = ecx

; 839  : 		{	// construct _Objty(_Types...) at _Ptr

	npad	2
	push	ebp
	mov	ebp, esp

; 840  : 		::new ((void *)_Ptr) _Objty(_STD forward<_Types>(_Args)...);

	mov	ecx, DWORD PTR __Ptr$[ebp]
	test	ecx, ecx
	je	SHORT $LN3@construct
	mov	eax, DWORD PTR _<_Args_0>$[ebp]
	movups	xmm0, XMMWORD PTR [eax]
	movups	XMMWORD PTR [ecx], xmm0
$LN3@construct:

; 841  : 		}

	pop	ebp
	ret	8
??$construct@V?$array@H$03@std@@ABV12@@?$allocator@V?$array@H$03@std@@@std@@QAEXPAV?$array@H$03@1@ABV21@@Z ENDP ; std::allocator<std::array<int,4> >::construct<std::array<int,4>,std::array<int,4> const &>
_TEXT	ENDS
; Function compile flags: /Ogtp
; File c:\program files (x86)\microsoft visual studio\2017\community\vc\tools\msvc\14.10.25017\include\xmemory0
;	COMDAT ??$_Const_cast@$$CBD@std@@YAPADPBD@Z
_TEXT	SEGMENT
__Ptr$ = 8						; size = 4
??$_Const_cast@$$CBD@std@@YAPADPBD@Z PROC		; std::_Const_cast<char const >, COMDAT

; 314  : 	{	// remove constness from a plain pointer

	npad	2
	push	ebp
	mov	ebp, esp

; 315  : 	return (const_cast<remove_const_t<_Ty> *>(_Ptr));

	mov	eax, DWORD PTR __Ptr$[ebp]

; 316  : 	}

	pop	ebp
	ret	0
??$_Const_cast@$$CBD@std@@YAPADPBD@Z ENDP		; std::_Const_cast<char const >
_TEXT	ENDS
; Function compile flags: /Ogtp
; File c:\program files (x86)\microsoft visual studio\2017\community\vc\tools\msvc\14.10.25017\include\xmemory0
;	COMDAT ??$_Const_cast@$$CB_W@std@@YAPA_WPB_W@Z
_TEXT	SEGMENT
__Ptr$ = 8						; size = 4
??$_Const_cast@$$CB_W@std@@YAPA_WPB_W@Z PROC		; std::_Const_cast<wchar_t const >, COMDAT

; 314  : 	{	// remove constness from a plain pointer

	npad	2
	push	ebp
	mov	ebp, esp

; 315  : 	return (const_cast<remove_const_t<_Ty> *>(_Ptr));

	mov	eax, DWORD PTR __Ptr$[ebp]

; 316  : 	}

	pop	ebp
	ret	0
??$_Const_cast@$$CB_W@std@@YAPA_WPB_W@Z ENDP		; std::_Const_cast<wchar_t const >
_TEXT	ENDS
; Function compile flags: /Ogtp
; File c:\program files (x86)\microsoft visual studio\2017\community\vc\tools\msvc\14.10.25017\include\xutility
;	COMDAT ??$_Rechecked@PAV?$array@H$03@std@@PAV12@@std@@YAAAPAV?$array@H$03@0@AAPAV10@PAV10@@Z
_TEXT	SEGMENT
__Dest$ = 8						; size = 4
__Src$ = 12						; size = 4
??$_Rechecked@PAV?$array@H$03@std@@PAV12@@std@@YAAAPAV?$array@H$03@0@AAPAV10@PAV10@@Z PROC ; std::_Rechecked<std::array<int,4> *,std::array<int,4> *>, COMDAT

; 480  : 	{	// reset checked from unchecked, generic

	npad	2
	push	ebp
	mov	ebp, esp

; 481  : 	_Dest = _Src;

	mov	eax, DWORD PTR __Dest$[ebp]
	mov	ecx, DWORD PTR __Src$[ebp]
	mov	DWORD PTR [eax], ecx

; 482  : 	return (_Dest);
; 483  : 	}

	pop	ebp
	ret	0
??$_Rechecked@PAV?$array@H$03@std@@PAV12@@std@@YAAAPAV?$array@H$03@0@AAPAV10@PAV10@@Z ENDP ; std::_Rechecked<std::array<int,4> *,std::array<int,4> *>
_TEXT	ENDS
; Function compile flags: /Ogtp
; File c:\program files (x86)\microsoft visual studio\2017\community\vc\tools\msvc\14.10.25017\include\xmemory
; File c:\program files (x86)\microsoft visual studio\2017\community\vc\tools\msvc\14.10.25017\include\xutility
; File c:\program files (x86)\microsoft visual studio\2017\community\vc\tools\msvc\14.10.25017\include\xmemory
;	COMDAT ??$_Uninitialized_move_al_unchecked@V?$array@H$03@std@@V12@V?$allocator@V?$array@H$03@std@@@2@@std@@YAPAV?$array@H$03@0@PAV10@00AAU?$_Wrap_alloc@V?$allocator@V?$array@H$03@std@@@std@@@0@U_Really_trivial_ptr_iterator_tag@0@U?$integral_constant@_N$00@0@@Z
_TEXT	SEGMENT
__First$ = 8						; size = 4
__Last$ = 12						; size = 4
__Dest$ = 16						; size = 4
___formal$ = 20						; size = 4
___formal$ = 24						; size = 1
___formal$ = 28						; size = 1
??$_Uninitialized_move_al_unchecked@V?$array@H$03@std@@V12@V?$allocator@V?$array@H$03@std@@@2@@std@@YAPAV?$array@H$03@0@PAV10@00AAU?$_Wrap_alloc@V?$allocator@V?$array@H$03@std@@@std@@@0@U_Really_trivial_ptr_iterator_tag@0@U?$integral_constant@_N$00@0@@Z PROC ; std::_Uninitialized_move_al_unchecked<std::array<int,4>,std::array<int,4>,std::allocator<std::array<int,4> > >, COMDAT

; 157  : 	{	// move [_First, _Last) to raw _Dest, using default _Alloc construct, memmove optimization

	npad	2
	push	ebp
	mov	ebp, esp
; File c:\program files (x86)\microsoft visual studio\2017\community\vc\tools\msvc\14.10.25017\include\xutility

; 2299 : 	const size_t _Count = _Last_ch - _First_ch;

	mov	eax, DWORD PTR __First$[ebp]
	push	esi

; 2300 : 	_CSTD memmove(_Dest_ch, _First_ch, _Count);

	mov	esi, DWORD PTR __Dest$[ebp]
	push	edi

; 2299 : 	const size_t _Count = _Last_ch - _First_ch;

	mov	edi, DWORD PTR __Last$[ebp]
	sub	edi, eax

; 2300 : 	_CSTD memmove(_Dest_ch, _First_ch, _Count);

	push	edi
	push	eax
	push	esi
	call	DWORD PTR __imp__memmove
	add	esp, 12					; 0000000cH

; 2301 : 	return (reinterpret_cast<_OutIt>(_Dest_ch + _Count));

	lea	eax, DWORD PTR [edi+esi]
	pop	edi
	pop	esi
; File c:\program files (x86)\microsoft visual studio\2017\community\vc\tools\msvc\14.10.25017\include\xmemory

; 159  : 	}

	pop	ebp
	ret	0
??$_Uninitialized_move_al_unchecked@V?$array@H$03@std@@V12@V?$allocator@V?$array@H$03@std@@@2@@std@@YAPAV?$array@H$03@0@PAV10@00AAU?$_Wrap_alloc@V?$allocator@V?$array@H$03@std@@@std@@@0@U_Really_trivial_ptr_iterator_tag@0@U?$integral_constant@_N$00@0@@Z ENDP ; std::_Uninitialized_move_al_unchecked<std::array<int,4>,std::array<int,4>,std::allocator<std::array<int,4> > >
_TEXT	ENDS
; Function compile flags: /Ogtp
; File c:\program files (x86)\microsoft visual studio\2017\community\vc\tools\msvc\14.10.25017\include\xutility
;	COMDAT ??$_Ptr_move_cat@V?$array@H$03@std@@V12@@std@@YA?AU_Really_trivial_ptr_iterator_tag@0@ABQAV?$array@H$03@0@0@Z
_TEXT	SEGMENT
___$ReturnUdt$ = 8					; size = 4
___formal$ = 12						; size = 4
___formal$ = 16						; size = 4
??$_Ptr_move_cat@V?$array@H$03@std@@V12@@std@@YA?AU_Really_trivial_ptr_iterator_tag@0@ABQAV?$array@H$03@0@0@Z PROC ; std::_Ptr_move_cat<std::array<int,4>,std::array<int,4> >, COMDAT

; 892  : 	{	// return pointer move optimization category for pointers

	npad	2
	push	ebp
	mov	ebp, esp

; 893  : 	return {};

	mov	eax, DWORD PTR ___$ReturnUdt$[ebp]

; 894  : 	}

	pop	ebp
	ret	0
??$_Ptr_move_cat@V?$array@H$03@std@@V12@@std@@YA?AU_Really_trivial_ptr_iterator_tag@0@ABQAV?$array@H$03@0@0@Z ENDP ; std::_Ptr_move_cat<std::array<int,4>,std::array<int,4> >
_TEXT	ENDS
; Function compile flags: /Ogtp
; File c:\program files (x86)\microsoft visual studio\2017\community\vc\tools\msvc\14.10.25017\include\xutility
;	COMDAT ??$_Unchecked@PAV?$array@H$03@std@@@std@@YAPAV?$array@H$03@0@PAV10@@Z
_TEXT	SEGMENT
__Src$ = 8						; size = 4
??$_Unchecked@PAV?$array@H$03@std@@@std@@YAPAV?$array@H$03@0@PAV10@@Z PROC ; std::_Unchecked<std::array<int,4> *>, COMDAT

; 450  : 	{	// construct unchecked from checked, generic

	npad	2
	push	ebp
	mov	ebp, esp

; 451  : 	return (_Src);

	mov	eax, DWORD PTR __Src$[ebp]

; 452  : 	}

	pop	ebp
	ret	0
??$_Unchecked@PAV?$array@H$03@std@@@std@@YAPAV?$array@H$03@0@PAV10@@Z ENDP ; std::_Unchecked<std::array<int,4> *>
_TEXT	ENDS
; Function compile flags: /Ogtp
; File c:\program files (x86)\microsoft visual studio\2017\community\vc\tools\msvc\14.10.25017\include\xmemory0
;	COMDAT ??$construct@PADAAPAD@?$allocator@D@std@@QAEXPAPADAAPAD@Z
_TEXT	SEGMENT
__Ptr$ = 8						; size = 4
_<_Args_0>$ = 12					; size = 4
??$construct@PADAAPAD@?$allocator@D@std@@QAEXPAPADAAPAD@Z PROC ; std::allocator<char>::construct<char *,char * &>, COMDAT
; _this$ = ecx

; 839  : 		{	// construct _Objty(_Types...) at _Ptr

	npad	2
	push	ebp
	mov	ebp, esp

; 840  : 		::new ((void *)_Ptr) _Objty(_STD forward<_Types>(_Args)...);

	mov	ecx, DWORD PTR __Ptr$[ebp]
	test	ecx, ecx
	je	SHORT $LN3@construct
	mov	eax, DWORD PTR _<_Args_0>$[ebp]
	mov	eax, DWORD PTR [eax]
	mov	DWORD PTR [ecx], eax
$LN3@construct:

; 841  : 		}

	pop	ebp
	ret	8
??$construct@PADAAPAD@?$allocator@D@std@@QAEXPAPADAAPAD@Z ENDP ; std::allocator<char>::construct<char *,char * &>
_TEXT	ENDS
; Function compile flags: /Ogtp
; File c:\program files (x86)\microsoft visual studio\2017\community\vc\tools\msvc\14.10.25017\include\xmemory0
;	COMDAT ??$construct@PA_WAAPA_W@?$allocator@_W@std@@QAEXPAPA_WAAPA_W@Z
_TEXT	SEGMENT
__Ptr$ = 8						; size = 4
_<_Args_0>$ = 12					; size = 4
??$construct@PA_WAAPA_W@?$allocator@_W@std@@QAEXPAPA_WAAPA_W@Z PROC ; std::allocator<wchar_t>::construct<wchar_t *,wchar_t * &>, COMDAT
; _this$ = ecx

; 839  : 		{	// construct _Objty(_Types...) at _Ptr

	npad	2
	push	ebp
	mov	ebp, esp

; 840  : 		::new ((void *)_Ptr) _Objty(_STD forward<_Types>(_Args)...);

	mov	ecx, DWORD PTR __Ptr$[ebp]
	test	ecx, ecx
	je	SHORT $LN3@construct
	mov	eax, DWORD PTR _<_Args_0>$[ebp]
	mov	eax, DWORD PTR [eax]
	mov	DWORD PTR [ecx], eax
$LN3@construct:

; 841  : 		}

	pop	ebp
	ret	8
??$construct@PA_WAAPA_W@?$allocator@_W@std@@QAEXPAPA_WAAPA_W@Z ENDP ; std::allocator<wchar_t>::construct<wchar_t *,wchar_t * &>
_TEXT	ENDS
; Function compile flags: /Ogtp
; File c:\program files (x86)\microsoft visual studio\2017\community\vc\tools\msvc\14.10.25017\include\xmemory0
;	COMDAT ??$construct@U_Container_proxy@std@@U12@@?$allocator@U_Container_proxy@std@@@std@@QAEXPAU_Container_proxy@1@$$QAU21@@Z
_TEXT	SEGMENT
__Ptr$ = 8						; size = 4
_<_Args_0>$ = 12					; size = 4
??$construct@U_Container_proxy@std@@U12@@?$allocator@U_Container_proxy@std@@@std@@QAEXPAU_Container_proxy@1@$$QAU21@@Z PROC ; std::allocator<std::_Container_proxy>::construct<std::_Container_proxy,std::_Container_proxy>, COMDAT
; _this$ = ecx

; 839  : 		{	// construct _Objty(_Types...) at _Ptr

	npad	2
	push	ebp
	mov	ebp, esp

; 840  : 		::new ((void *)_Ptr) _Objty(_STD forward<_Types>(_Args)...);

	mov	edx, DWORD PTR __Ptr$[ebp]
	test	edx, edx
	je	SHORT $LN3@construct
	mov	ecx, DWORD PTR _<_Args_0>$[ebp]
	mov	eax, DWORD PTR [ecx]
	mov	DWORD PTR [edx], eax
	mov	eax, DWORD PTR [ecx+4]
	mov	DWORD PTR [edx+4], eax
$LN3@construct:

; 841  : 		}

	pop	ebp
	ret	8
??$construct@U_Container_proxy@std@@U12@@?$allocator@U_Container_proxy@std@@@std@@QAEXPAU_Container_proxy@1@$$QAU21@@Z ENDP ; std::allocator<std::_Container_proxy>::construct<std::_Container_proxy,std::_Container_proxy>
_TEXT	ENDS
; Function compile flags: /Ogtp
; File c:\program files (x86)\microsoft visual studio\2017\community\vc\tools\msvc\14.10.25017\include\xutility
;	COMDAT ??$_Copy_memmove@PAPAKPAPAK@std@@YAPAPAKPAPAK00@Z
_TEXT	SEGMENT
__First$ = 8						; size = 4
__Last$ = 12						; size = 4
__Dest$ = 16						; size = 4
??$_Copy_memmove@PAPAKPAPAK@std@@YAPAPAKPAPAK00@Z PROC	; std::_Copy_memmove<unsigned long * *,unsigned long * *>, COMDAT

; 2295 : 	{	// implement copy-like function as memmove

	npad	2
	push	ebp
	mov	ebp, esp

; 2296 : 	const char * const _First_ch = reinterpret_cast<const char *>(_First);
; 2297 : 	const char * const _Last_ch = reinterpret_cast<const char *>(_Last);
; 2298 : 	char * const _Dest_ch = reinterpret_cast<char *>(_Dest);
; 2299 : 	const size_t _Count = _Last_ch - _First_ch;

	mov	eax, DWORD PTR __First$[ebp]
	push	esi

; 2300 : 	_CSTD memmove(_Dest_ch, _First_ch, _Count);

	mov	esi, DWORD PTR __Dest$[ebp]
	push	edi
	mov	edi, DWORD PTR __Last$[ebp]
	sub	edi, eax
	push	edi
	push	eax
	push	esi
	call	DWORD PTR __imp__memmove
	add	esp, 12					; 0000000cH

; 2301 : 	return (reinterpret_cast<_OutIt>(_Dest_ch + _Count));

	lea	eax, DWORD PTR [edi+esi]
	pop	edi
	pop	esi

; 2302 : 	}

	pop	ebp
	ret	0
??$_Copy_memmove@PAPAKPAPAK@std@@YAPAPAKPAPAK00@Z ENDP	; std::_Copy_memmove<unsigned long * *,unsigned long * *>
_TEXT	ENDS
; Function compile flags: /Ogtp
; File c:\program files (x86)\microsoft visual studio\2017\community\vc\tools\msvc\14.10.25017\include\xmemory0
;	COMDAT ??$destroy@U_Container_proxy@std@@@?$allocator@U_Container_proxy@std@@@std@@QAEXPAU_Container_proxy@1@@Z
_TEXT	SEGMENT
__Ptr$ = 8						; size = 4
??$destroy@U_Container_proxy@std@@@?$allocator@U_Container_proxy@std@@@std@@QAEXPAU_Container_proxy@1@@Z PROC ; std::allocator<std::_Container_proxy>::destroy<std::_Container_proxy>, COMDAT
; _this$ = ecx

; 846  : 		_Ptr->~_Uty();
; 847  : 		}

	ret	4
??$destroy@U_Container_proxy@std@@@?$allocator@U_Container_proxy@std@@@std@@QAEXPAU_Container_proxy@1@@Z ENDP ; std::allocator<std::_Container_proxy>::destroy<std::_Container_proxy>
_TEXT	ENDS
; Function compile flags: /Ogtp
; File c:\program files (x86)\microsoft visual studio\2017\community\vc\tools\msvc\14.10.25017\include\xmemory0
;	COMDAT ??$destroy@PAD@?$allocator@D@std@@QAEXPAPAD@Z
_TEXT	SEGMENT
__Ptr$ = 8						; size = 4
??$destroy@PAD@?$allocator@D@std@@QAEXPAPAD@Z PROC	; std::allocator<char>::destroy<char *>, COMDAT
; _this$ = ecx

; 846  : 		_Ptr->~_Uty();
; 847  : 		}

	ret	4
??$destroy@PAD@?$allocator@D@std@@QAEXPAPAD@Z ENDP	; std::allocator<char>::destroy<char *>
_TEXT	ENDS
; Function compile flags: /Ogtp
; File c:\program files (x86)\microsoft visual studio\2017\community\vc\tools\msvc\14.10.25017\include\xmemory0
;	COMDAT ??$destroy@PA_W@?$allocator@_W@std@@QAEXPAPA_W@Z
_TEXT	SEGMENT
__Ptr$ = 8						; size = 4
??$destroy@PA_W@?$allocator@_W@std@@QAEXPAPA_W@Z PROC	; std::allocator<wchar_t>::destroy<wchar_t *>, COMDAT
; _this$ = ecx

; 846  : 		_Ptr->~_Uty();
; 847  : 		}

	ret	4
??$destroy@PA_W@?$allocator@_W@std@@QAEXPAPA_W@Z ENDP	; std::allocator<wchar_t>::destroy<wchar_t *>
_TEXT	ENDS
; Function compile flags: /Ogtp
; File c:\program files (x86)\microsoft visual studio\2017\community\vc\tools\msvc\14.10.25017\include\xmemory0
;	COMDAT ??$destroy@K@?$allocator@K@std@@QAEXPAK@Z
_TEXT	SEGMENT
__Ptr$ = 8						; size = 4
??$destroy@K@?$allocator@K@std@@QAEXPAK@Z PROC		; std::allocator<unsigned long>::destroy<unsigned long>, COMDAT
; _this$ = ecx

; 846  : 		_Ptr->~_Uty();
; 847  : 		}

	ret	4
??$destroy@K@?$allocator@K@std@@QAEXPAK@Z ENDP		; std::allocator<unsigned long>::destroy<unsigned long>
_TEXT	ENDS
; Function compile flags: /Ogtp
; File c:\program files (x86)\microsoft visual studio\2017\community\vc\tools\msvc\14.10.25017\include\xmemory0
;	COMDAT ??$construct@KABK@?$allocator@K@std@@QAEXPAKABK@Z
_TEXT	SEGMENT
__Ptr$ = 8						; size = 4
_<_Args_0>$ = 12					; size = 4
??$construct@KABK@?$allocator@K@std@@QAEXPAKABK@Z PROC	; std::allocator<unsigned long>::construct<unsigned long,unsigned long const &>, COMDAT
; _this$ = ecx

; 839  : 		{	// construct _Objty(_Types...) at _Ptr

	npad	2
	push	ebp
	mov	ebp, esp

; 840  : 		::new ((void *)_Ptr) _Objty(_STD forward<_Types>(_Args)...);

	mov	ecx, DWORD PTR __Ptr$[ebp]
	test	ecx, ecx
	je	SHORT $LN3@construct
	mov	eax, DWORD PTR _<_Args_0>$[ebp]
	mov	eax, DWORD PTR [eax]
	mov	DWORD PTR [ecx], eax
$LN3@construct:

; 841  : 		}

	pop	ebp
	ret	8
??$construct@KABK@?$allocator@K@std@@QAEXPAKABK@Z ENDP	; std::allocator<unsigned long>::construct<unsigned long,unsigned long const &>
_TEXT	ENDS
; Function compile flags: /Ogtp
; File c:\program files (x86)\microsoft visual studio\2017\community\vc\tools\msvc\14.10.25017\include\xmemory0
;	COMDAT ??$destroy@PAK@?$allocator@K@std@@QAEXPAPAK@Z
_TEXT	SEGMENT
__Ptr$ = 8						; size = 4
??$destroy@PAK@?$allocator@K@std@@QAEXPAPAK@Z PROC	; std::allocator<unsigned long>::destroy<unsigned long *>, COMDAT
; _this$ = ecx

; 846  : 		_Ptr->~_Uty();
; 847  : 		}

	ret	4
??$destroy@PAK@?$allocator@K@std@@QAEXPAPAK@Z ENDP	; std::allocator<unsigned long>::destroy<unsigned long *>
_TEXT	ENDS
; Function compile flags: /Ogtp
; File c:\program files (x86)\microsoft visual studio\2017\community\vc\tools\msvc\14.10.25017\include\xmemory0
;	COMDAT ??$destroy@V?$array@H$03@std@@@?$allocator_traits@V?$allocator@V?$array@H$03@std@@@std@@@std@@SAXAAV?$allocator@V?$array@H$03@std@@@1@PAV?$array@H$03@1@@Z
_TEXT	SEGMENT
__Al$ = 8						; size = 4
__Ptr$ = 12						; size = 4
??$destroy@V?$array@H$03@std@@@?$allocator_traits@V?$allocator@V?$array@H$03@std@@@std@@@std@@SAXAAV?$allocator@V?$array@H$03@std@@@1@PAV?$array@H$03@1@@Z PROC ; std::allocator_traits<std::allocator<std::array<int,4> > >::destroy<std::array<int,4> >, COMDAT

; 965  : 		_Al.destroy(_Ptr);
; 966  : 		}

	ret	0
??$destroy@V?$array@H$03@std@@@?$allocator_traits@V?$allocator@V?$array@H$03@std@@@std@@@std@@SAXAAV?$allocator@V?$array@H$03@std@@@1@PAV?$array@H$03@1@@Z ENDP ; std::allocator_traits<std::allocator<std::array<int,4> > >::destroy<std::array<int,4> >
_TEXT	ENDS
; Function compile flags: /Ogtp
; File c:\program files (x86)\microsoft visual studio\2017\community\vc\tools\msvc\14.10.25017\include\xmemory0
;	COMDAT ??$construct@V?$array@H$03@std@@ABV12@@?$allocator_traits@V?$allocator@V?$array@H$03@std@@@std@@@std@@SAXAAV?$allocator@V?$array@H$03@std@@@1@PAV?$array@H$03@1@ABV31@@Z
_TEXT	SEGMENT
__Al$ = 8						; size = 4
__Ptr$ = 12						; size = 4
_<_Args_0>$ = 16					; size = 4
??$construct@V?$array@H$03@std@@ABV12@@?$allocator_traits@V?$allocator@V?$array@H$03@std@@@std@@@std@@SAXAAV?$allocator@V?$array@H$03@std@@@1@PAV?$array@H$03@1@ABV31@@Z PROC ; std::allocator_traits<std::allocator<std::array<int,4> > >::construct<std::array<int,4>,std::array<int,4> const &>, COMDAT

; 958  : 		{	// construct _Objty(_Types...) at _Ptr

	npad	2
	push	ebp
	mov	ebp, esp

; 840  : 		::new ((void *)_Ptr) _Objty(_STD forward<_Types>(_Args)...);

	mov	ecx, DWORD PTR __Ptr$[ebp]
	test	ecx, ecx
	je	SHORT $LN8@construct
	mov	eax, DWORD PTR _<_Args_0>$[ebp]
	movups	xmm0, XMMWORD PTR [eax]
	movups	XMMWORD PTR [ecx], xmm0
$LN8@construct:

; 959  : 		_Al.construct(_Ptr, _STD forward<_Types>(_Args)...);
; 960  : 		}

	pop	ebp
	ret	0
??$construct@V?$array@H$03@std@@ABV12@@?$allocator_traits@V?$allocator@V?$array@H$03@std@@@std@@@std@@SAXAAV?$allocator@V?$array@H$03@std@@@1@PAV?$array@H$03@1@ABV31@@Z ENDP ; std::allocator_traits<std::allocator<std::array<int,4> > >::construct<std::array<int,4>,std::array<int,4> const &>
_TEXT	ENDS
; Function compile flags: /Ogtp
; File c:\program files (x86)\microsoft visual studio\2017\community\vc\tools\msvc\14.10.25017\include\type_traits
;	COMDAT ??$move@AAD@std@@YA$$QADAAD@Z
_TEXT	SEGMENT
__Arg$ = 8						; size = 4
??$move@AAD@std@@YA$$QADAAD@Z PROC			; std::move<char &>, COMDAT

; 1350 : 	{	// forward _Arg as movable

	npad	2
	push	ebp
	mov	ebp, esp

; 1351 : 	return (static_cast<typename remove_reference<_Ty>::type&&>(_Arg));

	mov	eax, DWORD PTR __Arg$[ebp]

; 1352 : 	}

	pop	ebp
	ret	0
??$move@AAD@std@@YA$$QADAAD@Z ENDP			; std::move<char &>
_TEXT	ENDS
; Function compile flags: /Ogtp
; File c:\program files (x86)\microsoft visual studio\2017\community\vc\tools\msvc\14.10.25017\include\type_traits
;	COMDAT ??$move@AA_W@std@@YA$$QA_WAA_W@Z
_TEXT	SEGMENT
__Arg$ = 8						; size = 4
??$move@AA_W@std@@YA$$QA_WAA_W@Z PROC			; std::move<wchar_t &>, COMDAT

; 1350 : 	{	// forward _Arg as movable

	npad	2
	push	ebp
	mov	ebp, esp

; 1351 : 	return (static_cast<typename remove_reference<_Ty>::type&&>(_Arg));

	mov	eax, DWORD PTR __Arg$[ebp]

; 1352 : 	}

	pop	ebp
	ret	0
??$move@AA_W@std@@YA$$QA_WAA_W@Z ENDP			; std::move<wchar_t &>
_TEXT	ENDS
; Function compile flags: /Ogtp
; File c:\program files (x86)\microsoft visual studio\2017\community\vc\tools\msvc\14.10.25017\include\xmemory
; File c:\program files (x86)\microsoft visual studio\2017\community\vc\tools\msvc\14.10.25017\include\xutility
; File c:\program files (x86)\microsoft visual studio\2017\community\vc\tools\msvc\14.10.25017\include\xmemory
;	COMDAT ??$_Uninitialized_move@PAV?$array@H$03@std@@PAV12@V?$allocator@V?$array@H$03@std@@@2@@std@@YAPAV?$array@H$03@0@PAV10@00AAU?$_Wrap_alloc@V?$allocator@V?$array@H$03@std@@@std@@@0@@Z
_TEXT	SEGMENT
__First$ = 8						; size = 4
__Last$ = 12						; size = 4
__Dest$ = 16						; size = 4
__Al$ = 20						; size = 4
??$_Uninitialized_move@PAV?$array@H$03@std@@PAV12@V?$allocator@V?$array@H$03@std@@@2@@std@@YAPAV?$array@H$03@0@PAV10@00AAU?$_Wrap_alloc@V?$allocator@V?$array@H$03@std@@@std@@@0@@Z PROC ; std::_Uninitialized_move<std::array<int,4> *,std::array<int,4> *,std::allocator<std::array<int,4> > >, COMDAT

; 166  : 	{	// move [_First, _Last) to raw _Dest, using _Al

	npad	2
	push	ebp
	mov	ebp, esp
; File c:\program files (x86)\microsoft visual studio\2017\community\vc\tools\msvc\14.10.25017\include\xutility

; 2299 : 	const size_t _Count = _Last_ch - _First_ch;

	mov	eax, DWORD PTR __First$[ebp]
	push	esi

; 2300 : 	_CSTD memmove(_Dest_ch, _First_ch, _Count);

	mov	esi, DWORD PTR __Dest$[ebp]
	push	edi

; 2299 : 	const size_t _Count = _Last_ch - _First_ch;

	mov	edi, DWORD PTR __Last$[ebp]
	sub	edi, eax

; 2300 : 	_CSTD memmove(_Dest_ch, _First_ch, _Count);

	push	edi
	push	eax
	push	esi
	call	DWORD PTR __imp__memmove
	add	esp, 12					; 0000000cH

; 2301 : 	return (reinterpret_cast<_OutIt>(_Dest_ch + _Count));

	lea	eax, DWORD PTR [edi+esi]
	pop	edi
	pop	esi
; File c:\program files (x86)\microsoft visual studio\2017\community\vc\tools\msvc\14.10.25017\include\xmemory

; 176  : 	}

	pop	ebp
	ret	0
??$_Uninitialized_move@PAV?$array@H$03@std@@PAV12@V?$allocator@V?$array@H$03@std@@@2@@std@@YAPAV?$array@H$03@0@PAV10@00AAU?$_Wrap_alloc@V?$allocator@V?$array@H$03@std@@@std@@@0@@Z ENDP ; std::_Uninitialized_move<std::array<int,4> *,std::array<int,4> *,std::allocator<std::array<int,4> > >
_TEXT	ENDS
; Function compile flags: /Ogtp
; File c:\program files (x86)\microsoft visual studio\2017\community\vc\tools\msvc\14.10.25017\include\xstring
; File c:\program files (x86)\microsoft visual studio\2017\community\vc\tools\msvc\14.10.25017\include\iosfwd
; File c:\program files (x86)\microsoft visual studio\2017\community\vc\tools\msvc\14.10.25017\include\xstring
;	COMDAT ??$_Traits_equal@U?$char_traits@D@std@@@std@@YA_NQBDI0I@Z
_TEXT	SEGMENT
__Left$ = 8						; size = 4
__Left_size$ = 12					; size = 4
__Right$ = 16						; size = 4
__Right_size$ = 20					; size = 4
??$_Traits_equal@U?$char_traits@D@std@@@std@@YA_NQBDI0I@Z PROC ; std::_Traits_equal<std::char_traits<char> >, COMDAT

; 24   : 	{	// compare [_Left, _Left + _Left_size) to [_Right, _Right + _Right_size) for equality using _Traits

	npad	2
	push	ebp
	mov	ebp, esp

; 25   : 	return (_Left_size == _Right_size && _Traits::compare(_Left, _Right, _Left_size) == 0);

	mov	ecx, DWORD PTR __Left_size$[ebp]
	cmp	ecx, DWORD PTR __Right_size$[ebp]
	jne	SHORT $LN3@Traits_equ
; File c:\program files (x86)\microsoft visual studio\2017\community\vc\tools\msvc\14.10.25017\include\iosfwd

; 475  : 		return (_CSTD memcmp(_First1, _First2, _Count));

	mov	edx, DWORD PTR __Left$[ebp]
	push	esi
	mov	esi, DWORD PTR __Right$[ebp]
	sub	ecx, 4
	jb	SHORT $LN10@Traits_equ
	npad	7
$LL11@Traits_equ:
	mov	eax, DWORD PTR [edx]
	cmp	eax, DWORD PTR [esi]
	jne	SHORT $LN9@Traits_equ
	add	edx, 4
	add	esi, 4
	sub	ecx, 4
	jae	SHORT $LL11@Traits_equ
$LN10@Traits_equ:
	cmp	ecx, -4					; fffffffcH
	je	SHORT $LN8@Traits_equ
$LN9@Traits_equ:
	mov	al, BYTE PTR [edx]
	cmp	al, BYTE PTR [esi]
	jne	SHORT $LN12@Traits_equ
	cmp	ecx, -3					; fffffffdH
	je	SHORT $LN8@Traits_equ
	mov	al, BYTE PTR [edx+1]
	cmp	al, BYTE PTR [esi+1]
	jne	SHORT $LN12@Traits_equ
	cmp	ecx, -2					; fffffffeH
	je	SHORT $LN8@Traits_equ
	mov	al, BYTE PTR [edx+2]
	cmp	al, BYTE PTR [esi+2]
	jne	SHORT $LN12@Traits_equ
	cmp	ecx, -1
	je	SHORT $LN8@Traits_equ
	mov	al, BYTE PTR [edx+3]
	cmp	al, BYTE PTR [esi+3]
	je	SHORT $LN8@Traits_equ
$LN12@Traits_equ:
	sbb	eax, eax
	or	eax, 1
	jmp	SHORT $LN13@Traits_equ
$LN8@Traits_equ:
	xor	eax, eax
$LN13@Traits_equ:
	pop	esi
; File c:\program files (x86)\microsoft visual studio\2017\community\vc\tools\msvc\14.10.25017\include\xstring

; 25   : 	return (_Left_size == _Right_size && _Traits::compare(_Left, _Right, _Left_size) == 0);

	test	eax, eax
	jne	SHORT $LN3@Traits_equ
	mov	al, 1

; 26   : 	}

	pop	ebp
	ret	0
$LN3@Traits_equ:

; 25   : 	return (_Left_size == _Right_size && _Traits::compare(_Left, _Right, _Left_size) == 0);

	xor	al, al

; 26   : 	}

	pop	ebp
	ret	0
??$_Traits_equal@U?$char_traits@D@std@@@std@@YA_NQBDI0I@Z ENDP ; std::_Traits_equal<std::char_traits<char> >
_TEXT	ENDS
; Function compile flags: /Ogtp
; File c:\program files (x86)\microsoft visual studio\2017\community\vc\tools\msvc\14.10.25017\include\xmemory0
;	COMDAT ??$construct@PADAAPAD@?$allocator_traits@V?$allocator@D@std@@@std@@SAXAAV?$allocator@D@1@PAPADAAPAD@Z
_TEXT	SEGMENT
__Al$ = 8						; size = 4
__Ptr$ = 12						; size = 4
_<_Args_0>$ = 16					; size = 4
??$construct@PADAAPAD@?$allocator_traits@V?$allocator@D@std@@@std@@SAXAAV?$allocator@D@1@PAPADAAPAD@Z PROC ; std::allocator_traits<std::allocator<char> >::construct<char *,char * &>, COMDAT

; 958  : 		{	// construct _Objty(_Types...) at _Ptr

	npad	2
	push	ebp
	mov	ebp, esp

; 840  : 		::new ((void *)_Ptr) _Objty(_STD forward<_Types>(_Args)...);

	mov	ecx, DWORD PTR __Ptr$[ebp]
	test	ecx, ecx
	je	SHORT $LN8@construct
	mov	eax, DWORD PTR _<_Args_0>$[ebp]
	mov	eax, DWORD PTR [eax]
	mov	DWORD PTR [ecx], eax
$LN8@construct:

; 959  : 		_Al.construct(_Ptr, _STD forward<_Types>(_Args)...);
; 960  : 		}

	pop	ebp
	ret	0
??$construct@PADAAPAD@?$allocator_traits@V?$allocator@D@std@@@std@@SAXAAV?$allocator@D@1@PAPADAAPAD@Z ENDP ; std::allocator_traits<std::allocator<char> >::construct<char *,char * &>
_TEXT	ENDS
; Function compile flags: /Ogtp
; File c:\program files (x86)\microsoft visual studio\2017\community\vc\tools\msvc\14.10.25017\include\type_traits
;	COMDAT ??$forward@AAPAD@std@@YAAAPADAAPAD@Z
_TEXT	SEGMENT
__Arg$ = 8						; size = 4
??$forward@AAPAD@std@@YAAAPADAAPAD@Z PROC		; std::forward<char * &>, COMDAT

; 1334 : 	{	// forward an lvalue as either an lvalue or an rvalue

	npad	2
	push	ebp
	mov	ebp, esp

; 1335 : 	return (static_cast<_Ty&&>(_Arg));

	mov	eax, DWORD PTR __Arg$[ebp]

; 1336 : 	}

	pop	ebp
	ret	0
??$forward@AAPAD@std@@YAAAPADAAPAD@Z ENDP		; std::forward<char * &>
_TEXT	ENDS
; Function compile flags: /Ogtp
; File c:\program files (x86)\microsoft visual studio\2017\community\vc\tools\msvc\14.10.25017\include\xmemory0
;	COMDAT ??$construct@PA_WAAPA_W@?$allocator_traits@V?$allocator@_W@std@@@std@@SAXAAV?$allocator@_W@1@PAPA_WAAPA_W@Z
_TEXT	SEGMENT
__Al$ = 8						; size = 4
__Ptr$ = 12						; size = 4
_<_Args_0>$ = 16					; size = 4
??$construct@PA_WAAPA_W@?$allocator_traits@V?$allocator@_W@std@@@std@@SAXAAV?$allocator@_W@1@PAPA_WAAPA_W@Z PROC ; std::allocator_traits<std::allocator<wchar_t> >::construct<wchar_t *,wchar_t * &>, COMDAT

; 958  : 		{	// construct _Objty(_Types...) at _Ptr

	npad	2
	push	ebp
	mov	ebp, esp

; 840  : 		::new ((void *)_Ptr) _Objty(_STD forward<_Types>(_Args)...);

	mov	ecx, DWORD PTR __Ptr$[ebp]
	test	ecx, ecx
	je	SHORT $LN8@construct
	mov	eax, DWORD PTR _<_Args_0>$[ebp]
	mov	eax, DWORD PTR [eax]
	mov	DWORD PTR [ecx], eax
$LN8@construct:

; 959  : 		_Al.construct(_Ptr, _STD forward<_Types>(_Args)...);
; 960  : 		}

	pop	ebp
	ret	0
??$construct@PA_WAAPA_W@?$allocator_traits@V?$allocator@_W@std@@@std@@SAXAAV?$allocator@_W@1@PAPA_WAAPA_W@Z ENDP ; std::allocator_traits<std::allocator<wchar_t> >::construct<wchar_t *,wchar_t * &>
_TEXT	ENDS
; Function compile flags: /Ogtp
; File c:\program files (x86)\microsoft visual studio\2017\community\vc\tools\msvc\14.10.25017\include\type_traits
;	COMDAT ??$forward@AAPA_W@std@@YAAAPA_WAAPA_W@Z
_TEXT	SEGMENT
__Arg$ = 8						; size = 4
??$forward@AAPA_W@std@@YAAAPA_WAAPA_W@Z PROC		; std::forward<wchar_t * &>, COMDAT

; 1334 : 	{	// forward an lvalue as either an lvalue or an rvalue

	npad	2
	push	ebp
	mov	ebp, esp

; 1335 : 	return (static_cast<_Ty&&>(_Arg));

	mov	eax, DWORD PTR __Arg$[ebp]

; 1336 : 	}

	pop	ebp
	ret	0
??$forward@AAPA_W@std@@YAAAPA_WAAPA_W@Z ENDP		; std::forward<wchar_t * &>
_TEXT	ENDS
; Function compile flags: /Ogtp
; File c:\program files (x86)\microsoft visual studio\2017\community\vc\tools\msvc\14.10.25017\include\xmemory0
;	COMDAT ??$construct@U_Container_proxy@std@@U12@@?$allocator_traits@V?$allocator@U_Container_proxy@std@@@std@@@std@@SAXAAV?$allocator@U_Container_proxy@std@@@1@PAU_Container_proxy@1@$$QAU31@@Z
_TEXT	SEGMENT
__Al$ = 8						; size = 4
__Ptr$ = 12						; size = 4
_<_Args_0>$ = 16					; size = 4
??$construct@U_Container_proxy@std@@U12@@?$allocator_traits@V?$allocator@U_Container_proxy@std@@@std@@@std@@SAXAAV?$allocator@U_Container_proxy@std@@@1@PAU_Container_proxy@1@$$QAU31@@Z PROC ; std::allocator_traits<std::allocator<std::_Container_proxy> >::construct<std::_Container_proxy,std::_Container_proxy>, COMDAT

; 958  : 		{	// construct _Objty(_Types...) at _Ptr

	npad	2
	push	ebp
	mov	ebp, esp

; 840  : 		::new ((void *)_Ptr) _Objty(_STD forward<_Types>(_Args)...);

	mov	edx, DWORD PTR __Ptr$[ebp]
	test	edx, edx
	je	SHORT $LN8@construct
	mov	ecx, DWORD PTR _<_Args_0>$[ebp]
	mov	eax, DWORD PTR [ecx]
	mov	DWORD PTR [edx], eax
	mov	eax, DWORD PTR [ecx+4]
	mov	DWORD PTR [edx+4], eax
$LN8@construct:

; 959  : 		_Al.construct(_Ptr, _STD forward<_Types>(_Args)...);
; 960  : 		}

	pop	ebp
	ret	0
??$construct@U_Container_proxy@std@@U12@@?$allocator_traits@V?$allocator@U_Container_proxy@std@@@std@@@std@@SAXAAV?$allocator@U_Container_proxy@std@@@1@PAU_Container_proxy@1@$$QAU31@@Z ENDP ; std::allocator_traits<std::allocator<std::_Container_proxy> >::construct<std::_Container_proxy,std::_Container_proxy>
_TEXT	ENDS
; Function compile flags: /Ogtp
; File c:\program files (x86)\microsoft visual studio\2017\community\vc\tools\msvc\14.10.25017\include\type_traits
;	COMDAT ??$forward@U_Container_proxy@std@@@std@@YA$$QAU_Container_proxy@0@AAU10@@Z
_TEXT	SEGMENT
__Arg$ = 8						; size = 4
??$forward@U_Container_proxy@std@@@std@@YA$$QAU_Container_proxy@0@AAU10@@Z PROC ; std::forward<std::_Container_proxy>, COMDAT

; 1334 : 	{	// forward an lvalue as either an lvalue or an rvalue

	npad	2
	push	ebp
	mov	ebp, esp

; 1335 : 	return (static_cast<_Ty&&>(_Arg));

	mov	eax, DWORD PTR __Arg$[ebp]

; 1336 : 	}

	pop	ebp
	ret	0
??$forward@U_Container_proxy@std@@@std@@YA$$QAU_Container_proxy@0@AAU10@@Z ENDP ; std::forward<std::_Container_proxy>
_TEXT	ENDS
; Function compile flags: /Ogtp
; File c:\program files (x86)\microsoft visual studio\2017\community\vc\tools\msvc\14.10.25017\include\xmemory0
;	COMDAT ??$_Destroy_range1@V?$allocator@PAK@std@@PAPAK@std@@YAXPAPAK0AAU?$_Wrap_alloc@V?$allocator@PAK@std@@@0@U?$integral_constant@_N$00@0@@Z
_TEXT	SEGMENT
___formal$ = 8						; size = 4
___formal$ = 12						; size = 4
___formal$ = 16						; size = 4
___formal$ = 20						; size = 1
??$_Destroy_range1@V?$allocator@PAK@std@@PAPAK@std@@YAXPAPAK0AAU?$_Wrap_alloc@V?$allocator@PAK@std@@@0@U?$integral_constant@_N$00@0@@Z PROC ; std::_Destroy_range1<std::allocator<unsigned long *>,unsigned long * *>, COMDAT

; 1208 : 		// nothing to do
; 1209 : 	}

	ret	0
??$_Destroy_range1@V?$allocator@PAK@std@@PAPAK@std@@YAXPAPAK0AAU?$_Wrap_alloc@V?$allocator@PAK@std@@@0@U?$integral_constant@_N$00@0@@Z ENDP ; std::_Destroy_range1<std::allocator<unsigned long *>,unsigned long * *>
_TEXT	ENDS
; Function compile flags: /Ogtp
; File c:\program files (x86)\microsoft visual studio\2017\community\vc\tools\msvc\14.10.25017\include\xmemory
;	COMDAT ??$_Uninitialized_default_fill_n1@PAPAKIV?$allocator@PAK@std@@@std@@YAPAPAKPAPAKIAAU?$_Wrap_alloc@V?$allocator@PAK@std@@@0@U?$integral_constant@_N$00@0@@Z
_TEXT	SEGMENT
__First$ = 8						; size = 4
__Count$ = 12						; size = 4
___formal$ = 16						; size = 4
___formal$ = 20						; size = 1
??$_Uninitialized_default_fill_n1@PAPAKIV?$allocator@PAK@std@@@std@@YAPAPAKPAPAKIAAU?$_Wrap_alloc@V?$allocator@PAK@std@@@0@U?$integral_constant@_N$00@0@@Z PROC ; std::_Uninitialized_default_fill_n1<unsigned long * *,unsigned int,std::allocator<unsigned long *> >, COMDAT

; 250  : 	{	// value-initialize _Count objects to raw _First, using default _Alloc construct, all-bits-zero type

	npad	2
	push	ebp
	mov	ebp, esp

; 251  : 	_CSTD memset(_First, 0, _Count * sizeof(_Iter_value_t<_FwdIt>));

	mov	eax, DWORD PTR __Count$[ebp]
	push	esi
	mov	esi, DWORD PTR __First$[ebp]
	push	edi
	lea	edi, DWORD PTR [eax*4]
	push	edi
	push	0
	push	esi
	call	_memset
	add	esp, 12					; 0000000cH

; 252  : 	return (_First + _Count);

	lea	eax, DWORD PTR [edi+esi]
	pop	edi
	pop	esi

; 253  : 	}

	pop	ebp
	ret	0
??$_Uninitialized_default_fill_n1@PAPAKIV?$allocator@PAK@std@@@std@@YAPAPAKPAPAKIAAU?$_Wrap_alloc@V?$allocator@PAK@std@@@0@U?$integral_constant@_N$00@0@@Z ENDP ; std::_Uninitialized_default_fill_n1<unsigned long * *,unsigned int,std::allocator<unsigned long *> >
_TEXT	ENDS
; Function compile flags: /Ogtp
; File c:\program files (x86)\microsoft visual studio\2017\community\vc\tools\msvc\14.10.25017\include\xutility
;	COMDAT ??$_Rechecked@PAPAKPAPAK@std@@YAAAPAPAKAAPAPAKPAPAK@Z
_TEXT	SEGMENT
__Dest$ = 8						; size = 4
__Src$ = 12						; size = 4
??$_Rechecked@PAPAKPAPAK@std@@YAAAPAPAKAAPAPAKPAPAK@Z PROC ; std::_Rechecked<unsigned long * *,unsigned long * *>, COMDAT

; 480  : 	{	// reset checked from unchecked, generic

	npad	2
	push	ebp
	mov	ebp, esp

; 481  : 	_Dest = _Src;

	mov	eax, DWORD PTR __Dest$[ebp]
	mov	ecx, DWORD PTR __Src$[ebp]
	mov	DWORD PTR [eax], ecx

; 482  : 	return (_Dest);
; 483  : 	}

	pop	ebp
	ret	0
??$_Rechecked@PAPAKPAPAK@std@@YAAAPAPAKAAPAPAKPAPAK@Z ENDP ; std::_Rechecked<unsigned long * *,unsigned long * *>
_TEXT	ENDS
; Function compile flags: /Ogtp
; File c:\program files (x86)\microsoft visual studio\2017\community\vc\tools\msvc\14.10.25017\include\xmemory
; File c:\program files (x86)\microsoft visual studio\2017\community\vc\tools\msvc\14.10.25017\include\xutility
; File c:\program files (x86)\microsoft visual studio\2017\community\vc\tools\msvc\14.10.25017\include\xmemory
;	COMDAT ??$_Uninitialized_copy_al_unchecked@PAKPAKV?$allocator@PAK@std@@@std@@YAPAPAKPAPAK00AAU?$_Wrap_alloc@V?$allocator@PAK@std@@@0@U_Really_trivial_ptr_iterator_tag@0@U?$integral_constant@_N$00@0@@Z
_TEXT	SEGMENT
__First$ = 8						; size = 4
__Last$ = 12						; size = 4
__Dest$ = 16						; size = 4
___formal$ = 20						; size = 4
___formal$ = 24						; size = 1
___formal$ = 28						; size = 1
??$_Uninitialized_copy_al_unchecked@PAKPAKV?$allocator@PAK@std@@@std@@YAPAPAKPAPAK00AAU?$_Wrap_alloc@V?$allocator@PAK@std@@@0@U_Really_trivial_ptr_iterator_tag@0@U?$integral_constant@_N$00@0@@Z PROC ; std::_Uninitialized_copy_al_unchecked<unsigned long *,unsigned long *,std::allocator<unsigned long *> >, COMDAT

; 108  : 	{	// copy [_First, _Last) to raw _Dest, using default _Alloc construct, memmove optimization

	npad	2
	push	ebp
	mov	ebp, esp
; File c:\program files (x86)\microsoft visual studio\2017\community\vc\tools\msvc\14.10.25017\include\xutility

; 2299 : 	const size_t _Count = _Last_ch - _First_ch;

	mov	eax, DWORD PTR __First$[ebp]
	push	esi

; 2300 : 	_CSTD memmove(_Dest_ch, _First_ch, _Count);

	mov	esi, DWORD PTR __Dest$[ebp]
	push	edi

; 2299 : 	const size_t _Count = _Last_ch - _First_ch;

	mov	edi, DWORD PTR __Last$[ebp]
	sub	edi, eax

; 2300 : 	_CSTD memmove(_Dest_ch, _First_ch, _Count);

	push	edi
	push	eax
	push	esi
	call	DWORD PTR __imp__memmove
	add	esp, 12					; 0000000cH

; 2301 : 	return (reinterpret_cast<_OutIt>(_Dest_ch + _Count));

	lea	eax, DWORD PTR [edi+esi]
	pop	edi
	pop	esi
; File c:\program files (x86)\microsoft visual studio\2017\community\vc\tools\msvc\14.10.25017\include\xmemory

; 110  : 	}

	pop	ebp
	ret	0
??$_Uninitialized_copy_al_unchecked@PAKPAKV?$allocator@PAK@std@@@std@@YAPAPAKPAPAK00AAU?$_Wrap_alloc@V?$allocator@PAK@std@@@0@U_Really_trivial_ptr_iterator_tag@0@U?$integral_constant@_N$00@0@@Z ENDP ; std::_Uninitialized_copy_al_unchecked<unsigned long *,unsigned long *,std::allocator<unsigned long *> >
_TEXT	ENDS
; Function compile flags: /Ogtp
; File c:\program files (x86)\microsoft visual studio\2017\community\vc\tools\msvc\14.10.25017\include\xutility
;	COMDAT ??$_Ptr_copy_cat@PAKPAK@std@@YA?AU_Really_trivial_ptr_iterator_tag@0@ABQAPAK0@Z
_TEXT	SEGMENT
___$ReturnUdt$ = 8					; size = 4
___formal$ = 12						; size = 4
___formal$ = 16						; size = 4
??$_Ptr_copy_cat@PAKPAK@std@@YA?AU_Really_trivial_ptr_iterator_tag@0@ABQAPAK0@Z PROC ; std::_Ptr_copy_cat<unsigned long *,unsigned long *>, COMDAT

; 875  : 	{	// return pointer copy optimization category for pointers

	npad	2
	push	ebp
	mov	ebp, esp

; 876  : 	return {};

	mov	eax, DWORD PTR ___$ReturnUdt$[ebp]

; 877  : 	}

	pop	ebp
	ret	0
??$_Ptr_copy_cat@PAKPAK@std@@YA?AU_Really_trivial_ptr_iterator_tag@0@ABQAPAK0@Z ENDP ; std::_Ptr_copy_cat<unsigned long *,unsigned long *>
_TEXT	ENDS
; Function compile flags: /Ogtp
; File c:\program files (x86)\microsoft visual studio\2017\community\vc\tools\msvc\14.10.25017\include\xutility
;	COMDAT ??$_Unchecked@PAPAK@std@@YAPAPAKPAPAK@Z
_TEXT	SEGMENT
__Src$ = 8						; size = 4
??$_Unchecked@PAPAK@std@@YAPAPAKPAPAK@Z PROC		; std::_Unchecked<unsigned long * *>, COMDAT

; 450  : 	{	// construct unchecked from checked, generic

	npad	2
	push	ebp
	mov	ebp, esp

; 451  : 	return (_Src);

	mov	eax, DWORD PTR __Src$[ebp]

; 452  : 	}

	pop	ebp
	ret	0
??$_Unchecked@PAPAK@std@@YAPAPAKPAPAK@Z ENDP		; std::_Unchecked<unsigned long * *>
_TEXT	ENDS
; Function compile flags: /Ogtp
; File c:\program files (x86)\microsoft visual studio\2017\community\vc\tools\msvc\14.10.25017\include\xmemory0
;	COMDAT ??$_Destroy_range1@V?$allocator@V?$array@H$03@std@@@std@@PAV?$array@H$03@2@@std@@YAXPAV?$array@H$03@0@0AAU?$_Wrap_alloc@V?$allocator@V?$array@H$03@std@@@std@@@0@U?$integral_constant@_N$00@0@@Z
_TEXT	SEGMENT
___formal$ = 8						; size = 4
___formal$ = 12						; size = 4
___formal$ = 16						; size = 4
___formal$ = 20						; size = 1
??$_Destroy_range1@V?$allocator@V?$array@H$03@std@@@std@@PAV?$array@H$03@2@@std@@YAXPAV?$array@H$03@0@0AAU?$_Wrap_alloc@V?$allocator@V?$array@H$03@std@@@std@@@0@U?$integral_constant@_N$00@0@@Z PROC ; std::_Destroy_range1<std::allocator<std::array<int,4> >,std::array<int,4> *>, COMDAT

; 1208 : 		// nothing to do
; 1209 : 	}

	ret	0
??$_Destroy_range1@V?$allocator@V?$array@H$03@std@@@std@@PAV?$array@H$03@2@@std@@YAXPAV?$array@H$03@0@0AAU?$_Wrap_alloc@V?$allocator@V?$array@H$03@std@@@std@@@0@U?$integral_constant@_N$00@0@@Z ENDP ; std::_Destroy_range1<std::allocator<std::array<int,4> >,std::array<int,4> *>
_TEXT	ENDS
; Function compile flags: /Ogtp
; File c:\program files (x86)\microsoft visual studio\2017\community\vc\tools\msvc\14.10.25017\include\xmemory0
;	COMDAT ??$destroy@U_Container_proxy@std@@@?$allocator_traits@V?$allocator@U_Container_proxy@std@@@std@@@std@@SAXAAV?$allocator@U_Container_proxy@std@@@1@PAU_Container_proxy@1@@Z
_TEXT	SEGMENT
__Al$ = 8						; size = 4
__Ptr$ = 12						; size = 4
??$destroy@U_Container_proxy@std@@@?$allocator_traits@V?$allocator@U_Container_proxy@std@@@std@@@std@@SAXAAV?$allocator@U_Container_proxy@std@@@1@PAU_Container_proxy@1@@Z PROC ; std::allocator_traits<std::allocator<std::_Container_proxy> >::destroy<std::_Container_proxy>, COMDAT

; 965  : 		_Al.destroy(_Ptr);
; 966  : 		}

	ret	0
??$destroy@U_Container_proxy@std@@@?$allocator_traits@V?$allocator@U_Container_proxy@std@@@std@@@std@@SAXAAV?$allocator@U_Container_proxy@std@@@1@PAU_Container_proxy@1@@Z ENDP ; std::allocator_traits<std::allocator<std::_Container_proxy> >::destroy<std::_Container_proxy>
_TEXT	ENDS
; Function compile flags: /Ogtp
; File c:\program files (x86)\microsoft visual studio\2017\community\vc\tools\msvc\14.10.25017\include\xmemory0
;	COMDAT ??$?0K@?$allocator@U_Container_proxy@std@@@std@@QAE@ABV?$allocator@K@1@@Z
_TEXT	SEGMENT
___formal$ = 8						; size = 4
??$?0K@?$allocator@U_Container_proxy@std@@@std@@QAE@ABV?$allocator@K@1@@Z PROC ; std::allocator<std::_Container_proxy>::allocator<std::_Container_proxy><unsigned long>, COMDAT
; _this$ = ecx

; 813  : 		}

	mov	eax, ecx
	ret	4
??$?0K@?$allocator@U_Container_proxy@std@@@std@@QAE@ABV?$allocator@K@1@@Z ENDP ; std::allocator<std::_Container_proxy>::allocator<std::_Container_proxy><unsigned long>
_TEXT	ENDS
; Function compile flags: /Ogtp
; File c:\program files (x86)\microsoft visual studio\2017\community\vc\tools\msvc\14.10.25017\include\xmemory0
;	COMDAT ??$destroy@PAD@?$allocator_traits@V?$allocator@D@std@@@std@@SAXAAV?$allocator@D@1@PAPAD@Z
_TEXT	SEGMENT
__Al$ = 8						; size = 4
__Ptr$ = 12						; size = 4
??$destroy@PAD@?$allocator_traits@V?$allocator@D@std@@@std@@SAXAAV?$allocator@D@1@PAPAD@Z PROC ; std::allocator_traits<std::allocator<char> >::destroy<char *>, COMDAT

; 965  : 		_Al.destroy(_Ptr);
; 966  : 		}

	ret	0
??$destroy@PAD@?$allocator_traits@V?$allocator@D@std@@@std@@SAXAAV?$allocator@D@1@PAPAD@Z ENDP ; std::allocator_traits<std::allocator<char> >::destroy<char *>
_TEXT	ENDS
; Function compile flags: /Ogtp
; File c:\program files (x86)\microsoft visual studio\2017\community\vc\tools\msvc\14.10.25017\include\xmemory0
;	COMDAT ??$destroy@PA_W@?$allocator_traits@V?$allocator@_W@std@@@std@@SAXAAV?$allocator@_W@1@PAPA_W@Z
_TEXT	SEGMENT
__Al$ = 8						; size = 4
__Ptr$ = 12						; size = 4
??$destroy@PA_W@?$allocator_traits@V?$allocator@_W@std@@@std@@SAXAAV?$allocator@_W@1@PAPA_W@Z PROC ; std::allocator_traits<std::allocator<wchar_t> >::destroy<wchar_t *>, COMDAT

; 965  : 		_Al.destroy(_Ptr);
; 966  : 		}

	ret	0
??$destroy@PA_W@?$allocator_traits@V?$allocator@_W@std@@@std@@SAXAAV?$allocator@_W@1@PAPA_W@Z ENDP ; std::allocator_traits<std::allocator<wchar_t> >::destroy<wchar_t *>
_TEXT	ENDS
; Function compile flags: /Ogtp
; File c:\program files (x86)\microsoft visual studio\2017\community\vc\tools\msvc\14.10.25017\include\type_traits
;	COMDAT ??$forward@V?$allocator@_W@std@@@std@@YA$$QAV?$allocator@_W@0@AAV10@@Z
_TEXT	SEGMENT
__Arg$ = 8						; size = 4
??$forward@V?$allocator@_W@std@@@std@@YA$$QAV?$allocator@_W@0@AAV10@@Z PROC ; std::forward<std::allocator<wchar_t> >, COMDAT

; 1334 : 	{	// forward an lvalue as either an lvalue or an rvalue

	npad	2
	push	ebp
	mov	ebp, esp

; 1335 : 	return (static_cast<_Ty&&>(_Arg));

	mov	eax, DWORD PTR __Arg$[ebp]

; 1336 : 	}

	pop	ebp
	ret	0
??$forward@V?$allocator@_W@std@@@std@@YA$$QAV?$allocator@_W@0@AAV10@@Z ENDP ; std::forward<std::allocator<wchar_t> >
_TEXT	ENDS
; Function compile flags: /Ogtp
; File c:\program files (x86)\microsoft visual studio\2017\community\vc\tools\msvc\14.10.25017\include\xmemory0
;	COMDAT ??$destroy@K@?$allocator_traits@V?$allocator@K@std@@@std@@SAXAAV?$allocator@K@1@PAK@Z
_TEXT	SEGMENT
__Al$ = 8						; size = 4
__Ptr$ = 12						; size = 4
??$destroy@K@?$allocator_traits@V?$allocator@K@std@@@std@@SAXAAV?$allocator@K@1@PAK@Z PROC ; std::allocator_traits<std::allocator<unsigned long> >::destroy<unsigned long>, COMDAT

; 965  : 		_Al.destroy(_Ptr);
; 966  : 		}

	ret	0
??$destroy@K@?$allocator_traits@V?$allocator@K@std@@@std@@SAXAAV?$allocator@K@1@PAK@Z ENDP ; std::allocator_traits<std::allocator<unsigned long> >::destroy<unsigned long>
_TEXT	ENDS
; Function compile flags: /Ogtp
; File c:\program files (x86)\microsoft visual studio\2017\community\vc\tools\msvc\14.10.25017\include\xmemory0
;	COMDAT ??$construct@KABK@?$allocator_traits@V?$allocator@K@std@@@std@@SAXAAV?$allocator@K@1@PAKABK@Z
_TEXT	SEGMENT
__Al$ = 8						; size = 4
__Ptr$ = 12						; size = 4
_<_Args_0>$ = 16					; size = 4
??$construct@KABK@?$allocator_traits@V?$allocator@K@std@@@std@@SAXAAV?$allocator@K@1@PAKABK@Z PROC ; std::allocator_traits<std::allocator<unsigned long> >::construct<unsigned long,unsigned long const &>, COMDAT

; 958  : 		{	// construct _Objty(_Types...) at _Ptr

	npad	2
	push	ebp
	mov	ebp, esp

; 840  : 		::new ((void *)_Ptr) _Objty(_STD forward<_Types>(_Args)...);

	mov	ecx, DWORD PTR __Ptr$[ebp]
	test	ecx, ecx
	je	SHORT $LN8@construct
	mov	eax, DWORD PTR _<_Args_0>$[ebp]
	mov	eax, DWORD PTR [eax]
	mov	DWORD PTR [ecx], eax
$LN8@construct:

; 959  : 		_Al.construct(_Ptr, _STD forward<_Types>(_Args)...);
; 960  : 		}

	pop	ebp
	ret	0
??$construct@KABK@?$allocator_traits@V?$allocator@K@std@@@std@@SAXAAV?$allocator@K@1@PAKABK@Z ENDP ; std::allocator_traits<std::allocator<unsigned long> >::construct<unsigned long,unsigned long const &>
_TEXT	ENDS
; Function compile flags: /Ogtp
; File c:\program files (x86)\microsoft visual studio\2017\community\vc\tools\msvc\14.10.25017\include\type_traits
;	COMDAT ??$forward@ABK@std@@YAABKABK@Z
_TEXT	SEGMENT
__Arg$ = 8						; size = 4
??$forward@ABK@std@@YAABKABK@Z PROC			; std::forward<unsigned long const &>, COMDAT

; 1334 : 	{	// forward an lvalue as either an lvalue or an rvalue

	npad	2
	push	ebp
	mov	ebp, esp

; 1335 : 	return (static_cast<_Ty&&>(_Arg));

	mov	eax, DWORD PTR __Arg$[ebp]

; 1336 : 	}

	pop	ebp
	ret	0
??$forward@ABK@std@@YAABKABK@Z ENDP			; std::forward<unsigned long const &>
_TEXT	ENDS
; Function compile flags: /Ogtp
; File c:\program files (x86)\microsoft visual studio\2017\community\vc\tools\msvc\14.10.25017\include\xmemory0
;	COMDAT ??$destroy@PAK@?$allocator_traits@V?$allocator@K@std@@@std@@SAXAAV?$allocator@K@1@PAPAK@Z
_TEXT	SEGMENT
__Al$ = 8						; size = 4
__Ptr$ = 12						; size = 4
??$destroy@PAK@?$allocator_traits@V?$allocator@K@std@@@std@@SAXAAV?$allocator@K@1@PAPAK@Z PROC ; std::allocator_traits<std::allocator<unsigned long> >::destroy<unsigned long *>, COMDAT

; 965  : 		_Al.destroy(_Ptr);
; 966  : 		}

	ret	0
??$destroy@PAK@?$allocator_traits@V?$allocator@K@std@@@std@@SAXAAV?$allocator@K@1@PAPAK@Z ENDP ; std::allocator_traits<std::allocator<unsigned long> >::destroy<unsigned long *>
_TEXT	ENDS
; Function compile flags: /Ogtp
; File c:\program files (x86)\microsoft visual studio\2017\community\vc\tools\msvc\14.10.25017\include\xmemory0
;	COMDAT ??$?0K@?$allocator@PAK@std@@QAE@ABV?$allocator@K@1@@Z
_TEXT	SEGMENT
___formal$ = 8						; size = 4
??$?0K@?$allocator@PAK@std@@QAE@ABV?$allocator@K@1@@Z PROC ; std::allocator<unsigned long *>::allocator<unsigned long *><unsigned long>, COMDAT
; _this$ = ecx

; 813  : 		}

	mov	eax, ecx
	ret	4
??$?0K@?$allocator@PAK@std@@QAE@ABV?$allocator@K@1@@Z ENDP ; std::allocator<unsigned long *>::allocator<unsigned long *><unsigned long>
_TEXT	ENDS
; Function compile flags: /Ogtp
; File c:\program files (x86)\microsoft visual studio\2017\community\vc\tools\msvc\14.10.25017\include\type_traits
;	COMDAT ??$forward@AAU?$_Wrap_alloc@V?$allocator@K@std@@@std@@@std@@YAAAU?$_Wrap_alloc@V?$allocator@K@std@@@0@AAU10@@Z
_TEXT	SEGMENT
__Arg$ = 8						; size = 4
??$forward@AAU?$_Wrap_alloc@V?$allocator@K@std@@@std@@@std@@YAAAU?$_Wrap_alloc@V?$allocator@K@std@@@0@AAU10@@Z PROC ; std::forward<std::_Wrap_alloc<std::allocator<unsigned long> > &>, COMDAT

; 1334 : 	{	// forward an lvalue as either an lvalue or an rvalue

	npad	2
	push	ebp
	mov	ebp, esp

; 1335 : 	return (static_cast<_Ty&&>(_Arg));

	mov	eax, DWORD PTR __Arg$[ebp]

; 1336 : 	}

	pop	ebp
	ret	0
??$forward@AAU?$_Wrap_alloc@V?$allocator@K@std@@@std@@@std@@YAAAU?$_Wrap_alloc@V?$allocator@K@std@@@0@AAU10@@Z ENDP ; std::forward<std::_Wrap_alloc<std::allocator<unsigned long> > &>
_TEXT	ENDS
; Function compile flags: /Ogtp
; File c:\program files (x86)\microsoft visual studio\2017\community\vc\tools\msvc\14.10.25017\include\xutility
; File c:\program files (x86)\microsoft visual studio\2017\community\vc\tools\msvc\14.10.25017\include\xstring
; File c:\program files (x86)\microsoft visual studio\2017\community\vc\tools\msvc\14.10.25017\include\xutility
; File c:\program files (x86)\microsoft visual studio\2017\community\vc\tools\msvc\14.10.25017\include\xstring
; File c:\program files (x86)\microsoft visual studio\2017\community\vc\tools\msvc\14.10.25017\include\xutility
;	COMDAT ??$?0U?$_Wrap_alloc@V?$allocator@D@std@@@std@@$$V@?$_Compressed_pair@U?$_Wrap_alloc@V?$allocator@D@std@@@std@@V?$_String_val@U?$_Simple_types@D@std@@@2@$00@std@@QAE@U_One_then_variadic_args_t@1@$$QAU?$_Wrap_alloc@V?$allocator@D@std@@@1@@Z
_TEXT	SEGMENT
___formal$ = 8						; size = 1
__Val1$ = 12						; size = 4
??$?0U?$_Wrap_alloc@V?$allocator@D@std@@@std@@$$V@?$_Compressed_pair@U?$_Wrap_alloc@V?$allocator@D@std@@@std@@V?$_String_val@U?$_Simple_types@D@std@@@2@$00@std@@QAE@U_One_then_variadic_args_t@1@$$QAU?$_Wrap_alloc@V?$allocator@D@std@@@1@@Z PROC ; std::_Compressed_pair<std::_Wrap_alloc<std::allocator<char> >,std::_String_val<std::_Simple_types<char> >,1>::_Compressed_pair<std::_Wrap_alloc<std::allocator<char> >,std::_String_val<std::_Simple_types<char> >,1><std::_Wrap_alloc<std::allocator<char> > >, COMDAT
; _this$ = ecx
; File c:\program files (x86)\microsoft visual studio\2017\community\vc\tools\msvc\14.10.25017\include\xstring

; 1595 : 		_Mysize(0),

	mov	DWORD PTR [ecx+16], 0
; File c:\program files (x86)\microsoft visual studio\2017\community\vc\tools\msvc\14.10.25017\include\xutility

; 313  : 		}

	mov	eax, ecx
; File c:\program files (x86)\microsoft visual studio\2017\community\vc\tools\msvc\14.10.25017\include\xstring

; 1596 : 		_Myres(0)

	mov	DWORD PTR [ecx+20], 0
; File c:\program files (x86)\microsoft visual studio\2017\community\vc\tools\msvc\14.10.25017\include\xutility

; 313  : 		}

	ret	8
??$?0U?$_Wrap_alloc@V?$allocator@D@std@@@std@@$$V@?$_Compressed_pair@U?$_Wrap_alloc@V?$allocator@D@std@@@std@@V?$_String_val@U?$_Simple_types@D@std@@@2@$00@std@@QAE@U_One_then_variadic_args_t@1@$$QAU?$_Wrap_alloc@V?$allocator@D@std@@@1@@Z ENDP ; std::_Compressed_pair<std::_Wrap_alloc<std::allocator<char> >,std::_String_val<std::_Simple_types<char> >,1>::_Compressed_pair<std::_Wrap_alloc<std::allocator<char> >,std::_String_val<std::_Simple_types<char> >,1><std::_Wrap_alloc<std::allocator<char> > >
_TEXT	ENDS
; Function compile flags: /Ogtp
; File c:\program files (x86)\microsoft visual studio\2017\community\vc\tools\msvc\14.10.25017\include\type_traits
;	COMDAT ??$forward@U?$_Wrap_alloc@V?$allocator@D@std@@@std@@@std@@YA$$QAU?$_Wrap_alloc@V?$allocator@D@std@@@0@AAU10@@Z
_TEXT	SEGMENT
__Arg$ = 8						; size = 4
??$forward@U?$_Wrap_alloc@V?$allocator@D@std@@@std@@@std@@YA$$QAU?$_Wrap_alloc@V?$allocator@D@std@@@0@AAU10@@Z PROC ; std::forward<std::_Wrap_alloc<std::allocator<char> > >, COMDAT

; 1334 : 	{	// forward an lvalue as either an lvalue or an rvalue

	npad	2
	push	ebp
	mov	ebp, esp

; 1335 : 	return (static_cast<_Ty&&>(_Arg));

	mov	eax, DWORD PTR __Arg$[ebp]

; 1336 : 	}

	pop	ebp
	ret	0
??$forward@U?$_Wrap_alloc@V?$allocator@D@std@@@std@@@std@@YA$$QAU?$_Wrap_alloc@V?$allocator@D@std@@@0@AAU10@@Z ENDP ; std::forward<std::_Wrap_alloc<std::allocator<char> > >
_TEXT	ENDS
; Function compile flags: /Ogtp
; File c:\program files (x86)\microsoft visual studio\2017\community\vc\tools\msvc\14.10.25017\include\xutility
; File c:\program files (x86)\microsoft visual studio\2017\community\vc\tools\msvc\14.10.25017\include\xstring
; File c:\program files (x86)\microsoft visual studio\2017\community\vc\tools\msvc\14.10.25017\include\xutility
; File c:\program files (x86)\microsoft visual studio\2017\community\vc\tools\msvc\14.10.25017\include\xstring
; File c:\program files (x86)\microsoft visual studio\2017\community\vc\tools\msvc\14.10.25017\include\xutility
;	COMDAT ??$?0U?$_Wrap_alloc@V?$allocator@_W@std@@@std@@$$V@?$_Compressed_pair@U?$_Wrap_alloc@V?$allocator@_W@std@@@std@@V?$_String_val@U?$_Simple_types@_W@std@@@2@$00@std@@QAE@U_One_then_variadic_args_t@1@$$QAU?$_Wrap_alloc@V?$allocator@_W@std@@@1@@Z
_TEXT	SEGMENT
___formal$ = 8						; size = 1
__Val1$ = 12						; size = 4
??$?0U?$_Wrap_alloc@V?$allocator@_W@std@@@std@@$$V@?$_Compressed_pair@U?$_Wrap_alloc@V?$allocator@_W@std@@@std@@V?$_String_val@U?$_Simple_types@_W@std@@@2@$00@std@@QAE@U_One_then_variadic_args_t@1@$$QAU?$_Wrap_alloc@V?$allocator@_W@std@@@1@@Z PROC ; std::_Compressed_pair<std::_Wrap_alloc<std::allocator<wchar_t> >,std::_String_val<std::_Simple_types<wchar_t> >,1>::_Compressed_pair<std::_Wrap_alloc<std::allocator<wchar_t> >,std::_String_val<std::_Simple_types<wchar_t> >,1><std::_Wrap_alloc<std::allocator<wchar_t> > >, COMDAT
; _this$ = ecx
; File c:\program files (x86)\microsoft visual studio\2017\community\vc\tools\msvc\14.10.25017\include\xstring

; 1595 : 		_Mysize(0),

	mov	DWORD PTR [ecx+16], 0
; File c:\program files (x86)\microsoft visual studio\2017\community\vc\tools\msvc\14.10.25017\include\xutility

; 313  : 		}

	mov	eax, ecx
; File c:\program files (x86)\microsoft visual studio\2017\community\vc\tools\msvc\14.10.25017\include\xstring

; 1596 : 		_Myres(0)

	mov	DWORD PTR [ecx+20], 0
; File c:\program files (x86)\microsoft visual studio\2017\community\vc\tools\msvc\14.10.25017\include\xutility

; 313  : 		}

	ret	8
??$?0U?$_Wrap_alloc@V?$allocator@_W@std@@@std@@$$V@?$_Compressed_pair@U?$_Wrap_alloc@V?$allocator@_W@std@@@std@@V?$_String_val@U?$_Simple_types@_W@std@@@2@$00@std@@QAE@U_One_then_variadic_args_t@1@$$QAU?$_Wrap_alloc@V?$allocator@_W@std@@@1@@Z ENDP ; std::_Compressed_pair<std::_Wrap_alloc<std::allocator<wchar_t> >,std::_String_val<std::_Simple_types<wchar_t> >,1>::_Compressed_pair<std::_Wrap_alloc<std::allocator<wchar_t> >,std::_String_val<std::_Simple_types<wchar_t> >,1><std::_Wrap_alloc<std::allocator<wchar_t> > >
_TEXT	ENDS
; Function compile flags: /Ogtp
; File c:\program files (x86)\microsoft visual studio\2017\community\vc\tools\msvc\14.10.25017\include\type_traits
;	COMDAT ??$forward@U?$_Wrap_alloc@V?$allocator@_W@std@@@std@@@std@@YA$$QAU?$_Wrap_alloc@V?$allocator@_W@std@@@0@AAU10@@Z
_TEXT	SEGMENT
__Arg$ = 8						; size = 4
??$forward@U?$_Wrap_alloc@V?$allocator@_W@std@@@std@@@std@@YA$$QAU?$_Wrap_alloc@V?$allocator@_W@std@@@0@AAU10@@Z PROC ; std::forward<std::_Wrap_alloc<std::allocator<wchar_t> > >, COMDAT

; 1334 : 	{	// forward an lvalue as either an lvalue or an rvalue

	npad	2
	push	ebp
	mov	ebp, esp

; 1335 : 	return (static_cast<_Ty&&>(_Arg));

	mov	eax, DWORD PTR __Arg$[ebp]

; 1336 : 	}

	pop	ebp
	ret	0
??$forward@U?$_Wrap_alloc@V?$allocator@_W@std@@@std@@@std@@YA$$QAU?$_Wrap_alloc@V?$allocator@_W@std@@@0@AAU10@@Z ENDP ; std::forward<std::_Wrap_alloc<std::allocator<wchar_t> > >
_TEXT	ENDS
; Function compile flags: /Ogtp
; File c:\program files (x86)\microsoft visual studio\2017\community\vc\tools\msvc\14.10.25017\include\xutility
; File c:\program files (x86)\microsoft visual studio\2017\community\vc\tools\msvc\14.10.25017\include\deque
; File c:\program files (x86)\microsoft visual studio\2017\community\vc\tools\msvc\14.10.25017\include\xutility
;	COMDAT ??$?0U?$_Wrap_alloc@V?$allocator@K@std@@@std@@$$V@?$_Compressed_pair@U?$_Wrap_alloc@V?$allocator@K@std@@@std@@V?$_Deque_val@U?$_Deque_simple_types@K@std@@@2@$00@std@@QAE@U_One_then_variadic_args_t@1@$$QAU?$_Wrap_alloc@V?$allocator@K@std@@@1@@Z
_TEXT	SEGMENT
___formal$ = 8						; size = 1
__Val1$ = 12						; size = 4
??$?0U?$_Wrap_alloc@V?$allocator@K@std@@@std@@$$V@?$_Compressed_pair@U?$_Wrap_alloc@V?$allocator@K@std@@@std@@V?$_Deque_val@U?$_Deque_simple_types@K@std@@@2@$00@std@@QAE@U_One_then_variadic_args_t@1@$$QAU?$_Wrap_alloc@V?$allocator@K@std@@@1@@Z PROC ; std::_Compressed_pair<std::_Wrap_alloc<std::allocator<unsigned long> >,std::_Deque_val<std::_Deque_simple_types<unsigned long> >,1>::_Compressed_pair<std::_Wrap_alloc<std::allocator<unsigned long> >,std::_Deque_val<std::_Deque_simple_types<unsigned long> >,1><std::_Wrap_alloc<std::allocator<unsigned long> > >, COMDAT
; _this$ = ecx

; 99   : 		: _Myproxy(0)

	mov	DWORD PTR [ecx], 0

; 313  : 		}

	mov	eax, ecx
; File c:\program files (x86)\microsoft visual studio\2017\community\vc\tools\msvc\14.10.25017\include\deque

; 752  : 		: _Map(),

	mov	DWORD PTR [ecx+4], 0

; 753  : 		_Mapsize(0),

	mov	DWORD PTR [ecx+8], 0

; 754  : 		_Myoff(0),

	mov	DWORD PTR [ecx+12], 0

; 755  : 		_Mysize(0)

	mov	DWORD PTR [ecx+16], 0
; File c:\program files (x86)\microsoft visual studio\2017\community\vc\tools\msvc\14.10.25017\include\xutility

; 313  : 		}

	ret	8
??$?0U?$_Wrap_alloc@V?$allocator@K@std@@@std@@$$V@?$_Compressed_pair@U?$_Wrap_alloc@V?$allocator@K@std@@@std@@V?$_Deque_val@U?$_Deque_simple_types@K@std@@@2@$00@std@@QAE@U_One_then_variadic_args_t@1@$$QAU?$_Wrap_alloc@V?$allocator@K@std@@@1@@Z ENDP ; std::_Compressed_pair<std::_Wrap_alloc<std::allocator<unsigned long> >,std::_Deque_val<std::_Deque_simple_types<unsigned long> >,1>::_Compressed_pair<std::_Wrap_alloc<std::allocator<unsigned long> >,std::_Deque_val<std::_Deque_simple_types<unsigned long> >,1><std::_Wrap_alloc<std::allocator<unsigned long> > >
_TEXT	ENDS
; Function compile flags: /Ogtp
; File c:\program files (x86)\microsoft visual studio\2017\community\vc\tools\msvc\14.10.25017\include\type_traits
;	COMDAT ??$forward@U?$_Wrap_alloc@V?$allocator@K@std@@@std@@@std@@YA$$QAU?$_Wrap_alloc@V?$allocator@K@std@@@0@AAU10@@Z
_TEXT	SEGMENT
__Arg$ = 8						; size = 4
??$forward@U?$_Wrap_alloc@V?$allocator@K@std@@@std@@@std@@YA$$QAU?$_Wrap_alloc@V?$allocator@K@std@@@0@AAU10@@Z PROC ; std::forward<std::_Wrap_alloc<std::allocator<unsigned long> > >, COMDAT

; 1334 : 	{	// forward an lvalue as either an lvalue or an rvalue

	npad	2
	push	ebp
	mov	ebp, esp

; 1335 : 	return (static_cast<_Ty&&>(_Arg));

	mov	eax, DWORD PTR __Arg$[ebp]

; 1336 : 	}

	pop	ebp
	ret	0
??$forward@U?$_Wrap_alloc@V?$allocator@K@std@@@std@@@std@@YA$$QAU?$_Wrap_alloc@V?$allocator@K@std@@@0@AAU10@@Z ENDP ; std::forward<std::_Wrap_alloc<std::allocator<unsigned long> > >
_TEXT	ENDS
; Function compile flags: /Ogtp
; File c:\program files (x86)\microsoft visual studio\2017\community\vc\tools\msvc\14.10.25017\include\xmemory0
;	COMDAT ??$destroy@V?$array@H$03@std@@@?$_Wrap_alloc@V?$allocator@V?$array@H$03@std@@@std@@@std@@QAEXPAV?$array@H$03@1@@Z
_TEXT	SEGMENT
__Ptr$ = 8						; size = 4
??$destroy@V?$array@H$03@std@@@?$_Wrap_alloc@V?$allocator@V?$array@H$03@std@@@std@@@std@@QAEXPAV?$array@H$03@1@@Z PROC ; std::_Wrap_alloc<std::allocator<std::array<int,4> > >::destroy<std::array<int,4> >, COMDAT
; _this$ = ecx

; 1103 : 		_Mytraits::destroy(*this, _Ptr);
; 1104 : 		}

	ret	4
??$destroy@V?$array@H$03@std@@@?$_Wrap_alloc@V?$allocator@V?$array@H$03@std@@@std@@@std@@QAEXPAV?$array@H$03@1@@Z ENDP ; std::_Wrap_alloc<std::allocator<std::array<int,4> > >::destroy<std::array<int,4> >
_TEXT	ENDS
; Function compile flags: /Ogtp
; File c:\program files (x86)\microsoft visual studio\2017\community\vc\tools\msvc\14.10.25017\include\xmemory0
;	COMDAT ??$construct@V?$array@H$03@std@@ABV12@@?$_Wrap_alloc@V?$allocator@V?$array@H$03@std@@@std@@@std@@QAEXPAV?$array@H$03@1@ABV21@@Z
_TEXT	SEGMENT
__Ptr$ = 8						; size = 4
_<_Args_0>$ = 12					; size = 4
??$construct@V?$array@H$03@std@@ABV12@@?$_Wrap_alloc@V?$allocator@V?$array@H$03@std@@@std@@@std@@QAEXPAV?$array@H$03@1@ABV21@@Z PROC ; std::_Wrap_alloc<std::allocator<std::array<int,4> > >::construct<std::array<int,4>,std::array<int,4> const &>, COMDAT
; _this$ = ecx

; 1095 : 		{	// construct _Ty(_Types...) at _Ptr

	npad	2
	push	ebp
	mov	ebp, esp

; 840  : 		::new ((void *)_Ptr) _Objty(_STD forward<_Types>(_Args)...);

	mov	ecx, DWORD PTR __Ptr$[ebp]
	test	ecx, ecx
	je	SHORT $LN13@construct
	mov	eax, DWORD PTR _<_Args_0>$[ebp]
	movups	xmm0, XMMWORD PTR [eax]
	movups	XMMWORD PTR [ecx], xmm0
$LN13@construct:

; 1096 : 		_Mytraits::construct(*this, _Ptr,
; 1097 : 			_STD forward<_Types>(_Args)...);
; 1098 : 		}

	pop	ebp
	ret	8
??$construct@V?$array@H$03@std@@ABV12@@?$_Wrap_alloc@V?$allocator@V?$array@H$03@std@@@std@@@std@@QAEXPAV?$array@H$03@1@ABV21@@Z ENDP ; std::_Wrap_alloc<std::allocator<std::array<int,4> > >::construct<std::array<int,4>,std::array<int,4> const &>
_TEXT	ENDS
; Function compile flags: /Ogtp
; File c:\program files (x86)\microsoft visual studio\2017\community\vc\tools\msvc\14.10.25017\include\xstddef
;	COMDAT ??$_Unfancy@V?$array@H$03@std@@@std@@YAPAV?$array@H$03@0@PAV10@@Z
_TEXT	SEGMENT
__Ptr$ = 8						; size = 4
??$_Unfancy@V?$array@H$03@std@@@std@@YAPAV?$array@H$03@0@PAV10@@Z PROC ; std::_Unfancy<std::array<int,4> >, COMDAT

; 642  : 	{	// do nothing for plain pointers

	npad	2
	push	ebp
	mov	ebp, esp

; 643  : 	return (_Ptr);

	mov	eax, DWORD PTR __Ptr$[ebp]

; 644  : 	}

	pop	ebp
	ret	0
??$_Unfancy@V?$array@H$03@std@@@std@@YAPAV?$array@H$03@0@PAV10@@Z ENDP ; std::_Unfancy<std::array<int,4> >
_TEXT	ENDS
; Function compile flags: /Ogtp
; File c:\program files (x86)\microsoft visual studio\2017\community\vc\tools\msvc\14.10.25017\include\vector
; File c:\program files (x86)\microsoft visual studio\2017\community\vc\tools\msvc\14.10.25017\include\xmemory0
; File c:\program files (x86)\microsoft visual studio\2017\community\vc\tools\msvc\14.10.25017\include\vector
;	COMDAT ??$_Emplace_back_with_unused_capacity@ABV?$array@H$03@std@@@?$vector@V?$array@H$03@std@@V?$allocator@V?$array@H$03@std@@@2@@std@@AAEXABV?$array@H$03@1@@Z
_TEXT	SEGMENT
_<_Val_0>$ = 8						; size = 4
??$_Emplace_back_with_unused_capacity@ABV?$array@H$03@std@@@?$vector@V?$array@H$03@std@@V?$allocator@V?$array@H$03@std@@@2@@std@@AAEXABV?$array@H$03@1@@Z PROC ; std::vector<std::array<int,4>,std::allocator<std::array<int,4> > >::_Emplace_back_with_unused_capacity<std::array<int,4> const &>, COMDAT
; _this$ = ecx

; 898  : 		{	// insert by perfectly forwarding into element at end, provide strong guarantee

	npad	2
	push	ebp
	mov	ebp, esp
; File c:\program files (x86)\microsoft visual studio\2017\community\vc\tools\msvc\14.10.25017\include\xmemory0

; 840  : 		::new ((void *)_Ptr) _Objty(_STD forward<_Types>(_Args)...);

	mov	edx, DWORD PTR [ecx+4]
	test	edx, edx
	je	SHORT $LN71@Emplace_ba
	mov	eax, DWORD PTR _<_Val_0>$[ebp]
	movups	xmm0, XMMWORD PTR [eax]
	movups	XMMWORD PTR [edx], xmm0
$LN71@Emplace_ba:
; File c:\program files (x86)\microsoft visual studio\2017\community\vc\tools\msvc\14.10.25017\include\vector

; 902  : 		++this->_Mylast();

	add	DWORD PTR [ecx+4], 16			; 00000010H

; 903  : 		}

	pop	ebp
	ret	4
??$_Emplace_back_with_unused_capacity@ABV?$array@H$03@std@@@?$vector@V?$array@H$03@std@@V?$allocator@V?$array@H$03@std@@@2@@std@@AAEXABV?$array@H$03@1@@Z ENDP ; std::vector<std::array<int,4>,std::allocator<std::array<int,4> > >::_Emplace_back_with_unused_capacity<std::array<int,4> const &>
_TEXT	ENDS
; Function compile flags: /Ogtp
; File c:\program files (x86)\microsoft visual studio\2017\community\vc\tools\msvc\14.10.25017\include\type_traits
;	COMDAT ??$forward@ABV?$array@H$03@std@@@std@@YAABV?$array@H$03@0@ABV10@@Z
_TEXT	SEGMENT
__Arg$ = 8						; size = 4
??$forward@ABV?$array@H$03@std@@@std@@YAABV?$array@H$03@0@ABV10@@Z PROC ; std::forward<std::array<int,4> const &>, COMDAT

; 1334 : 	{	// forward an lvalue as either an lvalue or an rvalue

	npad	2
	push	ebp
	mov	ebp, esp

; 1335 : 	return (static_cast<_Ty&&>(_Arg));

	mov	eax, DWORD PTR __Arg$[ebp]

; 1336 : 	}

	pop	ebp
	ret	0
??$forward@ABV?$array@H$03@std@@@std@@YAABV?$array@H$03@0@ABV10@@Z ENDP ; std::forward<std::array<int,4> const &>
_TEXT	ENDS
; Function compile flags: /Ogtp
; File c:\program files (x86)\microsoft visual studio\2017\community\vc\tools\msvc\14.10.25017\include\xstring
;	COMDAT ??$_Rechecked@V?$_String_val@U?$_Simple_types@D@std@@@std@@@std@@YA?AV?$_String_iterator@V?$_String_val@U?$_Simple_types@D@std@@@std@@@0@AAV10@PAD@Z
_TEXT	SEGMENT
___$ReturnUdt$ = 8					; size = 4
__Iter$ = 12						; size = 4
__Right$ = 16						; size = 4
??$_Rechecked@V?$_String_val@U?$_Simple_types@D@std@@@std@@@std@@YA?AV?$_String_iterator@V?$_String_val@U?$_Simple_types@D@std@@@std@@@0@AAV10@PAD@Z PROC ; std::_Rechecked<std::_String_val<std::_Simple_types<char> > >, COMDAT

; 1519 : 	{	// convert to checked

	npad	2
	push	ebp
	mov	ebp, esp

; 1428 : 		this->_Ptr = _Right;

	mov	eax, DWORD PTR __Iter$[ebp]
	mov	ecx, DWORD PTR __Right$[ebp]
	mov	DWORD PTR [eax], ecx

; 1520 : 	return (_Iter._Rechecked(_Right));

	mov	eax, DWORD PTR ___$ReturnUdt$[ebp]
	mov	DWORD PTR [eax], ecx

; 1521 : 	}

	pop	ebp
	ret	0
??$_Rechecked@V?$_String_val@U?$_Simple_types@D@std@@@std@@@std@@YA?AV?$_String_iterator@V?$_String_val@U?$_Simple_types@D@std@@@std@@@0@AAV10@PAD@Z ENDP ; std::_Rechecked<std::_String_val<std::_Simple_types<char> > >
_TEXT	ENDS
; Function compile flags: /Ogtp
; File c:\program files (x86)\microsoft visual studio\2017\community\vc\tools\msvc\14.10.25017\include\algorithm
; File c:\users\andon\source\repos\specialk\src\utility.cpp
; File c:\program files (x86)\microsoft visual studio\2017\community\vc\tools\msvc\14.10.25017\include\algorithm
; File c:\users\andon\source\repos\specialk\src\utility.cpp
; File c:\program files (x86)\microsoft visual studio\2017\community\vc\tools\msvc\14.10.25017\include\algorithm
;	COMDAT ??$_Unique_unchecked@PADUtest_slashes@?1??SK_StripTrailingSlashesA@@YAXPAD@Z@@std@@YAPADPAD0AAUtest_slashes@?1??SK_StripTrailingSlashesA@@YAX0@Z@@Z
_TEXT	SEGMENT
tv278 = 8						; size = 4
__First$ = 8						; size = 4
__Last$ = 12						; size = 4
__Pred$ = 16						; size = 4
??$_Unique_unchecked@PADUtest_slashes@?1??SK_StripTrailingSlashesA@@YAXPAD@Z@@std@@YAPADPAD0AAUtest_slashes@?1??SK_StripTrailingSlashesA@@YAX0@Z@@Z PROC ; std::_Unique_unchecked<char *,`SK_StripTrailingSlashesA'::`2'::test_slashes>, COMDAT

; 1432 : 	{	// remove each satisfying _Pred with previous

	npad	2
	push	ebp
	mov	ebp, esp

; 1433 : 	if (_First != _Last)

	mov	eax, DWORD PTR __First$[ebp]
	push	ebx
	push	edi
	mov	edi, DWORD PTR __Last$[ebp]
	cmp	eax, edi
	je	SHORT $LN3@Unique_unc

; 1434 : 		for (_FwdIt _Firstb; (void)(_Firstb = _First), ++_First != _Last; )

	mov	ecx, eax
	inc	eax
	cmp	eax, edi
	je	SHORT $LN3@Unique_unc
$LL2@Unique_unc:

; 1435 : 			if (_Pred(*_Firstb, *_First))

	mov	bl, BYTE PTR [ecx]
	mov	dl, BYTE PTR [eax]
; File c:\users\andon\source\repos\specialk\src\utility.cpp

; 2934 :         return (a == '\\' || a == '/');

	cmp	bl, 92					; 0000005cH
	je	SHORT $LN18@Unique_unc
	cmp	bl, 47					; 0000002fH
	jne	SHORT $LN14@Unique_unc
$LN18@Unique_unc:
	cmp	dl, 92					; 0000005cH
	je	SHORT $LN41@Unique_unc
	cmp	dl, 47					; 0000002fH
	je	SHORT $LN41@Unique_unc
$LN14@Unique_unc:
; File c:\program files (x86)\microsoft visual studio\2017\community\vc\tools\msvc\14.10.25017\include\algorithm

; 1434 : 		for (_FwdIt _Firstb; (void)(_Firstb = _First), ++_First != _Last; )

	mov	ecx, eax
	inc	eax
	cmp	eax, edi
	jne	SHORT $LL2@Unique_unc
$LN3@Unique_unc:

; 1441 : 				}
; 1442 : 
; 1443 : 	return (_Last);

	mov	eax, edi
	pop	edi
	pop	ebx

; 1444 : 	}

	pop	ebp
	ret	0
$LN41@Unique_unc:
	push	esi

; 1436 : 				{	// copy down
; 1437 : 				for (; ++_First != _Last; )

	lea	esi, DWORD PTR [eax+1]
	xor	ebx, ebx
	mov	eax, edi
	xor	edx, edx
	sub	eax, esi
	cmp	esi, edi
	cmova	eax, ebx
	mov	DWORD PTR tv278[ebp], eax
	test	eax, eax
	je	SHORT $LN6@Unique_unc
	mov	edi, eax
$LL5@Unique_unc:

; 1438 : 					if (!_Pred(*_Firstb, *_First))

	mov	bl, BYTE PTR [ecx]
	mov	al, BYTE PTR [esi]
; File c:\users\andon\source\repos\specialk\src\utility.cpp

; 2934 :         return (a == '\\' || a == '/');

	cmp	bl, 92					; 0000005cH
	je	SHORT $LN30@Unique_unc
	cmp	bl, 47					; 0000002fH
	jne	SHORT $LN26@Unique_unc
$LN30@Unique_unc:
	cmp	al, 92					; 0000005cH
	je	SHORT $LN10@Unique_unc
	cmp	al, 47					; 0000002fH
	je	SHORT $LN10@Unique_unc
$LN26@Unique_unc:
; File c:\program files (x86)\microsoft visual studio\2017\community\vc\tools\msvc\14.10.25017\include\algorithm

; 1439 : 						*++_Firstb = _STD move(*_First);

	inc	ecx
	mov	BYTE PTR [ecx], al
$LN10@Unique_unc:

; 1436 : 				{	// copy down
; 1437 : 				for (; ++_First != _Last; )

	inc	edx
	inc	esi
	cmp	edx, edi
	jne	SHORT $LL5@Unique_unc
$LN6@Unique_unc:
	pop	esi
	pop	edi

; 1440 : 				return (++_Firstb);

	lea	eax, DWORD PTR [ecx+1]
	pop	ebx

; 1444 : 	}

	pop	ebp
	ret	0
??$_Unique_unchecked@PADUtest_slashes@?1??SK_StripTrailingSlashesA@@YAXPAD@Z@@std@@YAPADPAD0AAUtest_slashes@?1??SK_StripTrailingSlashesA@@YAX0@Z@@Z ENDP ; std::_Unique_unchecked<char *,`SK_StripTrailingSlashesA'::`2'::test_slashes>
_TEXT	ENDS
; Function compile flags: /Ogtp
; File c:\program files (x86)\microsoft visual studio\2017\community\vc\tools\msvc\14.10.25017\include\xstring
;	COMDAT ??$_Unchecked@V?$_String_val@U?$_Simple_types@D@std@@@std@@@std@@YAPADV?$_String_iterator@V?$_String_val@U?$_Simple_types@D@std@@@std@@@0@@Z
_TEXT	SEGMENT
__Iter$ = 8						; size = 4
??$_Unchecked@V?$_String_val@U?$_Simple_types@D@std@@@std@@@std@@YAPADV?$_String_iterator@V?$_String_val@U?$_Simple_types@D@std@@@std@@@0@@Z PROC ; std::_Unchecked<std::_String_val<std::_Simple_types<char> > >, COMDAT

; 1510 : 	{	// convert to unchecked

	npad	2
	push	ebp
	mov	ebp, esp

; 1511 : 	return (_Iter._Unchecked());

	mov	eax, DWORD PTR __Iter$[ebp]

; 1512 : 	}

	pop	ebp
	ret	0
??$_Unchecked@V?$_String_val@U?$_Simple_types@D@std@@@std@@@std@@YAPADV?$_String_iterator@V?$_String_val@U?$_Simple_types@D@std@@@std@@@0@@Z ENDP ; std::_Unchecked<std::_String_val<std::_Simple_types<char> > >
_TEXT	ENDS
; Function compile flags: /Ogtp
; File c:\program files (x86)\microsoft visual studio\2017\community\vc\tools\msvc\14.10.25017\include\xstring
;	COMDAT ??$_Rechecked@V?$_String_val@U?$_Simple_types@_W@std@@@std@@@std@@YA?AV?$_String_iterator@V?$_String_val@U?$_Simple_types@_W@std@@@std@@@0@AAV10@PA_W@Z
_TEXT	SEGMENT
___$ReturnUdt$ = 8					; size = 4
__Iter$ = 12						; size = 4
__Right$ = 16						; size = 4
??$_Rechecked@V?$_String_val@U?$_Simple_types@_W@std@@@std@@@std@@YA?AV?$_String_iterator@V?$_String_val@U?$_Simple_types@_W@std@@@std@@@0@AAV10@PA_W@Z PROC ; std::_Rechecked<std::_String_val<std::_Simple_types<wchar_t> > >, COMDAT

; 1519 : 	{	// convert to checked

	npad	2
	push	ebp
	mov	ebp, esp

; 1428 : 		this->_Ptr = _Right;

	mov	eax, DWORD PTR __Iter$[ebp]
	mov	ecx, DWORD PTR __Right$[ebp]
	mov	DWORD PTR [eax], ecx

; 1520 : 	return (_Iter._Rechecked(_Right));

	mov	eax, DWORD PTR ___$ReturnUdt$[ebp]
	mov	DWORD PTR [eax], ecx

; 1521 : 	}

	pop	ebp
	ret	0
??$_Rechecked@V?$_String_val@U?$_Simple_types@_W@std@@@std@@@std@@YA?AV?$_String_iterator@V?$_String_val@U?$_Simple_types@_W@std@@@std@@@0@AAV10@PA_W@Z ENDP ; std::_Rechecked<std::_String_val<std::_Simple_types<wchar_t> > >
_TEXT	ENDS
; Function compile flags: /Ogtp
; File c:\program files (x86)\microsoft visual studio\2017\community\vc\tools\msvc\14.10.25017\include\algorithm
; File c:\users\andon\source\repos\specialk\src\utility.cpp
; File c:\program files (x86)\microsoft visual studio\2017\community\vc\tools\msvc\14.10.25017\include\algorithm
; File c:\users\andon\source\repos\specialk\src\utility.cpp
; File c:\program files (x86)\microsoft visual studio\2017\community\vc\tools\msvc\14.10.25017\include\algorithm
;	COMDAT ??$_Unique_unchecked@PA_WUtest_slashes@?1??SK_StripTrailingSlashesW@@YAXPA_W@Z@@std@@YAPA_WPA_W0AAUtest_slashes@?1??SK_StripTrailingSlashesW@@YAX0@Z@@Z
_TEXT	SEGMENT
tv275 = 8						; size = 4
__First$ = 8						; size = 4
__Last$ = 12						; size = 4
__Pred$ = 16						; size = 4
??$_Unique_unchecked@PA_WUtest_slashes@?1??SK_StripTrailingSlashesW@@YAXPA_W@Z@@std@@YAPA_WPA_W0AAUtest_slashes@?1??SK_StripTrailingSlashesW@@YAX0@Z@@Z PROC ; std::_Unique_unchecked<wchar_t *,`SK_StripTrailingSlashesW'::`2'::test_slashes>, COMDAT

; 1432 : 	{	// remove each satisfying _Pred with previous

	npad	2
	push	ebp
	mov	ebp, esp

; 1433 : 	if (_First != _Last)

	mov	eax, DWORD PTR __First$[ebp]
	push	esi
	push	edi
	mov	edi, DWORD PTR __Last$[ebp]
	cmp	eax, edi
	je	SHORT $LN3@Unique_unc

; 1434 : 		for (_FwdIt _Firstb; (void)(_Firstb = _First), ++_First != _Last; )

	mov	ecx, eax
	add	eax, 2
	cmp	eax, edi
	je	SHORT $LN3@Unique_unc
	npad	6
$LL2@Unique_unc:

; 1435 : 			if (_Pred(*_Firstb, *_First))

	movzx	esi, WORD PTR [ecx]
	movzx	edx, WORD PTR [eax]
; File c:\users\andon\source\repos\specialk\src\utility.cpp

; 2896 :         return (a == L'\\' || a == L'/');

	cmp	esi, 92					; 0000005cH
	je	SHORT $LN18@Unique_unc
	cmp	esi, 47					; 0000002fH
	jne	SHORT $LN14@Unique_unc
$LN18@Unique_unc:
	cmp	edx, 92					; 0000005cH
	je	SHORT $LN41@Unique_unc
	cmp	edx, 47					; 0000002fH
	je	SHORT $LN41@Unique_unc
$LN14@Unique_unc:
; File c:\program files (x86)\microsoft visual studio\2017\community\vc\tools\msvc\14.10.25017\include\algorithm

; 1434 : 		for (_FwdIt _Firstb; (void)(_Firstb = _First), ++_First != _Last; )

	mov	ecx, eax
	add	eax, 2
	cmp	eax, edi
	jne	SHORT $LL2@Unique_unc
$LN3@Unique_unc:

; 1441 : 				}
; 1442 : 
; 1443 : 	return (_Last);

	mov	eax, edi
	pop	edi
	pop	esi

; 1444 : 	}

	pop	ebp
	ret	0
$LN41@Unique_unc:
	push	ebx

; 1436 : 				{	// copy down
; 1437 : 				for (; ++_First != _Last; )

	lea	edx, DWORD PTR [eax+2]
	mov	ebx, edi
	sub	ebx, edx
	xor	esi, esi
	inc	ebx
	xor	eax, eax
	shr	ebx, 1
	cmp	edx, edi
	cmova	ebx, esi
	mov	DWORD PTR tv275[ebp], ebx
	test	ebx, ebx
	je	SHORT $LN6@Unique_unc
$LL5@Unique_unc:

; 1438 : 					if (!_Pred(*_Firstb, *_First))

	movzx	edi, WORD PTR [ecx]
	movzx	ebx, WORD PTR [edx]
	mov	esi, ebx
; File c:\users\andon\source\repos\specialk\src\utility.cpp

; 2896 :         return (a == L'\\' || a == L'/');

	cmp	edi, 92					; 0000005cH
	je	SHORT $LN30@Unique_unc
	cmp	edi, 47					; 0000002fH
	jne	SHORT $LN26@Unique_unc
$LN30@Unique_unc:
	cmp	esi, 92					; 0000005cH
	je	SHORT $LN10@Unique_unc
	cmp	esi, 47					; 0000002fH
	je	SHORT $LN10@Unique_unc
$LN26@Unique_unc:
; File c:\program files (x86)\microsoft visual studio\2017\community\vc\tools\msvc\14.10.25017\include\algorithm

; 1439 : 						*++_Firstb = _STD move(*_First);

	add	ecx, 2
	mov	WORD PTR [ecx], bx
$LN10@Unique_unc:

; 1436 : 				{	// copy down
; 1437 : 				for (; ++_First != _Last; )

	inc	eax
	add	edx, 2
	cmp	eax, DWORD PTR tv275[ebp]
	jne	SHORT $LL5@Unique_unc
$LN6@Unique_unc:
	pop	ebx
	pop	edi

; 1440 : 				return (++_Firstb);

	lea	eax, DWORD PTR [ecx+2]
	pop	esi

; 1444 : 	}

	pop	ebp
	ret	0
??$_Unique_unchecked@PA_WUtest_slashes@?1??SK_StripTrailingSlashesW@@YAXPA_W@Z@@std@@YAPA_WPA_W0AAUtest_slashes@?1??SK_StripTrailingSlashesW@@YAX0@Z@@Z ENDP ; std::_Unique_unchecked<wchar_t *,`SK_StripTrailingSlashesW'::`2'::test_slashes>
_TEXT	ENDS
; Function compile flags: /Ogtp
; File c:\program files (x86)\microsoft visual studio\2017\community\vc\tools\msvc\14.10.25017\include\xstring
;	COMDAT ??$_Unchecked@V?$_String_val@U?$_Simple_types@_W@std@@@std@@@std@@YAPA_WV?$_String_iterator@V?$_String_val@U?$_Simple_types@_W@std@@@std@@@0@@Z
_TEXT	SEGMENT
__Iter$ = 8						; size = 4
??$_Unchecked@V?$_String_val@U?$_Simple_types@_W@std@@@std@@@std@@YAPA_WV?$_String_iterator@V?$_String_val@U?$_Simple_types@_W@std@@@std@@@0@@Z PROC ; std::_Unchecked<std::_String_val<std::_Simple_types<wchar_t> > >, COMDAT

; 1510 : 	{	// convert to unchecked

	npad	2
	push	ebp
	mov	ebp, esp

; 1511 : 	return (_Iter._Unchecked());

	mov	eax, DWORD PTR __Iter$[ebp]

; 1512 : 	}

	pop	ebp
	ret	0
??$_Unchecked@V?$_String_val@U?$_Simple_types@_W@std@@@std@@@std@@YAPA_WV?$_String_iterator@V?$_String_val@U?$_Simple_types@_W@std@@@std@@@0@@Z ENDP ; std::_Unchecked<std::_String_val<std::_Simple_types<wchar_t> > >
_TEXT	ENDS
; Function compile flags: /Ogtp
; File c:\program files (x86)\microsoft visual studio\2017\community\vc\tools\msvc\14.10.25017\include\xstddef
;	COMDAT ??$addressof@U_Container_proxy@std@@@std@@YAPAU_Container_proxy@0@AAU10@@Z
_TEXT	SEGMENT
__Val$ = 8						; size = 4
??$addressof@U_Container_proxy@std@@@std@@YAPAU_Container_proxy@0@AAU10@@Z PROC ; std::addressof<std::_Container_proxy>, COMDAT

; 629  : 	{	// return address of _Val

	npad	2
	push	ebp
	mov	ebp, esp

; 630  : 	return (__builtin_addressof(_Val));

	mov	eax, DWORD PTR __Val$[ebp]

; 631  : 	}

	pop	ebp
	ret	0
??$addressof@U_Container_proxy@std@@@std@@YAPAU_Container_proxy@0@AAU10@@Z ENDP ; std::addressof<std::_Container_proxy>
_TEXT	ENDS
; Function compile flags: /Ogtp
; File c:\program files (x86)\microsoft visual studio\2017\community\vc\tools\msvc\14.10.25017\include\xmemory0
;	COMDAT ??$construct@PADAAPAD@?$_Wrap_alloc@V?$allocator@D@std@@@std@@QAEXPAPADAAPAD@Z
_TEXT	SEGMENT
__Ptr$ = 8						; size = 4
_<_Args_0>$ = 12					; size = 4
??$construct@PADAAPAD@?$_Wrap_alloc@V?$allocator@D@std@@@std@@QAEXPAPADAAPAD@Z PROC ; std::_Wrap_alloc<std::allocator<char> >::construct<char *,char * &>, COMDAT
; _this$ = ecx

; 1095 : 		{	// construct _Ty(_Types...) at _Ptr

	npad	2
	push	ebp
	mov	ebp, esp

; 840  : 		::new ((void *)_Ptr) _Objty(_STD forward<_Types>(_Args)...);

	mov	ecx, DWORD PTR __Ptr$[ebp]
	test	ecx, ecx
	je	SHORT $LN13@construct
	mov	eax, DWORD PTR _<_Args_0>$[ebp]
	mov	eax, DWORD PTR [eax]
	mov	DWORD PTR [ecx], eax
$LN13@construct:

; 1096 : 		_Mytraits::construct(*this, _Ptr,
; 1097 : 			_STD forward<_Types>(_Args)...);
; 1098 : 		}

	pop	ebp
	ret	8
??$construct@PADAAPAD@?$_Wrap_alloc@V?$allocator@D@std@@@std@@QAEXPAPADAAPAD@Z ENDP ; std::_Wrap_alloc<std::allocator<char> >::construct<char *,char * &>
_TEXT	ENDS
; Function compile flags: /Ogtp
; File c:\program files (x86)\microsoft visual studio\2017\community\vc\tools\msvc\14.10.25017\include\xmemory0
;	COMDAT ??$construct@PA_WAAPA_W@?$_Wrap_alloc@V?$allocator@_W@std@@@std@@QAEXPAPA_WAAPA_W@Z
_TEXT	SEGMENT
__Ptr$ = 8						; size = 4
_<_Args_0>$ = 12					; size = 4
??$construct@PA_WAAPA_W@?$_Wrap_alloc@V?$allocator@_W@std@@@std@@QAEXPAPA_WAAPA_W@Z PROC ; std::_Wrap_alloc<std::allocator<wchar_t> >::construct<wchar_t *,wchar_t * &>, COMDAT
; _this$ = ecx

; 1095 : 		{	// construct _Ty(_Types...) at _Ptr

	npad	2
	push	ebp
	mov	ebp, esp

; 840  : 		::new ((void *)_Ptr) _Objty(_STD forward<_Types>(_Args)...);

	mov	ecx, DWORD PTR __Ptr$[ebp]
	test	ecx, ecx
	je	SHORT $LN13@construct
	mov	eax, DWORD PTR _<_Args_0>$[ebp]
	mov	eax, DWORD PTR [eax]
	mov	DWORD PTR [ecx], eax
$LN13@construct:

; 1096 : 		_Mytraits::construct(*this, _Ptr,
; 1097 : 			_STD forward<_Types>(_Args)...);
; 1098 : 		}

	pop	ebp
	ret	8
??$construct@PA_WAAPA_W@?$_Wrap_alloc@V?$allocator@_W@std@@@std@@QAEXPAPA_WAAPA_W@Z ENDP ; std::_Wrap_alloc<std::allocator<wchar_t> >::construct<wchar_t *,wchar_t * &>
_TEXT	ENDS
; Function compile flags: /Ogtp
; File c:\program files (x86)\microsoft visual studio\2017\community\vc\tools\msvc\14.10.25017\include\xmemory0
;	COMDAT ??$construct@U_Container_proxy@std@@U12@@?$_Wrap_alloc@V?$allocator@U_Container_proxy@std@@@std@@@std@@QAEXPAU_Container_proxy@1@$$QAU21@@Z
_TEXT	SEGMENT
__Ptr$ = 8						; size = 4
_<_Args_0>$ = 12					; size = 4
??$construct@U_Container_proxy@std@@U12@@?$_Wrap_alloc@V?$allocator@U_Container_proxy@std@@@std@@@std@@QAEXPAU_Container_proxy@1@$$QAU21@@Z PROC ; std::_Wrap_alloc<std::allocator<std::_Container_proxy> >::construct<std::_Container_proxy,std::_Container_proxy>, COMDAT
; _this$ = ecx

; 1095 : 		{	// construct _Ty(_Types...) at _Ptr

	npad	2
	push	ebp
	mov	ebp, esp

; 840  : 		::new ((void *)_Ptr) _Objty(_STD forward<_Types>(_Args)...);

	mov	edx, DWORD PTR __Ptr$[ebp]
	test	edx, edx
	je	SHORT $LN13@construct
	mov	ecx, DWORD PTR _<_Args_0>$[ebp]
	mov	eax, DWORD PTR [ecx]
	mov	DWORD PTR [edx], eax
	mov	eax, DWORD PTR [ecx+4]
	mov	DWORD PTR [edx+4], eax
$LN13@construct:

; 1096 : 		_Mytraits::construct(*this, _Ptr,
; 1097 : 			_STD forward<_Types>(_Args)...);
; 1098 : 		}

	pop	ebp
	ret	8
??$construct@U_Container_proxy@std@@U12@@?$_Wrap_alloc@V?$allocator@U_Container_proxy@std@@@std@@@std@@QAEXPAU_Container_proxy@1@$$QAU21@@Z ENDP ; std::_Wrap_alloc<std::allocator<std::_Container_proxy> >::construct<std::_Container_proxy,std::_Container_proxy>
_TEXT	ENDS
; Function compile flags: /Ogtp
; File c:\program files (x86)\microsoft visual studio\2017\community\vc\tools\msvc\14.10.25017\include\xstddef
;	COMDAT ??$_Unfancy@U_Container_proxy@std@@@std@@YAPAU_Container_proxy@0@PAU10@@Z
_TEXT	SEGMENT
__Ptr$ = 8						; size = 4
??$_Unfancy@U_Container_proxy@std@@@std@@YAPAU_Container_proxy@0@PAU10@@Z PROC ; std::_Unfancy<std::_Container_proxy>, COMDAT

; 642  : 	{	// do nothing for plain pointers

	npad	2
	push	ebp
	mov	ebp, esp

; 643  : 	return (_Ptr);

	mov	eax, DWORD PTR __Ptr$[ebp]

; 644  : 	}

	pop	ebp
	ret	0
??$_Unfancy@U_Container_proxy@std@@@std@@YAPAU_Container_proxy@0@PAU10@@Z ENDP ; std::_Unfancy<std::_Container_proxy>
_TEXT	ENDS
; Function compile flags: /Ogtp
; File c:\program files (x86)\microsoft visual studio\2017\community\vc\tools\msvc\14.10.25017\include\xmemory0
;	COMDAT ?pointer_to@?$pointer_traits@PAU_Container_proxy@std@@@std@@SAPAU_Container_proxy@2@AAU32@@Z
_TEXT	SEGMENT
__Val$ = 8						; size = 4
?pointer_to@?$pointer_traits@PAU_Container_proxy@std@@@std@@SAPAU_Container_proxy@2@AAU32@@Z PROC ; std::pointer_traits<std::_Container_proxy *>::pointer_to, COMDAT

; 289  : 		{	// convert raw reference to pointer

	npad	2
	push	ebp
	mov	ebp, esp

; 290  : 		return (_STD addressof(_Val));

	mov	eax, DWORD PTR __Val$[ebp]

; 291  : 		}

	pop	ebp
	ret	0
?pointer_to@?$pointer_traits@PAU_Container_proxy@std@@@std@@SAPAU_Container_proxy@2@AAU32@@Z ENDP ; std::pointer_traits<std::_Container_proxy *>::pointer_to
_TEXT	ENDS
; Function compile flags: /Ogtp
; File c:\program files (x86)\microsoft visual studio\2017\community\vc\tools\msvc\14.10.25017\include\xstddef
;	COMDAT ??$addressof@$$CBV?$basic_string@DU?$char_traits@D@std@@V?$allocator@D@2@@std@@@std@@YAPBV?$basic_string@DU?$char_traits@D@std@@V?$allocator@D@2@@0@ABV10@@Z
_TEXT	SEGMENT
__Val$ = 8						; size = 4
??$addressof@$$CBV?$basic_string@DU?$char_traits@D@std@@V?$allocator@D@2@@std@@@std@@YAPBV?$basic_string@DU?$char_traits@D@std@@V?$allocator@D@2@@0@ABV10@@Z PROC ; std::addressof<std::basic_string<char,std::char_traits<char>,std::allocator<char> > const >, COMDAT

; 629  : 	{	// return address of _Val

	npad	2
	push	ebp
	mov	ebp, esp

; 630  : 	return (__builtin_addressof(_Val));

	mov	eax, DWORD PTR __Val$[ebp]

; 631  : 	}

	pop	ebp
	ret	0
??$addressof@$$CBV?$basic_string@DU?$char_traits@D@std@@V?$allocator@D@2@@std@@@std@@YAPBV?$basic_string@DU?$char_traits@D@std@@V?$allocator@D@2@@0@ABV10@@Z ENDP ; std::addressof<std::basic_string<char,std::char_traits<char>,std::allocator<char> > const >
_TEXT	ENDS
; Function compile flags: /Ogtp
; File c:\program files (x86)\microsoft visual studio\2017\community\vc\tools\msvc\14.10.25017\include\utility
;	COMDAT ??$_Min_value@I@std@@YAABIABI0@Z
_TEXT	SEGMENT
__Left$ = 8						; size = 4
__Right$ = 12						; size = 4
??$_Min_value@I@std@@YAABIABI0@Z PROC			; std::_Min_value<unsigned int>, COMDAT

; 22   : 	{	// return smaller of _Left and _Right

	npad	2
	push	ebp
	mov	ebp, esp

; 23   : 	return (_Right < _Left ? _Right : _Left);

	mov	edx, DWORD PTR __Right$[ebp]
	mov	eax, DWORD PTR __Left$[ebp]
	mov	ecx, DWORD PTR [edx]
	cmp	ecx, DWORD PTR [eax]
	cmovb	eax, edx

; 24   : 	}

	pop	ebp
	ret	0
??$_Min_value@I@std@@YAABIABI0@Z ENDP			; std::_Min_value<unsigned int>
_TEXT	ENDS
; Function compile flags: /Ogtp
; File c:\program files (x86)\microsoft visual studio\2017\community\vc\tools\msvc\14.10.25017\include\xstddef
;	COMDAT ??$addressof@$$CBV?$basic_string@_WU?$char_traits@_W@std@@V?$allocator@_W@2@@std@@@std@@YAPBV?$basic_string@_WU?$char_traits@_W@std@@V?$allocator@_W@2@@0@ABV10@@Z
_TEXT	SEGMENT
__Val$ = 8						; size = 4
??$addressof@$$CBV?$basic_string@_WU?$char_traits@_W@std@@V?$allocator@_W@2@@std@@@std@@YAPBV?$basic_string@_WU?$char_traits@_W@std@@V?$allocator@_W@2@@0@ABV10@@Z PROC ; std::addressof<std::basic_string<wchar_t,std::char_traits<wchar_t>,std::allocator<wchar_t> > const >, COMDAT

; 629  : 	{	// return address of _Val

	npad	2
	push	ebp
	mov	ebp, esp

; 630  : 	return (__builtin_addressof(_Val));

	mov	eax, DWORD PTR __Val$[ebp]

; 631  : 	}

	pop	ebp
	ret	0
??$addressof@$$CBV?$basic_string@_WU?$char_traits@_W@std@@V?$allocator@_W@2@@std@@@std@@YAPBV?$basic_string@_WU?$char_traits@_W@std@@V?$allocator@_W@2@@0@ABV10@@Z ENDP ; std::addressof<std::basic_string<wchar_t,std::char_traits<wchar_t>,std::allocator<wchar_t> > const >
_TEXT	ENDS
; Function compile flags: /Ogtp
; File c:\program files (x86)\microsoft visual studio\2017\community\vc\tools\msvc\14.10.25017\include\xstddef
;	COMDAT ??$addressof@V?$_Deque_val@U?$_Deque_simple_types@K@std@@@std@@@std@@YAPAV?$_Deque_val@U?$_Deque_simple_types@K@std@@@0@AAV10@@Z
_TEXT	SEGMENT
__Val$ = 8						; size = 4
??$addressof@V?$_Deque_val@U?$_Deque_simple_types@K@std@@@std@@@std@@YAPAV?$_Deque_val@U?$_Deque_simple_types@K@std@@@0@AAV10@@Z PROC ; std::addressof<std::_Deque_val<std::_Deque_simple_types<unsigned long> > >, COMDAT

; 629  : 	{	// return address of _Val

	npad	2
	push	ebp
	mov	ebp, esp

; 630  : 	return (__builtin_addressof(_Val));

	mov	eax, DWORD PTR __Val$[ebp]

; 631  : 	}

	pop	ebp
	ret	0
??$addressof@V?$_Deque_val@U?$_Deque_simple_types@K@std@@@std@@@std@@YAPAV?$_Deque_val@U?$_Deque_simple_types@K@std@@@0@AAV10@@Z ENDP ; std::addressof<std::_Deque_val<std::_Deque_simple_types<unsigned long> > >
_TEXT	ENDS
; Function compile flags: /Ogtp
; File c:\program files (x86)\microsoft visual studio\2017\community\vc\tools\msvc\14.10.25017\include\xmemory0
;	COMDAT ??$_Destroy_range@V?$allocator@PAK@std@@PAPAK@std@@YAXPAPAK0AAU?$_Wrap_alloc@V?$allocator@PAK@std@@@0@@Z
_TEXT	SEGMENT
__First$ = 8						; size = 4
__Last$ = 12						; size = 4
__Al$ = 16						; size = 4
??$_Destroy_range@V?$allocator@PAK@std@@PAPAK@std@@YAXPAPAK0AAU?$_Wrap_alloc@V?$allocator@PAK@std@@@0@@Z PROC ; std::_Destroy_range<std::allocator<unsigned long *>,unsigned long * *>, COMDAT

; 1215 : 		// note that this is an optimization for debug mode codegen;
; 1216 : 		// in release mode the BE removes all of this
; 1217 : 	typedef typename _Alloc::value_type _Val;
; 1218 : 	_Destroy_range1(_First, _Last, _Al, _Conjunction_t<
; 1219 : 		is_trivially_destructible<_Val>,
; 1220 : 		_Uses_default_destroy<_Alloc, _Val *>>());
; 1221 : 	}

	ret	0
??$_Destroy_range@V?$allocator@PAK@std@@PAPAK@std@@YAXPAPAK0AAU?$_Wrap_alloc@V?$allocator@PAK@std@@@0@@Z ENDP ; std::_Destroy_range<std::allocator<unsigned long *>,unsigned long * *>
_TEXT	ENDS
; Function compile flags: /Ogtp
; File c:\program files (x86)\microsoft visual studio\2017\community\vc\tools\msvc\14.10.25017\include\xmemory
;	COMDAT ??$_Uninitialized_default_fill_n@PAPAKIV?$allocator@PAK@std@@@std@@YAPAPAKPAPAKIAAU?$_Wrap_alloc@V?$allocator@PAK@std@@@0@@Z
_TEXT	SEGMENT
__First$ = 8						; size = 4
__Count$ = 12						; size = 4
__Al$ = 16						; size = 4
??$_Uninitialized_default_fill_n@PAPAKIV?$allocator@PAK@std@@@std@@YAPAPAKPAPAKIAAU?$_Wrap_alloc@V?$allocator@PAK@std@@@0@@Z PROC ; std::_Uninitialized_default_fill_n<unsigned long * *,unsigned int,std::allocator<unsigned long *> >, COMDAT

; 260  : 	{	// value-initialize _Count objects to raw _First, using _Al

	npad	2
	push	ebp
	mov	ebp, esp

; 251  : 	_CSTD memset(_First, 0, _Count * sizeof(_Iter_value_t<_FwdIt>));

	mov	eax, DWORD PTR __Count$[ebp]
	push	esi
	mov	esi, DWORD PTR __First$[ebp]
	push	edi
	lea	edi, DWORD PTR [eax*4]
	push	edi
	push	0
	push	esi
	call	_memset
	add	esp, 12					; 0000000cH

; 252  : 	return (_First + _Count);

	lea	eax, DWORD PTR [edi+esi]
	pop	edi
	pop	esi

; 261  : 	typedef _Iter_value_t<_FwdIt> _Ty;
; 262  : 	return (_Uninitialized_default_fill_n1(_First, _Count, _Al,
; 263  : 		_Conjunction_t<
; 264  : 			is_pointer<_FwdIt>,
; 265  : 			is_scalar<_Ty>,
; 266  : 			negation<is_volatile<_Ty>>,
; 267  : 			negation<is_member_pointer<_Ty>>,
; 268  : 			_Uses_default_construct<_Alloc, decltype(_Unfancy(_First))>>()));
; 269  : 	}

	pop	ebp
	ret	0
??$_Uninitialized_default_fill_n@PAPAKIV?$allocator@PAK@std@@@std@@YAPAPAKPAPAKIAAU?$_Wrap_alloc@V?$allocator@PAK@std@@@0@@Z ENDP ; std::_Uninitialized_default_fill_n<unsigned long * *,unsigned int,std::allocator<unsigned long *> >
_TEXT	ENDS
; Function compile flags: /Ogtp
; File c:\program files (x86)\microsoft visual studio\2017\community\vc\tools\msvc\14.10.25017\include\xmemory
; File c:\program files (x86)\microsoft visual studio\2017\community\vc\tools\msvc\14.10.25017\include\xutility
; File c:\program files (x86)\microsoft visual studio\2017\community\vc\tools\msvc\14.10.25017\include\xmemory
;	COMDAT ??$_Uninitialized_copy@PAPAKPAPAKV?$allocator@PAK@std@@@std@@YAPAPAKPAPAK00AAU?$_Wrap_alloc@V?$allocator@PAK@std@@@0@@Z
_TEXT	SEGMENT
__First$ = 8						; size = 4
__Last$ = 12						; size = 4
__Dest$ = 16						; size = 4
__Al$ = 20						; size = 4
??$_Uninitialized_copy@PAPAKPAPAKV?$allocator@PAK@std@@@std@@YAPAPAKPAPAK00AAU?$_Wrap_alloc@V?$allocator@PAK@std@@@0@@Z PROC ; std::_Uninitialized_copy<unsigned long * *,unsigned long * *,std::allocator<unsigned long *> >, COMDAT

; 117  : 	{	// copy [_First, _Last) to raw _Dest, using _Al

	npad	2
	push	ebp
	mov	ebp, esp
; File c:\program files (x86)\microsoft visual studio\2017\community\vc\tools\msvc\14.10.25017\include\xutility

; 2299 : 	const size_t _Count = _Last_ch - _First_ch;

	mov	eax, DWORD PTR __First$[ebp]
	push	esi

; 2300 : 	_CSTD memmove(_Dest_ch, _First_ch, _Count);

	mov	esi, DWORD PTR __Dest$[ebp]
	push	edi

; 2299 : 	const size_t _Count = _Last_ch - _First_ch;

	mov	edi, DWORD PTR __Last$[ebp]
	sub	edi, eax

; 2300 : 	_CSTD memmove(_Dest_ch, _First_ch, _Count);

	push	edi
	push	eax
	push	esi
	call	DWORD PTR __imp__memmove
	add	esp, 12					; 0000000cH

; 2301 : 	return (reinterpret_cast<_OutIt>(_Dest_ch + _Count));

	lea	eax, DWORD PTR [edi+esi]
	pop	edi
	pop	esi
; File c:\program files (x86)\microsoft visual studio\2017\community\vc\tools\msvc\14.10.25017\include\xmemory

; 127  : 	}

	pop	ebp
	ret	0
??$_Uninitialized_copy@PAPAKPAPAKV?$allocator@PAK@std@@@std@@YAPAPAKPAPAK00AAU?$_Wrap_alloc@V?$allocator@PAK@std@@@0@@Z ENDP ; std::_Uninitialized_copy<unsigned long * *,unsigned long * *,std::allocator<unsigned long *> >
_TEXT	ENDS
; Function compile flags: /Ogtp
; File c:\program files (x86)\microsoft visual studio\2017\community\vc\tools\msvc\14.10.25017\include\xmemory0
;	COMDAT ??$_Destroy_range@V?$allocator@V?$array@H$03@std@@@std@@PAV?$array@H$03@2@@std@@YAXPAV?$array@H$03@0@0AAU?$_Wrap_alloc@V?$allocator@V?$array@H$03@std@@@std@@@0@@Z
_TEXT	SEGMENT
__First$ = 8						; size = 4
__Last$ = 12						; size = 4
__Al$ = 16						; size = 4
??$_Destroy_range@V?$allocator@V?$array@H$03@std@@@std@@PAV?$array@H$03@2@@std@@YAXPAV?$array@H$03@0@0AAU?$_Wrap_alloc@V?$allocator@V?$array@H$03@std@@@std@@@0@@Z PROC ; std::_Destroy_range<std::allocator<std::array<int,4> >,std::array<int,4> *>, COMDAT

; 1215 : 		// note that this is an optimization for debug mode codegen;
; 1216 : 		// in release mode the BE removes all of this
; 1217 : 	typedef typename _Alloc::value_type _Val;
; 1218 : 	_Destroy_range1(_First, _Last, _Al, _Conjunction_t<
; 1219 : 		is_trivially_destructible<_Val>,
; 1220 : 		_Uses_default_destroy<_Alloc, _Val *>>());
; 1221 : 	}

	ret	0
??$_Destroy_range@V?$allocator@V?$array@H$03@std@@@std@@PAV?$array@H$03@2@@std@@YAXPAV?$array@H$03@0@0AAU?$_Wrap_alloc@V?$allocator@V?$array@H$03@std@@@std@@@0@@Z ENDP ; std::_Destroy_range<std::allocator<std::array<int,4> >,std::array<int,4> *>
_TEXT	ENDS
; Function compile flags: /Ogtp
; File c:\program files (x86)\microsoft visual studio\2017\community\vc\tools\msvc\14.10.25017\include\xutility
; File c:\program files (x86)\microsoft visual studio\2017\community\vc\tools\msvc\14.10.25017\include\deque
; File c:\program files (x86)\microsoft visual studio\2017\community\vc\tools\msvc\14.10.25017\include\xutility
;	COMDAT ??$?0$$V@?$_Compressed_pair@U?$_Wrap_alloc@V?$allocator@K@std@@@std@@V?$_Deque_val@U?$_Deque_simple_types@K@std@@@2@$00@std@@QAE@U_Zero_then_variadic_args_t@1@@Z
_TEXT	SEGMENT
___formal$ = 8						; size = 1
??$?0$$V@?$_Compressed_pair@U?$_Wrap_alloc@V?$allocator@K@std@@@std@@V?$_Deque_val@U?$_Deque_simple_types@K@std@@@2@$00@std@@QAE@U_Zero_then_variadic_args_t@1@@Z PROC ; std::_Compressed_pair<std::_Wrap_alloc<std::allocator<unsigned long> >,std::_Deque_val<std::_Deque_simple_types<unsigned long> >,1>::_Compressed_pair<std::_Wrap_alloc<std::allocator<unsigned long> >,std::_Deque_val<std::_Deque_simple_types<unsigned long> >,1><>, COMDAT
; _this$ = ecx

; 99   : 		: _Myproxy(0)

	mov	DWORD PTR [ecx], 0

; 304  : 		}

	mov	eax, ecx
; File c:\program files (x86)\microsoft visual studio\2017\community\vc\tools\msvc\14.10.25017\include\deque

; 752  : 		: _Map(),

	mov	DWORD PTR [ecx+4], 0

; 753  : 		_Mapsize(0),

	mov	DWORD PTR [ecx+8], 0

; 754  : 		_Myoff(0),

	mov	DWORD PTR [ecx+12], 0

; 755  : 		_Mysize(0)

	mov	DWORD PTR [ecx+16], 0
; File c:\program files (x86)\microsoft visual studio\2017\community\vc\tools\msvc\14.10.25017\include\xutility

; 304  : 		}

	ret	4
