; Listing generated by Microsoft (R) Optimizing Compiler Version 19.10.25019.0 

	TITLE	C:\Users\andon\Source\Repos\SpecialK\src\update\version.cpp
	.686P
	.XMM
	include listing.inc
	.model	flat

INCLUDELIB MSVCRT
INCLUDELIB OLDNAMES

PUBLIC	?_pAtlModule@ATL@@3PAVCAtlModule@1@A		; ATL::_pAtlModule
PUBLIC	_IID_IAxWinAmbientDispatchEx
PUBLIC	_LIBID_ATLLib
PUBLIC	_IID_IInternalConnection
PUBLIC	?dwInetCtx@@3KA					; dwInetCtx
PUBLIC	___pobjMapEntryFirst
PUBLIC	___pobjMapEntryLast
PUBLIC	?_pPerfRegFunc@ATL@@3P6AJPAUHINSTANCE__@@@ZA	; ATL::_pPerfRegFunc
PUBLIC	?_pPerfUnRegFunc@ATL@@3P6AJXZA			; ATL::_pPerfUnRegFunc
PUBLIC	?_AtlRegisterPerUser@ATL@@3_NA			; ATL::_AtlRegisterPerUser
PUBLIC	_CLSID_Registrar
PUBLIC	?_pModule@ATL@@3PAVCComModule@1@A		; ATL::_pModule
PUBLIC	_IID_IRegistrar
PUBLIC	_IID_IDocHostUIHandlerDispatch
PUBLIC	?chDirSep@ATL@@3_WB				; ATL::chDirSep
PUBLIC	?chRightBracket@ATL@@3_WB			; ATL::chRightBracket
PUBLIC	?chLeftBracket@ATL@@3_WB			; ATL::chLeftBracket
PUBLIC	?chQuote@ATL@@3_WB				; ATL::chQuote
PUBLIC	?chEquals@ATL@@3_WB				; ATL::chEquals
PUBLIC	?szStringVal@ATL@@3QB_WB			; ATL::szStringVal
PUBLIC	?multiszStringVal@ATL@@3QB_WB			; ATL::multiszStringVal
PUBLIC	?szDwordVal@ATL@@3QB_WB				; ATL::szDwordVal
PUBLIC	?szBinaryVal@ATL@@3QB_WB			; ATL::szBinaryVal
PUBLIC	?szValToken@ATL@@3QB_WB				; ATL::szValToken
PUBLIC	?szForceRemove@ATL@@3QB_WB			; ATL::szForceRemove
PUBLIC	?szNoRemove@ATL@@3QB_WB				; ATL::szNoRemove
PUBLIC	?szDelete@ATL@@3QB_WB				; ATL::szDelete
PUBLIC	_IID_IAxWinHostWindow
PUBLIC	?_pAtlAutoThreadModule@ATL@@3PAUIAtlAutoThreadModule@1@A ; ATL::_pAtlAutoThreadModule
PUBLIC	_IID_IAxWinHostWindowLic
PUBLIC	_IID_IAxWinAmbientDispatch
;	COMDAT ?_pAtlModule@ATL@@3PAVCAtlModule@1@A
_BSS	SEGMENT
?_pAtlModule@ATL@@3PAVCAtlModule@1@A DD 01H DUP (?)	; ATL::_pAtlModule
_BSS	ENDS
_BSS	SEGMENT
?dwInetCtx@@3KA DD 01H DUP (?)				; dwInetCtx
_BSS	ENDS
;	COMDAT ?_pPerfRegFunc@ATL@@3P6AJPAUHINSTANCE__@@@ZA
_BSS	SEGMENT
?_pPerfRegFunc@ATL@@3P6AJPAUHINSTANCE__@@@ZA DD 01H DUP (?) ; ATL::_pPerfRegFunc
_BSS	ENDS
;	COMDAT ?_pPerfUnRegFunc@ATL@@3P6AJXZA
_BSS	SEGMENT
?_pPerfUnRegFunc@ATL@@3P6AJXZA DD 01H DUP (?)		; ATL::_pPerfUnRegFunc
_BSS	ENDS
;	COMDAT ?_AtlRegisterPerUser@ATL@@3_NA
_BSS	SEGMENT
?_AtlRegisterPerUser@ATL@@3_NA DB 01H DUP (?)		; ATL::_AtlRegisterPerUser
_BSS	ENDS
;	COMDAT ?_pModule@ATL@@3PAVCComModule@1@A
_BSS	SEGMENT
?_pModule@ATL@@3PAVCComModule@1@A DD 01H DUP (?)	; ATL::_pModule
_BSS	ENDS
;	COMDAT ?_pAtlAutoThreadModule@ATL@@3PAUIAtlAutoThreadModule@1@A
_BSS	SEGMENT
?_pAtlAutoThreadModule@ATL@@3PAUIAtlAutoThreadModule@1@A DD 01H DUP (?) ; ATL::_pAtlAutoThreadModule
_BSS	ENDS
;	COMDAT _IID_IAxWinAmbientDispatch
CONST	SEGMENT
_IID_IAxWinAmbientDispatch DD 0b6ea2051H
	DW	048aH
	DW	011d1H
	DB	082H
	DB	0b9H
	DB	00H
	DB	0c0H
	DB	04fH
	DB	0b9H
	DB	094H
	DB	02eH
CONST	ENDS
;	COMDAT _IID_IAxWinHostWindowLic
CONST	SEGMENT
_IID_IAxWinHostWindowLic DD 03935bda8H
	DW	04ed9H
	DW	0495cH
	DB	086H
	DB	050H
	DB	0e0H
	DB	01fH
	DB	0c1H
	DB	0e3H
	DB	08aH
	DB	04bH
CONST	ENDS
;	COMDAT _IID_IAxWinHostWindow
CONST	SEGMENT
_IID_IAxWinHostWindow DD 0b6ea2050H
	DW	048aH
	DW	011d1H
	DB	082H
	DB	0b9H
	DB	00H
	DB	0c0H
	DB	04fH
	DB	0b9H
	DB	094H
	DB	02eH
CONST	ENDS
;	COMDAT ?szDelete@ATL@@3QB_WB
CONST	SEGMENT
?szDelete@ATL@@3QB_WB DD FLAT:$SG153070			; ATL::szDelete
CONST	ENDS
;	COMDAT ?szNoRemove@ATL@@3QB_WB
CONST	SEGMENT
?szNoRemove@ATL@@3QB_WB DD FLAT:$SG153068		; ATL::szNoRemove
CONST	ENDS
;	COMDAT ?szForceRemove@ATL@@3QB_WB
CONST	SEGMENT
?szForceRemove@ATL@@3QB_WB DD FLAT:$SG153066		; ATL::szForceRemove
CONST	ENDS
;	COMDAT ?szValToken@ATL@@3QB_WB
CONST	SEGMENT
?szValToken@ATL@@3QB_WB DD FLAT:$SG153064		; ATL::szValToken
CONST	ENDS
;	COMDAT ?szBinaryVal@ATL@@3QB_WB
CONST	SEGMENT
?szBinaryVal@ATL@@3QB_WB DD FLAT:$SG153062		; ATL::szBinaryVal
CONST	ENDS
;	COMDAT ?szDwordVal@ATL@@3QB_WB
CONST	SEGMENT
?szDwordVal@ATL@@3QB_WB DD FLAT:$SG153060		; ATL::szDwordVal
CONST	ENDS
;	COMDAT ?multiszStringVal@ATL@@3QB_WB
CONST	SEGMENT
?multiszStringVal@ATL@@3QB_WB DD FLAT:$SG153058		; ATL::multiszStringVal
CONST	ENDS
;	COMDAT ?szStringVal@ATL@@3QB_WB
CONST	SEGMENT
?szStringVal@ATL@@3QB_WB DD FLAT:$SG153056		; ATL::szStringVal
CONST	ENDS
;	COMDAT ?chEquals@ATL@@3_WB
CONST	SEGMENT
?chEquals@ATL@@3_WB DW 03dH				; ATL::chEquals
CONST	ENDS
;	COMDAT ?chQuote@ATL@@3_WB
CONST	SEGMENT
?chQuote@ATL@@3_WB DW 027H				; ATL::chQuote
CONST	ENDS
;	COMDAT ?chLeftBracket@ATL@@3_WB
CONST	SEGMENT
?chLeftBracket@ATL@@3_WB DW 07bH			; ATL::chLeftBracket
CONST	ENDS
;	COMDAT ?chRightBracket@ATL@@3_WB
CONST	SEGMENT
?chRightBracket@ATL@@3_WB DW 07dH			; ATL::chRightBracket
CONST	ENDS
;	COMDAT ?chDirSep@ATL@@3_WB
CONST	SEGMENT
?chDirSep@ATL@@3_WB DW 05cH				; ATL::chDirSep
CONST	ENDS
;	COMDAT _IID_IDocHostUIHandlerDispatch
CONST	SEGMENT
_IID_IDocHostUIHandlerDispatch DD 0425b5af0H
	DW	065f1H
	DW	011d1H
	DB	096H
	DB	011H
	DB	00H
	DB	00H
	DB	0f8H
	DB	01eH
	DB	0dH
	DB	0dH
CONST	ENDS
;	COMDAT _IID_IRegistrar
CONST	SEGMENT
_IID_IRegistrar DD 044ec053bH
	DW	0400fH
	DW	011d0H
	DB	09dH
	DB	0cdH
	DB	00H
	DB	0a0H
	DB	0c9H
	DB	03H
	DB	091H
	DB	0d3H
CONST	ENDS
;	COMDAT _CLSID_Registrar
CONST	SEGMENT
_CLSID_Registrar DD 044ec053aH
	DW	0400fH
	DW	011d0H
	DB	09dH
	DB	0cdH
	DB	00H
	DB	0a0H
	DB	0c9H
	DB	03H
	DB	091H
	DB	0d3H
CONST	ENDS
;	COMDAT ___pobjMapEntryLast
ATL$__z	SEGMENT
___pobjMapEntryLast DD 00H
ATL$__z	ENDS
;	COMDAT ___pobjMapEntryFirst
ATL$__a	SEGMENT
___pobjMapEntryFirst DD 00H
ATL$__a	ENDS
;	COMDAT _IID_IInternalConnection
CONST	SEGMENT
_IID_IInternalConnection DD 072ad0770H
	DW	06a9fH
	DW	011d1H
	DB	0bcH
	DB	0ecH
	DB	00H
	DB	060H
	DB	08H
	DB	08fH
	DB	044H
	DB	04eH
CONST	ENDS
;	COMDAT _LIBID_ATLLib
CONST	SEGMENT
_LIBID_ATLLib DD 044ec0535H
	DW	0400fH
	DW	011d0H
	DB	09dH
	DB	0cdH
	DB	00H
	DB	0a0H
	DB	0c9H
	DB	03H
	DB	091H
	DB	0d3H
CONST	ENDS
;	COMDAT _IID_IAxWinAmbientDispatchEx
CONST	SEGMENT
_IID_IAxWinAmbientDispatchEx DD 0b2d0778bH
	DW	0ac99H
	DW	04c58H
	DB	0a5H
	DB	0c8H
	DB	0e7H
	DB	072H
	DB	04eH
	DB	053H
	DB	016H
	DB	0b5H
CONST	ENDS
CONST	SEGMENT
$SG141329 DB	'a', 00H, 't', 00H, 'l', 00H, 'T', 00H, 'r', 00H, 'a', 00H
	DB	'c', 00H, 'e', 00H, 'C', 00H, 'O', 00H, 'M', 00H, 00H, 00H
$SG175153 DB	'w', 00H, 00H, 00H
$SG175154 DB	'l', 00H, 'o', 00H, 'g', 00H, 's', 00H, '/', 00H, 'i', 00H
	DB	'n', 00H, 's', 00H, 't', 00H, 'a', 00H, 'l', 00H, 'l', 00H, 'e'
	DB	00H, 'r', 00H, '.', 00H, 'l', 00H, 'o', 00H, 'g', 00H, 00H, 00H
	ORG $+2
$SG175160 DB	'U', 00H, 'p', 00H, 'd', 00H, 'a', 00H, 't', 00H, 'e', 00H
	DB	'.', 00H, 'U', 00H, 's', 00H, 'e', 00H, 'r', 00H, 00H, 00H
$SG175161 DB	'F', 00H, 'r', 00H, 'e', 00H, 'q', 00H, 'u', 00H, 'e', 00H
	DB	'n', 00H, 'c', 00H, 'y', 00H, 00H, 00H
$SG175162 DB	'F', 00H, 'r', 00H, 'e', 00H, 'q', 00H, 'u', 00H, 'e', 00H
	DB	'n', 00H, 'c', 00H, 'y', 00H, 00H, 00H
$SG175163 DB	'0', 00H, 00H, 00H
$SG175164 DB	'0', 00H, 00H, 00H
$SG175165 DB	'0', 00H, 00H, 00H
$SG175166 DB	'%', 00H, '3', 00H, '[', 00H, '^', 00H, 'h', 00H, ']', 00H
	DB	'h', 00H, 00H, 00H
$SG175168 DB	'6', 00H, 00H, 00H
$SG141376 DB	'a', 00H, 't', 00H, 'l', 00H, 'T', 00H, 'r', 00H, 'a', 00H
	DB	'c', 00H, 'e', 00H, 'Q', 00H, 'I', 00H, 00H, 00H
	ORG $+2
$SG175169 DB	'[', 00H, 'U', 00H, 'p', 00H, 'd', 00H, 'a', 00H, 't', 00H
	DB	'e', 00H, '.', 00H, 'U', 00H, 's', 00H, 'e', 00H, 'r', 00H, ']'
	DB	00H, 0aH, 00H, 'F', 00H, 'r', 00H, 'e', 00H, 'q', 00H, 'u', 00H
	DB	'e', 00H, 'n', 00H, 'c', 00H, 'y', 00H, '=', 00H, '6', 00H, 'h'
	DB	00H, 0aH, 00H, 0aH, 00H, 00H, 00H
	ORG $+2
$SG175172 DB	'n', 00H, 'e', 00H, 'v', 00H, 'e', 00H, 'r', 00H, 00H, 00H
$SG175174 DB	'R', 00H, 'e', 00H, 'm', 00H, 'i', 00H, 'n', 00H, 'd', 00H
	DB	'e', 00H, 'r', 00H, 00H, 00H
	ORG $+2
$SG175175 DB	'R', 00H, 'e', 00H, 'm', 00H, 'i', 00H, 'n', 00H, 'd', 00H
	DB	'e', 00H, 'r', 00H, 00H, 00H
	ORG $+2
$SG175176 DB	'R', 00H, 'e', 00H, 'm', 00H, 'i', 00H, 'n', 00H, 'd', 00H
	DB	'e', 00H, 'r', 00H, 00H, 00H
	ORG $+2
$SG175177 DB	'U', 00H, 'p', 00H, 'd', 00H, 'a', 00H, 't', 00H, 'e', 00H
	DB	'.', 00H, 'U', 00H, 's', 00H, 'e', 00H, 'r', 00H, 00H, 00H
$SG175179 DB	'R', 00H, 'e', 00H, 'm', 00H, 'i', 00H, 'n', 00H, 'd', 00H
	DB	'e', 00H, 'r', 00H, 00H, 00H
	ORG $+2
$SG175189 DB	'S', 00H, 'p', 00H, 'e', 00H, 'c', 00H, 'i', 00H, 'a', 00H
	DB	'l', 00H, ' ', 00H, 'K', 00H, ' ', 00H, 'A', 00H, 'u', 00H, 't'
	DB	00H, 'o', 00H, '-', 00H, 'U', 00H, 'p', 00H, 'd', 00H, 'a', 00H
	DB	't', 00H, 'e', 00H, 00H, 00H
$SG175180 DB	'[', 00H, 'V', 00H, 'e', 00H, 'r', 00H, 's', 00H, 'i', 00H
	DB	'o', 00H, 'n', 00H, '.', 00H, 'L', 00H, 'o', 00H, 'c', 00H, 'a'
	DB	00H, 'l', 00H, ']', 00H, 0aH, 00H, 'I', 00H, 'n', 00H, 's', 00H
	DB	't', 00H, 'a', 00H, 'l', 00H, 'l', 00H, 'P', 00H, 'a', 00H, 'c'
	DB	00H, 'k', 00H, 'a', 00H, 'g', 00H, 'e', 00H, '=', 00H, ' ', 00H
	DB	0aH, 00H, 'B', 00H, 'r', 00H, 'a', 00H, 'n', 00H, 'c', 00H, 'h'
	DB	00H, '=', 00H, 'L', 00H, 'a', 00H, 't', 00H, 'e', 00H, 's', 00H
	DB	't', 00H, 0aH, 00H, 0aH, 00H, '[', 00H, 'U', 00H, 'p', 00H, 'a'
	DB	00H, 't', 00H, 'e', 00H, '.', 00H, 'U', 00H, 's', 00H, 'e', 00H
	DB	'r', 00H, ']', 00H, 0aH, 00H, 'F', 00H, 'r', 00H, 'e', 00H, 'q'
	DB	00H, 'u', 00H, 'e', 00H, 'n', 00H, 'c', 00H, 'y', 00H, '=', 00H
	DB	'6', 00H, 'h', 00H, 0aH, 00H, 'R', 00H, 'e', 00H, 'm', 00H, 'i'
	DB	00H, 'n', 00H, 'd', 00H, 'e', 00H, 'r', 00H, '=', 00H, '0', 00H
	DB	0aH, 00H, 0aH, 00H, 00H, 00H
	ORG $+2
$SG175191 DB	'r', 00H, 'a', 00H, 'w', 00H, '.', 00H, 'g', 00H, 'i', 00H
	DB	't', 00H, 'h', 00H, 'u', 00H, 'b', 00H, 'u', 00H, 's', 00H, 'e'
	DB	00H, 'r', 00H, 'c', 00H, 'o', 00H, 'n', 00H, 't', 00H, 'e', 00H
	DB	'n', 00H, 't', 00H, '.', 00H, 'c', 00H, 'o', 00H, 'm', 00H, 00H
	DB	00H
$SG175195 DB	'S', 00H, 'p', 00H, 'e', 00H, 'c', 00H, 'i', 00H, 'a', 00H
	DB	'l', 00H, 'K', 00H, 00H, 00H
	ORG $+2
$SG175196 DB	'/', 00H, 'K', 00H, 'a', 00H, 'l', 00H, 'd', 00H, 'a', 00H
	DB	'i', 00H, 'e', 00H, 'n', 00H, '/', 00H, '%', 00H, 's', 00H, '/'
	DB	00H, '0', 00H, '.', 00H, '8', 00H, '.', 00H, 'x', 00H, '/', 00H
	DB	'v', 00H, 'e', 00H, 'r', 00H, 's', 00H, 'i', 00H, 'o', 00H, 'n'
	DB	00H, '.', 00H, 'i', 00H, 'n', 00H, 'i', 00H, 00H, 00H
	ORG $+2
$SG175199 DB	'/', 00H, 00H, 00H
$SG175200 DB	'/', 00H, 'K', 00H, 'a', 00H, 'l', 00H, 'd', 00H, 'a', 00H
	DB	'i', 00H, 'e', 00H, 'n', 00H, '/', 00H, '%', 00H, 's', 00H, '/'
	DB	00H, 'v', 00H, 'e', 00H, 'r', 00H, 's', 00H, 'i', 00H, 'o', 00H
	DB	'n', 00H, '.', 00H, 'i', 00H, 'n', 00H, 'i', 00H, 00H, 00H
	ORG $+2
$SG175201 DB	'/', 00H, 'K', 00H, 'a', 00H, 'l', 00H, 'd', 00H, 'a', 00H
	DB	'i', 00H, 'e', 00H, 'n', 00H, '/', 00H, '%', 00H, 's', 00H, '/'
	DB	00H, 'm', 00H, 'a', 00H, 's', 00H, 't', 00H, 'e', 00H, 'r', 00H
	DB	'/', 00H, 'v', 00H, 'e', 00H, 'r', 00H, 's', 00H, 'i', 00H, 'o'
	DB	00H, 'n', 00H, '.', 00H, 'i', 00H, 'n', 00H, 'i', 00H, 00H, 00H
$SG175202 DB	'*', 00H, '/', 00H, '*', 00H, 00H, 00H
$SG175204 DB	'H', 00H, 'T', 00H, 'T', 00H, 'P', 00H, '/', 00H, '1', 00H
	DB	'.', 00H, '1', 00H, 00H, 00H
	ORG $+2
$SG141423 DB	'a', 00H, 't', 00H, 'l', 00H, 'T', 00H, 'r', 00H, 'a', 00H
	DB	'c', 00H, 'e', 00H, 'R', 00H, 'e', 00H, 'g', 00H, 'i', 00H, 's'
	DB	00H, 't', 00H, 'r', 00H, 'a', 00H, 'r', 00H, 00H, 00H
$SG155779 DB	00H, 00H
	ORG $+2
$SG176270 DB	'V', 00H, 'e', 00H, 'r', 00H, 's', 00H, 'i', 00H, 'o', 00H
	DB	'n', 00H, '.', 00H, 00H, 00H
	ORG $+2
$SG176271 DB	'V', 00H, 'e', 00H, 'r', 00H, 's', 00H, 'i', 00H, 'o', 00H
	DB	'n', 00H, '.', 00H, '%', 00H, 's', 00H, 00H, 00H
	ORG $+2
$SG175248 DB	'V', 00H, 'e', 00H, 'r', 00H, 's', 00H, 'i', 00H, 'o', 00H
	DB	'n', 00H, '.', 00H, 'L', 00H, 'o', 00H, 'c', 00H, 'a', 00H, 'l'
	DB	00H, 00H, 00H
$SG175249 DB	'B', 00H, 'r', 00H, 'a', 00H, 'n', 00H, 'c', 00H, 'h', 00H
	DB	00H, 00H
	ORG $+2
$SG175250 DB	'V', 00H, 'e', 00H, 'r', 00H, 's', 00H, 'i', 00H, 'o', 00H
	DB	'n', 00H, '.', 00H, '%', 00H, 's', 00H, 00H, 00H
	ORG $+2
$SG153746 DB	'A', 00H, 'p', 00H, 'p', 00H, 'I', 00H, 'D', 00H, 00H, 00H
$SG153747 DB	'C', 00H, 'L', 00H, 'S', 00H, 'I', 00H, 'D', 00H, 00H, 00H
$SG175252 DB	'I', 00H, 'n', 00H, 's', 00H, 't', 00H, 'a', 00H, 'l', 00H
	DB	'l', 00H, 'P', 00H, 'a', 00H, 'c', 00H, 'k', 00H, 'a', 00H, 'g'
	DB	00H, 'e', 00H, 00H, 00H
	ORG $+2
$SG153748 DB	'C', 00H, 'o', 00H, 'm', 00H, 'p', 00H, 'o', 00H, 'n', 00H
	DB	'e', 00H, 'n', 00H, 't', 00H, ' ', 00H, 'C', 00H, 'a', 00H, 't'
	DB	00H, 'e', 00H, 'g', 00H, 'o', 00H, 'r', 00H, 'i', 00H, 'e', 00H
	DB	's', 00H, 00H, 00H
	ORG $+2
$SG175253 DB	'%', 00H, '1', 00H, '2', 00H, '8', 00H, '[', 00H, '^', 00H
	DB	',', 00H, ']', 00H, ',', 00H, '%', 00H, 'l', 00H, 'i', 00H, 00H
	DB	00H
	ORG $+2
$SG153749 DB	'F', 00H, 'i', 00H, 'l', 00H, 'e', 00H, 'T', 00H, 'y', 00H
	DB	'p', 00H, 'e', 00H, 00H, 00H
	ORG $+2
$SG175254 DB	'I', 00H, 'n', 00H, 'v', 00H, 'a', 00H, 'l', 00H, 'i', 00H
	DB	'd', 00H, 00H, 00H
$SG153750 DB	'I', 00H, 'n', 00H, 't', 00H, 'e', 00H, 'r', 00H, 'f', 00H
	DB	'a', 00H, 'c', 00H, 'e', 00H, 00H, 00H
$SG175255 DB	'I', 00H, 'n', 00H, 'v', 00H, 'a', 00H, 'l', 00H, 'i', 00H
	DB	'd', 00H, 00H, 00H
$SG153751 DB	'H', 00H, 'a', 00H, 'r', 00H, 'd', 00H, 'w', 00H, 'a', 00H
	DB	'r', 00H, 'e', 00H, 00H, 00H
	ORG $+2
$SG153752 DB	'M', 00H, 'i', 00H, 'm', 00H, 'e', 00H, 00H, 00H
	ORG $+2
$SG153753 DB	'S', 00H, 'A', 00H, 'M', 00H, 00H, 00H
$SG153754 DB	'S', 00H, 'E', 00H, 'C', 00H, 'U', 00H, 'R', 00H, 'I', 00H
	DB	'T', 00H, 'Y', 00H, 00H, 00H
	ORG $+2
$SG153755 DB	'S', 00H, 'Y', 00H, 'S', 00H, 'T', 00H, 'E', 00H, 'M', 00H
	DB	00H, 00H
	ORG $+2
$SG153756 DB	'S', 00H, 'o', 00H, 'f', 00H, 't', 00H, 'w', 00H, 'a', 00H
	DB	'r', 00H, 'e', 00H, 00H, 00H
	ORG $+2
$SG153757 DB	'T', 00H, 'y', 00H, 'p', 00H, 'e', 00H, 'L', 00H, 'i', 00H
	DB	'b', 00H, 00H, 00H
$SG141470 DB	'a', 00H, 't', 00H, 'l', 00H, 'T', 00H, 'r', 00H, 'a', 00H
	DB	'c', 00H, 'e', 00H, 'R', 00H, 'e', 00H, 'f', 00H, 'c', 00H, 'o'
	DB	00H, 'u', 00H, 'n', 00H, 't', 00H, 00H, 00H
	ORG $+2
$SG175279 DB	'V', 00H, 'e', 00H, 'r', 00H, 's', 00H, 'i', 00H, 'o', 00H
	DB	'n', 00H, '.', 00H, 'L', 00H, 'o', 00H, 'c', 00H, 'a', 00H, 'l'
	DB	00H, 00H, 00H
$SG175280 DB	'B', 00H, 'r', 00H, 'a', 00H, 'n', 00H, 'c', 00H, 'h', 00H
	DB	00H, 00H
	ORG $+2
$SG175281 DB	'V', 00H, 'e', 00H, 'r', 00H, 's', 00H, 'i', 00H, 'o', 00H
	DB	'n', 00H, '.', 00H, 'L', 00H, 'o', 00H, 'c', 00H, 'a', 00H, 'l'
	DB	00H, 00H, 00H
$SG175282 DB	'I', 00H, 'n', 00H, 's', 00H, 't', 00H, 'a', 00H, 'l', 00H
	DB	'l', 00H, 'P', 00H, 'a', 00H, 'c', 00H, 'k', 00H, 'a', 00H, 'g'
	DB	00H, 'e', 00H, 00H, 00H
	ORG $+2
$SG175283 DB	'%', 00H, '1', 00H, '2', 00H, '8', 00H, '[', 00H, '^', 00H
	DB	',', 00H, ']', 00H, ',', 00H, '%', 00H, 'l', 00H, 'i', 00H, 00H
	DB	00H
	ORG $+2
$SG176315 DB	'U', 00H, 'p', 00H, 'd', 00H, 'a', 00H, 't', 00H, 'e', 00H
	DB	'.', 00H, 'U', 00H, 's', 00H, 'e', 00H, 'r', 00H, 00H, 00H
$SG176316 DB	'F', 00H, 'r', 00H, 'e', 00H, 'q', 00H, 'u', 00H, 'e', 00H
	DB	'n', 00H, 'c', 00H, 'y', 00H, 00H, 00H
$SG176317 DB	'F', 00H, 'r', 00H, 'e', 00H, 'q', 00H, 'u', 00H, 'e', 00H
	DB	'n', 00H, 'c', 00H, 'y', 00H, 00H, 00H
$SG176318 DB	'0', 00H, 00H, 00H
$SG176319 DB	'0', 00H, 00H, 00H
$SG176320 DB	'0', 00H, 00H, 00H
$SG176321 DB	'%', 00H, '3', 00H, '[', 00H, '^', 00H, 'h', 00H, ']', 00H
	DB	'h', 00H, 00H, 00H
$SG176323 DB	'6', 00H, 00H, 00H
$SG176324 DB	'[', 00H, 'U', 00H, 'p', 00H, 'd', 00H, 'a', 00H, 't', 00H
	DB	'e', 00H, '.', 00H, 'U', 00H, 's', 00H, 'e', 00H, 'r', 00H, ']'
	DB	00H, 0aH, 00H, 'F', 00H, 'r', 00H, 'e', 00H, 'q', 00H, 'u', 00H
	DB	'e', 00H, 'n', 00H, 'c', 00H, 'y', 00H, '=', 00H, '6', 00H, 'h'
	DB	00H, 0aH, 00H, 0aH, 00H, 00H, 00H
	ORG $+2
$SG176326 DB	'n', 00H, 'e', 00H, 'v', 00H, 'e', 00H, 'r', 00H, 00H, 00H
$SG141517 DB	'a', 00H, 't', 00H, 'l', 00H, 'T', 00H, 'r', 00H, 'a', 00H
	DB	'c', 00H, 'e', 00H, 'W', 00H, 'i', 00H, 'n', 00H, 'd', 00H, 'o'
	DB	00H, 'w', 00H, 'i', 00H, 'n', 00H, 'g', 00H, 00H, 00H
$SG175310 DB	' ', 00H, 00H, 00H
$SG176342 DB	'U', 00H, 'p', 00H, 'd', 00H, 'a', 00H, 't', 00H, 'e', 00H
	DB	'.', 00H, 'U', 00H, 's', 00H, 'e', 00H, 'r', 00H, 00H, 00H
$SG176345 DB	'%', 00H, 'l', 00H, 'l', 00H, 'u', 00H, 'h', 00H, 00H, 00H
$SG176346 DB	'n', 00H, 'e', 00H, 'v', 00H, 'e', 00H, 'r', 00H, 00H, 00H
$SG176349 DB	'F', 00H, 'r', 00H, 'e', 00H, 'q', 00H, 'u', 00H, 'e', 00H
	DB	'n', 00H, 'c', 00H, 'y', 00H, 00H, 00H
$SG176350 DB	'F', 00H, 'r', 00H, 'e', 00H, 'q', 00H, 'u', 00H, 'e', 00H
	DB	'n', 00H, 'c', 00H, 'y', 00H, 00H, 00H
$SG176351 DB	'F', 00H, 'r', 00H, 'e', 00H, 'q', 00H, 'u', 00H, 'e', 00H
	DB	'n', 00H, 'c', 00H, 'y', 00H, 00H, 00H
$SG176364 DB	'U', 00H, 'p', 00H, 'd', 00H, 'a', 00H, 't', 00H, 'e', 00H
	DB	'.', 00H, 'U', 00H, 's', 00H, 'e', 00H, 'r', 00H, 00H, 00H
$SG176366 DB	'U', 00H, 'p', 00H, 'd', 00H, 'a', 00H, 't', 00H, 'e', 00H
	DB	'.', 00H, 'U', 00H, 's', 00H, 'e', 00H, 'r', 00H, 00H, 00H
$SG176367 DB	'R', 00H, 'e', 00H, 'm', 00H, 'i', 00H, 'n', 00H, 'd', 00H
	DB	'e', 00H, 'r', 00H, 00H, 00H
	ORG $+2
$SG176368 DB	'U', 00H, 'p', 00H, 'd', 00H, 'a', 00H, 't', 00H, 'e', 00H
	DB	'.', 00H, 'U', 00H, 's', 00H, 'e', 00H, 'r', 00H, 00H, 00H
$SG176369 DB	'R', 00H, 'e', 00H, 'm', 00H, 'i', 00H, 'n', 00H, 'd', 00H
	DB	'e', 00H, 'r', 00H, 00H, 00H
	ORG $+2
$SG176370 DB	'U', 00H, 'p', 00H, 'd', 00H, 'a', 00H, 't', 00H, 'e', 00H
	DB	'.', 00H, 'U', 00H, 's', 00H, 'e', 00H, 'r', 00H, 00H, 00H
$SG176371 DB	'0', 00H, 00H, 00H
$SG176372 DB	'R', 00H, 'e', 00H, 'm', 00H, 'i', 00H, 'n', 00H, 'd', 00H
	DB	'e', 00H, 'r', 00H, 00H, 00H
	ORG $+2
$SG141564 DB	'a', 00H, 't', 00H, 'l', 00H, 'T', 00H, 'r', 00H, 'a', 00H
	DB	'c', 00H, 'e', 00H, 'C', 00H, 'o', 00H, 'n', 00H, 't', 00H, 'r'
	DB	00H, 'o', 00H, 'l', 00H, 's', 00H, 00H, 00H
	ORG $+2
$SG176385 DB	'%', 00H, 'h', 00H, 's', 00H, 00H, 00H
$SG176386 DB	'V', 00H, 'e', 00H, 'r', 00H, 's', 00H, 'i', 00H, 'o', 00H
	DB	'n', 00H, '.', 00H, 'L', 00H, 'o', 00H, 'c', 00H, 'a', 00H, 'l'
	DB	00H, 00H, 00H
$SG176387 DB	'B', 00H, 'r', 00H, 'a', 00H, 'n', 00H, 'c', 00H, 'h', 00H
	DB	00H, 00H
	ORG $+2
$SG176388 DB	'V', 00H, 'e', 00H, 'r', 00H, 's', 00H, 'i', 00H, 'o', 00H
	DB	'n', 00H, '.', 00H, 'L', 00H, 'o', 00H, 'c', 00H, 'a', 00H, 'l'
	DB	00H, 00H, 00H
$SG176389 DB	'I', 00H, 'n', 00H, 's', 00H, 't', 00H, 'a', 00H, 'l', 00H
	DB	'l', 00H, 'P', 00H, 'a', 00H, 'c', 00H, 'k', 00H, 'a', 00H, 'g'
	DB	00H, 'e', 00H, 00H, 00H
	ORG $+2
$SG176390 DB	'P', 00H, 'e', 00H, 'n', 00H, 'd', 00H, 'i', 00H, 'n', 00H
	DB	'g', 00H, 'B', 00H, 'r', 00H, 'a', 00H, 'n', 00H, 'c', 00H, 'h'
	DB	00H, 'M', 00H, 'i', 00H, 'g', 00H, 'r', 00H, 'a', 00H, 't', 00H
	DB	'i', 00H, 'o', 00H, 'n', 00H, ',', 00H, '0', 00H, 00H, 00H
	ORG $+2
$SG141611 DB	'a', 00H, 't', 00H, 'l', 00H, 'T', 00H, 'r', 00H, 'a', 00H
	DB	'c', 00H, 'e', 00H, 'H', 00H, 'o', 00H, 's', 00H, 't', 00H, 'i'
	DB	00H, 'n', 00H, 'g', 00H, 00H, 00H
$SG141658 DB	'a', 00H, 't', 00H, 'l', 00H, 'T', 00H, 'r', 00H, 'a', 00H
	DB	'c', 00H, 'e', 00H, 'D', 00H, 'B', 00H, 'C', 00H, 'l', 00H, 'i'
	DB	00H, 'e', 00H, 'n', 00H, 't', 00H, 00H, 00H
	ORG $+2
$SG176497 DB	'I', 00H, 'n', 00H, 'v', 00H, 'a', 00H, 'l', 00H, 'i', 00H
	DB	'd', 00H, 00H, 00H
$SG176498 DB	'I', 00H, 'n', 00H, 'v', 00H, 'a', 00H, 'l', 00H, 'i', 00H
	DB	'd', 00H, 00H, 00H
$SG176499 DB	'I', 00H, 'n', 00H, 'v', 00H, 'a', 00H, 'l', 00H, 'i', 00H
	DB	'd', 00H, 00H, 00H
$SG176500 DB	'I', 00H, 'n', 00H, 'v', 00H, 'a', 00H, 'l', 00H, 'i', 00H
	DB	'd', 00H, 00H, 00H
$SG176501 DB	'I', 00H, 'n', 00H, 'v', 00H, 'a', 00H, 'l', 00H, 'i', 00H
	DB	'd', 00H, 00H, 00H
$SG176502 DB	'N', 00H, 'o', 00H, 't', 00H, 'U', 00H, 's', 00H, 'e', 00H
	DB	'd', 00H, 00H, 00H
$SG176503 DB	'I', 00H, 'n', 00H, 'v', 00H, 'a', 00H, 'l', 00H, 'i', 00H
	DB	'd', 00H, 00H, 00H
$SG176506 DB	'V', 00H, 'e', 00H, 'r', 00H, 's', 00H, 'i', 00H, 'o', 00H
	DB	'n', 00H, '.', 00H, '%', 00H, 'h', 00H, 's', 00H, 00H, 00H
$SG176508 DB	'T', 00H, 'i', 00H, 't', 00H, 'l', 00H, 'e', 00H, 00H, 00H
$SG176509 DB	'R', 00H, 'e', 00H, 'l', 00H, 'e', 00H, 'a', 00H, 's', 00H
	DB	'e', 00H, 'N', 00H, 'o', 00H, 't', 00H, 'e', 00H, 's', 00H, 00H
	DB	00H
	ORG $+2
$SG176510 DB	'D', 00H, 'e', 00H, 's', 00H, 'c', 00H, 'r', 00H, 'i', 00H
	DB	'p', 00H, 't', 00H, 'i', 00H, 'o', 00H, 'n', 00H, 00H, 00H
$SG176511 DB	'I', 00H, 'n', 00H, 's', 00H, 't', 00H, 'a', 00H, 'l', 00H
	DB	'l', 00H, 'P', 00H, 'a', 00H, 'c', 00H, 'k', 00H, 'a', 00H, 'g'
	DB	00H, 'e', 00H, 00H, 00H
	ORG $+2
$SG176512 DB	'N', 00H, 'o', 00H, 't', 00H, ' ', 00H, 'I', 00H, 'm', 00H
	DB	'p', 00H, 'l', 00H, 'e', 00H, 'm', 00H, 'e', 00H, 'n', 00H, 't'
	DB	00H, 'e', 00H, 'd', 00H, 00H, 00H
$SG176513 DB	'B', 00H, 'r', 00H, 'a', 00H, 'n', 00H, 'c', 00H, 'h', 00H
	DB	'D', 00H, 'e', 00H, 's', 00H, 'c', 00H, 'r', 00H, 'i', 00H, 'p'
	DB	00H, 't', 00H, 'i', 00H, 'o', 00H, 'n', 00H, 00H, 00H
$SG141705 DB	'a', 00H, 't', 00H, 'l', 00H, 'T', 00H, 'r', 00H, 'a', 00H
	DB	'c', 00H, 'e', 00H, 'D', 00H, 'B', 00H, 'P', 00H, 'r', 00H, 'o'
	DB	00H, 'v', 00H, 'i', 00H, 'd', 00H, 'e', 00H, 'r', 00H, 00H, 00H
	ORG $+2
$SG141752 DB	'a', 00H, 't', 00H, 'l', 00H, 'T', 00H, 'r', 00H, 'a', 00H
	DB	'c', 00H, 'e', 00H, 'S', 00H, 'n', 00H, 'a', 00H, 'p', 00H, 'i'
	DB	00H, 'n', 00H, 00H, 00H
	ORG $+2
$SG153056 DB	'S', 00H, 00H, 00H
$SG153058 DB	'M', 00H, 00H, 00H
$SG153060 DB	'D', 00H, 00H, 00H
$SG153062 DB	'B', 00H, 00H, 00H
$SG141799 DB	'a', 00H, 't', 00H, 'l', 00H, 'T', 00H, 'r', 00H, 'a', 00H
	DB	'c', 00H, 'e', 00H, 'N', 00H, 'o', 00H, 't', 00H, 'I', 00H, 'm'
	DB	00H, 'p', 00H, 'l', 00H, 00H, 00H
$SG153064 DB	'V', 00H, 'a', 00H, 'l', 00H, 00H, 00H
$SG153066 DB	'F', 00H, 'o', 00H, 'r', 00H, 'c', 00H, 'e', 00H, 'R', 00H
	DB	'e', 00H, 'm', 00H, 'o', 00H, 'v', 00H, 'e', 00H, 00H, 00H
$SG153068 DB	'N', 00H, 'o', 00H, 'R', 00H, 'e', 00H, 'm', 00H, 'o', 00H
	DB	'v', 00H, 'e', 00H, 00H, 00H
	ORG $+2
$SG153070 DB	'D', 00H, 'e', 00H, 'l', 00H, 'e', 00H, 't', 00H, 'e', 00H
	DB	00H, 00H
	ORG $+2
$SG141846 DB	'a', 00H, 't', 00H, 'l', 00H, 'T', 00H, 'r', 00H, 'a', 00H
	DB	'c', 00H, 'e', 00H, 'A', 00H, 'l', 00H, 'l', 00H, 'o', 00H, 'c'
	DB	00H, 'a', 00H, 't', 00H, 'i', 00H, 'o', 00H, 'n', 00H, 00H, 00H
	ORG $+2
$SG141893 DB	'a', 00H, 't', 00H, 'l', 00H, 'T', 00H, 'r', 00H, 'a', 00H
	DB	'c', 00H, 'e', 00H, 'E', 00H, 'x', 00H, 'c', 00H, 'e', 00H, 'p'
	DB	00H, 't', 00H, 'i', 00H, 'o', 00H, 'n', 00H, 00H, 00H
$SG141940 DB	'a', 00H, 't', 00H, 'l', 00H, 'T', 00H, 'r', 00H, 'a', 00H
	DB	'c', 00H, 'e', 00H, 'T', 00H, 'i', 00H, 'm', 00H, 'e', 00H, 00H
	DB	00H
	ORG $+2
$SG141987 DB	'a', 00H, 't', 00H, 'l', 00H, 'T', 00H, 'r', 00H, 'a', 00H
	DB	'c', 00H, 'e', 00H, 'C', 00H, 'a', 00H, 'c', 00H, 'h', 00H, 'e'
	DB	00H, 00H, 00H
$SG142034 DB	'a', 00H, 't', 00H, 'l', 00H, 'T', 00H, 'r', 00H, 'a', 00H
	DB	'c', 00H, 'e', 00H, 'S', 00H, 't', 00H, 'e', 00H, 'n', 00H, 'c'
	DB	00H, 'i', 00H, 'l', 00H, 00H, 00H
$SG142081 DB	'a', 00H, 't', 00H, 'l', 00H, 'T', 00H, 'r', 00H, 'a', 00H
	DB	'c', 00H, 'e', 00H, 'S', 00H, 't', 00H, 'r', 00H, 'i', 00H, 'n'
	DB	00H, 'g', 00H, 00H, 00H
	ORG $+2
$SG142128 DB	'a', 00H, 't', 00H, 'l', 00H, 'T', 00H, 'r', 00H, 'a', 00H
	DB	'c', 00H, 'e', 00H, 'M', 00H, 'a', 00H, 'p', 00H, 00H, 00H
$SG142133 DB	'a', 00H, 't', 00H, 'l', 00H, 'T', 00H, 'r', 00H, 'a', 00H
	DB	'c', 00H, 'e', 00H, 'U', 00H, 't', 00H, 'i', 00H, 'l', 00H, 00H
	DB	00H
	ORG $+2
$SG174937 DB	'V', 00H, 'e', 00H, 'r', 00H, 's', 00H, 'i', 00H, 'o', 00H
	DB	'n', 00H, '\', 00H, 00H, 00H
	ORG $+2
$SG174938 DB	'V', 00H, 'e', 00H, 'r', 00H, 's', 00H, 'i', 00H, 'o', 00H
	DB	'n', 00H, '\', 00H, 00H, 00H
	ORG $+2
$SG174939 DB	'\', 00H, 'M', 00H, 'y', 00H, ' ', 00H, 'M', 00H, 'o', 00H
	DB	'd', 00H, 's', 00H, '\', 00H, 'S', 00H, 'p', 00H, 'e', 00H, 'c'
	DB	00H, 'i', 00H, 'a', 00H, 'l', 00H, 'K', 00H, '\', 00H, 'V', 00H
	DB	'e', 00H, 'r', 00H, 's', 00H, 'i', 00H, 'o', 00H, 'n', 00H, '\'
	DB	00H, 00H, 00H
	ORG $+2
$SG174948 DB	'\', 00H, 'M', 00H, 'y', 00H, ' ', 00H, 'M', 00H, 'o', 00H
	DB	'd', 00H, 's', 00H, '\', 00H, 'S', 00H, 'p', 00H, 'e', 00H, 'c'
	DB	00H, 'i', 00H, 'a', 00H, 'l', 00H, 'K', 00H, '\', 00H, 00H, 00H
	ORG $+2
$SG142180 DB	'a', 00H, 't', 00H, 'l', 00H, 'T', 00H, 'r', 00H, 'a', 00H
	DB	'c', 00H, 'e', 00H, 'S', 00H, 'e', 00H, 'c', 00H, 'u', 00H, 'r'
	DB	00H, 'i', 00H, 't', 00H, 'y', 00H, 00H, 00H
	ORG $+2
$SG174984 DB	'i', 00H, 'n', 00H, 's', 00H, 't', 00H, 'a', 00H, 'l', 00H
	DB	'l', 00H, 'e', 00H, 'd', 00H, '.', 00H, 'i', 00H, 'n', 00H, 'i'
	DB	00H, 00H, 00H
$SG174992 DB	'r', 00H, 'e', 00H, 'p', 00H, 'o', 00H, 's', 00H, 'i', 00H
	DB	't', 00H, 'o', 00H, 'r', 00H, 'y', 00H, '.', 00H, 'i', 00H, 'n'
	DB	00H, 'i', 00H, 00H, 00H
	ORG $+2
$SG142227 DB	'a', 00H, 't', 00H, 'l', 00H, 'T', 00H, 'r', 00H, 'a', 00H
	DB	'c', 00H, 'e', 00H, 'S', 00H, 'y', 00H, 'n', 00H, 'c', 00H, 00H
	DB	00H
	ORG $+2
$SG142274 DB	'a', 00H, 't', 00H, 'l', 00H, 'T', 00H, 'r', 00H, 'a', 00H
	DB	'c', 00H, 'e', 00H, 'I', 00H, 'S', 00H, 'A', 00H, 'P', 00H, 'I'
	DB	00H, 00H, 00H
$SG141258 DB	'a', 00H, 't', 00H, 'l', 00H, 'T', 00H, 'r', 00H, 'a', 00H
	DB	'c', 00H, 'e', 00H, 'G', 00H, 'e', 00H, 'n', 00H, 'e', 00H, 'r'
	DB	00H, 'a', 00H, 'l', 00H, 00H, 00H
CONST	ENDS
PUBLIC	?swprintf@@YAHQA_WQB_WZZ			; swprintf
PUBLIC	??$__vcrt_va_start_verify_argument_type@QB_W@@YAXXZ ; __vcrt_va_start_verify_argument_type<wchar_t const * const>
PUBLIC	?_Hash_seq@std@@YAIPBEI@Z			; std::_Hash_seq
PUBLIC	_wmemcmp
PUBLIC	_wmemcpy
PUBLIC	_wmemmove
PUBLIC	??2@YAPAXIPAX@Z					; operator new
PUBLIC	??3@YAXPAX0@Z					; operator delete
PUBLIC	?compare@?$char_traits@_W@std@@SAHQB_W0I@Z	; std::char_traits<wchar_t>::compare
PUBLIC	?length@?$char_traits@_W@std@@SAIQB_W@Z		; std::char_traits<wchar_t>::length
PUBLIC	?copy@?$char_traits@_W@std@@SAPA_WQA_WQB_WI@Z	; std::char_traits<wchar_t>::copy
PUBLIC	?move@?$char_traits@_W@std@@SAPA_WQA_WQB_WI@Z	; std::char_traits<wchar_t>::move
PUBLIC	?assign@?$char_traits@_W@std@@SAXAA_WAB_W@Z	; std::char_traits<wchar_t>::assign
PUBLIC	?length@?$char_traits@D@std@@SAIQBD@Z		; std::char_traits<char>::length
PUBLIC	?copy@?$char_traits@D@std@@SAPADQADQBDI@Z	; std::char_traits<char>::copy
PUBLIC	?move@?$char_traits@D@std@@SAPADQADQBDI@Z	; std::char_traits<char>::move
PUBLIC	?assign@?$char_traits@D@std@@SAXAADABD@Z	; std::char_traits<char>::assign
PUBLIC	?_Orphan_all@_Container_base0@std@@QAEXXZ	; std::_Container_base0::_Orphan_all
PUBLIC	?_Swap_all@_Container_base0@std@@QAEXAAU12@@Z	; std::_Container_base0::_Swap_all
PUBLIC	?_Adopt@_Iterator_base0@std@@QAEXPBX@Z		; std::_Iterator_base0::_Adopt
PUBLIC	?_Getcont@_Iterator_base0@std@@QBEPBU_Container_base0@2@XZ ; std::_Iterator_base0::_Getcont
PUBLIC	?_Allocate@std@@YAPAXII_N@Z			; std::_Allocate
PUBLIC	?_Deallocate@std@@YAXPAXII@Z			; std::_Deallocate
PUBLIC	??0?$allocator@D@std@@QAE@XZ			; std::allocator<char>::allocator<char>
PUBLIC	??0?$allocator@D@std@@QAE@ABV01@@Z		; std::allocator<char>::allocator<char>
PUBLIC	?deallocate@?$allocator@D@std@@QAEXPADI@Z	; std::allocator<char>::deallocate
PUBLIC	?allocate@?$allocator@D@std@@QAEPADI@Z		; std::allocator<char>::allocate
PUBLIC	?max_size@?$allocator@D@std@@QBEIXZ		; std::allocator<char>::max_size
PUBLIC	?max_size@?$allocator_traits@V?$allocator@D@std@@@std@@SAIABV?$allocator@D@2@@Z ; std::allocator_traits<std::allocator<char> >::max_size
PUBLIC	??0?$_Wrap_alloc@V?$allocator@D@std@@@std@@QAE@XZ ; std::_Wrap_alloc<std::allocator<char> >::_Wrap_alloc<std::allocator<char> >
PUBLIC	??0?$_Wrap_alloc@V?$allocator@D@std@@@std@@QAE@$$QAU01@@Z ; std::_Wrap_alloc<std::allocator<char> >::_Wrap_alloc<std::allocator<char> >
PUBLIC	?allocate@?$_Wrap_alloc@V?$allocator@D@std@@@std@@QAEPADI@Z ; std::_Wrap_alloc<std::allocator<char> >::allocate
PUBLIC	?deallocate@?$_Wrap_alloc@V?$allocator@D@std@@@std@@QAEXPADI@Z ; std::_Wrap_alloc<std::allocator<char> >::deallocate
PUBLIC	?max_size@?$_Wrap_alloc@V?$allocator@D@std@@@std@@QBEIU_Nil@2@@Z ; std::_Wrap_alloc<std::allocator<char> >::max_size
PUBLIC	??0?$_String_val@U?$_Simple_types@D@std@@@std@@QAE@XZ ; std::_String_val<std::_Simple_types<char> >::_String_val<std::_Simple_types<char> >
PUBLIC	?_Myptr@?$_String_val@U?$_Simple_types@D@std@@@std@@QAEPADXZ ; std::_String_val<std::_Simple_types<char> >::_Myptr
PUBLIC	?_Myptr@?$_String_val@U?$_Simple_types@D@std@@@std@@QBEPBDXZ ; std::_String_val<std::_Simple_types<char> >::_Myptr
PUBLIC	?_Large_string_engaged@?$_String_val@U?$_Simple_types@D@std@@@std@@QBE_NXZ ; std::_String_val<std::_Simple_types<char> >::_Large_string_engaged
PUBLIC	??0_Bxty@?$_String_val@U?$_Simple_types@D@std@@@std@@QAE@XZ ; std::_String_val<std::_Simple_types<char> >::_Bxty::_Bxty
PUBLIC	??1_Bxty@?$_String_val@U?$_Simple_types@D@std@@@std@@QAE@XZ ; std::_String_val<std::_Simple_types<char> >::_Bxty::~_Bxty
PUBLIC	??1?$_String_val@U?$_Simple_types@D@std@@@std@@QAE@XZ ; std::_String_val<std::_Simple_types<char> >::~_String_val<std::_Simple_types<char> >
PUBLIC	?_Myptr@?$_String_alloc@U?$_String_base_types@DV?$allocator@D@std@@@std@@@std@@QAEPADXZ ; std::_String_alloc<std::_String_base_types<char,std::allocator<char> > >::_Myptr
PUBLIC	?_Myptr@?$_String_alloc@U?$_String_base_types@DV?$allocator@D@std@@@std@@@std@@QBEPBDXZ ; std::_String_alloc<std::_String_base_types<char,std::allocator<char> > >::_Myptr
PUBLIC	??0?$_String_alloc@U?$_String_base_types@DV?$allocator@D@std@@@std@@@std@@QAE@XZ ; std::_String_alloc<std::_String_base_types<char,std::allocator<char> > >::_String_alloc<std::_String_base_types<char,std::allocator<char> > >
PUBLIC	?_Orphan_all@?$_String_alloc@U?$_String_base_types@DV?$allocator@D@std@@@std@@@std@@QAEXXZ ; std::_String_alloc<std::_String_base_types<char,std::allocator<char> > >::_Orphan_all
PUBLIC	?_Getal@?$_String_alloc@U?$_String_base_types@DV?$allocator@D@std@@@std@@@std@@QAEAAU?$_Wrap_alloc@V?$allocator@D@std@@@2@XZ ; std::_String_alloc<std::_String_base_types<char,std::allocator<char> > >::_Getal
PUBLIC	?_Getal@?$_String_alloc@U?$_String_base_types@DV?$allocator@D@std@@@std@@@std@@QBEABU?$_Wrap_alloc@V?$allocator@D@std@@@2@XZ ; std::_String_alloc<std::_String_base_types<char,std::allocator<char> > >::_Getal
PUBLIC	?_Get_data@?$_String_alloc@U?$_String_base_types@DV?$allocator@D@std@@@std@@@std@@QAEAAV?$_String_val@U?$_Simple_types@D@std@@@2@XZ ; std::_String_alloc<std::_String_base_types<char,std::allocator<char> > >::_Get_data
PUBLIC	?_Get_data@?$_String_alloc@U?$_String_base_types@DV?$allocator@D@std@@@std@@@std@@QBEABV?$_String_val@U?$_Simple_types@D@std@@@2@XZ ; std::_String_alloc<std::_String_base_types<char,std::allocator<char> > >::_Get_data
PUBLIC	?_Mysize@?$_String_alloc@U?$_String_base_types@DV?$allocator@D@std@@@std@@@std@@QAEAAIXZ ; std::_String_alloc<std::_String_base_types<char,std::allocator<char> > >::_Mysize
PUBLIC	?_Mysize@?$_String_alloc@U?$_String_base_types@DV?$allocator@D@std@@@std@@@std@@QBEABIXZ ; std::_String_alloc<std::_String_base_types<char,std::allocator<char> > >::_Mysize
PUBLIC	?_Myres@?$_String_alloc@U?$_String_base_types@DV?$allocator@D@std@@@std@@@std@@QAEAAIXZ ; std::_String_alloc<std::_String_base_types<char,std::allocator<char> > >::_Myres
PUBLIC	?_Get_first@?$_Compressed_pair@U?$_Wrap_alloc@V?$allocator@D@std@@@std@@V?$_String_val@U?$_Simple_types@D@std@@@2@$00@std@@QAEAAU?$_Wrap_alloc@V?$allocator@D@std@@@2@XZ ; std::_Compressed_pair<std::_Wrap_alloc<std::allocator<char> >,std::_String_val<std::_Simple_types<char> >,1>::_Get_first
PUBLIC	?_Get_first@?$_Compressed_pair@U?$_Wrap_alloc@V?$allocator@D@std@@@std@@V?$_String_val@U?$_Simple_types@D@std@@@2@$00@std@@QBEABU?$_Wrap_alloc@V?$allocator@D@std@@@2@XZ ; std::_Compressed_pair<std::_Wrap_alloc<std::allocator<char> >,std::_String_val<std::_Simple_types<char> >,1>::_Get_first
PUBLIC	?_Get_second@?$_Compressed_pair@U?$_Wrap_alloc@V?$allocator@D@std@@@std@@V?$_String_val@U?$_Simple_types@D@std@@@2@$00@std@@QAEAAV?$_String_val@U?$_Simple_types@D@std@@@2@XZ ; std::_Compressed_pair<std::_Wrap_alloc<std::allocator<char> >,std::_String_val<std::_Simple_types<char> >,1>::_Get_second
PUBLIC	?_Get_second@?$_Compressed_pair@U?$_Wrap_alloc@V?$allocator@D@std@@@std@@V?$_String_val@U?$_Simple_types@D@std@@@2@$00@std@@QBEABV?$_String_val@U?$_Simple_types@D@std@@@2@XZ ; std::_Compressed_pair<std::_Wrap_alloc<std::allocator<char> >,std::_String_val<std::_Simple_types<char> >,1>::_Get_second
PUBLIC	??1?$_Compressed_pair@U?$_Wrap_alloc@V?$allocator@D@std@@@std@@V?$_String_val@U?$_Simple_types@D@std@@@2@$00@std@@QAE@XZ ; std::_Compressed_pair<std::_Wrap_alloc<std::allocator<char> >,std::_String_val<std::_Simple_types<char> >,1>::~_Compressed_pair<std::_Wrap_alloc<std::allocator<char> >,std::_String_val<std::_Simple_types<char> >,1>
PUBLIC	??1?$_String_alloc@U?$_String_base_types@DV?$allocator@D@std@@@std@@@std@@QAE@XZ ; std::_String_alloc<std::_String_base_types<char,std::allocator<char> > >::~_String_alloc<std::_String_base_types<char,std::allocator<char> > >
PUBLIC	??0?$basic_string@DU?$char_traits@D@std@@V?$allocator@D@2@@std@@QAE@QBD@Z ; std::basic_string<char,std::char_traits<char>,std::allocator<char> >::basic_string<char,std::char_traits<char>,std::allocator<char> >
PUBLIC	??0?$basic_string@DU?$char_traits@D@std@@V?$allocator@D@2@@std@@QAE@$$QAV01@@Z ; std::basic_string<char,std::char_traits<char>,std::allocator<char> >::basic_string<char,std::char_traits<char>,std::allocator<char> >
PUBLIC	?_Assign_rv_contents_with_alloc_always_equal@?$basic_string@DU?$char_traits@D@std@@V?$allocator@D@2@@std@@QAEX$$QAV12@U?$integral_constant@_N$00@2@@Z ; std::basic_string<char,std::char_traits<char>,std::allocator<char> >::_Assign_rv_contents_with_alloc_always_equal
PUBLIC	??1?$basic_string@DU?$char_traits@D@std@@V?$allocator@D@2@@std@@QAE@XZ ; std::basic_string<char,std::char_traits<char>,std::allocator<char> >::~basic_string<char,std::char_traits<char>,std::allocator<char> >
PUBLIC	?assign@?$basic_string@DU?$char_traits@D@std@@V?$allocator@D@2@@std@@QAEAAV12@ABV12@II@Z ; std::basic_string<char,std::char_traits<char>,std::allocator<char> >::assign
PUBLIC	?assign@?$basic_string@DU?$char_traits@D@std@@V?$allocator@D@2@@std@@QAEAAV12@QBDI@Z ; std::basic_string<char,std::char_traits<char>,std::allocator<char> >::assign
PUBLIC	?assign@?$basic_string@DU?$char_traits@D@std@@V?$allocator@D@2@@std@@QAEAAV12@QBD@Z ; std::basic_string<char,std::char_traits<char>,std::allocator<char> >::assign
PUBLIC	?erase@?$basic_string@DU?$char_traits@D@std@@V?$allocator@D@2@@std@@QAEAAV12@I@Z ; std::basic_string<char,std::char_traits<char>,std::allocator<char> >::erase
PUBLIC	?erase@?$basic_string@DU?$char_traits@D@std@@V?$allocator@D@2@@std@@QAEAAV12@II@Z ; std::basic_string<char,std::char_traits<char>,std::allocator<char> >::erase
PUBLIC	?max_size@?$basic_string@DU?$char_traits@D@std@@V?$allocator@D@2@@std@@QBEIXZ ; std::basic_string<char,std::char_traits<char>,std::allocator<char> >::max_size
PUBLIC	?_Clamp_suffix_size@?$basic_string@DU?$char_traits@D@std@@V?$allocator@D@2@@std@@QBEIII@Z ; std::basic_string<char,std::char_traits<char>,std::allocator<char> >::_Clamp_suffix_size
PUBLIC	?_Copy@?$basic_string@DU?$char_traits@D@std@@V?$allocator@D@2@@std@@QAEXI@Z ; std::basic_string<char,std::char_traits<char>,std::allocator<char> >::_Copy
PUBLIC	?_Eos@?$basic_string@DU?$char_traits@D@std@@V?$allocator@D@2@@std@@QAEXI@Z ; std::basic_string<char,std::char_traits<char>,std::allocator<char> >::_Eos
PUBLIC	?_Grow@?$basic_string@DU?$char_traits@D@std@@V?$allocator@D@2@@std@@QAE_NI@Z ; std::basic_string<char,std::char_traits<char>,std::allocator<char> >::_Grow
PUBLIC	?_Inside@?$basic_string@DU?$char_traits@D@std@@V?$allocator@D@2@@std@@QBE_NQBD@Z ; std::basic_string<char,std::char_traits<char>,std::allocator<char> >::_Inside
PUBLIC	?_Tidy_init@?$basic_string@DU?$char_traits@D@std@@V?$allocator@D@2@@std@@QAEXXZ ; std::basic_string<char,std::char_traits<char>,std::allocator<char> >::_Tidy_init
PUBLIC	?_Tidy_deallocate@?$basic_string@DU?$char_traits@D@std@@V?$allocator@D@2@@std@@QAEXXZ ; std::basic_string<char,std::char_traits<char>,std::allocator<char> >::_Tidy_deallocate
PUBLIC	?_Xlen@?$basic_string@DU?$char_traits@D@std@@V?$allocator@D@2@@std@@SAXXZ ; std::basic_string<char,std::char_traits<char>,std::allocator<char> >::_Xlen
PUBLIC	?_Check_offset@?$basic_string@DU?$char_traits@D@std@@V?$allocator@D@2@@std@@QBEXI@Z ; std::basic_string<char,std::char_traits<char>,std::allocator<char> >::_Check_offset
PUBLIC	?_Xran@?$basic_string@DU?$char_traits@D@std@@V?$allocator@D@2@@std@@SAXXZ ; std::basic_string<char,std::char_traits<char>,std::allocator<char> >::_Xran
PUBLIC	??_G?$basic_string@DU?$char_traits@D@std@@V?$allocator@D@2@@std@@QAEPAXI@Z ; std::basic_string<char,std::char_traits<char>,std::allocator<char> >::`scalar deleting destructor'
PUBLIC	??0?$allocator@_W@std@@QAE@XZ			; std::allocator<wchar_t>::allocator<wchar_t>
PUBLIC	??0?$allocator@_W@std@@QAE@ABV01@@Z		; std::allocator<wchar_t>::allocator<wchar_t>
PUBLIC	?deallocate@?$allocator@_W@std@@QAEXPA_WI@Z	; std::allocator<wchar_t>::deallocate
PUBLIC	?allocate@?$allocator@_W@std@@QAEPA_WI@Z	; std::allocator<wchar_t>::allocate
PUBLIC	?max_size@?$allocator@_W@std@@QBEIXZ		; std::allocator<wchar_t>::max_size
PUBLIC	?max_size@?$allocator_traits@V?$allocator@_W@std@@@std@@SAIABV?$allocator@_W@2@@Z ; std::allocator_traits<std::allocator<wchar_t> >::max_size
PUBLIC	?select_on_container_copy_construction@?$allocator_traits@V?$allocator@_W@std@@@std@@SA?AV?$allocator@_W@2@ABV32@@Z ; std::allocator_traits<std::allocator<wchar_t> >::select_on_container_copy_construction
PUBLIC	?select_on_container_copy_construction@?$_Wrap_alloc@V?$allocator@_W@std@@@std@@QBE?AU12@U_Nil@2@@Z ; std::_Wrap_alloc<std::allocator<wchar_t> >::select_on_container_copy_construction
PUBLIC	??0?$_Wrap_alloc@V?$allocator@_W@std@@@std@@QAE@XZ ; std::_Wrap_alloc<std::allocator<wchar_t> >::_Wrap_alloc<std::allocator<wchar_t> >
PUBLIC	??0?$_Wrap_alloc@V?$allocator@_W@std@@@std@@QAE@$$QAU01@@Z ; std::_Wrap_alloc<std::allocator<wchar_t> >::_Wrap_alloc<std::allocator<wchar_t> >
PUBLIC	??4?$_Wrap_alloc@V?$allocator@_W@std@@@std@@QAEAAU01@$$QAU01@@Z ; std::_Wrap_alloc<std::allocator<wchar_t> >::operator=
PUBLIC	?allocate@?$_Wrap_alloc@V?$allocator@_W@std@@@std@@QAEPA_WI@Z ; std::_Wrap_alloc<std::allocator<wchar_t> >::allocate
PUBLIC	?deallocate@?$_Wrap_alloc@V?$allocator@_W@std@@@std@@QAEXPA_WI@Z ; std::_Wrap_alloc<std::allocator<wchar_t> >::deallocate
PUBLIC	?max_size@?$_Wrap_alloc@V?$allocator@_W@std@@@std@@QBEIU_Nil@2@@Z ; std::_Wrap_alloc<std::allocator<wchar_t> >::max_size
PUBLIC	??0?$_String_val@U?$_Simple_types@_W@std@@@std@@QAE@XZ ; std::_String_val<std::_Simple_types<wchar_t> >::_String_val<std::_Simple_types<wchar_t> >
PUBLIC	?_Myptr@?$_String_val@U?$_Simple_types@_W@std@@@std@@QAEPA_WXZ ; std::_String_val<std::_Simple_types<wchar_t> >::_Myptr
PUBLIC	?_Myptr@?$_String_val@U?$_Simple_types@_W@std@@@std@@QBEPB_WXZ ; std::_String_val<std::_Simple_types<wchar_t> >::_Myptr
PUBLIC	?_Large_string_engaged@?$_String_val@U?$_Simple_types@_W@std@@@std@@QBE_NXZ ; std::_String_val<std::_Simple_types<wchar_t> >::_Large_string_engaged
PUBLIC	??0_Bxty@?$_String_val@U?$_Simple_types@_W@std@@@std@@QAE@XZ ; std::_String_val<std::_Simple_types<wchar_t> >::_Bxty::_Bxty
PUBLIC	??1_Bxty@?$_String_val@U?$_Simple_types@_W@std@@@std@@QAE@XZ ; std::_String_val<std::_Simple_types<wchar_t> >::_Bxty::~_Bxty
PUBLIC	??1?$_String_val@U?$_Simple_types@_W@std@@@std@@QAE@XZ ; std::_String_val<std::_Simple_types<wchar_t> >::~_String_val<std::_Simple_types<wchar_t> >
PUBLIC	?_Myptr@?$_String_alloc@U?$_String_base_types@_WV?$allocator@_W@std@@@std@@@std@@QAEPA_WXZ ; std::_String_alloc<std::_String_base_types<wchar_t,std::allocator<wchar_t> > >::_Myptr
PUBLIC	?_Myptr@?$_String_alloc@U?$_String_base_types@_WV?$allocator@_W@std@@@std@@@std@@QBEPB_WXZ ; std::_String_alloc<std::_String_base_types<wchar_t,std::allocator<wchar_t> > >::_Myptr
PUBLIC	??0?$_String_alloc@U?$_String_base_types@_WV?$allocator@_W@std@@@std@@@std@@QAE@XZ ; std::_String_alloc<std::_String_base_types<wchar_t,std::allocator<wchar_t> > >::_String_alloc<std::_String_base_types<wchar_t,std::allocator<wchar_t> > >
PUBLIC	?_Copy_alloc@?$_String_alloc@U?$_String_base_types@_WV?$allocator@_W@std@@@std@@@std@@QAEXABU?$_Wrap_alloc@V?$allocator@_W@std@@@2@@Z ; std::_String_alloc<std::_String_base_types<wchar_t,std::allocator<wchar_t> > >::_Copy_alloc
PUBLIC	?_Move_alloc@?$_String_alloc@U?$_String_base_types@_WV?$allocator@_W@std@@@std@@@std@@QAEXAAU?$_Wrap_alloc@V?$allocator@_W@std@@@2@@Z ; std::_String_alloc<std::_String_base_types<wchar_t,std::allocator<wchar_t> > >::_Move_alloc
PUBLIC	?_Orphan_all@?$_String_alloc@U?$_String_base_types@_WV?$allocator@_W@std@@@std@@@std@@QAEXXZ ; std::_String_alloc<std::_String_base_types<wchar_t,std::allocator<wchar_t> > >::_Orphan_all
PUBLIC	?_Getal@?$_String_alloc@U?$_String_base_types@_WV?$allocator@_W@std@@@std@@@std@@QAEAAU?$_Wrap_alloc@V?$allocator@_W@std@@@2@XZ ; std::_String_alloc<std::_String_base_types<wchar_t,std::allocator<wchar_t> > >::_Getal
PUBLIC	?_Getal@?$_String_alloc@U?$_String_base_types@_WV?$allocator@_W@std@@@std@@@std@@QBEABU?$_Wrap_alloc@V?$allocator@_W@std@@@2@XZ ; std::_String_alloc<std::_String_base_types<wchar_t,std::allocator<wchar_t> > >::_Getal
PUBLIC	?_Get_data@?$_String_alloc@U?$_String_base_types@_WV?$allocator@_W@std@@@std@@@std@@QAEAAV?$_String_val@U?$_Simple_types@_W@std@@@2@XZ ; std::_String_alloc<std::_String_base_types<wchar_t,std::allocator<wchar_t> > >::_Get_data
PUBLIC	?_Get_data@?$_String_alloc@U?$_String_base_types@_WV?$allocator@_W@std@@@std@@@std@@QBEABV?$_String_val@U?$_Simple_types@_W@std@@@2@XZ ; std::_String_alloc<std::_String_base_types<wchar_t,std::allocator<wchar_t> > >::_Get_data
PUBLIC	?_Mysize@?$_String_alloc@U?$_String_base_types@_WV?$allocator@_W@std@@@std@@@std@@QAEAAIXZ ; std::_String_alloc<std::_String_base_types<wchar_t,std::allocator<wchar_t> > >::_Mysize
PUBLIC	?_Mysize@?$_String_alloc@U?$_String_base_types@_WV?$allocator@_W@std@@@std@@@std@@QBEABIXZ ; std::_String_alloc<std::_String_base_types<wchar_t,std::allocator<wchar_t> > >::_Mysize
PUBLIC	?_Myres@?$_String_alloc@U?$_String_base_types@_WV?$allocator@_W@std@@@std@@@std@@QAEAAIXZ ; std::_String_alloc<std::_String_base_types<wchar_t,std::allocator<wchar_t> > >::_Myres
PUBLIC	?_Myres@?$_String_alloc@U?$_String_base_types@_WV?$allocator@_W@std@@@std@@@std@@QBEABIXZ ; std::_String_alloc<std::_String_base_types<wchar_t,std::allocator<wchar_t> > >::_Myres
PUBLIC	?_Get_first@?$_Compressed_pair@U?$_Wrap_alloc@V?$allocator@_W@std@@@std@@V?$_String_val@U?$_Simple_types@_W@std@@@2@$00@std@@QAEAAU?$_Wrap_alloc@V?$allocator@_W@std@@@2@XZ ; std::_Compressed_pair<std::_Wrap_alloc<std::allocator<wchar_t> >,std::_String_val<std::_Simple_types<wchar_t> >,1>::_Get_first
PUBLIC	?_Get_first@?$_Compressed_pair@U?$_Wrap_alloc@V?$allocator@_W@std@@@std@@V?$_String_val@U?$_Simple_types@_W@std@@@2@$00@std@@QBEABU?$_Wrap_alloc@V?$allocator@_W@std@@@2@XZ ; std::_Compressed_pair<std::_Wrap_alloc<std::allocator<wchar_t> >,std::_String_val<std::_Simple_types<wchar_t> >,1>::_Get_first
PUBLIC	?_Get_second@?$_Compressed_pair@U?$_Wrap_alloc@V?$allocator@_W@std@@@std@@V?$_String_val@U?$_Simple_types@_W@std@@@2@$00@std@@QAEAAV?$_String_val@U?$_Simple_types@_W@std@@@2@XZ ; std::_Compressed_pair<std::_Wrap_alloc<std::allocator<wchar_t> >,std::_String_val<std::_Simple_types<wchar_t> >,1>::_Get_second
PUBLIC	?_Get_second@?$_Compressed_pair@U?$_Wrap_alloc@V?$allocator@_W@std@@@std@@V?$_String_val@U?$_Simple_types@_W@std@@@2@$00@std@@QBEABV?$_String_val@U?$_Simple_types@_W@std@@@2@XZ ; std::_Compressed_pair<std::_Wrap_alloc<std::allocator<wchar_t> >,std::_String_val<std::_Simple_types<wchar_t> >,1>::_Get_second
PUBLIC	??1?$_Compressed_pair@U?$_Wrap_alloc@V?$allocator@_W@std@@@std@@V?$_String_val@U?$_Simple_types@_W@std@@@2@$00@std@@QAE@XZ ; std::_Compressed_pair<std::_Wrap_alloc<std::allocator<wchar_t> >,std::_String_val<std::_Simple_types<wchar_t> >,1>::~_Compressed_pair<std::_Wrap_alloc<std::allocator<wchar_t> >,std::_String_val<std::_Simple_types<wchar_t> >,1>
PUBLIC	??1?$_String_alloc@U?$_String_base_types@_WV?$allocator@_W@std@@@std@@@std@@QAE@XZ ; std::_String_alloc<std::_String_base_types<wchar_t,std::allocator<wchar_t> > >::~_String_alloc<std::_String_base_types<wchar_t,std::allocator<wchar_t> > >
PUBLIC	??0?$basic_string@_WU?$char_traits@_W@std@@V?$allocator@_W@2@@std@@QAE@ABV01@@Z ; std::basic_string<wchar_t,std::char_traits<wchar_t>,std::allocator<wchar_t> >::basic_string<wchar_t,std::char_traits<wchar_t>,std::allocator<wchar_t> >
PUBLIC	??0?$basic_string@_WU?$char_traits@_W@std@@V?$allocator@_W@2@@std@@QAE@XZ ; std::basic_string<wchar_t,std::char_traits<wchar_t>,std::allocator<wchar_t> >::basic_string<wchar_t,std::char_traits<wchar_t>,std::allocator<wchar_t> >
PUBLIC	??0?$basic_string@_WU?$char_traits@_W@std@@V?$allocator@_W@2@@std@@QAE@QB_W@Z ; std::basic_string<wchar_t,std::char_traits<wchar_t>,std::allocator<wchar_t> >::basic_string<wchar_t,std::char_traits<wchar_t>,std::allocator<wchar_t> >
PUBLIC	??0?$basic_string@_WU?$char_traits@_W@std@@V?$allocator@_W@2@@std@@QAE@$$QAV01@@Z ; std::basic_string<wchar_t,std::char_traits<wchar_t>,std::allocator<wchar_t> >::basic_string<wchar_t,std::char_traits<wchar_t>,std::allocator<wchar_t> >
PUBLIC	??4?$basic_string@_WU?$char_traits@_W@std@@V?$allocator@_W@2@@std@@QAEAAV01@$$QAV01@@Z ; std::basic_string<wchar_t,std::char_traits<wchar_t>,std::allocator<wchar_t> >::operator=
PUBLIC	?_Assign_rv_contents@?$basic_string@_WU?$char_traits@_W@std@@V?$allocator@_W@2@@std@@QAEX$$QAV12@U?$integral_constant@_N$00@2@@Z ; std::basic_string<wchar_t,std::char_traits<wchar_t>,std::allocator<wchar_t> >::_Assign_rv_contents
PUBLIC	?_Assign_rv_contents_with_alloc_always_equal@?$basic_string@_WU?$char_traits@_W@std@@V?$allocator@_W@2@@std@@QAEX$$QAV12@U?$integral_constant@_N$00@2@@Z ; std::basic_string<wchar_t,std::char_traits<wchar_t>,std::allocator<wchar_t> >::_Assign_rv_contents_with_alloc_always_equal
PUBLIC	?_Assign_lv_contents@?$basic_string@_WU?$char_traits@_W@std@@V?$allocator@_W@2@@std@@QAEXABV12@@Z ; std::basic_string<wchar_t,std::char_traits<wchar_t>,std::allocator<wchar_t> >::_Assign_lv_contents
PUBLIC	??1?$basic_string@_WU?$char_traits@_W@std@@V?$allocator@_W@2@@std@@QAE@XZ ; std::basic_string<wchar_t,std::char_traits<wchar_t>,std::allocator<wchar_t> >::~basic_string<wchar_t,std::char_traits<wchar_t>,std::allocator<wchar_t> >
PUBLIC	??4?$basic_string@_WU?$char_traits@_W@std@@V?$allocator@_W@2@@std@@QAEAAV01@ABV01@@Z ; std::basic_string<wchar_t,std::char_traits<wchar_t>,std::allocator<wchar_t> >::operator=
PUBLIC	??4?$basic_string@_WU?$char_traits@_W@std@@V?$allocator@_W@2@@std@@QAEAAV01@QB_W@Z ; std::basic_string<wchar_t,std::char_traits<wchar_t>,std::allocator<wchar_t> >::operator=
PUBLIC	??Y?$basic_string@_WU?$char_traits@_W@std@@V?$allocator@_W@2@@std@@QAEAAV01@QB_W@Z ; std::basic_string<wchar_t,std::char_traits<wchar_t>,std::allocator<wchar_t> >::operator+=
PUBLIC	?append@?$basic_string@_WU?$char_traits@_W@std@@V?$allocator@_W@2@@std@@QAEAAV12@ABV12@@Z ; std::basic_string<wchar_t,std::char_traits<wchar_t>,std::allocator<wchar_t> >::append
PUBLIC	?append@?$basic_string@_WU?$char_traits@_W@std@@V?$allocator@_W@2@@std@@QAEAAV12@ABV12@II@Z ; std::basic_string<wchar_t,std::char_traits<wchar_t>,std::allocator<wchar_t> >::append
PUBLIC	?append@?$basic_string@_WU?$char_traits@_W@std@@V?$allocator@_W@2@@std@@QAEAAV12@QB_WI@Z ; std::basic_string<wchar_t,std::char_traits<wchar_t>,std::allocator<wchar_t> >::append
PUBLIC	?append@?$basic_string@_WU?$char_traits@_W@std@@V?$allocator@_W@2@@std@@QAEAAV12@QB_W@Z ; std::basic_string<wchar_t,std::char_traits<wchar_t>,std::allocator<wchar_t> >::append
PUBLIC	?assign@?$basic_string@_WU?$char_traits@_W@std@@V?$allocator@_W@2@@std@@QAEAAV12@ABV12@II@Z ; std::basic_string<wchar_t,std::char_traits<wchar_t>,std::allocator<wchar_t> >::assign
PUBLIC	?assign@?$basic_string@_WU?$char_traits@_W@std@@V?$allocator@_W@2@@std@@QAEAAV12@QB_WI@Z ; std::basic_string<wchar_t,std::char_traits<wchar_t>,std::allocator<wchar_t> >::assign
PUBLIC	?assign@?$basic_string@_WU?$char_traits@_W@std@@V?$allocator@_W@2@@std@@QAEAAV12@QB_W@Z ; std::basic_string<wchar_t,std::char_traits<wchar_t>,std::allocator<wchar_t> >::assign
PUBLIC	?insert@?$basic_string@_WU?$char_traits@_W@std@@V?$allocator@_W@2@@std@@QAEAAV12@IABV12@@Z ; std::basic_string<wchar_t,std::char_traits<wchar_t>,std::allocator<wchar_t> >::insert
PUBLIC	?insert@?$basic_string@_WU?$char_traits@_W@std@@V?$allocator@_W@2@@std@@QAEAAV12@IABV12@II@Z ; std::basic_string<wchar_t,std::char_traits<wchar_t>,std::allocator<wchar_t> >::insert
PUBLIC	?erase@?$basic_string@_WU?$char_traits@_W@std@@V?$allocator@_W@2@@std@@QAEAAV12@I@Z ; std::basic_string<wchar_t,std::char_traits<wchar_t>,std::allocator<wchar_t> >::erase
PUBLIC	?erase@?$basic_string@_WU?$char_traits@_W@std@@V?$allocator@_W@2@@std@@QAEAAV12@II@Z ; std::basic_string<wchar_t,std::char_traits<wchar_t>,std::allocator<wchar_t> >::erase
PUBLIC	?c_str@?$basic_string@_WU?$char_traits@_W@std@@V?$allocator@_W@2@@std@@QBEPB_WXZ ; std::basic_string<wchar_t,std::char_traits<wchar_t>,std::allocator<wchar_t> >::c_str
PUBLIC	?size@?$basic_string@_WU?$char_traits@_W@std@@V?$allocator@_W@2@@std@@QBEIXZ ; std::basic_string<wchar_t,std::char_traits<wchar_t>,std::allocator<wchar_t> >::size
PUBLIC	?max_size@?$basic_string@_WU?$char_traits@_W@std@@V?$allocator@_W@2@@std@@QBEIXZ ; std::basic_string<wchar_t,std::char_traits<wchar_t>,std::allocator<wchar_t> >::max_size
PUBLIC	?capacity@?$basic_string@_WU?$char_traits@_W@std@@V?$allocator@_W@2@@std@@QBEIXZ ; std::basic_string<wchar_t,std::char_traits<wchar_t>,std::allocator<wchar_t> >::capacity
PUBLIC	?_Clamp_suffix_size@?$basic_string@_WU?$char_traits@_W@std@@V?$allocator@_W@2@@std@@QBEIII@Z ; std::basic_string<wchar_t,std::char_traits<wchar_t>,std::allocator<wchar_t> >::_Clamp_suffix_size
PUBLIC	?_Equal@?$basic_string@_WU?$char_traits@_W@std@@V?$allocator@_W@2@@std@@QBE_NABV12@@Z ; std::basic_string<wchar_t,std::char_traits<wchar_t>,std::allocator<wchar_t> >::_Equal
PUBLIC	?_Equal@?$basic_string@_WU?$char_traits@_W@std@@V?$allocator@_W@2@@std@@QBE_NQB_W@Z ; std::basic_string<wchar_t,std::char_traits<wchar_t>,std::allocator<wchar_t> >::_Equal
PUBLIC	?_Copy@?$basic_string@_WU?$char_traits@_W@std@@V?$allocator@_W@2@@std@@QAEXI@Z ; std::basic_string<wchar_t,std::char_traits<wchar_t>,std::allocator<wchar_t> >::_Copy
PUBLIC	?_Eos@?$basic_string@_WU?$char_traits@_W@std@@V?$allocator@_W@2@@std@@QAEXI@Z ; std::basic_string<wchar_t,std::char_traits<wchar_t>,std::allocator<wchar_t> >::_Eos
PUBLIC	?_Grow@?$basic_string@_WU?$char_traits@_W@std@@V?$allocator@_W@2@@std@@QAE_NI@Z ; std::basic_string<wchar_t,std::char_traits<wchar_t>,std::allocator<wchar_t> >::_Grow
PUBLIC	?_Inside@?$basic_string@_WU?$char_traits@_W@std@@V?$allocator@_W@2@@std@@QBE_NQB_W@Z ; std::basic_string<wchar_t,std::char_traits<wchar_t>,std::allocator<wchar_t> >::_Inside
PUBLIC	?_Tidy_init@?$basic_string@_WU?$char_traits@_W@std@@V?$allocator@_W@2@@std@@QAEXXZ ; std::basic_string<wchar_t,std::char_traits<wchar_t>,std::allocator<wchar_t> >::_Tidy_init
PUBLIC	?_Tidy_deallocate@?$basic_string@_WU?$char_traits@_W@std@@V?$allocator@_W@2@@std@@QAEXXZ ; std::basic_string<wchar_t,std::char_traits<wchar_t>,std::allocator<wchar_t> >::_Tidy_deallocate
PUBLIC	?_Xlen@?$basic_string@_WU?$char_traits@_W@std@@V?$allocator@_W@2@@std@@SAXXZ ; std::basic_string<wchar_t,std::char_traits<wchar_t>,std::allocator<wchar_t> >::_Xlen
PUBLIC	?_Check_offset@?$basic_string@_WU?$char_traits@_W@std@@V?$allocator@_W@2@@std@@QBEXI@Z ; std::basic_string<wchar_t,std::char_traits<wchar_t>,std::allocator<wchar_t> >::_Check_offset
PUBLIC	?_Xran@?$basic_string@_WU?$char_traits@_W@std@@V?$allocator@_W@2@@std@@SAXXZ ; std::basic_string<wchar_t,std::char_traits<wchar_t>,std::allocator<wchar_t> >::_Xran
PUBLIC	??_G?$basic_string@_WU?$char_traits@_W@std@@V?$allocator@_W@2@@std@@QAEPAXI@Z ; std::basic_string<wchar_t,std::char_traits<wchar_t>,std::allocator<wchar_t> >::`scalar deleting destructor'
PUBLIC	_HRESULT_FROM_WIN32
PUBLIC	??0IUnknown@@QAE@ABU0@@Z			; IUnknown::IUnknown
PUBLIC	??R?$_Uhash_compare@V?$basic_string@_WU?$char_traits@_W@std@@V?$allocator@_W@2@@std@@U?$hash@V?$basic_string@_WU?$char_traits@_W@std@@V?$allocator@_W@2@@std@@@2@U?$equal_to@V?$basic_string@_WU?$char_traits@_W@std@@V?$allocator@_W@2@@std@@@2@@std@@QBEIABV?$basic_string@_WU?$char_traits@_W@std@@V?$allocator@_W@2@@1@@Z ; std::_Uhash_compare<std::basic_string<wchar_t,std::char_traits<wchar_t>,std::allocator<wchar_t> >,std::hash<std::basic_string<wchar_t,std::char_traits<wchar_t>,std::allocator<wchar_t> > >,std::equal_to<std::basic_string<wchar_t,std::char_traits<wchar_t>,std::allocator<wchar_t> > > >::operator()
PUBLIC	??R?$_Uhash_compare@V?$basic_string@_WU?$char_traits@_W@std@@V?$allocator@_W@2@@std@@U?$hash@V?$basic_string@_WU?$char_traits@_W@std@@V?$allocator@_W@2@@std@@@2@U?$equal_to@V?$basic_string@_WU?$char_traits@_W@std@@V?$allocator@_W@2@@std@@@2@@std@@QBE_NABV?$basic_string@_WU?$char_traits@_W@std@@V?$allocator@_W@2@@1@0@Z ; std::_Uhash_compare<std::basic_string<wchar_t,std::char_traits<wchar_t>,std::allocator<wchar_t> >,std::hash<std::basic_string<wchar_t,std::char_traits<wchar_t>,std::allocator<wchar_t> > >,std::equal_to<std::basic_string<wchar_t,std::char_traits<wchar_t>,std::allocator<wchar_t> > > >::operator()
PUBLIC	?_Gethash@?$_Uhash_compare@V?$basic_string@_WU?$char_traits@_W@std@@V?$allocator@_W@2@@std@@U?$hash@V?$basic_string@_WU?$char_traits@_W@std@@V?$allocator@_W@2@@std@@@2@U?$equal_to@V?$basic_string@_WU?$char_traits@_W@std@@V?$allocator@_W@2@@std@@@2@@std@@QBEABU?$hash@V?$basic_string@_WU?$char_traits@_W@std@@V?$allocator@_W@2@@std@@@2@XZ ; std::_Uhash_compare<std::basic_string<wchar_t,std::char_traits<wchar_t>,std::allocator<wchar_t> >,std::hash<std::basic_string<wchar_t,std::char_traits<wchar_t>,std::allocator<wchar_t> > >,std::equal_to<std::basic_string<wchar_t,std::char_traits<wchar_t>,std::allocator<wchar_t> > > >::_Gethash
PUBLIC	?_Getkeyeq@?$_Uhash_compare@V?$basic_string@_WU?$char_traits@_W@std@@V?$allocator@_W@2@@std@@U?$hash@V?$basic_string@_WU?$char_traits@_W@std@@V?$allocator@_W@2@@std@@@2@U?$equal_to@V?$basic_string@_WU?$char_traits@_W@std@@V?$allocator@_W@2@@std@@@2@@std@@QBEABU?$equal_to@V?$basic_string@_WU?$char_traits@_W@std@@V?$allocator@_W@2@@std@@@2@XZ ; std::_Uhash_compare<std::basic_string<wchar_t,std::char_traits<wchar_t>,std::allocator<wchar_t> >,std::hash<std::basic_string<wchar_t,std::char_traits<wchar_t>,std::allocator<wchar_t> > >,std::equal_to<std::basic_string<wchar_t,std::char_traits<wchar_t>,std::allocator<wchar_t> > > >::_Getkeyeq
PUBLIC	?_Get_max_bucket_size@?$_Uhash_compare@V?$basic_string@_WU?$char_traits@_W@std@@V?$allocator@_W@2@@std@@U?$hash@V?$basic_string@_WU?$char_traits@_W@std@@V?$allocator@_W@2@@std@@@2@U?$equal_to@V?$basic_string@_WU?$char_traits@_W@std@@V?$allocator@_W@2@@std@@@2@@std@@QBEABMXZ ; std::_Uhash_compare<std::basic_string<wchar_t,std::char_traits<wchar_t>,std::allocator<wchar_t> >,std::hash<std::basic_string<wchar_t,std::char_traits<wchar_t>,std::allocator<wchar_t> > >,std::equal_to<std::basic_string<wchar_t,std::char_traits<wchar_t>,std::allocator<wchar_t> > > >::_Get_max_bucket_size
PUBLIC	??R?$equal_to@V?$basic_string@_WU?$char_traits@_W@std@@V?$allocator@_W@2@@std@@@std@@QBE_NABV?$basic_string@_WU?$char_traits@_W@std@@V?$allocator@_W@2@@1@0@Z ; std::equal_to<std::basic_string<wchar_t,std::char_traits<wchar_t>,std::allocator<wchar_t> > >::operator()
PUBLIC	??R?$hash@V?$basic_string@_WU?$char_traits@_W@std@@V?$allocator@_W@2@@std@@@std@@QBEIABV?$basic_string@_WU?$char_traits@_W@std@@V?$allocator@_W@2@@1@@Z ; std::hash<std::basic_string<wchar_t,std::char_traits<wchar_t>,std::allocator<wchar_t> > >::operator()
PUBLIC	?_Get_first@?$_Compressed_pair@U?$equal_to@V?$basic_string@_WU?$char_traits@_W@std@@V?$allocator@_W@2@@std@@@std@@M$00@std@@QBEABU?$equal_to@V?$basic_string@_WU?$char_traits@_W@std@@V?$allocator@_W@2@@std@@@2@XZ ; std::_Compressed_pair<std::equal_to<std::basic_string<wchar_t,std::char_traits<wchar_t>,std::allocator<wchar_t> > >,float,1>::_Get_first
PUBLIC	?_Get_second@?$_Compressed_pair@U?$equal_to@V?$basic_string@_WU?$char_traits@_W@std@@V?$allocator@_W@2@@std@@@std@@M$00@std@@QBEABMXZ ; std::_Compressed_pair<std::equal_to<std::basic_string<wchar_t,std::char_traits<wchar_t>,std::allocator<wchar_t> > >,float,1>::_Get_second
PUBLIC	?_Get_first@?$_Compressed_pair@U?$hash@V?$basic_string@_WU?$char_traits@_W@std@@V?$allocator@_W@2@@std@@@std@@V?$_Compressed_pair@U?$equal_to@V?$basic_string@_WU?$char_traits@_W@std@@V?$allocator@_W@2@@std@@@std@@M$00@2@$00@std@@QBEABU?$hash@V?$basic_string@_WU?$char_traits@_W@std@@V?$allocator@_W@2@@std@@@2@XZ ; std::_Compressed_pair<std::hash<std::basic_string<wchar_t,std::char_traits<wchar_t>,std::allocator<wchar_t> > >,std::_Compressed_pair<std::equal_to<std::basic_string<wchar_t,std::char_traits<wchar_t>,std::allocator<wchar_t> > >,float,1>,1>::_Get_first
PUBLIC	?_Get_second@?$_Compressed_pair@U?$hash@V?$basic_string@_WU?$char_traits@_W@std@@V?$allocator@_W@2@@std@@@std@@V?$_Compressed_pair@U?$equal_to@V?$basic_string@_WU?$char_traits@_W@std@@V?$allocator@_W@2@@std@@@std@@M$00@2@$00@std@@QBEABV?$_Compressed_pair@U?$equal_to@V?$basic_string@_WU?$char_traits@_W@std@@V?$allocator@_W@2@@std@@@std@@M$00@2@XZ ; std::_Compressed_pair<std::hash<std::basic_string<wchar_t,std::char_traits<wchar_t>,std::allocator<wchar_t> > >,std::_Compressed_pair<std::equal_to<std::basic_string<wchar_t,std::char_traits<wchar_t>,std::allocator<wchar_t> > >,float,1>,1>::_Get_second
PUBLIC	??0?$allocator@U?$_List_node@U?$pair@$$CBV?$basic_string@_WU?$char_traits@_W@std@@V?$allocator@_W@2@@std@@V12@@std@@PAX@std@@@std@@QAE@ABV01@@Z ; std::allocator<std::_List_node<std::pair<std::basic_string<wchar_t,std::char_traits<wchar_t>,std::allocator<wchar_t> > const ,std::basic_string<wchar_t,std::char_traits<wchar_t>,std::allocator<wchar_t> > >,void *> >::allocator<std::_List_node<std::pair<std::basic_string<wchar_t,std::char_traits<wchar_t>,std::allocator<wchar_t> > const ,std::basic_string<wchar_t,std::char_traits<wchar_t>,std::allocator<wchar_t> > >,void *> >
PUBLIC	?deallocate@?$allocator@U?$_List_node@U?$pair@$$CBV?$basic_string@_WU?$char_traits@_W@std@@V?$allocator@_W@2@@std@@V12@@std@@PAX@std@@@std@@QAEXPAU?$_List_node@U?$pair@$$CBV?$basic_string@_WU?$char_traits@_W@std@@V?$allocator@_W@2@@std@@V12@@std@@PAX@2@I@Z ; std::allocator<std::_List_node<std::pair<std::basic_string<wchar_t,std::char_traits<wchar_t>,std::allocator<wchar_t> > const ,std::basic_string<wchar_t,std::char_traits<wchar_t>,std::allocator<wchar_t> > >,void *> >::deallocate
PUBLIC	?allocate@?$allocator@U?$_List_node@U?$pair@$$CBV?$basic_string@_WU?$char_traits@_W@std@@V?$allocator@_W@2@@std@@V12@@std@@PAX@std@@@std@@QAEPAU?$_List_node@U?$pair@$$CBV?$basic_string@_WU?$char_traits@_W@std@@V?$allocator@_W@2@@std@@V12@@std@@PAX@2@I@Z ; std::allocator<std::_List_node<std::pair<std::basic_string<wchar_t,std::char_traits<wchar_t>,std::allocator<wchar_t> > const ,std::basic_string<wchar_t,std::char_traits<wchar_t>,std::allocator<wchar_t> > >,void *> >::allocate
PUBLIC	?max_size@?$allocator@U?$_List_node@U?$pair@$$CBV?$basic_string@_WU?$char_traits@_W@std@@V?$allocator@_W@2@@std@@V12@@std@@PAX@std@@@std@@QBEIXZ ; std::allocator<std::_List_node<std::pair<std::basic_string<wchar_t,std::char_traits<wchar_t>,std::allocator<wchar_t> > const ,std::basic_string<wchar_t,std::char_traits<wchar_t>,std::allocator<wchar_t> > >,void *> >::max_size
PUBLIC	?max_size@?$allocator_traits@V?$allocator@U?$_List_node@U?$pair@$$CBV?$basic_string@_WU?$char_traits@_W@std@@V?$allocator@_W@2@@std@@V12@@std@@PAX@std@@@std@@@std@@SAIABV?$allocator@U?$_List_node@U?$pair@$$CBV?$basic_string@_WU?$char_traits@_W@std@@V?$allocator@_W@2@@std@@V12@@std@@PAX@std@@@2@@Z ; std::allocator_traits<std::allocator<std::_List_node<std::pair<std::basic_string<wchar_t,std::char_traits<wchar_t>,std::allocator<wchar_t> > const ,std::basic_string<wchar_t,std::char_traits<wchar_t>,std::allocator<wchar_t> > >,void *> > >::max_size
PUBLIC	?select_on_container_copy_construction@?$allocator_traits@V?$allocator@U?$_List_node@U?$pair@$$CBV?$basic_string@_WU?$char_traits@_W@std@@V?$allocator@_W@2@@std@@V12@@std@@PAX@std@@@std@@@std@@SA?AV?$allocator@U?$_List_node@U?$pair@$$CBV?$basic_string@_WU?$char_traits@_W@std@@V?$allocator@_W@2@@std@@V12@@std@@PAX@std@@@2@ABV32@@Z ; std::allocator_traits<std::allocator<std::_List_node<std::pair<std::basic_string<wchar_t,std::char_traits<wchar_t>,std::allocator<wchar_t> > const ,std::basic_string<wchar_t,std::char_traits<wchar_t>,std::allocator<wchar_t> > >,void *> > >::select_on_container_copy_construction
PUBLIC	?select_on_container_copy_construction@?$_Wrap_alloc@V?$allocator@U?$_List_node@U?$pair@$$CBV?$basic_string@_WU?$char_traits@_W@std@@V?$allocator@_W@2@@std@@V12@@std@@PAX@std@@@std@@@std@@QBE?AU12@U_Nil@2@@Z ; std::_Wrap_alloc<std::allocator<std::_List_node<std::pair<std::basic_string<wchar_t,std::char_traits<wchar_t>,std::allocator<wchar_t> > const ,std::basic_string<wchar_t,std::char_traits<wchar_t>,std::allocator<wchar_t> > >,void *> > >::select_on_container_copy_construction
PUBLIC	?allocate@?$_Wrap_alloc@V?$allocator@U?$_List_node@U?$pair@$$CBV?$basic_string@_WU?$char_traits@_W@std@@V?$allocator@_W@2@@std@@V12@@std@@PAX@std@@@std@@@std@@QAEPAU?$_List_node@U?$pair@$$CBV?$basic_string@_WU?$char_traits@_W@std@@V?$allocator@_W@2@@std@@V12@@std@@PAX@2@I@Z ; std::_Wrap_alloc<std::allocator<std::_List_node<std::pair<std::basic_string<wchar_t,std::char_traits<wchar_t>,std::allocator<wchar_t> > const ,std::basic_string<wchar_t,std::char_traits<wchar_t>,std::allocator<wchar_t> > >,void *> > >::allocate
PUBLIC	?deallocate@?$_Wrap_alloc@V?$allocator@U?$_List_node@U?$pair@$$CBV?$basic_string@_WU?$char_traits@_W@std@@V?$allocator@_W@2@@std@@V12@@std@@PAX@std@@@std@@@std@@QAEXPAU?$_List_node@U?$pair@$$CBV?$basic_string@_WU?$char_traits@_W@std@@V?$allocator@_W@2@@std@@V12@@std@@PAX@2@I@Z ; std::_Wrap_alloc<std::allocator<std::_List_node<std::pair<std::basic_string<wchar_t,std::char_traits<wchar_t>,std::allocator<wchar_t> > const ,std::basic_string<wchar_t,std::char_traits<wchar_t>,std::allocator<wchar_t> > >,void *> > >::deallocate
PUBLIC	?max_size@?$_Wrap_alloc@V?$allocator@U?$_List_node@U?$pair@$$CBV?$basic_string@_WU?$char_traits@_W@std@@V?$allocator@_W@2@@std@@V12@@std@@PAX@std@@@std@@@std@@QBEIU_Nil@2@@Z ; std::_Wrap_alloc<std::allocator<std::_List_node<std::pair<std::basic_string<wchar_t,std::char_traits<wchar_t>,std::allocator<wchar_t> > const ,std::basic_string<wchar_t,std::char_traits<wchar_t>,std::allocator<wchar_t> > >,void *> > >::max_size
PUBLIC	?_Nextnode@?$_List_alloc@U?$_List_base_types@U?$pair@$$CBV?$basic_string@_WU?$char_traits@_W@std@@V?$allocator@_W@2@@std@@V12@@std@@V?$allocator@U?$pair@$$CBV?$basic_string@_WU?$char_traits@_W@std@@V?$allocator@_W@2@@std@@V12@@std@@@2@@std@@@std@@SAAAPAU?$_List_node@U?$pair@$$CBV?$basic_string@_WU?$char_traits@_W@std@@V?$allocator@_W@2@@std@@V12@@std@@PAX@2@PAU32@@Z ; std::_List_alloc<std::_List_base_types<std::pair<std::basic_string<wchar_t,std::char_traits<wchar_t>,std::allocator<wchar_t> > const ,std::basic_string<wchar_t,std::char_traits<wchar_t>,std::allocator<wchar_t> > >,std::allocator<std::pair<std::basic_string<wchar_t,std::char_traits<wchar_t>,std::allocator<wchar_t> > const ,std::basic_string<wchar_t,std::char_traits<wchar_t>,std::allocator<wchar_t> > > > > >::_Nextnode
PUBLIC	?_Prevnode@?$_List_alloc@U?$_List_base_types@U?$pair@$$CBV?$basic_string@_WU?$char_traits@_W@std@@V?$allocator@_W@2@@std@@V12@@std@@V?$allocator@U?$pair@$$CBV?$basic_string@_WU?$char_traits@_W@std@@V?$allocator@_W@2@@std@@V12@@std@@@2@@std@@@std@@SAAAPAU?$_List_node@U?$pair@$$CBV?$basic_string@_WU?$char_traits@_W@std@@V?$allocator@_W@2@@std@@V12@@std@@PAX@2@PAU32@@Z ; std::_List_alloc<std::_List_base_types<std::pair<std::basic_string<wchar_t,std::char_traits<wchar_t>,std::allocator<wchar_t> > const ,std::basic_string<wchar_t,std::char_traits<wchar_t>,std::allocator<wchar_t> > >,std::allocator<std::pair<std::basic_string<wchar_t,std::char_traits<wchar_t>,std::allocator<wchar_t> > const ,std::basic_string<wchar_t,std::char_traits<wchar_t>,std::allocator<wchar_t> > > > > >::_Prevnode
PUBLIC	?_Myval@?$_List_alloc@U?$_List_base_types@U?$pair@$$CBV?$basic_string@_WU?$char_traits@_W@std@@V?$allocator@_W@2@@std@@V12@@std@@V?$allocator@U?$pair@$$CBV?$basic_string@_WU?$char_traits@_W@std@@V?$allocator@_W@2@@std@@V12@@std@@@2@@std@@@std@@SAAAU?$pair@$$CBV?$basic_string@_WU?$char_traits@_W@std@@V?$allocator@_W@2@@std@@V12@@2@PAU?$_List_node@U?$pair@$$CBV?$basic_string@_WU?$char_traits@_W@std@@V?$allocator@_W@2@@std@@V12@@std@@PAX@2@@Z ; std::_List_alloc<std::_List_base_types<std::pair<std::basic_string<wchar_t,std::char_traits<wchar_t>,std::allocator<wchar_t> > const ,std::basic_string<wchar_t,std::char_traits<wchar_t>,std::allocator<wchar_t> > >,std::allocator<std::pair<std::basic_string<wchar_t,std::char_traits<wchar_t>,std::allocator<wchar_t> > const ,std::basic_string<wchar_t,std::char_traits<wchar_t>,std::allocator<wchar_t> > > > > >::_Myval
PUBLIC	??1?$_List_alloc@U?$_List_base_types@U?$pair@$$CBV?$basic_string@_WU?$char_traits@_W@std@@V?$allocator@_W@2@@std@@V12@@std@@V?$allocator@U?$pair@$$CBV?$basic_string@_WU?$char_traits@_W@std@@V?$allocator@_W@2@@std@@V12@@std@@@2@@std@@@std@@QAE@XZ ; std::_List_alloc<std::_List_base_types<std::pair<std::basic_string<wchar_t,std::char_traits<wchar_t>,std::allocator<wchar_t> > const ,std::basic_string<wchar_t,std::char_traits<wchar_t>,std::allocator<wchar_t> > >,std::allocator<std::pair<std::basic_string<wchar_t,std::char_traits<wchar_t>,std::allocator<wchar_t> > const ,std::basic_string<wchar_t,std::char_traits<wchar_t>,std::allocator<wchar_t> > > > > >::~_List_alloc<std::_List_base_types<std::pair<std::basic_string<wchar_t,std::char_traits<wchar_t>,std::allocator<wchar_t> > const ,std::basic_string<wchar_t,std::char_traits<wchar_t>,std::allocator<wchar_t> > >,std::allocator<std::pair<std::basic_string<wchar_t,std::char_traits<wchar_t>,std::allocator<wchar_t> > const ,std::basic_string<wchar_t,std::char_traits<wchar_t>,std::allocator<wchar_t> > > > > >
PUBLIC	?_Buyheadnode@?$_List_alloc@U?$_List_base_types@U?$pair@$$CBV?$basic_string@_WU?$char_traits@_W@std@@V?$allocator@_W@2@@std@@V12@@std@@V?$allocator@U?$pair@$$CBV?$basic_string@_WU?$char_traits@_W@std@@V?$allocator@_W@2@@std@@V12@@std@@@2@@std@@@std@@QAEPAU?$_List_node@U?$pair@$$CBV?$basic_string@_WU?$char_traits@_W@std@@V?$allocator@_W@2@@std@@V12@@std@@PAX@2@XZ ; std::_List_alloc<std::_List_base_types<std::pair<std::basic_string<wchar_t,std::char_traits<wchar_t>,std::allocator<wchar_t> > const ,std::basic_string<wchar_t,std::char_traits<wchar_t>,std::allocator<wchar_t> > >,std::allocator<std::pair<std::basic_string<wchar_t,std::char_traits<wchar_t>,std::allocator<wchar_t> > const ,std::basic_string<wchar_t,std::char_traits<wchar_t>,std::allocator<wchar_t> > > > > >::_Buyheadnode
PUBLIC	?_Freeheadnode@?$_List_alloc@U?$_List_base_types@U?$pair@$$CBV?$basic_string@_WU?$char_traits@_W@std@@V?$allocator@_W@2@@std@@V12@@std@@V?$allocator@U?$pair@$$CBV?$basic_string@_WU?$char_traits@_W@std@@V?$allocator@_W@2@@std@@V12@@std@@@2@@std@@@std@@QAEXPAU?$_List_node@U?$pair@$$CBV?$basic_string@_WU?$char_traits@_W@std@@V?$allocator@_W@2@@std@@V12@@std@@PAX@2@@Z ; std::_List_alloc<std::_List_base_types<std::pair<std::basic_string<wchar_t,std::char_traits<wchar_t>,std::allocator<wchar_t> > const ,std::basic_string<wchar_t,std::char_traits<wchar_t>,std::allocator<wchar_t> > >,std::allocator<std::pair<std::basic_string<wchar_t,std::char_traits<wchar_t>,std::allocator<wchar_t> > const ,std::basic_string<wchar_t,std::char_traits<wchar_t>,std::allocator<wchar_t> > > > > >::_Freeheadnode
PUBLIC	?_Buynode0@?$_List_alloc@U?$_List_base_types@U?$pair@$$CBV?$basic_string@_WU?$char_traits@_W@std@@V?$allocator@_W@2@@std@@V12@@std@@V?$allocator@U?$pair@$$CBV?$basic_string@_WU?$char_traits@_W@std@@V?$allocator@_W@2@@std@@V12@@std@@@2@@std@@@std@@QAEPAU?$_List_node@U?$pair@$$CBV?$basic_string@_WU?$char_traits@_W@std@@V?$allocator@_W@2@@std@@V12@@std@@PAX@2@PAU32@0@Z ; std::_List_alloc<std::_List_base_types<std::pair<std::basic_string<wchar_t,std::char_traits<wchar_t>,std::allocator<wchar_t> > const ,std::basic_string<wchar_t,std::char_traits<wchar_t>,std::allocator<wchar_t> > >,std::allocator<std::pair<std::basic_string<wchar_t,std::char_traits<wchar_t>,std::allocator<wchar_t> > const ,std::basic_string<wchar_t,std::char_traits<wchar_t>,std::allocator<wchar_t> > > > > >::_Buynode0
PUBLIC	?_Getal@?$_List_alloc@U?$_List_base_types@U?$pair@$$CBV?$basic_string@_WU?$char_traits@_W@std@@V?$allocator@_W@2@@std@@V12@@std@@V?$allocator@U?$pair@$$CBV?$basic_string@_WU?$char_traits@_W@std@@V?$allocator@_W@2@@std@@V12@@std@@@2@@std@@@std@@QAEAAU?$_Wrap_alloc@V?$allocator@U?$_List_node@U?$pair@$$CBV?$basic_string@_WU?$char_traits@_W@std@@V?$allocator@_W@2@@std@@V12@@std@@PAX@std@@@std@@@2@XZ ; std::_List_alloc<std::_List_base_types<std::pair<std::basic_string<wchar_t,std::char_traits<wchar_t>,std::allocator<wchar_t> > const ,std::basic_string<wchar_t,std::char_traits<wchar_t>,std::allocator<wchar_t> > >,std::allocator<std::pair<std::basic_string<wchar_t,std::char_traits<wchar_t>,std::allocator<wchar_t> > const ,std::basic_string<wchar_t,std::char_traits<wchar_t>,std::allocator<wchar_t> > > > > >::_Getal
PUBLIC	?_Getal@?$_List_alloc@U?$_List_base_types@U?$pair@$$CBV?$basic_string@_WU?$char_traits@_W@std@@V?$allocator@_W@2@@std@@V12@@std@@V?$allocator@U?$pair@$$CBV?$basic_string@_WU?$char_traits@_W@std@@V?$allocator@_W@2@@std@@V12@@std@@@2@@std@@@std@@QBEABU?$_Wrap_alloc@V?$allocator@U?$_List_node@U?$pair@$$CBV?$basic_string@_WU?$char_traits@_W@std@@V?$allocator@_W@2@@std@@V12@@std@@PAX@std@@@std@@@2@XZ ; std::_List_alloc<std::_List_base_types<std::pair<std::basic_string<wchar_t,std::char_traits<wchar_t>,std::allocator<wchar_t> > const ,std::basic_string<wchar_t,std::char_traits<wchar_t>,std::allocator<wchar_t> > >,std::allocator<std::pair<std::basic_string<wchar_t,std::char_traits<wchar_t>,std::allocator<wchar_t> > const ,std::basic_string<wchar_t,std::char_traits<wchar_t>,std::allocator<wchar_t> > > > > >::_Getal
PUBLIC	?_Get_data@?$_List_alloc@U?$_List_base_types@U?$pair@$$CBV?$basic_string@_WU?$char_traits@_W@std@@V?$allocator@_W@2@@std@@V12@@std@@V?$allocator@U?$pair@$$CBV?$basic_string@_WU?$char_traits@_W@std@@V?$allocator@_W@2@@std@@V12@@std@@@2@@std@@@std@@QAEAAV?$_List_val@U?$_List_simple_types@U?$pair@$$CBV?$basic_string@_WU?$char_traits@_W@std@@V?$allocator@_W@2@@std@@V12@@std@@@std@@@2@XZ ; std::_List_alloc<std::_List_base_types<std::pair<std::basic_string<wchar_t,std::char_traits<wchar_t>,std::allocator<wchar_t> > const ,std::basic_string<wchar_t,std::char_traits<wchar_t>,std::allocator<wchar_t> > >,std::allocator<std::pair<std::basic_string<wchar_t,std::char_traits<wchar_t>,std::allocator<wchar_t> > const ,std::basic_string<wchar_t,std::char_traits<wchar_t>,std::allocator<wchar_t> > > > > >::_Get_data
PUBLIC	?_Get_data@?$_List_alloc@U?$_List_base_types@U?$pair@$$CBV?$basic_string@_WU?$char_traits@_W@std@@V?$allocator@_W@2@@std@@V12@@std@@V?$allocator@U?$pair@$$CBV?$basic_string@_WU?$char_traits@_W@std@@V?$allocator@_W@2@@std@@V12@@std@@@2@@std@@@std@@QBEABV?$_List_val@U?$_List_simple_types@U?$pair@$$CBV?$basic_string@_WU?$char_traits@_W@std@@V?$allocator@_W@2@@std@@V12@@std@@@std@@@2@XZ ; std::_List_alloc<std::_List_base_types<std::pair<std::basic_string<wchar_t,std::char_traits<wchar_t>,std::allocator<wchar_t> > const ,std::basic_string<wchar_t,std::char_traits<wchar_t>,std::allocator<wchar_t> > >,std::allocator<std::pair<std::basic_string<wchar_t,std::char_traits<wchar_t>,std::allocator<wchar_t> > const ,std::basic_string<wchar_t,std::char_traits<wchar_t>,std::allocator<wchar_t> > > > > >::_Get_data
PUBLIC	?_Myhead@?$_List_alloc@U?$_List_base_types@U?$pair@$$CBV?$basic_string@_WU?$char_traits@_W@std@@V?$allocator@_W@2@@std@@V12@@std@@V?$allocator@U?$pair@$$CBV?$basic_string@_WU?$char_traits@_W@std@@V?$allocator@_W@2@@std@@V12@@std@@@2@@std@@@std@@QAEAAPAU?$_List_node@U?$pair@$$CBV?$basic_string@_WU?$char_traits@_W@std@@V?$allocator@_W@2@@std@@V12@@std@@PAX@2@XZ ; std::_List_alloc<std::_List_base_types<std::pair<std::basic_string<wchar_t,std::char_traits<wchar_t>,std::allocator<wchar_t> > const ,std::basic_string<wchar_t,std::char_traits<wchar_t>,std::allocator<wchar_t> > >,std::allocator<std::pair<std::basic_string<wchar_t,std::char_traits<wchar_t>,std::allocator<wchar_t> > const ,std::basic_string<wchar_t,std::char_traits<wchar_t>,std::allocator<wchar_t> > > > > >::_Myhead
PUBLIC	?_Myhead@?$_List_alloc@U?$_List_base_types@U?$pair@$$CBV?$basic_string@_WU?$char_traits@_W@std@@V?$allocator@_W@2@@std@@V12@@std@@V?$allocator@U?$pair@$$CBV?$basic_string@_WU?$char_traits@_W@std@@V?$allocator@_W@2@@std@@V12@@std@@@2@@std@@@std@@QBEABQAU?$_List_node@U?$pair@$$CBV?$basic_string@_WU?$char_traits@_W@std@@V?$allocator@_W@2@@std@@V12@@std@@PAX@2@XZ ; std::_List_alloc<std::_List_base_types<std::pair<std::basic_string<wchar_t,std::char_traits<wchar_t>,std::allocator<wchar_t> > const ,std::basic_string<wchar_t,std::char_traits<wchar_t>,std::allocator<wchar_t> > >,std::allocator<std::pair<std::basic_string<wchar_t,std::char_traits<wchar_t>,std::allocator<wchar_t> > const ,std::basic_string<wchar_t,std::char_traits<wchar_t>,std::allocator<wchar_t> > > > > >::_Myhead
PUBLIC	?_Mysize@?$_List_alloc@U?$_List_base_types@U?$pair@$$CBV?$basic_string@_WU?$char_traits@_W@std@@V?$allocator@_W@2@@std@@V12@@std@@V?$allocator@U?$pair@$$CBV?$basic_string@_WU?$char_traits@_W@std@@V?$allocator@_W@2@@std@@V12@@std@@@2@@std@@@std@@QAEAAIXZ ; std::_List_alloc<std::_List_base_types<std::pair<std::basic_string<wchar_t,std::char_traits<wchar_t>,std::allocator<wchar_t> > const ,std::basic_string<wchar_t,std::char_traits<wchar_t>,std::allocator<wchar_t> > >,std::allocator<std::pair<std::basic_string<wchar_t,std::char_traits<wchar_t>,std::allocator<wchar_t> > const ,std::basic_string<wchar_t,std::char_traits<wchar_t>,std::allocator<wchar_t> > > > > >::_Mysize
PUBLIC	?_Mysize@?$_List_alloc@U?$_List_base_types@U?$pair@$$CBV?$basic_string@_WU?$char_traits@_W@std@@V?$allocator@_W@2@@std@@V12@@std@@V?$allocator@U?$pair@$$CBV?$basic_string@_WU?$char_traits@_W@std@@V?$allocator@_W@2@@std@@V12@@std@@@2@@std@@@std@@QBEABIXZ ; std::_List_alloc<std::_List_base_types<std::pair<std::basic_string<wchar_t,std::char_traits<wchar_t>,std::allocator<wchar_t> > const ,std::basic_string<wchar_t,std::char_traits<wchar_t>,std::allocator<wchar_t> > >,std::allocator<std::pair<std::basic_string<wchar_t,std::char_traits<wchar_t>,std::allocator<wchar_t> > const ,std::basic_string<wchar_t,std::char_traits<wchar_t>,std::allocator<wchar_t> > > > > >::_Mysize
PUBLIC	??0?$_List_val@U?$_List_simple_types@U?$pair@$$CBV?$basic_string@_WU?$char_traits@_W@std@@V?$allocator@_W@2@@std@@V12@@std@@@std@@@std@@QAE@XZ ; std::_List_val<std::_List_simple_types<std::pair<std::basic_string<wchar_t,std::char_traits<wchar_t>,std::allocator<wchar_t> > const ,std::basic_string<wchar_t,std::char_traits<wchar_t>,std::allocator<wchar_t> > > > >::_List_val<std::_List_simple_types<std::pair<std::basic_string<wchar_t,std::char_traits<wchar_t>,std::allocator<wchar_t> > const ,std::basic_string<wchar_t,std::char_traits<wchar_t>,std::allocator<wchar_t> > > > >
PUBLIC	?_Nextnode@?$_List_val@U?$_List_simple_types@U?$pair@$$CBV?$basic_string@_WU?$char_traits@_W@std@@V?$allocator@_W@2@@std@@V12@@std@@@std@@@std@@SAAAPAU?$_List_node@U?$pair@$$CBV?$basic_string@_WU?$char_traits@_W@std@@V?$allocator@_W@2@@std@@V12@@std@@PAX@2@PAU32@@Z ; std::_List_val<std::_List_simple_types<std::pair<std::basic_string<wchar_t,std::char_traits<wchar_t>,std::allocator<wchar_t> > const ,std::basic_string<wchar_t,std::char_traits<wchar_t>,std::allocator<wchar_t> > > > >::_Nextnode
PUBLIC	?_Prevnode@?$_List_val@U?$_List_simple_types@U?$pair@$$CBV?$basic_string@_WU?$char_traits@_W@std@@V?$allocator@_W@2@@std@@V12@@std@@@std@@@std@@SAAAPAU?$_List_node@U?$pair@$$CBV?$basic_string@_WU?$char_traits@_W@std@@V?$allocator@_W@2@@std@@V12@@std@@PAX@2@PAU32@@Z ; std::_List_val<std::_List_simple_types<std::pair<std::basic_string<wchar_t,std::char_traits<wchar_t>,std::allocator<wchar_t> > const ,std::basic_string<wchar_t,std::char_traits<wchar_t>,std::allocator<wchar_t> > > > >::_Prevnode
PUBLIC	?_Myval@?$_List_val@U?$_List_simple_types@U?$pair@$$CBV?$basic_string@_WU?$char_traits@_W@std@@V?$allocator@_W@2@@std@@V12@@std@@@std@@@std@@SAAAU?$pair@$$CBV?$basic_string@_WU?$char_traits@_W@std@@V?$allocator@_W@2@@std@@V12@@2@PAU?$_List_node@U?$pair@$$CBV?$basic_string@_WU?$char_traits@_W@std@@V?$allocator@_W@2@@std@@V12@@std@@PAX@2@@Z ; std::_List_val<std::_List_simple_types<std::pair<std::basic_string<wchar_t,std::char_traits<wchar_t>,std::allocator<wchar_t> > const ,std::basic_string<wchar_t,std::char_traits<wchar_t>,std::allocator<wchar_t> > > > >::_Myval
PUBLIC	?_Get_first@?$_Compressed_pair@U?$_Wrap_alloc@V?$allocator@U?$_List_node@U?$pair@$$CBV?$basic_string@_WU?$char_traits@_W@std@@V?$allocator@_W@2@@std@@V12@@std@@PAX@std@@@std@@@std@@V?$_List_val@U?$_List_simple_types@U?$pair@$$CBV?$basic_string@_WU?$char_traits@_W@std@@V?$allocator@_W@2@@std@@V12@@std@@@std@@@2@$00@std@@QAEAAU?$_Wrap_alloc@V?$allocator@U?$_List_node@U?$pair@$$CBV?$basic_string@_WU?$char_traits@_W@std@@V?$allocator@_W@2@@std@@V12@@std@@PAX@std@@@std@@@2@XZ ; std::_Compressed_pair<std::_Wrap_alloc<std::allocator<std::_List_node<std::pair<std::basic_string<wchar_t,std::char_traits<wchar_t>,std::allocator<wchar_t> > const ,std::basic_string<wchar_t,std::char_traits<wchar_t>,std::allocator<wchar_t> > >,void *> > >,std::_List_val<std::_List_simple_types<std::pair<std::basic_string<wchar_t,std::char_traits<wchar_t>,std::allocator<wchar_t> > const ,std::basic_string<wchar_t,std::char_traits<wchar_t>,std::allocator<wchar_t> > > > >,1>::_Get_first
PUBLIC	?_Get_first@?$_Compressed_pair@U?$_Wrap_alloc@V?$allocator@U?$_List_node@U?$pair@$$CBV?$basic_string@_WU?$char_traits@_W@std@@V?$allocator@_W@2@@std@@V12@@std@@PAX@std@@@std@@@std@@V?$_List_val@U?$_List_simple_types@U?$pair@$$CBV?$basic_string@_WU?$char_traits@_W@std@@V?$allocator@_W@2@@std@@V12@@std@@@std@@@2@$00@std@@QBEABU?$_Wrap_alloc@V?$allocator@U?$_List_node@U?$pair@$$CBV?$basic_string@_WU?$char_traits@_W@std@@V?$allocator@_W@2@@std@@V12@@std@@PAX@std@@@std@@@2@XZ ; std::_Compressed_pair<std::_Wrap_alloc<std::allocator<std::_List_node<std::pair<std::basic_string<wchar_t,std::char_traits<wchar_t>,std::allocator<wchar_t> > const ,std::basic_string<wchar_t,std::char_traits<wchar_t>,std::allocator<wchar_t> > >,void *> > >,std::_List_val<std::_List_simple_types<std::pair<std::basic_string<wchar_t,std::char_traits<wchar_t>,std::allocator<wchar_t> > const ,std::basic_string<wchar_t,std::char_traits<wchar_t>,std::allocator<wchar_t> > > > >,1>::_Get_first
PUBLIC	?_Get_second@?$_Compressed_pair@U?$_Wrap_alloc@V?$allocator@U?$_List_node@U?$pair@$$CBV?$basic_string@_WU?$char_traits@_W@std@@V?$allocator@_W@2@@std@@V12@@std@@PAX@std@@@std@@@std@@V?$_List_val@U?$_List_simple_types@U?$pair@$$CBV?$basic_string@_WU?$char_traits@_W@std@@V?$allocator@_W@2@@std@@V12@@std@@@std@@@2@$00@std@@QAEAAV?$_List_val@U?$_List_simple_types@U?$pair@$$CBV?$basic_string@_WU?$char_traits@_W@std@@V?$allocator@_W@2@@std@@V12@@std@@@std@@@2@XZ ; std::_Compressed_pair<std::_Wrap_alloc<std::allocator<std::_List_node<std::pair<std::basic_string<wchar_t,std::char_traits<wchar_t>,std::allocator<wchar_t> > const ,std::basic_string<wchar_t,std::char_traits<wchar_t>,std::allocator<wchar_t> > >,void *> > >,std::_List_val<std::_List_simple_types<std::pair<std::basic_string<wchar_t,std::char_traits<wchar_t>,std::allocator<wchar_t> > const ,std::basic_string<wchar_t,std::char_traits<wchar_t>,std::allocator<wchar_t> > > > >,1>::_Get_second
PUBLIC	?_Get_second@?$_Compressed_pair@U?$_Wrap_alloc@V?$allocator@U?$_List_node@U?$pair@$$CBV?$basic_string@_WU?$char_traits@_W@std@@V?$allocator@_W@2@@std@@V12@@std@@PAX@std@@@std@@@std@@V?$_List_val@U?$_List_simple_types@U?$pair@$$CBV?$basic_string@_WU?$char_traits@_W@std@@V?$allocator@_W@2@@std@@V12@@std@@@std@@@2@$00@std@@QBEABV?$_List_val@U?$_List_simple_types@U?$pair@$$CBV?$basic_string@_WU?$char_traits@_W@std@@V?$allocator@_W@2@@std@@V12@@std@@@std@@@2@XZ ; std::_Compressed_pair<std::_Wrap_alloc<std::allocator<std::_List_node<std::pair<std::basic_string<wchar_t,std::char_traits<wchar_t>,std::allocator<wchar_t> > const ,std::basic_string<wchar_t,std::char_traits<wchar_t>,std::allocator<wchar_t> > >,void *> > >,std::_List_val<std::_List_simple_types<std::pair<std::basic_string<wchar_t,std::char_traits<wchar_t>,std::allocator<wchar_t> > const ,std::basic_string<wchar_t,std::char_traits<wchar_t>,std::allocator<wchar_t> > > > >,1>::_Get_second
PUBLIC	?_Freenode@?$_List_buy@U?$pair@$$CBV?$basic_string@_WU?$char_traits@_W@std@@V?$allocator@_W@2@@std@@V12@@std@@V?$allocator@U?$pair@$$CBV?$basic_string@_WU?$char_traits@_W@std@@V?$allocator@_W@2@@std@@V12@@std@@@2@@std@@QAEXPAU?$_List_node@U?$pair@$$CBV?$basic_string@_WU?$char_traits@_W@std@@V?$allocator@_W@2@@std@@V12@@std@@PAX@2@@Z ; std::_List_buy<std::pair<std::basic_string<wchar_t,std::char_traits<wchar_t>,std::allocator<wchar_t> > const ,std::basic_string<wchar_t,std::char_traits<wchar_t>,std::allocator<wchar_t> > >,std::allocator<std::pair<std::basic_string<wchar_t,std::char_traits<wchar_t>,std::allocator<wchar_t> > const ,std::basic_string<wchar_t,std::char_traits<wchar_t>,std::allocator<wchar_t> > > > >::_Freenode
PUBLIC	??1?$_List_buy@U?$pair@$$CBV?$basic_string@_WU?$char_traits@_W@std@@V?$allocator@_W@2@@std@@V12@@std@@V?$allocator@U?$pair@$$CBV?$basic_string@_WU?$char_traits@_W@std@@V?$allocator@_W@2@@std@@V12@@std@@@2@@std@@QAE@XZ ; std::_List_buy<std::pair<std::basic_string<wchar_t,std::char_traits<wchar_t>,std::allocator<wchar_t> > const ,std::basic_string<wchar_t,std::char_traits<wchar_t>,std::allocator<wchar_t> > >,std::allocator<std::pair<std::basic_string<wchar_t,std::char_traits<wchar_t>,std::allocator<wchar_t> > const ,std::basic_string<wchar_t,std::char_traits<wchar_t>,std::allocator<wchar_t> > > > >::~_List_buy<std::pair<std::basic_string<wchar_t,std::char_traits<wchar_t>,std::allocator<wchar_t> > const ,std::basic_string<wchar_t,std::char_traits<wchar_t>,std::allocator<wchar_t> > >,std::allocator<std::pair<std::basic_string<wchar_t,std::char_traits<wchar_t>,std::allocator<wchar_t> > const ,std::basic_string<wchar_t,std::char_traits<wchar_t>,std::allocator<wchar_t> > > > >
PUBLIC	??0?$list@U?$pair@$$CBV?$basic_string@_WU?$char_traits@_W@std@@V?$allocator@_W@2@@std@@V12@@std@@V?$allocator@U?$pair@$$CBV?$basic_string@_WU?$char_traits@_W@std@@V?$allocator@_W@2@@std@@V12@@std@@@2@@std@@QAE@ABV?$allocator@U?$pair@$$CBV?$basic_string@_WU?$char_traits@_W@std@@V?$allocator@_W@2@@std@@V12@@std@@@1@@Z ; std::list<std::pair<std::basic_string<wchar_t,std::char_traits<wchar_t>,std::allocator<wchar_t> > const ,std::basic_string<wchar_t,std::char_traits<wchar_t>,std::allocator<wchar_t> > >,std::allocator<std::pair<std::basic_string<wchar_t,std::char_traits<wchar_t>,std::allocator<wchar_t> > const ,std::basic_string<wchar_t,std::char_traits<wchar_t>,std::allocator<wchar_t> > > > >::list<std::pair<std::basic_string<wchar_t,std::char_traits<wchar_t>,std::allocator<wchar_t> > const ,std::basic_string<wchar_t,std::char_traits<wchar_t>,std::allocator<wchar_t> > >,std::allocator<std::pair<std::basic_string<wchar_t,std::char_traits<wchar_t>,std::allocator<wchar_t> > const ,std::basic_string<wchar_t,std::char_traits<wchar_t>,std::allocator<wchar_t> > > > >
PUBLIC	??1?$list@U?$pair@$$CBV?$basic_string@_WU?$char_traits@_W@std@@V?$allocator@_W@2@@std@@V12@@std@@V?$allocator@U?$pair@$$CBV?$basic_string@_WU?$char_traits@_W@std@@V?$allocator@_W@2@@std@@V12@@std@@@2@@std@@QAE@XZ ; std::list<std::pair<std::basic_string<wchar_t,std::char_traits<wchar_t>,std::allocator<wchar_t> > const ,std::basic_string<wchar_t,std::char_traits<wchar_t>,std::allocator<wchar_t> > >,std::allocator<std::pair<std::basic_string<wchar_t,std::char_traits<wchar_t>,std::allocator<wchar_t> > const ,std::basic_string<wchar_t,std::char_traits<wchar_t>,std::allocator<wchar_t> > > > >::~list<std::pair<std::basic_string<wchar_t,std::char_traits<wchar_t>,std::allocator<wchar_t> > const ,std::basic_string<wchar_t,std::char_traits<wchar_t>,std::allocator<wchar_t> > >,std::allocator<std::pair<std::basic_string<wchar_t,std::char_traits<wchar_t>,std::allocator<wchar_t> > const ,std::basic_string<wchar_t,std::char_traits<wchar_t>,std::allocator<wchar_t> > > > >
PUBLIC	?begin@?$list@U?$pair@$$CBV?$basic_string@_WU?$char_traits@_W@std@@V?$allocator@_W@2@@std@@V12@@std@@V?$allocator@U?$pair@$$CBV?$basic_string@_WU?$char_traits@_W@std@@V?$allocator@_W@2@@std@@V12@@std@@@2@@std@@QAE?AV?$_List_iterator@V?$_List_val@U?$_List_simple_types@U?$pair@$$CBV?$basic_string@_WU?$char_traits@_W@std@@V?$allocator@_W@2@@std@@V12@@std@@@std@@@std@@@2@XZ ; std::list<std::pair<std::basic_string<wchar_t,std::char_traits<wchar_t>,std::allocator<wchar_t> > const ,std::basic_string<wchar_t,std::char_traits<wchar_t>,std::allocator<wchar_t> > >,std::allocator<std::pair<std::basic_string<wchar_t,std::char_traits<wchar_t>,std::allocator<wchar_t> > const ,std::basic_string<wchar_t,std::char_traits<wchar_t>,std::allocator<wchar_t> > > > >::begin
PUBLIC	?begin@?$list@U?$pair@$$CBV?$basic_string@_WU?$char_traits@_W@std@@V?$allocator@_W@2@@std@@V12@@std@@V?$allocator@U?$pair@$$CBV?$basic_string@_WU?$char_traits@_W@std@@V?$allocator@_W@2@@std@@V12@@std@@@2@@std@@QBE?AV?$_List_const_iterator@V?$_List_val@U?$_List_simple_types@U?$pair@$$CBV?$basic_string@_WU?$char_traits@_W@std@@V?$allocator@_W@2@@std@@V12@@std@@@std@@@std@@@2@XZ ; std::list<std::pair<std::basic_string<wchar_t,std::char_traits<wchar_t>,std::allocator<wchar_t> > const ,std::basic_string<wchar_t,std::char_traits<wchar_t>,std::allocator<wchar_t> > >,std::allocator<std::pair<std::basic_string<wchar_t,std::char_traits<wchar_t>,std::allocator<wchar_t> > const ,std::basic_string<wchar_t,std::char_traits<wchar_t>,std::allocator<wchar_t> > > > >::begin
PUBLIC	?end@?$list@U?$pair@$$CBV?$basic_string@_WU?$char_traits@_W@std@@V?$allocator@_W@2@@std@@V12@@std@@V?$allocator@U?$pair@$$CBV?$basic_string@_WU?$char_traits@_W@std@@V?$allocator@_W@2@@std@@V12@@std@@@2@@std@@QBE?AV?$_List_const_iterator@V?$_List_val@U?$_List_simple_types@U?$pair@$$CBV?$basic_string@_WU?$char_traits@_W@std@@V?$allocator@_W@2@@std@@V12@@std@@@std@@@std@@@2@XZ ; std::list<std::pair<std::basic_string<wchar_t,std::char_traits<wchar_t>,std::allocator<wchar_t> > const ,std::basic_string<wchar_t,std::char_traits<wchar_t>,std::allocator<wchar_t> > >,std::allocator<std::pair<std::basic_string<wchar_t,std::char_traits<wchar_t>,std::allocator<wchar_t> > const ,std::basic_string<wchar_t,std::char_traits<wchar_t>,std::allocator<wchar_t> > > > >::end
PUBLIC	?_Unchecked_begin@?$list@U?$pair@$$CBV?$basic_string@_WU?$char_traits@_W@std@@V?$allocator@_W@2@@std@@V12@@std@@V?$allocator@U?$pair@$$CBV?$basic_string@_WU?$char_traits@_W@std@@V?$allocator@_W@2@@std@@V12@@std@@@2@@std@@QAE?AV?$_List_unchecked_iterator@V?$_List_val@U?$_List_simple_types@U?$pair@$$CBV?$basic_string@_WU?$char_traits@_W@std@@V?$allocator@_W@2@@std@@V12@@std@@@std@@@std@@@2@XZ ; std::list<std::pair<std::basic_string<wchar_t,std::char_traits<wchar_t>,std::allocator<wchar_t> > const ,std::basic_string<wchar_t,std::char_traits<wchar_t>,std::allocator<wchar_t> > >,std::allocator<std::pair<std::basic_string<wchar_t,std::char_traits<wchar_t>,std::allocator<wchar_t> > const ,std::basic_string<wchar_t,std::char_traits<wchar_t>,std::allocator<wchar_t> > > > >::_Unchecked_begin
PUBLIC	?_Unchecked_end@?$list@U?$pair@$$CBV?$basic_string@_WU?$char_traits@_W@std@@V?$allocator@_W@2@@std@@V12@@std@@V?$allocator@U?$pair@$$CBV?$basic_string@_WU?$char_traits@_W@std@@V?$allocator@_W@2@@std@@V12@@std@@@2@@std@@QAE?AV?$_List_unchecked_iterator@V?$_List_val@U?$_List_simple_types@U?$pair@$$CBV?$basic_string@_WU?$char_traits@_W@std@@V?$allocator@_W@2@@std@@V12@@std@@@std@@@std@@@2@XZ ; std::list<std::pair<std::basic_string<wchar_t,std::char_traits<wchar_t>,std::allocator<wchar_t> > const ,std::basic_string<wchar_t,std::char_traits<wchar_t>,std::allocator<wchar_t> > >,std::allocator<std::pair<std::basic_string<wchar_t,std::char_traits<wchar_t>,std::allocator<wchar_t> > const ,std::basic_string<wchar_t,std::char_traits<wchar_t>,std::allocator<wchar_t> > > > >::_Unchecked_end
PUBLIC	?_Make_iter@?$list@U?$pair@$$CBV?$basic_string@_WU?$char_traits@_W@std@@V?$allocator@_W@2@@std@@V12@@std@@V?$allocator@U?$pair@$$CBV?$basic_string@_WU?$char_traits@_W@std@@V?$allocator@_W@2@@std@@V12@@std@@@2@@std@@QBE?AV?$_List_iterator@V?$_List_val@U?$_List_simple_types@U?$pair@$$CBV?$basic_string@_WU?$char_traits@_W@std@@V?$allocator@_W@2@@std@@V12@@std@@@std@@@std@@@2@V?$_List_const_iterator@V?$_List_val@U?$_List_simple_types@U?$pair@$$CBV?$basic_string@_WU?$char_traits@_W@std@@V?$allocator@_W@2@@std@@V12@@std@@@std@@@std@@@2@@Z ; std::list<std::pair<std::basic_string<wchar_t,std::char_traits<wchar_t>,std::allocator<wchar_t> > const ,std::basic_string<wchar_t,std::char_traits<wchar_t>,std::allocator<wchar_t> > >,std::allocator<std::pair<std::basic_string<wchar_t,std::char_traits<wchar_t>,std::allocator<wchar_t> > const ,std::basic_string<wchar_t,std::char_traits<wchar_t>,std::allocator<wchar_t> > > > >::_Make_iter
PUBLIC	?_Make_iter@?$list@U?$pair@$$CBV?$basic_string@_WU?$char_traits@_W@std@@V?$allocator@_W@2@@std@@V12@@std@@V?$allocator@U?$pair@$$CBV?$basic_string@_WU?$char_traits@_W@std@@V?$allocator@_W@2@@std@@V12@@std@@@2@@std@@QBE?AV?$_List_iterator@V?$_List_val@U?$_List_simple_types@U?$pair@$$CBV?$basic_string@_WU?$char_traits@_W@std@@V?$allocator@_W@2@@std@@V12@@std@@@std@@@std@@@2@V?$_List_unchecked_const_iterator@V?$_List_val@U?$_List_simple_types@U?$pair@$$CBV?$basic_string@_WU?$char_traits@_W@std@@V?$allocator@_W@2@@std@@V12@@std@@@std@@@std@@U_Iterator_base0@2@@2@@Z ; std::list<std::pair<std::basic_string<wchar_t,std::char_traits<wchar_t>,std::allocator<wchar_t> > const ,std::basic_string<wchar_t,std::char_traits<wchar_t>,std::allocator<wchar_t> > >,std::allocator<std::pair<std::basic_string<wchar_t,std::char_traits<wchar_t>,std::allocator<wchar_t> > const ,std::basic_string<wchar_t,std::char_traits<wchar_t>,std::allocator<wchar_t> > > > >::_Make_iter
PUBLIC	?size@?$list@U?$pair@$$CBV?$basic_string@_WU?$char_traits@_W@std@@V?$allocator@_W@2@@std@@V12@@std@@V?$allocator@U?$pair@$$CBV?$basic_string@_WU?$char_traits@_W@std@@V?$allocator@_W@2@@std@@V12@@std@@@2@@std@@QBEIXZ ; std::list<std::pair<std::basic_string<wchar_t,std::char_traits<wchar_t>,std::allocator<wchar_t> > const ,std::basic_string<wchar_t,std::char_traits<wchar_t>,std::allocator<wchar_t> > >,std::allocator<std::pair<std::basic_string<wchar_t,std::char_traits<wchar_t>,std::allocator<wchar_t> > const ,std::basic_string<wchar_t,std::char_traits<wchar_t>,std::allocator<wchar_t> > > > >::size
PUBLIC	?max_size@?$list@U?$pair@$$CBV?$basic_string@_WU?$char_traits@_W@std@@V?$allocator@_W@2@@std@@V12@@std@@V?$allocator@U?$pair@$$CBV?$basic_string@_WU?$char_traits@_W@std@@V?$allocator@_W@2@@std@@V12@@std@@@2@@std@@QBEIXZ ; std::list<std::pair<std::basic_string<wchar_t,std::char_traits<wchar_t>,std::allocator<wchar_t> > const ,std::basic_string<wchar_t,std::char_traits<wchar_t>,std::allocator<wchar_t> > >,std::allocator<std::pair<std::basic_string<wchar_t,std::char_traits<wchar_t>,std::allocator<wchar_t> > const ,std::basic_string<wchar_t,std::char_traits<wchar_t>,std::allocator<wchar_t> > > > >::max_size
PUBLIC	?front@?$list@U?$pair@$$CBV?$basic_string@_WU?$char_traits@_W@std@@V?$allocator@_W@2@@std@@V12@@std@@V?$allocator@U?$pair@$$CBV?$basic_string@_WU?$char_traits@_W@std@@V?$allocator@_W@2@@std@@V12@@std@@@2@@std@@QAEAAU?$pair@$$CBV?$basic_string@_WU?$char_traits@_W@std@@V?$allocator@_W@2@@std@@V12@@2@XZ ; std::list<std::pair<std::basic_string<wchar_t,std::char_traits<wchar_t>,std::allocator<wchar_t> > const ,std::basic_string<wchar_t,std::char_traits<wchar_t>,std::allocator<wchar_t> > >,std::allocator<std::pair<std::basic_string<wchar_t,std::char_traits<wchar_t>,std::allocator<wchar_t> > const ,std::basic_string<wchar_t,std::char_traits<wchar_t>,std::allocator<wchar_t> > > > >::front
PUBLIC	?_Unlinknode@?$list@U?$pair@$$CBV?$basic_string@_WU?$char_traits@_W@std@@V?$allocator@_W@2@@std@@V12@@std@@V?$allocator@U?$pair@$$CBV?$basic_string@_WU?$char_traits@_W@std@@V?$allocator@_W@2@@std@@V12@@std@@@2@@std@@QAEPAU?$_List_node@U?$pair@$$CBV?$basic_string@_WU?$char_traits@_W@std@@V?$allocator@_W@2@@std@@V12@@std@@PAX@2@V?$_List_const_iterator@V?$_List_val@U?$_List_simple_types@U?$pair@$$CBV?$basic_string@_WU?$char_traits@_W@std@@V?$allocator@_W@2@@std@@V12@@std@@@std@@@std@@@2@@Z ; std::list<std::pair<std::basic_string<wchar_t,std::char_traits<wchar_t>,std::allocator<wchar_t> > const ,std::basic_string<wchar_t,std::char_traits<wchar_t>,std::allocator<wchar_t> > >,std::allocator<std::pair<std::basic_string<wchar_t,std::char_traits<wchar_t>,std::allocator<wchar_t> > const ,std::basic_string<wchar_t,std::char_traits<wchar_t>,std::allocator<wchar_t> > > > >::_Unlinknode
PUBLIC	?erase@?$list@U?$pair@$$CBV?$basic_string@_WU?$char_traits@_W@std@@V?$allocator@_W@2@@std@@V12@@std@@V?$allocator@U?$pair@$$CBV?$basic_string@_WU?$char_traits@_W@std@@V?$allocator@_W@2@@std@@V12@@std@@@2@@std@@QAE?AV?$_List_iterator@V?$_List_val@U?$_List_simple_types@U?$pair@$$CBV?$basic_string@_WU?$char_traits@_W@std@@V?$allocator@_W@2@@std@@V12@@std@@@std@@@std@@@2@V?$_List_const_iterator@V?$_List_val@U?$_List_simple_types@U?$pair@$$CBV?$basic_string@_WU?$char_traits@_W@std@@V?$allocator@_W@2@@std@@V12@@std@@@std@@@std@@@2@@Z ; std::list<std::pair<std::basic_string<wchar_t,std::char_traits<wchar_t>,std::allocator<wchar_t> > const ,std::basic_string<wchar_t,std::char_traits<wchar_t>,std::allocator<wchar_t> > >,std::allocator<std::pair<std::basic_string<wchar_t,std::char_traits<wchar_t>,std::allocator<wchar_t> > const ,std::basic_string<wchar_t,std::char_traits<wchar_t>,std::allocator<wchar_t> > > > >::erase
PUBLIC	?clear@?$list@U?$pair@$$CBV?$basic_string@_WU?$char_traits@_W@std@@V?$allocator@_W@2@@std@@V12@@std@@V?$allocator@U?$pair@$$CBV?$basic_string@_WU?$char_traits@_W@std@@V?$allocator@_W@2@@std@@V12@@std@@@2@@std@@QAEXXZ ; std::list<std::pair<std::basic_string<wchar_t,std::char_traits<wchar_t>,std::allocator<wchar_t> > const ,std::basic_string<wchar_t,std::char_traits<wchar_t>,std::allocator<wchar_t> > >,std::allocator<std::pair<std::basic_string<wchar_t,std::char_traits<wchar_t>,std::allocator<wchar_t> > const ,std::basic_string<wchar_t,std::char_traits<wchar_t>,std::allocator<wchar_t> > > > >::clear
PUBLIC	?_Unchecked_splice@?$list@U?$pair@$$CBV?$basic_string@_WU?$char_traits@_W@std@@V?$allocator@_W@2@@std@@V12@@std@@V?$allocator@U?$pair@$$CBV?$basic_string@_WU?$char_traits@_W@std@@V?$allocator@_W@2@@std@@V12@@std@@@2@@std@@QAEXV?$_List_unchecked_const_iterator@V?$_List_val@U?$_List_simple_types@U?$pair@$$CBV?$basic_string@_WU?$char_traits@_W@std@@V?$allocator@_W@2@@std@@V12@@std@@@std@@@std@@U_Iterator_base0@2@@2@00@Z ; std::list<std::pair<std::basic_string<wchar_t,std::char_traits<wchar_t>,std::allocator<wchar_t> > const ,std::basic_string<wchar_t,std::char_traits<wchar_t>,std::allocator<wchar_t> > >,std::allocator<std::pair<std::basic_string<wchar_t,std::char_traits<wchar_t>,std::allocator<wchar_t> > const ,std::basic_string<wchar_t,std::char_traits<wchar_t>,std::allocator<wchar_t> > > > >::_Unchecked_splice
PUBLIC	?_Tidy@?$list@U?$pair@$$CBV?$basic_string@_WU?$char_traits@_W@std@@V?$allocator@_W@2@@std@@V12@@std@@V?$allocator@U?$pair@$$CBV?$basic_string@_WU?$char_traits@_W@std@@V?$allocator@_W@2@@std@@V12@@std@@@2@@std@@QAEXXZ ; std::list<std::pair<std::basic_string<wchar_t,std::char_traits<wchar_t>,std::allocator<wchar_t> > const ,std::basic_string<wchar_t,std::char_traits<wchar_t>,std::allocator<wchar_t> > >,std::allocator<std::pair<std::basic_string<wchar_t,std::char_traits<wchar_t>,std::allocator<wchar_t> > const ,std::basic_string<wchar_t,std::char_traits<wchar_t>,std::allocator<wchar_t> > > > >::_Tidy
PUBLIC	?_Incsize@?$list@U?$pair@$$CBV?$basic_string@_WU?$char_traits@_W@std@@V?$allocator@_W@2@@std@@V12@@std@@V?$allocator@U?$pair@$$CBV?$basic_string@_WU?$char_traits@_W@std@@V?$allocator@_W@2@@std@@V12@@std@@@2@@std@@QAEXI@Z ; std::list<std::pair<std::basic_string<wchar_t,std::char_traits<wchar_t>,std::allocator<wchar_t> > const ,std::basic_string<wchar_t,std::char_traits<wchar_t>,std::allocator<wchar_t> > >,std::allocator<std::pair<std::basic_string<wchar_t,std::char_traits<wchar_t>,std::allocator<wchar_t> > const ,std::basic_string<wchar_t,std::char_traits<wchar_t>,std::allocator<wchar_t> > > > >::_Incsize
PUBLIC	??1?$_Hash@V?$_Umap_traits@V?$basic_string@_WU?$char_traits@_W@std@@V?$allocator@_W@2@@std@@V12@V?$_Uhash_compare@V?$basic_string@_WU?$char_traits@_W@std@@V?$allocator@_W@2@@std@@U?$hash@V?$basic_string@_WU?$char_traits@_W@std@@V?$allocator@_W@2@@std@@@2@U?$equal_to@V?$basic_string@_WU?$char_traits@_W@std@@V?$allocator@_W@2@@std@@@2@@2@V?$allocator@U?$pair@$$CBV?$basic_string@_WU?$char_traits@_W@std@@V?$allocator@_W@2@@std@@V12@@std@@@2@$0A@@std@@@std@@QAE@XZ ; std::_Hash<std::_Umap_traits<std::basic_string<wchar_t,std::char_traits<wchar_t>,std::allocator<wchar_t> >,std::basic_string<wchar_t,std::char_traits<wchar_t>,std::allocator<wchar_t> >,std::_Uhash_compare<std::basic_string<wchar_t,std::char_traits<wchar_t>,std::allocator<wchar_t> >,std::hash<std::basic_string<wchar_t,std::char_traits<wchar_t>,std::allocator<wchar_t> > >,std::equal_to<std::basic_string<wchar_t,std::char_traits<wchar_t>,std::allocator<wchar_t> > > >,std::allocator<std::pair<std::basic_string<wchar_t,std::char_traits<wchar_t>,std::allocator<wchar_t> > const ,std::basic_string<wchar_t,std::char_traits<wchar_t>,std::allocator<wchar_t> > > >,0> >::~_Hash<std::_Umap_traits<std::basic_string<wchar_t,std::char_traits<wchar_t>,std::allocator<wchar_t> >,std::basic_string<wchar_t,std::char_traits<wchar_t>,std::allocator<wchar_t> >,std::_Uhash_compare<std::basic_string<wchar_t,std::char_traits<wchar_t>,std::allocator<wchar_t> >,std::hash<std::basic_string<wchar_t,std::char_traits<wchar_t>,std::allocator<wchar_t> > >,std::equal_to<std::basic_string<wchar_t,std::char_traits<wchar_t>,std::allocator<wchar_t> > > >,std::allocator<std::pair<std::basic_string<wchar_t,std::char_traits<wchar_t>,std::allocator<wchar_t> > const ,std::basic_string<wchar_t,std::char_traits<wchar_t>,std::allocator<wchar_t> > > >,0> >
PUBLIC	?begin@?$_Hash@V?$_Umap_traits@V?$basic_string@_WU?$char_traits@_W@std@@V?$allocator@_W@2@@std@@V12@V?$_Uhash_compare@V?$basic_string@_WU?$char_traits@_W@std@@V?$allocator@_W@2@@std@@U?$hash@V?$basic_string@_WU?$char_traits@_W@std@@V?$allocator@_W@2@@std@@@2@U?$equal_to@V?$basic_string@_WU?$char_traits@_W@std@@V?$allocator@_W@2@@std@@@2@@2@V?$allocator@U?$pair@$$CBV?$basic_string@_WU?$char_traits@_W@std@@V?$allocator@_W@2@@std@@V12@@std@@@2@$0A@@std@@@std@@QBE?AV?$_List_const_iterator@V?$_List_val@U?$_List_simple_types@U?$pair@$$CBV?$basic_string@_WU?$char_traits@_W@std@@V?$allocator@_W@2@@std@@V12@@std@@@std@@@std@@@2@XZ ; std::_Hash<std::_Umap_traits<std::basic_string<wchar_t,std::char_traits<wchar_t>,std::allocator<wchar_t> >,std::basic_string<wchar_t,std::char_traits<wchar_t>,std::allocator<wchar_t> >,std::_Uhash_compare<std::basic_string<wchar_t,std::char_traits<wchar_t>,std::allocator<wchar_t> >,std::hash<std::basic_string<wchar_t,std::char_traits<wchar_t>,std::allocator<wchar_t> > >,std::equal_to<std::basic_string<wchar_t,std::char_traits<wchar_t>,std::allocator<wchar_t> > > >,std::allocator<std::pair<std::basic_string<wchar_t,std::char_traits<wchar_t>,std::allocator<wchar_t> > const ,std::basic_string<wchar_t,std::char_traits<wchar_t>,std::allocator<wchar_t> > > >,0> >::begin
PUBLIC	?end@?$_Hash@V?$_Umap_traits@V?$basic_string@_WU?$char_traits@_W@std@@V?$allocator@_W@2@@std@@V12@V?$_Uhash_compare@V?$basic_string@_WU?$char_traits@_W@std@@V?$allocator@_W@2@@std@@U?$hash@V?$basic_string@_WU?$char_traits@_W@std@@V?$allocator@_W@2@@std@@@2@U?$equal_to@V?$basic_string@_WU?$char_traits@_W@std@@V?$allocator@_W@2@@std@@@2@@2@V?$allocator@U?$pair@$$CBV?$basic_string@_WU?$char_traits@_W@std@@V?$allocator@_W@2@@std@@V12@@std@@@2@$0A@@std@@@std@@QBE?AV?$_List_const_iterator@V?$_List_val@U?$_List_simple_types@U?$pair@$$CBV?$basic_string@_WU?$char_traits@_W@std@@V?$allocator@_W@2@@std@@V12@@std@@@std@@@std@@@2@XZ ; std::_Hash<std::_Umap_traits<std::basic_string<wchar_t,std::char_traits<wchar_t>,std::allocator<wchar_t> >,std::basic_string<wchar_t,std::char_traits<wchar_t>,std::allocator<wchar_t> >,std::_Uhash_compare<std::basic_string<wchar_t,std::char_traits<wchar_t>,std::allocator<wchar_t> >,std::hash<std::basic_string<wchar_t,std::char_traits<wchar_t>,std::allocator<wchar_t> > >,std::equal_to<std::basic_string<wchar_t,std::char_traits<wchar_t>,std::allocator<wchar_t> > > >,std::allocator<std::pair<std::basic_string<wchar_t,std::char_traits<wchar_t>,std::allocator<wchar_t> > const ,std::basic_string<wchar_t,std::char_traits<wchar_t>,std::allocator<wchar_t> > > >,0> >::end
PUBLIC	?_Unchecked_begin@?$_Hash@V?$_Umap_traits@V?$basic_string@_WU?$char_traits@_W@std@@V?$allocator@_W@2@@std@@V12@V?$_Uhash_compare@V?$basic_string@_WU?$char_traits@_W@std@@V?$allocator@_W@2@@std@@U?$hash@V?$basic_string@_WU?$char_traits@_W@std@@V?$allocator@_W@2@@std@@@2@U?$equal_to@V?$basic_string@_WU?$char_traits@_W@std@@V?$allocator@_W@2@@std@@@2@@2@V?$allocator@U?$pair@$$CBV?$basic_string@_WU?$char_traits@_W@std@@V?$allocator@_W@2@@std@@V12@@std@@@2@$0A@@std@@@std@@QAE?AV?$_List_unchecked_iterator@V?$_List_val@U?$_List_simple_types@U?$pair@$$CBV?$basic_string@_WU?$char_traits@_W@std@@V?$allocator@_W@2@@std@@V12@@std@@@std@@@std@@@2@XZ ; std::_Hash<std::_Umap_traits<std::basic_string<wchar_t,std::char_traits<wchar_t>,std::allocator<wchar_t> >,std::basic_string<wchar_t,std::char_traits<wchar_t>,std::allocator<wchar_t> >,std::_Uhash_compare<std::basic_string<wchar_t,std::char_traits<wchar_t>,std::allocator<wchar_t> >,std::hash<std::basic_string<wchar_t,std::char_traits<wchar_t>,std::allocator<wchar_t> > >,std::equal_to<std::basic_string<wchar_t,std::char_traits<wchar_t>,std::allocator<wchar_t> > > >,std::allocator<std::pair<std::basic_string<wchar_t,std::char_traits<wchar_t>,std::allocator<wchar_t> > const ,std::basic_string<wchar_t,std::char_traits<wchar_t>,std::allocator<wchar_t> > > >,0> >::_Unchecked_begin
PUBLIC	?_Unchecked_end@?$_Hash@V?$_Umap_traits@V?$basic_string@_WU?$char_traits@_W@std@@V?$allocator@_W@2@@std@@V12@V?$_Uhash_compare@V?$basic_string@_WU?$char_traits@_W@std@@V?$allocator@_W@2@@std@@U?$hash@V?$basic_string@_WU?$char_traits@_W@std@@V?$allocator@_W@2@@std@@@2@U?$equal_to@V?$basic_string@_WU?$char_traits@_W@std@@V?$allocator@_W@2@@std@@@2@@2@V?$allocator@U?$pair@$$CBV?$basic_string@_WU?$char_traits@_W@std@@V?$allocator@_W@2@@std@@V12@@std@@@2@$0A@@std@@@std@@QAE?AV?$_List_unchecked_iterator@V?$_List_val@U?$_List_simple_types@U?$pair@$$CBV?$basic_string@_WU?$char_traits@_W@std@@V?$allocator@_W@2@@std@@V12@@std@@@std@@@std@@@2@XZ ; std::_Hash<std::_Umap_traits<std::basic_string<wchar_t,std::char_traits<wchar_t>,std::allocator<wchar_t> >,std::basic_string<wchar_t,std::char_traits<wchar_t>,std::allocator<wchar_t> >,std::_Uhash_compare<std::basic_string<wchar_t,std::char_traits<wchar_t>,std::allocator<wchar_t> >,std::hash<std::basic_string<wchar_t,std::char_traits<wchar_t>,std::allocator<wchar_t> > >,std::equal_to<std::basic_string<wchar_t,std::char_traits<wchar_t>,std::allocator<wchar_t> > > >,std::allocator<std::pair<std::basic_string<wchar_t,std::char_traits<wchar_t>,std::allocator<wchar_t> > const ,std::basic_string<wchar_t,std::char_traits<wchar_t>,std::allocator<wchar_t> > > >,0> >::_Unchecked_end
PUBLIC	?_Make_iter@?$_Hash@V?$_Umap_traits@V?$basic_string@_WU?$char_traits@_W@std@@V?$allocator@_W@2@@std@@V12@V?$_Uhash_compare@V?$basic_string@_WU?$char_traits@_W@std@@V?$allocator@_W@2@@std@@U?$hash@V?$basic_string@_WU?$char_traits@_W@std@@V?$allocator@_W@2@@std@@@2@U?$equal_to@V?$basic_string@_WU?$char_traits@_W@std@@V?$allocator@_W@2@@std@@@2@@2@V?$allocator@U?$pair@$$CBV?$basic_string@_WU?$char_traits@_W@std@@V?$allocator@_W@2@@std@@V12@@std@@@2@$0A@@std@@@std@@QBE?AV?$_List_iterator@V?$_List_val@U?$_List_simple_types@U?$pair@$$CBV?$basic_string@_WU?$char_traits@_W@std@@V?$allocator@_W@2@@std@@V12@@std@@@std@@@std@@@2@V?$_List_unchecked_const_iterator@V?$_List_val@U?$_List_simple_types@U?$pair@$$CBV?$basic_string@_WU?$char_traits@_W@std@@V?$allocator@_W@2@@std@@V12@@std@@@std@@@std@@U_Iterator_base0@2@@2@@Z ; std::_Hash<std::_Umap_traits<std::basic_string<wchar_t,std::char_traits<wchar_t>,std::allocator<wchar_t> >,std::basic_string<wchar_t,std::char_traits<wchar_t>,std::allocator<wchar_t> >,std::_Uhash_compare<std::basic_string<wchar_t,std::char_traits<wchar_t>,std::allocator<wchar_t> >,std::hash<std::basic_string<wchar_t,std::char_traits<wchar_t>,std::allocator<wchar_t> > >,std::equal_to<std::basic_string<wchar_t,std::char_traits<wchar_t>,std::allocator<wchar_t> > > >,std::allocator<std::pair<std::basic_string<wchar_t,std::char_traits<wchar_t>,std::allocator<wchar_t> > const ,std::basic_string<wchar_t,std::char_traits<wchar_t>,std::allocator<wchar_t> > > >,0> >::_Make_iter
PUBLIC	?_Make_iter@?$_Hash@V?$_Umap_traits@V?$basic_string@_WU?$char_traits@_W@std@@V?$allocator@_W@2@@std@@V12@V?$_Uhash_compare@V?$basic_string@_WU?$char_traits@_W@std@@V?$allocator@_W@2@@std@@U?$hash@V?$basic_string@_WU?$char_traits@_W@std@@V?$allocator@_W@2@@std@@@2@U?$equal_to@V?$basic_string@_WU?$char_traits@_W@std@@V?$allocator@_W@2@@std@@@2@@2@V?$allocator@U?$pair@$$CBV?$basic_string@_WU?$char_traits@_W@std@@V?$allocator@_W@2@@std@@V12@@std@@@2@$0A@@std@@@std@@QBE?AV?$_List_iterator@V?$_List_val@U?$_List_simple_types@U?$pair@$$CBV?$basic_string@_WU?$char_traits@_W@std@@V?$allocator@_W@2@@std@@V12@@std@@@std@@@std@@@2@V?$_List_const_iterator@V?$_List_val@U?$_List_simple_types@U?$pair@$$CBV?$basic_string@_WU?$char_traits@_W@std@@V?$allocator@_W@2@@std@@V12@@std@@@std@@@std@@@2@@Z ; std::_Hash<std::_Umap_traits<std::basic_string<wchar_t,std::char_traits<wchar_t>,std::allocator<wchar_t> >,std::basic_string<wchar_t,std::char_traits<wchar_t>,std::allocator<wchar_t> >,std::_Uhash_compare<std::basic_string<wchar_t,std::char_traits<wchar_t>,std::allocator<wchar_t> >,std::hash<std::basic_string<wchar_t,std::char_traits<wchar_t>,std::allocator<wchar_t> > >,std::equal_to<std::basic_string<wchar_t,std::char_traits<wchar_t>,std::allocator<wchar_t> > > >,std::allocator<std::pair<std::basic_string<wchar_t,std::char_traits<wchar_t>,std::allocator<wchar_t> > const ,std::basic_string<wchar_t,std::char_traits<wchar_t>,std::allocator<wchar_t> > > >,0> >::_Make_iter
PUBLIC	?size@?$_Hash@V?$_Umap_traits@V?$basic_string@_WU?$char_traits@_W@std@@V?$allocator@_W@2@@std@@V12@V?$_Uhash_compare@V?$basic_string@_WU?$char_traits@_W@std@@V?$allocator@_W@2@@std@@U?$hash@V?$basic_string@_WU?$char_traits@_W@std@@V?$allocator@_W@2@@std@@@2@U?$equal_to@V?$basic_string@_WU?$char_traits@_W@std@@V?$allocator@_W@2@@std@@@2@@2@V?$allocator@U?$pair@$$CBV?$basic_string@_WU?$char_traits@_W@std@@V?$allocator@_W@2@@std@@V12@@std@@@2@$0A@@std@@@std@@QBEIXZ ; std::_Hash<std::_Umap_traits<std::basic_string<wchar_t,std::char_traits<wchar_t>,std::allocator<wchar_t> >,std::basic_string<wchar_t,std::char_traits<wchar_t>,std::allocator<wchar_t> >,std::_Uhash_compare<std::basic_string<wchar_t,std::char_traits<wchar_t>,std::allocator<wchar_t> >,std::hash<std::basic_string<wchar_t,std::char_traits<wchar_t>,std::allocator<wchar_t> > >,std::equal_to<std::basic_string<wchar_t,std::char_traits<wchar_t>,std::allocator<wchar_t> > > >,std::allocator<std::pair<std::basic_string<wchar_t,std::char_traits<wchar_t>,std::allocator<wchar_t> > const ,std::basic_string<wchar_t,std::char_traits<wchar_t>,std::allocator<wchar_t> > > >,0> >::size
PUBLIC	?bucket_count@?$_Hash@V?$_Umap_traits@V?$basic_string@_WU?$char_traits@_W@std@@V?$allocator@_W@2@@std@@V12@V?$_Uhash_compare@V?$basic_string@_WU?$char_traits@_W@std@@V?$allocator@_W@2@@std@@U?$hash@V?$basic_string@_WU?$char_traits@_W@std@@V?$allocator@_W@2@@std@@@2@U?$equal_to@V?$basic_string@_WU?$char_traits@_W@std@@V?$allocator@_W@2@@std@@@2@@2@V?$allocator@U?$pair@$$CBV?$basic_string@_WU?$char_traits@_W@std@@V?$allocator@_W@2@@std@@V12@@std@@@2@$0A@@std@@@std@@QBEIXZ ; std::_Hash<std::_Umap_traits<std::basic_string<wchar_t,std::char_traits<wchar_t>,std::allocator<wchar_t> >,std::basic_string<wchar_t,std::char_traits<wchar_t>,std::allocator<wchar_t> >,std::_Uhash_compare<std::basic_string<wchar_t,std::char_traits<wchar_t>,std::allocator<wchar_t> >,std::hash<std::basic_string<wchar_t,std::char_traits<wchar_t>,std::allocator<wchar_t> > >,std::equal_to<std::basic_string<wchar_t,std::char_traits<wchar_t>,std::allocator<wchar_t> > > >,std::allocator<std::pair<std::basic_string<wchar_t,std::char_traits<wchar_t>,std::allocator<wchar_t> > const ,std::basic_string<wchar_t,std::char_traits<wchar_t>,std::allocator<wchar_t> > > >,0> >::bucket_count
PUBLIC	?load_factor@?$_Hash@V?$_Umap_traits@V?$basic_string@_WU?$char_traits@_W@std@@V?$allocator@_W@2@@std@@V12@V?$_Uhash_compare@V?$basic_string@_WU?$char_traits@_W@std@@V?$allocator@_W@2@@std@@U?$hash@V?$basic_string@_WU?$char_traits@_W@std@@V?$allocator@_W@2@@std@@@2@U?$equal_to@V?$basic_string@_WU?$char_traits@_W@std@@V?$allocator@_W@2@@std@@@2@@2@V?$allocator@U?$pair@$$CBV?$basic_string@_WU?$char_traits@_W@std@@V?$allocator@_W@2@@std@@V12@@std@@@2@$0A@@std@@@std@@QBEMXZ ; std::_Hash<std::_Umap_traits<std::basic_string<wchar_t,std::char_traits<wchar_t>,std::allocator<wchar_t> >,std::basic_string<wchar_t,std::char_traits<wchar_t>,std::allocator<wchar_t> >,std::_Uhash_compare<std::basic_string<wchar_t,std::char_traits<wchar_t>,std::allocator<wchar_t> >,std::hash<std::basic_string<wchar_t,std::char_traits<wchar_t>,std::allocator<wchar_t> > >,std::equal_to<std::basic_string<wchar_t,std::char_traits<wchar_t>,std::allocator<wchar_t> > > >,std::allocator<std::pair<std::basic_string<wchar_t,std::char_traits<wchar_t>,std::allocator<wchar_t> > const ,std::basic_string<wchar_t,std::char_traits<wchar_t>,std::allocator<wchar_t> > > >,0> >::load_factor
PUBLIC	?max_load_factor@?$_Hash@V?$_Umap_traits@V?$basic_string@_WU?$char_traits@_W@std@@V?$allocator@_W@2@@std@@V12@V?$_Uhash_compare@V?$basic_string@_WU?$char_traits@_W@std@@V?$allocator@_W@2@@std@@U?$hash@V?$basic_string@_WU?$char_traits@_W@std@@V?$allocator@_W@2@@std@@@2@U?$equal_to@V?$basic_string@_WU?$char_traits@_W@std@@V?$allocator@_W@2@@std@@@2@@2@V?$allocator@U?$pair@$$CBV?$basic_string@_WU?$char_traits@_W@std@@V?$allocator@_W@2@@std@@V12@@std@@@2@$0A@@std@@@std@@QBEMXZ ; std::_Hash<std::_Umap_traits<std::basic_string<wchar_t,std::char_traits<wchar_t>,std::allocator<wchar_t> >,std::basic_string<wchar_t,std::char_traits<wchar_t>,std::allocator<wchar_t> >,std::_Uhash_compare<std::basic_string<wchar_t,std::char_traits<wchar_t>,std::allocator<wchar_t> >,std::hash<std::basic_string<wchar_t,std::char_traits<wchar_t>,std::allocator<wchar_t> > >,std::equal_to<std::basic_string<wchar_t,std::char_traits<wchar_t>,std::allocator<wchar_t> > > >,std::allocator<std::pair<std::basic_string<wchar_t,std::char_traits<wchar_t>,std::allocator<wchar_t> > const ,std::basic_string<wchar_t,std::char_traits<wchar_t>,std::allocator<wchar_t> > > >,0> >::max_load_factor
PUBLIC	?erase@?$_Hash@V?$_Umap_traits@V?$basic_string@_WU?$char_traits@_W@std@@V?$allocator@_W@2@@std@@V12@V?$_Uhash_compare@V?$basic_string@_WU?$char_traits@_W@std@@V?$allocator@_W@2@@std@@U?$hash@V?$basic_string@_WU?$char_traits@_W@std@@V?$allocator@_W@2@@std@@@2@U?$equal_to@V?$basic_string@_WU?$char_traits@_W@std@@V?$allocator@_W@2@@std@@@2@@2@V?$allocator@U?$pair@$$CBV?$basic_string@_WU?$char_traits@_W@std@@V?$allocator@_W@2@@std@@V12@@std@@@2@$0A@@std@@@std@@QAE?AV?$_List_iterator@V?$_List_val@U?$_List_simple_types@U?$pair@$$CBV?$basic_string@_WU?$char_traits@_W@std@@V?$allocator@_W@2@@std@@V12@@std@@@std@@@std@@@2@V?$_List_const_iterator@V?$_List_val@U?$_List_simple_types@U?$pair@$$CBV?$basic_string@_WU?$char_traits@_W@std@@V?$allocator@_W@2@@std@@V12@@std@@@std@@@std@@@2@@Z ; std::_Hash<std::_Umap_traits<std::basic_string<wchar_t,std::char_traits<wchar_t>,std::allocator<wchar_t> >,std::basic_string<wchar_t,std::char_traits<wchar_t>,std::allocator<wchar_t> >,std::_Uhash_compare<std::basic_string<wchar_t,std::char_traits<wchar_t>,std::allocator<wchar_t> >,std::hash<std::basic_string<wchar_t,std::char_traits<wchar_t>,std::allocator<wchar_t> > >,std::equal_to<std::basic_string<wchar_t,std::char_traits<wchar_t>,std::allocator<wchar_t> > > >,std::allocator<std::pair<std::basic_string<wchar_t,std::char_traits<wchar_t>,std::allocator<wchar_t> > const ,std::basic_string<wchar_t,std::char_traits<wchar_t>,std::allocator<wchar_t> > > >,0> >::erase
PUBLIC	?clear@?$_Hash@V?$_Umap_traits@V?$basic_string@_WU?$char_traits@_W@std@@V?$allocator@_W@2@@std@@V12@V?$_Uhash_compare@V?$basic_string@_WU?$char_traits@_W@std@@V?$allocator@_W@2@@std@@U?$hash@V?$basic_string@_WU?$char_traits@_W@std@@V?$allocator@_W@2@@std@@@2@U?$equal_to@V?$basic_string@_WU?$char_traits@_W@std@@V?$allocator@_W@2@@std@@@2@@2@V?$allocator@U?$pair@$$CBV?$basic_string@_WU?$char_traits@_W@std@@V?$allocator@_W@2@@std@@V12@@std@@@2@$0A@@std@@@std@@QAEXXZ ; std::_Hash<std::_Umap_traits<std::basic_string<wchar_t,std::char_traits<wchar_t>,std::allocator<wchar_t> >,std::basic_string<wchar_t,std::char_traits<wchar_t>,std::allocator<wchar_t> >,std::_Uhash_compare<std::basic_string<wchar_t,std::char_traits<wchar_t>,std::allocator<wchar_t> >,std::hash<std::basic_string<wchar_t,std::char_traits<wchar_t>,std::allocator<wchar_t> > >,std::equal_to<std::basic_string<wchar_t,std::char_traits<wchar_t>,std::allocator<wchar_t> > > >,std::allocator<std::pair<std::basic_string<wchar_t,std::char_traits<wchar_t>,std::allocator<wchar_t> > const ,std::basic_string<wchar_t,std::char_traits<wchar_t>,std::allocator<wchar_t> > > >,0> >::clear
PUBLIC	?_Destroy_if_not_nil@?$_Hash@V?$_Umap_traits@V?$basic_string@_WU?$char_traits@_W@std@@V?$allocator@_W@2@@std@@V12@V?$_Uhash_compare@V?$basic_string@_WU?$char_traits@_W@std@@V?$allocator@_W@2@@std@@U?$hash@V?$basic_string@_WU?$char_traits@_W@std@@V?$allocator@_W@2@@std@@@2@U?$equal_to@V?$basic_string@_WU?$char_traits@_W@std@@V?$allocator@_W@2@@std@@@2@@2@V?$allocator@U?$pair@$$CBV?$basic_string@_WU?$char_traits@_W@std@@V?$allocator@_W@2@@std@@V12@@std@@@2@$0A@@std@@@std@@IAEXV?$_List_unchecked_iterator@V?$_List_val@U?$_List_simple_types@U?$pair@$$CBV?$basic_string@_WU?$char_traits@_W@std@@V?$allocator@_W@2@@std@@V12@@std@@@std@@@std@@@2@@Z ; std::_Hash<std::_Umap_traits<std::basic_string<wchar_t,std::char_traits<wchar_t>,std::allocator<wchar_t> >,std::basic_string<wchar_t,std::char_traits<wchar_t>,std::allocator<wchar_t> >,std::_Uhash_compare<std::basic_string<wchar_t,std::char_traits<wchar_t>,std::allocator<wchar_t> >,std::hash<std::basic_string<wchar_t,std::char_traits<wchar_t>,std::allocator<wchar_t> > >,std::equal_to<std::basic_string<wchar_t,std::char_traits<wchar_t>,std::allocator<wchar_t> > > >,std::allocator<std::pair<std::basic_string<wchar_t,std::char_traits<wchar_t>,std::allocator<wchar_t> > const ,std::basic_string<wchar_t,std::char_traits<wchar_t>,std::allocator<wchar_t> > > >,0> >::_Destroy_if_not_nil
PUBLIC	?_Vec_lo@?$_Hash@V?$_Umap_traits@V?$basic_string@_WU?$char_traits@_W@std@@V?$allocator@_W@2@@std@@V12@V?$_Uhash_compare@V?$basic_string@_WU?$char_traits@_W@std@@V?$allocator@_W@2@@std@@U?$hash@V?$basic_string@_WU?$char_traits@_W@std@@V?$allocator@_W@2@@std@@@2@U?$equal_to@V?$basic_string@_WU?$char_traits@_W@std@@V?$allocator@_W@2@@std@@@2@@2@V?$allocator@U?$pair@$$CBV?$basic_string@_WU?$char_traits@_W@std@@V?$allocator@_W@2@@std@@V12@@std@@@2@$0A@@std@@@std@@IAEAAV?$_List_unchecked_iterator@V?$_List_val@U?$_List_simple_types@U?$pair@$$CBV?$basic_string@_WU?$char_traits@_W@std@@V?$allocator@_W@2@@std@@V12@@std@@@std@@@std@@@2@I@Z ; std::_Hash<std::_Umap_traits<std::basic_string<wchar_t,std::char_traits<wchar_t>,std::allocator<wchar_t> >,std::basic_string<wchar_t,std::char_traits<wchar_t>,std::allocator<wchar_t> >,std::_Uhash_compare<std::basic_string<wchar_t,std::char_traits<wchar_t>,std::allocator<wchar_t> >,std::hash<std::basic_string<wchar_t,std::char_traits<wchar_t>,std::allocator<wchar_t> > >,std::equal_to<std::basic_string<wchar_t,std::char_traits<wchar_t>,std::allocator<wchar_t> > > >,std::allocator<std::pair<std::basic_string<wchar_t,std::char_traits<wchar_t>,std::allocator<wchar_t> > const ,std::basic_string<wchar_t,std::char_traits<wchar_t>,std::allocator<wchar_t> > > >,0> >::_Vec_lo
PUBLIC	?_Vec_hi@?$_Hash@V?$_Umap_traits@V?$basic_string@_WU?$char_traits@_W@std@@V?$allocator@_W@2@@std@@V12@V?$_Uhash_compare@V?$basic_string@_WU?$char_traits@_W@std@@V?$allocator@_W@2@@std@@U?$hash@V?$basic_string@_WU?$char_traits@_W@std@@V?$allocator@_W@2@@std@@@2@U?$equal_to@V?$basic_string@_WU?$char_traits@_W@std@@V?$allocator@_W@2@@std@@@2@@2@V?$allocator@U?$pair@$$CBV?$basic_string@_WU?$char_traits@_W@std@@V?$allocator@_W@2@@std@@V12@@std@@@2@$0A@@std@@@std@@IAEAAV?$_List_unchecked_iterator@V?$_List_val@U?$_List_simple_types@U?$pair@$$CBV?$basic_string@_WU?$char_traits@_W@std@@V?$allocator@_W@2@@std@@V12@@std@@@std@@@std@@@2@I@Z ; std::_Hash<std::_Umap_traits<std::basic_string<wchar_t,std::char_traits<wchar_t>,std::allocator<wchar_t> >,std::basic_string<wchar_t,std::char_traits<wchar_t>,std::allocator<wchar_t> >,std::_Uhash_compare<std::basic_string<wchar_t,std::char_traits<wchar_t>,std::allocator<wchar_t> >,std::hash<std::basic_string<wchar_t,std::char_traits<wchar_t>,std::allocator<wchar_t> > >,std::equal_to<std::basic_string<wchar_t,std::char_traits<wchar_t>,std::allocator<wchar_t> > > >,std::allocator<std::pair<std::basic_string<wchar_t,std::char_traits<wchar_t>,std::allocator<wchar_t> > const ,std::basic_string<wchar_t,std::char_traits<wchar_t>,std::allocator<wchar_t> > > >,0> >::_Vec_hi
PUBLIC	?_Begin@?$_Hash@V?$_Umap_traits@V?$basic_string@_WU?$char_traits@_W@std@@V?$allocator@_W@2@@std@@V12@V?$_Uhash_compare@V?$basic_string@_WU?$char_traits@_W@std@@V?$allocator@_W@2@@std@@U?$hash@V?$basic_string@_WU?$char_traits@_W@std@@V?$allocator@_W@2@@std@@@2@U?$equal_to@V?$basic_string@_WU?$char_traits@_W@std@@V?$allocator@_W@2@@std@@@2@@2@V?$allocator@U?$pair@$$CBV?$basic_string@_WU?$char_traits@_W@std@@V?$allocator@_W@2@@std@@V12@@std@@@2@$0A@@std@@@std@@IAE?AV?$_List_unchecked_iterator@V?$_List_val@U?$_List_simple_types@U?$pair@$$CBV?$basic_string@_WU?$char_traits@_W@std@@V?$allocator@_W@2@@std@@V12@@std@@@std@@@std@@@2@I@Z ; std::_Hash<std::_Umap_traits<std::basic_string<wchar_t,std::char_traits<wchar_t>,std::allocator<wchar_t> >,std::basic_string<wchar_t,std::char_traits<wchar_t>,std::allocator<wchar_t> >,std::_Uhash_compare<std::basic_string<wchar_t,std::char_traits<wchar_t>,std::allocator<wchar_t> >,std::hash<std::basic_string<wchar_t,std::char_traits<wchar_t>,std::allocator<wchar_t> > >,std::equal_to<std::basic_string<wchar_t,std::char_traits<wchar_t>,std::allocator<wchar_t> > > >,std::allocator<std::pair<std::basic_string<wchar_t,std::char_traits<wchar_t>,std::allocator<wchar_t> > const ,std::basic_string<wchar_t,std::char_traits<wchar_t>,std::allocator<wchar_t> > > >,0> >::_Begin
PUBLIC	?_End@?$_Hash@V?$_Umap_traits@V?$basic_string@_WU?$char_traits@_W@std@@V?$allocator@_W@2@@std@@V12@V?$_Uhash_compare@V?$basic_string@_WU?$char_traits@_W@std@@V?$allocator@_W@2@@std@@U?$hash@V?$basic_string@_WU?$char_traits@_W@std@@V?$allocator@_W@2@@std@@@2@U?$equal_to@V?$basic_string@_WU?$char_traits@_W@std@@V?$allocator@_W@2@@std@@@2@@2@V?$allocator@U?$pair@$$CBV?$basic_string@_WU?$char_traits@_W@std@@V?$allocator@_W@2@@std@@V12@@std@@@2@$0A@@std@@@std@@IAE?AV?$_List_unchecked_iterator@V?$_List_val@U?$_List_simple_types@U?$pair@$$CBV?$basic_string@_WU?$char_traits@_W@std@@V?$allocator@_W@2@@std@@V12@@std@@@std@@@std@@@2@I@Z ; std::_Hash<std::_Umap_traits<std::basic_string<wchar_t,std::char_traits<wchar_t>,std::allocator<wchar_t> >,std::basic_string<wchar_t,std::char_traits<wchar_t>,std::allocator<wchar_t> >,std::_Uhash_compare<std::basic_string<wchar_t,std::char_traits<wchar_t>,std::allocator<wchar_t> >,std::hash<std::basic_string<wchar_t,std::char_traits<wchar_t>,std::allocator<wchar_t> > >,std::equal_to<std::basic_string<wchar_t,std::char_traits<wchar_t>,std::allocator<wchar_t> > > >,std::allocator<std::pair<std::basic_string<wchar_t,std::char_traits<wchar_t>,std::allocator<wchar_t> > const ,std::basic_string<wchar_t,std::char_traits<wchar_t>,std::allocator<wchar_t> > > >,0> >::_End
PUBLIC	?_Erase_bucket@?$_Hash@V?$_Umap_traits@V?$basic_string@_WU?$char_traits@_W@std@@V?$allocator@_W@2@@std@@V12@V?$_Uhash_compare@V?$basic_string@_WU?$char_traits@_W@std@@V?$allocator@_W@2@@std@@U?$hash@V?$basic_string@_WU?$char_traits@_W@std@@V?$allocator@_W@2@@std@@@2@U?$equal_to@V?$basic_string@_WU?$char_traits@_W@std@@V?$allocator@_W@2@@std@@@2@@2@V?$allocator@U?$pair@$$CBV?$basic_string@_WU?$char_traits@_W@std@@V?$allocator@_W@2@@std@@V12@@std@@@2@$0A@@std@@@std@@IAEXV?$_List_iterator@V?$_List_val@U?$_List_simple_types@U?$pair@$$CBV?$basic_string@_WU?$char_traits@_W@std@@V?$allocator@_W@2@@std@@V12@@std@@@std@@@std@@@2@I@Z ; std::_Hash<std::_Umap_traits<std::basic_string<wchar_t,std::char_traits<wchar_t>,std::allocator<wchar_t> >,std::basic_string<wchar_t,std::char_traits<wchar_t>,std::allocator<wchar_t> >,std::_Uhash_compare<std::basic_string<wchar_t,std::char_traits<wchar_t>,std::allocator<wchar_t> >,std::hash<std::basic_string<wchar_t,std::char_traits<wchar_t>,std::allocator<wchar_t> > >,std::equal_to<std::basic_string<wchar_t,std::char_traits<wchar_t>,std::allocator<wchar_t> > > >,std::allocator<std::pair<std::basic_string<wchar_t,std::char_traits<wchar_t>,std::allocator<wchar_t> > const ,std::basic_string<wchar_t,std::char_traits<wchar_t>,std::allocator<wchar_t> > > >,0> >::_Erase_bucket
PUBLIC	?_Insert_bucket@?$_Hash@V?$_Umap_traits@V?$basic_string@_WU?$char_traits@_W@std@@V?$allocator@_W@2@@std@@V12@V?$_Uhash_compare@V?$basic_string@_WU?$char_traits@_W@std@@V?$allocator@_W@2@@std@@U?$hash@V?$basic_string@_WU?$char_traits@_W@std@@V?$allocator@_W@2@@std@@@2@U?$equal_to@V?$basic_string@_WU?$char_traits@_W@std@@V?$allocator@_W@2@@std@@@2@@2@V?$allocator@U?$pair@$$CBV?$basic_string@_WU?$char_traits@_W@std@@V?$allocator@_W@2@@std@@V12@@std@@@2@$0A@@std@@@std@@IAEXV?$_List_unchecked_iterator@V?$_List_val@U?$_List_simple_types@U?$pair@$$CBV?$basic_string@_WU?$char_traits@_W@std@@V?$allocator@_W@2@@std@@V12@@std@@@std@@@std@@@2@0I@Z ; std::_Hash<std::_Umap_traits<std::basic_string<wchar_t,std::char_traits<wchar_t>,std::allocator<wchar_t> >,std::basic_string<wchar_t,std::char_traits<wchar_t>,std::allocator<wchar_t> >,std::_Uhash_compare<std::basic_string<wchar_t,std::char_traits<wchar_t>,std::allocator<wchar_t> >,std::hash<std::basic_string<wchar_t,std::char_traits<wchar_t>,std::allocator<wchar_t> > >,std::equal_to<std::basic_string<wchar_t,std::char_traits<wchar_t>,std::allocator<wchar_t> > > >,std::allocator<std::pair<std::basic_string<wchar_t,std::char_traits<wchar_t>,std::allocator<wchar_t> > const ,std::basic_string<wchar_t,std::char_traits<wchar_t>,std::allocator<wchar_t> > > >,0> >::_Insert_bucket
PUBLIC	?_Copy@?$_Hash@V?$_Umap_traits@V?$basic_string@_WU?$char_traits@_W@std@@V?$allocator@_W@2@@std@@V12@V?$_Uhash_compare@V?$basic_string@_WU?$char_traits@_W@std@@V?$allocator@_W@2@@std@@U?$hash@V?$basic_string@_WU?$char_traits@_W@std@@V?$allocator@_W@2@@std@@@2@U?$equal_to@V?$basic_string@_WU?$char_traits@_W@std@@V?$allocator@_W@2@@std@@@2@@2@V?$allocator@U?$pair@$$CBV?$basic_string@_WU?$char_traits@_W@std@@V?$allocator@_W@2@@std@@V12@@std@@@2@$0A@@std@@@std@@IAEXABV12@@Z ; std::_Hash<std::_Umap_traits<std::basic_string<wchar_t,std::char_traits<wchar_t>,std::allocator<wchar_t> >,std::basic_string<wchar_t,std::char_traits<wchar_t>,std::allocator<wchar_t> >,std::_Uhash_compare<std::basic_string<wchar_t,std::char_traits<wchar_t>,std::allocator<wchar_t> >,std::hash<std::basic_string<wchar_t,std::char_traits<wchar_t>,std::allocator<wchar_t> > >,std::equal_to<std::basic_string<wchar_t,std::char_traits<wchar_t>,std::allocator<wchar_t> > > >,std::allocator<std::pair<std::basic_string<wchar_t,std::char_traits<wchar_t>,std::allocator<wchar_t> > const ,std::basic_string<wchar_t,std::char_traits<wchar_t>,std::allocator<wchar_t> > > >,0> >::_Copy
PUBLIC	?_Hashval@?$_Hash@V?$_Umap_traits@V?$basic_string@_WU?$char_traits@_W@std@@V?$allocator@_W@2@@std@@V12@V?$_Uhash_compare@V?$basic_string@_WU?$char_traits@_W@std@@V?$allocator@_W@2@@std@@U?$hash@V?$basic_string@_WU?$char_traits@_W@std@@V?$allocator@_W@2@@std@@@2@U?$equal_to@V?$basic_string@_WU?$char_traits@_W@std@@V?$allocator@_W@2@@std@@@2@@2@V?$allocator@U?$pair@$$CBV?$basic_string@_WU?$char_traits@_W@std@@V?$allocator@_W@2@@std@@V12@@std@@@2@$0A@@std@@@std@@IBEIABV?$basic_string@_WU?$char_traits@_W@std@@V?$allocator@_W@2@@2@@Z ; std::_Hash<std::_Umap_traits<std::basic_string<wchar_t,std::char_traits<wchar_t>,std::allocator<wchar_t> >,std::basic_string<wchar_t,std::char_traits<wchar_t>,std::allocator<wchar_t> >,std::_Uhash_compare<std::basic_string<wchar_t,std::char_traits<wchar_t>,std::allocator<wchar_t> >,std::hash<std::basic_string<wchar_t,std::char_traits<wchar_t>,std::allocator<wchar_t> > >,std::equal_to<std::basic_string<wchar_t,std::char_traits<wchar_t>,std::allocator<wchar_t> > > >,std::allocator<std::pair<std::basic_string<wchar_t,std::char_traits<wchar_t>,std::allocator<wchar_t> > const ,std::basic_string<wchar_t,std::char_traits<wchar_t>,std::allocator<wchar_t> > > >,0> >::_Hashval
PUBLIC	?_Init@?$_Hash@V?$_Umap_traits@V?$basic_string@_WU?$char_traits@_W@std@@V?$allocator@_W@2@@std@@V12@V?$_Uhash_compare@V?$basic_string@_WU?$char_traits@_W@std@@V?$allocator@_W@2@@std@@U?$hash@V?$basic_string@_WU?$char_traits@_W@std@@V?$allocator@_W@2@@std@@@2@U?$equal_to@V?$basic_string@_WU?$char_traits@_W@std@@V?$allocator@_W@2@@std@@@2@@2@V?$allocator@U?$pair@$$CBV?$basic_string@_WU?$char_traits@_W@std@@V?$allocator@_W@2@@std@@V12@@std@@@2@$0A@@std@@@std@@IAEXI@Z ; std::_Hash<std::_Umap_traits<std::basic_string<wchar_t,std::char_traits<wchar_t>,std::allocator<wchar_t> >,std::basic_string<wchar_t,std::char_traits<wchar_t>,std::allocator<wchar_t> >,std::_Uhash_compare<std::basic_string<wchar_t,std::char_traits<wchar_t>,std::allocator<wchar_t> >,std::hash<std::basic_string<wchar_t,std::char_traits<wchar_t>,std::allocator<wchar_t> > >,std::equal_to<std::basic_string<wchar_t,std::char_traits<wchar_t>,std::allocator<wchar_t> > > >,std::allocator<std::pair<std::basic_string<wchar_t,std::char_traits<wchar_t>,std::allocator<wchar_t> > const ,std::basic_string<wchar_t,std::char_traits<wchar_t>,std::allocator<wchar_t> > > >,0> >::_Init
PUBLIC	?_Check_size@?$_Hash@V?$_Umap_traits@V?$basic_string@_WU?$char_traits@_W@std@@V?$allocator@_W@2@@std@@V12@V?$_Uhash_compare@V?$basic_string@_WU?$char_traits@_W@std@@V?$allocator@_W@2@@std@@U?$hash@V?$basic_string@_WU?$char_traits@_W@std@@V?$allocator@_W@2@@std@@@2@U?$equal_to@V?$basic_string@_WU?$char_traits@_W@std@@V?$allocator@_W@2@@std@@@2@@2@V?$allocator@U?$pair@$$CBV?$basic_string@_WU?$char_traits@_W@std@@V?$allocator@_W@2@@std@@V12@@std@@@2@$0A@@std@@@std@@IAEXXZ ; std::_Hash<std::_Umap_traits<std::basic_string<wchar_t,std::char_traits<wchar_t>,std::allocator<wchar_t> >,std::basic_string<wchar_t,std::char_traits<wchar_t>,std::allocator<wchar_t> >,std::_Uhash_compare<std::basic_string<wchar_t,std::char_traits<wchar_t>,std::allocator<wchar_t> >,std::hash<std::basic_string<wchar_t,std::char_traits<wchar_t>,std::allocator<wchar_t> > >,std::equal_to<std::basic_string<wchar_t,std::char_traits<wchar_t>,std::allocator<wchar_t> > > >,std::allocator<std::pair<std::basic_string<wchar_t,std::char_traits<wchar_t>,std::allocator<wchar_t> > const ,std::basic_string<wchar_t,std::char_traits<wchar_t>,std::allocator<wchar_t> > > >,0> >::_Check_size
PUBLIC	?_Reinsert@?$_Hash@V?$_Umap_traits@V?$basic_string@_WU?$char_traits@_W@std@@V?$allocator@_W@2@@std@@V12@V?$_Uhash_compare@V?$basic_string@_WU?$char_traits@_W@std@@V?$allocator@_W@2@@std@@U?$hash@V?$basic_string@_WU?$char_traits@_W@std@@V?$allocator@_W@2@@std@@@2@U?$equal_to@V?$basic_string@_WU?$char_traits@_W@std@@V?$allocator@_W@2@@std@@@2@@2@V?$allocator@U?$pair@$$CBV?$basic_string@_WU?$char_traits@_W@std@@V?$allocator@_W@2@@std@@V12@@std@@@2@$0A@@std@@@std@@IAEXXZ ; std::_Hash<std::_Umap_traits<std::basic_string<wchar_t,std::char_traits<wchar_t>,std::allocator<wchar_t> >,std::basic_string<wchar_t,std::char_traits<wchar_t>,std::allocator<wchar_t> >,std::_Uhash_compare<std::basic_string<wchar_t,std::char_traits<wchar_t>,std::allocator<wchar_t> >,std::hash<std::basic_string<wchar_t,std::char_traits<wchar_t>,std::allocator<wchar_t> > >,std::equal_to<std::basic_string<wchar_t,std::char_traits<wchar_t>,std::allocator<wchar_t> > > >,std::allocator<std::pair<std::basic_string<wchar_t,std::char_traits<wchar_t>,std::allocator<wchar_t> > const ,std::basic_string<wchar_t,std::char_traits<wchar_t>,std::allocator<wchar_t> > > >,0> >::_Reinsert
PUBLIC	?_Max_bucket_size@?$_Hash@V?$_Umap_traits@V?$basic_string@_WU?$char_traits@_W@std@@V?$allocator@_W@2@@std@@V12@V?$_Uhash_compare@V?$basic_string@_WU?$char_traits@_W@std@@V?$allocator@_W@2@@std@@U?$hash@V?$basic_string@_WU?$char_traits@_W@std@@V?$allocator@_W@2@@std@@@2@U?$equal_to@V?$basic_string@_WU?$char_traits@_W@std@@V?$allocator@_W@2@@std@@@2@@2@V?$allocator@U?$pair@$$CBV?$basic_string@_WU?$char_traits@_W@std@@V?$allocator@_W@2@@std@@V12@@std@@@2@$0A@@std@@@std@@IBEABMXZ ; std::_Hash<std::_Umap_traits<std::basic_string<wchar_t,std::char_traits<wchar_t>,std::allocator<wchar_t> >,std::basic_string<wchar_t,std::char_traits<wchar_t>,std::allocator<wchar_t> >,std::_Uhash_compare<std::basic_string<wchar_t,std::char_traits<wchar_t>,std::allocator<wchar_t> >,std::hash<std::basic_string<wchar_t,std::char_traits<wchar_t>,std::allocator<wchar_t> > >,std::equal_to<std::basic_string<wchar_t,std::char_traits<wchar_t>,std::allocator<wchar_t> > > >,std::allocator<std::pair<std::basic_string<wchar_t,std::char_traits<wchar_t>,std::allocator<wchar_t> > const ,std::basic_string<wchar_t,std::char_traits<wchar_t>,std::allocator<wchar_t> > > >,0> >::_Max_bucket_size
PUBLIC	??0?$allocator@V?$_List_unchecked_iterator@V?$_List_val@U?$_List_simple_types@U?$pair@$$CBV?$basic_string@_WU?$char_traits@_W@std@@V?$allocator@_W@2@@std@@V12@@std@@@std@@@std@@@std@@@std@@QAE@ABV01@@Z ; std::allocator<std::_List_unchecked_iterator<std::_List_val<std::_List_simple_types<std::pair<std::basic_string<wchar_t,std::char_traits<wchar_t>,std::allocator<wchar_t> > const ,std::basic_string<wchar_t,std::char_traits<wchar_t>,std::allocator<wchar_t> > > > > > >::allocator<std::_List_unchecked_iterator<std::_List_val<std::_List_simple_types<std::pair<std::basic_string<wchar_t,std::char_traits<wchar_t>,std::allocator<wchar_t> > const ,std::basic_string<wchar_t,std::char_traits<wchar_t>,std::allocator<wchar_t> > > > > > >
PUBLIC	?deallocate@?$allocator@V?$_List_unchecked_iterator@V?$_List_val@U?$_List_simple_types@U?$pair@$$CBV?$basic_string@_WU?$char_traits@_W@std@@V?$allocator@_W@2@@std@@V12@@std@@@std@@@std@@@std@@@std@@QAEXPAV?$_List_unchecked_iterator@V?$_List_val@U?$_List_simple_types@U?$pair@$$CBV?$basic_string@_WU?$char_traits@_W@std@@V?$allocator@_W@2@@std@@V12@@std@@@std@@@std@@@2@I@Z ; std::allocator<std::_List_unchecked_iterator<std::_List_val<std::_List_simple_types<std::pair<std::basic_string<wchar_t,std::char_traits<wchar_t>,std::allocator<wchar_t> > const ,std::basic_string<wchar_t,std::char_traits<wchar_t>,std::allocator<wchar_t> > > > > > >::deallocate
PUBLIC	?allocate@?$allocator@V?$_List_unchecked_iterator@V?$_List_val@U?$_List_simple_types@U?$pair@$$CBV?$basic_string@_WU?$char_traits@_W@std@@V?$allocator@_W@2@@std@@V12@@std@@@std@@@std@@@std@@@std@@QAEPAV?$_List_unchecked_iterator@V?$_List_val@U?$_List_simple_types@U?$pair@$$CBV?$basic_string@_WU?$char_traits@_W@std@@V?$allocator@_W@2@@std@@V12@@std@@@std@@@std@@@2@I@Z ; std::allocator<std::_List_unchecked_iterator<std::_List_val<std::_List_simple_types<std::pair<std::basic_string<wchar_t,std::char_traits<wchar_t>,std::allocator<wchar_t> > const ,std::basic_string<wchar_t,std::char_traits<wchar_t>,std::allocator<wchar_t> > > > > > >::allocate
PUBLIC	?max_size@?$allocator@V?$_List_unchecked_iterator@V?$_List_val@U?$_List_simple_types@U?$pair@$$CBV?$basic_string@_WU?$char_traits@_W@std@@V?$allocator@_W@2@@std@@V12@@std@@@std@@@std@@@std@@@std@@QBEIXZ ; std::allocator<std::_List_unchecked_iterator<std::_List_val<std::_List_simple_types<std::pair<std::basic_string<wchar_t,std::char_traits<wchar_t>,std::allocator<wchar_t> > const ,std::basic_string<wchar_t,std::char_traits<wchar_t>,std::allocator<wchar_t> > > > > > >::max_size
PUBLIC	?max_size@?$allocator_traits@V?$allocator@V?$_List_unchecked_iterator@V?$_List_val@U?$_List_simple_types@U?$pair@$$CBV?$basic_string@_WU?$char_traits@_W@std@@V?$allocator@_W@2@@std@@V12@@std@@@std@@@std@@@std@@@std@@@std@@SAIABV?$allocator@V?$_List_unchecked_iterator@V?$_List_val@U?$_List_simple_types@U?$pair@$$CBV?$basic_string@_WU?$char_traits@_W@std@@V?$allocator@_W@2@@std@@V12@@std@@@std@@@std@@@std@@@2@@Z ; std::allocator_traits<std::allocator<std::_List_unchecked_iterator<std::_List_val<std::_List_simple_types<std::pair<std::basic_string<wchar_t,std::char_traits<wchar_t>,std::allocator<wchar_t> > const ,std::basic_string<wchar_t,std::char_traits<wchar_t>,std::allocator<wchar_t> > > > > > > >::max_size
PUBLIC	??0?$_Wrap_alloc@V?$allocator@V?$_List_unchecked_iterator@V?$_List_val@U?$_List_simple_types@U?$pair@$$CBV?$basic_string@_WU?$char_traits@_W@std@@V?$allocator@_W@2@@std@@V12@@std@@@std@@@std@@@std@@@std@@@std@@QAE@ABU01@@Z ; std::_Wrap_alloc<std::allocator<std::_List_unchecked_iterator<std::_List_val<std::_List_simple_types<std::pair<std::basic_string<wchar_t,std::char_traits<wchar_t>,std::allocator<wchar_t> > const ,std::basic_string<wchar_t,std::char_traits<wchar_t>,std::allocator<wchar_t> > > > > > > >::_Wrap_alloc<std::allocator<std::_List_unchecked_iterator<std::_List_val<std::_List_simple_types<std::pair<std::basic_string<wchar_t,std::char_traits<wchar_t>,std::allocator<wchar_t> > const ,std::basic_string<wchar_t,std::char_traits<wchar_t>,std::allocator<wchar_t> > > > > > > >
PUBLIC	?allocate@?$_Wrap_alloc@V?$allocator@V?$_List_unchecked_iterator@V?$_List_val@U?$_List_simple_types@U?$pair@$$CBV?$basic_string@_WU?$char_traits@_W@std@@V?$allocator@_W@2@@std@@V12@@std@@@std@@@std@@@std@@@std@@@std@@QAEPAV?$_List_unchecked_iterator@V?$_List_val@U?$_List_simple_types@U?$pair@$$CBV?$basic_string@_WU?$char_traits@_W@std@@V?$allocator@_W@2@@std@@V12@@std@@@std@@@std@@@2@I@Z ; std::_Wrap_alloc<std::allocator<std::_List_unchecked_iterator<std::_List_val<std::_List_simple_types<std::pair<std::basic_string<wchar_t,std::char_traits<wchar_t>,std::allocator<wchar_t> > const ,std::basic_string<wchar_t,std::char_traits<wchar_t>,std::allocator<wchar_t> > > > > > > >::allocate
PUBLIC	?deallocate@?$_Wrap_alloc@V?$allocator@V?$_List_unchecked_iterator@V?$_List_val@U?$_List_simple_types@U?$pair@$$CBV?$basic_string@_WU?$char_traits@_W@std@@V?$allocator@_W@2@@std@@V12@@std@@@std@@@std@@@std@@@std@@@std@@QAEXPAV?$_List_unchecked_iterator@V?$_List_val@U?$_List_simple_types@U?$pair@$$CBV?$basic_string@_WU?$char_traits@_W@std@@V?$allocator@_W@2@@std@@V12@@std@@@std@@@std@@@2@I@Z ; std::_Wrap_alloc<std::allocator<std::_List_unchecked_iterator<std::_List_val<std::_List_simple_types<std::pair<std::basic_string<wchar_t,std::char_traits<wchar_t>,std::allocator<wchar_t> > const ,std::basic_string<wchar_t,std::char_traits<wchar_t>,std::allocator<wchar_t> > > > > > > >::deallocate
PUBLIC	?max_size@?$_Wrap_alloc@V?$allocator@V?$_List_unchecked_iterator@V?$_List_val@U?$_List_simple_types@U?$pair@$$CBV?$basic_string@_WU?$char_traits@_W@std@@V?$allocator@_W@2@@std@@V12@@std@@@std@@@std@@@std@@@std@@@std@@QBEIU_Nil@2@@Z ; std::_Wrap_alloc<std::allocator<std::_List_unchecked_iterator<std::_List_val<std::_List_simple_types<std::pair<std::basic_string<wchar_t,std::char_traits<wchar_t>,std::allocator<wchar_t> > const ,std::basic_string<wchar_t,std::char_traits<wchar_t>,std::allocator<wchar_t> > > > > > > >::max_size
PUBLIC	?max_size@?$allocator_traits@U?$_Wrap_alloc@V?$allocator@V?$_List_unchecked_iterator@V?$_List_val@U?$_List_simple_types@U?$pair@$$CBV?$basic_string@_WU?$char_traits@_W@std@@V?$allocator@_W@2@@std@@V12@@std@@@std@@@std@@@std@@@std@@@std@@@std@@SAIABU?$_Wrap_alloc@V?$allocator@V?$_List_unchecked_iterator@V?$_List_val@U?$_List_simple_types@U?$pair@$$CBV?$basic_string@_WU?$char_traits@_W@std@@V?$allocator@_W@2@@std@@V12@@std@@@std@@@std@@@std@@@std@@@2@@Z ; std::allocator_traits<std::_Wrap_alloc<std::allocator<std::_List_unchecked_iterator<std::_List_val<std::_List_simple_types<std::pair<std::basic_string<wchar_t,std::char_traits<wchar_t>,std::allocator<wchar_t> > const ,std::basic_string<wchar_t,std::char_traits<wchar_t>,std::allocator<wchar_t> > > > > > > > >::max_size
PUBLIC	?allocate@?$_Wrap_alloc@U?$_Wrap_alloc@V?$allocator@V?$_List_unchecked_iterator@V?$_List_val@U?$_List_simple_types@U?$pair@$$CBV?$basic_string@_WU?$char_traits@_W@std@@V?$allocator@_W@2@@std@@V12@@std@@@std@@@std@@@std@@@std@@@std@@@std@@QAEPAV?$_List_unchecked_iterator@V?$_List_val@U?$_List_simple_types@U?$pair@$$CBV?$basic_string@_WU?$char_traits@_W@std@@V?$allocator@_W@2@@std@@V12@@std@@@std@@@std@@@2@I@Z ; std::_Wrap_alloc<std::_Wrap_alloc<std::allocator<std::_List_unchecked_iterator<std::_List_val<std::_List_simple_types<std::pair<std::basic_string<wchar_t,std::char_traits<wchar_t>,std::allocator<wchar_t> > const ,std::basic_string<wchar_t,std::char_traits<wchar_t>,std::allocator<wchar_t> > > > > > > > >::allocate
PUBLIC	?deallocate@?$_Wrap_alloc@U?$_Wrap_alloc@V?$allocator@V?$_List_unchecked_iterator@V?$_List_val@U?$_List_simple_types@U?$pair@$$CBV?$basic_string@_WU?$char_traits@_W@std@@V?$allocator@_W@2@@std@@V12@@std@@@std@@@std@@@std@@@std@@@std@@@std@@QAEXPAV?$_List_unchecked_iterator@V?$_List_val@U?$_List_simple_types@U?$pair@$$CBV?$basic_string@_WU?$char_traits@_W@std@@V?$allocator@_W@2@@std@@V12@@std@@@std@@@std@@@2@I@Z ; std::_Wrap_alloc<std::_Wrap_alloc<std::allocator<std::_List_unchecked_iterator<std::_List_val<std::_List_simple_types<std::pair<std::basic_string<wchar_t,std::char_traits<wchar_t>,std::allocator<wchar_t> > const ,std::basic_string<wchar_t,std::char_traits<wchar_t>,std::allocator<wchar_t> > > > > > > > >::deallocate
PUBLIC	?max_size@?$_Wrap_alloc@U?$_Wrap_alloc@V?$allocator@V?$_List_unchecked_iterator@V?$_List_val@U?$_List_simple_types@U?$pair@$$CBV?$basic_string@_WU?$char_traits@_W@std@@V?$allocator@_W@2@@std@@V12@@std@@@std@@@std@@@std@@@std@@@std@@@std@@QBEIU_Nil@2@@Z ; std::_Wrap_alloc<std::_Wrap_alloc<std::allocator<std::_List_unchecked_iterator<std::_List_val<std::_List_simple_types<std::pair<std::basic_string<wchar_t,std::char_traits<wchar_t>,std::allocator<wchar_t> > const ,std::basic_string<wchar_t,std::char_traits<wchar_t>,std::allocator<wchar_t> > > > > > > > >::max_size
PUBLIC	?_Orphan_all@?$_Vector_alloc@U?$_Vec_base_types@V?$_List_unchecked_iterator@V?$_List_val@U?$_List_simple_types@U?$pair@$$CBV?$basic_string@_WU?$char_traits@_W@std@@V?$allocator@_W@2@@std@@V12@@std@@@std@@@std@@@std@@U?$_Wrap_alloc@V?$allocator@V?$_List_unchecked_iterator@V?$_List_val@U?$_List_simple_types@U?$pair@$$CBV?$basic_string@_WU?$char_traits@_W@std@@V?$allocator@_W@2@@std@@V12@@std@@@std@@@std@@@std@@@std@@@2@@std@@@std@@QAEXXZ ; std::_Vector_alloc<std::_Vec_base_types<std::_List_unchecked_iterator<std::_List_val<std::_List_simple_types<std::pair<std::basic_string<wchar_t,std::char_traits<wchar_t>,std::allocator<wchar_t> > const ,std::basic_string<wchar_t,std::char_traits<wchar_t>,std::allocator<wchar_t> > > > > >,std::_Wrap_alloc<std::allocator<std::_List_unchecked_iterator<std::_List_val<std::_List_simple_types<std::pair<std::basic_string<wchar_t,std::char_traits<wchar_t>,std::allocator<wchar_t> > const ,std::basic_string<wchar_t,std::char_traits<wchar_t>,std::allocator<wchar_t> > > > > > > > > >::_Orphan_all
PUBLIC	?_Getal@?$_Vector_alloc@U?$_Vec_base_types@V?$_List_unchecked_iterator@V?$_List_val@U?$_List_simple_types@U?$pair@$$CBV?$basic_string@_WU?$char_traits@_W@std@@V?$allocator@_W@2@@std@@V12@@std@@@std@@@std@@@std@@U?$_Wrap_alloc@V?$allocator@V?$_List_unchecked_iterator@V?$_List_val@U?$_List_simple_types@U?$pair@$$CBV?$basic_string@_WU?$char_traits@_W@std@@V?$allocator@_W@2@@std@@V12@@std@@@std@@@std@@@std@@@std@@@2@@std@@@std@@QAEAAU?$_Wrap_alloc@U?$_Wrap_alloc@V?$allocator@V?$_List_unchecked_iterator@V?$_List_val@U?$_List_simple_types@U?$pair@$$CBV?$basic_string@_WU?$char_traits@_W@std@@V?$allocator@_W@2@@std@@V12@@std@@@std@@@std@@@std@@@std@@@std@@@2@XZ ; std::_Vector_alloc<std::_Vec_base_types<std::_List_unchecked_iterator<std::_List_val<std::_List_simple_types<std::pair<std::basic_string<wchar_t,std::char_traits<wchar_t>,std::allocator<wchar_t> > const ,std::basic_string<wchar_t,std::char_traits<wchar_t>,std::allocator<wchar_t> > > > > >,std::_Wrap_alloc<std::allocator<std::_List_unchecked_iterator<std::_List_val<std::_List_simple_types<std::pair<std::basic_string<wchar_t,std::char_traits<wchar_t>,std::allocator<wchar_t> > const ,std::basic_string<wchar_t,std::char_traits<wchar_t>,std::allocator<wchar_t> > > > > > > > > >::_Getal
PUBLIC	?_Getal@?$_Vector_alloc@U?$_Vec_base_types@V?$_List_unchecked_iterator@V?$_List_val@U?$_List_simple_types@U?$pair@$$CBV?$basic_string@_WU?$char_traits@_W@std@@V?$allocator@_W@2@@std@@V12@@std@@@std@@@std@@@std@@U?$_Wrap_alloc@V?$allocator@V?$_List_unchecked_iterator@V?$_List_val@U?$_List_simple_types@U?$pair@$$CBV?$basic_string@_WU?$char_traits@_W@std@@V?$allocator@_W@2@@std@@V12@@std@@@std@@@std@@@std@@@std@@@2@@std@@@std@@QBEABU?$_Wrap_alloc@U?$_Wrap_alloc@V?$allocator@V?$_List_unchecked_iterator@V?$_List_val@U?$_List_simple_types@U?$pair@$$CBV?$basic_string@_WU?$char_traits@_W@std@@V?$allocator@_W@2@@std@@V12@@std@@@std@@@std@@@std@@@std@@@std@@@2@XZ ; std::_Vector_alloc<std::_Vec_base_types<std::_List_unchecked_iterator<std::_List_val<std::_List_simple_types<std::pair<std::basic_string<wchar_t,std::char_traits<wchar_t>,std::allocator<wchar_t> > const ,std::basic_string<wchar_t,std::char_traits<wchar_t>,std::allocator<wchar_t> > > > > >,std::_Wrap_alloc<std::allocator<std::_List_unchecked_iterator<std::_List_val<std::_List_simple_types<std::pair<std::basic_string<wchar_t,std::char_traits<wchar_t>,std::allocator<wchar_t> > const ,std::basic_string<wchar_t,std::char_traits<wchar_t>,std::allocator<wchar_t> > > > > > > > > >::_Getal
PUBLIC	?_Get_data@?$_Vector_alloc@U?$_Vec_base_types@V?$_List_unchecked_iterator@V?$_List_val@U?$_List_simple_types@U?$pair@$$CBV?$basic_string@_WU?$char_traits@_W@std@@V?$allocator@_W@2@@std@@V12@@std@@@std@@@std@@@std@@U?$_Wrap_alloc@V?$allocator@V?$_List_unchecked_iterator@V?$_List_val@U?$_List_simple_types@U?$pair@$$CBV?$basic_string@_WU?$char_traits@_W@std@@V?$allocator@_W@2@@std@@V12@@std@@@std@@@std@@@std@@@std@@@2@@std@@@std@@QAEAAV?$_Vector_val@U?$_Simple_types@V?$_List_unchecked_iterator@V?$_List_val@U?$_List_simple_types@U?$pair@$$CBV?$basic_string@_WU?$char_traits@_W@std@@V?$allocator@_W@2@@std@@V12@@std@@@std@@@std@@@std@@@std@@@2@XZ ; std::_Vector_alloc<std::_Vec_base_types<std::_List_unchecked_iterator<std::_List_val<std::_List_simple_types<std::pair<std::basic_string<wchar_t,std::char_traits<wchar_t>,std::allocator<wchar_t> > const ,std::basic_string<wchar_t,std::char_traits<wchar_t>,std::allocator<wchar_t> > > > > >,std::_Wrap_alloc<std::allocator<std::_List_unchecked_iterator<std::_List_val<std::_List_simple_types<std::pair<std::basic_string<wchar_t,std::char_traits<wchar_t>,std::allocator<wchar_t> > const ,std::basic_string<wchar_t,std::char_traits<wchar_t>,std::allocator<wchar_t> > > > > > > > > >::_Get_data
PUBLIC	?_Get_data@?$_Vector_alloc@U?$_Vec_base_types@V?$_List_unchecked_iterator@V?$_List_val@U?$_List_simple_types@U?$pair@$$CBV?$basic_string@_WU?$char_traits@_W@std@@V?$allocator@_W@2@@std@@V12@@std@@@std@@@std@@@std@@U?$_Wrap_alloc@V?$allocator@V?$_List_unchecked_iterator@V?$_List_val@U?$_List_simple_types@U?$pair@$$CBV?$basic_string@_WU?$char_traits@_W@std@@V?$allocator@_W@2@@std@@V12@@std@@@std@@@std@@@std@@@std@@@2@@std@@@std@@QBEABV?$_Vector_val@U?$_Simple_types@V?$_List_unchecked_iterator@V?$_List_val@U?$_List_simple_types@U?$pair@$$CBV?$basic_string@_WU?$char_traits@_W@std@@V?$allocator@_W@2@@std@@V12@@std@@@std@@@std@@@std@@@std@@@2@XZ ; std::_Vector_alloc<std::_Vec_base_types<std::_List_unchecked_iterator<std::_List_val<std::_List_simple_types<std::pair<std::basic_string<wchar_t,std::char_traits<wchar_t>,std::allocator<wchar_t> > const ,std::basic_string<wchar_t,std::char_traits<wchar_t>,std::allocator<wchar_t> > > > > >,std::_Wrap_alloc<std::allocator<std::_List_unchecked_iterator<std::_List_val<std::_List_simple_types<std::pair<std::basic_string<wchar_t,std::char_traits<wchar_t>,std::allocator<wchar_t> > const ,std::basic_string<wchar_t,std::char_traits<wchar_t>,std::allocator<wchar_t> > > > > > > > > >::_Get_data
PUBLIC	?_Myfirst@?$_Vector_alloc@U?$_Vec_base_types@V?$_List_unchecked_iterator@V?$_List_val@U?$_List_simple_types@U?$pair@$$CBV?$basic_string@_WU?$char_traits@_W@std@@V?$allocator@_W@2@@std@@V12@@std@@@std@@@std@@@std@@U?$_Wrap_alloc@V?$allocator@V?$_List_unchecked_iterator@V?$_List_val@U?$_List_simple_types@U?$pair@$$CBV?$basic_string@_WU?$char_traits@_W@std@@V?$allocator@_W@2@@std@@V12@@std@@@std@@@std@@@std@@@std@@@2@@std@@@std@@QAEAAPAV?$_List_unchecked_iterator@V?$_List_val@U?$_List_simple_types@U?$pair@$$CBV?$basic_string@_WU?$char_traits@_W@std@@V?$allocator@_W@2@@std@@V12@@std@@@std@@@std@@@2@XZ ; std::_Vector_alloc<std::_Vec_base_types<std::_List_unchecked_iterator<std::_List_val<std::_List_simple_types<std::pair<std::basic_string<wchar_t,std::char_traits<wchar_t>,std::allocator<wchar_t> > const ,std::basic_string<wchar_t,std::char_traits<wchar_t>,std::allocator<wchar_t> > > > > >,std::_Wrap_alloc<std::allocator<std::_List_unchecked_iterator<std::_List_val<std::_List_simple_types<std::pair<std::basic_string<wchar_t,std::char_traits<wchar_t>,std::allocator<wchar_t> > const ,std::basic_string<wchar_t,std::char_traits<wchar_t>,std::allocator<wchar_t> > > > > > > > > >::_Myfirst
PUBLIC	?_Myfirst@?$_Vector_alloc@U?$_Vec_base_types@V?$_List_unchecked_iterator@V?$_List_val@U?$_List_simple_types@U?$pair@$$CBV?$basic_string@_WU?$char_traits@_W@std@@V?$allocator@_W@2@@std@@V12@@std@@@std@@@std@@@std@@U?$_Wrap_alloc@V?$allocator@V?$_List_unchecked_iterator@V?$_List_val@U?$_List_simple_types@U?$pair@$$CBV?$basic_string@_WU?$char_traits@_W@std@@V?$allocator@_W@2@@std@@V12@@std@@@std@@@std@@@std@@@std@@@2@@std@@@std@@QBEABQAV?$_List_unchecked_iterator@V?$_List_val@U?$_List_simple_types@U?$pair@$$CBV?$basic_string@_WU?$char_traits@_W@std@@V?$allocator@_W@2@@std@@V12@@std@@@std@@@std@@@2@XZ ; std::_Vector_alloc<std::_Vec_base_types<std::_List_unchecked_iterator<std::_List_val<std::_List_simple_types<std::pair<std::basic_string<wchar_t,std::char_traits<wchar_t>,std::allocator<wchar_t> > const ,std::basic_string<wchar_t,std::char_traits<wchar_t>,std::allocator<wchar_t> > > > > >,std::_Wrap_alloc<std::allocator<std::_List_unchecked_iterator<std::_List_val<std::_List_simple_types<std::pair<std::basic_string<wchar_t,std::char_traits<wchar_t>,std::allocator<wchar_t> > const ,std::basic_string<wchar_t,std::char_traits<wchar_t>,std::allocator<wchar_t> > > > > > > > > >::_Myfirst
PUBLIC	?_Mylast@?$_Vector_alloc@U?$_Vec_base_types@V?$_List_unchecked_iterator@V?$_List_val@U?$_List_simple_types@U?$pair@$$CBV?$basic_string@_WU?$char_traits@_W@std@@V?$allocator@_W@2@@std@@V12@@std@@@std@@@std@@@std@@U?$_Wrap_alloc@V?$allocator@V?$_List_unchecked_iterator@V?$_List_val@U?$_List_simple_types@U?$pair@$$CBV?$basic_string@_WU?$char_traits@_W@std@@V?$allocator@_W@2@@std@@V12@@std@@@std@@@std@@@std@@@std@@@2@@std@@@std@@QAEAAPAV?$_List_unchecked_iterator@V?$_List_val@U?$_List_simple_types@U?$pair@$$CBV?$basic_string@_WU?$char_traits@_W@std@@V?$allocator@_W@2@@std@@V12@@std@@@std@@@std@@@2@XZ ; std::_Vector_alloc<std::_Vec_base_types<std::_List_unchecked_iterator<std::_List_val<std::_List_simple_types<std::pair<std::basic_string<wchar_t,std::char_traits<wchar_t>,std::allocator<wchar_t> > const ,std::basic_string<wchar_t,std::char_traits<wchar_t>,std::allocator<wchar_t> > > > > >,std::_Wrap_alloc<std::allocator<std::_List_unchecked_iterator<std::_List_val<std::_List_simple_types<std::pair<std::basic_string<wchar_t,std::char_traits<wchar_t>,std::allocator<wchar_t> > const ,std::basic_string<wchar_t,std::char_traits<wchar_t>,std::allocator<wchar_t> > > > > > > > > >::_Mylast
PUBLIC	?_Mylast@?$_Vector_alloc@U?$_Vec_base_types@V?$_List_unchecked_iterator@V?$_List_val@U?$_List_simple_types@U?$pair@$$CBV?$basic_string@_WU?$char_traits@_W@std@@V?$allocator@_W@2@@std@@V12@@std@@@std@@@std@@@std@@U?$_Wrap_alloc@V?$allocator@V?$_List_unchecked_iterator@V?$_List_val@U?$_List_simple_types@U?$pair@$$CBV?$basic_string@_WU?$char_traits@_W@std@@V?$allocator@_W@2@@std@@V12@@std@@@std@@@std@@@std@@@std@@@2@@std@@@std@@QBEABQAV?$_List_unchecked_iterator@V?$_List_val@U?$_List_simple_types@U?$pair@$$CBV?$basic_string@_WU?$char_traits@_W@std@@V?$allocator@_W@2@@std@@V12@@std@@@std@@@std@@@2@XZ ; std::_Vector_alloc<std::_Vec_base_types<std::_List_unchecked_iterator<std::_List_val<std::_List_simple_types<std::pair<std::basic_string<wchar_t,std::char_traits<wchar_t>,std::allocator<wchar_t> > const ,std::basic_string<wchar_t,std::char_traits<wchar_t>,std::allocator<wchar_t> > > > > >,std::_Wrap_alloc<std::allocator<std::_List_unchecked_iterator<std::_List_val<std::_List_simple_types<std::pair<std::basic_string<wchar_t,std::char_traits<wchar_t>,std::allocator<wchar_t> > const ,std::basic_string<wchar_t,std::char_traits<wchar_t>,std::allocator<wchar_t> > > > > > > > > >::_Mylast
PUBLIC	?_Myend@?$_Vector_alloc@U?$_Vec_base_types@V?$_List_unchecked_iterator@V?$_List_val@U?$_List_simple_types@U?$pair@$$CBV?$basic_string@_WU?$char_traits@_W@std@@V?$allocator@_W@2@@std@@V12@@std@@@std@@@std@@@std@@U?$_Wrap_alloc@V?$allocator@V?$_List_unchecked_iterator@V?$_List_val@U?$_List_simple_types@U?$pair@$$CBV?$basic_string@_WU?$char_traits@_W@std@@V?$allocator@_W@2@@std@@V12@@std@@@std@@@std@@@std@@@std@@@2@@std@@@std@@QAEAAPAV?$_List_unchecked_iterator@V?$_List_val@U?$_List_simple_types@U?$pair@$$CBV?$basic_string@_WU?$char_traits@_W@std@@V?$allocator@_W@2@@std@@V12@@std@@@std@@@std@@@2@XZ ; std::_Vector_alloc<std::_Vec_base_types<std::_List_unchecked_iterator<std::_List_val<std::_List_simple_types<std::pair<std::basic_string<wchar_t,std::char_traits<wchar_t>,std::allocator<wchar_t> > const ,std::basic_string<wchar_t,std::char_traits<wchar_t>,std::allocator<wchar_t> > > > > >,std::_Wrap_alloc<std::allocator<std::_List_unchecked_iterator<std::_List_val<std::_List_simple_types<std::pair<std::basic_string<wchar_t,std::char_traits<wchar_t>,std::allocator<wchar_t> > const ,std::basic_string<wchar_t,std::char_traits<wchar_t>,std::allocator<wchar_t> > > > > > > > > >::_Myend
PUBLIC	?_Myend@?$_Vector_alloc@U?$_Vec_base_types@V?$_List_unchecked_iterator@V?$_List_val@U?$_List_simple_types@U?$pair@$$CBV?$basic_string@_WU?$char_traits@_W@std@@V?$allocator@_W@2@@std@@V12@@std@@@std@@@std@@@std@@U?$_Wrap_alloc@V?$allocator@V?$_List_unchecked_iterator@V?$_List_val@U?$_List_simple_types@U?$pair@$$CBV?$basic_string@_WU?$char_traits@_W@std@@V?$allocator@_W@2@@std@@V12@@std@@@std@@@std@@@std@@@std@@@2@@std@@@std@@QBEABQAV?$_List_unchecked_iterator@V?$_List_val@U?$_List_simple_types@U?$pair@$$CBV?$basic_string@_WU?$char_traits@_W@std@@V?$allocator@_W@2@@std@@V12@@std@@@std@@@std@@@2@XZ ; std::_Vector_alloc<std::_Vec_base_types<std::_List_unchecked_iterator<std::_List_val<std::_List_simple_types<std::pair<std::basic_string<wchar_t,std::char_traits<wchar_t>,std::allocator<wchar_t> > const ,std::basic_string<wchar_t,std::char_traits<wchar_t>,std::allocator<wchar_t> > > > > >,std::_Wrap_alloc<std::allocator<std::_List_unchecked_iterator<std::_List_val<std::_List_simple_types<std::pair<std::basic_string<wchar_t,std::char_traits<wchar_t>,std::allocator<wchar_t> > const ,std::basic_string<wchar_t,std::char_traits<wchar_t>,std::allocator<wchar_t> > > > > > > > > >::_Myend
PUBLIC	??0?$_Vector_val@U?$_Simple_types@V?$_List_unchecked_iterator@V?$_List_val@U?$_List_simple_types@U?$pair@$$CBV?$basic_string@_WU?$char_traits@_W@std@@V?$allocator@_W@2@@std@@V12@@std@@@std@@@std@@@std@@@std@@@std@@QAE@XZ ; std::_Vector_val<std::_Simple_types<std::_List_unchecked_iterator<std::_List_val<std::_List_simple_types<std::pair<std::basic_string<wchar_t,std::char_traits<wchar_t>,std::allocator<wchar_t> > const ,std::basic_string<wchar_t,std::char_traits<wchar_t>,std::allocator<wchar_t> > > > > > > >::_Vector_val<std::_Simple_types<std::_List_unchecked_iterator<std::_List_val<std::_List_simple_types<std::pair<std::basic_string<wchar_t,std::char_traits<wchar_t>,std::allocator<wchar_t> > const ,std::basic_string<wchar_t,std::char_traits<wchar_t>,std::allocator<wchar_t> > > > > > > >
PUBLIC	?_Get_first@?$_Compressed_pair@U?$_Wrap_alloc@U?$_Wrap_alloc@V?$allocator@V?$_List_unchecked_iterator@V?$_List_val@U?$_List_simple_types@U?$pair@$$CBV?$basic_string@_WU?$char_traits@_W@std@@V?$allocator@_W@2@@std@@V12@@std@@@std@@@std@@@std@@@std@@@std@@@std@@V?$_Vector_val@U?$_Simple_types@V?$_List_unchecked_iterator@V?$_List_val@U?$_List_simple_types@U?$pair@$$CBV?$basic_string@_WU?$char_traits@_W@std@@V?$allocator@_W@2@@std@@V12@@std@@@std@@@std@@@std@@@std@@@2@$00@std@@QAEAAU?$_Wrap_alloc@U?$_Wrap_alloc@V?$allocator@V?$_List_unchecked_iterator@V?$_List_val@U?$_List_simple_types@U?$pair@$$CBV?$basic_string@_WU?$char_traits@_W@std@@V?$allocator@_W@2@@std@@V12@@std@@@std@@@std@@@std@@@std@@@std@@@2@XZ ; std::_Compressed_pair<std::_Wrap_alloc<std::_Wrap_alloc<std::allocator<std::_List_unchecked_iterator<std::_List_val<std::_List_simple_types<std::pair<std::basic_string<wchar_t,std::char_traits<wchar_t>,std::allocator<wchar_t> > const ,std::basic_string<wchar_t,std::char_traits<wchar_t>,std::allocator<wchar_t> > > > > > > > >,std::_Vector_val<std::_Simple_types<std::_List_unchecked_iterator<std::_List_val<std::_List_simple_types<std::pair<std::basic_string<wchar_t,std::char_traits<wchar_t>,std::allocator<wchar_t> > const ,std::basic_string<wchar_t,std::char_traits<wchar_t>,std::allocator<wchar_t> > > > > > > >,1>::_Get_first
PUBLIC	?_Get_first@?$_Compressed_pair@U?$_Wrap_alloc@U?$_Wrap_alloc@V?$allocator@V?$_List_unchecked_iterator@V?$_List_val@U?$_List_simple_types@U?$pair@$$CBV?$basic_string@_WU?$char_traits@_W@std@@V?$allocator@_W@2@@std@@V12@@std@@@std@@@std@@@std@@@std@@@std@@@std@@V?$_Vector_val@U?$_Simple_types@V?$_List_unchecked_iterator@V?$_List_val@U?$_List_simple_types@U?$pair@$$CBV?$basic_string@_WU?$char_traits@_W@std@@V?$allocator@_W@2@@std@@V12@@std@@@std@@@std@@@std@@@std@@@2@$00@std@@QBEABU?$_Wrap_alloc@U?$_Wrap_alloc@V?$allocator@V?$_List_unchecked_iterator@V?$_List_val@U?$_List_simple_types@U?$pair@$$CBV?$basic_string@_WU?$char_traits@_W@std@@V?$allocator@_W@2@@std@@V12@@std@@@std@@@std@@@std@@@std@@@std@@@2@XZ ; std::_Compressed_pair<std::_Wrap_alloc<std::_Wrap_alloc<std::allocator<std::_List_unchecked_iterator<std::_List_val<std::_List_simple_types<std::pair<std::basic_string<wchar_t,std::char_traits<wchar_t>,std::allocator<wchar_t> > const ,std::basic_string<wchar_t,std::char_traits<wchar_t>,std::allocator<wchar_t> > > > > > > > >,std::_Vector_val<std::_Simple_types<std::_List_unchecked_iterator<std::_List_val<std::_List_simple_types<std::pair<std::basic_string<wchar_t,std::char_traits<wchar_t>,std::allocator<wchar_t> > const ,std::basic_string<wchar_t,std::char_traits<wchar_t>,std::allocator<wchar_t> > > > > > > >,1>::_Get_first
PUBLIC	?_Get_second@?$_Compressed_pair@U?$_Wrap_alloc@U?$_Wrap_alloc@V?$allocator@V?$_List_unchecked_iterator@V?$_List_val@U?$_List_simple_types@U?$pair@$$CBV?$basic_string@_WU?$char_traits@_W@std@@V?$allocator@_W@2@@std@@V12@@std@@@std@@@std@@@std@@@std@@@std@@@std@@V?$_Vector_val@U?$_Simple_types@V?$_List_unchecked_iterator@V?$_List_val@U?$_List_simple_types@U?$pair@$$CBV?$basic_string@_WU?$char_traits@_W@std@@V?$allocator@_W@2@@std@@V12@@std@@@std@@@std@@@std@@@std@@@2@$00@std@@QAEAAV?$_Vector_val@U?$_Simple_types@V?$_List_unchecked_iterator@V?$_List_val@U?$_List_simple_types@U?$pair@$$CBV?$basic_string@_WU?$char_traits@_W@std@@V?$allocator@_W@2@@std@@V12@@std@@@std@@@std@@@std@@@std@@@2@XZ ; std::_Compressed_pair<std::_Wrap_alloc<std::_Wrap_alloc<std::allocator<std::_List_unchecked_iterator<std::_List_val<std::_List_simple_types<std::pair<std::basic_string<wchar_t,std::char_traits<wchar_t>,std::allocator<wchar_t> > const ,std::basic_string<wchar_t,std::char_traits<wchar_t>,std::allocator<wchar_t> > > > > > > > >,std::_Vector_val<std::_Simple_types<std::_List_unchecked_iterator<std::_List_val<std::_List_simple_types<std::pair<std::basic_string<wchar_t,std::char_traits<wchar_t>,std::allocator<wchar_t> > const ,std::basic_string<wchar_t,std::char_traits<wchar_t>,std::allocator<wchar_t> > > > > > > >,1>::_Get_second
PUBLIC	?_Get_second@?$_Compressed_pair@U?$_Wrap_alloc@U?$_Wrap_alloc@V?$allocator@V?$_List_unchecked_iterator@V?$_List_val@U?$_List_simple_types@U?$pair@$$CBV?$basic_string@_WU?$char_traits@_W@std@@V?$allocator@_W@2@@std@@V12@@std@@@std@@@std@@@std@@@std@@@std@@@std@@V?$_Vector_val@U?$_Simple_types@V?$_List_unchecked_iterator@V?$_List_val@U?$_List_simple_types@U?$pair@$$CBV?$basic_string@_WU?$char_traits@_W@std@@V?$allocator@_W@2@@std@@V12@@std@@@std@@@std@@@std@@@std@@@2@$00@std@@QBEABV?$_Vector_val@U?$_Simple_types@V?$_List_unchecked_iterator@V?$_List_val@U?$_List_simple_types@U?$pair@$$CBV?$basic_string@_WU?$char_traits@_W@std@@V?$allocator@_W@2@@std@@V12@@std@@@std@@@std@@@std@@@std@@@2@XZ ; std::_Compressed_pair<std::_Wrap_alloc<std::_Wrap_alloc<std::allocator<std::_List_unchecked_iterator<std::_List_val<std::_List_simple_types<std::pair<std::basic_string<wchar_t,std::char_traits<wchar_t>,std::allocator<wchar_t> > const ,std::basic_string<wchar_t,std::char_traits<wchar_t>,std::allocator<wchar_t> > > > > > > > >,std::_Vector_val<std::_Simple_types<std::_List_unchecked_iterator<std::_List_val<std::_List_simple_types<std::pair<std::basic_string<wchar_t,std::char_traits<wchar_t>,std::allocator<wchar_t> > const ,std::basic_string<wchar_t,std::char_traits<wchar_t>,std::allocator<wchar_t> > > > > > > >,1>::_Get_second
PUBLIC	??0?$vector@V?$_List_unchecked_iterator@V?$_List_val@U?$_List_simple_types@U?$pair@$$CBV?$basic_string@_WU?$char_traits@_W@std@@V?$allocator@_W@2@@std@@V12@@std@@@std@@@std@@@std@@U?$_Wrap_alloc@V?$allocator@V?$_List_unchecked_iterator@V?$_List_val@U?$_List_simple_types@U?$pair@$$CBV?$basic_string@_WU?$char_traits@_W@std@@V?$allocator@_W@2@@std@@V12@@std@@@std@@@std@@@std@@@std@@@2@@std@@QAE@ABU?$_Wrap_alloc@V?$allocator@V?$_List_unchecked_iterator@V?$_List_val@U?$_List_simple_types@U?$pair@$$CBV?$basic_string@_WU?$char_traits@_W@std@@V?$allocator@_W@2@@std@@V12@@std@@@std@@@std@@@std@@@std@@@1@@Z ; std::vector<std::_List_unchecked_iterator<std::_List_val<std::_List_simple_types<std::pair<std::basic_string<wchar_t,std::char_traits<wchar_t>,std::allocator<wchar_t> > const ,std::basic_string<wchar_t,std::char_traits<wchar_t>,std::allocator<wchar_t> > > > > >,std::_Wrap_alloc<std::allocator<std::_List_unchecked_iterator<std::_List_val<std::_List_simple_types<std::pair<std::basic_string<wchar_t,std::char_traits<wchar_t>,std::allocator<wchar_t> > const ,std::basic_string<wchar_t,std::char_traits<wchar_t>,std::allocator<wchar_t> > > > > > > > >::vector<std::_List_unchecked_iterator<std::_List_val<std::_List_simple_types<std::pair<std::basic_string<wchar_t,std::char_traits<wchar_t>,std::allocator<wchar_t> > const ,std::basic_string<wchar_t,std::char_traits<wchar_t>,std::allocator<wchar_t> > > > > >,std::_Wrap_alloc<std::allocator<std::_List_unchecked_iterator<std::_List_val<std::_List_simple_types<std::pair<std::basic_string<wchar_t,std::char_traits<wchar_t>,std::allocator<wchar_t> > const ,std::basic_string<wchar_t,std::char_traits<wchar_t>,std::allocator<wchar_t> > > > > > > > >
PUBLIC	??1?$vector@V?$_List_unchecked_iterator@V?$_List_val@U?$_List_simple_types@U?$pair@$$CBV?$basic_string@_WU?$char_traits@_W@std@@V?$allocator@_W@2@@std@@V12@@std@@@std@@@std@@@std@@U?$_Wrap_alloc@V?$allocator@V?$_List_unchecked_iterator@V?$_List_val@U?$_List_simple_types@U?$pair@$$CBV?$basic_string@_WU?$char_traits@_W@std@@V?$allocator@_W@2@@std@@V12@@std@@@std@@@std@@@std@@@std@@@2@@std@@QAE@XZ ; std::vector<std::_List_unchecked_iterator<std::_List_val<std::_List_simple_types<std::pair<std::basic_string<wchar_t,std::char_traits<wchar_t>,std::allocator<wchar_t> > const ,std::basic_string<wchar_t,std::char_traits<wchar_t>,std::allocator<wchar_t> > > > > >,std::_Wrap_alloc<std::allocator<std::_List_unchecked_iterator<std::_List_val<std::_List_simple_types<std::pair<std::basic_string<wchar_t,std::char_traits<wchar_t>,std::allocator<wchar_t> > const ,std::basic_string<wchar_t,std::char_traits<wchar_t>,std::allocator<wchar_t> > > > > > > > >::~vector<std::_List_unchecked_iterator<std::_List_val<std::_List_simple_types<std::pair<std::basic_string<wchar_t,std::char_traits<wchar_t>,std::allocator<wchar_t> > const ,std::basic_string<wchar_t,std::char_traits<wchar_t>,std::allocator<wchar_t> > > > > >,std::_Wrap_alloc<std::allocator<std::_List_unchecked_iterator<std::_List_val<std::_List_simple_types<std::pair<std::basic_string<wchar_t,std::char_traits<wchar_t>,std::allocator<wchar_t> > const ,std::basic_string<wchar_t,std::char_traits<wchar_t>,std::allocator<wchar_t> > > > > > > > >
PUBLIC	?assign@?$vector@V?$_List_unchecked_iterator@V?$_List_val@U?$_List_simple_types@U?$pair@$$CBV?$basic_string@_WU?$char_traits@_W@std@@V?$allocator@_W@2@@std@@V12@@std@@@std@@@std@@@std@@U?$_Wrap_alloc@V?$allocator@V?$_List_unchecked_iterator@V?$_List_val@U?$_List_simple_types@U?$pair@$$CBV?$basic_string@_WU?$char_traits@_W@std@@V?$allocator@_W@2@@std@@V12@@std@@@std@@@std@@@std@@@std@@@2@@std@@QAEXIABV?$_List_unchecked_iterator@V?$_List_val@U?$_List_simple_types@U?$pair@$$CBV?$basic_string@_WU?$char_traits@_W@std@@V?$allocator@_W@2@@std@@V12@@std@@@std@@@std@@@2@@Z ; std::vector<std::_List_unchecked_iterator<std::_List_val<std::_List_simple_types<std::pair<std::basic_string<wchar_t,std::char_traits<wchar_t>,std::allocator<wchar_t> > const ,std::basic_string<wchar_t,std::char_traits<wchar_t>,std::allocator<wchar_t> > > > > >,std::_Wrap_alloc<std::allocator<std::_List_unchecked_iterator<std::_List_val<std::_List_simple_types<std::pair<std::basic_string<wchar_t,std::char_traits<wchar_t>,std::allocator<wchar_t> > const ,std::basic_string<wchar_t,std::char_traits<wchar_t>,std::allocator<wchar_t> > > > > > > > >::assign
PUBLIC	?_Reallocate_exactly@?$vector@V?$_List_unchecked_iterator@V?$_List_val@U?$_List_simple_types@U?$pair@$$CBV?$basic_string@_WU?$char_traits@_W@std@@V?$allocator@_W@2@@std@@V12@@std@@@std@@@std@@@std@@U?$_Wrap_alloc@V?$allocator@V?$_List_unchecked_iterator@V?$_List_val@U?$_List_simple_types@U?$pair@$$CBV?$basic_string@_WU?$char_traits@_W@std@@V?$allocator@_W@2@@std@@V12@@std@@@std@@@std@@@std@@@std@@@2@@std@@AAEXI@Z ; std::vector<std::_List_unchecked_iterator<std::_List_val<std::_List_simple_types<std::pair<std::basic_string<wchar_t,std::char_traits<wchar_t>,std::allocator<wchar_t> > const ,std::basic_string<wchar_t,std::char_traits<wchar_t>,std::allocator<wchar_t> > > > > >,std::_Wrap_alloc<std::allocator<std::_List_unchecked_iterator<std::_List_val<std::_List_simple_types<std::pair<std::basic_string<wchar_t,std::char_traits<wchar_t>,std::allocator<wchar_t> > const ,std::basic_string<wchar_t,std::char_traits<wchar_t>,std::allocator<wchar_t> > > > > > > > >::_Reallocate_exactly
PUBLIC	?reserve@?$vector@V?$_List_unchecked_iterator@V?$_List_val@U?$_List_simple_types@U?$pair@$$CBV?$basic_string@_WU?$char_traits@_W@std@@V?$allocator@_W@2@@std@@V12@@std@@@std@@@std@@@std@@U?$_Wrap_alloc@V?$allocator@V?$_List_unchecked_iterator@V?$_List_val@U?$_List_simple_types@U?$pair@$$CBV?$basic_string@_WU?$char_traits@_W@std@@V?$allocator@_W@2@@std@@V12@@std@@@std@@@std@@@std@@@std@@@2@@std@@QAEXI@Z ; std::vector<std::_List_unchecked_iterator<std::_List_val<std::_List_simple_types<std::pair<std::basic_string<wchar_t,std::char_traits<wchar_t>,std::allocator<wchar_t> > const ,std::basic_string<wchar_t,std::char_traits<wchar_t>,std::allocator<wchar_t> > > > > >,std::_Wrap_alloc<std::allocator<std::_List_unchecked_iterator<std::_List_val<std::_List_simple_types<std::pair<std::basic_string<wchar_t,std::char_traits<wchar_t>,std::allocator<wchar_t> > const ,std::basic_string<wchar_t,std::char_traits<wchar_t>,std::allocator<wchar_t> > > > > > > > >::reserve
PUBLIC	?size@?$vector@V?$_List_unchecked_iterator@V?$_List_val@U?$_List_simple_types@U?$pair@$$CBV?$basic_string@_WU?$char_traits@_W@std@@V?$allocator@_W@2@@std@@V12@@std@@@std@@@std@@@std@@U?$_Wrap_alloc@V?$allocator@V?$_List_unchecked_iterator@V?$_List_val@U?$_List_simple_types@U?$pair@$$CBV?$basic_string@_WU?$char_traits@_W@std@@V?$allocator@_W@2@@std@@V12@@std@@@std@@@std@@@std@@@std@@@2@@std@@QBEIXZ ; std::vector<std::_List_unchecked_iterator<std::_List_val<std::_List_simple_types<std::pair<std::basic_string<wchar_t,std::char_traits<wchar_t>,std::allocator<wchar_t> > const ,std::basic_string<wchar_t,std::char_traits<wchar_t>,std::allocator<wchar_t> > > > > >,std::_Wrap_alloc<std::allocator<std::_List_unchecked_iterator<std::_List_val<std::_List_simple_types<std::pair<std::basic_string<wchar_t,std::char_traits<wchar_t>,std::allocator<wchar_t> > const ,std::basic_string<wchar_t,std::char_traits<wchar_t>,std::allocator<wchar_t> > > > > > > > >::size
PUBLIC	?max_size@?$vector@V?$_List_unchecked_iterator@V?$_List_val@U?$_List_simple_types@U?$pair@$$CBV?$basic_string@_WU?$char_traits@_W@std@@V?$allocator@_W@2@@std@@V12@@std@@@std@@@std@@@std@@U?$_Wrap_alloc@V?$allocator@V?$_List_unchecked_iterator@V?$_List_val@U?$_List_simple_types@U?$pair@$$CBV?$basic_string@_WU?$char_traits@_W@std@@V?$allocator@_W@2@@std@@V12@@std@@@std@@@std@@@std@@@std@@@2@@std@@QBEIXZ ; std::vector<std::_List_unchecked_iterator<std::_List_val<std::_List_simple_types<std::pair<std::basic_string<wchar_t,std::char_traits<wchar_t>,std::allocator<wchar_t> > const ,std::basic_string<wchar_t,std::char_traits<wchar_t>,std::allocator<wchar_t> > > > > >,std::_Wrap_alloc<std::allocator<std::_List_unchecked_iterator<std::_List_val<std::_List_simple_types<std::pair<std::basic_string<wchar_t,std::char_traits<wchar_t>,std::allocator<wchar_t> > const ,std::basic_string<wchar_t,std::char_traits<wchar_t>,std::allocator<wchar_t> > > > > > > > >::max_size
PUBLIC	?capacity@?$vector@V?$_List_unchecked_iterator@V?$_List_val@U?$_List_simple_types@U?$pair@$$CBV?$basic_string@_WU?$char_traits@_W@std@@V?$allocator@_W@2@@std@@V12@@std@@@std@@@std@@@std@@U?$_Wrap_alloc@V?$allocator@V?$_List_unchecked_iterator@V?$_List_val@U?$_List_simple_types@U?$pair@$$CBV?$basic_string@_WU?$char_traits@_W@std@@V?$allocator@_W@2@@std@@V12@@std@@@std@@@std@@@std@@@std@@@2@@std@@QBEIXZ ; std::vector<std::_List_unchecked_iterator<std::_List_val<std::_List_simple_types<std::pair<std::basic_string<wchar_t,std::char_traits<wchar_t>,std::allocator<wchar_t> > const ,std::basic_string<wchar_t,std::char_traits<wchar_t>,std::allocator<wchar_t> > > > > >,std::_Wrap_alloc<std::allocator<std::_List_unchecked_iterator<std::_List_val<std::_List_simple_types<std::pair<std::basic_string<wchar_t,std::char_traits<wchar_t>,std::allocator<wchar_t> > const ,std::basic_string<wchar_t,std::char_traits<wchar_t>,std::allocator<wchar_t> > > > > > > > >::capacity
PUBLIC	??A?$vector@V?$_List_unchecked_iterator@V?$_List_val@U?$_List_simple_types@U?$pair@$$CBV?$basic_string@_WU?$char_traits@_W@std@@V?$allocator@_W@2@@std@@V12@@std@@@std@@@std@@@std@@U?$_Wrap_alloc@V?$allocator@V?$_List_unchecked_iterator@V?$_List_val@U?$_List_simple_types@U?$pair@$$CBV?$basic_string@_WU?$char_traits@_W@std@@V?$allocator@_W@2@@std@@V12@@std@@@std@@@std@@@std@@@std@@@2@@std@@QAEAAV?$_List_unchecked_iterator@V?$_List_val@U?$_List_simple_types@U?$pair@$$CBV?$basic_string@_WU?$char_traits@_W@std@@V?$allocator@_W@2@@std@@V12@@std@@@std@@@std@@@1@I@Z ; std::vector<std::_List_unchecked_iterator<std::_List_val<std::_List_simple_types<std::pair<std::basic_string<wchar_t,std::char_traits<wchar_t>,std::allocator<wchar_t> > const ,std::basic_string<wchar_t,std::char_traits<wchar_t>,std::allocator<wchar_t> > > > > >,std::_Wrap_alloc<std::allocator<std::_List_unchecked_iterator<std::_List_val<std::_List_simple_types<std::pair<std::basic_string<wchar_t,std::char_traits<wchar_t>,std::allocator<wchar_t> > const ,std::basic_string<wchar_t,std::char_traits<wchar_t>,std::allocator<wchar_t> > > > > > > > >::operator[]
PUBLIC	?_Ufill@?$vector@V?$_List_unchecked_iterator@V?$_List_val@U?$_List_simple_types@U?$pair@$$CBV?$basic_string@_WU?$char_traits@_W@std@@V?$allocator@_W@2@@std@@V12@@std@@@std@@@std@@@std@@U?$_Wrap_alloc@V?$allocator@V?$_List_unchecked_iterator@V?$_List_val@U?$_List_simple_types@U?$pair@$$CBV?$basic_string@_WU?$char_traits@_W@std@@V?$allocator@_W@2@@std@@V12@@std@@@std@@@std@@@std@@@std@@@2@@std@@AAEPAV?$_List_unchecked_iterator@V?$_List_val@U?$_List_simple_types@U?$pair@$$CBV?$basic_string@_WU?$char_traits@_W@std@@V?$allocator@_W@2@@std@@V12@@std@@@std@@@std@@@2@PAV32@IABV32@@Z ; std::vector<std::_List_unchecked_iterator<std::_List_val<std::_List_simple_types<std::pair<std::basic_string<wchar_t,std::char_traits<wchar_t>,std::allocator<wchar_t> > const ,std::basic_string<wchar_t,std::char_traits<wchar_t>,std::allocator<wchar_t> > > > > >,std::_Wrap_alloc<std::allocator<std::_List_unchecked_iterator<std::_List_val<std::_List_simple_types<std::pair<std::basic_string<wchar_t,std::char_traits<wchar_t>,std::allocator<wchar_t> > const ,std::basic_string<wchar_t,std::char_traits<wchar_t>,std::allocator<wchar_t> > > > > > > > >::_Ufill
PUBLIC	?_Umove_if_noexcept1@?$vector@V?$_List_unchecked_iterator@V?$_List_val@U?$_List_simple_types@U?$pair@$$CBV?$basic_string@_WU?$char_traits@_W@std@@V?$allocator@_W@2@@std@@V12@@std@@@std@@@std@@@std@@U?$_Wrap_alloc@V?$allocator@V?$_List_unchecked_iterator@V?$_List_val@U?$_List_simple_types@U?$pair@$$CBV?$basic_string@_WU?$char_traits@_W@std@@V?$allocator@_W@2@@std@@V12@@std@@@std@@@std@@@std@@@std@@@2@@std@@AAEXPAV?$_List_unchecked_iterator@V?$_List_val@U?$_List_simple_types@U?$pair@$$CBV?$basic_string@_WU?$char_traits@_W@std@@V?$allocator@_W@2@@std@@V12@@std@@@std@@@std@@@2@00U?$integral_constant@_N$00@2@@Z ; std::vector<std::_List_unchecked_iterator<std::_List_val<std::_List_simple_types<std::pair<std::basic_string<wchar_t,std::char_traits<wchar_t>,std::allocator<wchar_t> > const ,std::basic_string<wchar_t,std::char_traits<wchar_t>,std::allocator<wchar_t> > > > > >,std::_Wrap_alloc<std::allocator<std::_List_unchecked_iterator<std::_List_val<std::_List_simple_types<std::pair<std::basic_string<wchar_t,std::char_traits<wchar_t>,std::allocator<wchar_t> > const ,std::basic_string<wchar_t,std::char_traits<wchar_t>,std::allocator<wchar_t> > > > > > > > >::_Umove_if_noexcept1
PUBLIC	?_Umove_if_noexcept@?$vector@V?$_List_unchecked_iterator@V?$_List_val@U?$_List_simple_types@U?$pair@$$CBV?$basic_string@_WU?$char_traits@_W@std@@V?$allocator@_W@2@@std@@V12@@std@@@std@@@std@@@std@@U?$_Wrap_alloc@V?$allocator@V?$_List_unchecked_iterator@V?$_List_val@U?$_List_simple_types@U?$pair@$$CBV?$basic_string@_WU?$char_traits@_W@std@@V?$allocator@_W@2@@std@@V12@@std@@@std@@@std@@@std@@@std@@@2@@std@@AAEXPAV?$_List_unchecked_iterator@V?$_List_val@U?$_List_simple_types@U?$pair@$$CBV?$basic_string@_WU?$char_traits@_W@std@@V?$allocator@_W@2@@std@@V12@@std@@@std@@@std@@@2@00@Z ; std::vector<std::_List_unchecked_iterator<std::_List_val<std::_List_simple_types<std::pair<std::basic_string<wchar_t,std::char_traits<wchar_t>,std::allocator<wchar_t> > const ,std::basic_string<wchar_t,std::char_traits<wchar_t>,std::allocator<wchar_t> > > > > >,std::_Wrap_alloc<std::allocator<std::_List_unchecked_iterator<std::_List_val<std::_List_simple_types<std::pair<std::basic_string<wchar_t,std::char_traits<wchar_t>,std::allocator<wchar_t> > const ,std::basic_string<wchar_t,std::char_traits<wchar_t>,std::allocator<wchar_t> > > > > > > > >::_Umove_if_noexcept
PUBLIC	?_Destroy@?$vector@V?$_List_unchecked_iterator@V?$_List_val@U?$_List_simple_types@U?$pair@$$CBV?$basic_string@_WU?$char_traits@_W@std@@V?$allocator@_W@2@@std@@V12@@std@@@std@@@std@@@std@@U?$_Wrap_alloc@V?$allocator@V?$_List_unchecked_iterator@V?$_List_val@U?$_List_simple_types@U?$pair@$$CBV?$basic_string@_WU?$char_traits@_W@std@@V?$allocator@_W@2@@std@@V12@@std@@@std@@@std@@@std@@@std@@@2@@std@@AAEXPAV?$_List_unchecked_iterator@V?$_List_val@U?$_List_simple_types@U?$pair@$$CBV?$basic_string@_WU?$char_traits@_W@std@@V?$allocator@_W@2@@std@@V12@@std@@@std@@@std@@@2@0@Z ; std::vector<std::_List_unchecked_iterator<std::_List_val<std::_List_simple_types<std::pair<std::basic_string<wchar_t,std::char_traits<wchar_t>,std::allocator<wchar_t> > const ,std::basic_string<wchar_t,std::char_traits<wchar_t>,std::allocator<wchar_t> > > > > >,std::_Wrap_alloc<std::allocator<std::_List_unchecked_iterator<std::_List_val<std::_List_simple_types<std::pair<std::basic_string<wchar_t,std::char_traits<wchar_t>,std::allocator<wchar_t> > const ,std::basic_string<wchar_t,std::char_traits<wchar_t>,std::allocator<wchar_t> > > > > > > > >::_Destroy
PUBLIC	?_Calculate_growth@?$vector@V?$_List_unchecked_iterator@V?$_List_val@U?$_List_simple_types@U?$pair@$$CBV?$basic_string@_WU?$char_traits@_W@std@@V?$allocator@_W@2@@std@@V12@@std@@@std@@@std@@@std@@U?$_Wrap_alloc@V?$allocator@V?$_List_unchecked_iterator@V?$_List_val@U?$_List_simple_types@U?$pair@$$CBV?$basic_string@_WU?$char_traits@_W@std@@V?$allocator@_W@2@@std@@V12@@std@@@std@@@std@@@std@@@std@@@2@@std@@ABEII@Z ; std::vector<std::_List_unchecked_iterator<std::_List_val<std::_List_simple_types<std::pair<std::basic_string<wchar_t,std::char_traits<wchar_t>,std::allocator<wchar_t> > const ,std::basic_string<wchar_t,std::char_traits<wchar_t>,std::allocator<wchar_t> > > > > >,std::_Wrap_alloc<std::allocator<std::_List_unchecked_iterator<std::_List_val<std::_List_simple_types<std::pair<std::basic_string<wchar_t,std::char_traits<wchar_t>,std::allocator<wchar_t> > const ,std::basic_string<wchar_t,std::char_traits<wchar_t>,std::allocator<wchar_t> > > > > > > > >::_Calculate_growth
PUBLIC	?_Buy@?$vector@V?$_List_unchecked_iterator@V?$_List_val@U?$_List_simple_types@U?$pair@$$CBV?$basic_string@_WU?$char_traits@_W@std@@V?$allocator@_W@2@@std@@V12@@std@@@std@@@std@@@std@@U?$_Wrap_alloc@V?$allocator@V?$_List_unchecked_iterator@V?$_List_val@U?$_List_simple_types@U?$pair@$$CBV?$basic_string@_WU?$char_traits@_W@std@@V?$allocator@_W@2@@std@@V12@@std@@@std@@@std@@@std@@@std@@@2@@std@@AAE_NI@Z ; std::vector<std::_List_unchecked_iterator<std::_List_val<std::_List_simple_types<std::pair<std::basic_string<wchar_t,std::char_traits<wchar_t>,std::allocator<wchar_t> > const ,std::basic_string<wchar_t,std::char_traits<wchar_t>,std::allocator<wchar_t> > > > > >,std::_Wrap_alloc<std::allocator<std::_List_unchecked_iterator<std::_List_val<std::_List_simple_types<std::pair<std::basic_string<wchar_t,std::char_traits<wchar_t>,std::allocator<wchar_t> > const ,std::basic_string<wchar_t,std::char_traits<wchar_t>,std::allocator<wchar_t> > > > > > > > >::_Buy
PUBLIC	?_Change_array@?$vector@V?$_List_unchecked_iterator@V?$_List_val@U?$_List_simple_types@U?$pair@$$CBV?$basic_string@_WU?$char_traits@_W@std@@V?$allocator@_W@2@@std@@V12@@std@@@std@@@std@@@std@@U?$_Wrap_alloc@V?$allocator@V?$_List_unchecked_iterator@V?$_List_val@U?$_List_simple_types@U?$pair@$$CBV?$basic_string@_WU?$char_traits@_W@std@@V?$allocator@_W@2@@std@@V12@@std@@@std@@@std@@@std@@@std@@@2@@std@@AAEXQAV?$_List_unchecked_iterator@V?$_List_val@U?$_List_simple_types@U?$pair@$$CBV?$basic_string@_WU?$char_traits@_W@std@@V?$allocator@_W@2@@std@@V12@@std@@@std@@@std@@@2@II@Z ; std::vector<std::_List_unchecked_iterator<std::_List_val<std::_List_simple_types<std::pair<std::basic_string<wchar_t,std::char_traits<wchar_t>,std::allocator<wchar_t> > const ,std::basic_string<wchar_t,std::char_traits<wchar_t>,std::allocator<wchar_t> > > > > >,std::_Wrap_alloc<std::allocator<std::_List_unchecked_iterator<std::_List_val<std::_List_simple_types<std::pair<std::basic_string<wchar_t,std::char_traits<wchar_t>,std::allocator<wchar_t> > const ,std::basic_string<wchar_t,std::char_traits<wchar_t>,std::allocator<wchar_t> > > > > > > > >::_Change_array
PUBLIC	?_Tidy@?$vector@V?$_List_unchecked_iterator@V?$_List_val@U?$_List_simple_types@U?$pair@$$CBV?$basic_string@_WU?$char_traits@_W@std@@V?$allocator@_W@2@@std@@V12@@std@@@std@@@std@@@std@@U?$_Wrap_alloc@V?$allocator@V?$_List_unchecked_iterator@V?$_List_val@U?$_List_simple_types@U?$pair@$$CBV?$basic_string@_WU?$char_traits@_W@std@@V?$allocator@_W@2@@std@@V12@@std@@@std@@@std@@@std@@@std@@@2@@std@@AAEXXZ ; std::vector<std::_List_unchecked_iterator<std::_List_val<std::_List_simple_types<std::pair<std::basic_string<wchar_t,std::char_traits<wchar_t>,std::allocator<wchar_t> > const ,std::basic_string<wchar_t,std::char_traits<wchar_t>,std::allocator<wchar_t> > > > > >,std::_Wrap_alloc<std::allocator<std::_List_unchecked_iterator<std::_List_val<std::_List_simple_types<std::pair<std::basic_string<wchar_t,std::char_traits<wchar_t>,std::allocator<wchar_t> > const ,std::basic_string<wchar_t,std::char_traits<wchar_t>,std::allocator<wchar_t> > > > > > > > >::_Tidy
PUBLIC	?_Xlength@?$vector@V?$_List_unchecked_iterator@V?$_List_val@U?$_List_simple_types@U?$pair@$$CBV?$basic_string@_WU?$char_traits@_W@std@@V?$allocator@_W@2@@std@@V12@@std@@@std@@@std@@@std@@U?$_Wrap_alloc@V?$allocator@V?$_List_unchecked_iterator@V?$_List_val@U?$_List_simple_types@U?$pair@$$CBV?$basic_string@_WU?$char_traits@_W@std@@V?$allocator@_W@2@@std@@V12@@std@@@std@@@std@@@std@@@std@@@2@@std@@CAXXZ ; std::vector<std::_List_unchecked_iterator<std::_List_val<std::_List_simple_types<std::pair<std::basic_string<wchar_t,std::char_traits<wchar_t>,std::allocator<wchar_t> > const ,std::basic_string<wchar_t,std::char_traits<wchar_t>,std::allocator<wchar_t> > > > > >,std::_Wrap_alloc<std::allocator<std::_List_unchecked_iterator<std::_List_val<std::_List_simple_types<std::pair<std::basic_string<wchar_t,std::char_traits<wchar_t>,std::allocator<wchar_t> > const ,std::basic_string<wchar_t,std::char_traits<wchar_t>,std::allocator<wchar_t> > > > > > > > >::_Xlength
PUBLIC	??0?$unordered_map@V?$basic_string@_WU?$char_traits@_W@std@@V?$allocator@_W@2@@std@@V12@U?$hash@V?$basic_string@_WU?$char_traits@_W@std@@V?$allocator@_W@2@@std@@@2@U?$equal_to@V?$basic_string@_WU?$char_traits@_W@std@@V?$allocator@_W@2@@std@@@2@V?$allocator@U?$pair@$$CBV?$basic_string@_WU?$char_traits@_W@std@@V?$allocator@_W@2@@std@@V12@@std@@@2@@std@@QAE@ABV01@@Z ; std::unordered_map<std::basic_string<wchar_t,std::char_traits<wchar_t>,std::allocator<wchar_t> >,std::basic_string<wchar_t,std::char_traits<wchar_t>,std::allocator<wchar_t> >,std::hash<std::basic_string<wchar_t,std::char_traits<wchar_t>,std::allocator<wchar_t> > >,std::equal_to<std::basic_string<wchar_t,std::char_traits<wchar_t>,std::allocator<wchar_t> > >,std::allocator<std::pair<std::basic_string<wchar_t,std::char_traits<wchar_t>,std::allocator<wchar_t> > const ,std::basic_string<wchar_t,std::char_traits<wchar_t>,std::allocator<wchar_t> > > > >::unordered_map<std::basic_string<wchar_t,std::char_traits<wchar_t>,std::allocator<wchar_t> >,std::basic_string<wchar_t,std::char_traits<wchar_t>,std::allocator<wchar_t> >,std::hash<std::basic_string<wchar_t,std::char_traits<wchar_t>,std::allocator<wchar_t> > >,std::equal_to<std::basic_string<wchar_t,std::char_traits<wchar_t>,std::allocator<wchar_t> > >,std::allocator<std::pair<std::basic_string<wchar_t,std::char_traits<wchar_t>,std::allocator<wchar_t> > const ,std::basic_string<wchar_t,std::char_traits<wchar_t>,std::allocator<wchar_t> > > > >
PUBLIC	??1?$unordered_map@V?$basic_string@_WU?$char_traits@_W@std@@V?$allocator@_W@2@@std@@V12@U?$hash@V?$basic_string@_WU?$char_traits@_W@std@@V?$allocator@_W@2@@std@@@2@U?$equal_to@V?$basic_string@_WU?$char_traits@_W@std@@V?$allocator@_W@2@@std@@@2@V?$allocator@U?$pair@$$CBV?$basic_string@_WU?$char_traits@_W@std@@V?$allocator@_W@2@@std@@V12@@std@@@2@@std@@QAE@XZ ; std::unordered_map<std::basic_string<wchar_t,std::char_traits<wchar_t>,std::allocator<wchar_t> >,std::basic_string<wchar_t,std::char_traits<wchar_t>,std::allocator<wchar_t> >,std::hash<std::basic_string<wchar_t,std::char_traits<wchar_t>,std::allocator<wchar_t> > >,std::equal_to<std::basic_string<wchar_t,std::char_traits<wchar_t>,std::allocator<wchar_t> > >,std::allocator<std::pair<std::basic_string<wchar_t,std::char_traits<wchar_t>,std::allocator<wchar_t> > const ,std::basic_string<wchar_t,std::char_traits<wchar_t>,std::allocator<wchar_t> > > > >::~unordered_map<std::basic_string<wchar_t,std::char_traits<wchar_t>,std::allocator<wchar_t> >,std::basic_string<wchar_t,std::char_traits<wchar_t>,std::allocator<wchar_t> >,std::hash<std::basic_string<wchar_t,std::char_traits<wchar_t>,std::allocator<wchar_t> > >,std::equal_to<std::basic_string<wchar_t,std::char_traits<wchar_t>,std::allocator<wchar_t> > >,std::allocator<std::pair<std::basic_string<wchar_t,std::char_traits<wchar_t>,std::allocator<wchar_t> > const ,std::basic_string<wchar_t,std::char_traits<wchar_t>,std::allocator<wchar_t> > > > >
PUBLIC	??0?$allocator@V?$basic_string@_WU?$char_traits@_W@std@@V?$allocator@_W@2@@std@@@std@@QAE@ABV01@@Z ; std::allocator<std::basic_string<wchar_t,std::char_traits<wchar_t>,std::allocator<wchar_t> > >::allocator<std::basic_string<wchar_t,std::char_traits<wchar_t>,std::allocator<wchar_t> > >
PUBLIC	?deallocate@?$allocator@V?$basic_string@_WU?$char_traits@_W@std@@V?$allocator@_W@2@@std@@@std@@QAEXPAV?$basic_string@_WU?$char_traits@_W@std@@V?$allocator@_W@2@@2@I@Z ; std::allocator<std::basic_string<wchar_t,std::char_traits<wchar_t>,std::allocator<wchar_t> > >::deallocate
PUBLIC	?allocate@?$allocator@V?$basic_string@_WU?$char_traits@_W@std@@V?$allocator@_W@2@@std@@@std@@QAEPAV?$basic_string@_WU?$char_traits@_W@std@@V?$allocator@_W@2@@2@I@Z ; std::allocator<std::basic_string<wchar_t,std::char_traits<wchar_t>,std::allocator<wchar_t> > >::allocate
PUBLIC	?max_size@?$allocator@V?$basic_string@_WU?$char_traits@_W@std@@V?$allocator@_W@2@@std@@@std@@QBEIXZ ; std::allocator<std::basic_string<wchar_t,std::char_traits<wchar_t>,std::allocator<wchar_t> > >::max_size
PUBLIC	?max_size@?$allocator_traits@V?$allocator@V?$basic_string@_WU?$char_traits@_W@std@@V?$allocator@_W@2@@std@@@std@@@std@@SAIABV?$allocator@V?$basic_string@_WU?$char_traits@_W@std@@V?$allocator@_W@2@@std@@@2@@Z ; std::allocator_traits<std::allocator<std::basic_string<wchar_t,std::char_traits<wchar_t>,std::allocator<wchar_t> > > >::max_size
PUBLIC	?select_on_container_copy_construction@?$allocator_traits@V?$allocator@V?$basic_string@_WU?$char_traits@_W@std@@V?$allocator@_W@2@@std@@@std@@@std@@SA?AV?$allocator@V?$basic_string@_WU?$char_traits@_W@std@@V?$allocator@_W@2@@std@@@2@ABV32@@Z ; std::allocator_traits<std::allocator<std::basic_string<wchar_t,std::char_traits<wchar_t>,std::allocator<wchar_t> > > >::select_on_container_copy_construction
PUBLIC	?select_on_container_copy_construction@?$_Wrap_alloc@V?$allocator@V?$basic_string@_WU?$char_traits@_W@std@@V?$allocator@_W@2@@std@@@std@@@std@@QBE?AU12@U_Nil@2@@Z ; std::_Wrap_alloc<std::allocator<std::basic_string<wchar_t,std::char_traits<wchar_t>,std::allocator<wchar_t> > > >::select_on_container_copy_construction
PUBLIC	??0?$_Wrap_alloc@V?$allocator@V?$basic_string@_WU?$char_traits@_W@std@@V?$allocator@_W@2@@std@@@std@@@std@@QAE@$$QAU01@@Z ; std::_Wrap_alloc<std::allocator<std::basic_string<wchar_t,std::char_traits<wchar_t>,std::allocator<wchar_t> > > >::_Wrap_alloc<std::allocator<std::basic_string<wchar_t,std::char_traits<wchar_t>,std::allocator<wchar_t> > > >
PUBLIC	?allocate@?$_Wrap_alloc@V?$allocator@V?$basic_string@_WU?$char_traits@_W@std@@V?$allocator@_W@2@@std@@@std@@@std@@QAEPAV?$basic_string@_WU?$char_traits@_W@std@@V?$allocator@_W@2@@2@I@Z ; std::_Wrap_alloc<std::allocator<std::basic_string<wchar_t,std::char_traits<wchar_t>,std::allocator<wchar_t> > > >::allocate
PUBLIC	?deallocate@?$_Wrap_alloc@V?$allocator@V?$basic_string@_WU?$char_traits@_W@std@@V?$allocator@_W@2@@std@@@std@@@std@@QAEXPAV?$basic_string@_WU?$char_traits@_W@std@@V?$allocator@_W@2@@2@I@Z ; std::_Wrap_alloc<std::allocator<std::basic_string<wchar_t,std::char_traits<wchar_t>,std::allocator<wchar_t> > > >::deallocate
PUBLIC	?max_size@?$_Wrap_alloc@V?$allocator@V?$basic_string@_WU?$char_traits@_W@std@@V?$allocator@_W@2@@std@@@std@@@std@@QBEIU_Nil@2@@Z ; std::_Wrap_alloc<std::allocator<std::basic_string<wchar_t,std::char_traits<wchar_t>,std::allocator<wchar_t> > > >::max_size
PUBLIC	?_Orphan_all@?$_Vector_alloc@U?$_Vec_base_types@V?$basic_string@_WU?$char_traits@_W@std@@V?$allocator@_W@2@@std@@V?$allocator@V?$basic_string@_WU?$char_traits@_W@std@@V?$allocator@_W@2@@std@@@2@@std@@@std@@QAEXXZ ; std::_Vector_alloc<std::_Vec_base_types<std::basic_string<wchar_t,std::char_traits<wchar_t>,std::allocator<wchar_t> >,std::allocator<std::basic_string<wchar_t,std::char_traits<wchar_t>,std::allocator<wchar_t> > > > >::_Orphan_all
PUBLIC	?_Getal@?$_Vector_alloc@U?$_Vec_base_types@V?$basic_string@_WU?$char_traits@_W@std@@V?$allocator@_W@2@@std@@V?$allocator@V?$basic_string@_WU?$char_traits@_W@std@@V?$allocator@_W@2@@std@@@2@@std@@@std@@QAEAAU?$_Wrap_alloc@V?$allocator@V?$basic_string@_WU?$char_traits@_W@std@@V?$allocator@_W@2@@std@@@std@@@2@XZ ; std::_Vector_alloc<std::_Vec_base_types<std::basic_string<wchar_t,std::char_traits<wchar_t>,std::allocator<wchar_t> >,std::allocator<std::basic_string<wchar_t,std::char_traits<wchar_t>,std::allocator<wchar_t> > > > >::_Getal
PUBLIC	?_Getal@?$_Vector_alloc@U?$_Vec_base_types@V?$basic_string@_WU?$char_traits@_W@std@@V?$allocator@_W@2@@std@@V?$allocator@V?$basic_string@_WU?$char_traits@_W@std@@V?$allocator@_W@2@@std@@@2@@std@@@std@@QBEABU?$_Wrap_alloc@V?$allocator@V?$basic_string@_WU?$char_traits@_W@std@@V?$allocator@_W@2@@std@@@std@@@2@XZ ; std::_Vector_alloc<std::_Vec_base_types<std::basic_string<wchar_t,std::char_traits<wchar_t>,std::allocator<wchar_t> >,std::allocator<std::basic_string<wchar_t,std::char_traits<wchar_t>,std::allocator<wchar_t> > > > >::_Getal
PUBLIC	?_Get_data@?$_Vector_alloc@U?$_Vec_base_types@V?$basic_string@_WU?$char_traits@_W@std@@V?$allocator@_W@2@@std@@V?$allocator@V?$basic_string@_WU?$char_traits@_W@std@@V?$allocator@_W@2@@std@@@2@@std@@@std@@QAEAAV?$_Vector_val@U?$_Simple_types@V?$basic_string@_WU?$char_traits@_W@std@@V?$allocator@_W@2@@std@@@std@@@2@XZ ; std::_Vector_alloc<std::_Vec_base_types<std::basic_string<wchar_t,std::char_traits<wchar_t>,std::allocator<wchar_t> >,std::allocator<std::basic_string<wchar_t,std::char_traits<wchar_t>,std::allocator<wchar_t> > > > >::_Get_data
PUBLIC	?_Get_data@?$_Vector_alloc@U?$_Vec_base_types@V?$basic_string@_WU?$char_traits@_W@std@@V?$allocator@_W@2@@std@@V?$allocator@V?$basic_string@_WU?$char_traits@_W@std@@V?$allocator@_W@2@@std@@@2@@std@@@std@@QBEABV?$_Vector_val@U?$_Simple_types@V?$basic_string@_WU?$char_traits@_W@std@@V?$allocator@_W@2@@std@@@std@@@2@XZ ; std::_Vector_alloc<std::_Vec_base_types<std::basic_string<wchar_t,std::char_traits<wchar_t>,std::allocator<wchar_t> >,std::allocator<std::basic_string<wchar_t,std::char_traits<wchar_t>,std::allocator<wchar_t> > > > >::_Get_data
PUBLIC	?_Myfirst@?$_Vector_alloc@U?$_Vec_base_types@V?$basic_string@_WU?$char_traits@_W@std@@V?$allocator@_W@2@@std@@V?$allocator@V?$basic_string@_WU?$char_traits@_W@std@@V?$allocator@_W@2@@std@@@2@@std@@@std@@QAEAAPAV?$basic_string@_WU?$char_traits@_W@std@@V?$allocator@_W@2@@2@XZ ; std::_Vector_alloc<std::_Vec_base_types<std::basic_string<wchar_t,std::char_traits<wchar_t>,std::allocator<wchar_t> >,std::allocator<std::basic_string<wchar_t,std::char_traits<wchar_t>,std::allocator<wchar_t> > > > >::_Myfirst
PUBLIC	?_Myfirst@?$_Vector_alloc@U?$_Vec_base_types@V?$basic_string@_WU?$char_traits@_W@std@@V?$allocator@_W@2@@std@@V?$allocator@V?$basic_string@_WU?$char_traits@_W@std@@V?$allocator@_W@2@@std@@@2@@std@@@std@@QBEABQAV?$basic_string@_WU?$char_traits@_W@std@@V?$allocator@_W@2@@2@XZ ; std::_Vector_alloc<std::_Vec_base_types<std::basic_string<wchar_t,std::char_traits<wchar_t>,std::allocator<wchar_t> >,std::allocator<std::basic_string<wchar_t,std::char_traits<wchar_t>,std::allocator<wchar_t> > > > >::_Myfirst
PUBLIC	?_Mylast@?$_Vector_alloc@U?$_Vec_base_types@V?$basic_string@_WU?$char_traits@_W@std@@V?$allocator@_W@2@@std@@V?$allocator@V?$basic_string@_WU?$char_traits@_W@std@@V?$allocator@_W@2@@std@@@2@@std@@@std@@QAEAAPAV?$basic_string@_WU?$char_traits@_W@std@@V?$allocator@_W@2@@2@XZ ; std::_Vector_alloc<std::_Vec_base_types<std::basic_string<wchar_t,std::char_traits<wchar_t>,std::allocator<wchar_t> >,std::allocator<std::basic_string<wchar_t,std::char_traits<wchar_t>,std::allocator<wchar_t> > > > >::_Mylast
PUBLIC	?_Mylast@?$_Vector_alloc@U?$_Vec_base_types@V?$basic_string@_WU?$char_traits@_W@std@@V?$allocator@_W@2@@std@@V?$allocator@V?$basic_string@_WU?$char_traits@_W@std@@V?$allocator@_W@2@@std@@@2@@std@@@std@@QBEABQAV?$basic_string@_WU?$char_traits@_W@std@@V?$allocator@_W@2@@2@XZ ; std::_Vector_alloc<std::_Vec_base_types<std::basic_string<wchar_t,std::char_traits<wchar_t>,std::allocator<wchar_t> >,std::allocator<std::basic_string<wchar_t,std::char_traits<wchar_t>,std::allocator<wchar_t> > > > >::_Mylast
PUBLIC	?_Myend@?$_Vector_alloc@U?$_Vec_base_types@V?$basic_string@_WU?$char_traits@_W@std@@V?$allocator@_W@2@@std@@V?$allocator@V?$basic_string@_WU?$char_traits@_W@std@@V?$allocator@_W@2@@std@@@2@@std@@@std@@QAEAAPAV?$basic_string@_WU?$char_traits@_W@std@@V?$allocator@_W@2@@2@XZ ; std::_Vector_alloc<std::_Vec_base_types<std::basic_string<wchar_t,std::char_traits<wchar_t>,std::allocator<wchar_t> >,std::allocator<std::basic_string<wchar_t,std::char_traits<wchar_t>,std::allocator<wchar_t> > > > >::_Myend
PUBLIC	??0?$_Vector_val@U?$_Simple_types@V?$basic_string@_WU?$char_traits@_W@std@@V?$allocator@_W@2@@std@@@std@@@std@@QAE@XZ ; std::_Vector_val<std::_Simple_types<std::basic_string<wchar_t,std::char_traits<wchar_t>,std::allocator<wchar_t> > > >::_Vector_val<std::_Simple_types<std::basic_string<wchar_t,std::char_traits<wchar_t>,std::allocator<wchar_t> > > >
PUBLIC	?_Get_first@?$_Compressed_pair@U?$_Wrap_alloc@V?$allocator@V?$basic_string@_WU?$char_traits@_W@std@@V?$allocator@_W@2@@std@@@std@@@std@@V?$_Vector_val@U?$_Simple_types@V?$basic_string@_WU?$char_traits@_W@std@@V?$allocator@_W@2@@std@@@std@@@2@$00@std@@QAEAAU?$_Wrap_alloc@V?$allocator@V?$basic_string@_WU?$char_traits@_W@std@@V?$allocator@_W@2@@std@@@std@@@2@XZ ; std::_Compressed_pair<std::_Wrap_alloc<std::allocator<std::basic_string<wchar_t,std::char_traits<wchar_t>,std::allocator<wchar_t> > > >,std::_Vector_val<std::_Simple_types<std::basic_string<wchar_t,std::char_traits<wchar_t>,std::allocator<wchar_t> > > >,1>::_Get_first
PUBLIC	?_Get_first@?$_Compressed_pair@U?$_Wrap_alloc@V?$allocator@V?$basic_string@_WU?$char_traits@_W@std@@V?$allocator@_W@2@@std@@@std@@@std@@V?$_Vector_val@U?$_Simple_types@V?$basic_string@_WU?$char_traits@_W@std@@V?$allocator@_W@2@@std@@@std@@@2@$00@std@@QBEABU?$_Wrap_alloc@V?$allocator@V?$basic_string@_WU?$char_traits@_W@std@@V?$allocator@_W@2@@std@@@std@@@2@XZ ; std::_Compressed_pair<std::_Wrap_alloc<std::allocator<std::basic_string<wchar_t,std::char_traits<wchar_t>,std::allocator<wchar_t> > > >,std::_Vector_val<std::_Simple_types<std::basic_string<wchar_t,std::char_traits<wchar_t>,std::allocator<wchar_t> > > >,1>::_Get_first
PUBLIC	?_Get_second@?$_Compressed_pair@U?$_Wrap_alloc@V?$allocator@V?$basic_string@_WU?$char_traits@_W@std@@V?$allocator@_W@2@@std@@@std@@@std@@V?$_Vector_val@U?$_Simple_types@V?$basic_string@_WU?$char_traits@_W@std@@V?$allocator@_W@2@@std@@@std@@@2@$00@std@@QAEAAV?$_Vector_val@U?$_Simple_types@V?$basic_string@_WU?$char_traits@_W@std@@V?$allocator@_W@2@@std@@@std@@@2@XZ ; std::_Compressed_pair<std::_Wrap_alloc<std::allocator<std::basic_string<wchar_t,std::char_traits<wchar_t>,std::allocator<wchar_t> > > >,std::_Vector_val<std::_Simple_types<std::basic_string<wchar_t,std::char_traits<wchar_t>,std::allocator<wchar_t> > > >,1>::_Get_second
PUBLIC	?_Get_second@?$_Compressed_pair@U?$_Wrap_alloc@V?$allocator@V?$basic_string@_WU?$char_traits@_W@std@@V?$allocator@_W@2@@std@@@std@@@std@@V?$_Vector_val@U?$_Simple_types@V?$basic_string@_WU?$char_traits@_W@std@@V?$allocator@_W@2@@std@@@std@@@2@$00@std@@QBEABV?$_Vector_val@U?$_Simple_types@V?$basic_string@_WU?$char_traits@_W@std@@V?$allocator@_W@2@@std@@@std@@@2@XZ ; std::_Compressed_pair<std::_Wrap_alloc<std::allocator<std::basic_string<wchar_t,std::char_traits<wchar_t>,std::allocator<wchar_t> > > >,std::_Vector_val<std::_Simple_types<std::basic_string<wchar_t,std::char_traits<wchar_t>,std::allocator<wchar_t> > > >,1>::_Get_second
PUBLIC	??0?$vector@V?$basic_string@_WU?$char_traits@_W@std@@V?$allocator@_W@2@@std@@V?$allocator@V?$basic_string@_WU?$char_traits@_W@std@@V?$allocator@_W@2@@std@@@2@@std@@QAE@ABV01@@Z ; std::vector<std::basic_string<wchar_t,std::char_traits<wchar_t>,std::allocator<wchar_t> >,std::allocator<std::basic_string<wchar_t,std::char_traits<wchar_t>,std::allocator<wchar_t> > > >::vector<std::basic_string<wchar_t,std::char_traits<wchar_t>,std::allocator<wchar_t> >,std::allocator<std::basic_string<wchar_t,std::char_traits<wchar_t>,std::allocator<wchar_t> > > >
PUBLIC	??1?$vector@V?$basic_string@_WU?$char_traits@_W@std@@V?$allocator@_W@2@@std@@V?$allocator@V?$basic_string@_WU?$char_traits@_W@std@@V?$allocator@_W@2@@std@@@2@@std@@QAE@XZ ; std::vector<std::basic_string<wchar_t,std::char_traits<wchar_t>,std::allocator<wchar_t> >,std::allocator<std::basic_string<wchar_t,std::char_traits<wchar_t>,std::allocator<wchar_t> > > >::~vector<std::basic_string<wchar_t,std::char_traits<wchar_t>,std::allocator<wchar_t> >,std::allocator<std::basic_string<wchar_t,std::char_traits<wchar_t>,std::allocator<wchar_t> > > >
PUBLIC	?size@?$vector@V?$basic_string@_WU?$char_traits@_W@std@@V?$allocator@_W@2@@std@@V?$allocator@V?$basic_string@_WU?$char_traits@_W@std@@V?$allocator@_W@2@@std@@@2@@std@@QBEIXZ ; std::vector<std::basic_string<wchar_t,std::char_traits<wchar_t>,std::allocator<wchar_t> >,std::allocator<std::basic_string<wchar_t,std::char_traits<wchar_t>,std::allocator<wchar_t> > > >::size
PUBLIC	?max_size@?$vector@V?$basic_string@_WU?$char_traits@_W@std@@V?$allocator@_W@2@@std@@V?$allocator@V?$basic_string@_WU?$char_traits@_W@std@@V?$allocator@_W@2@@std@@@2@@std@@QBEIXZ ; std::vector<std::basic_string<wchar_t,std::char_traits<wchar_t>,std::allocator<wchar_t> >,std::allocator<std::basic_string<wchar_t,std::char_traits<wchar_t>,std::allocator<wchar_t> > > >::max_size
PUBLIC	?_Destroy@?$vector@V?$basic_string@_WU?$char_traits@_W@std@@V?$allocator@_W@2@@std@@V?$allocator@V?$basic_string@_WU?$char_traits@_W@std@@V?$allocator@_W@2@@std@@@2@@std@@AAEXPAV?$basic_string@_WU?$char_traits@_W@std@@V?$allocator@_W@2@@2@0@Z ; std::vector<std::basic_string<wchar_t,std::char_traits<wchar_t>,std::allocator<wchar_t> >,std::allocator<std::basic_string<wchar_t,std::char_traits<wchar_t>,std::allocator<wchar_t> > > >::_Destroy
PUBLIC	?_Buy@?$vector@V?$basic_string@_WU?$char_traits@_W@std@@V?$allocator@_W@2@@std@@V?$allocator@V?$basic_string@_WU?$char_traits@_W@std@@V?$allocator@_W@2@@std@@@2@@std@@AAE_NI@Z ; std::vector<std::basic_string<wchar_t,std::char_traits<wchar_t>,std::allocator<wchar_t> >,std::allocator<std::basic_string<wchar_t,std::char_traits<wchar_t>,std::allocator<wchar_t> > > >::_Buy
PUBLIC	?_Tidy@?$vector@V?$basic_string@_WU?$char_traits@_W@std@@V?$allocator@_W@2@@std@@V?$allocator@V?$basic_string@_WU?$char_traits@_W@std@@V?$allocator@_W@2@@std@@@2@@std@@AAEXXZ ; std::vector<std::basic_string<wchar_t,std::char_traits<wchar_t>,std::allocator<wchar_t> >,std::allocator<std::basic_string<wchar_t,std::char_traits<wchar_t>,std::allocator<wchar_t> > > >::_Tidy
PUBLIC	?_Xlength@?$vector@V?$basic_string@_WU?$char_traits@_W@std@@V?$allocator@_W@2@@std@@V?$allocator@V?$basic_string@_WU?$char_traits@_W@std@@V?$allocator@_W@2@@std@@@2@@std@@CAXXZ ; std::vector<std::basic_string<wchar_t,std::char_traits<wchar_t>,std::allocator<wchar_t> >,std::allocator<std::basic_string<wchar_t,std::char_traits<wchar_t>,std::allocator<wchar_t> > > >::_Xlength
PUBLIC	??1iSK_INISection@@QAE@XZ			; iSK_INISection::~iSK_INISection
PUBLIC	??0iSK_INISection@@QAE@ABU0@@Z			; iSK_INISection::iSK_INISection
PUBLIC	?_Nextnode@?$_List_alloc@U?$_List_base_types@U?$pair@$$CBV?$basic_string@_WU?$char_traits@_W@std@@V?$allocator@_W@2@@std@@UiSK_INISection@@@std@@V?$allocator@U?$pair@$$CBV?$basic_string@_WU?$char_traits@_W@std@@V?$allocator@_W@2@@std@@UiSK_INISection@@@std@@@2@@std@@@std@@SAAAPAU?$_List_node@U?$pair@$$CBV?$basic_string@_WU?$char_traits@_W@std@@V?$allocator@_W@2@@std@@UiSK_INISection@@@std@@PAX@2@PAU32@@Z ; std::_List_alloc<std::_List_base_types<std::pair<std::basic_string<wchar_t,std::char_traits<wchar_t>,std::allocator<wchar_t> > const ,iSK_INISection>,std::allocator<std::pair<std::basic_string<wchar_t,std::char_traits<wchar_t>,std::allocator<wchar_t> > const ,iSK_INISection> > > >::_Nextnode
PUBLIC	?_Get_data@?$_List_alloc@U?$_List_base_types@U?$pair@$$CBV?$basic_string@_WU?$char_traits@_W@std@@V?$allocator@_W@2@@std@@UiSK_INISection@@@std@@V?$allocator@U?$pair@$$CBV?$basic_string@_WU?$char_traits@_W@std@@V?$allocator@_W@2@@std@@UiSK_INISection@@@std@@@2@@std@@@std@@QBEABV?$_List_val@U?$_List_simple_types@U?$pair@$$CBV?$basic_string@_WU?$char_traits@_W@std@@V?$allocator@_W@2@@std@@UiSK_INISection@@@std@@@std@@@2@XZ ; std::_List_alloc<std::_List_base_types<std::pair<std::basic_string<wchar_t,std::char_traits<wchar_t>,std::allocator<wchar_t> > const ,iSK_INISection>,std::allocator<std::pair<std::basic_string<wchar_t,std::char_traits<wchar_t>,std::allocator<wchar_t> > const ,iSK_INISection> > > >::_Get_data
PUBLIC	?_Myhead@?$_List_alloc@U?$_List_base_types@U?$pair@$$CBV?$basic_string@_WU?$char_traits@_W@std@@V?$allocator@_W@2@@std@@UiSK_INISection@@@std@@V?$allocator@U?$pair@$$CBV?$basic_string@_WU?$char_traits@_W@std@@V?$allocator@_W@2@@std@@UiSK_INISection@@@std@@@2@@std@@@std@@QBEABQAU?$_List_node@U?$pair@$$CBV?$basic_string@_WU?$char_traits@_W@std@@V?$allocator@_W@2@@std@@UiSK_INISection@@@std@@PAX@2@XZ ; std::_List_alloc<std::_List_base_types<std::pair<std::basic_string<wchar_t,std::char_traits<wchar_t>,std::allocator<wchar_t> > const ,iSK_INISection>,std::allocator<std::pair<std::basic_string<wchar_t,std::char_traits<wchar_t>,std::allocator<wchar_t> > const ,iSK_INISection> > > >::_Myhead
PUBLIC	?_Mysize@?$_List_alloc@U?$_List_base_types@U?$pair@$$CBV?$basic_string@_WU?$char_traits@_W@std@@V?$allocator@_W@2@@std@@UiSK_INISection@@@std@@V?$allocator@U?$pair@$$CBV?$basic_string@_WU?$char_traits@_W@std@@V?$allocator@_W@2@@std@@UiSK_INISection@@@std@@@2@@std@@@std@@QBEABIXZ ; std::_List_alloc<std::_List_base_types<std::pair<std::basic_string<wchar_t,std::char_traits<wchar_t>,std::allocator<wchar_t> > const ,iSK_INISection>,std::allocator<std::pair<std::basic_string<wchar_t,std::char_traits<wchar_t>,std::allocator<wchar_t> > const ,iSK_INISection> > > >::_Mysize
PUBLIC	?_Nextnode@?$_List_val@U?$_List_simple_types@U?$pair@$$CBV?$basic_string@_WU?$char_traits@_W@std@@V?$allocator@_W@2@@std@@UiSK_INISection@@@std@@@std@@@std@@SAAAPAU?$_List_node@U?$pair@$$CBV?$basic_string@_WU?$char_traits@_W@std@@V?$allocator@_W@2@@std@@UiSK_INISection@@@std@@PAX@2@PAU32@@Z ; std::_List_val<std::_List_simple_types<std::pair<std::basic_string<wchar_t,std::char_traits<wchar_t>,std::allocator<wchar_t> > const ,iSK_INISection> > >::_Nextnode
PUBLIC	?_Myval@?$_List_val@U?$_List_simple_types@U?$pair@$$CBV?$basic_string@_WU?$char_traits@_W@std@@V?$allocator@_W@2@@std@@UiSK_INISection@@@std@@@std@@@std@@SAAAU?$pair@$$CBV?$basic_string@_WU?$char_traits@_W@std@@V?$allocator@_W@2@@std@@UiSK_INISection@@@2@PAU?$_List_node@U?$pair@$$CBV?$basic_string@_WU?$char_traits@_W@std@@V?$allocator@_W@2@@std@@UiSK_INISection@@@std@@PAX@2@@Z ; std::_List_val<std::_List_simple_types<std::pair<std::basic_string<wchar_t,std::char_traits<wchar_t>,std::allocator<wchar_t> > const ,iSK_INISection> > >::_Myval
PUBLIC	?_Get_second@?$_Compressed_pair@U?$_Wrap_alloc@V?$allocator@U?$_List_node@U?$pair@$$CBV?$basic_string@_WU?$char_traits@_W@std@@V?$allocator@_W@2@@std@@UiSK_INISection@@@std@@PAX@std@@@std@@@std@@V?$_List_val@U?$_List_simple_types@U?$pair@$$CBV?$basic_string@_WU?$char_traits@_W@std@@V?$allocator@_W@2@@std@@UiSK_INISection@@@std@@@std@@@2@$00@std@@QBEABV?$_List_val@U?$_List_simple_types@U?$pair@$$CBV?$basic_string@_WU?$char_traits@_W@std@@V?$allocator@_W@2@@std@@UiSK_INISection@@@std@@@std@@@2@XZ ; std::_Compressed_pair<std::_Wrap_alloc<std::allocator<std::_List_node<std::pair<std::basic_string<wchar_t,std::char_traits<wchar_t>,std::allocator<wchar_t> > const ,iSK_INISection>,void *> > >,std::_List_val<std::_List_simple_types<std::pair<std::basic_string<wchar_t,std::char_traits<wchar_t>,std::allocator<wchar_t> > const ,iSK_INISection> > >,1>::_Get_second
PUBLIC	?begin@?$list@U?$pair@$$CBV?$basic_string@_WU?$char_traits@_W@std@@V?$allocator@_W@2@@std@@UiSK_INISection@@@std@@V?$allocator@U?$pair@$$CBV?$basic_string@_WU?$char_traits@_W@std@@V?$allocator@_W@2@@std@@UiSK_INISection@@@std@@@2@@std@@QBE?AV?$_List_const_iterator@V?$_List_val@U?$_List_simple_types@U?$pair@$$CBV?$basic_string@_WU?$char_traits@_W@std@@V?$allocator@_W@2@@std@@UiSK_INISection@@@std@@@std@@@std@@@2@XZ ; std::list<std::pair<std::basic_string<wchar_t,std::char_traits<wchar_t>,std::allocator<wchar_t> > const ,iSK_INISection>,std::allocator<std::pair<std::basic_string<wchar_t,std::char_traits<wchar_t>,std::allocator<wchar_t> > const ,iSK_INISection> > >::begin
PUBLIC	?end@?$list@U?$pair@$$CBV?$basic_string@_WU?$char_traits@_W@std@@V?$allocator@_W@2@@std@@UiSK_INISection@@@std@@V?$allocator@U?$pair@$$CBV?$basic_string@_WU?$char_traits@_W@std@@V?$allocator@_W@2@@std@@UiSK_INISection@@@std@@@2@@std@@QBE?AV?$_List_const_iterator@V?$_List_val@U?$_List_simple_types@U?$pair@$$CBV?$basic_string@_WU?$char_traits@_W@std@@V?$allocator@_W@2@@std@@UiSK_INISection@@@std@@@std@@@std@@@2@XZ ; std::list<std::pair<std::basic_string<wchar_t,std::char_traits<wchar_t>,std::allocator<wchar_t> > const ,iSK_INISection>,std::allocator<std::pair<std::basic_string<wchar_t,std::char_traits<wchar_t>,std::allocator<wchar_t> > const ,iSK_INISection> > >::end
PUBLIC	?empty@?$list@U?$pair@$$CBV?$basic_string@_WU?$char_traits@_W@std@@V?$allocator@_W@2@@std@@UiSK_INISection@@@std@@V?$allocator@U?$pair@$$CBV?$basic_string@_WU?$char_traits@_W@std@@V?$allocator@_W@2@@std@@UiSK_INISection@@@std@@@2@@std@@QBE_NXZ ; std::list<std::pair<std::basic_string<wchar_t,std::char_traits<wchar_t>,std::allocator<wchar_t> > const ,iSK_INISection>,std::allocator<std::pair<std::basic_string<wchar_t,std::char_traits<wchar_t>,std::allocator<wchar_t> > const ,iSK_INISection> > >::empty
PUBLIC	?begin@?$_Hash@V?$_Umap_traits@V?$basic_string@_WU?$char_traits@_W@std@@V?$allocator@_W@2@@std@@UiSK_INISection@@V?$_Uhash_compare@V?$basic_string@_WU?$char_traits@_W@std@@V?$allocator@_W@2@@std@@U?$hash@V?$basic_string@_WU?$char_traits@_W@std@@V?$allocator@_W@2@@std@@@2@U?$equal_to@V?$basic_string@_WU?$char_traits@_W@std@@V?$allocator@_W@2@@std@@@2@@2@V?$allocator@U?$pair@$$CBV?$basic_string@_WU?$char_traits@_W@std@@V?$allocator@_W@2@@std@@UiSK_INISection@@@std@@@2@$0A@@std@@@std@@QBE?AV?$_List_const_iterator@V?$_List_val@U?$_List_simple_types@U?$pair@$$CBV?$basic_string@_WU?$char_traits@_W@std@@V?$allocator@_W@2@@std@@UiSK_INISection@@@std@@@std@@@std@@@2@XZ ; std::_Hash<std::_Umap_traits<std::basic_string<wchar_t,std::char_traits<wchar_t>,std::allocator<wchar_t> >,iSK_INISection,std::_Uhash_compare<std::basic_string<wchar_t,std::char_traits<wchar_t>,std::allocator<wchar_t> >,std::hash<std::basic_string<wchar_t,std::char_traits<wchar_t>,std::allocator<wchar_t> > >,std::equal_to<std::basic_string<wchar_t,std::char_traits<wchar_t>,std::allocator<wchar_t> > > >,std::allocator<std::pair<std::basic_string<wchar_t,std::char_traits<wchar_t>,std::allocator<wchar_t> > const ,iSK_INISection> >,0> >::begin
PUBLIC	?end@?$_Hash@V?$_Umap_traits@V?$basic_string@_WU?$char_traits@_W@std@@V?$allocator@_W@2@@std@@UiSK_INISection@@V?$_Uhash_compare@V?$basic_string@_WU?$char_traits@_W@std@@V?$allocator@_W@2@@std@@U?$hash@V?$basic_string@_WU?$char_traits@_W@std@@V?$allocator@_W@2@@std@@@2@U?$equal_to@V?$basic_string@_WU?$char_traits@_W@std@@V?$allocator@_W@2@@std@@@2@@2@V?$allocator@U?$pair@$$CBV?$basic_string@_WU?$char_traits@_W@std@@V?$allocator@_W@2@@std@@UiSK_INISection@@@std@@@2@$0A@@std@@@std@@QBE?AV?$_List_const_iterator@V?$_List_val@U?$_List_simple_types@U?$pair@$$CBV?$basic_string@_WU?$char_traits@_W@std@@V?$allocator@_W@2@@std@@UiSK_INISection@@@std@@@std@@@std@@@2@XZ ; std::_Hash<std::_Umap_traits<std::basic_string<wchar_t,std::char_traits<wchar_t>,std::allocator<wchar_t> >,iSK_INISection,std::_Uhash_compare<std::basic_string<wchar_t,std::char_traits<wchar_t>,std::allocator<wchar_t> >,std::hash<std::basic_string<wchar_t,std::char_traits<wchar_t>,std::allocator<wchar_t> > >,std::equal_to<std::basic_string<wchar_t,std::char_traits<wchar_t>,std::allocator<wchar_t> > > >,std::allocator<std::pair<std::basic_string<wchar_t,std::char_traits<wchar_t>,std::allocator<wchar_t> > const ,iSK_INISection> >,0> >::end
PUBLIC	?empty@?$_Hash@V?$_Umap_traits@V?$basic_string@_WU?$char_traits@_W@std@@V?$allocator@_W@2@@std@@UiSK_INISection@@V?$_Uhash_compare@V?$basic_string@_WU?$char_traits@_W@std@@V?$allocator@_W@2@@std@@U?$hash@V?$basic_string@_WU?$char_traits@_W@std@@V?$allocator@_W@2@@std@@@2@U?$equal_to@V?$basic_string@_WU?$char_traits@_W@std@@V?$allocator@_W@2@@std@@@2@@2@V?$allocator@U?$pair@$$CBV?$basic_string@_WU?$char_traits@_W@std@@V?$allocator@_W@2@@std@@UiSK_INISection@@@std@@@2@$0A@@std@@@std@@QBE_NXZ ; std::_Hash<std::_Umap_traits<std::basic_string<wchar_t,std::char_traits<wchar_t>,std::allocator<wchar_t> >,iSK_INISection,std::_Uhash_compare<std::basic_string<wchar_t,std::char_traits<wchar_t>,std::allocator<wchar_t> >,std::hash<std::basic_string<wchar_t,std::char_traits<wchar_t>,std::allocator<wchar_t> > >,std::equal_to<std::basic_string<wchar_t,std::char_traits<wchar_t>,std::allocator<wchar_t> > > >,std::allocator<std::pair<std::basic_string<wchar_t,std::char_traits<wchar_t>,std::allocator<wchar_t> > const ,iSK_INISection> >,0> >::empty
PUBLIC	?register_to_ini@iParameter@sk@@QAEXPAUiSK_INI@@V?$basic_string@_WU?$char_traits@_W@std@@V?$allocator@_W@2@@std@@1@Z ; sk::iParameter::register_to_ini
PUBLIC	??1iParameter@sk@@QAE@XZ			; sk::iParameter::~iParameter
PUBLIC	??1?$Parameter@_J@sk@@QAE@XZ			; sk::Parameter<__int64>::~Parameter<__int64>
PUBLIC	??1ParameterInt64@sk@@QAE@XZ			; sk::ParameterInt64::~ParameterInt64
PUBLIC	??_GParameterInt64@sk@@QAEPAXI@Z		; sk::ParameterInt64::`scalar deleting destructor'
PUBLIC	??0?$allocator@PAViParameter@sk@@@std@@QAE@XZ	; std::allocator<sk::iParameter *>::allocator<sk::iParameter *>
PUBLIC	?deallocate@?$allocator@PAViParameter@sk@@@std@@QAEXPAPAViParameter@sk@@I@Z ; std::allocator<sk::iParameter *>::deallocate
PUBLIC	??0?$_Wrap_alloc@V?$allocator@PAViParameter@sk@@@std@@@std@@QAE@XZ ; std::_Wrap_alloc<std::allocator<sk::iParameter *> >::_Wrap_alloc<std::allocator<sk::iParameter *> >
PUBLIC	?deallocate@?$_Wrap_alloc@V?$allocator@PAViParameter@sk@@@std@@@std@@QAEXPAPAViParameter@sk@@I@Z ; std::_Wrap_alloc<std::allocator<sk::iParameter *> >::deallocate
PUBLIC	??0?$_Vector_alloc@U?$_Vec_base_types@PAViParameter@sk@@V?$allocator@PAViParameter@sk@@@std@@@std@@@std@@QAE@XZ ; std::_Vector_alloc<std::_Vec_base_types<sk::iParameter *,std::allocator<sk::iParameter *> > >::_Vector_alloc<std::_Vec_base_types<sk::iParameter *,std::allocator<sk::iParameter *> > >
PUBLIC	?_Orphan_all@?$_Vector_alloc@U?$_Vec_base_types@PAViParameter@sk@@V?$allocator@PAViParameter@sk@@@std@@@std@@@std@@QAEXXZ ; std::_Vector_alloc<std::_Vec_base_types<sk::iParameter *,std::allocator<sk::iParameter *> > >::_Orphan_all
PUBLIC	?_Getal@?$_Vector_alloc@U?$_Vec_base_types@PAViParameter@sk@@V?$allocator@PAViParameter@sk@@@std@@@std@@@std@@QAEAAU?$_Wrap_alloc@V?$allocator@PAViParameter@sk@@@std@@@2@XZ ; std::_Vector_alloc<std::_Vec_base_types<sk::iParameter *,std::allocator<sk::iParameter *> > >::_Getal
PUBLIC	?_Get_data@?$_Vector_alloc@U?$_Vec_base_types@PAViParameter@sk@@V?$allocator@PAViParameter@sk@@@std@@@std@@@std@@QAEAAV?$_Vector_val@U?$_Simple_types@PAViParameter@sk@@@std@@@2@XZ ; std::_Vector_alloc<std::_Vec_base_types<sk::iParameter *,std::allocator<sk::iParameter *> > >::_Get_data
PUBLIC	?_Myfirst@?$_Vector_alloc@U?$_Vec_base_types@PAViParameter@sk@@V?$allocator@PAViParameter@sk@@@std@@@std@@@std@@QAEAAPAPAViParameter@sk@@XZ ; std::_Vector_alloc<std::_Vec_base_types<sk::iParameter *,std::allocator<sk::iParameter *> > >::_Myfirst
PUBLIC	?_Mylast@?$_Vector_alloc@U?$_Vec_base_types@PAViParameter@sk@@V?$allocator@PAViParameter@sk@@@std@@@std@@@std@@QAEAAPAPAViParameter@sk@@XZ ; std::_Vector_alloc<std::_Vec_base_types<sk::iParameter *,std::allocator<sk::iParameter *> > >::_Mylast
PUBLIC	?_Myend@?$_Vector_alloc@U?$_Vec_base_types@PAViParameter@sk@@V?$allocator@PAViParameter@sk@@@std@@@std@@@std@@QAEAAPAPAViParameter@sk@@XZ ; std::_Vector_alloc<std::_Vec_base_types<sk::iParameter *,std::allocator<sk::iParameter *> > >::_Myend
PUBLIC	??0?$_Vector_val@U?$_Simple_types@PAViParameter@sk@@@std@@@std@@QAE@XZ ; std::_Vector_val<std::_Simple_types<sk::iParameter *> >::_Vector_val<std::_Simple_types<sk::iParameter *> >
PUBLIC	?_Get_first@?$_Compressed_pair@U?$_Wrap_alloc@V?$allocator@PAViParameter@sk@@@std@@@std@@V?$_Vector_val@U?$_Simple_types@PAViParameter@sk@@@std@@@2@$00@std@@QAEAAU?$_Wrap_alloc@V?$allocator@PAViParameter@sk@@@std@@@2@XZ ; std::_Compressed_pair<std::_Wrap_alloc<std::allocator<sk::iParameter *> >,std::_Vector_val<std::_Simple_types<sk::iParameter *> >,1>::_Get_first
PUBLIC	?_Get_second@?$_Compressed_pair@U?$_Wrap_alloc@V?$allocator@PAViParameter@sk@@@std@@@std@@V?$_Vector_val@U?$_Simple_types@PAViParameter@sk@@@std@@@2@$00@std@@QAEAAV?$_Vector_val@U?$_Simple_types@PAViParameter@sk@@@std@@@2@XZ ; std::_Compressed_pair<std::_Wrap_alloc<std::allocator<sk::iParameter *> >,std::_Vector_val<std::_Simple_types<sk::iParameter *> >,1>::_Get_second
PUBLIC	??0?$vector@PAViParameter@sk@@V?$allocator@PAViParameter@sk@@@std@@@std@@QAE@XZ ; std::vector<sk::iParameter *,std::allocator<sk::iParameter *> >::vector<sk::iParameter *,std::allocator<sk::iParameter *> >
PUBLIC	??1?$vector@PAViParameter@sk@@V?$allocator@PAViParameter@sk@@@std@@@std@@QAE@XZ ; std::vector<sk::iParameter *,std::allocator<sk::iParameter *> >::~vector<sk::iParameter *,std::allocator<sk::iParameter *> >
PUBLIC	?_Destroy@?$vector@PAViParameter@sk@@V?$allocator@PAViParameter@sk@@@std@@@std@@AAEXPAPAViParameter@sk@@0@Z ; std::vector<sk::iParameter *,std::allocator<sk::iParameter *> >::_Destroy
PUBLIC	?_Tidy@?$vector@PAViParameter@sk@@V?$allocator@PAViParameter@sk@@@std@@@std@@AAEXXZ ; std::vector<sk::iParameter *,std::allocator<sk::iParameter *> >::_Tidy
PUBLIC	??0ParameterFactory@sk@@QAE@XZ			; sk::ParameterFactory::ParameterFactory
PUBLIC	??1ParameterFactory@sk@@QAE@XZ			; sk::ParameterFactory::~ParameterFactory
PUBLIC	?SK_SYS_GetInstallPath@@YA?AV?$basic_string@_WU?$char_traits@_W@std@@V?$allocator@_W@2@@std@@XZ ; SK_SYS_GetInstallPath
PUBLIC	?SK_SYS_GetVersionPath@@YA?AV?$basic_string@_WU?$char_traits@_W@std@@V?$allocator@_W@2@@std@@XZ ; SK_SYS_GetVersionPath
PUBLIC	?SK_Version_GetRepoIniPath@@YA?AV?$basic_string@_WU?$char_traits@_W@std@@V?$allocator@_W@2@@std@@XZ ; SK_Version_GetRepoIniPath
PUBLIC	?SK_Version_GetInstallIniPath@@YA?AV?$basic_string@_WU?$char_traits@_W@std@@V?$allocator@_W@2@@std@@XZ ; SK_Version_GetInstallIniPath
PUBLIC	?SK_FetchVersionInfo1@@YG_NPB_W_N@Z		; SK_FetchVersionInfo1
PUBLIC	?SK_FetchVersionInfo@@YG_NPB_W@Z		; SK_FetchVersionInfo
PUBLIC	??0SK_VersionInfo_V1@@QAE@XZ			; SK_VersionInfo_V1::SK_VersionInfo_V1
PUBLIC	??1SK_VersionInfo_V1@@QAE@XZ			; SK_VersionInfo_V1::~SK_VersionInfo_V1
PUBLIC	??0SK_VersionInfo_V1@@QAE@ABU0@@Z		; SK_VersionInfo_V1::SK_VersionInfo_V1
PUBLIC	??0SK_VersionInfo_V1@@QAE@$$QAU0@@Z		; SK_VersionInfo_V1::SK_VersionInfo_V1
PUBLIC	?SK_Version_GetLatestInfo_V1@@YA?AUSK_VersionInfo_V1@@PB_W@Z ; SK_Version_GetLatestInfo_V1
PUBLIC	?SK_Version_GetLocalInfo_V1@@YA?AUSK_VersionInfo_V1@@PB_W@Z ; SK_Version_GetLocalInfo_V1
PUBLIC	??1<unnamed-type-release>@SK_BranchInfo_V1@@QAE@XZ ; SK_BranchInfo_V1::<unnamed-type-release>::~<unnamed-type-release>
PUBLIC	??0<unnamed-type-release>@SK_BranchInfo_V1@@QAE@ABU01@@Z ; SK_BranchInfo_V1::<unnamed-type-release>::<unnamed-type-release>
PUBLIC	??0<unnamed-type-release>@SK_BranchInfo_V1@@QAE@$$QAU01@@Z ; SK_BranchInfo_V1::<unnamed-type-release>::<unnamed-type-release>
PUBLIC	??1<unnamed-type-general>@SK_BranchInfo_V1@@QAE@XZ ; SK_BranchInfo_V1::<unnamed-type-general>::~<unnamed-type-general>
PUBLIC	??0<unnamed-type-general>@SK_BranchInfo_V1@@QAE@ABU01@@Z ; SK_BranchInfo_V1::<unnamed-type-general>::<unnamed-type-general>
PUBLIC	??0<unnamed-type-general>@SK_BranchInfo_V1@@QAE@$$QAU01@@Z ; SK_BranchInfo_V1::<unnamed-type-general>::<unnamed-type-general>
PUBLIC	??0?$allocator@U?$_Tree_node@U?$pair@$$CBV?$basic_string@_WU?$char_traits@_W@std@@V?$allocator@_W@2@@std@@V12@@std@@PAX@std@@@std@@QAE@XZ ; std::allocator<std::_Tree_node<std::pair<std::basic_string<wchar_t,std::char_traits<wchar_t>,std::allocator<wchar_t> > const ,std::basic_string<wchar_t,std::char_traits<wchar_t>,std::allocator<wchar_t> > >,void *> >::allocator<std::_Tree_node<std::pair<std::basic_string<wchar_t,std::char_traits<wchar_t>,std::allocator<wchar_t> > const ,std::basic_string<wchar_t,std::char_traits<wchar_t>,std::allocator<wchar_t> > >,void *> >
PUBLIC	??0?$allocator@U?$_Tree_node@U?$pair@$$CBV?$basic_string@_WU?$char_traits@_W@std@@V?$allocator@_W@2@@std@@V12@@std@@PAX@std@@@std@@QAE@ABV01@@Z ; std::allocator<std::_Tree_node<std::pair<std::basic_string<wchar_t,std::char_traits<wchar_t>,std::allocator<wchar_t> > const ,std::basic_string<wchar_t,std::char_traits<wchar_t>,std::allocator<wchar_t> > >,void *> >::allocator<std::_Tree_node<std::pair<std::basic_string<wchar_t,std::char_traits<wchar_t>,std::allocator<wchar_t> > const ,std::basic_string<wchar_t,std::char_traits<wchar_t>,std::allocator<wchar_t> > >,void *> >
PUBLIC	?deallocate@?$allocator@U?$_Tree_node@U?$pair@$$CBV?$basic_string@_WU?$char_traits@_W@std@@V?$allocator@_W@2@@std@@V12@@std@@PAX@std@@@std@@QAEXPAU?$_Tree_node@U?$pair@$$CBV?$basic_string@_WU?$char_traits@_W@std@@V?$allocator@_W@2@@std@@V12@@std@@PAX@2@I@Z ; std::allocator<std::_Tree_node<std::pair<std::basic_string<wchar_t,std::char_traits<wchar_t>,std::allocator<wchar_t> > const ,std::basic_string<wchar_t,std::char_traits<wchar_t>,std::allocator<wchar_t> > >,void *> >::deallocate
PUBLIC	?allocate@?$allocator@U?$_Tree_node@U?$pair@$$CBV?$basic_string@_WU?$char_traits@_W@std@@V?$allocator@_W@2@@std@@V12@@std@@PAX@std@@@std@@QAEPAU?$_Tree_node@U?$pair@$$CBV?$basic_string@_WU?$char_traits@_W@std@@V?$allocator@_W@2@@std@@V12@@std@@PAX@2@I@Z ; std::allocator<std::_Tree_node<std::pair<std::basic_string<wchar_t,std::char_traits<wchar_t>,std::allocator<wchar_t> > const ,std::basic_string<wchar_t,std::char_traits<wchar_t>,std::allocator<wchar_t> > >,void *> >::allocate
PUBLIC	?select_on_container_copy_construction@?$allocator_traits@V?$allocator@U?$_Tree_node@U?$pair@$$CBV?$basic_string@_WU?$char_traits@_W@std@@V?$allocator@_W@2@@std@@V12@@std@@PAX@std@@@std@@@std@@SA?AV?$allocator@U?$_Tree_node@U?$pair@$$CBV?$basic_string@_WU?$char_traits@_W@std@@V?$allocator@_W@2@@std@@V12@@std@@PAX@std@@@2@ABV32@@Z ; std::allocator_traits<std::allocator<std::_Tree_node<std::pair<std::basic_string<wchar_t,std::char_traits<wchar_t>,std::allocator<wchar_t> > const ,std::basic_string<wchar_t,std::char_traits<wchar_t>,std::allocator<wchar_t> > >,void *> > >::select_on_container_copy_construction
PUBLIC	?select_on_container_copy_construction@?$_Wrap_alloc@V?$allocator@U?$_Tree_node@U?$pair@$$CBV?$basic_string@_WU?$char_traits@_W@std@@V?$allocator@_W@2@@std@@V12@@std@@PAX@std@@@std@@@std@@QBE?AU12@U_Nil@2@@Z ; std::_Wrap_alloc<std::allocator<std::_Tree_node<std::pair<std::basic_string<wchar_t,std::char_traits<wchar_t>,std::allocator<wchar_t> > const ,std::basic_string<wchar_t,std::char_traits<wchar_t>,std::allocator<wchar_t> > >,void *> > >::select_on_container_copy_construction
PUBLIC	??0?$_Wrap_alloc@V?$allocator@U?$_Tree_node@U?$pair@$$CBV?$basic_string@_WU?$char_traits@_W@std@@V?$allocator@_W@2@@std@@V12@@std@@PAX@std@@@std@@@std@@QAE@XZ ; std::_Wrap_alloc<std::allocator<std::_Tree_node<std::pair<std::basic_string<wchar_t,std::char_traits<wchar_t>,std::allocator<wchar_t> > const ,std::basic_string<wchar_t,std::char_traits<wchar_t>,std::allocator<wchar_t> > >,void *> > >::_Wrap_alloc<std::allocator<std::_Tree_node<std::pair<std::basic_string<wchar_t,std::char_traits<wchar_t>,std::allocator<wchar_t> > const ,std::basic_string<wchar_t,std::char_traits<wchar_t>,std::allocator<wchar_t> > >,void *> > >
PUBLIC	??0?$_Wrap_alloc@V?$allocator@U?$_Tree_node@U?$pair@$$CBV?$basic_string@_WU?$char_traits@_W@std@@V?$allocator@_W@2@@std@@V12@@std@@PAX@std@@@std@@@std@@QAE@$$QAU01@@Z ; std::_Wrap_alloc<std::allocator<std::_Tree_node<std::pair<std::basic_string<wchar_t,std::char_traits<wchar_t>,std::allocator<wchar_t> > const ,std::basic_string<wchar_t,std::char_traits<wchar_t>,std::allocator<wchar_t> > >,void *> > >::_Wrap_alloc<std::allocator<std::_Tree_node<std::pair<std::basic_string<wchar_t,std::char_traits<wchar_t>,std::allocator<wchar_t> > const ,std::basic_string<wchar_t,std::char_traits<wchar_t>,std::allocator<wchar_t> > >,void *> > >
PUBLIC	?allocate@?$_Wrap_alloc@V?$allocator@U?$_Tree_node@U?$pair@$$CBV?$basic_string@_WU?$char_traits@_W@std@@V?$allocator@_W@2@@std@@V12@@std@@PAX@std@@@std@@@std@@QAEPAU?$_Tree_node@U?$pair@$$CBV?$basic_string@_WU?$char_traits@_W@std@@V?$allocator@_W@2@@std@@V12@@std@@PAX@2@I@Z ; std::_Wrap_alloc<std::allocator<std::_Tree_node<std::pair<std::basic_string<wchar_t,std::char_traits<wchar_t>,std::allocator<wchar_t> > const ,std::basic_string<wchar_t,std::char_traits<wchar_t>,std::allocator<wchar_t> > >,void *> > >::allocate
PUBLIC	?deallocate@?$_Wrap_alloc@V?$allocator@U?$_Tree_node@U?$pair@$$CBV?$basic_string@_WU?$char_traits@_W@std@@V?$allocator@_W@2@@std@@V12@@std@@PAX@std@@@std@@@std@@QAEXPAU?$_Tree_node@U?$pair@$$CBV?$basic_string@_WU?$char_traits@_W@std@@V?$allocator@_W@2@@std@@V12@@std@@PAX@2@I@Z ; std::_Wrap_alloc<std::allocator<std::_Tree_node<std::pair<std::basic_string<wchar_t,std::char_traits<wchar_t>,std::allocator<wchar_t> > const ,std::basic_string<wchar_t,std::char_traits<wchar_t>,std::allocator<wchar_t> > >,void *> > >::deallocate
PUBLIC	?_Color@?$_Tree_comp_alloc@V?$_Tmap_traits@V?$basic_string@_WU?$char_traits@_W@std@@V?$allocator@_W@2@@std@@V12@U?$less@V?$basic_string@_WU?$char_traits@_W@std@@V?$allocator@_W@2@@std@@@2@V?$allocator@U?$pair@$$CBV?$basic_string@_WU?$char_traits@_W@std@@V?$allocator@_W@2@@std@@V12@@std@@@2@$0A@@std@@@std@@SAAADPAU?$_Tree_node@U?$pair@$$CBV?$basic_string@_WU?$char_traits@_W@std@@V?$allocator@_W@2@@std@@V12@@std@@PAX@2@@Z ; std::_Tree_comp_alloc<std::_Tmap_traits<std::basic_string<wchar_t,std::char_traits<wchar_t>,std::allocator<wchar_t> >,std::basic_string<wchar_t,std::char_traits<wchar_t>,std::allocator<wchar_t> >,std::less<std::basic_string<wchar_t,std::char_traits<wchar_t>,std::allocator<wchar_t> > >,std::allocator<std::pair<std::basic_string<wchar_t,std::char_traits<wchar_t>,std::allocator<wchar_t> > const ,std::basic_string<wchar_t,std::char_traits<wchar_t>,std::allocator<wchar_t> > > >,0> >::_Color
PUBLIC	?_Isnil@?$_Tree_comp_alloc@V?$_Tmap_traits@V?$basic_string@_WU?$char_traits@_W@std@@V?$allocator@_W@2@@std@@V12@U?$less@V?$basic_string@_WU?$char_traits@_W@std@@V?$allocator@_W@2@@std@@@2@V?$allocator@U?$pair@$$CBV?$basic_string@_WU?$char_traits@_W@std@@V?$allocator@_W@2@@std@@V12@@std@@@2@$0A@@std@@@std@@SAAADPAU?$_Tree_node@U?$pair@$$CBV?$basic_string@_WU?$char_traits@_W@std@@V?$allocator@_W@2@@std@@V12@@std@@PAX@2@@Z ; std::_Tree_comp_alloc<std::_Tmap_traits<std::basic_string<wchar_t,std::char_traits<wchar_t>,std::allocator<wchar_t> >,std::basic_string<wchar_t,std::char_traits<wchar_t>,std::allocator<wchar_t> >,std::less<std::basic_string<wchar_t,std::char_traits<wchar_t>,std::allocator<wchar_t> > >,std::allocator<std::pair<std::basic_string<wchar_t,std::char_traits<wchar_t>,std::allocator<wchar_t> > const ,std::basic_string<wchar_t,std::char_traits<wchar_t>,std::allocator<wchar_t> > > >,0> >::_Isnil
PUBLIC	?_Left@?$_Tree_comp_alloc@V?$_Tmap_traits@V?$basic_string@_WU?$char_traits@_W@std@@V?$allocator@_W@2@@std@@V12@U?$less@V?$basic_string@_WU?$char_traits@_W@std@@V?$allocator@_W@2@@std@@@2@V?$allocator@U?$pair@$$CBV?$basic_string@_WU?$char_traits@_W@std@@V?$allocator@_W@2@@std@@V12@@std@@@2@$0A@@std@@@std@@SAAAPAU?$_Tree_node@U?$pair@$$CBV?$basic_string@_WU?$char_traits@_W@std@@V?$allocator@_W@2@@std@@V12@@std@@PAX@2@PAU32@@Z ; std::_Tree_comp_alloc<std::_Tmap_traits<std::basic_string<wchar_t,std::char_traits<wchar_t>,std::allocator<wchar_t> >,std::basic_string<wchar_t,std::char_traits<wchar_t>,std::allocator<wchar_t> >,std::less<std::basic_string<wchar_t,std::char_traits<wchar_t>,std::allocator<wchar_t> > >,std::allocator<std::pair<std::basic_string<wchar_t,std::char_traits<wchar_t>,std::allocator<wchar_t> > const ,std::basic_string<wchar_t,std::char_traits<wchar_t>,std::allocator<wchar_t> > > >,0> >::_Left
PUBLIC	?_Parent@?$_Tree_comp_alloc@V?$_Tmap_traits@V?$basic_string@_WU?$char_traits@_W@std@@V?$allocator@_W@2@@std@@V12@U?$less@V?$basic_string@_WU?$char_traits@_W@std@@V?$allocator@_W@2@@std@@@2@V?$allocator@U?$pair@$$CBV?$basic_string@_WU?$char_traits@_W@std@@V?$allocator@_W@2@@std@@V12@@std@@@2@$0A@@std@@@std@@SAAAPAU?$_Tree_node@U?$pair@$$CBV?$basic_string@_WU?$char_traits@_W@std@@V?$allocator@_W@2@@std@@V12@@std@@PAX@2@PAU32@@Z ; std::_Tree_comp_alloc<std::_Tmap_traits<std::basic_string<wchar_t,std::char_traits<wchar_t>,std::allocator<wchar_t> >,std::basic_string<wchar_t,std::char_traits<wchar_t>,std::allocator<wchar_t> >,std::less<std::basic_string<wchar_t,std::char_traits<wchar_t>,std::allocator<wchar_t> > >,std::allocator<std::pair<std::basic_string<wchar_t,std::char_traits<wchar_t>,std::allocator<wchar_t> > const ,std::basic_string<wchar_t,std::char_traits<wchar_t>,std::allocator<wchar_t> > > >,0> >::_Parent
PUBLIC	?_Right@?$_Tree_comp_alloc@V?$_Tmap_traits@V?$basic_string@_WU?$char_traits@_W@std@@V?$allocator@_W@2@@std@@V12@U?$less@V?$basic_string@_WU?$char_traits@_W@std@@V?$allocator@_W@2@@std@@@2@V?$allocator@U?$pair@$$CBV?$basic_string@_WU?$char_traits@_W@std@@V?$allocator@_W@2@@std@@V12@@std@@@2@$0A@@std@@@std@@SAAAPAU?$_Tree_node@U?$pair@$$CBV?$basic_string@_WU?$char_traits@_W@std@@V?$allocator@_W@2@@std@@V12@@std@@PAX@2@PAU32@@Z ; std::_Tree_comp_alloc<std::_Tmap_traits<std::basic_string<wchar_t,std::char_traits<wchar_t>,std::allocator<wchar_t> >,std::basic_string<wchar_t,std::char_traits<wchar_t>,std::allocator<wchar_t> >,std::less<std::basic_string<wchar_t,std::char_traits<wchar_t>,std::allocator<wchar_t> > >,std::allocator<std::pair<std::basic_string<wchar_t,std::char_traits<wchar_t>,std::allocator<wchar_t> > const ,std::basic_string<wchar_t,std::char_traits<wchar_t>,std::allocator<wchar_t> > > >,0> >::_Right
PUBLIC	?_Myval@?$_Tree_comp_alloc@V?$_Tmap_traits@V?$basic_string@_WU?$char_traits@_W@std@@V?$allocator@_W@2@@std@@V12@U?$less@V?$basic_string@_WU?$char_traits@_W@std@@V?$allocator@_W@2@@std@@@2@V?$allocator@U?$pair@$$CBV?$basic_string@_WU?$char_traits@_W@std@@V?$allocator@_W@2@@std@@V12@@std@@@2@$0A@@std@@@std@@SAAAU?$pair@$$CBV?$basic_string@_WU?$char_traits@_W@std@@V?$allocator@_W@2@@std@@V12@@2@PAU?$_Tree_node@U?$pair@$$CBV?$basic_string@_WU?$char_traits@_W@std@@V?$allocator@_W@2@@std@@V12@@std@@PAX@2@@Z ; std::_Tree_comp_alloc<std::_Tmap_traits<std::basic_string<wchar_t,std::char_traits<wchar_t>,std::allocator<wchar_t> >,std::basic_string<wchar_t,std::char_traits<wchar_t>,std::allocator<wchar_t> >,std::less<std::basic_string<wchar_t,std::char_traits<wchar_t>,std::allocator<wchar_t> > >,std::allocator<std::pair<std::basic_string<wchar_t,std::char_traits<wchar_t>,std::allocator<wchar_t> > const ,std::basic_string<wchar_t,std::char_traits<wchar_t>,std::allocator<wchar_t> > > >,0> >::_Myval
PUBLIC	?_Max@?$_Tree_comp_alloc@V?$_Tmap_traits@V?$basic_string@_WU?$char_traits@_W@std@@V?$allocator@_W@2@@std@@V12@U?$less@V?$basic_string@_WU?$char_traits@_W@std@@V?$allocator@_W@2@@std@@@2@V?$allocator@U?$pair@$$CBV?$basic_string@_WU?$char_traits@_W@std@@V?$allocator@_W@2@@std@@V12@@std@@@2@$0A@@std@@@std@@SAPAU?$_Tree_node@U?$pair@$$CBV?$basic_string@_WU?$char_traits@_W@std@@V?$allocator@_W@2@@std@@V12@@std@@PAX@2@PAU32@@Z ; std::_Tree_comp_alloc<std::_Tmap_traits<std::basic_string<wchar_t,std::char_traits<wchar_t>,std::allocator<wchar_t> >,std::basic_string<wchar_t,std::char_traits<wchar_t>,std::allocator<wchar_t> >,std::less<std::basic_string<wchar_t,std::char_traits<wchar_t>,std::allocator<wchar_t> > >,std::allocator<std::pair<std::basic_string<wchar_t,std::char_traits<wchar_t>,std::allocator<wchar_t> > const ,std::basic_string<wchar_t,std::char_traits<wchar_t>,std::allocator<wchar_t> > > >,0> >::_Max
PUBLIC	?_Min@?$_Tree_comp_alloc@V?$_Tmap_traits@V?$basic_string@_WU?$char_traits@_W@std@@V?$allocator@_W@2@@std@@V12@U?$less@V?$basic_string@_WU?$char_traits@_W@std@@V?$allocator@_W@2@@std@@@2@V?$allocator@U?$pair@$$CBV?$basic_string@_WU?$char_traits@_W@std@@V?$allocator@_W@2@@std@@V12@@std@@@2@$0A@@std@@@std@@SAPAU?$_Tree_node@U?$pair@$$CBV?$basic_string@_WU?$char_traits@_W@std@@V?$allocator@_W@2@@std@@V12@@std@@PAX@2@PAU32@@Z ; std::_Tree_comp_alloc<std::_Tmap_traits<std::basic_string<wchar_t,std::char_traits<wchar_t>,std::allocator<wchar_t> >,std::basic_string<wchar_t,std::char_traits<wchar_t>,std::allocator<wchar_t> >,std::less<std::basic_string<wchar_t,std::char_traits<wchar_t>,std::allocator<wchar_t> > >,std::allocator<std::pair<std::basic_string<wchar_t,std::char_traits<wchar_t>,std::allocator<wchar_t> > const ,std::basic_string<wchar_t,std::char_traits<wchar_t>,std::allocator<wchar_t> > > >,0> >::_Min
PUBLIC	??0?$_Tree_comp_alloc@V?$_Tmap_traits@V?$basic_string@_WU?$char_traits@_W@std@@V?$allocator@_W@2@@std@@V12@U?$less@V?$basic_string@_WU?$char_traits@_W@std@@V?$allocator@_W@2@@std@@@2@V?$allocator@U?$pair@$$CBV?$basic_string@_WU?$char_traits@_W@std@@V?$allocator@_W@2@@std@@V12@@std@@@2@$0A@@std@@@std@@QAE@ABU?$less@V?$basic_string@_WU?$char_traits@_W@std@@V?$allocator@_W@2@@std@@@1@@Z ; std::_Tree_comp_alloc<std::_Tmap_traits<std::basic_string<wchar_t,std::char_traits<wchar_t>,std::allocator<wchar_t> >,std::basic_string<wchar_t,std::char_traits<wchar_t>,std::allocator<wchar_t> >,std::less<std::basic_string<wchar_t,std::char_traits<wchar_t>,std::allocator<wchar_t> > >,std::allocator<std::pair<std::basic_string<wchar_t,std::char_traits<wchar_t>,std::allocator<wchar_t> > const ,std::basic_string<wchar_t,std::char_traits<wchar_t>,std::allocator<wchar_t> > > >,0> >::_Tree_comp_alloc<std::_Tmap_traits<std::basic_string<wchar_t,std::char_traits<wchar_t>,std::allocator<wchar_t> >,std::basic_string<wchar_t,std::char_traits<wchar_t>,std::allocator<wchar_t> >,std::less<std::basic_string<wchar_t,std::char_traits<wchar_t>,std::allocator<wchar_t> > >,std::allocator<std::pair<std::basic_string<wchar_t,std::char_traits<wchar_t>,std::allocator<wchar_t> > const ,std::basic_string<wchar_t,std::char_traits<wchar_t>,std::allocator<wchar_t> > > >,0> >
PUBLIC	?_Construct@?$_Tree_comp_alloc@V?$_Tmap_traits@V?$basic_string@_WU?$char_traits@_W@std@@V?$allocator@_W@2@@std@@V12@U?$less@V?$basic_string@_WU?$char_traits@_W@std@@V?$allocator@_W@2@@std@@@2@V?$allocator@U?$pair@$$CBV?$basic_string@_WU?$char_traits@_W@std@@V?$allocator@_W@2@@std@@V12@@std@@@2@$0A@@std@@@std@@QAEXXZ ; std::_Tree_comp_alloc<std::_Tmap_traits<std::basic_string<wchar_t,std::char_traits<wchar_t>,std::allocator<wchar_t> >,std::basic_string<wchar_t,std::char_traits<wchar_t>,std::allocator<wchar_t> >,std::less<std::basic_string<wchar_t,std::char_traits<wchar_t>,std::allocator<wchar_t> > >,std::allocator<std::pair<std::basic_string<wchar_t,std::char_traits<wchar_t>,std::allocator<wchar_t> > const ,std::basic_string<wchar_t,std::char_traits<wchar_t>,std::allocator<wchar_t> > > >,0> >::_Construct
PUBLIC	??1?$_Tree_comp_alloc@V?$_Tmap_traits@V?$basic_string@_WU?$char_traits@_W@std@@V?$allocator@_W@2@@std@@V12@U?$less@V?$basic_string@_WU?$char_traits@_W@std@@V?$allocator@_W@2@@std@@@2@V?$allocator@U?$pair@$$CBV?$basic_string@_WU?$char_traits@_W@std@@V?$allocator@_W@2@@std@@V12@@std@@@2@$0A@@std@@@std@@QAE@XZ ; std::_Tree_comp_alloc<std::_Tmap_traits<std::basic_string<wchar_t,std::char_traits<wchar_t>,std::allocator<wchar_t> >,std::basic_string<wchar_t,std::char_traits<wchar_t>,std::allocator<wchar_t> >,std::less<std::basic_string<wchar_t,std::char_traits<wchar_t>,std::allocator<wchar_t> > >,std::allocator<std::pair<std::basic_string<wchar_t,std::char_traits<wchar_t>,std::allocator<wchar_t> > const ,std::basic_string<wchar_t,std::char_traits<wchar_t>,std::allocator<wchar_t> > > >,0> >::~_Tree_comp_alloc<std::_Tmap_traits<std::basic_string<wchar_t,std::char_traits<wchar_t>,std::allocator<wchar_t> >,std::basic_string<wchar_t,std::char_traits<wchar_t>,std::allocator<wchar_t> >,std::less<std::basic_string<wchar_t,std::char_traits<wchar_t>,std::allocator<wchar_t> > >,std::allocator<std::pair<std::basic_string<wchar_t,std::char_traits<wchar_t>,std::allocator<wchar_t> > const ,std::basic_string<wchar_t,std::char_traits<wchar_t>,std::allocator<wchar_t> > > >,0> >
PUBLIC	?_Swap_all@?$_Tree_comp_alloc@V?$_Tmap_traits@V?$basic_string@_WU?$char_traits@_W@std@@V?$allocator@_W@2@@std@@V12@U?$less@V?$basic_string@_WU?$char_traits@_W@std@@V?$allocator@_W@2@@std@@@2@V?$allocator@U?$pair@$$CBV?$basic_string@_WU?$char_traits@_W@std@@V?$allocator@_W@2@@std@@V12@@std@@@2@$0A@@std@@@std@@QAEXAAV12@@Z ; std::_Tree_comp_alloc<std::_Tmap_traits<std::basic_string<wchar_t,std::char_traits<wchar_t>,std::allocator<wchar_t> >,std::basic_string<wchar_t,std::char_traits<wchar_t>,std::allocator<wchar_t> >,std::less<std::basic_string<wchar_t,std::char_traits<wchar_t>,std::allocator<wchar_t> > >,std::allocator<std::pair<std::basic_string<wchar_t,std::char_traits<wchar_t>,std::allocator<wchar_t> > const ,std::basic_string<wchar_t,std::char_traits<wchar_t>,std::allocator<wchar_t> > > >,0> >::_Swap_all
PUBLIC	?_Buyheadnode@?$_Tree_comp_alloc@V?$_Tmap_traits@V?$basic_string@_WU?$char_traits@_W@std@@V?$allocator@_W@2@@std@@V12@U?$less@V?$basic_string@_WU?$char_traits@_W@std@@V?$allocator@_W@2@@std@@@2@V?$allocator@U?$pair@$$CBV?$basic_string@_WU?$char_traits@_W@std@@V?$allocator@_W@2@@std@@V12@@std@@@2@$0A@@std@@@std@@QAEPAU?$_Tree_node@U?$pair@$$CBV?$basic_string@_WU?$char_traits@_W@std@@V?$allocator@_W@2@@std@@V12@@std@@PAX@2@XZ ; std::_Tree_comp_alloc<std::_Tmap_traits<std::basic_string<wchar_t,std::char_traits<wchar_t>,std::allocator<wchar_t> >,std::basic_string<wchar_t,std::char_traits<wchar_t>,std::allocator<wchar_t> >,std::less<std::basic_string<wchar_t,std::char_traits<wchar_t>,std::allocator<wchar_t> > >,std::allocator<std::pair<std::basic_string<wchar_t,std::char_traits<wchar_t>,std::allocator<wchar_t> > const ,std::basic_string<wchar_t,std::char_traits<wchar_t>,std::allocator<wchar_t> > > >,0> >::_Buyheadnode
PUBLIC	?_Freeheadnode@?$_Tree_comp_alloc@V?$_Tmap_traits@V?$basic_string@_WU?$char_traits@_W@std@@V?$allocator@_W@2@@std@@V12@U?$less@V?$basic_string@_WU?$char_traits@_W@std@@V?$allocator@_W@2@@std@@@2@V?$allocator@U?$pair@$$CBV?$basic_string@_WU?$char_traits@_W@std@@V?$allocator@_W@2@@std@@V12@@std@@@2@$0A@@std@@@std@@QAEXPAU?$_Tree_node@U?$pair@$$CBV?$basic_string@_WU?$char_traits@_W@std@@V?$allocator@_W@2@@std@@V12@@std@@PAX@2@@Z ; std::_Tree_comp_alloc<std::_Tmap_traits<std::basic_string<wchar_t,std::char_traits<wchar_t>,std::allocator<wchar_t> >,std::basic_string<wchar_t,std::char_traits<wchar_t>,std::allocator<wchar_t> >,std::less<std::basic_string<wchar_t,std::char_traits<wchar_t>,std::allocator<wchar_t> > >,std::allocator<std::pair<std::basic_string<wchar_t,std::char_traits<wchar_t>,std::allocator<wchar_t> > const ,std::basic_string<wchar_t,std::char_traits<wchar_t>,std::allocator<wchar_t> > > >,0> >::_Freeheadnode
PUBLIC	?_Buynode0@?$_Tree_comp_alloc@V?$_Tmap_traits@V?$basic_string@_WU?$char_traits@_W@std@@V?$allocator@_W@2@@std@@V12@U?$less@V?$basic_string@_WU?$char_traits@_W@std@@V?$allocator@_W@2@@std@@@2@V?$allocator@U?$pair@$$CBV?$basic_string@_WU?$char_traits@_W@std@@V?$allocator@_W@2@@std@@V12@@std@@@2@$0A@@std@@@std@@QAEPAU?$_Tree_node@U?$pair@$$CBV?$basic_string@_WU?$char_traits@_W@std@@V?$allocator@_W@2@@std@@V12@@std@@PAX@2@XZ ; std::_Tree_comp_alloc<std::_Tmap_traits<std::basic_string<wchar_t,std::char_traits<wchar_t>,std::allocator<wchar_t> >,std::basic_string<wchar_t,std::char_traits<wchar_t>,std::allocator<wchar_t> >,std::less<std::basic_string<wchar_t,std::char_traits<wchar_t>,std::allocator<wchar_t> > >,std::allocator<std::pair<std::basic_string<wchar_t,std::char_traits<wchar_t>,std::allocator<wchar_t> > const ,std::basic_string<wchar_t,std::char_traits<wchar_t>,std::allocator<wchar_t> > > >,0> >::_Buynode0
PUBLIC	?_Freenode0@?$_Tree_comp_alloc@V?$_Tmap_traits@V?$basic_string@_WU?$char_traits@_W@std@@V?$allocator@_W@2@@std@@V12@U?$less@V?$basic_string@_WU?$char_traits@_W@std@@V?$allocator@_W@2@@std@@@2@V?$allocator@U?$pair@$$CBV?$basic_string@_WU?$char_traits@_W@std@@V?$allocator@_W@2@@std@@V12@@std@@@2@$0A@@std@@@std@@QAEXPAU?$_Tree_node@U?$pair@$$CBV?$basic_string@_WU?$char_traits@_W@std@@V?$allocator@_W@2@@std@@V12@@std@@PAX@2@@Z ; std::_Tree_comp_alloc<std::_Tmap_traits<std::basic_string<wchar_t,std::char_traits<wchar_t>,std::allocator<wchar_t> >,std::basic_string<wchar_t,std::char_traits<wchar_t>,std::allocator<wchar_t> >,std::less<std::basic_string<wchar_t,std::char_traits<wchar_t>,std::allocator<wchar_t> > >,std::allocator<std::pair<std::basic_string<wchar_t,std::char_traits<wchar_t>,std::allocator<wchar_t> > const ,std::basic_string<wchar_t,std::char_traits<wchar_t>,std::allocator<wchar_t> > > >,0> >::_Freenode0
PUBLIC	?_Getcomp@?$_Tree_comp_alloc@V?$_Tmap_traits@V?$basic_string@_WU?$char_traits@_W@std@@V?$allocator@_W@2@@std@@V12@U?$less@V?$basic_string@_WU?$char_traits@_W@std@@V?$allocator@_W@2@@std@@@2@V?$allocator@U?$pair@$$CBV?$basic_string@_WU?$char_traits@_W@std@@V?$allocator@_W@2@@std@@V12@@std@@@2@$0A@@std@@@std@@QAEAAU?$less@V?$basic_string@_WU?$char_traits@_W@std@@V?$allocator@_W@2@@std@@@2@XZ ; std::_Tree_comp_alloc<std::_Tmap_traits<std::basic_string<wchar_t,std::char_traits<wchar_t>,std::allocator<wchar_t> >,std::basic_string<wchar_t,std::char_traits<wchar_t>,std::allocator<wchar_t> >,std::less<std::basic_string<wchar_t,std::char_traits<wchar_t>,std::allocator<wchar_t> > >,std::allocator<std::pair<std::basic_string<wchar_t,std::char_traits<wchar_t>,std::allocator<wchar_t> > const ,std::basic_string<wchar_t,std::char_traits<wchar_t>,std::allocator<wchar_t> > > >,0> >::_Getcomp
PUBLIC	?_Getcomp@?$_Tree_comp_alloc@V?$_Tmap_traits@V?$basic_string@_WU?$char_traits@_W@std@@V?$allocator@_W@2@@std@@V12@U?$less@V?$basic_string@_WU?$char_traits@_W@std@@V?$allocator@_W@2@@std@@@2@V?$allocator@U?$pair@$$CBV?$basic_string@_WU?$char_traits@_W@std@@V?$allocator@_W@2@@std@@V12@@std@@@2@$0A@@std@@@std@@QBEABU?$less@V?$basic_string@_WU?$char_traits@_W@std@@V?$allocator@_W@2@@std@@@2@XZ ; std::_Tree_comp_alloc<std::_Tmap_traits<std::basic_string<wchar_t,std::char_traits<wchar_t>,std::allocator<wchar_t> >,std::basic_string<wchar_t,std::char_traits<wchar_t>,std::allocator<wchar_t> >,std::less<std::basic_string<wchar_t,std::char_traits<wchar_t>,std::allocator<wchar_t> > >,std::allocator<std::pair<std::basic_string<wchar_t,std::char_traits<wchar_t>,std::allocator<wchar_t> > const ,std::basic_string<wchar_t,std::char_traits<wchar_t>,std::allocator<wchar_t> > > >,0> >::_Getcomp
PUBLIC	?_Getal@?$_Tree_comp_alloc@V?$_Tmap_traits@V?$basic_string@_WU?$char_traits@_W@std@@V?$allocator@_W@2@@std@@V12@U?$less@V?$basic_string@_WU?$char_traits@_W@std@@V?$allocator@_W@2@@std@@@2@V?$allocator@U?$pair@$$CBV?$basic_string@_WU?$char_traits@_W@std@@V?$allocator@_W@2@@std@@V12@@std@@@2@$0A@@std@@@std@@QAEAAU?$_Wrap_alloc@V?$allocator@U?$_Tree_node@U?$pair@$$CBV?$basic_string@_WU?$char_traits@_W@std@@V?$allocator@_W@2@@std@@V12@@std@@PAX@std@@@std@@@2@XZ ; std::_Tree_comp_alloc<std::_Tmap_traits<std::basic_string<wchar_t,std::char_traits<wchar_t>,std::allocator<wchar_t> >,std::basic_string<wchar_t,std::char_traits<wchar_t>,std::allocator<wchar_t> >,std::less<std::basic_string<wchar_t,std::char_traits<wchar_t>,std::allocator<wchar_t> > >,std::allocator<std::pair<std::basic_string<wchar_t,std::char_traits<wchar_t>,std::allocator<wchar_t> > const ,std::basic_string<wchar_t,std::char_traits<wchar_t>,std::allocator<wchar_t> > > >,0> >::_Getal
PUBLIC	?_Getal@?$_Tree_comp_alloc@V?$_Tmap_traits@V?$basic_string@_WU?$char_traits@_W@std@@V?$allocator@_W@2@@std@@V12@U?$less@V?$basic_string@_WU?$char_traits@_W@std@@V?$allocator@_W@2@@std@@@2@V?$allocator@U?$pair@$$CBV?$basic_string@_WU?$char_traits@_W@std@@V?$allocator@_W@2@@std@@V12@@std@@@2@$0A@@std@@@std@@QBEABU?$_Wrap_alloc@V?$allocator@U?$_Tree_node@U?$pair@$$CBV?$basic_string@_WU?$char_traits@_W@std@@V?$allocator@_W@2@@std@@V12@@std@@PAX@std@@@std@@@2@XZ ; std::_Tree_comp_alloc<std::_Tmap_traits<std::basic_string<wchar_t,std::char_traits<wchar_t>,std::allocator<wchar_t> >,std::basic_string<wchar_t,std::char_traits<wchar_t>,std::allocator<wchar_t> >,std::less<std::basic_string<wchar_t,std::char_traits<wchar_t>,std::allocator<wchar_t> > >,std::allocator<std::pair<std::basic_string<wchar_t,std::char_traits<wchar_t>,std::allocator<wchar_t> > const ,std::basic_string<wchar_t,std::char_traits<wchar_t>,std::allocator<wchar_t> > > >,0> >::_Getal
PUBLIC	?_Get_data@?$_Tree_comp_alloc@V?$_Tmap_traits@V?$basic_string@_WU?$char_traits@_W@std@@V?$allocator@_W@2@@std@@V12@U?$less@V?$basic_string@_WU?$char_traits@_W@std@@V?$allocator@_W@2@@std@@@2@V?$allocator@U?$pair@$$CBV?$basic_string@_WU?$char_traits@_W@std@@V?$allocator@_W@2@@std@@V12@@std@@@2@$0A@@std@@@std@@QAEAAV?$_Tree_val@U?$_Tree_simple_types@U?$pair@$$CBV?$basic_string@_WU?$char_traits@_W@std@@V?$allocator@_W@2@@std@@V12@@std@@@std@@@2@XZ ; std::_Tree_comp_alloc<std::_Tmap_traits<std::basic_string<wchar_t,std::char_traits<wchar_t>,std::allocator<wchar_t> >,std::basic_string<wchar_t,std::char_traits<wchar_t>,std::allocator<wchar_t> >,std::less<std::basic_string<wchar_t,std::char_traits<wchar_t>,std::allocator<wchar_t> > >,std::allocator<std::pair<std::basic_string<wchar_t,std::char_traits<wchar_t>,std::allocator<wchar_t> > const ,std::basic_string<wchar_t,std::char_traits<wchar_t>,std::allocator<wchar_t> > > >,0> >::_Get_data
PUBLIC	?_Get_data@?$_Tree_comp_alloc@V?$_Tmap_traits@V?$basic_string@_WU?$char_traits@_W@std@@V?$allocator@_W@2@@std@@V12@U?$less@V?$basic_string@_WU?$char_traits@_W@std@@V?$allocator@_W@2@@std@@@2@V?$allocator@U?$pair@$$CBV?$basic_string@_WU?$char_traits@_W@std@@V?$allocator@_W@2@@std@@V12@@std@@@2@$0A@@std@@@std@@QBEABV?$_Tree_val@U?$_Tree_simple_types@U?$pair@$$CBV?$basic_string@_WU?$char_traits@_W@std@@V?$allocator@_W@2@@std@@V12@@std@@@std@@@2@XZ ; std::_Tree_comp_alloc<std::_Tmap_traits<std::basic_string<wchar_t,std::char_traits<wchar_t>,std::allocator<wchar_t> >,std::basic_string<wchar_t,std::char_traits<wchar_t>,std::allocator<wchar_t> >,std::less<std::basic_string<wchar_t,std::char_traits<wchar_t>,std::allocator<wchar_t> > >,std::allocator<std::pair<std::basic_string<wchar_t,std::char_traits<wchar_t>,std::allocator<wchar_t> > const ,std::basic_string<wchar_t,std::char_traits<wchar_t>,std::allocator<wchar_t> > > >,0> >::_Get_data
PUBLIC	?_Myhead@?$_Tree_comp_alloc@V?$_Tmap_traits@V?$basic_string@_WU?$char_traits@_W@std@@V?$allocator@_W@2@@std@@V12@U?$less@V?$basic_string@_WU?$char_traits@_W@std@@V?$allocator@_W@2@@std@@@2@V?$allocator@U?$pair@$$CBV?$basic_string@_WU?$char_traits@_W@std@@V?$allocator@_W@2@@std@@V12@@std@@@2@$0A@@std@@@std@@QAEAAPAU?$_Tree_node@U?$pair@$$CBV?$basic_string@_WU?$char_traits@_W@std@@V?$allocator@_W@2@@std@@V12@@std@@PAX@2@XZ ; std::_Tree_comp_alloc<std::_Tmap_traits<std::basic_string<wchar_t,std::char_traits<wchar_t>,std::allocator<wchar_t> >,std::basic_string<wchar_t,std::char_traits<wchar_t>,std::allocator<wchar_t> >,std::less<std::basic_string<wchar_t,std::char_traits<wchar_t>,std::allocator<wchar_t> > >,std::allocator<std::pair<std::basic_string<wchar_t,std::char_traits<wchar_t>,std::allocator<wchar_t> > const ,std::basic_string<wchar_t,std::char_traits<wchar_t>,std::allocator<wchar_t> > > >,0> >::_Myhead
PUBLIC	?_Myhead@?$_Tree_comp_alloc@V?$_Tmap_traits@V?$basic_string@_WU?$char_traits@_W@std@@V?$allocator@_W@2@@std@@V12@U?$less@V?$basic_string@_WU?$char_traits@_W@std@@V?$allocator@_W@2@@std@@@2@V?$allocator@U?$pair@$$CBV?$basic_string@_WU?$char_traits@_W@std@@V?$allocator@_W@2@@std@@V12@@std@@@2@$0A@@std@@@std@@QBEABQAU?$_Tree_node@U?$pair@$$CBV?$basic_string@_WU?$char_traits@_W@std@@V?$allocator@_W@2@@std@@V12@@std@@PAX@2@XZ ; std::_Tree_comp_alloc<std::_Tmap_traits<std::basic_string<wchar_t,std::char_traits<wchar_t>,std::allocator<wchar_t> >,std::basic_string<wchar_t,std::char_traits<wchar_t>,std::allocator<wchar_t> >,std::less<std::basic_string<wchar_t,std::char_traits<wchar_t>,std::allocator<wchar_t> > >,std::allocator<std::pair<std::basic_string<wchar_t,std::char_traits<wchar_t>,std::allocator<wchar_t> > const ,std::basic_string<wchar_t,std::char_traits<wchar_t>,std::allocator<wchar_t> > > >,0> >::_Myhead
PUBLIC	?_Mysize@?$_Tree_comp_alloc@V?$_Tmap_traits@V?$basic_string@_WU?$char_traits@_W@std@@V?$allocator@_W@2@@std@@V12@U?$less@V?$basic_string@_WU?$char_traits@_W@std@@V?$allocator@_W@2@@std@@@2@V?$allocator@U?$pair@$$CBV?$basic_string@_WU?$char_traits@_W@std@@V?$allocator@_W@2@@std@@V12@@std@@@2@$0A@@std@@@std@@QAEAAIXZ ; std::_Tree_comp_alloc<std::_Tmap_traits<std::basic_string<wchar_t,std::char_traits<wchar_t>,std::allocator<wchar_t> >,std::basic_string<wchar_t,std::char_traits<wchar_t>,std::allocator<wchar_t> >,std::less<std::basic_string<wchar_t,std::char_traits<wchar_t>,std::allocator<wchar_t> > >,std::allocator<std::pair<std::basic_string<wchar_t,std::char_traits<wchar_t>,std::allocator<wchar_t> > const ,std::basic_string<wchar_t,std::char_traits<wchar_t>,std::allocator<wchar_t> > > >,0> >::_Mysize
PUBLIC	?_Mysize@?$_Tree_comp_alloc@V?$_Tmap_traits@V?$basic_string@_WU?$char_traits@_W@std@@V?$allocator@_W@2@@std@@V12@U?$less@V?$basic_string@_WU?$char_traits@_W@std@@V?$allocator@_W@2@@std@@@2@V?$allocator@U?$pair@$$CBV?$basic_string@_WU?$char_traits@_W@std@@V?$allocator@_W@2@@std@@V12@@std@@@2@$0A@@std@@@std@@QBEABIXZ ; std::_Tree_comp_alloc<std::_Tmap_traits<std::basic_string<wchar_t,std::char_traits<wchar_t>,std::allocator<wchar_t> >,std::basic_string<wchar_t,std::char_traits<wchar_t>,std::allocator<wchar_t> >,std::less<std::basic_string<wchar_t,std::char_traits<wchar_t>,std::allocator<wchar_t> > >,std::allocator<std::pair<std::basic_string<wchar_t,std::char_traits<wchar_t>,std::allocator<wchar_t> > const ,std::basic_string<wchar_t,std::char_traits<wchar_t>,std::allocator<wchar_t> > > >,0> >::_Mysize
PUBLIC	??0?$_Tree_val@U?$_Tree_simple_types@U?$pair@$$CBV?$basic_string@_WU?$char_traits@_W@std@@V?$allocator@_W@2@@std@@V12@@std@@@std@@@std@@QAE@XZ ; std::_Tree_val<std::_Tree_simple_types<std::pair<std::basic_string<wchar_t,std::char_traits<wchar_t>,std::allocator<wchar_t> > const ,std::basic_string<wchar_t,std::char_traits<wchar_t>,std::allocator<wchar_t> > > > >::_Tree_val<std::_Tree_simple_types<std::pair<std::basic_string<wchar_t,std::char_traits<wchar_t>,std::allocator<wchar_t> > const ,std::basic_string<wchar_t,std::char_traits<wchar_t>,std::allocator<wchar_t> > > > >
PUBLIC	?_Color@?$_Tree_val@U?$_Tree_simple_types@U?$pair@$$CBV?$basic_string@_WU?$char_traits@_W@std@@V?$allocator@_W@2@@std@@V12@@std@@@std@@@std@@SAAADPAU?$_Tree_node@U?$pair@$$CBV?$basic_string@_WU?$char_traits@_W@std@@V?$allocator@_W@2@@std@@V12@@std@@PAX@2@@Z ; std::_Tree_val<std::_Tree_simple_types<std::pair<std::basic_string<wchar_t,std::char_traits<wchar_t>,std::allocator<wchar_t> > const ,std::basic_string<wchar_t,std::char_traits<wchar_t>,std::allocator<wchar_t> > > > >::_Color
PUBLIC	?_Isnil@?$_Tree_val@U?$_Tree_simple_types@U?$pair@$$CBV?$basic_string@_WU?$char_traits@_W@std@@V?$allocator@_W@2@@std@@V12@@std@@@std@@@std@@SAAADPAU?$_Tree_node@U?$pair@$$CBV?$basic_string@_WU?$char_traits@_W@std@@V?$allocator@_W@2@@std@@V12@@std@@PAX@2@@Z ; std::_Tree_val<std::_Tree_simple_types<std::pair<std::basic_string<wchar_t,std::char_traits<wchar_t>,std::allocator<wchar_t> > const ,std::basic_string<wchar_t,std::char_traits<wchar_t>,std::allocator<wchar_t> > > > >::_Isnil
PUBLIC	?_Left@?$_Tree_val@U?$_Tree_simple_types@U?$pair@$$CBV?$basic_string@_WU?$char_traits@_W@std@@V?$allocator@_W@2@@std@@V12@@std@@@std@@@std@@SAAAPAU?$_Tree_node@U?$pair@$$CBV?$basic_string@_WU?$char_traits@_W@std@@V?$allocator@_W@2@@std@@V12@@std@@PAX@2@PAU32@@Z ; std::_Tree_val<std::_Tree_simple_types<std::pair<std::basic_string<wchar_t,std::char_traits<wchar_t>,std::allocator<wchar_t> > const ,std::basic_string<wchar_t,std::char_traits<wchar_t>,std::allocator<wchar_t> > > > >::_Left
PUBLIC	?_Parent@?$_Tree_val@U?$_Tree_simple_types@U?$pair@$$CBV?$basic_string@_WU?$char_traits@_W@std@@V?$allocator@_W@2@@std@@V12@@std@@@std@@@std@@SAAAPAU?$_Tree_node@U?$pair@$$CBV?$basic_string@_WU?$char_traits@_W@std@@V?$allocator@_W@2@@std@@V12@@std@@PAX@2@PAU32@@Z ; std::_Tree_val<std::_Tree_simple_types<std::pair<std::basic_string<wchar_t,std::char_traits<wchar_t>,std::allocator<wchar_t> > const ,std::basic_string<wchar_t,std::char_traits<wchar_t>,std::allocator<wchar_t> > > > >::_Parent
PUBLIC	?_Right@?$_Tree_val@U?$_Tree_simple_types@U?$pair@$$CBV?$basic_string@_WU?$char_traits@_W@std@@V?$allocator@_W@2@@std@@V12@@std@@@std@@@std@@SAAAPAU?$_Tree_node@U?$pair@$$CBV?$basic_string@_WU?$char_traits@_W@std@@V?$allocator@_W@2@@std@@V12@@std@@PAX@2@PAU32@@Z ; std::_Tree_val<std::_Tree_simple_types<std::pair<std::basic_string<wchar_t,std::char_traits<wchar_t>,std::allocator<wchar_t> > const ,std::basic_string<wchar_t,std::char_traits<wchar_t>,std::allocator<wchar_t> > > > >::_Right
PUBLIC	?_Myval@?$_Tree_val@U?$_Tree_simple_types@U?$pair@$$CBV?$basic_string@_WU?$char_traits@_W@std@@V?$allocator@_W@2@@std@@V12@@std@@@std@@@std@@SAAAU?$pair@$$CBV?$basic_string@_WU?$char_traits@_W@std@@V?$allocator@_W@2@@std@@V12@@2@PAU?$_Tree_node@U?$pair@$$CBV?$basic_string@_WU?$char_traits@_W@std@@V?$allocator@_W@2@@std@@V12@@std@@PAX@2@@Z ; std::_Tree_val<std::_Tree_simple_types<std::pair<std::basic_string<wchar_t,std::char_traits<wchar_t>,std::allocator<wchar_t> > const ,std::basic_string<wchar_t,std::char_traits<wchar_t>,std::allocator<wchar_t> > > > >::_Myval
PUBLIC	?_Max@?$_Tree_val@U?$_Tree_simple_types@U?$pair@$$CBV?$basic_string@_WU?$char_traits@_W@std@@V?$allocator@_W@2@@std@@V12@@std@@@std@@@std@@SAPAU?$_Tree_node@U?$pair@$$CBV?$basic_string@_WU?$char_traits@_W@std@@V?$allocator@_W@2@@std@@V12@@std@@PAX@2@PAU32@@Z ; std::_Tree_val<std::_Tree_simple_types<std::pair<std::basic_string<wchar_t,std::char_traits<wchar_t>,std::allocator<wchar_t> > const ,std::basic_string<wchar_t,std::char_traits<wchar_t>,std::allocator<wchar_t> > > > >::_Max
PUBLIC	?_Min@?$_Tree_val@U?$_Tree_simple_types@U?$pair@$$CBV?$basic_string@_WU?$char_traits@_W@std@@V?$allocator@_W@2@@std@@V12@@std@@@std@@@std@@SAPAU?$_Tree_node@U?$pair@$$CBV?$basic_string@_WU?$char_traits@_W@std@@V?$allocator@_W@2@@std@@V12@@std@@PAX@2@PAU32@@Z ; std::_Tree_val<std::_Tree_simple_types<std::pair<std::basic_string<wchar_t,std::char_traits<wchar_t>,std::allocator<wchar_t> > const ,std::basic_string<wchar_t,std::char_traits<wchar_t>,std::allocator<wchar_t> > > > >::_Min
PUBLIC	?_Get_first@?$_Compressed_pair@U?$_Wrap_alloc@V?$allocator@U?$_Tree_node@U?$pair@$$CBV?$basic_string@_WU?$char_traits@_W@std@@V?$allocator@_W@2@@std@@V12@@std@@PAX@std@@@std@@@std@@V?$_Tree_val@U?$_Tree_simple_types@U?$pair@$$CBV?$basic_string@_WU?$char_traits@_W@std@@V?$allocator@_W@2@@std@@V12@@std@@@std@@@2@$00@std@@QAEAAU?$_Wrap_alloc@V?$allocator@U?$_Tree_node@U?$pair@$$CBV?$basic_string@_WU?$char_traits@_W@std@@V?$allocator@_W@2@@std@@V12@@std@@PAX@std@@@std@@@2@XZ ; std::_Compressed_pair<std::_Wrap_alloc<std::allocator<std::_Tree_node<std::pair<std::basic_string<wchar_t,std::char_traits<wchar_t>,std::allocator<wchar_t> > const ,std::basic_string<wchar_t,std::char_traits<wchar_t>,std::allocator<wchar_t> > >,void *> > >,std::_Tree_val<std::_Tree_simple_types<std::pair<std::basic_string<wchar_t,std::char_traits<wchar_t>,std::allocator<wchar_t> > const ,std::basic_string<wchar_t,std::char_traits<wchar_t>,std::allocator<wchar_t> > > > >,1>::_Get_first
PUBLIC	?_Get_first@?$_Compressed_pair@U?$_Wrap_alloc@V?$allocator@U?$_Tree_node@U?$pair@$$CBV?$basic_string@_WU?$char_traits@_W@std@@V?$allocator@_W@2@@std@@V12@@std@@PAX@std@@@std@@@std@@V?$_Tree_val@U?$_Tree_simple_types@U?$pair@$$CBV?$basic_string@_WU?$char_traits@_W@std@@V?$allocator@_W@2@@std@@V12@@std@@@std@@@2@$00@std@@QBEABU?$_Wrap_alloc@V?$allocator@U?$_Tree_node@U?$pair@$$CBV?$basic_string@_WU?$char_traits@_W@std@@V?$allocator@_W@2@@std@@V12@@std@@PAX@std@@@std@@@2@XZ ; std::_Compressed_pair<std::_Wrap_alloc<std::allocator<std::_Tree_node<std::pair<std::basic_string<wchar_t,std::char_traits<wchar_t>,std::allocator<wchar_t> > const ,std::basic_string<wchar_t,std::char_traits<wchar_t>,std::allocator<wchar_t> > >,void *> > >,std::_Tree_val<std::_Tree_simple_types<std::pair<std::basic_string<wchar_t,std::char_traits<wchar_t>,std::allocator<wchar_t> > const ,std::basic_string<wchar_t,std::char_traits<wchar_t>,std::allocator<wchar_t> > > > >,1>::_Get_first
