; Listing generated by Microsoft (R) Optimizing Compiler Version 19.10.25019.0 

	TITLE	C:\Users\andon\Source\Repos\SpecialK\src\vulkan.cpp
	.686P
	.XMM
	include listing.inc
	.model	flat

INCLUDELIB MSVCRT
INCLUDELIB OLDNAMES

PUBLIC	?hModVk@Vulkan@SK@@3PAUHINSTANCE__@@A		; SK::Vulkan::hModVk
PUBLIC	?funcs@Vulkan@SK@@3Uvk_funcs_s@12@A		; SK::Vulkan::funcs
PUBLIC	?__vk_ready@@3JC				; __vk_ready
_BSS	SEGMENT
?hModVk@Vulkan@SK@@3PAUHINSTANCE__@@A DD 01H DUP (?)	; SK::Vulkan::hModVk
?funcs@Vulkan@SK@@3Uvk_funcs_s@12@A DB 014H DUP (?)	; SK::Vulkan::funcs
?__vk_ready@@3JC DD 01H DUP (?)				; __vk_ready
_BSS	ENDS
CONST	SEGMENT
$SG120646 DB	'V', 00H, 'K', 00H, '_', 00H, 'S', 00H, 'U', 00H, 'C', 00H
	DB	'C', 00H, 'E', 00H, 'S', 00H, 'S', 00H, 00H, 00H
	ORG $+2
$SG120648 DB	'V', 00H, 'K', 00H, '_', 00H, 'N', 00H, 'O', 00H, 'T', 00H
	DB	'_', 00H, 'R', 00H, 'E', 00H, 'A', 00H, 'D', 00H, 'Y', 00H, 00H
	DB	00H
	ORG $+2
$SG120650 DB	'V', 00H, 'K', 00H, '_', 00H, 'T', 00H, 'I', 00H, 'M', 00H
	DB	'E', 00H, 'O', 00H, 'U', 00H, 'T', 00H, 00H, 00H
	ORG $+2
$SG120652 DB	'V', 00H, 'K', 00H, '_', 00H, 'E', 00H, 'V', 00H, 'E', 00H
	DB	'N', 00H, 'T', 00H, '_', 00H, 'S', 00H, 'E', 00H, 'T', 00H, 00H
	DB	00H
	ORG $+2
$SG120654 DB	'V', 00H, 'K', 00H, '_', 00H, 'E', 00H, 'V', 00H, 'E', 00H
	DB	'N', 00H, 'T', 00H, '_', 00H, 'R', 00H, 'E', 00H, 'S', 00H, 'E'
	DB	00H, 'T', 00H, 00H, 00H
	ORG $+2
$SG120656 DB	'V', 00H, 'K', 00H, '_', 00H, 'I', 00H, 'N', 00H, 'C', 00H
	DB	'O', 00H, 'M', 00H, 'P', 00H, 'L', 00H, 'E', 00H, 'T', 00H, 'E'
	DB	00H, 00H, 00H
$SG120658 DB	'V', 00H, 'K', 00H, '_', 00H, 'E', 00H, 'R', 00H, 'R', 00H
	DB	'O', 00H, 'R', 00H, '_', 00H, 'O', 00H, 'U', 00H, 'T', 00H, '_'
	DB	00H, 'O', 00H, 'F', 00H, '_', 00H, 'H', 00H, 'O', 00H, 'S', 00H
	DB	'T', 00H, '_', 00H, 'M', 00H, 'E', 00H, 'M', 00H, 'O', 00H, 'R'
	DB	00H, 'Y', 00H, 00H, 00H
$SG120660 DB	'V', 00H, 'K', 00H, '_', 00H, 'E', 00H, 'R', 00H, 'R', 00H
	DB	'O', 00H, 'R', 00H, '_', 00H, 'O', 00H, 'U', 00H, 'T', 00H, '_'
	DB	00H, 'O', 00H, 'F', 00H, '_', 00H, 'D', 00H, 'E', 00H, 'V', 00H
	DB	'I', 00H, 'C', 00H, 'E', 00H, '_', 00H, 'M', 00H, 'E', 00H, 'M'
	DB	00H, 'O', 00H, 'R', 00H, 'Y', 00H, 00H, 00H
$SG120662 DB	'V', 00H, 'K', 00H, '_', 00H, 'E', 00H, 'R', 00H, 'R', 00H
	DB	'O', 00H, 'R', 00H, '_', 00H, 'I', 00H, 'N', 00H, 'I', 00H, 'T'
	DB	00H, 'I', 00H, 'A', 00H, 'L', 00H, 'I', 00H, 'Z', 00H, 'A', 00H
	DB	'T', 00H, 'I', 00H, 'O', 00H, 'N', 00H, '_', 00H, 'F', 00H, 'A'
	DB	00H, 'I', 00H, 'L', 00H, 'E', 00H, 'D', 00H, 00H, 00H
	ORG $+2
$SG120664 DB	'V', 00H, 'K', 00H, '_', 00H, 'E', 00H, 'R', 00H, 'R', 00H
	DB	'O', 00H, 'R', 00H, '_', 00H, 'D', 00H, 'E', 00H, 'V', 00H, 'I'
	DB	00H, 'C', 00H, 'E', 00H, '_', 00H, 'L', 00H, 'O', 00H, 'S', 00H
	DB	'T', 00H, 00H, 00H
	ORG $+2
$SG120666 DB	'V', 00H, 'K', 00H, '_', 00H, 'E', 00H, 'R', 00H, 'R', 00H
	DB	'O', 00H, 'R', 00H, '_', 00H, 'M', 00H, 'E', 00H, 'M', 00H, 'O'
	DB	00H, 'R', 00H, 'Y', 00H, '_', 00H, 'M', 00H, 'A', 00H, 'P', 00H
	DB	'_', 00H, 'F', 00H, 'A', 00H, 'I', 00H, 'L', 00H, 'E', 00H, 'D'
	DB	00H, 00H, 00H
	ORG $+2
$SG120668 DB	'V', 00H, 'K', 00H, '_', 00H, 'E', 00H, 'R', 00H, 'R', 00H
	DB	'O', 00H, 'R', 00H, '_', 00H, 'L', 00H, 'A', 00H, 'Y', 00H, 'E'
	DB	00H, 'R', 00H, '_', 00H, 'N', 00H, 'O', 00H, 'T', 00H, '_', 00H
	DB	'P', 00H, 'R', 00H, 'E', 00H, 'S', 00H, 'E', 00H, 'N', 00H, 'T'
	DB	00H, 00H, 00H
	ORG $+2
$SG120670 DB	'V', 00H, 'K', 00H, '_', 00H, 'E', 00H, 'R', 00H, 'R', 00H
	DB	'O', 00H, 'R', 00H, '_', 00H, 'E', 00H, 'X', 00H, 'T', 00H, 'E'
	DB	00H, 'N', 00H, 'S', 00H, 'I', 00H, 'O', 00H, 'N', 00H, '_', 00H
	DB	'N', 00H, 'O', 00H, 'T', 00H, '_', 00H, 'P', 00H, 'R', 00H, 'E'
	DB	00H, 'S', 00H, 'E', 00H, 'N', 00H, 'T', 00H, 00H, 00H
	ORG $+2
$SG120672 DB	'V', 00H, 'K', 00H, '_', 00H, 'E', 00H, 'R', 00H, 'R', 00H
	DB	'O', 00H, 'R', 00H, '_', 00H, 'F', 00H, 'E', 00H, 'A', 00H, 'T'
	DB	00H, 'U', 00H, 'R', 00H, 'E', 00H, '_', 00H, 'N', 00H, 'O', 00H
	DB	'T', 00H, '_', 00H, 'P', 00H, 'R', 00H, 'E', 00H, 'S', 00H, 'E'
	DB	00H, 'N', 00H, 'T', 00H, 00H, 00H
	ORG $+2
$SG120674 DB	'V', 00H, 'K', 00H, '_', 00H, 'E', 00H, 'R', 00H, 'R', 00H
	DB	'O', 00H, 'R', 00H, '_', 00H, 'I', 00H, 'N', 00H, 'C', 00H, 'O'
	DB	00H, 'M', 00H, 'P', 00H, 'A', 00H, 'T', 00H, 'I', 00H, 'B', 00H
	DB	'L', 00H, 'E', 00H, '_', 00H, 'D', 00H, 'R', 00H, 'I', 00H, 'V'
	DB	00H, 'E', 00H, 'R', 00H, 00H, 00H
	ORG $+2
$SG120676 DB	'V', 00H, 'K', 00H, '_', 00H, 'E', 00H, 'R', 00H, 'R', 00H
	DB	'O', 00H, 'R', 00H, '_', 00H, 'T', 00H, 'O', 00H, 'O', 00H, '_'
	DB	00H, 'M', 00H, 'A', 00H, 'N', 00H, 'Y', 00H, '_', 00H, 'O', 00H
	DB	'B', 00H, 'J', 00H, 'E', 00H, 'C', 00H, 'T', 00H, 'S', 00H, 00H
	DB	00H
$SG120678 DB	'V', 00H, 'K', 00H, '_', 00H, 'E', 00H, 'R', 00H, 'R', 00H
	DB	'O', 00H, 'R', 00H, '_', 00H, 'F', 00H, 'O', 00H, 'R', 00H, 'M'
	DB	00H, 'A', 00H, 'T', 00H, '_', 00H, 'N', 00H, 'O', 00H, 'T', 00H
	DB	'_', 00H, 'S', 00H, 'U', 00H, 'P', 00H, 'P', 00H, 'O', 00H, 'R'
	DB	00H, 'T', 00H, 'E', 00H, 'D', 00H, 00H, 00H
$SG120680 DB	'V', 00H, 'K', 00H, '_', 00H, 'E', 00H, 'R', 00H, 'R', 00H
	DB	'O', 00H, 'R', 00H, '_', 00H, 'F', 00H, 'R', 00H, 'A', 00H, 'G'
	DB	00H, 'M', 00H, 'E', 00H, 'N', 00H, 'T', 00H, 'E', 00H, 'D', 00H
	DB	'_', 00H, 'P', 00H, 'O', 00H, 'O', 00H, 'L', 00H, 00H, 00H
	ORG $+2
$SG120682 DB	'V', 00H, 'K', 00H, '_', 00H, 'E', 00H, 'R', 00H, 'R', 00H
	DB	'O', 00H, 'R', 00H, '_', 00H, 'S', 00H, 'U', 00H, 'R', 00H, 'F'
	DB	00H, 'A', 00H, 'C', 00H, 'E', 00H, '_', 00H, 'L', 00H, 'O', 00H
	DB	'S', 00H, 'T', 00H, '_', 00H, 'K', 00H, 'H', 00H, 'R', 00H, 00H
	DB	00H
	ORG $+4
$SG120684 DB	'V', 00H, 'K', 00H, '_', 00H, 'E', 00H, 'R', 00H, 'R', 00H
	DB	'O', 00H, 'R', 00H, '_', 00H, 'N', 00H, 'A', 00H, 'T', 00H, 'I'
	DB	00H, 'V', 00H, 'E', 00H, '_', 00H, 'W', 00H, 'I', 00H, 'N', 00H
	DB	'D', 00H, 'O', 00H, 'W', 00H, '_', 00H, 'I', 00H, 'N', 00H, '_'
	DB	00H, 'U', 00H, 'S', 00H, 'E', 00H, '_', 00H, 'K', 00H, 'H', 00H
	DB	'R', 00H, 00H, 00H
$SG120686 DB	'V', 00H, 'K', 00H, '_', 00H, 'S', 00H, 'U', 00H, 'B', 00H
	DB	'O', 00H, 'P', 00H, 'T', 00H, 'I', 00H, 'M', 00H, 'A', 00H, 'L'
	DB	00H, '_', 00H, 'K', 00H, 'H', 00H, 'R', 00H, 00H, 00H
$SG120688 DB	'V', 00H, 'K', 00H, '_', 00H, 'E', 00H, 'R', 00H, 'R', 00H
	DB	'O', 00H, 'R', 00H, '_', 00H, 'O', 00H, 'U', 00H, 'T', 00H, '_'
	DB	00H, 'O', 00H, 'F', 00H, '_', 00H, 'D', 00H, 'A', 00H, 'T', 00H
	DB	'E', 00H, '_', 00H, 'K', 00H, 'H', 00H, 'R', 00H, 00H, 00H
	ORG $+6
$SG120690 DB	'V', 00H, 'K', 00H, '_', 00H, 'E', 00H, 'R', 00H, 'R', 00H
	DB	'O', 00H, 'R', 00H, '_', 00H, 'I', 00H, 'N', 00H, 'C', 00H, 'O'
	DB	00H, 'M', 00H, 'P', 00H, 'A', 00H, 'T', 00H, 'I', 00H, 'B', 00H
	DB	'L', 00H, 'E', 00H, '_', 00H, 'D', 00H, 'I', 00H, 'S', 00H, 'P'
	DB	00H, 'L', 00H, 'A', 00H, 'Y', 00H, '_', 00H, 'K', 00H, 'H', 00H
	DB	'R', 00H, 00H, 00H
$SG120692 DB	'V', 00H, 'K', 00H, '_', 00H, 'E', 00H, 'R', 00H, 'R', 00H
	DB	'O', 00H, 'R', 00H, '_', 00H, 'V', 00H, 'A', 00H, 'L', 00H, 'I'
	DB	00H, 'D', 00H, 'A', 00H, 'T', 00H, 'I', 00H, 'O', 00H, 'N', 00H
	DB	'_', 00H, 'F', 00H, 'A', 00H, 'I', 00H, 'L', 00H, 'E', 00H, 'D'
	DB	00H, '_', 00H, 'E', 00H, 'X', 00H, 'T', 00H, 00H, 00H
	ORG $+2
$SG120694 DB	'V', 00H, 'K', 00H, '_', 00H, 'E', 00H, 'R', 00H, 'R', 00H
	DB	'O', 00H, 'R', 00H, '_', 00H, 'I', 00H, 'N', 00H, 'V', 00H, 'A'
	DB	00H, 'L', 00H, 'I', 00H, 'D', 00H, '_', 00H, 'S', 00H, 'H', 00H
	DB	'A', 00H, 'D', 00H, 'E', 00H, 'R', 00H, '_', 00H, 'N', 00H, 'V'
	DB	00H, 00H, 00H
	ORG $+6
$SG120696 DB	' ', 00H, '*', 00H, '*', 00H, '*', 00H, ' ', 00H, 'E', 00H
	DB	'n', 00H, 'c', 00H, 'o', 00H, 'u', 00H, 'n', 00H, 't', 00H, 'e'
	DB	00H, 'r', 00H, 'e', 00H, 'd', 00H, ' ', 00H, 'u', 00H, 'n', 00H
	DB	'k', 00H, 'n', 00H, 'o', 00H, 'w', 00H, 'n', 00H, ' ', 00H, 'V'
	DB	00H, 'k', 00H, 'R', 00H, 'e', 00H, 's', 00H, 'u', 00H, 'l', 00H
	DB	't', 00H, ':', 00H, ' ', 00H, '(', 00H, '0', 00H, 'x', 00H, '%'
	DB	00H, '0', 00H, '8', 00H, 'X', 00H, ')', 00H, 00H, 00H
$SG120697 DB	'U', 00H, 'N', 00H, 'K', 00H, 'N', 00H, 'O', 00H, 'W', 00H
	DB	'N', 00H, 00H, 00H
$SG120712 DB	' ', 00H, '[', 00H, '!', 00H, ']', 00H, ' ', 00H, 'v', 00H
	DB	'k', 00H, 'C', 00H, 'r', 00H, 'e', 00H, 'a', 00H, 't', 00H, 'e'
	DB	00H, 'W', 00H, 'i', 00H, 'n', 00H, '3', 00H, '2', 00H, 'S', 00H
	DB	'u', 00H, 'r', 00H, 'f', 00H, 'a', 00H, 'c', 00H, 'e', 00H, 'K'
	DB	00H, 'H', 00H, 'R', 00H, 00H, 00H
	ORG $+2
$SG120713 DB	'[', 00H, ' ', 00H, ' ', 00H, 'V', 00H, 'u', 00H, 'l', 00H
	DB	'k', 00H, 'a', 00H, 'n', 00H, ' ', 00H, ' ', 00H, ']', 00H, ' '
	DB	00H, '[', 00H, '!', 00H, ']', 00H, ' ', 00H, '%', 00H, 's', 00H
	DB	' ', 00H, '(', 00H, 00H, 00H
$SG120714 DB	'H', 00H, 'W', 00H, 'N', 00H, 'D', 00H, '=', 00H, '%', 00H
	DB	'p', 00H, 00H, 00H
$SG120715 DB	')', 00H, ' ', 00H, '-', 00H, '-', 00H, ' ', 00H, '[', 00H
	DB	'%', 00H, 's', 00H, ',', 00H, ' ', 00H, 't', 00H, 'i', 00H, 'd'
	DB	00H, '=', 00H, '0', 00H, 'x', 00H, '%', 00H, '0', 00H, '4', 00H
	DB	'x', 00H, ']', 00H, 0aH, 00H, 00H, 00H
	ORG $+2
$SG120718 DB	'[', 00H, ' ', 00H, ' ', 00H, 'V', 00H, 'u', 00H, 'l', 00H
	DB	'k', 00H, 'a', 00H, 'n', 00H, ' ', 00H, ' ', 00H, ']', 00H, ' '
	DB	00H, '[', 00H, '@', 00H, ']', 00H, ' ', 00H, ' ', 00H, 'R', 00H
	DB	'e', 00H, 't', 00H, 'u', 00H, 'r', 00H, 'n', 00H, ':', 00H, ' '
	DB	00H, '%', 00H, 's', 00H, ' ', 00H, ' ', 00H, '-', 00H, ' ', 00H
	DB	' ', 00H, '<', 00H, ' ', 00H, 'S', 00H, 'K', 00H, ':', 00H, ':'
	DB	00H, 'V', 00H, 'u', 00H, 'l', 00H, 'k', 00H, 'a', 00H, 'n', 00H
	DB	':', 00H, ':', 00H, 'f', 00H, 'u', 00H, 'n', 00H, 'c', 00H, 's'
	DB	00H, '.', 00H, 'v', 00H, 'k', 00H, 'C', 00H, 'r', 00H, 'e', 00H
	DB	'a', 00H, 't', 00H, 'e', 00H, 'W', 00H, 'i', 00H, 'n', 00H, '3'
	DB	00H, '2', 00H, 'S', 00H, 'u', 00H, 'r', 00H, 'f', 00H, 'a', 00H
	DB	'c', 00H, 'e', 00H, 'K', 00H, 'H', 00H, 'R', 00H, ' ', 00H, '('
	DB	00H, ' ', 00H, 'i', 00H, 'n', 00H, 's', 00H, 't', 00H, 'a', 00H
	DB	'n', 00H, 'c', 00H, 'e', 00H, ',', 00H, ' ', 00H, 'p', 00H, 'C'
	DB	00H, 'r', 00H, 'e', 00H, 'a', 00H, 't', 00H, 'e', 00H, 'I', 00H
	DB	'n', 00H, 'f', 00H, 'o', 00H, ',', 00H, ' ', 00H, 'p', 00H, 'A'
	DB	00H, 'l', 00H, 'l', 00H, 'o', 00H, 'c', 00H, 'a', 00H, 't', 00H
	DB	'o', 00H, 'r', 00H, ',', 00H, ' ', 00H, 'p', 00H, 'S', 00H, 'u'
	DB	00H, 'r', 00H, 'f', 00H, 'a', 00H, 'c', 00H, 'e', 00H, ' ', 00H
	DB	')', 00H, ' ', 00H, '>', 00H, 00H, 00H
	ORG $+2
$SG120727 DB	' ', 00H, '[', 00H, '!', 00H, ']', 00H, ' ', 00H, 'v', 00H
	DB	'k', 00H, 'C', 00H, 'r', 00H, 'e', 00H, 'a', 00H, 't', 00H, 'e'
	DB	00H, 'S', 00H, 'w', 00H, 'a', 00H, 'p', 00H, 'c', 00H, 'h', 00H
	DB	'a', 00H, 'i', 00H, 'n', 00H, 'K', 00H, 'H', 00H, 'R', 00H, 00H
	DB	00H
$SG120728 DB	'[', 00H, ' ', 00H, ' ', 00H, 'V', 00H, 'u', 00H, 'l', 00H
	DB	'k', 00H, 'a', 00H, 'n', 00H, ' ', 00H, ' ', 00H, ']', 00H, ' '
	DB	00H, '[', 00H, '!', 00H, ']', 00H, ' ', 00H, '%', 00H, 's', 00H
	DB	' ', 00H, '(', 00H, 00H, 00H
$SG120729 DB	'.', 00H, '.', 00H, '.', 00H, 00H, 00H
$SG120730 DB	')', 00H, ' ', 00H, '-', 00H, '-', 00H, ' ', 00H, '[', 00H
	DB	'%', 00H, 's', 00H, ',', 00H, ' ', 00H, 't', 00H, 'i', 00H, 'd'
	DB	00H, '=', 00H, '0', 00H, 'x', 00H, '%', 00H, '0', 00H, '4', 00H
	DB	'x', 00H, ']', 00H, 0aH, 00H, 00H, 00H
	ORG $+2
$SG120731 DB	'[', 00H, ' ', 00H, ' ', 00H, 'V', 00H, 'u', 00H, 'l', 00H
	DB	'k', 00H, 'a', 00H, 'n', 00H, ' ', 00H, ' ', 00H, ']', 00H, ' '
	DB	00H, '[', 00H, '@', 00H, ']', 00H, ' ', 00H, ' ', 00H, 'R', 00H
	DB	'e', 00H, 't', 00H, 'u', 00H, 'r', 00H, 'n', 00H, ':', 00H, ' '
	DB	00H, '%', 00H, 's', 00H, ' ', 00H, ' ', 00H, '-', 00H, ' ', 00H
	DB	' ', 00H, '<', 00H, ' ', 00H, 'S', 00H, 'K', 00H, ':', 00H, ':'
	DB	00H, 'V', 00H, 'u', 00H, 'l', 00H, 'k', 00H, 'a', 00H, 'n', 00H
	DB	':', 00H, ':', 00H, 'f', 00H, 'u', 00H, 'n', 00H, 'c', 00H, 's'
	DB	00H, '.', 00H, 'v', 00H, 'k', 00H, 'C', 00H, 'r', 00H, 'e', 00H
	DB	'a', 00H, 't', 00H, 'e', 00H, 'S', 00H, 'w', 00H, 'a', 00H, 'p'
	DB	00H, 'c', 00H, 'h', 00H, 'a', 00H, 'i', 00H, 'n', 00H, 'K', 00H
	DB	'H', 00H, 'R', 00H, ' ', 00H, '(', 00H, ' ', 00H, 'd', 00H, 'e'
	DB	00H, 'v', 00H, 'i', 00H, 'c', 00H, 'e', 00H, ',', 00H, ' ', 00H
	DB	'p', 00H, 'C', 00H, 'r', 00H, 'e', 00H, 'a', 00H, 't', 00H, 'e'
	DB	00H, 'I', 00H, 'n', 00H, 'f', 00H, 'o', 00H, ',', 00H, ' ', 00H
	DB	'p', 00H, 'A', 00H, 'l', 00H, 'l', 00H, 'o', 00H, 'c', 00H, 'a'
	DB	00H, 't', 00H, 'o', 00H, 'r', 00H, ',', 00H, ' ', 00H, 'p', 00H
	DB	'S', 00H, 'w', 00H, 'a', 00H, 'p', 00H, 'c', 00H, 'h', 00H, 'a'
	DB	00H, 'i', 00H, 'n', 00H, ' ', 00H, ')', 00H, ' ', 00H, '>', 00H
	DB	00H, 00H
$SG120761 DB	'V', 00H, 'u', 00H, 'l', 00H, 'k', 00H, 'a', 00H, 'n', 00H
	DB	00H, 00H
	ORG $+2
$SG120766 DB	'V', 00H, 'u', 00H, 'l', 00H, 'k', 00H, 'a', 00H, 'n', 00H
	DB	00H, 00H
CONST	ENDS
PUBLIC	??_H@YGXPAXIIP6EPAX0@Z@Z			; `vector constructor iterator'
PUBLIC	_ReadAcquire
PUBLIC	?Startup@Vulkan@SK@@YA_NXZ			; SK::Vulkan::Startup
PUBLIC	?Shutdown@Vulkan@SK@@YA_NXZ			; SK::Vulkan::Shutdown
PUBLIC	?SK_UsingVulkan@@YAHXZ				; SK_UsingVulkan
PUBLIC	?assign@?$char_traits@_W@std@@SAXAA_WAB_W@Z	; std::char_traits<wchar_t>::assign
PUBLIC	?_Orphan_all@_Container_base0@std@@QAEXXZ	; std::_Container_base0::_Orphan_all
PUBLIC	?_Deallocate@std@@YAXPAXII@Z			; std::_Deallocate
PUBLIC	?deallocate@?$allocator@_W@std@@QAEXPA_WI@Z	; std::allocator<wchar_t>::deallocate
PUBLIC	?deallocate@?$_Wrap_alloc@V?$allocator@_W@std@@@std@@QAEXPA_WI@Z ; std::_Wrap_alloc<std::allocator<wchar_t> >::deallocate
PUBLIC	?_Myptr@?$_String_val@U?$_Simple_types@_W@std@@@std@@QBEPB_WXZ ; std::_String_val<std::_Simple_types<wchar_t> >::_Myptr
PUBLIC	?_Large_string_engaged@?$_String_val@U?$_Simple_types@_W@std@@@std@@QBE_NXZ ; std::_String_val<std::_Simple_types<wchar_t> >::_Large_string_engaged
PUBLIC	??1_Bxty@?$_String_val@U?$_Simple_types@_W@std@@@std@@QAE@XZ ; std::_String_val<std::_Simple_types<wchar_t> >::_Bxty::~_Bxty
PUBLIC	??1?$_String_val@U?$_Simple_types@_W@std@@@std@@QAE@XZ ; std::_String_val<std::_Simple_types<wchar_t> >::~_String_val<std::_Simple_types<wchar_t> >
PUBLIC	?_Myptr@?$_String_alloc@U?$_String_base_types@_WV?$allocator@_W@std@@@std@@@std@@QBEPB_WXZ ; std::_String_alloc<std::_String_base_types<wchar_t,std::allocator<wchar_t> > >::_Myptr
PUBLIC	?_Orphan_all@?$_String_alloc@U?$_String_base_types@_WV?$allocator@_W@std@@@std@@@std@@QAEXXZ ; std::_String_alloc<std::_String_base_types<wchar_t,std::allocator<wchar_t> > >::_Orphan_all
PUBLIC	?_Getal@?$_String_alloc@U?$_String_base_types@_WV?$allocator@_W@std@@@std@@@std@@QAEAAU?$_Wrap_alloc@V?$allocator@_W@std@@@2@XZ ; std::_String_alloc<std::_String_base_types<wchar_t,std::allocator<wchar_t> > >::_Getal
PUBLIC	?_Get_data@?$_String_alloc@U?$_String_base_types@_WV?$allocator@_W@std@@@std@@@std@@QAEAAV?$_String_val@U?$_Simple_types@_W@std@@@2@XZ ; std::_String_alloc<std::_String_base_types<wchar_t,std::allocator<wchar_t> > >::_Get_data
PUBLIC	?_Get_data@?$_String_alloc@U?$_String_base_types@_WV?$allocator@_W@std@@@std@@@std@@QBEABV?$_String_val@U?$_Simple_types@_W@std@@@2@XZ ; std::_String_alloc<std::_String_base_types<wchar_t,std::allocator<wchar_t> > >::_Get_data
PUBLIC	?_Get_first@?$_Compressed_pair@U?$_Wrap_alloc@V?$allocator@_W@std@@@std@@V?$_String_val@U?$_Simple_types@_W@std@@@2@$00@std@@QAEAAU?$_Wrap_alloc@V?$allocator@_W@std@@@2@XZ ; std::_Compressed_pair<std::_Wrap_alloc<std::allocator<wchar_t> >,std::_String_val<std::_Simple_types<wchar_t> >,1>::_Get_first
PUBLIC	?_Get_second@?$_Compressed_pair@U?$_Wrap_alloc@V?$allocator@_W@std@@@std@@V?$_String_val@U?$_Simple_types@_W@std@@@2@$00@std@@QAEAAV?$_String_val@U?$_Simple_types@_W@std@@@2@XZ ; std::_Compressed_pair<std::_Wrap_alloc<std::allocator<wchar_t> >,std::_String_val<std::_Simple_types<wchar_t> >,1>::_Get_second
PUBLIC	?_Get_second@?$_Compressed_pair@U?$_Wrap_alloc@V?$allocator@_W@std@@@std@@V?$_String_val@U?$_Simple_types@_W@std@@@2@$00@std@@QBEABV?$_String_val@U?$_Simple_types@_W@std@@@2@XZ ; std::_Compressed_pair<std::_Wrap_alloc<std::allocator<wchar_t> >,std::_String_val<std::_Simple_types<wchar_t> >,1>::_Get_second
PUBLIC	??1?$_Compressed_pair@U?$_Wrap_alloc@V?$allocator@_W@std@@@std@@V?$_String_val@U?$_Simple_types@_W@std@@@2@$00@std@@QAE@XZ ; std::_Compressed_pair<std::_Wrap_alloc<std::allocator<wchar_t> >,std::_String_val<std::_Simple_types<wchar_t> >,1>::~_Compressed_pair<std::_Wrap_alloc<std::allocator<wchar_t> >,std::_String_val<std::_Simple_types<wchar_t> >,1>
PUBLIC	??1?$_String_alloc@U?$_String_base_types@_WV?$allocator@_W@std@@@std@@@std@@QAE@XZ ; std::_String_alloc<std::_String_base_types<wchar_t,std::allocator<wchar_t> > >::~_String_alloc<std::_String_base_types<wchar_t,std::allocator<wchar_t> > >
PUBLIC	??1?$basic_string@_WU?$char_traits@_W@std@@V?$allocator@_W@2@@std@@QAE@XZ ; std::basic_string<wchar_t,std::char_traits<wchar_t>,std::allocator<wchar_t> >::~basic_string<wchar_t,std::char_traits<wchar_t>,std::allocator<wchar_t> >
PUBLIC	?c_str@?$basic_string@_WU?$char_traits@_W@std@@V?$allocator@_W@2@@std@@QBEPB_WXZ ; std::basic_string<wchar_t,std::char_traits<wchar_t>,std::allocator<wchar_t> >::c_str
PUBLIC	?_Tidy_deallocate@?$basic_string@_WU?$char_traits@_W@std@@V?$allocator@_W@2@@std@@QAEXXZ ; std::basic_string<wchar_t,std::char_traits<wchar_t>,std::allocator<wchar_t> >::_Tidy_deallocate
PUBLIC	?WaitForInit_Vk@@YAXXZ				; WaitForInit_Vk
PUBLIC	?SK_DescribeVkResult@@YGPB_WW4VkResult@@@Z	; SK_DescribeVkResult
PUBLIC	?vkCreateWin32SurfaceKHR_Detour@@YG?AW4VkResult@@PAUVkInstance_T@@PBUVkWin32SurfaceCreateInfoKHR@@PBUVkAllocationCallbacks@@PA_K@Z ; vkCreateWin32SurfaceKHR_Detour
PUBLIC	?vkCreateSwapchainKHR_Detour@@YG?AW4VkResult@@PAUVkDevice_T@@PBUVkSwapchainCreateInfoKHR@@PBUVkAllocationCallbacks@@PA_K@Z ; vkCreateSwapchainKHR_Detour
PUBLIC	?vkQueuePresentKHR_Detour@@YG?AW4VkResult@@PAUVkQueue_T@@PBUVkPresentInfoKHR@@@Z ; vkQueuePresentKHR_Detour
PUBLIC	?vkAcquireNextImageKHR_Detour@@YG?AW4VkResult@@PAUVkDevice_T@@_K111PAI@Z ; vkAcquireNextImageKHR_Detour
PUBLIC	?vulkan_init_callback@@YGXP6GXXZ@Z		; vulkan_init_callback
PUBLIC	?SK_HookVulkan@@YGXXZ				; SK_HookVulkan
PUBLIC	??$addressof@PA_W@std@@YAPAPA_WAAPA_W@Z		; std::addressof<wchar_t *>
PUBLIC	??$destroy@PA_W@?$_Wrap_alloc@V?$allocator@_W@std@@@std@@QAEXPAPA_W@Z ; std::_Wrap_alloc<std::allocator<wchar_t> >::destroy<wchar_t *>
PUBLIC	??$_Unfancy@_W@std@@YAPA_WPA_W@Z		; std::_Unfancy<wchar_t>
PUBLIC	??$destroy@PA_W@?$allocator_traits@V?$allocator@_W@std@@@std@@SAXAAV?$allocator@_W@1@PAPA_W@Z ; std::allocator_traits<std::allocator<wchar_t> >::destroy<wchar_t *>
PUBLIC	??$destroy@PA_W@?$allocator@_W@std@@QAEXPAPA_W@Z ; std::allocator<wchar_t>::destroy<wchar_t *>
EXTRN	??3@YAXPAX@Z:PROC				; operator delete
EXTRN	__imp___invalid_parameter_noinfo_noreturn:PROC
EXTRN	__imp__GetCurrentThreadId@0:PROC
EXTRN	__imp__FreeLibrary@4:PROC
EXTRN	__imp__IsWindow@4:PROC
EXTRN	__imp__MsgWaitForMultipleObjectsEx@20:PROC
EXTRN	__imp__GetForegroundWindow@0:PROC
EXTRN	?LogEx@iSK_Logger@@UAAX_NQB_WZZ:PROC		; iSK_Logger::LogEx
EXTRN	?Log@iSK_Logger@@UAAXQB_WZZ:PROC		; iSK_Logger::Log
EXTRN	?SK_GetCallerName@@YA?AV?$basic_string@_WU?$char_traits@_W@std@@V?$allocator@_W@2@@std@@PAX@Z:PROC ; SK_GetCallerName
EXTRN	?SK_StartupCore@@YG_NPB_WPAX@Z:PROC		; SK_StartupCore
EXTRN	?SK_ShutdownCore@@YG_NPB_W@Z:PROC		; SK_ShutdownCore
EXTRN	?SK_BeginBufferSwap@@YGXXZ:PROC			; SK_BeginBufferSwap
EXTRN	?SK_EndBufferSwap@@YGJJPAUIUnknown@@@Z:PROC	; SK_EndBufferSwap
EXTRN	?SK_BootVulkan@@YAXXZ:PROC			; SK_BootVulkan
EXTRN	?dll_log@@3UiSK_Logger@@A:BYTE			; dll_log
EXTRN	?config@@3Usk_config_t@@A:BYTE			; config
EXTRN	?hWndRender@@3PAUHWND__@@A:DWORD		; hWndRender
; Function compile flags: /Ogtp
; File c:\program files (x86)\microsoft visual studio\2017\community\vc\tools\msvc\14.10.25017\include\xmemory0
;	COMDAT ??$destroy@PA_W@?$allocator@_W@std@@QAEXPAPA_W@Z
_TEXT	SEGMENT
__Ptr$ = 8						; size = 4
??$destroy@PA_W@?$allocator@_W@std@@QAEXPAPA_W@Z PROC	; std::allocator<wchar_t>::destroy<wchar_t *>, COMDAT
; _this$ = ecx

; 846  : 		_Ptr->~_Uty();
; 847  : 		}

	ret	4
??$destroy@PA_W@?$allocator@_W@std@@QAEXPAPA_W@Z ENDP	; std::allocator<wchar_t>::destroy<wchar_t *>
_TEXT	ENDS
; Function compile flags: /Ogtp
; File c:\program files (x86)\microsoft visual studio\2017\community\vc\tools\msvc\14.10.25017\include\xmemory0
;	COMDAT ??$destroy@PA_W@?$allocator_traits@V?$allocator@_W@std@@@std@@SAXAAV?$allocator@_W@1@PAPA_W@Z
_TEXT	SEGMENT
__Al$ = 8						; size = 4
__Ptr$ = 12						; size = 4
??$destroy@PA_W@?$allocator_traits@V?$allocator@_W@std@@@std@@SAXAAV?$allocator@_W@1@PAPA_W@Z PROC ; std::allocator_traits<std::allocator<wchar_t> >::destroy<wchar_t *>, COMDAT

; 965  : 		_Al.destroy(_Ptr);
; 966  : 		}

	ret	0
??$destroy@PA_W@?$allocator_traits@V?$allocator@_W@std@@@std@@SAXAAV?$allocator@_W@1@PAPA_W@Z ENDP ; std::allocator_traits<std::allocator<wchar_t> >::destroy<wchar_t *>
_TEXT	ENDS
; Function compile flags: /Ogtp
; File c:\program files (x86)\microsoft visual studio\2017\community\vc\tools\msvc\14.10.25017\include\xstddef
;	COMDAT ??$_Unfancy@_W@std@@YAPA_WPA_W@Z
_TEXT	SEGMENT
__Ptr$ = 8						; size = 4
??$_Unfancy@_W@std@@YAPA_WPA_W@Z PROC			; std::_Unfancy<wchar_t>, COMDAT

; 642  : 	{	// do nothing for plain pointers

	npad	2
	push	ebp
	mov	ebp, esp

; 643  : 	return (_Ptr);

	mov	eax, DWORD PTR __Ptr$[ebp]

; 644  : 	}

	pop	ebp
	ret	0
??$_Unfancy@_W@std@@YAPA_WPA_W@Z ENDP			; std::_Unfancy<wchar_t>
_TEXT	ENDS
; Function compile flags: /Ogtp
; File c:\program files (x86)\microsoft visual studio\2017\community\vc\tools\msvc\14.10.25017\include\xmemory0
;	COMDAT ??$destroy@PA_W@?$_Wrap_alloc@V?$allocator@_W@std@@@std@@QAEXPAPA_W@Z
_TEXT	SEGMENT
__Ptr$ = 8						; size = 4
??$destroy@PA_W@?$_Wrap_alloc@V?$allocator@_W@std@@@std@@QAEXPAPA_W@Z PROC ; std::_Wrap_alloc<std::allocator<wchar_t> >::destroy<wchar_t *>, COMDAT
; _this$ = ecx

; 1103 : 		_Mytraits::destroy(*this, _Ptr);
; 1104 : 		}

	ret	4
??$destroy@PA_W@?$_Wrap_alloc@V?$allocator@_W@std@@@std@@QAEXPAPA_W@Z ENDP ; std::_Wrap_alloc<std::allocator<wchar_t> >::destroy<wchar_t *>
_TEXT	ENDS
; Function compile flags: /Ogtp
; File c:\program files (x86)\microsoft visual studio\2017\community\vc\tools\msvc\14.10.25017\include\xstddef
;	COMDAT ??$addressof@PA_W@std@@YAPAPA_WAAPA_W@Z
_TEXT	SEGMENT
__Val$ = 8						; size = 4
??$addressof@PA_W@std@@YAPAPA_WAAPA_W@Z PROC		; std::addressof<wchar_t *>, COMDAT

; 629  : 	{	// return address of _Val

	npad	2
	push	ebp
	mov	ebp, esp

; 630  : 	return (__builtin_addressof(_Val));

	mov	eax, DWORD PTR __Val$[ebp]

; 631  : 	}

	pop	ebp
	ret	0
??$addressof@PA_W@std@@YAPAPA_WAAPA_W@Z ENDP		; std::addressof<wchar_t *>
_TEXT	ENDS
; Function compile flags: /Ogtp
; File c:\users\andon\source\repos\specialk\src\vulkan.cpp
_TEXT	SEGMENT
?SK_HookVulkan@@YGXXZ PROC				; SK_HookVulkan

; 253  : #ifdef _WIN64
; 254  :   static volatile ULONG hooked = FALSE;
; 255  : 
; 256  :   if (InterlockedCompareExchange (&hooked, TRUE, FALSE))
; 257  :     return;
; 258  : 
; 259  :   if (! config.apis.Vulkan.hook)
; 260  :     return;
; 261  : 
; 262  :   if (! StrStrIW ( SK_GetModuleName (SK_GetDLL ()).c_str (), 
; 263  :                    L"Vulkan-1.dll" ) ) {
; 264  :     dll_log.Log (L"[  Vulkan  ] Additional Vulkan Initialization");
; 265  :     dll_log.Log (L"[  Vulkan  ] ================================");
; 266  : 
; 267  :     dll_log.Log (L"[  Vulkan  ] Hooking Vk (1.x)");
; 268  : 
; 269  :     SK_CreateDLLHook2 (      L"vulkan-1.dll",
; 270  :                               "vkCreateWin32SurfaceKHR",
; 271  :                                vkCreateWin32SurfaceKHR_Detour,
; 272  :       static_cast_p2p <void> (&SK::Vulkan::funcs.
; 273  :                                vkCreateWin32SurfaceKHR)
; 274  :                       );
; 275  : 
; 276  :     SK_CreateDLLHook2 (      L"vulkan-1.dll",
; 277  :                               "vkQueuePresentKHR",
; 278  :                                vkQueuePresentKHR_Detour,
; 279  :       static_cast_p2p <void> (&SK::Vulkan::funcs.
; 280  :                                vkQueuePresentKHR)
; 281  :                       );
; 282  : 
; 283  :     SK_CreateDLLHook2 (      L"vulkan-1.dll",
; 284  :                               "vkAcquireNextImageKHR",
; 285  :                                vkAcquireNextImageKHR_Detour,
; 286  :       static_cast_p2p <void> (&SK::Vulkan::funcs.
; 287  :                                vkAcquireNextImageKHR)
; 288  :                       );
; 289  : 
; 290  :     SK_CreateDLLHook2 (      L"vulkan-1.dll",
; 291  :                               "vkCreateSwapchainKHR",
; 292  :                                vkCreateSwapchainKHR_Detour,
; 293  :       static_cast_p2p <void> (&SK::Vulkan::funcs.
; 294  :                                vkCreateSwapchainKHR)
; 295  :                       );
; 296  : 
; 297  : #if 0
; 298  :     SK_CreateDLLHook2 (      L"vulkan-1.dll",
; 299  :                               "vkDestroySwapchainKHR",
; 300  :                                vkDestroySwapchainKHR_Detour,
; 301  :       static_cast_p2p <void> (&SK::Vulkan::funcs.
; 302  :                                vkDestroySwapchainKHR)
; 303  :                       );
; 304  : #endif
; 305  : 
; 306  :     MH_ApplyQueued ();
; 307  :   }
; 308  : 
; 309  :   else {
; 310  :     config.apis.Vulkan.hook = false;
; 311  :     return;
; 312  :   }
; 313  : 
; 314  :   InterlockedExchange (&__vk_ready, TRUE);
; 315  : #endif
; 316  : }

	ret	0
?SK_HookVulkan@@YGXXZ ENDP				; SK_HookVulkan
_TEXT	ENDS
; Function compile flags: /Ogtp
; File c:\users\andon\source\repos\specialk\src\vulkan.cpp
_TEXT	SEGMENT
_finish$ = 8						; size = 4
?vulkan_init_callback@@YGXP6GXXZ@Z PROC			; vulkan_init_callback

; 243  : {

	npad	2
	push	ebp
	mov	ebp, esp

; 244  :   SK_BootVulkan ();

	call	?SK_BootVulkan@@YAXXZ			; SK_BootVulkan

; 245  : 
; 246  :   finish ();

	call	DWORD PTR _finish$[ebp]

; 247  : }

	pop	ebp
	ret	4
?vulkan_init_callback@@YGXP6GXXZ@Z ENDP			; vulkan_init_callback
_TEXT	ENDS
; Function compile flags: /Ogtp
; File c:\users\andon\source\repos\specialk\src\vulkan.cpp
_TEXT	SEGMENT
_device$ = 8						; size = 4
_swapchain$ = 12					; size = 8
_timeout$ = 20						; size = 8
_semaphore$ = 28					; size = 8
_fence$ = 36						; size = 8
_pImageIndex$ = 44					; size = 4
?vkAcquireNextImageKHR_Detour@@YG?AW4VkResult@@PAUVkDevice_T@@_K111PAI@Z PROC ; vkAcquireNextImageKHR_Detour

; 221  : {

	npad	2
	push	ebp
	mov	ebp, esp
	push	esi

; 222  :   SK_BeginBufferSwap ();

	call	?SK_BeginBufferSwap@@YGXXZ		; SK_BeginBufferSwap

; 223  : 
; 224  :   VkResult ret =
; 225  :     SK::Vulkan::funcs.vkAcquireNextImageKHR ( device,

	push	DWORD PTR _pImageIndex$[ebp]
	push	DWORD PTR _fence$[ebp+4]
	push	DWORD PTR _fence$[ebp]
	push	DWORD PTR _semaphore$[ebp+4]
	push	DWORD PTR _semaphore$[ebp]
	push	DWORD PTR _timeout$[ebp+4]
	push	DWORD PTR _timeout$[ebp]
	push	DWORD PTR _swapchain$[ebp+4]
	push	DWORD PTR _swapchain$[ebp]
	push	DWORD PTR _device$[ebp]
	call	DWORD PTR ?funcs@Vulkan@SK@@3Uvk_funcs_s@12@A+16

; 226  :                                                 swapchain,
; 227  :                                                   timeout,
; 228  :                                                     semaphore,
; 229  :                                                       fence,
; 230  :                                                         pImageIndex );
; 231  : 
; 232  :   SK_EndBufferSwap (S_OK);

	push	0
	push	0
	mov	esi, eax
	call	?SK_EndBufferSwap@@YGJJPAUIUnknown@@@Z	; SK_EndBufferSwap

; 233  : 
; 234  :   return ret;

	mov	eax, esi
	pop	esi

; 235  : }

	pop	ebp
	ret	40					; 00000028H
?vkAcquireNextImageKHR_Detour@@YG?AW4VkResult@@PAUVkDevice_T@@_K111PAI@Z ENDP ; vkAcquireNextImageKHR_Detour
_TEXT	ENDS
; Function compile flags: /Ogtp
; File c:\users\andon\source\repos\specialk\src\vulkan.cpp
_TEXT	SEGMENT
_queue$ = 8						; size = 4
_pPresentInfo$ = 12					; size = 4
?vkQueuePresentKHR_Detour@@YG?AW4VkResult@@PAUVkQueue_T@@PBUVkPresentInfoKHR@@@Z PROC ; vkQueuePresentKHR_Detour

; 201  : {

	npad	2
	push	ebp
	mov	ebp, esp
	push	esi

; 202  :   SK_BeginBufferSwap ();

	call	?SK_BeginBufferSwap@@YGXXZ		; SK_BeginBufferSwap

; 203  : 
; 204  :   VkResult ret =
; 205  :     SK::Vulkan::funcs.vkQueuePresentKHR ( queue,

	push	DWORD PTR _pPresentInfo$[ebp]
	push	DWORD PTR _queue$[ebp]
	call	DWORD PTR ?funcs@Vulkan@SK@@3Uvk_funcs_s@12@A+4

; 206  :                                             pPresentInfo );
; 207  : 
; 208  :   SK_EndBufferSwap (S_OK);

	push	0
	push	0
	mov	esi, eax
	call	?SK_EndBufferSwap@@YGJJPAUIUnknown@@@Z	; SK_EndBufferSwap

; 209  : 
; 210  :   return ret;

	mov	eax, esi
	pop	esi

; 211  : }

	pop	ebp
	ret	8
?vkQueuePresentKHR_Detour@@YG?AW4VkResult@@PAUVkQueue_T@@PBUVkPresentInfoKHR@@@Z ENDP ; vkQueuePresentKHR_Detour
_TEXT	ENDS
; Function compile flags: /Ogtp
; File c:\users\andon\source\repos\specialk\src\vulkan.cpp
; File c:\program files (x86)\microsoft visual studio\2017\community\vc\tools\msvc\14.10.25017\include\xstring
; File c:\program files (x86)\microsoft visual studio\2017\community\vc\tools\msvc\14.10.25017\include\xstddef
; File c:\users\andon\source\repos\specialk\src\vulkan.cpp
; File c:\program files (x86)\microsoft visual studio\2017\community\vc\tools\msvc\14.10.25017\include\xstring
; File c:\users\andon\source\repos\specialk\src\vulkan.cpp
; File c:\program files (x86)\microsoft visual studio\2017\community\vc\tools\msvc\14.10.25017\include\xstring
; File c:\program files (x86)\microsoft visual studio\2017\community\vc\tools\msvc\14.10.25017\include\xmemory0
; File c:\program files (x86)\microsoft visual studio\2017\community\vc\tools\msvc\14.10.25017\include\xstring
; File c:\program files (x86)\microsoft visual studio\2017\community\vc\tools\msvc\14.10.25017\include\xmemory0
; File c:\users\andon\source\repos\specialk\src\vulkan.cpp
_TEXT	SEGMENT
$T1 = -24						; size = 24
__$ReturnAddr$ = 4					; size = 4
_device$ = 8						; size = 4
_pCreateInfo$ = 12					; size = 4
_pAllocator$ = 16					; size = 4
_pSwapchain$ = 20					; size = 4
?vkCreateSwapchainKHR_Detour@@YG?AW4VkResult@@PAUVkDevice_T@@PBUVkSwapchainCreateInfoKHR@@PBUVkAllocationCallbacks@@PA_K@Z PROC ; vkCreateSwapchainKHR_Detour

; 180  : {

	npad	2
	push	ebp
	mov	ebp, esp
	sub	esp, 24					; 00000018H
	push	esi

; 181  :   VK_LOG_CALL (L" [!] vkCreateSwapchainKHR", L"..."));

	push	OFFSET $SG120727
	push	OFFSET $SG120728
	push	1
	push	OFFSET ?dll_log@@3UiSK_Logger@@A	; dll_log
	call	?LogEx@iSK_Logger@@UAAX_NQB_WZZ		; iSK_Logger::LogEx
	push	OFFSET $SG120729
	push	0
	push	OFFSET ?dll_log@@3UiSK_Logger@@A	; dll_log
	call	?LogEx@iSK_Logger@@UAAX_NQB_WZZ		; iSK_Logger::LogEx

; 182  :   VK_LOG_CALL_END;

	mov	eax, DWORD PTR __$ReturnAddr$[ebp]
	push	eax
	lea	eax, DWORD PTR $T1[ebp]
	push	eax
	call	?SK_GetCallerName@@YA?AV?$basic_string@_WU?$char_traits@_W@std@@V?$allocator@_W@2@@std@@PAX@Z ; SK_GetCallerName
	mov	esi, eax
	add	esp, 36					; 00000024H
; File c:\program files (x86)\microsoft visual studio\2017\community\vc\tools\msvc\14.10.25017\include\xstring

; 1628 : 		return (this->_BUF_SIZE <= _Myres);

	cmp	DWORD PTR [esi+20], 8

; 1621 : 		return (_Large_string_engaged()

	jb	SHORT $LN17@vkCreateSw
; File c:\program files (x86)\microsoft visual studio\2017\community\vc\tools\msvc\14.10.25017\include\xstddef

; 643  : 	return (_Ptr);

	mov	esi, DWORD PTR [esi]
$LN17@vkCreateSw:
; File c:\users\andon\source\repos\specialk\src\vulkan.cpp

; 182  :   VK_LOG_CALL_END;

	call	DWORD PTR __imp__GetCurrentThreadId@0
	push	eax
	push	esi
	push	OFFSET $SG120730
	push	0
	push	OFFSET ?dll_log@@3UiSK_Logger@@A	; dll_log
	call	?LogEx@iSK_Logger@@UAAX_NQB_WZZ		; iSK_Logger::LogEx
; File c:\program files (x86)\microsoft visual studio\2017\community\vc\tools\msvc\14.10.25017\include\xstring

; 1628 : 		return (this->_BUF_SIZE <= _Myres);

	mov	eax, DWORD PTR $T1[ebp+20]
; File c:\users\andon\source\repos\specialk\src\vulkan.cpp

; 182  :   VK_LOG_CALL_END;

	add	esp, 20					; 00000014H
; File c:\program files (x86)\microsoft visual studio\2017\community\vc\tools\msvc\14.10.25017\include\xstring

; 1628 : 		return (this->_BUF_SIZE <= _Myres);

	cmp	eax, 8

; 3608 : 		if (_My_data._Large_string_engaged())

	jb	SHORT $LN27@vkCreateSw
; File c:\program files (x86)\microsoft visual studio\2017\community\vc\tools\msvc\14.10.25017\include\xmemory0

; 823  : 		_Deallocate(_Ptr, _Count, sizeof (_Ty));

	push	2
; File c:\program files (x86)\microsoft visual studio\2017\community\vc\tools\msvc\14.10.25017\include\xstring

; 3613 : 			_Al.deallocate(_Ptr, _My_data._Myres + 1);

	inc	eax
; File c:\program files (x86)\microsoft visual studio\2017\community\vc\tools\msvc\14.10.25017\include\xmemory0

; 823  : 		_Deallocate(_Ptr, _Count, sizeof (_Ty));

	push	eax
	push	DWORD PTR $T1[ebp]
	call	?_Deallocate@std@@YAXPAXII@Z		; std::_Deallocate
	add	esp, 12					; 0000000cH
$LN27@vkCreateSw:
; File c:\users\andon\source\repos\specialk\src\vulkan.cpp

; 186  :   VK_CALL ( ret, SK::Vulkan::funcs.vkCreateSwapchainKHR (

	push	DWORD PTR _pSwapchain$[ebp]
	push	DWORD PTR _pAllocator$[ebp]
	push	DWORD PTR _pCreateInfo$[ebp]
	push	DWORD PTR _device$[ebp]
	call	DWORD PTR ?funcs@Vulkan@SK@@3Uvk_funcs_s@12@A+8
	mov	esi, eax
	push	esi
	call	?SK_DescribeVkResult@@YGPB_WW4VkResult@@@Z ; SK_DescribeVkResult
	push	eax
	push	OFFSET $SG120731
	push	OFFSET ?dll_log@@3UiSK_Logger@@A	; dll_log
	call	?Log@iSK_Logger@@UAAXQB_WZZ		; iSK_Logger::Log
	add	esp, 12					; 0000000cH

; 187  :                    device,
; 188  :                      pCreateInfo,
; 189  :                        pAllocator,
; 190  :                          pSwapchain
; 191  :                  )
; 192  :           );
; 193  : 
; 194  :   return ret;

	mov	eax, esi
	pop	esi

; 195  : }

	mov	esp, ebp
	pop	ebp
	ret	16					; 00000010H
?vkCreateSwapchainKHR_Detour@@YG?AW4VkResult@@PAUVkDevice_T@@PBUVkSwapchainCreateInfoKHR@@PBUVkAllocationCallbacks@@PA_K@Z ENDP ; vkCreateSwapchainKHR_Detour
_TEXT	ENDS
; Function compile flags: /Ogtp
; File c:\users\andon\source\repos\specialk\src\vulkan.cpp
; File c:\program files (x86)\microsoft visual studio\2017\community\vc\tools\msvc\14.10.25017\include\xstring
; File c:\program files (x86)\microsoft visual studio\2017\community\vc\tools\msvc\14.10.25017\include\xstddef
; File c:\users\andon\source\repos\specialk\src\vulkan.cpp
; File c:\program files (x86)\microsoft visual studio\2017\community\vc\tools\msvc\14.10.25017\include\xstring
; File c:\users\andon\source\repos\specialk\src\vulkan.cpp
; File c:\program files (x86)\microsoft visual studio\2017\community\vc\tools\msvc\14.10.25017\include\xstring
; File c:\program files (x86)\microsoft visual studio\2017\community\vc\tools\msvc\14.10.25017\include\xmemory0
; File c:\program files (x86)\microsoft visual studio\2017\community\vc\tools\msvc\14.10.25017\include\xstring
; File c:\program files (x86)\microsoft visual studio\2017\community\vc\tools\msvc\14.10.25017\include\xmemory0
; File c:\users\andon\source\repos\specialk\src\vulkan.cpp
_TEXT	SEGMENT
$T1 = -24						; size = 24
__$ReturnAddr$ = 4					; size = 4
_instance$ = 8						; size = 4
_pCreateInfo$ = 12					; size = 4
_pAllocator$ = 16					; size = 4
_pSurface$ = 20						; size = 4
?vkCreateWin32SurfaceKHR_Detour@@YG?AW4VkResult@@PAUVkInstance_T@@PBUVkWin32SurfaceCreateInfoKHR@@PBUVkAllocationCallbacks@@PA_K@Z PROC ; vkCreateWin32SurfaceKHR_Detour

; 143  : {

	npad	2
	push	ebp
	mov	ebp, esp
	sub	esp, 24					; 00000018H
	push	esi
	push	edi

; 144  :   VK_LOG_CALL (L" [!] vkCreateWin32SurfaceKHR", L"HWND=%p"), pCreateInfo->hwnd);

	push	OFFSET $SG120712
	push	OFFSET $SG120713
	push	1
	push	OFFSET ?dll_log@@3UiSK_Logger@@A	; dll_log
	call	?LogEx@iSK_Logger@@UAAX_NQB_WZZ		; iSK_Logger::LogEx
	mov	edi, DWORD PTR _pCreateInfo$[ebp]
	push	DWORD PTR [edi+16]
	push	OFFSET $SG120714
	push	0
	push	OFFSET ?dll_log@@3UiSK_Logger@@A	; dll_log
	call	?LogEx@iSK_Logger@@UAAX_NQB_WZZ		; iSK_Logger::LogEx

; 145  :   VK_LOG_CALL_END;

	mov	eax, DWORD PTR __$ReturnAddr$[ebp]
	push	eax
	lea	eax, DWORD PTR $T1[ebp]
	push	eax
	call	?SK_GetCallerName@@YA?AV?$basic_string@_WU?$char_traits@_W@std@@V?$allocator@_W@2@@std@@PAX@Z ; SK_GetCallerName
	mov	esi, eax
	add	esp, 40					; 00000028H
; File c:\program files (x86)\microsoft visual studio\2017\community\vc\tools\msvc\14.10.25017\include\xstring

; 1628 : 		return (this->_BUF_SIZE <= _Myres);

	cmp	DWORD PTR [esi+20], 8

; 1621 : 		return (_Large_string_engaged()

	jb	SHORT $LN22@vkCreateWi
; File c:\program files (x86)\microsoft visual studio\2017\community\vc\tools\msvc\14.10.25017\include\xstddef

; 643  : 	return (_Ptr);

	mov	esi, DWORD PTR [esi]
$LN22@vkCreateWi:
; File c:\users\andon\source\repos\specialk\src\vulkan.cpp

; 145  :   VK_LOG_CALL_END;

	call	DWORD PTR __imp__GetCurrentThreadId@0
	push	eax
	push	esi
	push	OFFSET $SG120715
	push	0
	push	OFFSET ?dll_log@@3UiSK_Logger@@A	; dll_log
	call	?LogEx@iSK_Logger@@UAAX_NQB_WZZ		; iSK_Logger::LogEx
; File c:\program files (x86)\microsoft visual studio\2017\community\vc\tools\msvc\14.10.25017\include\xstring

; 1628 : 		return (this->_BUF_SIZE <= _Myres);

	mov	eax, DWORD PTR $T1[ebp+20]
; File c:\users\andon\source\repos\specialk\src\vulkan.cpp

; 145  :   VK_LOG_CALL_END;

	add	esp, 20					; 00000014H
; File c:\program files (x86)\microsoft visual studio\2017\community\vc\tools\msvc\14.10.25017\include\xstring

; 1628 : 		return (this->_BUF_SIZE <= _Myres);

	cmp	eax, 8

; 3608 : 		if (_My_data._Large_string_engaged())

	jb	SHORT $LN32@vkCreateWi
; File c:\program files (x86)\microsoft visual studio\2017\community\vc\tools\msvc\14.10.25017\include\xmemory0

; 823  : 		_Deallocate(_Ptr, _Count, sizeof (_Ty));

	push	2
; File c:\program files (x86)\microsoft visual studio\2017\community\vc\tools\msvc\14.10.25017\include\xstring

; 3613 : 			_Al.deallocate(_Ptr, _My_data._Myres + 1);

	inc	eax
; File c:\program files (x86)\microsoft visual studio\2017\community\vc\tools\msvc\14.10.25017\include\xmemory0

; 823  : 		_Deallocate(_Ptr, _Count, sizeof (_Ty));

	push	eax
	push	DWORD PTR $T1[ebp]
	call	?_Deallocate@std@@YAXPAXII@Z		; std::_Deallocate
	add	esp, 12					; 0000000cH
$LN32@vkCreateWi:
; File c:\users\andon\source\repos\specialk\src\vulkan.cpp

; 149  :   if ((hWndRender == 0 || (! IsWindow (hWndRender)) || (GetForegroundWindow () != hWndRender)) && IsWindow (pCreateInfo->hwnd)) {

	mov	eax, DWORD PTR ?hWndRender@@3PAUHWND__@@A ; hWndRender
	mov	esi, DWORD PTR __imp__IsWindow@4
	test	eax, eax
	je	SHORT $LN6@vkCreateWi
	push	eax
	call	esi
	test	eax, eax
	je	SHORT $LN6@vkCreateWi
	call	DWORD PTR __imp__GetForegroundWindow@0
	cmp	eax, DWORD PTR ?hWndRender@@3PAUHWND__@@A ; hWndRender
	je	SHORT $LN3@vkCreateWi
$LN6@vkCreateWi:
	push	DWORD PTR [edi+16]
	call	esi
	test	eax, eax
	je	SHORT $LN3@vkCreateWi

; 150  :     hWndRender = pCreateInfo->hwnd;

	mov	eax, DWORD PTR [edi+16]
	mov	esi, 30					; 0000001eH
	mov	DWORD PTR ?hWndRender@@3PAUHWND__@@A, eax ; hWndRender
	npad	2
$LL4@vkCreateWi:

; 151  : 
; 152  :     // Trigger certain events that only happen after a few frames are drawn
; 153  :     //
; 154  :     //   I haven't hooked queue creation yet and installed fences in order to
; 155  :     //     actually measure framerate in games such as DOOM, that do not use
; 156  :     //       traditional swapchain presentation.
; 157  :     for (int i = 0; i < 30; i++) {
; 158  :       SK_BeginBufferSwap ();

	call	?SK_BeginBufferSwap@@YGXXZ		; SK_BeginBufferSwap

; 159  :       SK_EndBufferSwap   (S_OK);

	push	0
	push	0
	call	?SK_EndBufferSwap@@YGJJPAUIUnknown@@@Z	; SK_EndBufferSwap
	sub	esi, 1
	jne	SHORT $LL4@vkCreateWi
$LN3@vkCreateWi:

; 160  :     }
; 161  :   }
; 162  : 
; 163  :   VK_CALL ( ret, SK::Vulkan::funcs.vkCreateWin32SurfaceKHR (

	push	DWORD PTR _pSurface$[ebp]
	push	DWORD PTR _pAllocator$[ebp]
	push	edi
	push	DWORD PTR _instance$[ebp]
	call	DWORD PTR ?funcs@Vulkan@SK@@3Uvk_funcs_s@12@A
	mov	esi, eax
	push	esi
	call	?SK_DescribeVkResult@@YGPB_WW4VkResult@@@Z ; SK_DescribeVkResult
	push	eax
	push	OFFSET $SG120718
	push	OFFSET ?dll_log@@3UiSK_Logger@@A	; dll_log
	call	?Log@iSK_Logger@@UAAXQB_WZZ		; iSK_Logger::Log
	add	esp, 12					; 0000000cH

; 164  :                    instance,
; 165  :                      pCreateInfo,
; 166  :                        pAllocator,
; 167  :                          pSurface
; 168  :                  )
; 169  :           );
; 170  : 
; 171  :   return ret;

	mov	eax, esi
	pop	edi
	pop	esi

; 172  : }

	mov	esp, ebp
	pop	ebp
	ret	16					; 00000010H
?vkCreateWin32SurfaceKHR_Detour@@YG?AW4VkResult@@PAUVkInstance_T@@PBUVkWin32SurfaceCreateInfoKHR@@PBUVkAllocationCallbacks@@PA_K@Z ENDP ; vkCreateWin32SurfaceKHR_Detour
_TEXT	ENDS
; Function compile flags: /Ogtp
; File c:\users\andon\source\repos\specialk\src\vulkan.cpp
_TEXT	SEGMENT
_result$ = 8						; size = 4
?SK_DescribeVkResult@@YGPB_WW4VkResult@@@Z PROC		; SK_DescribeVkResult

; 55   : {

	npad	2
	push	ebp
	mov	ebp, esp

; 56   :   switch (result)

	mov	eax, DWORD PTR _result$[ebp]
	cmp	eax, -12				; fffffff4H
	jg	SHORT $LN31@SK_Describ
	je	SHORT $LN21@SK_Describ
	cmp	eax, -1000001004			; c4653214H
	jg	SHORT $LN32@SK_Describ
	je	SHORT $LN25@SK_Describ
	cmp	eax, -1000012000			; c4650720H
	je	SHORT $LN28@SK_Describ
	cmp	eax, -1000011001			; c4650b07H
	je	SHORT $LN27@SK_Describ
	cmp	eax, -1000003001			; c4652a47H
	jne	$LN33@SK_Describ

; 106  :     case VK_ERROR_INCOMPATIBLE_DISPLAY_KHR:
; 107  :       return L"VK_ERROR_INCOMPATIBLE_DISPLAY_KHR";

	mov	eax, OFFSET $SG120690

; 117  :   }
; 118  : }

	pop	ebp
	ret	4
$LN27@SK_Describ:

; 108  :     case VK_ERROR_VALIDATION_FAILED_EXT:
; 109  :       return L"VK_ERROR_VALIDATION_FAILED_EXT";

	mov	eax, OFFSET $SG120692

; 117  :   }
; 118  : }

	pop	ebp
	ret	4
$LN28@SK_Describ:

; 110  :     case VK_ERROR_INVALID_SHADER_NV:
; 111  :       return L"VK_ERROR_INVALID_SHADER_NV";

	mov	eax, OFFSET $SG120694

; 117  :   }
; 118  : }

	pop	ebp
	ret	4
$LN25@SK_Describ:

; 103  : 
; 104  :     case VK_ERROR_OUT_OF_DATE_KHR:
; 105  :       return L"VK_ERROR_OUT_OF_DATE_KHR";

	mov	eax, OFFSET $SG120688

; 117  :   }
; 118  : }

	pop	ebp
	ret	4
$LN32@SK_Describ:

; 56   :   switch (result)

	cmp	eax, -1000000001			; c46535ffH
	je	SHORT $LN23@SK_Describ
	cmp	eax, -1000000000			; c4653600H
	jne	$LN33@SK_Describ

; 96   :     case VK_ERROR_SURFACE_LOST_KHR:
; 97   :       return L"VK_ERROR_SURFACE_LOST_KHR";

	mov	eax, OFFSET $SG120682

; 117  :   }
; 118  : }

	pop	ebp
	ret	4
$LN23@SK_Describ:

; 98   :     case VK_ERROR_NATIVE_WINDOW_IN_USE_KHR:
; 99   :       return L"VK_ERROR_NATIVE_WINDOW_IN_USE_KHR";

	mov	eax, OFFSET $SG120684

; 117  :   }
; 118  : }

	pop	ebp
	ret	4
$LN21@SK_Describ:

; 94   :     case VK_ERROR_FRAGMENTED_POOL:
; 95   :       return L"VK_ERROR_FRAGMENTED_POOL";

	mov	eax, OFFSET $SG120680

; 117  :   }
; 118  : }

	pop	ebp
	ret	4
$LN31@SK_Describ:

; 56   :   switch (result)

	cmp	eax, 1000001003				; 3b9acdebH
	jg	$LN33@SK_Describ
	je	$LN24@SK_Describ
	lea	ecx, DWORD PTR [eax+11]
	cmp	ecx, 16					; 00000010H
	ja	$LN33@SK_Describ
	jmp	DWORD PTR $LN35@SK_Describ[ecx*4]
$LN4@SK_Describ:

; 57   :   {
; 58   :     case VK_SUCCESS:
; 59   :       return L"VK_SUCCESS";

	mov	eax, OFFSET $SG120646

; 117  :   }
; 118  : }

	pop	ebp
	ret	4
$LN5@SK_Describ:

; 60   : 
; 61   :     case VK_NOT_READY:
; 62   :       return L"VK_NOT_READY";

	mov	eax, OFFSET $SG120648

; 117  :   }
; 118  : }

	pop	ebp
	ret	4
$LN6@SK_Describ:

; 63   :     case VK_TIMEOUT:
; 64   :       return L"VK_TIMEOUT";

	mov	eax, OFFSET $SG120650

; 117  :   }
; 118  : }

	pop	ebp
	ret	4
$LN7@SK_Describ:

; 65   :     case VK_EVENT_SET:
; 66   :       return L"VK_EVENT_SET";

	mov	eax, OFFSET $SG120652

; 117  :   }
; 118  : }

	pop	ebp
	ret	4
$LN8@SK_Describ:

; 67   :     case VK_EVENT_RESET:
; 68   :       return L"VK_EVENT_RESET";

	mov	eax, OFFSET $SG120654

; 117  :   }
; 118  : }

	pop	ebp
	ret	4
$LN9@SK_Describ:

; 69   :     case VK_INCOMPLETE:
; 70   :       return L"VK_INCOMPLETE";

	mov	eax, OFFSET $SG120656

; 117  :   }
; 118  : }

	pop	ebp
	ret	4
$LN10@SK_Describ:

; 71   : 
; 72   :     case VK_ERROR_OUT_OF_HOST_MEMORY:
; 73   :       return L"VK_ERROR_OUT_OF_HOST_MEMORY";

	mov	eax, OFFSET $SG120658

; 117  :   }
; 118  : }

	pop	ebp
	ret	4
$LN11@SK_Describ:

; 74   :     case VK_ERROR_OUT_OF_DEVICE_MEMORY:
; 75   :       return L"VK_ERROR_OUT_OF_DEVICE_MEMORY";

	mov	eax, OFFSET $SG120660

; 117  :   }
; 118  : }

	pop	ebp
	ret	4
$LN12@SK_Describ:

; 76   :     case VK_ERROR_INITIALIZATION_FAILED:
; 77   :       return L"VK_ERROR_INITIALIZATION_FAILED";

	mov	eax, OFFSET $SG120662

; 117  :   }
; 118  : }

	pop	ebp
	ret	4
$LN13@SK_Describ:

; 78   :     case VK_ERROR_DEVICE_LOST:
; 79   :       return L"VK_ERROR_DEVICE_LOST";

	mov	eax, OFFSET $SG120664

; 117  :   }
; 118  : }

	pop	ebp
	ret	4
$LN14@SK_Describ:

; 80   :     case VK_ERROR_MEMORY_MAP_FAILED:
; 81   :       return L"VK_ERROR_MEMORY_MAP_FAILED";

	mov	eax, OFFSET $SG120666

; 117  :   }
; 118  : }

	pop	ebp
	ret	4
$LN15@SK_Describ:

; 82   :     case VK_ERROR_LAYER_NOT_PRESENT:
; 83   :       return L"VK_ERROR_LAYER_NOT_PRESENT";

	mov	eax, OFFSET $SG120668

; 117  :   }
; 118  : }

	pop	ebp
	ret	4
$LN16@SK_Describ:

; 84   :     case VK_ERROR_EXTENSION_NOT_PRESENT:
; 85   :       return L"VK_ERROR_EXTENSION_NOT_PRESENT";

	mov	eax, OFFSET $SG120670

; 117  :   }
; 118  : }

	pop	ebp
	ret	4
$LN17@SK_Describ:

; 86   :     case VK_ERROR_FEATURE_NOT_PRESENT:
; 87   :       return L"VK_ERROR_FEATURE_NOT_PRESENT";

	mov	eax, OFFSET $SG120672

; 117  :   }
; 118  : }

	pop	ebp
	ret	4
$LN18@SK_Describ:

; 88   :     case VK_ERROR_INCOMPATIBLE_DRIVER:
; 89   :       return L"VK_ERROR_INCOMPATIBLE_DRIVER";

	mov	eax, OFFSET $SG120674

; 117  :   }
; 118  : }

	pop	ebp
	ret	4
$LN19@SK_Describ:

; 90   :     case VK_ERROR_TOO_MANY_OBJECTS:
; 91   :       return L"VK_ERROR_TOO_MANY_OBJECTS";

	mov	eax, OFFSET $SG120676

; 117  :   }
; 118  : }

	pop	ebp
	ret	4
$LN20@SK_Describ:

; 92   :     case VK_ERROR_FORMAT_NOT_SUPPORTED:
; 93   :       return L"VK_ERROR_FORMAT_NOT_SUPPORTED";

	mov	eax, OFFSET $SG120678

; 117  :   }
; 118  : }

	pop	ebp
	ret	4
$LN24@SK_Describ:

; 100  : 
; 101  :     case VK_SUBOPTIMAL_KHR:
; 102  :       return L"VK_SUBOPTIMAL_KHR";

	mov	eax, OFFSET $SG120686

; 117  :   }
; 118  : }

	pop	ebp
	ret	4
$LN33@SK_Describ:

; 112  : 
; 113  :   default:
; 114  :     dll_log.Log (L" *** Encountered unknown VkResult: (0x%08X)",

	push	eax
	push	OFFSET $SG120696
	push	OFFSET ?dll_log@@3UiSK_Logger@@A	; dll_log
	call	?Log@iSK_Logger@@UAAXQB_WZZ		; iSK_Logger::Log
	add	esp, 12					; 0000000cH

; 115  :       static_cast <unsigned long> (result));
; 116  :     return L"UNKNOWN";

	mov	eax, OFFSET $SG120697

; 117  :   }
; 118  : }

	pop	ebp
	ret	4
$LN35@SK_Describ:
	DD	$LN20@SK_Describ
	DD	$LN19@SK_Describ
	DD	$LN18@SK_Describ
	DD	$LN17@SK_Describ
	DD	$LN16@SK_Describ
	DD	$LN15@SK_Describ
	DD	$LN14@SK_Describ
	DD	$LN13@SK_Describ
	DD	$LN12@SK_Describ
	DD	$LN11@SK_Describ
	DD	$LN10@SK_Describ
	DD	$LN4@SK_Describ
	DD	$LN5@SK_Describ
	DD	$LN6@SK_Describ
	DD	$LN7@SK_Describ
	DD	$LN8@SK_Describ
	DD	$LN9@SK_Describ
?SK_DescribeVkResult@@YGPB_WW4VkResult@@@Z ENDP		; SK_DescribeVkResult
_TEXT	ENDS
; Function compile flags: /Ogtp
; File c:\users\andon\source\repos\specialk\src\vulkan.cpp
; File c:\program files (x86)\windows kits\8.1\include\um\winnt.h
; File c:\users\andon\source\repos\specialk\src\vulkan.cpp
; File c:\program files (x86)\windows kits\8.1\include\um\winnt.h
; File c:\users\andon\source\repos\specialk\src\vulkan.cpp
_TEXT	SEGMENT
?WaitForInit_Vk@@YAXXZ PROC				; WaitForInit_Vk
; File c:\program files (x86)\windows kits\8.1\include\um\winnt.h

; 8063 :     Value = *Source;

	mov	eax, DWORD PTR ?__vk_ready@@3JC		; __vk_ready
; File c:\users\andon\source\repos\specialk\src\vulkan.cpp

; 44   :   while (! ReadAcquire (&__vk_ready))

	test	eax, eax
	jne	SHORT $LN3@WaitForIni
	push	esi
	mov	esi, DWORD PTR __imp__MsgWaitForMultipleObjectsEx@20
$LL2@WaitForIni:

; 45   :     MsgWaitForMultipleObjectsEx (0, nullptr, config.system.init_delay, QS_ALLINPUT, MWMO_ALERTABLE);

	push	2
	push	1279					; 000004ffH
	push	DWORD PTR ?config@@3Usk_config_t@@A+816
	push	0
	push	0
	call	esi
; File c:\program files (x86)\windows kits\8.1\include\um\winnt.h

; 8063 :     Value = *Source;

	mov	eax, DWORD PTR ?__vk_ready@@3JC		; __vk_ready
; File c:\users\andon\source\repos\specialk\src\vulkan.cpp

; 44   :   while (! ReadAcquire (&__vk_ready))

	test	eax, eax
	je	SHORT $LL2@WaitForIni
	pop	esi
$LN3@WaitForIni:

; 46   : }

	ret	0
?WaitForInit_Vk@@YAXXZ ENDP				; WaitForInit_Vk
_TEXT	ENDS
; Function compile flags: /Ogtp
; File c:\program files (x86)\microsoft visual studio\2017\community\vc\tools\msvc\14.10.25017\include\xstring
; File c:\program files (x86)\microsoft visual studio\2017\community\vc\tools\msvc\14.10.25017\include\xmemory0
; File c:\program files (x86)\microsoft visual studio\2017\community\vc\tools\msvc\14.10.25017\include\xstring
; File c:\program files (x86)\microsoft visual studio\2017\community\vc\tools\msvc\14.10.25017\include\xmemory0
; File c:\program files (x86)\microsoft visual studio\2017\community\vc\tools\msvc\14.10.25017\include\xstring
; File c:\program files (x86)\microsoft visual studio\2017\community\vc\tools\msvc\14.10.25017\include\iosfwd
; File c:\program files (x86)\microsoft visual studio\2017\community\vc\tools\msvc\14.10.25017\include\xstring
; File c:\program files (x86)\microsoft visual studio\2017\community\vc\tools\msvc\14.10.25017\include\iosfwd
; File c:\program files (x86)\microsoft visual studio\2017\community\vc\tools\msvc\14.10.25017\include\xstring
;	COMDAT ?_Tidy_deallocate@?$basic_string@_WU?$char_traits@_W@std@@V?$allocator@_W@2@@std@@QAEXXZ
_TEXT	SEGMENT
?_Tidy_deallocate@?$basic_string@_WU?$char_traits@_W@std@@V?$allocator@_W@2@@std@@QAEXXZ PROC ; std::basic_string<wchar_t,std::char_traits<wchar_t>,std::allocator<wchar_t> >::_Tidy_deallocate, COMDAT
; _this$ = ecx

; 3605 : 		{	// initialize buffer, deallocating any storage

	npad	2
	push	esi
	mov	esi, ecx

; 1628 : 		return (this->_BUF_SIZE <= _Myres);

	mov	eax, DWORD PTR [esi+20]
	cmp	eax, 8

; 3606 : 		this->_Orphan_all();
; 3607 : 		auto& _My_data = this->_Get_data();
; 3608 : 		if (_My_data._Large_string_engaged())

	jb	SHORT $LN2@Tidy_deall
; File c:\program files (x86)\microsoft visual studio\2017\community\vc\tools\msvc\14.10.25017\include\xmemory0

; 823  : 		_Deallocate(_Ptr, _Count, sizeof (_Ty));

	push	2
; File c:\program files (x86)\microsoft visual studio\2017\community\vc\tools\msvc\14.10.25017\include\xstring

; 3613 : 			_Al.deallocate(_Ptr, _My_data._Myres + 1);

	inc	eax
; File c:\program files (x86)\microsoft visual studio\2017\community\vc\tools\msvc\14.10.25017\include\xmemory0

; 823  : 		_Deallocate(_Ptr, _Count, sizeof (_Ty));

	push	eax
	push	DWORD PTR [esi]
	call	?_Deallocate@std@@YAXPAXII@Z		; std::_Deallocate
	add	esp, 12					; 0000000cH
$LN2@Tidy_deall:
; File c:\program files (x86)\microsoft visual studio\2017\community\vc\tools\msvc\14.10.25017\include\xstring

; 3616 : 		_My_data._Mysize = 0;

	mov	DWORD PTR [esi+16], 0
; File c:\program files (x86)\microsoft visual studio\2017\community\vc\tools\msvc\14.10.25017\include\iosfwd

; 326  : 		_Left = _Right;

	xor	eax, eax
; File c:\program files (x86)\microsoft visual studio\2017\community\vc\tools\msvc\14.10.25017\include\xstring

; 3617 : 		_My_data._Myres = this->_BUF_SIZE - 1;

	mov	DWORD PTR [esi+20], 7
; File c:\program files (x86)\microsoft visual studio\2017\community\vc\tools\msvc\14.10.25017\include\iosfwd

; 326  : 		_Left = _Right;

	mov	WORD PTR [esi], ax
	pop	esi
; File c:\program files (x86)\microsoft visual studio\2017\community\vc\tools\msvc\14.10.25017\include\xstring

; 3621 : 		}

	ret	0
?_Tidy_deallocate@?$basic_string@_WU?$char_traits@_W@std@@V?$allocator@_W@2@@std@@QAEXXZ ENDP ; std::basic_string<wchar_t,std::char_traits<wchar_t>,std::allocator<wchar_t> >::_Tidy_deallocate
_TEXT	ENDS
; Function compile flags: /Ogtp
; File c:\program files (x86)\microsoft visual studio\2017\community\vc\tools\msvc\14.10.25017\include\xstring
;	COMDAT ?c_str@?$basic_string@_WU?$char_traits@_W@std@@V?$allocator@_W@2@@std@@QBEPB_WXZ
_TEXT	SEGMENT
?c_str@?$basic_string@_WU?$char_traits@_W@std@@V?$allocator@_W@2@@std@@QBEPB_WXZ PROC ; std::basic_string<wchar_t,std::char_traits<wchar_t>,std::allocator<wchar_t> >::c_str, COMDAT
; _this$ = ecx

; 1628 : 		return (this->_BUF_SIZE <= _Myres);

	cmp	DWORD PTR [ecx+20], 8

; 1621 : 		return (_Large_string_engaged()

	jb	SHORT $LN13@c_str

; 3003 : 		return (this->_Myptr());

	mov	eax, DWORD PTR [ecx]

; 3004 : 		}

	ret	0
$LN13@c_str:

; 3003 : 		return (this->_Myptr());

	mov	eax, ecx

; 3004 : 		}

	ret	0
?c_str@?$basic_string@_WU?$char_traits@_W@std@@V?$allocator@_W@2@@std@@QBEPB_WXZ ENDP ; std::basic_string<wchar_t,std::char_traits<wchar_t>,std::allocator<wchar_t> >::c_str
_TEXT	ENDS
; Function compile flags: /Ogtp
; File c:\program files (x86)\microsoft visual studio\2017\community\vc\tools\msvc\14.10.25017\include\xstring
; File c:\program files (x86)\microsoft visual studio\2017\community\vc\tools\msvc\14.10.25017\include\xmemory0
; File c:\program files (x86)\microsoft visual studio\2017\community\vc\tools\msvc\14.10.25017\include\xstring
; File c:\program files (x86)\microsoft visual studio\2017\community\vc\tools\msvc\14.10.25017\include\xmemory0
; File c:\program files (x86)\microsoft visual studio\2017\community\vc\tools\msvc\14.10.25017\include\xstring
; File c:\program files (x86)\microsoft visual studio\2017\community\vc\tools\msvc\14.10.25017\include\iosfwd
; File c:\program files (x86)\microsoft visual studio\2017\community\vc\tools\msvc\14.10.25017\include\xstring
; File c:\program files (x86)\microsoft visual studio\2017\community\vc\tools\msvc\14.10.25017\include\iosfwd
; File c:\program files (x86)\microsoft visual studio\2017\community\vc\tools\msvc\14.10.25017\include\xstring
;	COMDAT ??1?$basic_string@_WU?$char_traits@_W@std@@V?$allocator@_W@2@@std@@QAE@XZ
_TEXT	SEGMENT
??1?$basic_string@_WU?$char_traits@_W@std@@V?$allocator@_W@2@@std@@QAE@XZ PROC ; std::basic_string<wchar_t,std::char_traits<wchar_t>,std::allocator<wchar_t> >::~basic_string<wchar_t,std::char_traits<wchar_t>,std::allocator<wchar_t> >, COMDAT
; _this$ = ecx

; 2215 : 		{	// destroy the string

	npad	2
	push	esi
	mov	esi, ecx

; 1628 : 		return (this->_BUF_SIZE <= _Myres);

	mov	eax, DWORD PTR [esi+20]
	cmp	eax, 8

; 3608 : 		if (_My_data._Large_string_engaged())

	jb	SHORT $LN4@basic_stri
; File c:\program files (x86)\microsoft visual studio\2017\community\vc\tools\msvc\14.10.25017\include\xmemory0

; 823  : 		_Deallocate(_Ptr, _Count, sizeof (_Ty));

	push	2
; File c:\program files (x86)\microsoft visual studio\2017\community\vc\tools\msvc\14.10.25017\include\xstring

; 3613 : 			_Al.deallocate(_Ptr, _My_data._Myres + 1);

	inc	eax
; File c:\program files (x86)\microsoft visual studio\2017\community\vc\tools\msvc\14.10.25017\include\xmemory0

; 823  : 		_Deallocate(_Ptr, _Count, sizeof (_Ty));

	push	eax
	push	DWORD PTR [esi]
	call	?_Deallocate@std@@YAXPAXII@Z		; std::_Deallocate
	add	esp, 12					; 0000000cH
$LN4@basic_stri:
; File c:\program files (x86)\microsoft visual studio\2017\community\vc\tools\msvc\14.10.25017\include\xstring

; 3616 : 		_My_data._Mysize = 0;

	mov	DWORD PTR [esi+16], 0
; File c:\program files (x86)\microsoft visual studio\2017\community\vc\tools\msvc\14.10.25017\include\iosfwd

; 326  : 		_Left = _Right;

	xor	eax, eax
; File c:\program files (x86)\microsoft visual studio\2017\community\vc\tools\msvc\14.10.25017\include\xstring

; 3617 : 		_My_data._Myres = this->_BUF_SIZE - 1;

	mov	DWORD PTR [esi+20], 7
; File c:\program files (x86)\microsoft visual studio\2017\community\vc\tools\msvc\14.10.25017\include\iosfwd

; 326  : 		_Left = _Right;

	mov	WORD PTR [esi], ax
	pop	esi
; File c:\program files (x86)\microsoft visual studio\2017\community\vc\tools\msvc\14.10.25017\include\xstring

; 2217 : 		}

	ret	0
??1?$basic_string@_WU?$char_traits@_W@std@@V?$allocator@_W@2@@std@@QAE@XZ ENDP ; std::basic_string<wchar_t,std::char_traits<wchar_t>,std::allocator<wchar_t> >::~basic_string<wchar_t,std::char_traits<wchar_t>,std::allocator<wchar_t> >
_TEXT	ENDS
; Function compile flags: /Ogtp
;	COMDAT ??1?$_String_alloc@U?$_String_base_types@_WV?$allocator@_W@std@@@std@@@std@@QAE@XZ
_TEXT	SEGMENT
??1?$_String_alloc@U?$_String_base_types@_WV?$allocator@_W@std@@@std@@@std@@QAE@XZ PROC ; std::_String_alloc<std::_String_base_types<wchar_t,std::allocator<wchar_t> > >::~_String_alloc<std::_String_base_types<wchar_t,std::allocator<wchar_t> > >, COMDAT
; _this$ = ecx
	ret	0
??1?$_String_alloc@U?$_String_base_types@_WV?$allocator@_W@std@@@std@@@std@@QAE@XZ ENDP ; std::_String_alloc<std::_String_base_types<wchar_t,std::allocator<wchar_t> > >::~_String_alloc<std::_String_base_types<wchar_t,std::allocator<wchar_t> > >
_TEXT	ENDS
; Function compile flags: /Ogtp
;	COMDAT ??1?$_Compressed_pair@U?$_Wrap_alloc@V?$allocator@_W@std@@@std@@V?$_String_val@U?$_Simple_types@_W@std@@@2@$00@std@@QAE@XZ
_TEXT	SEGMENT
??1?$_Compressed_pair@U?$_Wrap_alloc@V?$allocator@_W@std@@@std@@V?$_String_val@U?$_Simple_types@_W@std@@@2@$00@std@@QAE@XZ PROC ; std::_Compressed_pair<std::_Wrap_alloc<std::allocator<wchar_t> >,std::_String_val<std::_Simple_types<wchar_t> >,1>::~_Compressed_pair<std::_Wrap_alloc<std::allocator<wchar_t> >,std::_String_val<std::_Simple_types<wchar_t> >,1>, COMDAT
; _this$ = ecx
	ret	0
??1?$_Compressed_pair@U?$_Wrap_alloc@V?$allocator@_W@std@@@std@@V?$_String_val@U?$_Simple_types@_W@std@@@2@$00@std@@QAE@XZ ENDP ; std::_Compressed_pair<std::_Wrap_alloc<std::allocator<wchar_t> >,std::_String_val<std::_Simple_types<wchar_t> >,1>::~_Compressed_pair<std::_Wrap_alloc<std::allocator<wchar_t> >,std::_String_val<std::_Simple_types<wchar_t> >,1>
_TEXT	ENDS
; Function compile flags: /Ogtp
; File c:\program files (x86)\microsoft visual studio\2017\community\vc\tools\msvc\14.10.25017\include\xutility
;	COMDAT ?_Get_second@?$_Compressed_pair@U?$_Wrap_alloc@V?$allocator@_W@std@@@std@@V?$_String_val@U?$_Simple_types@_W@std@@@2@$00@std@@QBEABV?$_String_val@U?$_Simple_types@_W@std@@@2@XZ
_TEXT	SEGMENT
?_Get_second@?$_Compressed_pair@U?$_Wrap_alloc@V?$allocator@_W@std@@@std@@V?$_String_val@U?$_Simple_types@_W@std@@@2@$00@std@@QBEABV?$_String_val@U?$_Simple_types@_W@std@@@2@XZ PROC ; std::_Compressed_pair<std::_Wrap_alloc<std::allocator<wchar_t> >,std::_String_val<std::_Simple_types<wchar_t> >,1>::_Get_second, COMDAT
; _this$ = ecx

; 343  : 		return (_Myval2);

	mov	eax, ecx

; 344  : 		}

	ret	0
?_Get_second@?$_Compressed_pair@U?$_Wrap_alloc@V?$allocator@_W@std@@@std@@V?$_String_val@U?$_Simple_types@_W@std@@@2@$00@std@@QBEABV?$_String_val@U?$_Simple_types@_W@std@@@2@XZ ENDP ; std::_Compressed_pair<std::_Wrap_alloc<std::allocator<wchar_t> >,std::_String_val<std::_Simple_types<wchar_t> >,1>::_Get_second
_TEXT	ENDS
; Function compile flags: /Ogtp
; File c:\program files (x86)\microsoft visual studio\2017\community\vc\tools\msvc\14.10.25017\include\xutility
;	COMDAT ?_Get_second@?$_Compressed_pair@U?$_Wrap_alloc@V?$allocator@_W@std@@@std@@V?$_String_val@U?$_Simple_types@_W@std@@@2@$00@std@@QAEAAV?$_String_val@U?$_Simple_types@_W@std@@@2@XZ
_TEXT	SEGMENT
?_Get_second@?$_Compressed_pair@U?$_Wrap_alloc@V?$allocator@_W@std@@@std@@V?$_String_val@U?$_Simple_types@_W@std@@@2@$00@std@@QAEAAV?$_String_val@U?$_Simple_types@_W@std@@@2@XZ PROC ; std::_Compressed_pair<std::_Wrap_alloc<std::allocator<wchar_t> >,std::_String_val<std::_Simple_types<wchar_t> >,1>::_Get_second, COMDAT
; _this$ = ecx

; 338  : 		return (_Myval2);

	mov	eax, ecx

; 339  : 		}

	ret	0
?_Get_second@?$_Compressed_pair@U?$_Wrap_alloc@V?$allocator@_W@std@@@std@@V?$_String_val@U?$_Simple_types@_W@std@@@2@$00@std@@QAEAAV?$_String_val@U?$_Simple_types@_W@std@@@2@XZ ENDP ; std::_Compressed_pair<std::_Wrap_alloc<std::allocator<wchar_t> >,std::_String_val<std::_Simple_types<wchar_t> >,1>::_Get_second
_TEXT	ENDS
; Function compile flags: /Ogtp
; File c:\program files (x86)\microsoft visual studio\2017\community\vc\tools\msvc\14.10.25017\include\xutility
;	COMDAT ?_Get_first@?$_Compressed_pair@U?$_Wrap_alloc@V?$allocator@_W@std@@@std@@V?$_String_val@U?$_Simple_types@_W@std@@@2@$00@std@@QAEAAU?$_Wrap_alloc@V?$allocator@_W@std@@@2@XZ
_TEXT	SEGMENT
?_Get_first@?$_Compressed_pair@U?$_Wrap_alloc@V?$allocator@_W@std@@@std@@V?$_String_val@U?$_Simple_types@_W@std@@@2@$00@std@@QAEAAU?$_Wrap_alloc@V?$allocator@_W@std@@@2@XZ PROC ; std::_Compressed_pair<std::_Wrap_alloc<std::allocator<wchar_t> >,std::_String_val<std::_Simple_types<wchar_t> >,1>::_Get_first, COMDAT
; _this$ = ecx

; 318  : 		return (*this);

	mov	eax, ecx

; 319  : 		}

	ret	0
?_Get_first@?$_Compressed_pair@U?$_Wrap_alloc@V?$allocator@_W@std@@@std@@V?$_String_val@U?$_Simple_types@_W@std@@@2@$00@std@@QAEAAU?$_Wrap_alloc@V?$allocator@_W@std@@@2@XZ ENDP ; std::_Compressed_pair<std::_Wrap_alloc<std::allocator<wchar_t> >,std::_String_val<std::_Simple_types<wchar_t> >,1>::_Get_first
_TEXT	ENDS
; Function compile flags: /Ogtp
; File c:\program files (x86)\microsoft visual studio\2017\community\vc\tools\msvc\14.10.25017\include\xstring
;	COMDAT ?_Get_data@?$_String_alloc@U?$_String_base_types@_WV?$allocator@_W@std@@@std@@@std@@QBEABV?$_String_val@U?$_Simple_types@_W@std@@@2@XZ
_TEXT	SEGMENT
?_Get_data@?$_String_alloc@U?$_String_base_types@_WV?$allocator@_W@std@@@std@@@std@@QBEABV?$_String_val@U?$_Simple_types@_W@std@@@2@XZ PROC ; std::_String_alloc<std::_String_base_types<wchar_t,std::allocator<wchar_t> > >::_Get_data, COMDAT
; _this$ = ecx

; 1834 : 		return (_Mypair._Get_second());

	mov	eax, ecx

; 1835 : 		}

	ret	0
?_Get_data@?$_String_alloc@U?$_String_base_types@_WV?$allocator@_W@std@@@std@@@std@@QBEABV?$_String_val@U?$_Simple_types@_W@std@@@2@XZ ENDP ; std::_String_alloc<std::_String_base_types<wchar_t,std::allocator<wchar_t> > >::_Get_data
_TEXT	ENDS
; Function compile flags: /Ogtp
; File c:\program files (x86)\microsoft visual studio\2017\community\vc\tools\msvc\14.10.25017\include\xstring
;	COMDAT ?_Get_data@?$_String_alloc@U?$_String_base_types@_WV?$allocator@_W@std@@@std@@@std@@QAEAAV?$_String_val@U?$_Simple_types@_W@std@@@2@XZ
_TEXT	SEGMENT
?_Get_data@?$_String_alloc@U?$_String_base_types@_WV?$allocator@_W@std@@@std@@@std@@QAEAAV?$_String_val@U?$_Simple_types@_W@std@@@2@XZ PROC ; std::_String_alloc<std::_String_base_types<wchar_t,std::allocator<wchar_t> > >::_Get_data, COMDAT
; _this$ = ecx

; 1829 : 		return (_Mypair._Get_second());

	mov	eax, ecx

; 1830 : 		}

	ret	0
?_Get_data@?$_String_alloc@U?$_String_base_types@_WV?$allocator@_W@std@@@std@@@std@@QAEAAV?$_String_val@U?$_Simple_types@_W@std@@@2@XZ ENDP ; std::_String_alloc<std::_String_base_types<wchar_t,std::allocator<wchar_t> > >::_Get_data
_TEXT	ENDS
; Function compile flags: /Ogtp
; File c:\program files (x86)\microsoft visual studio\2017\community\vc\tools\msvc\14.10.25017\include\xstring
;	COMDAT ?_Getal@?$_String_alloc@U?$_String_base_types@_WV?$allocator@_W@std@@@std@@@std@@QAEAAU?$_Wrap_alloc@V?$allocator@_W@std@@@2@XZ
_TEXT	SEGMENT
?_Getal@?$_String_alloc@U?$_String_base_types@_WV?$allocator@_W@std@@@std@@@std@@QAEAAU?$_Wrap_alloc@V?$allocator@_W@std@@@2@XZ PROC ; std::_String_alloc<std::_String_base_types<wchar_t,std::allocator<wchar_t> > >::_Getal, COMDAT
; _this$ = ecx

; 1819 : 		return (_Mypair._Get_first());

	mov	eax, ecx

; 1820 : 		}

	ret	0
?_Getal@?$_String_alloc@U?$_String_base_types@_WV?$allocator@_W@std@@@std@@@std@@QAEAAU?$_Wrap_alloc@V?$allocator@_W@std@@@2@XZ ENDP ; std::_String_alloc<std::_String_base_types<wchar_t,std::allocator<wchar_t> > >::_Getal
_TEXT	ENDS
; Function compile flags: /Ogtp
; File c:\program files (x86)\microsoft visual studio\2017\community\vc\tools\msvc\14.10.25017\include\xstring
;	COMDAT ?_Orphan_all@?$_String_alloc@U?$_String_base_types@_WV?$allocator@_W@std@@@std@@@std@@QAEXXZ
_TEXT	SEGMENT
?_Orphan_all@?$_String_alloc@U?$_String_base_types@_WV?$allocator@_W@std@@@std@@@std@@QAEXXZ PROC ; std::_String_alloc<std::_String_base_types<wchar_t,std::allocator<wchar_t> > >::_Orphan_all, COMDAT
; _this$ = ecx

; 1809 : 		_Get_data()._Orphan_all();
; 1810 : 		}

	ret	0
?_Orphan_all@?$_String_alloc@U?$_String_base_types@_WV?$allocator@_W@std@@@std@@@std@@QAEXXZ ENDP ; std::_String_alloc<std::_String_base_types<wchar_t,std::allocator<wchar_t> > >::_Orphan_all
_TEXT	ENDS
; Function compile flags: /Ogtp
; File c:\program files (x86)\microsoft visual studio\2017\community\vc\tools\msvc\14.10.25017\include\xstring
;	COMDAT ?_Myptr@?$_String_alloc@U?$_String_base_types@_WV?$allocator@_W@std@@@std@@@std@@QBEPB_WXZ
_TEXT	SEGMENT
?_Myptr@?$_String_alloc@U?$_String_base_types@_WV?$allocator@_W@std@@@std@@@std@@QBEPB_WXZ PROC ; std::_String_alloc<std::_String_base_types<wchar_t,std::allocator<wchar_t> > >::_Myptr, COMDAT
; _this$ = ecx

; 1628 : 		return (this->_BUF_SIZE <= _Myres);

	cmp	DWORD PTR [ecx+20], 8

; 1621 : 		return (_Large_string_engaged()

	jb	SHORT $LN11@Myptr

; 1690 : 		return (_Get_data()._Myptr());

	mov	eax, DWORD PTR [ecx]

; 1691 : 		}

	ret	0
$LN11@Myptr:

; 1690 : 		return (_Get_data()._Myptr());

	mov	eax, ecx

; 1691 : 		}

	ret	0
?_Myptr@?$_String_alloc@U?$_String_base_types@_WV?$allocator@_W@std@@@std@@@std@@QBEPB_WXZ ENDP ; std::_String_alloc<std::_String_base_types<wchar_t,std::allocator<wchar_t> > >::_Myptr
_TEXT	ENDS
; Function compile flags: /Ogtp
;	COMDAT ??1?$_String_val@U?$_Simple_types@_W@std@@@std@@QAE@XZ
_TEXT	SEGMENT
??1?$_String_val@U?$_Simple_types@_W@std@@@std@@QAE@XZ PROC ; std::_String_val<std::_Simple_types<wchar_t> >::~_String_val<std::_Simple_types<wchar_t> >, COMDAT
; _this$ = ecx
	ret	0
??1?$_String_val@U?$_Simple_types@_W@std@@@std@@QAE@XZ ENDP ; std::_String_val<std::_Simple_types<wchar_t> >::~_String_val<std::_Simple_types<wchar_t> >
_TEXT	ENDS
; Function compile flags: /Ogtp
; File c:\program files (x86)\microsoft visual studio\2017\community\vc\tools\msvc\14.10.25017\include\xstring
;	COMDAT ??1_Bxty@?$_String_val@U?$_Simple_types@_W@std@@@std@@QAE@XZ
_TEXT	SEGMENT
??1_Bxty@?$_String_val@U?$_Simple_types@_W@std@@@std@@QAE@XZ PROC ; std::_String_val<std::_Simple_types<wchar_t> >::_Bxty::~_Bxty, COMDAT
; _this$ = ecx

; 1639 : 			}

	ret	0
??1_Bxty@?$_String_val@U?$_Simple_types@_W@std@@@std@@QAE@XZ ENDP ; std::_String_val<std::_Simple_types<wchar_t> >::_Bxty::~_Bxty
_TEXT	ENDS
; Function compile flags: /Ogtp
; File c:\program files (x86)\microsoft visual studio\2017\community\vc\tools\msvc\14.10.25017\include\xstring
;	COMDAT ?_Large_string_engaged@?$_String_val@U?$_Simple_types@_W@std@@@std@@QBE_NXZ
_TEXT	SEGMENT
?_Large_string_engaged@?$_String_val@U?$_Simple_types@_W@std@@@std@@QBE_NXZ PROC ; std::_String_val<std::_Simple_types<wchar_t> >::_Large_string_engaged, COMDAT
; _this$ = ecx

; 1627 : 		{	// returns whether the large string mode (allocated memory) is engaged

	cmp	DWORD PTR [ecx+20], 8
	setae	al

; 1628 : 		return (this->_BUF_SIZE <= _Myres);
; 1629 : 		}

	ret	0
?_Large_string_engaged@?$_String_val@U?$_Simple_types@_W@std@@@std@@QBE_NXZ ENDP ; std::_String_val<std::_Simple_types<wchar_t> >::_Large_string_engaged
_TEXT	ENDS
; Function compile flags: /Ogtp
; File c:\program files (x86)\microsoft visual studio\2017\community\vc\tools\msvc\14.10.25017\include\xstring
;	COMDAT ?_Myptr@?$_String_val@U?$_Simple_types@_W@std@@@std@@QBEPB_WXZ
_TEXT	SEGMENT
?_Myptr@?$_String_val@U?$_Simple_types@_W@std@@@std@@QBEPB_WXZ PROC ; std::_String_val<std::_Simple_types<wchar_t> >::_Myptr, COMDAT
; _this$ = ecx

; 1628 : 		return (this->_BUF_SIZE <= _Myres);

	cmp	DWORD PTR [ecx+20], 8

; 1621 : 		return (_Large_string_engaged()

	jb	SHORT $LN3@Myptr
	mov	eax, DWORD PTR [ecx]

; 1622 : 			? _Unfancy(_Bx._Ptr)
; 1623 : 			: _Bx._Buf);
; 1624 : 		}

	ret	0
$LN3@Myptr:

; 1621 : 		return (_Large_string_engaged()

	mov	eax, ecx

; 1622 : 			? _Unfancy(_Bx._Ptr)
; 1623 : 			: _Bx._Buf);
; 1624 : 		}

	ret	0
?_Myptr@?$_String_val@U?$_Simple_types@_W@std@@@std@@QBEPB_WXZ ENDP ; std::_String_val<std::_Simple_types<wchar_t> >::_Myptr
_TEXT	ENDS
; Function compile flags: /Ogtp
; File c:\program files (x86)\microsoft visual studio\2017\community\vc\tools\msvc\14.10.25017\include\xmemory0
;	COMDAT ?deallocate@?$_Wrap_alloc@V?$allocator@_W@std@@@std@@QAEXPA_WI@Z
_TEXT	SEGMENT
__Ptr$ = 8						; size = 4
__Count$ = 12						; size = 4
?deallocate@?$_Wrap_alloc@V?$allocator@_W@std@@@std@@QAEXPA_WI@Z PROC ; std::_Wrap_alloc<std::allocator<wchar_t> >::deallocate, COMDAT
; _this$ = ecx

; 1087 : 		{	// deallocate object at _Ptr, ignore size

	npad	2
	push	ebp
	mov	ebp, esp

; 823  : 		_Deallocate(_Ptr, _Count, sizeof (_Ty));

	push	2
	push	DWORD PTR __Count$[ebp]
	push	DWORD PTR __Ptr$[ebp]
	call	?_Deallocate@std@@YAXPAXII@Z		; std::_Deallocate
	add	esp, 12					; 0000000cH

; 1088 : 		_Mybase::deallocate(_Ptr, _Count);
; 1089 : 		}

	pop	ebp
	ret	8
?deallocate@?$_Wrap_alloc@V?$allocator@_W@std@@@std@@QAEXPA_WI@Z ENDP ; std::_Wrap_alloc<std::allocator<wchar_t> >::deallocate
_TEXT	ENDS
; Function compile flags: /Ogtp
; File c:\program files (x86)\microsoft visual studio\2017\community\vc\tools\msvc\14.10.25017\include\xmemory0
;	COMDAT ?deallocate@?$allocator@_W@std@@QAEXPA_WI@Z
_TEXT	SEGMENT
__Ptr$ = 8						; size = 4
__Count$ = 12						; size = 4
?deallocate@?$allocator@_W@std@@QAEXPA_WI@Z PROC	; std::allocator<wchar_t>::deallocate, COMDAT
; _this$ = ecx

; 822  : 		{	// deallocate object at _Ptr

	npad	2
	push	ebp
	mov	ebp, esp

; 823  : 		_Deallocate(_Ptr, _Count, sizeof (_Ty));

	push	2
	push	DWORD PTR __Count$[ebp]
	push	DWORD PTR __Ptr$[ebp]
	call	?_Deallocate@std@@YAXPAXII@Z		; std::_Deallocate
	add	esp, 12					; 0000000cH

; 824  : 		}

	pop	ebp
	ret	8
?deallocate@?$allocator@_W@std@@QAEXPA_WI@Z ENDP	; std::allocator<wchar_t>::deallocate
_TEXT	ENDS
; Function compile flags: /Ogtp
; File c:\program files (x86)\microsoft visual studio\2017\community\vc\tools\msvc\14.10.25017\include\xmemory0
;	COMDAT ?_Deallocate@std@@YAXPAXII@Z
_TEXT	SEGMENT
__Ptr$ = 8						; size = 4
__Count$ = 12						; size = 4
__Sz$ = 16						; size = 4
?_Deallocate@std@@YAXPAXII@Z PROC			; std::_Deallocate, COMDAT

; 96   : 	{	// deallocate storage for _Count elements of size _Sz

	npad	2
	push	ebp
	mov	ebp, esp

; 97   :  #if defined(_M_IX86) || defined(_M_X64)
; 98   : 	_SCL_SECURE_ALWAYS_VALIDATE(_Count <= (size_t)(-1) / _Sz);

	or	eax, -1
	mov	ecx, DWORD PTR __Count$[ebp]
	xor	edx, edx
	div	DWORD PTR __Sz$[ebp]
	cmp	ecx, eax
	jbe	SHORT $LN2@Deallocate
	jmp	DWORD PTR __imp___invalid_parameter_noinfo_noreturn
$LN2@Deallocate:

; 99   : 	const size_t _User_size = _Count * _Sz;

	imul	ecx, DWORD PTR __Sz$[ebp]

; 100  : 	if (_BIG_ALLOCATION_THRESHOLD <= _User_size)

	cmp	ecx, 4096				; 00001000H
	jb	SHORT $LN9@Deallocate

; 101  : 		{	// deallocate large block
; 102  : 		const uintptr_t _Ptr_user = reinterpret_cast<uintptr_t>(_Ptr);
; 103  : 		_SCL_SECURE_ALWAYS_VALIDATE(

	mov	eax, DWORD PTR __Ptr$[ebp]
	test	al, 31					; 0000001fH
	je	SHORT $LN4@Deallocate
	jmp	DWORD PTR __imp___invalid_parameter_noinfo_noreturn
$LN4@Deallocate:

; 104  : 			(_Ptr_user & (_BIG_ALLOCATION_ALIGNMENT - 1)) == 0);
; 105  : 		const uintptr_t _Ptr_ptr = _Ptr_user - sizeof(void *);
; 106  : 		const uintptr_t _Ptr_container =
; 107  : 			*reinterpret_cast<uintptr_t *>(_Ptr_ptr);

	mov	ecx, DWORD PTR [eax-4]

; 108  : 
; 109  :  #ifdef _DEBUG
; 110  : 		// If the following asserts, it likely means that we are performing
; 111  : 		// an aligned delete on memory coming from an unaligned allocation.
; 112  : 		_SCL_SECURE_ALWAYS_VALIDATE(
; 113  : 			reinterpret_cast<uintptr_t *>(_Ptr_ptr)[-1] ==
; 114  : 				_BIG_ALLOCATION_SENTINEL);
; 115  :  #endif /* _DEBUG */
; 116  : 
; 117  : 		// Extra paranoia on aligned allocation/deallocation
; 118  : 		_SCL_SECURE_ALWAYS_VALIDATE(_Ptr_container < _Ptr_user);

	cmp	ecx, eax
	jb	SHORT $LN5@Deallocate
	jmp	DWORD PTR __imp___invalid_parameter_noinfo_noreturn
$LN5@Deallocate:

; 119  : 
; 120  :  #ifdef _DEBUG
; 121  : 		_SCL_SECURE_ALWAYS_VALIDATE(2 * sizeof(void *)
; 122  : 			<= _Ptr_user - _Ptr_container);
; 123  : 
; 124  :  #else /* _DEBUG */
; 125  : 		_SCL_SECURE_ALWAYS_VALIDATE(sizeof(void *)

	sub	eax, ecx
	cmp	eax, 4
	jae	SHORT $LN6@Deallocate
	jmp	DWORD PTR __imp___invalid_parameter_noinfo_noreturn
$LN6@Deallocate:

; 126  : 			<= _Ptr_user - _Ptr_container);
; 127  :  #endif /* _DEBUG */
; 128  : 
; 129  : 		_SCL_SECURE_ALWAYS_VALIDATE(_Ptr_user - _Ptr_container

	cmp	eax, 35					; 00000023H
	jbe	SHORT $LN3@Deallocate
	jmp	DWORD PTR __imp___invalid_parameter_noinfo_noreturn
$LN9@Deallocate:

; 130  : 			<= _NON_USER_SIZE);
; 131  : 
; 132  : 		_Ptr = reinterpret_cast<void *>(_Ptr_container);

	mov	ecx, DWORD PTR __Ptr$[ebp]
$LN3@Deallocate:

; 133  : 		}
; 134  : 
; 135  :  #else /* defined(_M_IX86) || defined(_M_X64) */
; 136  : 	static_cast<void>(_Count);
; 137  : 	static_cast<void>(_Sz);
; 138  :  #endif /* defined(_M_IX86) || defined(_M_X64) */
; 139  : 
; 140  : 	::operator delete(_Ptr);

	push	ecx
	call	??3@YAXPAX@Z				; operator delete
	add	esp, 4

; 141  : 	}

	pop	ebp
	ret	0
?_Deallocate@std@@YAXPAXII@Z ENDP			; std::_Deallocate
_TEXT	ENDS
; Function compile flags: /Ogtp
; File c:\program files (x86)\microsoft visual studio\2017\community\vc\tools\msvc\14.10.25017\include\xutility
;	COMDAT ?_Orphan_all@_Container_base0@std@@QAEXXZ
_TEXT	SEGMENT
?_Orphan_all@_Container_base0@std@@QAEXXZ PROC		; std::_Container_base0::_Orphan_all, COMDAT
; _this$ = ecx

; 64   : 		}

	ret	0
?_Orphan_all@_Container_base0@std@@QAEXXZ ENDP		; std::_Container_base0::_Orphan_all
_TEXT	ENDS
; Function compile flags: /Ogtp
; File c:\program files (x86)\microsoft visual studio\2017\community\vc\tools\msvc\14.10.25017\include\iosfwd
;	COMDAT ?assign@?$char_traits@_W@std@@SAXAA_WAB_W@Z
_TEXT	SEGMENT
__Left$ = 8						; size = 4
__Right$ = 12						; size = 4
?assign@?$char_traits@_W@std@@SAXAA_WAB_W@Z PROC	; std::char_traits<wchar_t>::assign, COMDAT

; 325  : 		{	// assign an element

	npad	2
	push	ebp
	mov	ebp, esp

; 326  : 		_Left = _Right;

	mov	eax, DWORD PTR __Right$[ebp]
	mov	cx, WORD PTR [eax]
	mov	eax, DWORD PTR __Left$[ebp]
	mov	WORD PTR [eax], cx

; 327  : 		}

	pop	ebp
	ret	0
?assign@?$char_traits@_W@std@@SAXAA_WAB_W@Z ENDP	; std::char_traits<wchar_t>::assign
_TEXT	ENDS
; Function compile flags: /Ogtp
; File c:\users\andon\source\repos\specialk\src\vulkan.cpp
; File c:\program files (x86)\windows kits\8.1\include\um\winnt.h
; File c:\users\andon\source\repos\specialk\src\vulkan.cpp
_TEXT	SEGMENT
?SK_UsingVulkan@@YAHXZ PROC				; SK_UsingVulkan
; File c:\program files (x86)\windows kits\8.1\include\um\winnt.h

; 8063 :     Value = *Source;

	mov	eax, DWORD PTR ?__vk_ready@@3JC		; __vk_ready
; File c:\users\andon\source\repos\specialk\src\vulkan.cpp

; 339  : }

	ret	0
?SK_UsingVulkan@@YAHXZ ENDP				; SK_UsingVulkan
_TEXT	ENDS
; Function compile flags: /Ogtp
; File c:\users\andon\source\repos\specialk\src\vulkan.cpp
_TEXT	SEGMENT
?Shutdown@Vulkan@SK@@YA_NXZ PROC			; SK::Vulkan::Shutdown

; 327  :   if (hModVk != nullptr)

	mov	eax, DWORD PTR ?hModVk@Vulkan@SK@@3PAUHINSTANCE__@@A ; SK::Vulkan::hModVk
	test	eax, eax
	je	SHORT $LN2@Shutdown

; 328  :   {
; 329  :     FreeLibrary (hModVk);

	push	eax
	call	DWORD PTR __imp__FreeLibrary@4

; 330  :     hModVk = nullptr;

	mov	DWORD PTR ?hModVk@Vulkan@SK@@3PAUHINSTANCE__@@A, 0 ; SK::Vulkan::hModVk
$LN2@Shutdown:

; 331  :   }
; 332  : 
; 333  :   return SK_ShutdownCore (L"Vulkan");

	push	OFFSET $SG120766
	call	?SK_ShutdownCore@@YG_NPB_W@Z		; SK_ShutdownCore

; 334  : }

	ret	0
?Shutdown@Vulkan@SK@@YA_NXZ ENDP			; SK::Vulkan::Shutdown
_TEXT	ENDS
; Function compile flags: /Ogtp
; File c:\users\andon\source\repos\specialk\src\vulkan.cpp
_TEXT	SEGMENT
?Startup@Vulkan@SK@@YA_NXZ PROC				; SK::Vulkan::Startup

; 321  :   return SK_StartupCore (L"Vulkan", vulkan_init_callback);

	push	OFFSET ?vulkan_init_callback@@YGXP6GXXZ@Z ; vulkan_init_callback
	push	OFFSET $SG120761
	call	?SK_StartupCore@@YG_NPB_WPAX@Z		; SK_StartupCore

; 322  : }

	ret	0
?Startup@Vulkan@SK@@YA_NXZ ENDP				; SK::Vulkan::Startup
_TEXT	ENDS
; Function compile flags: /Ogtp
; File c:\program files (x86)\windows kits\8.1\include\um\winnt.h
;	COMDAT _ReadAcquire
_TEXT	SEGMENT
_Source$ = 8						; size = 4
_ReadAcquire PROC					; COMDAT

; 8059 : {

	npad	2
	push	ebp
	mov	ebp, esp

; 8060 : 
; 8061 :     LONG Value;
; 8062 : 
; 8063 :     Value = *Source;

	mov	eax, DWORD PTR _Source$[ebp]
	mov	eax, DWORD PTR [eax]

; 8064 :     return Value;
; 8065 : }

	pop	ebp
	ret	0
_ReadAcquire ENDP
_TEXT	ENDS
; Function compile flags: /Ogtp
;	COMDAT ??_H@YGXPAXIIP6EPAX0@Z@Z
_TEXT	SEGMENT
___t$ = 8						; size = 4
___s$ = 12						; size = 4
___n$ = 16						; size = 4
___f$ = 20						; size = 4
??_H@YGXPAXIIP6EPAX0@Z@Z PROC				; `vector constructor iterator', COMDAT
	npad	2
	push	ebp
	mov	ebp, esp
	push	esi
	mov	esi, DWORD PTR ___n$[ebp]
	test	esi, esi
	je	SHORT $LN6@vector
	push	ebx
	mov	ebx, DWORD PTR ___f$[ebp]
	push	edi
	mov	edi, DWORD PTR ___t$[ebp]
$LL2@vector:
	mov	ecx, edi
	call	ebx
	add	edi, DWORD PTR ___s$[ebp]
	sub	esi, 1
	jne	SHORT $LL2@vector
	pop	edi
	pop	ebx
$LN6@vector:
	pop	esi
	pop	ebp
	ret	16					; 00000010H
??_H@YGXPAXIIP6EPAX0@Z@Z ENDP				; `vector constructor iterator'
_TEXT	ENDS
END
