; Listing generated by Microsoft (R) Optimizing Compiler Version 19.10.25019.0 

	TITLE	C:\Users\andon\Source\Repos\SpecialK\src\window.cpp
	.686P
	.XMM
	include listing.inc
	.model	flat

INCLUDELIB MSVCRT
INCLUDELIB OLDNAMES

PUBLIC	?szDelete@ATL@@3QB_WB				; ATL::szDelete
PUBLIC	_CLSID_Registrar
PUBLIC	?override_window_rects@@3_NA			; override_window_rects
PUBLIC	_IID_IRegistrar
PUBLIC	?pWindowManager@SK_WindowManager@@0PAV1@A	; SK_WindowManager::pWindowManager
PUBLIC	_IID_IDocHostUIHandlerDispatch
PUBLIC	?_pAtlAutoThreadModule@ATL@@3PAUIAtlAutoThreadModule@1@A ; ATL::_pAtlAutoThreadModule
PUBLIC	?SetWindowPlacement_Original@@3P6GHPAUHWND__@@PBUtagWINDOWPLACEMENT@@@ZA ; SetWindowPlacement_Original
PUBLIC	?GetWindowRect_Original@@3P6GHPAUHWND__@@PAUtagRECT@@@ZA ; GetWindowRect_Original
PUBLIC	?GetClientRect_Original@@3P6GHPAUHWND__@@PAUtagRECT@@@ZA ; GetClientRect_Original
PUBLIC	_IID_IAxWinHostWindow
PUBLIC	_IID_IAxWinHostWindowLic
PUBLIC	?_pAtlModule@ATL@@3PAVCAtlModule@1@A		; ATL::_pAtlModule
PUBLIC	_IID_IAxWinAmbientDispatch
PUBLIC	_LIBID_ATLLib
PUBLIC	?RegisterClassA_Original@@3P6GGPBUtagWNDCLASSA@@@ZA ; RegisterClassA_Original
PUBLIC	?RegisterClassW_Original@@3P6GGPBUtagWNDCLASSW@@@ZA ; RegisterClassW_Original
PUBLIC	?RegisterClassExA_Original@@3P6GGPBUtagWNDCLASSEXA@@@ZA ; RegisterClassExA_Original
PUBLIC	?RegisterClassExW_Original@@3P6GGPBUtagWNDCLASSEXW@@@ZA ; RegisterClassExW_Original
PUBLIC	?CreateWindowExA_Original@@3P6GPAUHWND__@@KPBD0KHHHHPAU1@PAUHMENU__@@PAUHINSTANCE__@@PAX@ZA ; CreateWindowExA_Original
PUBLIC	?CreateWindowExW_Original@@3P6GPAUHWND__@@KPB_W0KHHHHPAU1@PAUHMENU__@@PAUHINSTANCE__@@PAX@ZA ; CreateWindowExW_Original
PUBLIC	?TranslateMessage_Original@@3P6GHPBUtagMSG@@@ZA	; TranslateMessage_Original
PUBLIC	?PeekMessageW_Original@@3P6GHPAUtagMSG@@PAUHWND__@@III@ZA ; PeekMessageW_Original
PUBLIC	?PeekMessageA_Original@@3P6GHPAUtagMSG@@PAUHWND__@@III@ZA ; PeekMessageA_Original
PUBLIC	?GetMessageA_Original@@3P6GHPAUtagMSG@@PAUHWND__@@II@ZA ; GetMessageA_Original
PUBLIC	?GetMessageW_Original@@3P6GHPAUtagMSG@@PAUHWND__@@II@ZA ; GetMessageW_Original
PUBLIC	?DispatchMessageW_Original@@3P6GJPBUtagMSG@@@ZA	; DispatchMessageW_Original
PUBLIC	___pobjMapEntryFirst
PUBLIC	?DispatchMessageA_Original@@3P6GJPBUtagMSG@@@ZA	; DispatchMessageA_Original
PUBLIC	___pobjMapEntryLast
PUBLIC	?caught_register@@3_NA				; caught_register
PUBLIC	?last_message@@3PAUtagMSG@@A			; last_message
PUBLIC	?_pPerfRegFunc@ATL@@3P6AJPAUHINSTANCE__@@@ZA	; ATL::_pPerfRegFunc
PUBLIC	?_pPerfUnRegFunc@ATL@@3P6AJXZA			; ATL::_pPerfUnRegFunc
PUBLIC	?_AtlRegisterPerUser@ATL@@3_NA			; ATL::_AtlRegisterPerUser
PUBLIC	?_pModule@ATL@@3PAVCComModule@1@A		; ATL::_pModule
PUBLIC	_IID_IAxWinAmbientDispatchEx
PUBLIC	?g_hkCallWndProc@@3PAUHHOOK__@@A		; g_hkCallWndProc
PUBLIC	_IID_IInternalConnection
PUBLIC	?ClipCursor_Original@@3P6GHPBUtagRECT@@@ZA	; ClipCursor_Original
PUBLIC	?SetWindowPos_Original@@3P6GHPAUHWND__@@0HHHHI@ZA ; SetWindowPos_Original
PUBLIC	?MoveWindow_Original@@3P6GHPAUHWND__@@HHHHH@ZA	; MoveWindow_Original
PUBLIC	?SetWindowLongW_Original@@3P6GJPAUHWND__@@HJ@ZA	; SetWindowLongW_Original
PUBLIC	?SetWindowLongA_Original@@3P6GJPAUHWND__@@HJ@ZA	; SetWindowLongA_Original
PUBLIC	?GetWindowLongW_Original@@3P6GJPAUHWND__@@H@ZA	; GetWindowLongW_Original
PUBLIC	?GetWindowLongA_Original@@3P6GJPAUHWND__@@H@ZA	; GetWindowLongA_Original
PUBLIC	?SetWindowLongPtrW_Original@@3P6GJPAUHWND__@@HJ@ZA ; SetWindowLongPtrW_Original
PUBLIC	?SetWindowLongPtrA_Original@@3P6GJPAUHWND__@@HJ@ZA ; SetWindowLongPtrA_Original
PUBLIC	?GetWindowLongPtrW_Original@@3P6GJPAUHWND__@@H@ZA ; GetWindowLongPtrW_Original
PUBLIC	?GetWindowLongPtrA_Original@@3P6GJPAUHWND__@@H@ZA ; GetWindowLongPtrA_Original
PUBLIC	?AdjustWindowRect_Original@@3P6GHPAUtagRECT@@KH@ZA ; AdjustWindowRect_Original
PUBLIC	?AdjustWindowRectEx_Original@@3P6GHPAUtagRECT@@KHK@ZA ; AdjustWindowRectEx_Original
PUBLIC	?GetSystemMetrics_Original@@3P6GHH@ZA		; GetSystemMetrics_Original
PUBLIC	?GetCursorPos_Original@@3P6GHPAUtagPOINT@@@ZA	; GetCursorPos_Original
PUBLIC	?SetCursorPos_Original@@3P6GHHH@ZA		; SetCursorPos_Original
PUBLIC	?GetCursorInfo_Original@@3P6GHPAUtagCURSORINFO@@@ZA ; GetCursorInfo_Original
PUBLIC	?SendInput_Original@@3P6GIIPAUtagINPUT@@H@ZA	; SendInput_Original
PUBLIC	?mouse_event_Original@@3P6GXKKKKK@ZA		; mouse_event_Original
PUBLIC	?game_mouselook@@3KA				; game_mouselook
PUBLIC	?game_x@@3HA					; game_x
PUBLIC	?game_y@@3HA					; game_y
PUBLIC	?chDirSep@ATL@@3_WB				; ATL::chDirSep
PUBLIC	?chRightBracket@ATL@@3_WB			; ATL::chRightBracket
PUBLIC	?chLeftBracket@ATL@@3_WB			; ATL::chLeftBracket
PUBLIC	?chQuote@ATL@@3_WB				; ATL::chQuote
PUBLIC	?chEquals@ATL@@3_WB				; ATL::chEquals
PUBLIC	?szStringVal@ATL@@3QB_WB			; ATL::szStringVal
PUBLIC	?multiszStringVal@ATL@@3QB_WB			; ATL::multiszStringVal
PUBLIC	?szDwordVal@ATL@@3QB_WB				; ATL::szDwordVal
PUBLIC	?szBinaryVal@ATL@@3QB_WB			; ATL::szBinaryVal
PUBLIC	?szValToken@ATL@@3QB_WB				; ATL::szValToken
PUBLIC	?szForceRemove@ATL@@3QB_WB			; ATL::szForceRemove
PUBLIC	?szNoRemove@ATL@@3QB_WB				; ATL::szNoRemove
_BSS	SEGMENT
?override_window_rects@@3_NA DB 01H DUP (?)		; override_window_rects
	ALIGN	4

?pWindowManager@SK_WindowManager@@0PAV1@A DD 01H DUP (?) ; SK_WindowManager::pWindowManager
_BSS	ENDS
;	COMDAT ?_pAtlAutoThreadModule@ATL@@3PAUIAtlAutoThreadModule@1@A
_BSS	SEGMENT
?_pAtlAutoThreadModule@ATL@@3PAUIAtlAutoThreadModule@1@A DD 01H DUP (?) ; ATL::_pAtlAutoThreadModule
_BSS	ENDS
_BSS	SEGMENT
?SetWindowPlacement_Original@@3P6GHPAUHWND__@@PBUtagWINDOWPLACEMENT@@@ZA DD 01H DUP (?) ; SetWindowPlacement_Original
?GetWindowRect_Original@@3P6GHPAUHWND__@@PAUtagRECT@@@ZA DD 01H DUP (?) ; GetWindowRect_Original
?GetClientRect_Original@@3P6GHPAUHWND__@@PAUtagRECT@@@ZA DD 01H DUP (?) ; GetClientRect_Original
_BSS	ENDS
;	COMDAT ?_pAtlModule@ATL@@3PAVCAtlModule@1@A
_BSS	SEGMENT
?_pAtlModule@ATL@@3PAVCAtlModule@1@A DD 01H DUP (?)	; ATL::_pAtlModule
_BSS	ENDS
_BSS	SEGMENT
?RegisterClassA_Original@@3P6GGPBUtagWNDCLASSA@@@ZA DD 01H DUP (?) ; RegisterClassA_Original
?RegisterClassW_Original@@3P6GGPBUtagWNDCLASSW@@@ZA DD 01H DUP (?) ; RegisterClassW_Original
?RegisterClassExA_Original@@3P6GGPBUtagWNDCLASSEXA@@@ZA DD 01H DUP (?) ; RegisterClassExA_Original
?RegisterClassExW_Original@@3P6GGPBUtagWNDCLASSEXW@@@ZA DD 01H DUP (?) ; RegisterClassExW_Original
?CreateWindowExA_Original@@3P6GPAUHWND__@@KPBD0KHHHHPAU1@PAUHMENU__@@PAUHINSTANCE__@@PAX@ZA DD 01H DUP (?) ; CreateWindowExA_Original
?CreateWindowExW_Original@@3P6GPAUHWND__@@KPB_W0KHHHHPAU1@PAUHMENU__@@PAUHINSTANCE__@@PAX@ZA DD 01H DUP (?) ; CreateWindowExW_Original
?TranslateMessage_Original@@3P6GHPBUtagMSG@@@ZA DD 01H DUP (?) ; TranslateMessage_Original
?PeekMessageW_Original@@3P6GHPAUtagMSG@@PAUHWND__@@III@ZA DD 01H DUP (?) ; PeekMessageW_Original
?PeekMessageA_Original@@3P6GHPAUtagMSG@@PAUHWND__@@III@ZA DD 01H DUP (?) ; PeekMessageA_Original
?GetMessageA_Original@@3P6GHPAUtagMSG@@PAUHWND__@@II@ZA DD 01H DUP (?) ; GetMessageA_Original
?GetMessageW_Original@@3P6GHPAUtagMSG@@PAUHWND__@@II@ZA DD 01H DUP (?) ; GetMessageW_Original
?DispatchMessageW_Original@@3P6GJPBUtagMSG@@@ZA DD 01H DUP (?) ; DispatchMessageW_Original
?DispatchMessageA_Original@@3P6GJPBUtagMSG@@@ZA DD 01H DUP (?) ; DispatchMessageA_Original
?caught_register@@3_NA DB 01H DUP (?)			; caught_register
	ALIGN	4

?last_message@@3PAUtagMSG@@A DD 01H DUP (?)		; last_message
?hModSteamOverlay@@3PAUHINSTANCE__@@A DD 01H DUP (?)	; hModSteamOverlay
_BSS	ENDS
;	COMDAT ?_pPerfRegFunc@ATL@@3P6AJPAUHINSTANCE__@@@ZA
_BSS	SEGMENT
?_pPerfRegFunc@ATL@@3P6AJPAUHINSTANCE__@@@ZA DD 01H DUP (?) ; ATL::_pPerfRegFunc
_BSS	ENDS
;	COMDAT ?_pPerfUnRegFunc@ATL@@3P6AJXZA
_BSS	SEGMENT
?_pPerfUnRegFunc@ATL@@3P6AJXZA DD 01H DUP (?)		; ATL::_pPerfUnRegFunc
_BSS	ENDS
;	COMDAT ?_AtlRegisterPerUser@ATL@@3_NA
_BSS	SEGMENT
?_AtlRegisterPerUser@ATL@@3_NA DB 01H DUP (?)		; ATL::_AtlRegisterPerUser
_BSS	ENDS
;	COMDAT ?_pModule@ATL@@3PAVCComModule@1@A
_BSS	SEGMENT
?_pModule@ATL@@3PAVCComModule@1@A DD 01H DUP (?)	; ATL::_pModule
_BSS	ENDS
_BSS	SEGMENT
?g_hkCallWndProc@@3PAUHHOOK__@@A DD 01H DUP (?)		; g_hkCallWndProc
?ClipCursor_Original@@3P6GHPBUtagRECT@@@ZA DD 01H DUP (?) ; ClipCursor_Original
?SetWindowPos_Original@@3P6GHPAUHWND__@@0HHHHI@ZA DD 01H DUP (?) ; SetWindowPos_Original
?MoveWindow_Original@@3P6GHPAUHWND__@@HHHHH@ZA DD 01H DUP (?) ; MoveWindow_Original
?SetWindowLongW_Original@@3P6GJPAUHWND__@@HJ@ZA DD 01H DUP (?) ; SetWindowLongW_Original
?SetWindowLongA_Original@@3P6GJPAUHWND__@@HJ@ZA DD 01H DUP (?) ; SetWindowLongA_Original
?GetWindowLongW_Original@@3P6GJPAUHWND__@@H@ZA DD 01H DUP (?) ; GetWindowLongW_Original
?GetWindowLongA_Original@@3P6GJPAUHWND__@@H@ZA DD 01H DUP (?) ; GetWindowLongA_Original
?SetWindowLongPtrW_Original@@3P6GJPAUHWND__@@HJ@ZA DD 01H DUP (?) ; SetWindowLongPtrW_Original
?SetWindowLongPtrA_Original@@3P6GJPAUHWND__@@HJ@ZA DD 01H DUP (?) ; SetWindowLongPtrA_Original
?GetWindowLongPtrW_Original@@3P6GJPAUHWND__@@H@ZA DD 01H DUP (?) ; GetWindowLongPtrW_Original
?GetWindowLongPtrA_Original@@3P6GJPAUHWND__@@H@ZA DD 01H DUP (?) ; GetWindowLongPtrA_Original
?AdjustWindowRect_Original@@3P6GHPAUtagRECT@@KH@ZA DD 01H DUP (?) ; AdjustWindowRect_Original
?AdjustWindowRectEx_Original@@3P6GHPAUtagRECT@@KHK@ZA DD 01H DUP (?) ; AdjustWindowRectEx_Original
?GetSystemMetrics_Original@@3P6GHH@ZA DD 01H DUP (?)	; GetSystemMetrics_Original
?GetCursorPos_Original@@3P6GHPAUtagPOINT@@@ZA DD 01H DUP (?) ; GetCursorPos_Original
?SetCursorPos_Original@@3P6GHHH@ZA DD 01H DUP (?)	; SetCursorPos_Original
?GetCursorInfo_Original@@3P6GHPAUtagCURSORINFO@@@ZA DD 01H DUP (?) ; GetCursorInfo_Original
?SendInput_Original@@3P6GIIPAUtagINPUT@@H@ZA DD 01H DUP (?) ; SendInput_Original
?mouse_event_Original@@3P6GXKKKKK@ZA DD 01H DUP (?)	; mouse_event_Original
?game_mouselook@@3KA DD 01H DUP (?)			; game_mouselook
?game_x@@3HA DD	01H DUP (?)				; game_x
?game_y@@3HA DD	01H DUP (?)				; game_y
_BSS	ENDS
;	COMDAT ?szNoRemove@ATL@@3QB_WB
CONST	SEGMENT
?szNoRemove@ATL@@3QB_WB DD FLAT:$SG181247		; ATL::szNoRemove
CONST	ENDS
;	COMDAT ?szForceRemove@ATL@@3QB_WB
CONST	SEGMENT
?szForceRemove@ATL@@3QB_WB DD FLAT:$SG181245		; ATL::szForceRemove
CONST	ENDS
;	COMDAT ?szValToken@ATL@@3QB_WB
CONST	SEGMENT
?szValToken@ATL@@3QB_WB DD FLAT:$SG181243		; ATL::szValToken
CONST	ENDS
;	COMDAT ?szBinaryVal@ATL@@3QB_WB
CONST	SEGMENT
?szBinaryVal@ATL@@3QB_WB DD FLAT:$SG181241		; ATL::szBinaryVal
CONST	ENDS
;	COMDAT ?szDwordVal@ATL@@3QB_WB
CONST	SEGMENT
?szDwordVal@ATL@@3QB_WB DD FLAT:$SG181239		; ATL::szDwordVal
CONST	ENDS
;	COMDAT ?multiszStringVal@ATL@@3QB_WB
CONST	SEGMENT
?multiszStringVal@ATL@@3QB_WB DD FLAT:$SG181237		; ATL::multiszStringVal
CONST	ENDS
;	COMDAT ?szStringVal@ATL@@3QB_WB
CONST	SEGMENT
?szStringVal@ATL@@3QB_WB DD FLAT:$SG181235		; ATL::szStringVal
CONST	ENDS
;	COMDAT ?chEquals@ATL@@3_WB
CONST	SEGMENT
?chEquals@ATL@@3_WB DW 03dH				; ATL::chEquals
CONST	ENDS
;	COMDAT ?chQuote@ATL@@3_WB
CONST	SEGMENT
?chQuote@ATL@@3_WB DW 027H				; ATL::chQuote
CONST	ENDS
;	COMDAT ?chLeftBracket@ATL@@3_WB
CONST	SEGMENT
?chLeftBracket@ATL@@3_WB DW 07bH			; ATL::chLeftBracket
CONST	ENDS
;	COMDAT ?chRightBracket@ATL@@3_WB
CONST	SEGMENT
?chRightBracket@ATL@@3_WB DW 07dH			; ATL::chRightBracket
CONST	ENDS
;	COMDAT ?chDirSep@ATL@@3_WB
CONST	SEGMENT
?chDirSep@ATL@@3_WB DW 05cH				; ATL::chDirSep
CONST	ENDS
;	COMDAT _IID_IInternalConnection
CONST	SEGMENT
_IID_IInternalConnection DD 072ad0770H
	DW	06a9fH
	DW	011d1H
	DB	0bcH
	DB	0ecH
	DB	00H
	DB	060H
	DB	08H
	DB	08fH
	DB	044H
	DB	04eH
CONST	ENDS
;	COMDAT _IID_IAxWinAmbientDispatchEx
CONST	SEGMENT
_IID_IAxWinAmbientDispatchEx DD 0b2d0778bH
	DW	0ac99H
	DW	04c58H
	DB	0a5H
	DB	0c8H
	DB	0e7H
	DB	072H
	DB	04eH
	DB	053H
	DB	016H
	DB	0b5H
CONST	ENDS
;	COMDAT ___pobjMapEntryLast
ATL$__z	SEGMENT
___pobjMapEntryLast DD 00H
ATL$__z	ENDS
;	COMDAT ___pobjMapEntryFirst
ATL$__a	SEGMENT
___pobjMapEntryFirst DD 00H
ATL$__a	ENDS
;	COMDAT _LIBID_ATLLib
CONST	SEGMENT
_LIBID_ATLLib DD 044ec0535H
	DW	0400fH
	DW	011d0H
	DB	09dH
	DB	0cdH
	DB	00H
	DB	0a0H
	DB	0c9H
	DB	03H
	DB	091H
	DB	0d3H
CONST	ENDS
;	COMDAT _IID_IAxWinAmbientDispatch
CONST	SEGMENT
_IID_IAxWinAmbientDispatch DD 0b6ea2051H
	DW	048aH
	DW	011d1H
	DB	082H
	DB	0b9H
	DB	00H
	DB	0c0H
	DB	04fH
	DB	0b9H
	DB	094H
	DB	02eH
CONST	ENDS
;	COMDAT _IID_IAxWinHostWindowLic
CONST	SEGMENT
_IID_IAxWinHostWindowLic DD 03935bda8H
	DW	04ed9H
	DW	0495cH
	DB	086H
	DB	050H
	DB	0e0H
	DB	01fH
	DB	0c1H
	DB	0e3H
	DB	08aH
	DB	04bH
CONST	ENDS
;	COMDAT _IID_IAxWinHostWindow
CONST	SEGMENT
_IID_IAxWinHostWindow DD 0b6ea2050H
	DW	048aH
	DW	011d1H
	DB	082H
	DB	0b9H
	DB	00H
	DB	0c0H
	DB	04fH
	DB	0b9H
	DB	094H
	DB	02eH
CONST	ENDS
;	COMDAT _IID_IDocHostUIHandlerDispatch
CONST	SEGMENT
_IID_IDocHostUIHandlerDispatch DD 0425b5af0H
	DW	065f1H
	DW	011d1H
	DB	096H
	DB	011H
	DB	00H
	DB	00H
	DB	0f8H
	DB	01eH
	DB	0dH
	DB	0dH
CONST	ENDS
;	COMDAT _IID_IRegistrar
CONST	SEGMENT
_IID_IRegistrar DD 044ec053bH
	DW	0400fH
	DW	011d0H
	DB	09dH
	DB	0cdH
	DB	00H
	DB	0a0H
	DB	0c9H
	DB	03H
	DB	091H
	DB	0d3H
CONST	ENDS
;	COMDAT _CLSID_Registrar
CONST	SEGMENT
_CLSID_Registrar DD 044ec053aH
	DW	0400fH
	DW	011d0H
	DB	09dH
	DB	0cdH
	DB	00H
	DB	0a0H
	DB	0c9H
	DB	03H
	DB	091H
	DB	0d3H
CONST	ENDS
CONST	SEGMENT
$SG181249 DB	'D', 00H, 'e', 00H, 'l', 00H, 'e', 00H, 't', 00H, 'e', 00H
	DB	00H, 00H
?piecewise_construct@std@@3Upiecewise_construct_t@1@B	ORG $+1 ; std::piecewise_construct
	ORG $+1
$SG170003 DB	'a', 00H, 't', 00H, 'l', 00H, 'T', 00H, 'r', 00H, 'a', 00H
	DB	'c', 00H, 'e', 00H, 'S', 00H, 'n', 00H, 'a', 00H, 'p', 00H, 'i'
	DB	00H, 'n', 00H, 00H, 00H
	ORG $+2
$SG170050 DB	'a', 00H, 't', 00H, 'l', 00H, 'T', 00H, 'r', 00H, 'a', 00H
	DB	'c', 00H, 'e', 00H, 'N', 00H, 'o', 00H, 't', 00H, 'I', 00H, 'm'
	DB	00H, 'p', 00H, 'l', 00H, 00H, 00H
$SG212073 DB	'MoveWindow_Detour', 00H
	ORG $+2
$SG212083 DB	'SetWindowPlacement_Detour', 00H
	ORG $+2
$SG212074 DB	'[', 00H, 'W', 00H, 'i', 00H, 'n', 00H, 'd', 00H, 'o', 00H
	DB	'w', 00H, ' ', 00H, 'M', 00H, 'g', 00H, 'r', 00H, ']', 00H, ' '
	DB	00H, '[', 00H, '!', 00H, ']', 00H, ' ', 00H, '>', 00H, ' ', 00H
	DB	'F', 00H, 'i', 00H, 'r', 00H, 's', 00H, 't', 00H, ' ', 00H, 'C'
	DB	00H, 'a', 00H, 'l', 00H, 'l', 00H, ':', 00H, ' ', 00H, '%', 00H
	DB	'3', 00H, '4', 00H, 'h', 00H, 's', 00H, 00H, 00H
	ORG $+2
$SG170097 DB	'a', 00H, 't', 00H, 'l', 00H, 'T', 00H, 'r', 00H, 'a', 00H
	DB	'c', 00H, 'e', 00H, 'A', 00H, 'l', 00H, 'l', 00H, 'o', 00H, 'c'
	DB	00H, 'a', 00H, 't', 00H, 'i', 00H, 'o', 00H, 'n', 00H, 00H, 00H
	ORG $+2
$SG212084 DB	'Window Mgr', 00H
	ORG $+1
$SG212085 DB	'[', 00H, '%', 00H, 'h', 00H, 's', 00H, ']', 00H, '[', 00H
	DB	'!', 00H, ']', 00H, ' ', 00H, '%', 00H, '3', 00H, '2', 00H, 'h'
	DB	00H, 's', 00H, ' ', 00H, '-', 00H, ' ', 00H, '%', 00H, 's', 00H
	DB	00H, 00H
$SG212106 DB	'SetWindowPos_Detour', 00H
$SG212110 DB	'SetWindowPos_Detour', 00H
$SG212107 DB	'[', 00H, 'W', 00H, 'i', 00H, 'n', 00H, 'd', 00H, 'o', 00H
	DB	'w', 00H, ' ', 00H, 'M', 00H, 'g', 00H, 'r', 00H, ']', 00H, ' '
	DB	00H, '[', 00H, '!', 00H, ']', 00H, ' ', 00H, '>', 00H, ' ', 00H
	DB	'F', 00H, 'i', 00H, 'r', 00H, 's', 00H, 't', 00H, ' ', 00H, 'C'
	DB	00H, 'a', 00H, 'l', 00H, 'l', 00H, ':', 00H, ' ', 00H, '%', 00H
	DB	'3', 00H, '4', 00H, 'h', 00H, 's', 00H, 00H, 00H
	ORG $+2
$SG212111 DB	'Window Mgr', 00H
	ORG $+1
$SG212112 DB	'[', 00H, '%', 00H, 'h', 00H, 's', 00H, ']', 00H, '[', 00H
	DB	'!', 00H, ']', 00H, ' ', 00H, '%', 00H, '3', 00H, '2', 00H, 'h'
	DB	00H, 's', 00H, ' ', 00H, '-', 00H, ' ', 00H, '%', 00H, 's', 00H
	DB	00H, 00H
$SG212126 DB	'GetClientRect_Detour', 00H
	ORG $+3
$SG212127 DB	'[', 00H, 'W', 00H, 'i', 00H, 'n', 00H, 'd', 00H, 'o', 00H
	DB	'w', 00H, ' ', 00H, 'M', 00H, 'g', 00H, 'r', 00H, ']', 00H, ' '
	DB	00H, '[', 00H, '!', 00H, ']', 00H, ' ', 00H, '>', 00H, ' ', 00H
	DB	'F', 00H, 'i', 00H, 'r', 00H, 's', 00H, 't', 00H, ' ', 00H, 'C'
	DB	00H, 'a', 00H, 'l', 00H, 'l', 00H, ':', 00H, ' ', 00H, '%', 00H
	DB	'3', 00H, '4', 00H, 'h', 00H, 's', 00H, 00H, 00H
	ORG $+2
$SG170144 DB	'a', 00H, 't', 00H, 'l', 00H, 'T', 00H, 'r', 00H, 'a', 00H
	DB	'c', 00H, 'e', 00H, 'E', 00H, 'x', 00H, 'c', 00H, 'e', 00H, 'p'
	DB	00H, 't', 00H, 'i', 00H, 'o', 00H, 'n', 00H, 00H, 00H
$SG212140 DB	'GetWindowRect_Detour', 00H
	ORG $+3
$SG212141 DB	'[', 00H, 'W', 00H, 'i', 00H, 'n', 00H, 'd', 00H, 'o', 00H
	DB	'w', 00H, ' ', 00H, 'M', 00H, 'g', 00H, 'r', 00H, ']', 00H, ' '
	DB	00H, '[', 00H, '!', 00H, ']', 00H, ' ', 00H, '>', 00H, ' ', 00H
	DB	'F', 00H, 'i', 00H, 'r', 00H, 's', 00H, 't', 00H, ' ', 00H, 'C'
	DB	00H, 'a', 00H, 'l', 00H, 'l', 00H, ':', 00H, ' ', 00H, '%', 00H
	DB	'3', 00H, '4', 00H, 'h', 00H, 's', 00H, 00H, 00H
	ORG $+2
$SG170191 DB	'a', 00H, 't', 00H, 'l', 00H, 'T', 00H, 'r', 00H, 'a', 00H
	DB	'c', 00H, 'e', 00H, 'T', 00H, 'i', 00H, 'm', 00H, 'e', 00H, 00H
	DB	00H
	ORG $+2
$SG212172 DB	'[', 00H, 'W', 00H, 'i', 00H, 'n', 00H, 'd', 00H, 'o', 00H
	DB	'w', 00H, ' ', 00H, 'M', 00H, 'g', 00H, 'r', 00H, ']', 00H, ' '
	DB	00H, 'A', 00H, 'd', 00H, 'j', 00H, 'u', 00H, 's', 00H, 't', 00H
	DB	'W', 00H, 'i', 00H, 'n', 00H, 'd', 00H, 'o', 00H, 'w', 00H, 'R'
	DB	00H, 'e', 00H, 'c', 00H, 't', 00H, ' ', 00H, '(', 00H, ' ', 00H
	DB	'{', 00H, '%', 00H, '4', 00H, 'l', 00H, 'i', 00H, ',', 00H, '%'
	DB	00H, '4', 00H, 'l', 00H, 'i', 00H, ' ', 00H, '/', 00H, ' ', 00H
	DB	'%', 00H, '4', 00H, 'l', 00H, 'i', 00H, ',', 00H, '%', 00H, '4'
	DB	00H, 'l', 00H, 'i', 00H, '}', 00H, ',', 00H, ' ', 00H, '0', 00H
	DB	'x', 00H, '%', 00H, '0', 00H, '4', 00H, 'X', 00H, ',', 00H, ' '
	DB	00H, '%', 00H, 'l', 00H, 'i', 00H, ' ', 00H, ')', 00H, ' ', 00H
	DB	'-', 00H, ' ', 00H, '%', 00H, 's', 00H, 00H, 00H
$SG212192 DB	'[', 00H, 'W', 00H, 'i', 00H, 'n', 00H, 'd', 00H, 'o', 00H
	DB	'w', 00H, ' ', 00H, 'M', 00H, 'g', 00H, 'r', 00H, ']', 00H, ' '
	DB	00H, 'A', 00H, 'd', 00H, 'j', 00H, 'u', 00H, 's', 00H, 't', 00H
	DB	'W', 00H, 'i', 00H, 'n', 00H, 'd', 00H, 'o', 00H, 'w', 00H, 'R'
	DB	00H, 'e', 00H, 'c', 00H, 't', 00H, 'E', 00H, 'x', 00H, ' ', 00H
	DB	'(', 00H, ' ', 00H, '{', 00H, '%', 00H, '4', 00H, 'l', 00H, 'i'
	DB	00H, ',', 00H, '%', 00H, '4', 00H, 'l', 00H, 'i', 00H, ' ', 00H
	DB	'/', 00H, ' ', 00H, '%', 00H, '4', 00H, 'l', 00H, 'i', 00H, ','
	DB	00H, '%', 00H, '4', 00H, 'l', 00H, 'i', 00H, '}', 00H, ',', 00H
	DB	' ', 00H, '0', 00H, 'x', 00H, '%', 00H, '0', 00H, '4', 00H, 'X'
	DB	00H, ',', 00H, ' ', 00H, '%', 00H, 'l', 00H, 'i', 00H, ',', 00H
	DB	' ', 00H, '0', 00H, 'x', 00H, '%', 00H, '0', 00H, '4', 00H, 'X'
	DB	00H, ' ', 00H, ')', 00H, ' ', 00H, '-', 00H, ' ', 00H, '%', 00H
	DB	's', 00H, 00H, 00H
$SG170238 DB	'a', 00H, 't', 00H, 'l', 00H, 'T', 00H, 'r', 00H, 'a', 00H
	DB	'c', 00H, 'e', 00H, 'C', 00H, 'a', 00H, 'c', 00H, 'h', 00H, 'e'
	DB	00H, 00H, 00H
$SG212232 DB	'SetWindowLongA_Detour', 00H
	ORG $+2
$SG212233 DB	'[', 00H, 'W', 00H, 'i', 00H, 'n', 00H, 'd', 00H, 'o', 00H
	DB	'w', 00H, ' ', 00H, 'M', 00H, 'g', 00H, 'r', 00H, ']', 00H, ' '
	DB	00H, '[', 00H, '!', 00H, ']', 00H, ' ', 00H, '>', 00H, ' ', 00H
	DB	'F', 00H, 'i', 00H, 'r', 00H, 's', 00H, 't', 00H, ' ', 00H, 'C'
	DB	00H, 'a', 00H, 'l', 00H, 'l', 00H, ':', 00H, ' ', 00H, '%', 00H
	DB	'3', 00H, '4', 00H, 'h', 00H, 's', 00H, 00H, 00H
	ORG $+2
$SG212243 DB	'SetWindowLongW_Detour', 00H
	ORG $+2
$SG170285 DB	'a', 00H, 't', 00H, 'l', 00H, 'T', 00H, 'r', 00H, 'a', 00H
	DB	'c', 00H, 'e', 00H, 'S', 00H, 't', 00H, 'e', 00H, 'n', 00H, 'c'
	DB	00H, 'i', 00H, 'l', 00H, 00H, 00H
$SG212307 DB	'SetWindowLongPtrA_Detour', 00H
	ORG $+3
$SG212244 DB	'[', 00H, 'W', 00H, 'i', 00H, 'n', 00H, 'd', 00H, 'o', 00H
	DB	'w', 00H, ' ', 00H, 'M', 00H, 'g', 00H, 'r', 00H, ']', 00H, ' '
	DB	00H, '[', 00H, '!', 00H, ']', 00H, ' ', 00H, '>', 00H, ' ', 00H
	DB	'F', 00H, 'i', 00H, 'r', 00H, 's', 00H, 't', 00H, ' ', 00H, 'C'
	DB	00H, 'a', 00H, 'l', 00H, 'l', 00H, ':', 00H, ' ', 00H, '%', 00H
	DB	'3', 00H, '4', 00H, 'h', 00H, 's', 00H, 00H, 00H
	ORG $+2
$SG212265 DB	'GetWindowLongA_Detour', 00H
	ORG $+2
$SG212318 DB	'SetWindowLongPtrW_Detour', 00H
	ORG $+3
$SG212266 DB	'[', 00H, 'W', 00H, 'i', 00H, 'n', 00H, 'd', 00H, 'o', 00H
	DB	'w', 00H, ' ', 00H, 'M', 00H, 'g', 00H, 'r', 00H, ']', 00H, ' '
	DB	00H, '[', 00H, '!', 00H, ']', 00H, ' ', 00H, '>', 00H, ' ', 00H
	DB	'F', 00H, 'i', 00H, 'r', 00H, 's', 00H, 't', 00H, ' ', 00H, 'C'
	DB	00H, 'a', 00H, 'l', 00H, 'l', 00H, ':', 00H, ' ', 00H, '%', 00H
	DB	'3', 00H, '4', 00H, 'h', 00H, 's', 00H, 00H, 00H
	ORG $+2
$SG212275 DB	'GetWindowLongW_Detour', 00H
	ORG $+2
$SG212338 DB	'GetWindowLongPtrA_Detour', 00H
	ORG $+3
$SG212276 DB	'[', 00H, 'W', 00H, 'i', 00H, 'n', 00H, 'd', 00H, 'o', 00H
	DB	'w', 00H, ' ', 00H, 'M', 00H, 'g', 00H, 'r', 00H, ']', 00H, ' '
	DB	00H, '[', 00H, '!', 00H, ']', 00H, ' ', 00H, '>', 00H, ' ', 00H
	DB	'F', 00H, 'i', 00H, 'r', 00H, 's', 00H, 't', 00H, ' ', 00H, 'C'
	DB	00H, 'a', 00H, 'l', 00H, 'l', 00H, ':', 00H, ' ', 00H, '%', 00H
	DB	'3', 00H, '4', 00H, 'h', 00H, 's', 00H, 00H, 00H
	ORG $+2
$SG212348 DB	'GetWindowLongPtrW_Detour', 00H
	ORG $+3
$SG212308 DB	'[', 00H, 'W', 00H, 'i', 00H, 'n', 00H, 'd', 00H, 'o', 00H
	DB	'w', 00H, ' ', 00H, 'M', 00H, 'g', 00H, 'r', 00H, ']', 00H, ' '
	DB	00H, '[', 00H, '!', 00H, ']', 00H, ' ', 00H, '>', 00H, ' ', 00H
	DB	'F', 00H, 'i', 00H, 'r', 00H, 's', 00H, 't', 00H, ' ', 00H, 'C'
	DB	00H, 'a', 00H, 'l', 00H, 'l', 00H, ':', 00H, ' ', 00H, '%', 00H
	DB	'3', 00H, '4', 00H, 'h', 00H, 's', 00H, 00H, 00H
	ORG $+2
$SG281986 DB	'U', 00H, 'N', 00H, 'K', 00H, 'K', 00H, 'N', 00H, 'O', 00H
	DB	'W', 00H, 'N', 00H, 00H, 00H
	ORG $+2
$SG281947 DB	'[', 00H, 'W', 00H, 'i', 00H, 'n', 00H, 'd', 00H, 'o', 00H
	DB	'w', 00H, ' ', 00H, 'M', 00H, 'g', 00H, 'r', 00H, ']', 00H, ' '
	DB	00H, 'N', 00H, 'e', 00H, 'w', 00H, ' ', 00H, 'H', 00H, 'W', 00H
	DB	'N', 00H, 'D', 00H, ' ', 00H, 'd', 00H, 'e', 00H, 't', 00H, 'e'
	DB	00H, 'c', 00H, 't', 00H, 'e', 00H, 'd', 00H, ' ', 00H, 'i', 00H
	DB	'n', 00H, ' ', 00H, 't', 00H, 'h', 00H, 'e', 00H, ' ', 00H, 'w'
	DB	00H, 'i', 00H, 'n', 00H, 'd', 00H, 'o', 00H, 'w', 00H, ' ', 00H
	DB	'p', 00H, 'r', 00H, 'o', 00H, 'c', 00H, '.', 00H, ' ', 00H, 'u'
	DB	00H, 's', 00H, 'e', 00H, 'd', 00H, ' ', 00H, 'f', 00H, 'o', 00H
	DB	'r', 00H, ' ', 00H, 'r', 00H, 'e', 00H, 'n', 00H, 'd', 00H, 'e'
	DB	00H, 'r', 00H, 'i', 00H, 'n', 00H, 'g', 00H, '.', 00H, '.', 00H
	DB	'.', 00H, ' ', 00H, '(', 00H, 'O', 00H, 'l', 00H, 'd', 00H, '='
	DB	00H, '%', 00H, 'p', 00H, ',', 00H, ' ', 00H, 'N', 00H, 'e', 00H
	DB	'w', 00H, '=', 00H, '%', 00H, 'p', 00H, ')', 00H, 00H, 00H
$SG170332 DB	'a', 00H, 't', 00H, 'l', 00H, 'T', 00H, 'r', 00H, 'a', 00H
	DB	'c', 00H, 'e', 00H, 'S', 00H, 't', 00H, 'r', 00H, 'i', 00H, 'n'
	DB	00H, 'g', 00H, 00H, 00H
	ORG $+2
$SG281988 DB	'(', 00H, 'W', 00H, 'M', 00H, '_', 00H, 'A', 00H, 'C', 00H
	DB	'T', 00H, 'I', 00H, 'V', 00H, 'A', 00H, 'T', 00H, 'E', 00H, ' '
	DB	00H, '[', 00H, ' ', 00H, 'W', 00H, 'A', 00H, '_', 00H, 'A', 00H
	DB	'C', 00H, 'T', 00H, 'I', 00H, 'V', 00H, 'E', 00H, ' ', 00H, ']'
	DB	00H, ')', 00H, 00H, 00H
$SG281991 DB	'(', 00H, 'W', 00H, 'M', 00H, '_', 00H, 'A', 00H, 'C', 00H
	DB	'T', 00H, 'I', 00H, 'V', 00H, 'A', 00H, 'T', 00H, 'E', 00H, ' '
	DB	00H, '[', 00H, ' ', 00H, 'W', 00H, 'A', 00H, '_', 00H, 'I', 00H
	DB	'N', 00H, 'A', 00H, 'C', 00H, 'T', 00H, 'I', 00H, 'V', 00H, 'E'
	DB	00H, ' ', 00H, ']', 00H, ')', 00H, 00H, 00H
$SG212319 DB	'[', 00H, 'W', 00H, 'i', 00H, 'n', 00H, 'd', 00H, 'o', 00H
	DB	'w', 00H, ' ', 00H, 'M', 00H, 'g', 00H, 'r', 00H, ']', 00H, ' '
	DB	00H, '[', 00H, '!', 00H, ']', 00H, ' ', 00H, '>', 00H, ' ', 00H
	DB	'F', 00H, 'i', 00H, 'r', 00H, 's', 00H, 't', 00H, ' ', 00H, 'C'
	DB	00H, 'a', 00H, 'l', 00H, 'l', 00H, ':', 00H, ' ', 00H, '%', 00H
	DB	'3', 00H, '4', 00H, 'h', 00H, 's', 00H, 00H, 00H
	ORG $+2
$SG170379 DB	'a', 00H, 't', 00H, 'l', 00H, 'T', 00H, 'r', 00H, 'a', 00H
	DB	'c', 00H, 'e', 00H, 'M', 00H, 'a', 00H, 'p', 00H, 00H, 00H
$SG170384 DB	'a', 00H, 't', 00H, 'l', 00H, 'T', 00H, 'r', 00H, 'a', 00H
	DB	'c', 00H, 'e', 00H, 'U', 00H, 't', 00H, 'i', 00H, 'l', 00H, 00H
	DB	00H
	ORG $+2
$SG281962 DB	'[', 00H, 'W', 00H, 'i', 00H, 'n', 00H, 'd', 00H, 'o', 00H
	DB	'w', 00H, ' ', 00H, 'M', 00H, 'g', 00H, 'r', 00H, ']', 00H, ' '
	DB	00H, 'W', 00H, 'M', 00H, '_', 00H, 'M', 00H, 'O', 00H, 'U', 00H
	DB	'S', 00H, 'E', 00H, 'A', 00H, 'C', 00H, 'T', 00H, 'I', 00H, 'V'
	DB	00H, 'A', 00H, 'T', 00H, 'E', 00H, ' ', 00H, '=', 00H, '=', 00H
	DB	'>', 00H, ' ', 00H, 'A', 00H, 'c', 00H, 't', 00H, 'i', 00H, 'v'
	DB	00H, 'a', 00H, 't', 00H, 'e', 00H, ' ', 00H, 'a', 00H, 'n', 00H
	DB	'd', 00H, ' ', 00H, 'E', 00H, 'a', 00H, 't', 00H, 00H, 00H
	ORG $+2
$SG281965 DB	'[', 00H, 'W', 00H, 'i', 00H, 'n', 00H, 'd', 00H, 'o', 00H
	DB	'w', 00H, ' ', 00H, 'M', 00H, 'g', 00H, 'r', 00H, ']', 00H, ' '
	DB	00H, 'W', 00H, 'M', 00H, '_', 00H, 'M', 00H, 'O', 00H, 'U', 00H
	DB	'S', 00H, 'E', 00H, 'A', 00H, 'C', 00H, 'T', 00H, 'I', 00H, 'V'
	DB	00H, 'A', 00H, 'T', 00H, 'E', 00H, ' ', 00H, '(', 00H, 'O', 00H
	DB	't', 00H, 'h', 00H, 'e', 00H, 'r', 00H, ' ', 00H, 'W', 00H, 'i'
	DB	00H, 'n', 00H, 'd', 00H, 'o', 00H, 'w', 00H, ')', 00H, ' ', 00H
	DB	'=', 00H, '=', 00H, '>', 00H, ' ', 00H, 'A', 00H, 'c', 00H, 't'
	DB	00H, 'i', 00H, 'v', 00H, 'a', 00H, 't', 00H, 'e', 00H, 00H, 00H
$SG170431 DB	'a', 00H, 't', 00H, 'l', 00H, 'T', 00H, 'r', 00H, 'a', 00H
	DB	'c', 00H, 'e', 00H, 'S', 00H, 'e', 00H, 'c', 00H, 'u', 00H, 'r'
	DB	00H, 'i', 00H, 't', 00H, 'y', 00H, 00H, 00H
	ORG $+2
$SG212339 DB	'[', 00H, 'W', 00H, 'i', 00H, 'n', 00H, 'd', 00H, 'o', 00H
	DB	'w', 00H, ' ', 00H, 'M', 00H, 'g', 00H, 'r', 00H, ']', 00H, ' '
	DB	00H, '[', 00H, '!', 00H, ']', 00H, ' ', 00H, '>', 00H, ' ', 00H
	DB	'F', 00H, 'i', 00H, 'r', 00H, 's', 00H, 't', 00H, ' ', 00H, 'C'
	DB	00H, 'a', 00H, 'l', 00H, 'l', 00H, ':', 00H, ' ', 00H, '%', 00H
	DB	'3', 00H, '4', 00H, 'h', 00H, 's', 00H, 00H, 00H
	ORG $+2
$SG212416 DB	'SK_AdjustBorder', 00H
$SG212417 DB	'Window Mgr', 00H
	ORG $+1
$SG281976 DB	'[', 00H, 'W', 00H, 'i', 00H, 'n', 00H, 'd', 00H, 'o', 00H
	DB	'w', 00H, ' ', 00H, 'M', 00H, 'g', 00H, 'r', 00H, ']', 00H, ' '
	DB	00H, 'A', 00H, 'p', 00H, 'p', 00H, 'l', 00H, 'i', 00H, 'c', 00H
	DB	'a', 00H, 't', 00H, 'i', 00H, 'o', 00H, 'n', 00H, ' ', 00H, 'A'
	DB	00H, 'c', 00H, 't', 00H, 'i', 00H, 'v', 00H, 'a', 00H, 't', 00H
	DB	'e', 00H, 'd', 00H, ' ', 00H, '(', 00H, 'N', 00H, 'o', 00H, 'n'
	DB	00H, '-', 00H, 'C', 00H, 'l', 00H, 'i', 00H, 'e', 00H, 'n', 00H
	DB	't', 00H, ')', 00H, 00H, 00H
$SG281979 DB	'[', 00H, 'W', 00H, 'i', 00H, 'n', 00H, 'd', 00H, 'o', 00H
	DB	'w', 00H, ' ', 00H, 'M', 00H, 'g', 00H, 'r', 00H, ']', 00H, ' '
	DB	00H, 'A', 00H, 'p', 00H, 'p', 00H, 'l', 00H, 'i', 00H, 'c', 00H
	DB	'a', 00H, 't', 00H, 'i', 00H, 'o', 00H, 'n', 00H, ' ', 00H, 'D'
	DB	00H, 'e', 00H, 'a', 00H, 'c', 00H, 't', 00H, 'i', 00H, 'v', 00H
	DB	'a', 00H, 't', 00H, 'e', 00H, 'd', 00H, ' ', 00H, '(', 00H, 'N'
	DB	00H, 'o', 00H, 'n', 00H, '-', 00H, 'C', 00H, 'l', 00H, 'i', 00H
	DB	'e', 00H, 'n', 00H, 't', 00H, ')', 00H, 00H, 00H
$SG170478 DB	'a', 00H, 't', 00H, 'l', 00H, 'T', 00H, 'r', 00H, 'a', 00H
	DB	'c', 00H, 'e', 00H, 'S', 00H, 'y', 00H, 'n', 00H, 'c', 00H, 00H
	DB	00H
	ORG $+2
$SG212349 DB	'[', 00H, 'W', 00H, 'i', 00H, 'n', 00H, 'd', 00H, 'o', 00H
	DB	'w', 00H, ' ', 00H, 'M', 00H, 'g', 00H, 'r', 00H, ']', 00H, ' '
	DB	00H, '[', 00H, '!', 00H, ']', 00H, ' ', 00H, '>', 00H, ' ', 00H
	DB	'F', 00H, 'i', 00H, 'r', 00H, 's', 00H, 't', 00H, ' ', 00H, 'C'
	DB	00H, 'a', 00H, 'l', 00H, 'l', 00H, ':', 00H, ' ', 00H, '%', 00H
	DB	'3', 00H, '4', 00H, 'h', 00H, 's', 00H, 00H, 00H
	ORG $+2
$SG212418 DB	'[', 00H, '%', 00H, 'h', 00H, 's', 00H, ']', 00H, '[', 00H
	DB	'!', 00H, ']', 00H, ' ', 00H, '%', 00H, '3', 00H, '2', 00H, 'h'
	DB	00H, 's', 00H, ' ', 00H, '-', 00H, ' ', 00H, '%', 00H, 's', 00H
	DB	00H, 00H
$SG170525 DB	'a', 00H, 't', 00H, 'l', 00H, 'T', 00H, 'r', 00H, 'a', 00H
	DB	'c', 00H, 'e', 00H, 'I', 00H, 'S', 00H, 'A', 00H, 'P', 00H, 'I'
	DB	00H, 00H, 00H
$SG281983 DB	'[', 00H, 'W', 00H, 'i', 00H, 'n', 00H, 'd', 00H, 'o', 00H
	DB	'w', 00H, ' ', 00H, 'M', 00H, 'g', 00H, 'r', 00H, ']', 00H, ' '
	DB	00H, 'A', 00H, 'p', 00H, 'p', 00H, 'l', 00H, 'i', 00H, 'c', 00H
	DB	'a', 00H, 't', 00H, 'i', 00H, 'o', 00H, 'n', 00H, ' ', 00H, 'D'
	DB	00H, 'e', 00H, 'a', 00H, 'c', 00H, 't', 00H, 'i', 00H, 'v', 00H
	DB	'a', 00H, 't', 00H, 'e', 00H, 'd', 00H, ' ', 00H, '(', 00H, 'N'
	DB	00H, 'o', 00H, 'n', 00H, '-', 00H, 'C', 00H, 'l', 00H, 'i', 00H
	DB	'e', 00H, 'n', 00H, 't', 00H, ')', 00H, 00H, 00H
$SG282176 DB	'TranslateMessage', 00H
	ORG $+3
$SG281989 DB	'(', 00H, 'W', 00H, 'M', 00H, '_', 00H, 'A', 00H, 'C', 00H
	DB	'T', 00H, 'I', 00H, 'V', 00H, 'A', 00H, 'T', 00H, 'E', 00H, ' '
	DB	00H, '[', 00H, ' ', 00H, 'W', 00H, 'A', 00H, '_', 00H, 'C', 00H
	DB	'L', 00H, 'I', 00H, 'C', 00H, 'K', 00H, 'A', 00H, 'C', 00H, 'T'
	DB	00H, 'I', 00H, 'V', 00H, 'E', 00H, ' ', 00H, ']', 00H, ')', 00H
	DB	00H, 00H
	ORG $+2
$SG169509 DB	'a', 00H, 't', 00H, 'l', 00H, 'T', 00H, 'r', 00H, 'a', 00H
	DB	'c', 00H, 'e', 00H, 'G', 00H, 'e', 00H, 'n', 00H, 'e', 00H, 'r'
	DB	00H, 'a', 00H, 'l', 00H, 00H, 00H
$SG282182 DB	'GetMessageW', 00H
$SG281995 DB	'[', 00H, 'W', 00H, 'i', 00H, 'n', 00H, 'd', 00H, 'o', 00H
	DB	'w', 00H, ' ', 00H, 'M', 00H, 'g', 00H, 'r', 00H, ']', 00H, ' '
	DB	00H, 'A', 00H, 'p', 00H, 'p', 00H, 'l', 00H, 'i', 00H, 'c', 00H
	DB	'a', 00H, 't', 00H, 'i', 00H, 'o', 00H, 'n', 00H, ' ', 00H, 'D'
	DB	00H, 'e', 00H, 'a', 00H, 'c', 00H, 't', 00H, 'i', 00H, 'v', 00H
	DB	'a', 00H, 't', 00H, 'e', 00H, 'd', 00H, ' ', 00H, '%', 00H, 's'
	DB	00H, 00H, 00H
$SG281999 DB	'[', 00H, 'W', 00H, 'i', 00H, 'n', 00H, 'd', 00H, 'o', 00H
	DB	'w', 00H, ' ', 00H, 'M', 00H, 'g', 00H, 'r', 00H, ']', 00H, ' '
	DB	00H, 'A', 00H, 'p', 00H, 'p', 00H, 'l', 00H, 'i', 00H, 'c', 00H
	DB	'a', 00H, 't', 00H, 'i', 00H, 'o', 00H, 'n', 00H, ' ', 00H, 'A'
	DB	00H, 'c', 00H, 't', 00H, 'i', 00H, 'v', 00H, 'a', 00H, 't', 00H
	DB	'e', 00H, 'd', 00H, ' ', 00H, '%', 00H, 's', 00H, 00H, 00H
$SG282046 DB	'e', 00H, 'q', 00H, 'g', 00H, 'a', 00H, 'm', 00H, 'e', 00H
	DB	'.', 00H, 'e', 00H, 'x', 00H, 'e', 00H, 00H, 00H
	ORG $+2
$SG282167 DB	'DefWindowProcW', 00H
	ORG $+1
$SG282168 DB	'u', 00H, 's', 00H, 'e', 00H, 'r', 00H, '3', 00H, '2', 00H
	DB	'.', 00H, 'd', 00H, 'l', 00H, 'l', 00H, 00H, 00H
	ORG $+2
$SG282169 DB	'CallWindowProcW', 00H
$SG282170 DB	'u', 00H, 's', 00H, 'e', 00H, 'r', 00H, '3', 00H, '2', 00H
	DB	'.', 00H, 'd', 00H, 'l', 00H, 'l', 00H, 00H, 00H
	ORG $+2
$SG282172 DB	'DefWindowProcA', 00H
	ORG $+1
$SG282173 DB	'u', 00H, 's', 00H, 'e', 00H, 'r', 00H, '3', 00H, '2', 00H
	DB	'.', 00H, 'd', 00H, 'l', 00H, 'l', 00H, 00H, 00H
	ORG $+2
$SG282174 DB	'CallWindowProcA', 00H
$SG282175 DB	'u', 00H, 's', 00H, 'e', 00H, 'r', 00H, '3', 00H, '2', 00H
	DB	'.', 00H, 'd', 00H, 'l', 00H, 'l', 00H, 00H, 00H
	ORG $+2
$SG282177 DB	'u', 00H, 's', 00H, 'e', 00H, 'r', 00H, '3', 00H, '2', 00H
	DB	'.', 00H, 'd', 00H, 'l', 00H, 'l', 00H, 00H, 00H
	ORG $+2
$SG282178 DB	'PeekMessageW', 00H
	ORG $+3
$SG282179 DB	'u', 00H, 's', 00H, 'e', 00H, 'r', 00H, '3', 00H, '2', 00H
	DB	'.', 00H, 'd', 00H, 'l', 00H, 'l', 00H, 00H, 00H
	ORG $+2
$SG282180 DB	'PeekMessageA', 00H
	ORG $+3
$SG282181 DB	'u', 00H, 's', 00H, 'e', 00H, 'r', 00H, '3', 00H, '2', 00H
	DB	'.', 00H, 'd', 00H, 'l', 00H, 'l', 00H, 00H, 00H
	ORG $+2
$SG282183 DB	'u', 00H, 's', 00H, 'e', 00H, 'r', 00H, '3', 00H, '2', 00H
	DB	'.', 00H, 'd', 00H, 'l', 00H, 'l', 00H, 00H, 00H
	ORG $+2
$SG282184 DB	'DispatchMessageW', 00H
	ORG $+3
$SG282185 DB	'u', 00H, 's', 00H, 'e', 00H, 'r', 00H, '3', 00H, '2', 00H
	DB	'.', 00H, 'd', 00H, 'l', 00H, 'l', 00H, 00H, 00H
	ORG $+2
$SG282186 DB	'GetMessageA', 00H
$SG282187 DB	'u', 00H, 's', 00H, 'e', 00H, 'r', 00H, '3', 00H, '2', 00H
	DB	'.', 00H, 'd', 00H, 'l', 00H, 'l', 00H, 00H, 00H
	ORG $+2
$SG282188 DB	'DispatchMessageA', 00H
	ORG $+3
$SG282189 DB	'u', 00H, 's', 00H, 'e', 00H, 'r', 00H, '3', 00H, '2', 00H
	DB	'.', 00H, 'd', 00H, 'l', 00H, 'l', 00H, 00H, 00H
	ORG $+2
$SG282191 DB	'U', 00H, 'n', 00H, 'i', 00H, 'c', 00H, 'o', 00H, 'd', 00H
	DB	'e', 00H, 00H, 00H
$SG282192 DB	'A', 00H, 'N', 00H, 'S', 00H, 'I', 00H, 00H, 00H
	ORG $+2
$SG282210 DB	'Cursor.Timeout', 00H
	ORG $+1
$SG282211 DB	'Cursor.KeysActivate', 00H
$SG282193 DB	'[', 00H, 'W', 00H, 'i', 00H, 'n', 00H, 'd', 00H, 'o', 00H
	DB	'w', 00H, ' ', 00H, 'M', 00H, 'g', 00H, 'r', 00H, ']', 00H, ' '
	DB	00H, 'H', 00H, 'o', 00H, 'o', 00H, 'k', 00H, 'i', 00H, 'n', 00H
	DB	'g', 00H, ' ', 00H, 't', 00H, 'h', 00H, 'e', 00H, ' ', 00H, 'W'
	DB	00H, 'i', 00H, 'n', 00H, 'd', 00H, 'o', 00H, 'w', 00H, ' ', 00H
	DB	'P', 00H, 'r', 00H, 'o', 00H, 'c', 00H, 'e', 00H, 'd', 00H, 'u'
	DB	00H, 'r', 00H, 'e', 00H, ' ', 00H, 'f', 00H, 'o', 00H, 'r', 00H
	DB	' ', 00H, '%', 00H, 's', 00H, ' ', 00H, 'W', 00H, 'i', 00H, 'n'
	DB	00H, 'd', 00H, 'o', 00H, 'w', 00H, ' ', 00H, 'C', 00H, 'l', 00H
	DB	'a', 00H, 's', 00H, 's', 00H, ' ', 00H, '(', 00H, '''', 00H, '%'
	DB	00H, 's', 00H, '''', 00H, ')', 00H, ' ', 00H, ':', 00H, ':', 00H
	DB	' ', 00H, '(', 00H, 'C', 00H, 'l', 00H, 'a', 00H, 's', 00H, 's'
	DB	00H, 'P', 00H, 'r', 00H, 'o', 00H, 'c', 00H, ':', 00H, ' ', 00H
	DB	'%', 00H, 'p', 00H, ',', 00H, ' ', 00H, 'W', 00H, 'n', 00H, 'd'
	DB	00H, 'P', 00H, 'r', 00H, 'o', 00H, 'c', 00H, ':', 00H, ' ', 00H
	DB	'%', 00H, 'p', 00H, ')', 00H, 00H, 00H
	ORG $+2
$SG282212 DB	'Window.BackgroundRender', 00H
$SG212596 DB	'Window Mgr', 00H
	ORG $+1
$SG282198 DB	'[', 00H, 'W', 00H, 'i', 00H, 'n', 00H, 'd', 00H, 'o', 00H
	DB	'w', 00H, ' ', 00H, 'M', 00H, 'g', 00H, 'r', 00H, ']', 00H, ' '
	DB	00H, ' ', 00H, '>', 00H, '>', 00H, ' ', 00H, 'H', 00H, 'o', 00H
	DB	'o', 00H, 'k', 00H, 'e', 00H, 'd', 00H, ' ', 00H, 'C', 00H, 'l'
	DB	00H, 'a', 00H, 's', 00H, 's', 00H, 'P', 00H, 'r', 00H, 'o', 00H
	DB	'c', 00H, '.', 00H, 00H, 00H
	ORG $+2
$SG282200 DB	'[', 00H, 'W', 00H, 'i', 00H, 'n', 00H, 'd', 00H, 'o', 00H
	DB	'w', 00H, ' ', 00H, 'M', 00H, 'g', 00H, 'r', 00H, ']', 00H, ' '
	DB	00H, ' ', 00H, '>', 00H, '>', 00H, ' ', 00H, 'H', 00H, 'o', 00H
	DB	'o', 00H, 'k', 00H, 'e', 00H, 'd', 00H, ' ', 00H, 'W', 00H, 'n'
	DB	00H, 'd', 00H, 'P', 00H, 'r', 00H, 'o', 00H, 'c', 00H, '.', 00H
	DB	00H, 00H
	ORG $+2
$SG282209 DB	'Cursor.Manage', 00H
	ORG $+2
$SG282213 DB	'ImGui.Visible', 00H
	ORG $+2
$SG169580 DB	'a', 00H, 't', 00H, 'l', 00H, 'T', 00H, 'r', 00H, 'a', 00H
	DB	'c', 00H, 'e', 00H, 'C', 00H, 'O', 00H, 'M', 00H, 00H, 00H
$SG212595 DB	'SK_AdjustWindow', 00H
$SG212597 DB	'[', 00H, '%', 00H, 'h', 00H, 's', 00H, ']', 00H, '[', 00H
	DB	'!', 00H, ']', 00H, ' ', 00H, '%', 00H, '3', 00H, '2', 00H, 'h'
	DB	00H, 's', 00H, ' ', 00H, '-', 00H, ' ', 00H, '%', 00H, 's', 00H
	DB	00H, 00H
$SG181925 DB	'A', 00H, 'p', 00H, 'p', 00H, 'I', 00H, 'D', 00H, 00H, 00H
$SG212603 DB	'[', 00H, 'W', 00H, 'i', 00H, 'n', 00H, 'd', 00H, 'o', 00H
	DB	'w', 00H, ' ', 00H, 'M', 00H, 'g', 00H, 'r', 00H, ']', 00H, ' '
	DB	00H, ' ', 00H, '>', 00H, ' ', 00H, 'S', 00H, 'K', 00H, '_', 00H
	DB	'A', 00H, 'd', 00H, 'j', 00H, 'u', 00H, 's', 00H, 't', 00H, 'W'
	DB	00H, 'i', 00H, 'n', 00H, 'd', 00H, 'o', 00H, 'w', 00H, ' ', 00H
	DB	'(', 00H, 'F', 00H, 'u', 00H, 'l', 00H, 'l', 00H, 's', 00H, 'c'
	DB	00H, 'r', 00H, 'e', 00H, 'e', 00H, 'n', 00H, ')', 00H, 00H, 00H
	ORG $+2
$SG282266 DB	'RegisterClassExA_Detour', 00H
$SG181926 DB	'C', 00H, 'L', 00H, 'S', 00H, 'I', 00H, 'D', 00H, 00H, 00H
$SG212605 DB	'[', 00H, 'B', 00H, 'o', 00H, 'r', 00H, 'd', 00H, 'e', 00H
	DB	'r', 00H, ' ', 00H, 'M', 00H, 'g', 00H, 'r', 00H, ']', 00H, ' '
	DB	00H, 'F', 00H, 'U', 00H, 'L', 00H, 'L', 00H, 'S', 00H, 'C', 00H
	DB	'R', 00H, 'E', 00H, 'E', 00H, 'N', 00H, ' ', 00H, '=', 00H, '>'
	DB	00H, ' ', 00H, '{', 00H, 'L', 00H, 'e', 00H, 'f', 00H, 't', 00H
	DB	':', 00H, ' ', 00H, '%', 00H, 'l', 00H, 'i', 00H, ',', 00H, ' '
	DB	00H, 'T', 00H, 'o', 00H, 'p', 00H, ':', 00H, ' ', 00H, '%', 00H
	DB	'l', 00H, 'i', 00H, '}', 00H, ' ', 00H, '-', 00H, ' ', 00H, '('
	DB	00H, 'W', 00H, 'x', 00H, 'H', 00H, ':', 00H, ' ', 00H, '%', 00H
	DB	'l', 00H, 'i', 00H, 'x', 00H, '%', 00H, 'l', 00H, 'i', 00H, ')'
	DB	00H, 00H, 00H
$SG212647 DB	'N', 00H, 'o', 00H, 'n', 00H, 'e', 00H, 00H, 00H
	ORG $+2
$SG212607 DB	'[', 00H, 'W', 00H, 'i', 00H, 'n', 00H, 'd', 00H, 'o', 00H
	DB	'w', 00H, ' ', 00H, 'M', 00H, 'g', 00H, 'r', 00H, ']', 00H, ' '
	DB	00H, ' ', 00H, '>', 00H, ' ', 00H, 'S', 00H, 'K', 00H, '_', 00H
	DB	'A', 00H, 'd', 00H, 'j', 00H, 'u', 00H, 's', 00H, 't', 00H, 'W'
	DB	00H, 'i', 00H, 'n', 00H, 'd', 00H, 'o', 00H, 'w', 00H, ' ', 00H
	DB	'(', 00H, 'W', 00H, 'i', 00H, 'n', 00H, 'd', 00H, 'o', 00H, 'w'
	DB	00H, 'e', 00H, 'd', 00H, ')', 00H, 00H, 00H
	ORG $+2
$SG282242 DB	'RegisterClassA_Detour', 00H
	ORG $+2
$SG282243 DB	'[', 00H, 'W', 00H, 'i', 00H, 'n', 00H, 'd', 00H, 'o', 00H
	DB	'w', 00H, ' ', 00H, 'M', 00H, 'g', 00H, 'r', 00H, ']', 00H, ' '
	DB	00H, '[', 00H, '!', 00H, ']', 00H, ' ', 00H, '>', 00H, ' ', 00H
	DB	'F', 00H, 'i', 00H, 'r', 00H, 's', 00H, 't', 00H, ' ', 00H, 'C'
	DB	00H, 'a', 00H, 'l', 00H, 'l', 00H, ':', 00H, ' ', 00H, '%', 00H
	DB	'3', 00H, '4', 00H, 'h', 00H, 's', 00H, 00H, 00H
	ORG $+2
$SG282254 DB	'RegisterClassW_Detour', 00H
	ORG $+2
$SG282278 DB	'RegisterClassExW_Detour', 00H
$SG181927 DB	'C', 00H, 'o', 00H, 'm', 00H, 'p', 00H, 'o', 00H, 'n', 00H
	DB	'e', 00H, 'n', 00H, 't', 00H, ' ', 00H, 'C', 00H, 'a', 00H, 't'
	DB	00H, 'e', 00H, 'g', 00H, 'o', 00H, 'r', 00H, 'i', 00H, 'e', 00H
	DB	's', 00H, 00H, 00H
	ORG $+2
$SG282255 DB	'[', 00H, 'W', 00H, 'i', 00H, 'n', 00H, 'd', 00H, 'o', 00H
	DB	'w', 00H, ' ', 00H, 'M', 00H, 'g', 00H, 'r', 00H, ']', 00H, ' '
	DB	00H, '[', 00H, '!', 00H, ']', 00H, ' ', 00H, '>', 00H, ' ', 00H
	DB	'F', 00H, 'i', 00H, 'r', 00H, 's', 00H, 't', 00H, ' ', 00H, 'C'
	DB	00H, 'a', 00H, 'l', 00H, 'l', 00H, ':', 00H, ' ', 00H, '%', 00H
	DB	'3', 00H, '4', 00H, 'h', 00H, 's', 00H, 00H, 00H
	ORG $+2
$SG181928 DB	'F', 00H, 'i', 00H, 'l', 00H, 'e', 00H, 'T', 00H, 'y', 00H
	DB	'p', 00H, 'e', 00H, 00H, 00H
	ORG $+2
$SG212627 DB	'[', 00H, 'W', 00H, 'i', 00H, 'n', 00H, 'd', 00H, 'o', 00H
	DB	'w', 00H, ' ', 00H, 'M', 00H, 'g', 00H, 'r', 00H, ']', 00H, ' '
	DB	00H, 'C', 00H, 'e', 00H, 'n', 00H, 't', 00H, 'e', 00H, 'r', 00H
	DB	' ', 00H, '-', 00H, '-', 00H, '>', 00H, ' ', 00H, '(', 00H, '%'
	DB	00H, 'l', 00H, 'i', 00H, ',', 00H, '%', 00H, 'l', 00H, 'i', 00H
	DB	')', 00H, 00H, 00H
$SG181929 DB	'I', 00H, 'n', 00H, 't', 00H, 'e', 00H, 'r', 00H, 'f', 00H
	DB	'a', 00H, 'c', 00H, 'e', 00H, 00H, 00H
$SG211610 DB	'[', 00H, 'W', 00H, 'i', 00H, 'n', 00H, 'd', 00H, 'o', 00H
	DB	'w', 00H, ' ', 00H, 'M', 00H, 'g', 00H, 'r', 00H, ']', 00H, ' '
	DB	00H, 'W', 00H, 'M', 00H, '_', 00H, 'M', 00H, 'O', 00H, 'U', 00H
	DB	'S', 00H, 'E', 00H, 'A', 00H, 'C', 00H, 'T', 00H, 'I', 00H, 'V'
	DB	00H, 'A', 00H, 'T', 00H, 'E', 00H, ' ', 00H, '=', 00H, '=', 00H
	DB	'>', 00H, ' ', 00H, 'A', 00H, 'c', 00H, 't', 00H, 'i', 00H, 'v'
	DB	00H, 'a', 00H, 't', 00H, 'e', 00H, ' ', 00H, 'a', 00H, 'n', 00H
	DB	'd', 00H, ' ', 00H, 'E', 00H, 'a', 00H, 't', 00H, 00H, 00H
	ORG $+2
$SG282267 DB	'[', 00H, 'W', 00H, 'i', 00H, 'n', 00H, 'd', 00H, 'o', 00H
	DB	'w', 00H, ' ', 00H, 'M', 00H, 'g', 00H, 'r', 00H, ']', 00H, ' '
	DB	00H, '[', 00H, '!', 00H, ']', 00H, ' ', 00H, '>', 00H, ' ', 00H
	DB	'F', 00H, 'i', 00H, 'r', 00H, 's', 00H, 't', 00H, ' ', 00H, 'C'
	DB	00H, 'a', 00H, 'l', 00H, 'l', 00H, ':', 00H, ' ', 00H, '%', 00H
	DB	'3', 00H, '4', 00H, 'h', 00H, 's', 00H, 00H, 00H
	ORG $+2
$SG169627 DB	'a', 00H, 't', 00H, 'l', 00H, 'T', 00H, 'r', 00H, 'a', 00H
	DB	'c', 00H, 'e', 00H, 'Q', 00H, 'I', 00H, 00H, 00H
	ORG $+2
$SG181930 DB	'H', 00H, 'a', 00H, 'r', 00H, 'd', 00H, 'w', 00H, 'a', 00H
	DB	'r', 00H, 'e', 00H, 00H, 00H
	ORG $+2
$SG211614 DB	'[', 00H, 'W', 00H, 'i', 00H, 'n', 00H, 'd', 00H, 'o', 00H
	DB	'w', 00H, ' ', 00H, 'M', 00H, 'g', 00H, 'r', 00H, ']', 00H, ' '
	DB	00H, 'W', 00H, 'M', 00H, '_', 00H, 'M', 00H, 'O', 00H, 'U', 00H
	DB	'S', 00H, 'E', 00H, 'A', 00H, 'C', 00H, 'T', 00H, 'I', 00H, 'V'
	DB	00H, 'A', 00H, 'T', 00H, 'E', 00H, ' ', 00H, '(', 00H, 'O', 00H
	DB	't', 00H, 'h', 00H, 'e', 00H, 'r', 00H, ' ', 00H, 'W', 00H, 'i'
	DB	00H, 'n', 00H, 'd', 00H, 'o', 00H, 'w', 00H, ')', 00H, ' ', 00H
	DB	'=', 00H, '=', 00H, '>', 00H, ' ', 00H, 'A', 00H, 'c', 00H, 't'
	DB	00H, 'i', 00H, 'v', 00H, 'a', 00H, 't', 00H, 'e', 00H, 00H, 00H
$SG181931 DB	'M', 00H, 'i', 00H, 'm', 00H, 'e', 00H, 00H, 00H
	ORG $+2
$SG212645 DB	'(', 00H, 'F', 00H, 'r', 00H, 'a', 00H, 'm', 00H, 'e', 00H
	DB	' ', 00H, '=', 00H, ' ', 00H, '%', 00H, 'l', 00H, 'i', 00H, 'p'
	DB	00H, 'x', 00H, ' ', 00H, 'x', 00H, ' ', 00H, '%', 00H, 'l', 00H
	DB	'i', 00H, 'p', 00H, 'x', 00H, ',', 00H, ' ', 00H, 'T', 00H, 'i'
	DB	00H, 't', 00H, 'l', 00H, 'e', 00H, ' ', 00H, '=', 00H, ' ', 00H
	DB	'%', 00H, 'l', 00H, 'i', 00H, 'p', 00H, 'x', 00H, ')', 00H, 00H
	DB	00H
	ORG $+2
$SG282279 DB	'[', 00H, 'W', 00H, 'i', 00H, 'n', 00H, 'd', 00H, 'o', 00H
	DB	'w', 00H, ' ', 00H, 'M', 00H, 'g', 00H, 'r', 00H, ']', 00H, ' '
	DB	00H, '[', 00H, '!', 00H, ']', 00H, ' ', 00H, '>', 00H, ' ', 00H
	DB	'F', 00H, 'i', 00H, 'r', 00H, 's', 00H, 't', 00H, ' ', 00H, 'C'
	DB	00H, 'a', 00H, 'l', 00H, 'l', 00H, ':', 00H, ' ', 00H, '%', 00H
	DB	'3', 00H, '4', 00H, 'h', 00H, 's', 00H, 00H, 00H
	ORG $+2
$SG181932 DB	'S', 00H, 'A', 00H, 'M', 00H, 00H, 00H
$SG212653 DB	'G', 00H, 'a', 00H, 'm', 00H, 'e', 00H, 00H, 00H
	ORG $+2
$SG212648 DB	'[', 00H, 'B', 00H, 'o', 00H, 'r', 00H, 'd', 00H, 'e', 00H
	DB	'r', 00H, ' ', 00H, 'M', 00H, 'g', 00H, 'r', 00H, ']', 00H, ' '
	DB	00H, 'W', 00H, 'I', 00H, 'N', 00H, 'D', 00H, 'O', 00H, 'W', 00H
	DB	' ', 00H, '=', 00H, '>', 00H, ' ', 00H, '{', 00H, 'L', 00H, 'e'
	DB	00H, 'f', 00H, 't', 00H, ':', 00H, ' ', 00H, '%', 00H, 'l', 00H
	DB	'i', 00H, ',', 00H, ' ', 00H, 'T', 00H, 'o', 00H, 'p', 00H, ':'
	DB	00H, ' ', 00H, '%', 00H, 'l', 00H, 'i', 00H, '}', 00H, ' ', 00H
	DB	'-', 00H, ' ', 00H, '(', 00H, 'W', 00H, 'x', 00H, 'H', 00H, ':'
	DB	00H, ' ', 00H, '%', 00H, 'l', 00H, 'i', 00H, 'x', 00H, '%', 00H
	DB	'l', 00H, 'i', 00H, ')', 00H, ' ', 00H, '-', 00H, ' ', 00H, '{'
	DB	00H, ' ', 00H, 'B', 00H, 'o', 00H, 'r', 00H, 'd', 00H, 'e', 00H
	DB	'r', 00H, ':', 00H, ' ', 00H, '%', 00H, 's', 00H, ' ', 00H, '}'
	DB	00H, 00H, 00H
	ORG $+2
$SG211628 DB	'[', 00H, 'W', 00H, 'i', 00H, 'n', 00H, 'd', 00H, 'o', 00H
	DB	'w', 00H, ' ', 00H, 'M', 00H, 'g', 00H, 'r', 00H, ']', 00H, ' '
	DB	00H, 'A', 00H, 'p', 00H, 'p', 00H, 'l', 00H, 'i', 00H, 'c', 00H
	DB	'a', 00H, 't', 00H, 'i', 00H, 'o', 00H, 'n', 00H, ' ', 00H, 'A'
	DB	00H, 'c', 00H, 't', 00H, 'i', 00H, 'v', 00H, 'a', 00H, 't', 00H
	DB	'e', 00H, 'd', 00H, ' ', 00H, '(', 00H, 'N', 00H, 'o', 00H, 'n'
	DB	00H, '-', 00H, 'C', 00H, 'l', 00H, 'i', 00H, 'e', 00H, 'n', 00H
	DB	't', 00H, ')', 00H, 00H, 00H
$SG181933 DB	'S', 00H, 'E', 00H, 'C', 00H, 'U', 00H, 'R', 00H, 'I', 00H
	DB	'T', 00H, 'Y', 00H, 00H, 00H
	ORG $+2
$SG212654 DB	' ', 00H, 'I', 00H, 'N', 00H, ' ', 00H, 00H, 00H
	ORG $+2
$SG181934 DB	'S', 00H, 'Y', 00H, 'S', 00H, 'T', 00H, 'E', 00H, 'M', 00H
	DB	00H, 00H
	ORG $+2
$SG211631 DB	'[', 00H, 'W', 00H, 'i', 00H, 'n', 00H, 'd', 00H, 'o', 00H
	DB	'w', 00H, ' ', 00H, 'M', 00H, 'g', 00H, 'r', 00H, ']', 00H, ' '
	DB	00H, 'A', 00H, 'p', 00H, 'p', 00H, 'l', 00H, 'i', 00H, 'c', 00H
	DB	'a', 00H, 't', 00H, 'i', 00H, 'o', 00H, 'n', 00H, ' ', 00H, 'D'
	DB	00H, 'e', 00H, 'a', 00H, 'c', 00H, 't', 00H, 'i', 00H, 'v', 00H
	DB	'a', 00H, 't', 00H, 'e', 00H, 'd', 00H, ' ', 00H, '(', 00H, 'N'
	DB	00H, 'o', 00H, 'n', 00H, '-', 00H, 'C', 00H, 'l', 00H, 'i', 00H
	DB	'e', 00H, 'n', 00H, 't', 00H, ')', 00H, 00H, 00H
$SG181935 DB	'S', 00H, 'o', 00H, 'f', 00H, 't', 00H, 'w', 00H, 'a', 00H
	DB	'r', 00H, 'e', 00H, 00H, 00H
	ORG $+2
$SG181936 DB	'T', 00H, 'y', 00H, 'p', 00H, 'e', 00H, 'L', 00H, 'i', 00H
	DB	'b', 00H, 00H, 00H
$SG212658 DB	'[', 00H, 'C', 00H, 'u', 00H, 'r', 00H, 's', 00H, 'o', 00H
	DB	'r', 00H, ' ', 00H, 'M', 00H, 'g', 00H, 'r', 00H, ']', 00H, ' '
	DB	00H, 'N', 00H, 'e', 00H, 'e', 00H, 'd', 00H, ' ', 00H, 't', 00H
	DB	'o', 00H, ' ', 00H, 't', 00H, 'r', 00H, 'a', 00H, 'n', 00H, 's'
	DB	00H, 'f', 00H, 'o', 00H, 'r', 00H, 'm', 00H, ' ', 00H, 'o', 00H
	DB	'r', 00H, 'i', 00H, 'g', 00H, 'i', 00H, 'n', 00H, 'a', 00H, 'l'
	DB	00H, ' ', 00H, 'c', 00H, 'l', 00H, 'i', 00H, 'p', 00H, ' ', 00H
	DB	'r', 00H, 'e', 00H, 'c', 00H, 't', 00H, '.', 00H, '.', 00H, '.'
	DB	00H, 00H, 00H
	ORG $+2
$SG212659 DB	'O', 00H, 'U', 00H, 'T', 00H, ' ', 00H, 00H, 00H
	ORG $+2
$SG211645 DB	'[', 00H, 'W', 00H, 'i', 00H, 'n', 00H, 'd', 00H, 'o', 00H
	DB	'w', 00H, ' ', 00H, 'M', 00H, 'g', 00H, 'r', 00H, ']', 00H, ' '
	DB	00H, 'A', 00H, 'p', 00H, 'p', 00H, 'l', 00H, 'i', 00H, 'c', 00H
	DB	'a', 00H, 't', 00H, 'i', 00H, 'o', 00H, 'n', 00H, ' ', 00H, 'A'
	DB	00H, 'c', 00H, 't', 00H, 'i', 00H, 'v', 00H, 'a', 00H, 't', 00H
	DB	'e', 00H, 'd', 00H, ' ', 00H, '(', 00H, 'N', 00H, 'o', 00H, 'n'
	DB	00H, '-', 00H, 'C', 00H, 'l', 00H, 'i', 00H, 'e', 00H, 'n', 00H
	DB	't', 00H, ')', 00H, 00H, 00H
$SG212671 DB	'GetSystemMetrics_Detour', 00H
$SG212672 DB	'[', 00H, 'W', 00H, 'i', 00H, 'n', 00H, 'd', 00H, 'o', 00H
	DB	'w', 00H, ' ', 00H, 'M', 00H, 'g', 00H, 'r', 00H, ']', 00H, ' '
	DB	00H, '[', 00H, '!', 00H, ']', 00H, ' ', 00H, '>', 00H, ' ', 00H
	DB	'F', 00H, 'i', 00H, 'r', 00H, 's', 00H, 't', 00H, ' ', 00H, 'C'
	DB	00H, 'a', 00H, 'l', 00H, 'l', 00H, ':', 00H, ' ', 00H, '%', 00H
	DB	'3', 00H, '4', 00H, 'h', 00H, 's', 00H, 00H, 00H
	ORG $+2
$SG169674 DB	'a', 00H, 't', 00H, 'l', 00H, 'T', 00H, 'r', 00H, 'a', 00H
	DB	'c', 00H, 'e', 00H, 'R', 00H, 'e', 00H, 'g', 00H, 'i', 00H, 's'
	DB	00H, 't', 00H, 'r', 00H, 'a', 00H, 'r', 00H, 00H, 00H
$SG211648 DB	'[', 00H, 'W', 00H, 'i', 00H, 'n', 00H, 'd', 00H, 'o', 00H
	DB	'w', 00H, ' ', 00H, 'M', 00H, 'g', 00H, 'r', 00H, ']', 00H, ' '
	DB	00H, 'A', 00H, 'p', 00H, 'p', 00H, 'l', 00H, 'i', 00H, 'c', 00H
	DB	'a', 00H, 't', 00H, 'i', 00H, 'o', 00H, 'n', 00H, ' ', 00H, 'D'
	DB	00H, 'e', 00H, 'a', 00H, 'c', 00H, 't', 00H, 'i', 00H, 'v', 00H
	DB	'a', 00H, 't', 00H, 'e', 00H, 'd', 00H, ' ', 00H, '(', 00H, 'N'
	DB	00H, 'o', 00H, 'n', 00H, '-', 00H, 'C', 00H, 'l', 00H, 'i', 00H
	DB	'e', 00H, 'n', 00H, 't', 00H, ')', 00H, 00H, 00H
$SG212692 DB	'SK_GetSystemMetrics', 00H
$SG212674 DB	'[', 00H, 'R', 00H, 'e', 00H, 's', 00H, 'o', 00H, 'l', 00H
	DB	'u', 00H, 't', 00H, 'i', 00H, 'o', 00H, 'n', 00H, ']', 00H, ' '
	DB	00H, 'G', 00H, 'e', 00H, 't', 00H, 'S', 00H, 'y', 00H, 's', 00H
	DB	't', 00H, 'e', 00H, 'm', 00H, 'M', 00H, 'e', 00H, 't', 00H, 'r'
	DB	00H, 'i', 00H, 'c', 00H, 's', 00H, ' ', 00H, '(', 00H, '%', 00H
	DB	'4', 00H, 'l', 00H, 'i', 00H, ')', 00H, ' ', 00H, ':', 00H, ' '
	DB	00H, '%', 00H, '-', 00H, '5', 00H, 'l', 00H, 'i', 00H, ' ', 00H
	DB	'-', 00H, ' ', 00H, '%', 00H, 's', 00H, 00H, 00H
$SG211670 DB	'U', 00H, 'N', 00H, 'K', 00H, 'K', 00H, 'N', 00H, 'O', 00H
	DB	'W', 00H, 'N', 00H, 00H, 00H
	ORG $+2
$SG282317 DB	'[', 00H, 'W', 00H, 'i', 00H, 'n', 00H, 'd', 00H, 'o', 00H
	DB	'w', 00H, ' ', 00H, 'M', 00H, 'g', 00H, 'r', 00H, ']', 00H, ' '
	DB	00H, ' ', 00H, '>', 00H, '>', 00H, ' ', 00H, 'H', 00H, 'o', 00H
	DB	'o', 00H, 'k', 00H, 'e', 00H, 'd', 00H, ' ', 00H, 'C', 00H, 'l'
	DB	00H, 'a', 00H, 's', 00H, 's', 00H, 'P', 00H, 'r', 00H, 'o', 00H
	DB	'c', 00H, '.', 00H, 00H, 00H
	ORG $+2
$SG282319 DB	'[', 00H, 'W', 00H, 'i', 00H, 'n', 00H, 'd', 00H, 'o', 00H
	DB	'w', 00H, ' ', 00H, 'M', 00H, 'g', 00H, 'r', 00H, ']', 00H, ' '
	DB	00H, ' ', 00H, '>', 00H, '>', 00H, ' ', 00H, 'H', 00H, 'o', 00H
	DB	'o', 00H, 'k', 00H, 'e', 00H, 'd', 00H, ' ', 00H, 'W', 00H, 'n'
	DB	00H, 'd', 00H, 'P', 00H, 'r', 00H, 'o', 00H, 'c', 00H, '.', 00H
	DB	00H, 00H
	ORG $+2
$SG211672 DB	'(', 00H, 'W', 00H, 'M', 00H, '_', 00H, 'A', 00H, 'C', 00H
	DB	'T', 00H, 'I', 00H, 'V', 00H, 'A', 00H, 'T', 00H, 'E', 00H, ' '
	DB	00H, '[', 00H, ' ', 00H, 'W', 00H, 'A', 00H, '_', 00H, 'A', 00H
	DB	'C', 00H, 'T', 00H, 'I', 00H, 'V', 00H, 'E', 00H, ' ', 00H, ']'
	DB	00H, ')', 00H, 00H, 00H
$SG211675 DB	'(', 00H, 'W', 00H, 'M', 00H, '_', 00H, 'A', 00H, 'C', 00H
	DB	'T', 00H, 'I', 00H, 'V', 00H, 'A', 00H, 'T', 00H, 'E', 00H, ' '
	DB	00H, '[', 00H, ' ', 00H, 'W', 00H, 'A', 00H, '_', 00H, 'I', 00H
	DB	'N', 00H, 'A', 00H, 'C', 00H, 'T', 00H, 'I', 00H, 'V', 00H, 'E'
	DB	00H, ' ', 00H, ']', 00H, ')', 00H, 00H, 00H
$SG212693 DB	'[', 00H, 'W', 00H, 'i', 00H, 'n', 00H, 'd', 00H, 'o', 00H
	DB	'w', 00H, ' ', 00H, 'M', 00H, 'g', 00H, 'r', 00H, ']', 00H, ' '
	DB	00H, '[', 00H, '!', 00H, ']', 00H, ' ', 00H, '>', 00H, ' ', 00H
	DB	'F', 00H, 'i', 00H, 'r', 00H, 's', 00H, 't', 00H, ' ', 00H, 'C'
	DB	00H, 'a', 00H, 'l', 00H, 'l', 00H, ':', 00H, ' ', 00H, '%', 00H
	DB	'3', 00H, '4', 00H, 'h', 00H, 's', 00H, 00H, 00H
	ORG $+2
$SG169721 DB	'a', 00H, 't', 00H, 'l', 00H, 'T', 00H, 'r', 00H, 'a', 00H
	DB	'c', 00H, 'e', 00H, 'R', 00H, 'e', 00H, 'f', 00H, 'c', 00H, 'o'
	DB	00H, 'u', 00H, 'n', 00H, 't', 00H, 00H, 00H
	ORG $+2
$SG211673 DB	'(', 00H, 'W', 00H, 'M', 00H, '_', 00H, 'A', 00H, 'C', 00H
	DB	'T', 00H, 'I', 00H, 'V', 00H, 'A', 00H, 'T', 00H, 'E', 00H, ' '
	DB	00H, '[', 00H, ' ', 00H, 'W', 00H, 'A', 00H, '_', 00H, 'C', 00H
	DB	'L', 00H, 'I', 00H, 'C', 00H, 'K', 00H, 'A', 00H, 'C', 00H, 'T'
	DB	00H, 'I', 00H, 'V', 00H, 'E', 00H, ' ', 00H, ']', 00H, ')', 00H
	DB	00H, 00H
	ORG $+2
$SG211734 DB	'S', 00H, 'K', 00H, 'I', 00H, 'M', 00H, 00H, 00H
	ORG $+2
$SG211679 DB	'[', 00H, 'W', 00H, 'i', 00H, 'n', 00H, 'd', 00H, 'o', 00H
	DB	'w', 00H, ' ', 00H, 'M', 00H, 'g', 00H, 'r', 00H, ']', 00H, ' '
	DB	00H, 'A', 00H, 'p', 00H, 'p', 00H, 'l', 00H, 'i', 00H, 'c', 00H
	DB	'a', 00H, 't', 00H, 'i', 00H, 'o', 00H, 'n', 00H, ' ', 00H, 'D'
	DB	00H, 'e', 00H, 'a', 00H, 'c', 00H, 't', 00H, 'i', 00H, 'v', 00H
	DB	'a', 00H, 't', 00H, 'e', 00H, 'd', 00H, ' ', 00H, '%', 00H, 's'
	DB	00H, 00H, 00H
$SG211683 DB	'[', 00H, 'W', 00H, 'i', 00H, 'n', 00H, 'd', 00H, 'o', 00H
	DB	'w', 00H, ' ', 00H, 'M', 00H, 'g', 00H, 'r', 00H, ']', 00H, ' '
	DB	00H, 'A', 00H, 'p', 00H, 'p', 00H, 'l', 00H, 'i', 00H, 'c', 00H
	DB	'a', 00H, 't', 00H, 'i', 00H, 'o', 00H, 'n', 00H, ' ', 00H, 'A'
	DB	00H, 'c', 00H, 't', 00H, 'i', 00H, 'v', 00H, 'a', 00H, 't', 00H
	DB	'e', 00H, 'd', 00H, ' ', 00H, '%', 00H, 's', 00H, 00H, 00H
$SG212768 DB	'G', 00H, 'a', 00H, 'm', 00H, 'e', 00H, 'O', 00H, 'v', 00H
	DB	'e', 00H, 'r', 00H, 'l', 00H, 'a', 00H, 'y', 00H, 'R', 00H, 'e'
	DB	00H, 'n', 00H, 'd', 00H, 'e', 00H, 'r', 00H, 'e', 00H, 'r', 00H
	DB	'.', 00H, 'd', 00H, 'l', 00H, 'l', 00H, 00H, 00H
$SG212772 DB	'PeekMessageW_Detour', 00H
$SG212773 DB	'[', 00H, 'W', 00H, 'i', 00H, 'n', 00H, 'd', 00H, 'o', 00H
	DB	'w', 00H, ' ', 00H, 'M', 00H, 'g', 00H, 'r', 00H, ']', 00H, ' '
	DB	00H, '[', 00H, '!', 00H, ']', 00H, ' ', 00H, '>', 00H, ' ', 00H
	DB	'F', 00H, 'i', 00H, 'r', 00H, 's', 00H, 't', 00H, ' ', 00H, 'C'
	DB	00H, 'a', 00H, 'l', 00H, 'l', 00H, ':', 00H, ' ', 00H, '%', 00H
	DB	'3', 00H, '4', 00H, 'h', 00H, 's', 00H, 00H, 00H
	ORG $+2
$SG169768 DB	'a', 00H, 't', 00H, 'l', 00H, 'T', 00H, 'r', 00H, 'a', 00H
	DB	'c', 00H, 'e', 00H, 'W', 00H, 'i', 00H, 'n', 00H, 'd', 00H, 'o'
	DB	00H, 'w', 00H, 'i', 00H, 'n', 00H, 'g', 00H, 00H, 00H
$SG212791 DB	'G', 00H, 'a', 00H, 'm', 00H, 'e', 00H, 'O', 00H, 'v', 00H
	DB	'e', 00H, 'r', 00H, 'l', 00H, 'a', 00H, 'y', 00H, 'R', 00H, 'e'
	DB	00H, 'n', 00H, 'd', 00H, 'e', 00H, 'r', 00H, 'e', 00H, 'r', 00H
	DB	'.', 00H, 'd', 00H, 'l', 00H, 'l', 00H, 00H, 00H
$SG212795 DB	'PeekMessageA_Detour', 00H
$SG282439 DB	'SetWindowPlacement', 00H
	ORG $+1
$SG212796 DB	'[', 00H, 'W', 00H, 'i', 00H, 'n', 00H, 'd', 00H, 'o', 00H
	DB	'w', 00H, ' ', 00H, 'M', 00H, 'g', 00H, 'r', 00H, ']', 00H, ' '
	DB	00H, '[', 00H, '!', 00H, ']', 00H, ' ', 00H, '>', 00H, ' ', 00H
	DB	'F', 00H, 'i', 00H, 'r', 00H, 's', 00H, 't', 00H, ' ', 00H, 'C'
	DB	00H, 'a', 00H, 'l', 00H, 'l', 00H, ':', 00H, ' ', 00H, '%', 00H
	DB	'3', 00H, '4', 00H, 'h', 00H, 's', 00H, 00H, 00H
	ORG $+2
$SG282437 DB	'SetWindowPos', 00H
	ORG $+3
$SG282438 DB	'u', 00H, 's', 00H, 'e', 00H, 'r', 00H, '3', 00H, '2', 00H
	DB	'.', 00H, 'd', 00H, 'l', 00H, 'l', 00H, 00H, 00H
	ORG $+2
$SG282440 DB	'u', 00H, 's', 00H, 'e', 00H, 'r', 00H, '3', 00H, '2', 00H
	DB	'.', 00H, 'd', 00H, 'l', 00H, 'l', 00H, 00H, 00H
	ORG $+2
$SG282441 DB	'MoveWindow', 00H
	ORG $+1
$SG282442 DB	'u', 00H, 's', 00H, 'e', 00H, 'r', 00H, '3', 00H, '2', 00H
	DB	'.', 00H, 'd', 00H, 'l', 00H, 'l', 00H, 00H, 00H
	ORG $+2
$SG282443 DB	'ClipCursor', 00H
	ORG $+1
$SG282444 DB	'u', 00H, 's', 00H, 'e', 00H, 'r', 00H, '3', 00H, '2', 00H
	DB	'.', 00H, 'd', 00H, 'l', 00H, 'l', 00H, 00H, 00H
	ORG $+2
$SG212812 DB	'G', 00H, 'a', 00H, 'm', 00H, 'e', 00H, 'O', 00H, 'v', 00H
	DB	'e', 00H, 'r', 00H, 'l', 00H, 'a', 00H, 'y', 00H, 'R', 00H, 'e'
	DB	00H, 'n', 00H, 'd', 00H, 'e', 00H, 'r', 00H, 'e', 00H, 'r', 00H
	DB	'.', 00H, 'd', 00H, 'l', 00H, 'l', 00H, 00H, 00H
$SG282445 DB	'CreateWindowExW', 00H
$SG282446 DB	'u', 00H, 's', 00H, 'e', 00H, 'r', 00H, '3', 00H, '2', 00H
	DB	'.', 00H, 'd', 00H, 'l', 00H, 'l', 00H, 00H, 00H
	ORG $+2
$SG282447 DB	'CreateWindowExA', 00H
$SG282448 DB	'u', 00H, 's', 00H, 'e', 00H, 'r', 00H, '3', 00H, '2', 00H
	DB	'.', 00H, 'd', 00H, 'l', 00H, 'l', 00H, 00H, 00H
	ORG $+2
$SG212816 DB	'GetMessageA_Detour', 00H
	ORG $+1
$SG282449 DB	'SetWindowLongA', 00H
	ORG $+1
$SG212817 DB	'[', 00H, 'W', 00H, 'i', 00H, 'n', 00H, 'd', 00H, 'o', 00H
	DB	'w', 00H, ' ', 00H, 'M', 00H, 'g', 00H, 'r', 00H, ']', 00H, ' '
	DB	00H, '[', 00H, '!', 00H, ']', 00H, ' ', 00H, '>', 00H, ' ', 00H
	DB	'F', 00H, 'i', 00H, 'r', 00H, 's', 00H, 't', 00H, ' ', 00H, 'C'
	DB	00H, 'a', 00H, 'l', 00H, 'l', 00H, ':', 00H, ' ', 00H, '%', 00H
	DB	'3', 00H, '4', 00H, 'h', 00H, 's', 00H, 00H, 00H
	ORG $+2
$SG282450 DB	'u', 00H, 's', 00H, 'e', 00H, 'r', 00H, '3', 00H, '2', 00H
	DB	'.', 00H, 'd', 00H, 'l', 00H, 'l', 00H, 00H, 00H
	ORG $+2
$SG282451 DB	'SetWindowLongW', 00H
	ORG $+1
$SG282452 DB	'u', 00H, 's', 00H, 'e', 00H, 'r', 00H, '3', 00H, '2', 00H
	DB	'.', 00H, 'd', 00H, 'l', 00H, 'l', 00H, 00H, 00H
	ORG $+2
$SG282453 DB	'GetWindowLongA', 00H
	ORG $+1
$SG282454 DB	'u', 00H, 's', 00H, 'e', 00H, 'r', 00H, '3', 00H, '2', 00H
	DB	'.', 00H, 'd', 00H, 'l', 00H, 'l', 00H, 00H, 00H
	ORG $+2
$SG282455 DB	'GetWindowLongW', 00H
	ORG $+1
$SG169815 DB	'a', 00H, 't', 00H, 'l', 00H, 'T', 00H, 'r', 00H, 'a', 00H
	DB	'c', 00H, 'e', 00H, 'C', 00H, 'o', 00H, 'n', 00H, 't', 00H, 'r'
	DB	00H, 'o', 00H, 'l', 00H, 's', 00H, 00H, 00H
	ORG $+2
$SG282456 DB	'u', 00H, 's', 00H, 'e', 00H, 'r', 00H, '3', 00H, '2', 00H
	DB	'.', 00H, 'd', 00H, 'l', 00H, 'l', 00H, 00H, 00H
	ORG $+2
$SG282457 DB	'GetWindowRect', 00H
	ORG $+2
$SG282458 DB	'u', 00H, 's', 00H, 'e', 00H, 'r', 00H, '3', 00H, '2', 00H
	DB	'.', 00H, 'd', 00H, 'l', 00H, 'l', 00H, 00H, 00H
	ORG $+2
$SG282459 DB	'GetClientRect', 00H
	ORG $+2
$SG282460 DB	'u', 00H, 's', 00H, 'e', 00H, 'r', 00H, '3', 00H, '2', 00H
	DB	'.', 00H, 'd', 00H, 'l', 00H, 'l', 00H, 00H, 00H
	ORG $+2
$SG282461 DB	'AdjustWindowRect', 00H
	ORG $+3
$SG212829 DB	'G', 00H, 'a', 00H, 'm', 00H, 'e', 00H, 'O', 00H, 'v', 00H
	DB	'e', 00H, 'r', 00H, 'l', 00H, 'a', 00H, 'y', 00H, 'R', 00H, 'e'
	DB	00H, 'n', 00H, 'd', 00H, 'e', 00H, 'r', 00H, 'e', 00H, 'r', 00H
	DB	'.', 00H, 'd', 00H, 'l', 00H, 'l', 00H, 00H, 00H
$SG282462 DB	'u', 00H, 's', 00H, 'e', 00H, 'r', 00H, '3', 00H, '2', 00H
	DB	'.', 00H, 'd', 00H, 'l', 00H, 'l', 00H, 00H, 00H
	ORG $+2
$SG282463 DB	'AdjustWindowRectEx', 00H
	ORG $+1
$SG282464 DB	'u', 00H, 's', 00H, 'e', 00H, 'r', 00H, '3', 00H, '2', 00H
	DB	'.', 00H, 'd', 00H, 'l', 00H, 'l', 00H, 00H, 00H
	ORG $+2
$SG282465 DB	'GetSystemMetrics', 00H
	ORG $+3
$SG212833 DB	'GetMessageW_Detour', 00H
	ORG $+1
$SG282466 DB	'u', 00H, 's', 00H, 'e', 00H, 'r', 00H, '3', 00H, '2', 00H
	DB	'.', 00H, 'd', 00H, 'l', 00H, 'l', 00H, 00H, 00H
	ORG $+2
$SG212834 DB	'[', 00H, 'W', 00H, 'i', 00H, 'n', 00H, 'd', 00H, 'o', 00H
	DB	'w', 00H, ' ', 00H, 'M', 00H, 'g', 00H, 'r', 00H, ']', 00H, ' '
	DB	00H, '[', 00H, '!', 00H, ']', 00H, ' ', 00H, '>', 00H, ' ', 00H
	DB	'F', 00H, 'i', 00H, 'r', 00H, 's', 00H, 't', 00H, ' ', 00H, 'C'
	DB	00H, 'a', 00H, 'l', 00H, 'l', 00H, ':', 00H, ' ', 00H, '%', 00H
	DB	'3', 00H, '4', 00H, 'h', 00H, 's', 00H, 00H, 00H
	ORG $+2
$SG212844 DB	'G', 00H, 'a', 00H, 'm', 00H, 'e', 00H, 'O', 00H, 'v', 00H
	DB	'e', 00H, 'r', 00H, 'l', 00H, 'a', 00H, 'y', 00H, 'R', 00H, 'e'
	DB	00H, 'n', 00H, 'd', 00H, 'e', 00H, 'r', 00H, 'e', 00H, 'r', 00H
	DB	'.', 00H, 'd', 00H, 'l', 00H, 'l', 00H, 00H, 00H
$SG212848 DB	'DispatchMessageW_Detour', 00H
$SG169909 DB	'a', 00H, 't', 00H, 'l', 00H, 'T', 00H, 'r', 00H, 'a', 00H
	DB	'c', 00H, 'e', 00H, 'D', 00H, 'B', 00H, 'C', 00H, 'l', 00H, 'i'
	DB	00H, 'e', 00H, 'n', 00H, 't', 00H, 00H, 00H
	ORG $+2
$SG212849 DB	'[', 00H, 'W', 00H, 'i', 00H, 'n', 00H, 'd', 00H, 'o', 00H
	DB	'w', 00H, ' ', 00H, 'M', 00H, 'g', 00H, 'r', 00H, ']', 00H, ' '
	DB	00H, '[', 00H, '!', 00H, ']', 00H, ' ', 00H, '>', 00H, ' ', 00H
	DB	'F', 00H, 'i', 00H, 'r', 00H, 's', 00H, 't', 00H, ' ', 00H, 'C'
	DB	00H, 'a', 00H, 'l', 00H, 'l', 00H, ':', 00H, ' ', 00H, '%', 00H
	DB	'3', 00H, '4', 00H, 'h', 00H, 's', 00H, 00H, 00H
	ORG $+2
$SG212859 DB	'G', 00H, 'a', 00H, 'm', 00H, 'e', 00H, 'O', 00H, 'v', 00H
	DB	'e', 00H, 'r', 00H, 'l', 00H, 'a', 00H, 'y', 00H, 'R', 00H, 'e'
	DB	00H, 'n', 00H, 'd', 00H, 'e', 00H, 'r', 00H, 'e', 00H, 'r', 00H
	DB	'.', 00H, 'd', 00H, 'l', 00H, 'l', 00H, 00H, 00H
$SG212863 DB	'DispatchMessageA_Detour', 00H
$SG211917 DB	'ClipCursor_Detour', 00H
	ORG $+2
$SG212864 DB	'[', 00H, 'W', 00H, 'i', 00H, 'n', 00H, 'd', 00H, 'o', 00H
	DB	'w', 00H, ' ', 00H, 'M', 00H, 'g', 00H, 'r', 00H, ']', 00H, ' '
	DB	00H, '[', 00H, '!', 00H, ']', 00H, ' ', 00H, '>', 00H, ' ', 00H
	DB	'F', 00H, 'i', 00H, 'r', 00H, 's', 00H, 't', 00H, ' ', 00H, 'C'
	DB	00H, 'a', 00H, 'l', 00H, 'l', 00H, ':', 00H, ' ', 00H, '%', 00H
	DB	'3', 00H, '4', 00H, 'h', 00H, 's', 00H, 00H, 00H
	ORG $+2
$SG169862 DB	'a', 00H, 't', 00H, 'l', 00H, 'T', 00H, 'r', 00H, 'a', 00H
	DB	'c', 00H, 'e', 00H, 'H', 00H, 'o', 00H, 's', 00H, 't', 00H, 'i'
	DB	00H, 'n', 00H, 'g', 00H, 00H, 00H
$SG181235 DB	'S', 00H, 00H, 00H
$SG211918 DB	'[', 00H, 'W', 00H, 'i', 00H, 'n', 00H, 'd', 00H, 'o', 00H
	DB	'w', 00H, ' ', 00H, 'M', 00H, 'g', 00H, 'r', 00H, ']', 00H, ' '
	DB	00H, '[', 00H, '!', 00H, ']', 00H, ' ', 00H, '>', 00H, ' ', 00H
	DB	'F', 00H, 'i', 00H, 'r', 00H, 's', 00H, 't', 00H, ' ', 00H, 'C'
	DB	00H, 'a', 00H, 'l', 00H, 'l', 00H, ':', 00H, ' ', 00H, '%', 00H
	DB	'3', 00H, '4', 00H, 'h', 00H, 's', 00H, 00H, 00H
	ORG $+2
$SG169956 DB	'a', 00H, 't', 00H, 'l', 00H, 'T', 00H, 'r', 00H, 'a', 00H
	DB	'c', 00H, 'e', 00H, 'D', 00H, 'B', 00H, 'P', 00H, 'r', 00H, 'o'
	DB	00H, 'v', 00H, 'i', 00H, 'd', 00H, 'e', 00H, 'r', 00H, 00H, 00H
	ORG $+2
$SG181237 DB	'M', 00H, 00H, 00H
$SG181239 DB	'D', 00H, 00H, 00H
$SG181241 DB	'B', 00H, 00H, 00H
$SG181243 DB	'V', 00H, 'a', 00H, 'l', 00H, 00H, 00H
$SG181245 DB	'F', 00H, 'o', 00H, 'r', 00H, 'c', 00H, 'e', 00H, 'R', 00H
	DB	'e', 00H, 'm', 00H, 'o', 00H, 'v', 00H, 'e', 00H, 00H, 00H
$SG181247 DB	'N', 00H, 'o', 00H, 'R', 00H, 'e', 00H, 'm', 00H, 'o', 00H
	DB	'v', 00H, 'e', 00H, 00H, 00H
CONST	ENDS
;	COMDAT ?szDelete@ATL@@3QB_WB
CONST	SEGMENT
?szDelete@ATL@@3QB_WB DD FLAT:$SG181249			; ATL::szDelete
CONST	ENDS
PUBLIC	??_H@YGXPAXIIP6EPAX0@Z@Z			; `vector constructor iterator'
PUBLIC	?__empty_global_delete@@YAXPAX@Z		; __empty_global_delete
PUBLIC	?__empty_global_delete@@YAXPAXI@Z		; __empty_global_delete
PUBLIC	_ReadAcquire
PUBLIC	_HRESULT_FROM_WIN32
PUBLIC	?SK_HookWinAPI@@YAXXZ				; SK_HookWinAPI
PUBLIC	?SK_InstallWindowHook@@YAXPAUHWND__@@@Z		; SK_InstallWindowHook
PUBLIC	?SK_InitWindow@@YAXPAUHWND__@@_N@Z		; SK_InitWindow
PUBLIC	?SK_AdjustWindow@@YAXXZ				; SK_AdjustWindow
PUBLIC	?SK_AdjustBorder@@YAXXZ				; SK_AdjustBorder
PUBLIC	?SK_CenterWindowAtMouse@@YAXH@Z			; SK_CenterWindowAtMouse
PUBLIC	?SK_SetWindowResX@@YAXJ@Z			; SK_SetWindowResX
PUBLIC	?SK_SetWindowResY@@YAXJ@Z			; SK_SetWindowResY
PUBLIC	?SK_GetSystemMetrics@@YGHH@Z			; SK_GetSystemMetrics
PUBLIC	?SK_GetGameRect@@YAPAUtagRECT@@XZ		; SK_GetGameRect
PUBLIC	?SK_RealizeForegroundWindow@@YGKPAUHWND__@@@Z	; SK_RealizeForegroundWindow
PUBLIC	?SK_GetGameWindow@@YGPAUHWND__@@XZ		; SK_GetGameWindow
PUBLIC	??0<unnamed-type-border>@sk_window_s@@QAE@XZ	; sk_window_s::<unnamed-type-border>::<unnamed-type-border>
PUBLIC	??0<unnamed-type-framebuffer>@<unnamed-type-game>@sk_window_s@@QAE@XZ ; sk_window_s::<unnamed-type-game>::<unnamed-type-framebuffer>::<unnamed-type-framebuffer>
PUBLIC	??0<unnamed-type-game>@sk_window_s@@QAE@XZ	; sk_window_s::<unnamed-type-game>::<unnamed-type-game>
PUBLIC	??0<unnamed-type-scale>@<unnamed-type-coord_remap>@sk_window_s@@QAE@XZ ; sk_window_s::<unnamed-type-coord_remap>::<unnamed-type-scale>::<unnamed-type-scale>
PUBLIC	??0<unnamed-type-offset>@<unnamed-type-coord_remap>@sk_window_s@@QAE@XZ ; sk_window_s::<unnamed-type-coord_remap>::<unnamed-type-offset>::<unnamed-type-offset>
PUBLIC	??0<unnamed-type-coord_remap>@sk_window_s@@QAE@XZ ; sk_window_s::<unnamed-type-coord_remap>::<unnamed-type-coord_remap>
PUBLIC	?needsCoordTransform@sk_window_s@@QAE_NXZ	; sk_window_s::needsCoordTransform
PUBLIC	?updateDims@sk_window_s@@QAEXXZ			; sk_window_s::updateDims
PUBLIC	?DefProc@sk_window_s@@QAEJIIJ@Z			; sk_window_s::DefProc
PUBLIC	?CallProc@sk_window_s@@QAEJPAUHWND__@@IIJ@Z	; sk_window_s::CallProc
PUBLIC	??0sk_window_s@@QAE@XZ				; sk_window_s::sk_window_s
PUBLIC	?SK_FindRootWindow@@YA?AUwindow_t@@K@Z		; SK_FindRootWindow
PUBLIC	?_Hash_seq@std@@YAIPBEI@Z			; std::_Hash_seq
PUBLIC	??2@YAPAXIPAX@Z					; operator new
PUBLIC	??3@YAXPAX0@Z					; operator delete
PUBLIC	?assign@?$char_traits@_W@std@@SAXAA_WAB_W@Z	; std::char_traits<wchar_t>::assign
PUBLIC	?assign@?$char_traits@D@std@@SAXAADABD@Z	; std::char_traits<char>::assign
PUBLIC	?_Orphan_all@_Container_base0@std@@QAEXXZ	; std::_Container_base0::_Orphan_all
PUBLIC	?_Adopt@_Iterator_base0@std@@QAEXPBX@Z		; std::_Iterator_base0::_Adopt
PUBLIC	?_Getcont@_Iterator_base0@std@@QBEPBU_Container_base0@2@XZ ; std::_Iterator_base0::_Getcont
PUBLIC	?min@?$numeric_limits@J@std@@SAJXZ		; std::numeric_limits<long>::min
PUBLIC	?max@?$numeric_limits@J@std@@SAJXZ		; std::numeric_limits<long>::max
PUBLIC	?_Allocate@std@@YAPAXII_N@Z			; std::_Allocate
PUBLIC	?_Deallocate@std@@YAXPAXII@Z			; std::_Deallocate
PUBLIC	?deallocate@?$allocator@D@std@@QAEXPADI@Z	; std::allocator<char>::deallocate
PUBLIC	?deallocate@?$_Wrap_alloc@V?$allocator@D@std@@@std@@QAEXPADI@Z ; std::_Wrap_alloc<std::allocator<char> >::deallocate
PUBLIC	?_Large_string_engaged@?$_String_val@U?$_Simple_types@D@std@@@std@@QBE_NXZ ; std::_String_val<std::_Simple_types<char> >::_Large_string_engaged
PUBLIC	??1_Bxty@?$_String_val@U?$_Simple_types@D@std@@@std@@QAE@XZ ; std::_String_val<std::_Simple_types<char> >::_Bxty::~_Bxty
PUBLIC	??1?$_String_val@U?$_Simple_types@D@std@@@std@@QAE@XZ ; std::_String_val<std::_Simple_types<char> >::~_String_val<std::_Simple_types<char> >
PUBLIC	?_Orphan_all@?$_String_alloc@U?$_String_base_types@DV?$allocator@D@std@@@std@@@std@@QAEXXZ ; std::_String_alloc<std::_String_base_types<char,std::allocator<char> > >::_Orphan_all
PUBLIC	?_Getal@?$_String_alloc@U?$_String_base_types@DV?$allocator@D@std@@@std@@@std@@QAEAAU?$_Wrap_alloc@V?$allocator@D@std@@@2@XZ ; std::_String_alloc<std::_String_base_types<char,std::allocator<char> > >::_Getal
PUBLIC	?_Get_data@?$_String_alloc@U?$_String_base_types@DV?$allocator@D@std@@@std@@@std@@QAEAAV?$_String_val@U?$_Simple_types@D@std@@@2@XZ ; std::_String_alloc<std::_String_base_types<char,std::allocator<char> > >::_Get_data
PUBLIC	?_Get_first@?$_Compressed_pair@U?$_Wrap_alloc@V?$allocator@D@std@@@std@@V?$_String_val@U?$_Simple_types@D@std@@@2@$00@std@@QAEAAU?$_Wrap_alloc@V?$allocator@D@std@@@2@XZ ; std::_Compressed_pair<std::_Wrap_alloc<std::allocator<char> >,std::_String_val<std::_Simple_types<char> >,1>::_Get_first
PUBLIC	?_Get_second@?$_Compressed_pair@U?$_Wrap_alloc@V?$allocator@D@std@@@std@@V?$_String_val@U?$_Simple_types@D@std@@@2@$00@std@@QAEAAV?$_String_val@U?$_Simple_types@D@std@@@2@XZ ; std::_Compressed_pair<std::_Wrap_alloc<std::allocator<char> >,std::_String_val<std::_Simple_types<char> >,1>::_Get_second
PUBLIC	??1?$_Compressed_pair@U?$_Wrap_alloc@V?$allocator@D@std@@@std@@V?$_String_val@U?$_Simple_types@D@std@@@2@$00@std@@QAE@XZ ; std::_Compressed_pair<std::_Wrap_alloc<std::allocator<char> >,std::_String_val<std::_Simple_types<char> >,1>::~_Compressed_pair<std::_Wrap_alloc<std::allocator<char> >,std::_String_val<std::_Simple_types<char> >,1>
PUBLIC	??1?$_String_alloc@U?$_String_base_types@DV?$allocator@D@std@@@std@@@std@@QAE@XZ ; std::_String_alloc<std::_String_base_types<char,std::allocator<char> > >::~_String_alloc<std::_String_base_types<char,std::allocator<char> > >
PUBLIC	??1?$basic_string@DU?$char_traits@D@std@@V?$allocator@D@2@@std@@QAE@XZ ; std::basic_string<char,std::char_traits<char>,std::allocator<char> >::~basic_string<char,std::char_traits<char>,std::allocator<char> >
PUBLIC	?_Tidy_deallocate@?$basic_string@DU?$char_traits@D@std@@V?$allocator@D@2@@std@@QAEXXZ ; std::basic_string<char,std::char_traits<char>,std::allocator<char> >::_Tidy_deallocate
PUBLIC	?deallocate@?$allocator@_W@std@@QAEXPA_WI@Z	; std::allocator<wchar_t>::deallocate
PUBLIC	?deallocate@?$_Wrap_alloc@V?$allocator@_W@std@@@std@@QAEXPA_WI@Z ; std::_Wrap_alloc<std::allocator<wchar_t> >::deallocate
PUBLIC	?_Myptr@?$_String_val@U?$_Simple_types@_W@std@@@std@@QBEPB_WXZ ; std::_String_val<std::_Simple_types<wchar_t> >::_Myptr
PUBLIC	?_Large_string_engaged@?$_String_val@U?$_Simple_types@_W@std@@@std@@QBE_NXZ ; std::_String_val<std::_Simple_types<wchar_t> >::_Large_string_engaged
PUBLIC	??1_Bxty@?$_String_val@U?$_Simple_types@_W@std@@@std@@QAE@XZ ; std::_String_val<std::_Simple_types<wchar_t> >::_Bxty::~_Bxty
PUBLIC	??1?$_String_val@U?$_Simple_types@_W@std@@@std@@QAE@XZ ; std::_String_val<std::_Simple_types<wchar_t> >::~_String_val<std::_Simple_types<wchar_t> >
PUBLIC	?_Myptr@?$_String_alloc@U?$_String_base_types@_WV?$allocator@_W@std@@@std@@@std@@QBEPB_WXZ ; std::_String_alloc<std::_String_base_types<wchar_t,std::allocator<wchar_t> > >::_Myptr
PUBLIC	?_Orphan_all@?$_String_alloc@U?$_String_base_types@_WV?$allocator@_W@std@@@std@@@std@@QAEXXZ ; std::_String_alloc<std::_String_base_types<wchar_t,std::allocator<wchar_t> > >::_Orphan_all
PUBLIC	?_Getal@?$_String_alloc@U?$_String_base_types@_WV?$allocator@_W@std@@@std@@@std@@QAEAAU?$_Wrap_alloc@V?$allocator@_W@std@@@2@XZ ; std::_String_alloc<std::_String_base_types<wchar_t,std::allocator<wchar_t> > >::_Getal
PUBLIC	?_Get_data@?$_String_alloc@U?$_String_base_types@_WV?$allocator@_W@std@@@std@@@std@@QAEAAV?$_String_val@U?$_Simple_types@_W@std@@@2@XZ ; std::_String_alloc<std::_String_base_types<wchar_t,std::allocator<wchar_t> > >::_Get_data
PUBLIC	?_Get_data@?$_String_alloc@U?$_String_base_types@_WV?$allocator@_W@std@@@std@@@std@@QBEABV?$_String_val@U?$_Simple_types@_W@std@@@2@XZ ; std::_String_alloc<std::_String_base_types<wchar_t,std::allocator<wchar_t> > >::_Get_data
PUBLIC	?_Get_first@?$_Compressed_pair@U?$_Wrap_alloc@V?$allocator@_W@std@@@std@@V?$_String_val@U?$_Simple_types@_W@std@@@2@$00@std@@QAEAAU?$_Wrap_alloc@V?$allocator@_W@std@@@2@XZ ; std::_Compressed_pair<std::_Wrap_alloc<std::allocator<wchar_t> >,std::_String_val<std::_Simple_types<wchar_t> >,1>::_Get_first
PUBLIC	?_Get_second@?$_Compressed_pair@U?$_Wrap_alloc@V?$allocator@_W@std@@@std@@V?$_String_val@U?$_Simple_types@_W@std@@@2@$00@std@@QAEAAV?$_String_val@U?$_Simple_types@_W@std@@@2@XZ ; std::_Compressed_pair<std::_Wrap_alloc<std::allocator<wchar_t> >,std::_String_val<std::_Simple_types<wchar_t> >,1>::_Get_second
PUBLIC	?_Get_second@?$_Compressed_pair@U?$_Wrap_alloc@V?$allocator@_W@std@@@std@@V?$_String_val@U?$_Simple_types@_W@std@@@2@$00@std@@QBEABV?$_String_val@U?$_Simple_types@_W@std@@@2@XZ ; std::_Compressed_pair<std::_Wrap_alloc<std::allocator<wchar_t> >,std::_String_val<std::_Simple_types<wchar_t> >,1>::_Get_second
PUBLIC	??1?$_Compressed_pair@U?$_Wrap_alloc@V?$allocator@_W@std@@@std@@V?$_String_val@U?$_Simple_types@_W@std@@@2@$00@std@@QAE@XZ ; std::_Compressed_pair<std::_Wrap_alloc<std::allocator<wchar_t> >,std::_String_val<std::_Simple_types<wchar_t> >,1>::~_Compressed_pair<std::_Wrap_alloc<std::allocator<wchar_t> >,std::_String_val<std::_Simple_types<wchar_t> >,1>
PUBLIC	??1?$_String_alloc@U?$_String_base_types@_WV?$allocator@_W@std@@@std@@@std@@QAE@XZ ; std::_String_alloc<std::_String_base_types<wchar_t,std::allocator<wchar_t> > >::~_String_alloc<std::_String_base_types<wchar_t,std::allocator<wchar_t> > >
PUBLIC	??1?$basic_string@_WU?$char_traits@_W@std@@V?$allocator@_W@2@@std@@QAE@XZ ; std::basic_string<wchar_t,std::char_traits<wchar_t>,std::allocator<wchar_t> >::~basic_string<wchar_t,std::char_traits<wchar_t>,std::allocator<wchar_t> >
PUBLIC	?c_str@?$basic_string@_WU?$char_traits@_W@std@@V?$allocator@_W@2@@std@@QBEPB_WXZ ; std::basic_string<wchar_t,std::char_traits<wchar_t>,std::allocator<wchar_t> >::c_str
PUBLIC	?_Tidy_deallocate@?$basic_string@_WU?$char_traits@_W@std@@V?$allocator@_W@2@@std@@QAEXXZ ; std::basic_string<wchar_t,std::char_traits<wchar_t>,std::allocator<wchar_t> >::_Tidy_deallocate
PUBLIC	?isVisible@SK_Console@@QAE_NXZ			; SK_Console::isVisible
PUBLIC	??0?$tuple@$$V@std@@QAE@XZ			; std::tuple<>::tuple<>
PUBLIC	??0?$tuple@$$V@std@@QAE@ABV01@@Z		; std::tuple<>::tuple<>
PUBLIC	??1SK_ICommandResult@@QAE@XZ			; SK_ICommandResult::~SK_ICommandResult
PUBLIC	??0SK_IVariableListener@@QAE@XZ			; SK_IVariableListener::SK_IVariableListener
PUBLIC	??0?$CTraceCategoryEx@$0IAAAA@$0A@@ATL@@QAE@PB_W@Z ; ATL::CTraceCategoryEx<524288,0>::CTraceCategoryEx<524288,0>
PUBLIC	??0?$CTraceCategoryEx@$00$0A@@ATL@@QAE@PB_W@Z	; ATL::CTraceCategoryEx<1,0>::CTraceCategoryEx<1,0>
PUBLIC	??0?$CTraceCategoryEx@$01$0A@@ATL@@QAE@PB_W@Z	; ATL::CTraceCategoryEx<2,0>::CTraceCategoryEx<2,0>
PUBLIC	??0?$CTraceCategoryEx@$03$0A@@ATL@@QAE@PB_W@Z	; ATL::CTraceCategoryEx<4,0>::CTraceCategoryEx<4,0>
PUBLIC	??0?$CTraceCategoryEx@$07$0A@@ATL@@QAE@PB_W@Z	; ATL::CTraceCategoryEx<8,0>::CTraceCategoryEx<8,0>
PUBLIC	??0?$CTraceCategoryEx@$0BA@$0A@@ATL@@QAE@PB_W@Z	; ATL::CTraceCategoryEx<16,0>::CTraceCategoryEx<16,0>
PUBLIC	??0?$CTraceCategoryEx@$0CA@$0A@@ATL@@QAE@PB_W@Z	; ATL::CTraceCategoryEx<32,0>::CTraceCategoryEx<32,0>
PUBLIC	??0?$CTraceCategoryEx@$0EA@$0A@@ATL@@QAE@PB_W@Z	; ATL::CTraceCategoryEx<64,0>::CTraceCategoryEx<64,0>
PUBLIC	??0?$CTraceCategoryEx@$0IA@$0A@@ATL@@QAE@PB_W@Z	; ATL::CTraceCategoryEx<128,0>::CTraceCategoryEx<128,0>
PUBLIC	??0?$CTraceCategoryEx@$0BAA@$0A@@ATL@@QAE@PB_W@Z ; ATL::CTraceCategoryEx<256,0>::CTraceCategoryEx<256,0>
PUBLIC	??0?$CTraceCategoryEx@$0CAA@$0A@@ATL@@QAE@PB_W@Z ; ATL::CTraceCategoryEx<512,0>::CTraceCategoryEx<512,0>
PUBLIC	??0?$CTraceCategoryEx@$0EAA@$0A@@ATL@@QAE@PB_W@Z ; ATL::CTraceCategoryEx<1024,0>::CTraceCategoryEx<1024,0>
PUBLIC	??0?$CTraceCategoryEx@$0IAA@$0A@@ATL@@QAE@PB_W@Z ; ATL::CTraceCategoryEx<2048,0>::CTraceCategoryEx<2048,0>
PUBLIC	??0?$CTraceCategoryEx@$0BAAA@$0A@@ATL@@QAE@PB_W@Z ; ATL::CTraceCategoryEx<4096,0>::CTraceCategoryEx<4096,0>
PUBLIC	??0?$CTraceCategoryEx@$0CAAA@$0A@@ATL@@QAE@PB_W@Z ; ATL::CTraceCategoryEx<8192,0>::CTraceCategoryEx<8192,0>
PUBLIC	??0?$CTraceCategoryEx@$0EAAA@$0A@@ATL@@QAE@PB_W@Z ; ATL::CTraceCategoryEx<16384,0>::CTraceCategoryEx<16384,0>
PUBLIC	??0?$CTraceCategoryEx@$0IAAA@$0A@@ATL@@QAE@PB_W@Z ; ATL::CTraceCategoryEx<32768,0>::CTraceCategoryEx<32768,0>
PUBLIC	??0?$CTraceCategoryEx@$0BAAAA@$0A@@ATL@@QAE@PB_W@Z ; ATL::CTraceCategoryEx<65536,0>::CTraceCategoryEx<65536,0>
PUBLIC	??0?$CTraceCategoryEx@$0CAAAA@$0A@@ATL@@QAE@PB_W@Z ; ATL::CTraceCategoryEx<131072,0>::CTraceCategoryEx<131072,0>
PUBLIC	??0?$CTraceCategoryEx@$0EAAAA@$0A@@ATL@@QAE@PB_W@Z ; ATL::CTraceCategoryEx<262144,0>::CTraceCategoryEx<262144,0>
PUBLIC	??0?$CTraceCategoryEx@$0BAAAAA@$0A@@ATL@@QAE@PB_W@Z ; ATL::CTraceCategoryEx<1048576,0>::CTraceCategoryEx<1048576,0>
PUBLIC	??0?$CTraceCategoryEx@$0CAAAAA@$0A@@ATL@@QAE@PB_W@Z ; ATL::CTraceCategoryEx<2097152,0>::CTraceCategoryEx<2097152,0>
PUBLIC	??0?$CTraceCategoryEx@$0EAAAAA@$0A@@ATL@@QAE@PB_W@Z ; ATL::CTraceCategoryEx<4194304,0>::CTraceCategoryEx<4194304,0>
PUBLIC	?_AtlRaiseException@ATL@@YAXKK@Z		; ATL::_AtlRaiseException
PUBLIC	?_AtlInitializeCriticalSectionEx@ATL@@YAHPAU_RTL_CRITICAL_SECTION@@KK@Z ; ATL::_AtlInitializeCriticalSectionEx
PUBLIC	??0CComCriticalSection@ATL@@QAE@XZ		; ATL::CComCriticalSection::CComCriticalSection
PUBLIC	??1CComCriticalSection@ATL@@QAE@XZ		; ATL::CComCriticalSection::~CComCriticalSection
PUBLIC	?Init@CComCriticalSection@ATL@@QAEJXZ		; ATL::CComCriticalSection::Init
PUBLIC	?Term@CComCriticalSection@ATL@@QAEJXZ		; ATL::CComCriticalSection::Term
PUBLIC	?GetModuleInstance@CAtlBaseModule@ATL@@QAEPAUHINSTANCE__@@XZ ; ATL::CAtlBaseModule::GetModuleInstance
PUBLIC	??0_ATL_COM_MODULE70@ATL@@QAE@XZ		; ATL::_ATL_COM_MODULE70::_ATL_COM_MODULE70
PUBLIC	??1_ATL_COM_MODULE70@ATL@@QAE@XZ		; ATL::_ATL_COM_MODULE70::~_ATL_COM_MODULE70
PUBLIC	??0?$CSimpleArray@GV?$CSimpleArrayEqualHelper@G@ATL@@@ATL@@QAE@XZ ; ATL::CSimpleArray<unsigned short,ATL::CSimpleArrayEqualHelper<unsigned short> >::CSimpleArray<unsigned short,ATL::CSimpleArrayEqualHelper<unsigned short> >
PUBLIC	??1?$CSimpleArray@GV?$CSimpleArrayEqualHelper@G@ATL@@@ATL@@QAE@XZ ; ATL::CSimpleArray<unsigned short,ATL::CSimpleArrayEqualHelper<unsigned short> >::~CSimpleArray<unsigned short,ATL::CSimpleArrayEqualHelper<unsigned short> >
PUBLIC	?GetSize@?$CSimpleArray@GV?$CSimpleArrayEqualHelper@G@ATL@@@ATL@@QBEHXZ ; ATL::CSimpleArray<unsigned short,ATL::CSimpleArrayEqualHelper<unsigned short> >::GetSize
PUBLIC	?RemoveAll@?$CSimpleArray@GV?$CSimpleArrayEqualHelper@G@ATL@@@ATL@@QAEXXZ ; ATL::CSimpleArray<unsigned short,ATL::CSimpleArrayEqualHelper<unsigned short> >::RemoveAll
PUBLIC	??A?$CSimpleArray@GV?$CSimpleArrayEqualHelper@G@ATL@@@ATL@@QAEAAGH@Z ; ATL::CSimpleArray<unsigned short,ATL::CSimpleArrayEqualHelper<unsigned short> >::operator[]
PUBLIC	??0_ATL_WIN_MODULE70@ATL@@QAE@XZ		; ATL::_ATL_WIN_MODULE70::_ATL_WIN_MODULE70
PUBLIC	??1_ATL_WIN_MODULE70@ATL@@QAE@XZ		; ATL::_ATL_WIN_MODULE70::~_ATL_WIN_MODULE70
PUBLIC	?AtlWinModuleInit@ATL@@YGJPAU_ATL_WIN_MODULE70@1@@Z ; ATL::AtlWinModuleInit
PUBLIC	?AtlWinModuleTerm@ATL@@YGJPAU_ATL_WIN_MODULE70@1@PAUHINSTANCE__@@@Z ; ATL::AtlWinModuleTerm
PUBLIC	??0CAtlComModule@ATL@@QAE@XZ			; ATL::CAtlComModule::CAtlComModule
PUBLIC	??1CAtlComModule@ATL@@QAE@XZ			; ATL::CAtlComModule::~CAtlComModule
PUBLIC	?Term@CAtlComModule@ATL@@QAEXXZ			; ATL::CAtlComModule::Term
PUBLIC	??0CAtlWinModule@ATL@@QAE@XZ			; ATL::CAtlWinModule::CAtlWinModule
PUBLIC	??1CAtlWinModule@ATL@@QAE@XZ			; ATL::CAtlWinModule::~CAtlWinModule
PUBLIC	?Term@CAtlWinModule@ATL@@QAEXXZ			; ATL::CAtlWinModule::Term
PUBLIC	?isZero@<unnamed-type-offset>@<unnamed-type-window>@sk_config_t@@QAE_NXZ ; sk_config_t::<unnamed-type-window>::<unnamed-type-offset>::isZero
PUBLIC	?isZero@<unnamed-type-override>@<unnamed-type-res>@<unnamed-type-window>@sk_config_t@@QAE_NXZ ; sk_config_t::<unnamed-type-window>::<unnamed-type-res>::<unnamed-type-override>::isZero
PUBLIC	??0<unnamed-type-last_mouse>@@QAE@XZ		; <unnamed-type-last_mouse>::<unnamed-type-last_mouse>
PUBLIC	?SetWindowPlacement_Detour@@YGHPAUHWND__@@PBUtagWINDOWPLACEMENT@@@Z ; SetWindowPlacement_Detour
PUBLIC	?SetWindowPos_Detour@@YGHPAUHWND__@@0HHHHI@Z	; SetWindowPos_Detour
PUBLIC	?SK_Window_IsTopMost@@YA_NXZ			; SK_Window_IsTopMost
PUBLIC	?SK_Window_SetTopMost@@YAX_N0@Z			; SK_Window_SetTopMost
PUBLIC	?ProcessMessage@window_message_dispatch_s@@QAE_NPAUHWND__@@IAAIAAJPAJ@Z ; window_message_dispatch_s::ProcessMessage
PUBLIC	??0?$_Uhash_compare@PAUHWND__@@U?$hash@PAUHWND__@@@std@@U?$equal_to@PAUHWND__@@@3@@std@@QAE@U?$hash@PAUHWND__@@@1@U?$equal_to@PAUHWND__@@@1@@Z ; std::_Uhash_compare<HWND__ *,std::hash<HWND__ *>,std::equal_to<HWND__ *> >::_Uhash_compare<HWND__ *,std::hash<HWND__ *>,std::equal_to<HWND__ *> >
PUBLIC	??R?$_Uhash_compare@PAUHWND__@@U?$hash@PAUHWND__@@@std@@U?$equal_to@PAUHWND__@@@3@@std@@QBEIABQAUHWND__@@@Z ; std::_Uhash_compare<HWND__ *,std::hash<HWND__ *>,std::equal_to<HWND__ *> >::operator()
PUBLIC	??R?$_Uhash_compare@PAUHWND__@@U?$hash@PAUHWND__@@@std@@U?$equal_to@PAUHWND__@@@3@@std@@QBE_NABQAUHWND__@@0@Z ; std::_Uhash_compare<HWND__ *,std::hash<HWND__ *>,std::equal_to<HWND__ *> >::operator()
PUBLIC	?_Gethash@?$_Uhash_compare@PAUHWND__@@U?$hash@PAUHWND__@@@std@@U?$equal_to@PAUHWND__@@@3@@std@@QBEABU?$hash@PAUHWND__@@@2@XZ ; std::_Uhash_compare<HWND__ *,std::hash<HWND__ *>,std::equal_to<HWND__ *> >::_Gethash
PUBLIC	?_Getkeyeq@?$_Uhash_compare@PAUHWND__@@U?$hash@PAUHWND__@@@std@@U?$equal_to@PAUHWND__@@@3@@std@@QBEABU?$equal_to@PAUHWND__@@@2@XZ ; std::_Uhash_compare<HWND__ *,std::hash<HWND__ *>,std::equal_to<HWND__ *> >::_Getkeyeq
PUBLIC	?_Get_max_bucket_size@?$_Uhash_compare@PAUHWND__@@U?$hash@PAUHWND__@@@std@@U?$equal_to@PAUHWND__@@@3@@std@@QAEAAMXZ ; std::_Uhash_compare<HWND__ *,std::hash<HWND__ *>,std::equal_to<HWND__ *> >::_Get_max_bucket_size
PUBLIC	?_Get_max_bucket_size@?$_Uhash_compare@PAUHWND__@@U?$hash@PAUHWND__@@@std@@U?$equal_to@PAUHWND__@@@3@@std@@QBEABMXZ ; std::_Uhash_compare<HWND__ *,std::hash<HWND__ *>,std::equal_to<HWND__ *> >::_Get_max_bucket_size
PUBLIC	??R?$equal_to@PAUHWND__@@@std@@QBE_NABQAUHWND__@@0@Z ; std::equal_to<HWND__ *>::operator()
PUBLIC	??R?$_Bitwise_hash@PAUHWND__@@@std@@QBEIABQAUHWND__@@@Z ; std::_Bitwise_hash<HWND__ *>::operator()
PUBLIC	?_Get_first@?$_Compressed_pair@U?$equal_to@PAUHWND__@@@std@@M$00@std@@QBEABU?$equal_to@PAUHWND__@@@2@XZ ; std::_Compressed_pair<std::equal_to<HWND__ *>,float,1>::_Get_first
PUBLIC	?_Get_second@?$_Compressed_pair@U?$equal_to@PAUHWND__@@@std@@M$00@std@@QAEAAMXZ ; std::_Compressed_pair<std::equal_to<HWND__ *>,float,1>::_Get_second
PUBLIC	?_Get_second@?$_Compressed_pair@U?$equal_to@PAUHWND__@@@std@@M$00@std@@QBEABMXZ ; std::_Compressed_pair<std::equal_to<HWND__ *>,float,1>::_Get_second
PUBLIC	?_Get_first@?$_Compressed_pair@U?$hash@PAUHWND__@@@std@@V?$_Compressed_pair@U?$equal_to@PAUHWND__@@@std@@M$00@2@$00@std@@QBEABU?$hash@PAUHWND__@@@2@XZ ; std::_Compressed_pair<std::hash<HWND__ *>,std::_Compressed_pair<std::equal_to<HWND__ *>,float,1>,1>::_Get_first
PUBLIC	?_Get_second@?$_Compressed_pair@U?$hash@PAUHWND__@@@std@@V?$_Compressed_pair@U?$equal_to@PAUHWND__@@@std@@M$00@2@$00@std@@QAEAAV?$_Compressed_pair@U?$equal_to@PAUHWND__@@@std@@M$00@2@XZ ; std::_Compressed_pair<std::hash<HWND__ *>,std::_Compressed_pair<std::equal_to<HWND__ *>,float,1>,1>::_Get_second
PUBLIC	?_Get_second@?$_Compressed_pair@U?$hash@PAUHWND__@@@std@@V?$_Compressed_pair@U?$equal_to@PAUHWND__@@@std@@M$00@2@$00@std@@QBEABV?$_Compressed_pair@U?$equal_to@PAUHWND__@@@std@@M$00@2@XZ ; std::_Compressed_pair<std::hash<HWND__ *>,std::_Compressed_pair<std::equal_to<HWND__ *>,float,1>,1>::_Get_second
PUBLIC	??0?$_Umap_traits@PAUHWND__@@_NV?$_Uhash_compare@PAUHWND__@@U?$hash@PAUHWND__@@@std@@U?$equal_to@PAUHWND__@@@3@@std@@V?$allocator@U?$pair@QAUHWND__@@_N@std@@@3@$0A@@std@@QAE@ABV?$_Uhash_compare@PAUHWND__@@U?$hash@PAUHWND__@@@std@@U?$equal_to@PAUHWND__@@@3@@1@@Z ; std::_Umap_traits<HWND__ *,bool,std::_Uhash_compare<HWND__ *,std::hash<HWND__ *>,std::equal_to<HWND__ *> >,std::allocator<std::pair<HWND__ * const,bool> >,0>::_Umap_traits<HWND__ *,bool,std::_Uhash_compare<HWND__ *,std::hash<HWND__ *>,std::equal_to<HWND__ *> >,std::allocator<std::pair<HWND__ * const,bool> >,0>
PUBLIC	??0?$allocator@U?$pair@QAUHWND__@@_N@std@@@std@@QAE@XZ ; std::allocator<std::pair<HWND__ * const,bool> >::allocator<std::pair<HWND__ * const,bool> >
PUBLIC	?deallocate@?$allocator@U?$_List_node@U?$pair@QAUHWND__@@_N@std@@PAX@std@@@std@@QAEXPAU?$_List_node@U?$pair@QAUHWND__@@_N@std@@PAX@2@I@Z ; std::allocator<std::_List_node<std::pair<HWND__ * const,bool>,void *> >::deallocate
PUBLIC	?allocate@?$allocator@U?$_List_node@U?$pair@QAUHWND__@@_N@std@@PAX@std@@@std@@QAEPAU?$_List_node@U?$pair@QAUHWND__@@_N@std@@PAX@2@I@Z ; std::allocator<std::_List_node<std::pair<HWND__ * const,bool>,void *> >::allocate
PUBLIC	?max_size@?$allocator@U?$_List_node@U?$pair@QAUHWND__@@_N@std@@PAX@std@@@std@@QBEIXZ ; std::allocator<std::_List_node<std::pair<HWND__ * const,bool>,void *> >::max_size
PUBLIC	?max_size@?$allocator_traits@V?$allocator@U?$_List_node@U?$pair@QAUHWND__@@_N@std@@PAX@std@@@std@@@std@@SAIABV?$allocator@U?$_List_node@U?$pair@QAUHWND__@@_N@std@@PAX@std@@@2@@Z ; std::allocator_traits<std::allocator<std::_List_node<std::pair<HWND__ * const,bool>,void *> > >::max_size
PUBLIC	?allocate@?$_Wrap_alloc@V?$allocator@U?$_List_node@U?$pair@QAUHWND__@@_N@std@@PAX@std@@@std@@@std@@QAEPAU?$_List_node@U?$pair@QAUHWND__@@_N@std@@PAX@2@I@Z ; std::_Wrap_alloc<std::allocator<std::_List_node<std::pair<HWND__ * const,bool>,void *> > >::allocate
PUBLIC	?deallocate@?$_Wrap_alloc@V?$allocator@U?$_List_node@U?$pair@QAUHWND__@@_N@std@@PAX@std@@@std@@@std@@QAEXPAU?$_List_node@U?$pair@QAUHWND__@@_N@std@@PAX@2@I@Z ; std::_Wrap_alloc<std::allocator<std::_List_node<std::pair<HWND__ * const,bool>,void *> > >::deallocate
PUBLIC	?max_size@?$_Wrap_alloc@V?$allocator@U?$_List_node@U?$pair@QAUHWND__@@_N@std@@PAX@std@@@std@@@std@@QBEIU_Nil@2@@Z ; std::_Wrap_alloc<std::allocator<std::_List_node<std::pair<HWND__ * const,bool>,void *> > >::max_size
PUBLIC	?_Nextnode@?$_List_alloc@U?$_List_base_types@U?$pair@QAUHWND__@@_N@std@@V?$allocator@U?$pair@QAUHWND__@@_N@std@@@2@@std@@@std@@SAAAPAU?$_List_node@U?$pair@QAUHWND__@@_N@std@@PAX@2@PAU32@@Z ; std::_List_alloc<std::_List_base_types<std::pair<HWND__ * const,bool>,std::allocator<std::pair<HWND__ * const,bool> > > >::_Nextnode
PUBLIC	?_Prevnode@?$_List_alloc@U?$_List_base_types@U?$pair@QAUHWND__@@_N@std@@V?$allocator@U?$pair@QAUHWND__@@_N@std@@@2@@std@@@std@@SAAAPAU?$_List_node@U?$pair@QAUHWND__@@_N@std@@PAX@2@PAU32@@Z ; std::_List_alloc<std::_List_base_types<std::pair<HWND__ * const,bool>,std::allocator<std::pair<HWND__ * const,bool> > > >::_Prevnode
PUBLIC	?_Myval@?$_List_alloc@U?$_List_base_types@U?$pair@QAUHWND__@@_N@std@@V?$allocator@U?$pair@QAUHWND__@@_N@std@@@2@@std@@@std@@SAAAU?$pair@QAUHWND__@@_N@2@PAU?$_List_node@U?$pair@QAUHWND__@@_N@std@@PAX@2@@Z ; std::_List_alloc<std::_List_base_types<std::pair<HWND__ * const,bool>,std::allocator<std::pair<HWND__ * const,bool> > > >::_Myval
PUBLIC	??1?$_List_alloc@U?$_List_base_types@U?$pair@QAUHWND__@@_N@std@@V?$allocator@U?$pair@QAUHWND__@@_N@std@@@2@@std@@@std@@QAE@XZ ; std::_List_alloc<std::_List_base_types<std::pair<HWND__ * const,bool>,std::allocator<std::pair<HWND__ * const,bool> > > >::~_List_alloc<std::_List_base_types<std::pair<HWND__ * const,bool>,std::allocator<std::pair<HWND__ * const,bool> > > >
PUBLIC	?_Buyheadnode@?$_List_alloc@U?$_List_base_types@U?$pair@QAUHWND__@@_N@std@@V?$allocator@U?$pair@QAUHWND__@@_N@std@@@2@@std@@@std@@QAEPAU?$_List_node@U?$pair@QAUHWND__@@_N@std@@PAX@2@XZ ; std::_List_alloc<std::_List_base_types<std::pair<HWND__ * const,bool>,std::allocator<std::pair<HWND__ * const,bool> > > >::_Buyheadnode
PUBLIC	?_Freeheadnode@?$_List_alloc@U?$_List_base_types@U?$pair@QAUHWND__@@_N@std@@V?$allocator@U?$pair@QAUHWND__@@_N@std@@@2@@std@@@std@@QAEXPAU?$_List_node@U?$pair@QAUHWND__@@_N@std@@PAX@2@@Z ; std::_List_alloc<std::_List_base_types<std::pair<HWND__ * const,bool>,std::allocator<std::pair<HWND__ * const,bool> > > >::_Freeheadnode
PUBLIC	?_Buynode0@?$_List_alloc@U?$_List_base_types@U?$pair@QAUHWND__@@_N@std@@V?$allocator@U?$pair@QAUHWND__@@_N@std@@@2@@std@@@std@@QAEPAU?$_List_node@U?$pair@QAUHWND__@@_N@std@@PAX@2@PAU32@0@Z ; std::_List_alloc<std::_List_base_types<std::pair<HWND__ * const,bool>,std::allocator<std::pair<HWND__ * const,bool> > > >::_Buynode0
PUBLIC	?_Getal@?$_List_alloc@U?$_List_base_types@U?$pair@QAUHWND__@@_N@std@@V?$allocator@U?$pair@QAUHWND__@@_N@std@@@2@@std@@@std@@QAEAAU?$_Wrap_alloc@V?$allocator@U?$_List_node@U?$pair@QAUHWND__@@_N@std@@PAX@std@@@std@@@2@XZ ; std::_List_alloc<std::_List_base_types<std::pair<HWND__ * const,bool>,std::allocator<std::pair<HWND__ * const,bool> > > >::_Getal
PUBLIC	?_Getal@?$_List_alloc@U?$_List_base_types@U?$pair@QAUHWND__@@_N@std@@V?$allocator@U?$pair@QAUHWND__@@_N@std@@@2@@std@@@std@@QBEABU?$_Wrap_alloc@V?$allocator@U?$_List_node@U?$pair@QAUHWND__@@_N@std@@PAX@std@@@std@@@2@XZ ; std::_List_alloc<std::_List_base_types<std::pair<HWND__ * const,bool>,std::allocator<std::pair<HWND__ * const,bool> > > >::_Getal
PUBLIC	?_Get_data@?$_List_alloc@U?$_List_base_types@U?$pair@QAUHWND__@@_N@std@@V?$allocator@U?$pair@QAUHWND__@@_N@std@@@2@@std@@@std@@QAEAAV?$_List_val@U?$_List_simple_types@U?$pair@QAUHWND__@@_N@std@@@std@@@2@XZ ; std::_List_alloc<std::_List_base_types<std::pair<HWND__ * const,bool>,std::allocator<std::pair<HWND__ * const,bool> > > >::_Get_data
PUBLIC	?_Get_data@?$_List_alloc@U?$_List_base_types@U?$pair@QAUHWND__@@_N@std@@V?$allocator@U?$pair@QAUHWND__@@_N@std@@@2@@std@@@std@@QBEABV?$_List_val@U?$_List_simple_types@U?$pair@QAUHWND__@@_N@std@@@std@@@2@XZ ; std::_List_alloc<std::_List_base_types<std::pair<HWND__ * const,bool>,std::allocator<std::pair<HWND__ * const,bool> > > >::_Get_data
PUBLIC	?_Myhead@?$_List_alloc@U?$_List_base_types@U?$pair@QAUHWND__@@_N@std@@V?$allocator@U?$pair@QAUHWND__@@_N@std@@@2@@std@@@std@@QAEAAPAU?$_List_node@U?$pair@QAUHWND__@@_N@std@@PAX@2@XZ ; std::_List_alloc<std::_List_base_types<std::pair<HWND__ * const,bool>,std::allocator<std::pair<HWND__ * const,bool> > > >::_Myhead
PUBLIC	?_Mysize@?$_List_alloc@U?$_List_base_types@U?$pair@QAUHWND__@@_N@std@@V?$allocator@U?$pair@QAUHWND__@@_N@std@@@2@@std@@@std@@QAEAAIXZ ; std::_List_alloc<std::_List_base_types<std::pair<HWND__ * const,bool>,std::allocator<std::pair<HWND__ * const,bool> > > >::_Mysize
PUBLIC	?_Mysize@?$_List_alloc@U?$_List_base_types@U?$pair@QAUHWND__@@_N@std@@V?$allocator@U?$pair@QAUHWND__@@_N@std@@@2@@std@@@std@@QBEABIXZ ; std::_List_alloc<std::_List_base_types<std::pair<HWND__ * const,bool>,std::allocator<std::pair<HWND__ * const,bool> > > >::_Mysize
PUBLIC	??0?$_List_val@U?$_List_simple_types@U?$pair@QAUHWND__@@_N@std@@@std@@@std@@QAE@XZ ; std::_List_val<std::_List_simple_types<std::pair<HWND__ * const,bool> > >::_List_val<std::_List_simple_types<std::pair<HWND__ * const,bool> > >
PUBLIC	?_Nextnode@?$_List_val@U?$_List_simple_types@U?$pair@QAUHWND__@@_N@std@@@std@@@std@@SAAAPAU?$_List_node@U?$pair@QAUHWND__@@_N@std@@PAX@2@PAU32@@Z ; std::_List_val<std::_List_simple_types<std::pair<HWND__ * const,bool> > >::_Nextnode
PUBLIC	?_Prevnode@?$_List_val@U?$_List_simple_types@U?$pair@QAUHWND__@@_N@std@@@std@@@std@@SAAAPAU?$_List_node@U?$pair@QAUHWND__@@_N@std@@PAX@2@PAU32@@Z ; std::_List_val<std::_List_simple_types<std::pair<HWND__ * const,bool> > >::_Prevnode
PUBLIC	?_Myval@?$_List_val@U?$_List_simple_types@U?$pair@QAUHWND__@@_N@std@@@std@@@std@@SAAAU?$pair@QAUHWND__@@_N@2@PAU?$_List_node@U?$pair@QAUHWND__@@_N@std@@PAX@2@@Z ; std::_List_val<std::_List_simple_types<std::pair<HWND__ * const,bool> > >::_Myval
PUBLIC	?_Get_first@?$_Compressed_pair@U?$_Wrap_alloc@V?$allocator@U?$_List_node@U?$pair@QAUHWND__@@_N@std@@PAX@std@@@std@@@std@@V?$_List_val@U?$_List_simple_types@U?$pair@QAUHWND__@@_N@std@@@std@@@2@$00@std@@QAEAAU?$_Wrap_alloc@V?$allocator@U?$_List_node@U?$pair@QAUHWND__@@_N@std@@PAX@std@@@std@@@2@XZ ; std::_Compressed_pair<std::_Wrap_alloc<std::allocator<std::_List_node<std::pair<HWND__ * const,bool>,void *> > >,std::_List_val<std::_List_simple_types<std::pair<HWND__ * const,bool> > >,1>::_Get_first
PUBLIC	?_Get_first@?$_Compressed_pair@U?$_Wrap_alloc@V?$allocator@U?$_List_node@U?$pair@QAUHWND__@@_N@std@@PAX@std@@@std@@@std@@V?$_List_val@U?$_List_simple_types@U?$pair@QAUHWND__@@_N@std@@@std@@@2@$00@std@@QBEABU?$_Wrap_alloc@V?$allocator@U?$_List_node@U?$pair@QAUHWND__@@_N@std@@PAX@std@@@std@@@2@XZ ; std::_Compressed_pair<std::_Wrap_alloc<std::allocator<std::_List_node<std::pair<HWND__ * const,bool>,void *> > >,std::_List_val<std::_List_simple_types<std::pair<HWND__ * const,bool> > >,1>::_Get_first
PUBLIC	?_Get_second@?$_Compressed_pair@U?$_Wrap_alloc@V?$allocator@U?$_List_node@U?$pair@QAUHWND__@@_N@std@@PAX@std@@@std@@@std@@V?$_List_val@U?$_List_simple_types@U?$pair@QAUHWND__@@_N@std@@@std@@@2@$00@std@@QAEAAV?$_List_val@U?$_List_simple_types@U?$pair@QAUHWND__@@_N@std@@@std@@@2@XZ ; std::_Compressed_pair<std::_Wrap_alloc<std::allocator<std::_List_node<std::pair<HWND__ * const,bool>,void *> > >,std::_List_val<std::_List_simple_types<std::pair<HWND__ * const,bool> > >,1>::_Get_second
PUBLIC	?_Get_second@?$_Compressed_pair@U?$_Wrap_alloc@V?$allocator@U?$_List_node@U?$pair@QAUHWND__@@_N@std@@PAX@std@@@std@@@std@@V?$_List_val@U?$_List_simple_types@U?$pair@QAUHWND__@@_N@std@@@std@@@2@$00@std@@QBEABV?$_List_val@U?$_List_simple_types@U?$pair@QAUHWND__@@_N@std@@@std@@@2@XZ ; std::_Compressed_pair<std::_Wrap_alloc<std::allocator<std::_List_node<std::pair<HWND__ * const,bool>,void *> > >,std::_List_val<std::_List_simple_types<std::pair<HWND__ * const,bool> > >,1>::_Get_second
PUBLIC	?_Freenode@?$_List_buy@U?$pair@QAUHWND__@@_N@std@@V?$allocator@U?$pair@QAUHWND__@@_N@std@@@2@@std@@QAEXPAU?$_List_node@U?$pair@QAUHWND__@@_N@std@@PAX@2@@Z ; std::_List_buy<std::pair<HWND__ * const,bool>,std::allocator<std::pair<HWND__ * const,bool> > >::_Freenode
PUBLIC	??1?$_List_buy@U?$pair@QAUHWND__@@_N@std@@V?$allocator@U?$pair@QAUHWND__@@_N@std@@@2@@std@@QAE@XZ ; std::_List_buy<std::pair<HWND__ * const,bool>,std::allocator<std::pair<HWND__ * const,bool> > >::~_List_buy<std::pair<HWND__ * const,bool>,std::allocator<std::pair<HWND__ * const,bool> > >
PUBLIC	??0?$list@U?$pair@QAUHWND__@@_N@std@@V?$allocator@U?$pair@QAUHWND__@@_N@std@@@2@@std@@QAE@ABV?$allocator@U?$pair@QAUHWND__@@_N@std@@@1@@Z ; std::list<std::pair<HWND__ * const,bool>,std::allocator<std::pair<HWND__ * const,bool> > >::list<std::pair<HWND__ * const,bool>,std::allocator<std::pair<HWND__ * const,bool> > >
PUBLIC	??1?$list@U?$pair@QAUHWND__@@_N@std@@V?$allocator@U?$pair@QAUHWND__@@_N@std@@@2@@std@@QAE@XZ ; std::list<std::pair<HWND__ * const,bool>,std::allocator<std::pair<HWND__ * const,bool> > >::~list<std::pair<HWND__ * const,bool>,std::allocator<std::pair<HWND__ * const,bool> > >
PUBLIC	?begin@?$list@U?$pair@QAUHWND__@@_N@std@@V?$allocator@U?$pair@QAUHWND__@@_N@std@@@2@@std@@QAE?AV?$_List_iterator@V?$_List_val@U?$_List_simple_types@U?$pair@QAUHWND__@@_N@std@@@std@@@std@@@2@XZ ; std::list<std::pair<HWND__ * const,bool>,std::allocator<std::pair<HWND__ * const,bool> > >::begin
PUBLIC	?end@?$list@U?$pair@QAUHWND__@@_N@std@@V?$allocator@U?$pair@QAUHWND__@@_N@std@@@2@@std@@QAE?AV?$_List_iterator@V?$_List_val@U?$_List_simple_types@U?$pair@QAUHWND__@@_N@std@@@std@@@std@@@2@XZ ; std::list<std::pair<HWND__ * const,bool>,std::allocator<std::pair<HWND__ * const,bool> > >::end
PUBLIC	?_Unchecked_begin@?$list@U?$pair@QAUHWND__@@_N@std@@V?$allocator@U?$pair@QAUHWND__@@_N@std@@@2@@std@@QAE?AV?$_List_unchecked_iterator@V?$_List_val@U?$_List_simple_types@U?$pair@QAUHWND__@@_N@std@@@std@@@std@@@2@XZ ; std::list<std::pair<HWND__ * const,bool>,std::allocator<std::pair<HWND__ * const,bool> > >::_Unchecked_begin
PUBLIC	?_Unchecked_end@?$list@U?$pair@QAUHWND__@@_N@std@@V?$allocator@U?$pair@QAUHWND__@@_N@std@@@2@@std@@QAE?AV?$_List_unchecked_iterator@V?$_List_val@U?$_List_simple_types@U?$pair@QAUHWND__@@_N@std@@@std@@@std@@@2@XZ ; std::list<std::pair<HWND__ * const,bool>,std::allocator<std::pair<HWND__ * const,bool> > >::_Unchecked_end
PUBLIC	?_Make_iter@?$list@U?$pair@QAUHWND__@@_N@std@@V?$allocator@U?$pair@QAUHWND__@@_N@std@@@2@@std@@QBE?AV?$_List_iterator@V?$_List_val@U?$_List_simple_types@U?$pair@QAUHWND__@@_N@std@@@std@@@std@@@2@V?$_List_const_iterator@V?$_List_val@U?$_List_simple_types@U?$pair@QAUHWND__@@_N@std@@@std@@@std@@@2@@Z ; std::list<std::pair<HWND__ * const,bool>,std::allocator<std::pair<HWND__ * const,bool> > >::_Make_iter
PUBLIC	?_Make_iter@?$list@U?$pair@QAUHWND__@@_N@std@@V?$allocator@U?$pair@QAUHWND__@@_N@std@@@2@@std@@QBE?AV?$_List_iterator@V?$_List_val@U?$_List_simple_types@U?$pair@QAUHWND__@@_N@std@@@std@@@std@@@2@V?$_List_unchecked_const_iterator@V?$_List_val@U?$_List_simple_types@U?$pair@QAUHWND__@@_N@std@@@std@@@std@@U_Iterator_base0@2@@2@@Z ; std::list<std::pair<HWND__ * const,bool>,std::allocator<std::pair<HWND__ * const,bool> > >::_Make_iter
PUBLIC	?size@?$list@U?$pair@QAUHWND__@@_N@std@@V?$allocator@U?$pair@QAUHWND__@@_N@std@@@2@@std@@QBEIXZ ; std::list<std::pair<HWND__ * const,bool>,std::allocator<std::pair<HWND__ * const,bool> > >::size
PUBLIC	?max_size@?$list@U?$pair@QAUHWND__@@_N@std@@V?$allocator@U?$pair@QAUHWND__@@_N@std@@@2@@std@@QBEIXZ ; std::list<std::pair<HWND__ * const,bool>,std::allocator<std::pair<HWND__ * const,bool> > >::max_size
PUBLIC	?front@?$list@U?$pair@QAUHWND__@@_N@std@@V?$allocator@U?$pair@QAUHWND__@@_N@std@@@2@@std@@QAEAAU?$pair@QAUHWND__@@_N@2@XZ ; std::list<std::pair<HWND__ * const,bool>,std::allocator<std::pair<HWND__ * const,bool> > >::front
PUBLIC	?_Unlinknode@?$list@U?$pair@QAUHWND__@@_N@std@@V?$allocator@U?$pair@QAUHWND__@@_N@std@@@2@@std@@QAEPAU?$_List_node@U?$pair@QAUHWND__@@_N@std@@PAX@2@V?$_List_const_iterator@V?$_List_val@U?$_List_simple_types@U?$pair@QAUHWND__@@_N@std@@@std@@@std@@@2@@Z ; std::list<std::pair<HWND__ * const,bool>,std::allocator<std::pair<HWND__ * const,bool> > >::_Unlinknode
PUBLIC	?erase@?$list@U?$pair@QAUHWND__@@_N@std@@V?$allocator@U?$pair@QAUHWND__@@_N@std@@@2@@std@@QAE?AV?$_List_iterator@V?$_List_val@U?$_List_simple_types@U?$pair@QAUHWND__@@_N@std@@@std@@@std@@@2@V?$_List_const_iterator@V?$_List_val@U?$_List_simple_types@U?$pair@QAUHWND__@@_N@std@@@std@@@std@@@2@@Z ; std::list<std::pair<HWND__ * const,bool>,std::allocator<std::pair<HWND__ * const,bool> > >::erase
PUBLIC	?clear@?$list@U?$pair@QAUHWND__@@_N@std@@V?$allocator@U?$pair@QAUHWND__@@_N@std@@@2@@std@@QAEXXZ ; std::list<std::pair<HWND__ * const,bool>,std::allocator<std::pair<HWND__ * const,bool> > >::clear
PUBLIC	?_Unchecked_splice@?$list@U?$pair@QAUHWND__@@_N@std@@V?$allocator@U?$pair@QAUHWND__@@_N@std@@@2@@std@@QAEXV?$_List_unchecked_const_iterator@V?$_List_val@U?$_List_simple_types@U?$pair@QAUHWND__@@_N@std@@@std@@@std@@U_Iterator_base0@2@@2@00@Z ; std::list<std::pair<HWND__ * const,bool>,std::allocator<std::pair<HWND__ * const,bool> > >::_Unchecked_splice
PUBLIC	?_Tidy@?$list@U?$pair@QAUHWND__@@_N@std@@V?$allocator@U?$pair@QAUHWND__@@_N@std@@@2@@std@@QAEXXZ ; std::list<std::pair<HWND__ * const,bool>,std::allocator<std::pair<HWND__ * const,bool> > >::_Tidy
PUBLIC	?_Incsize@?$list@U?$pair@QAUHWND__@@_N@std@@V?$allocator@U?$pair@QAUHWND__@@_N@std@@@2@@std@@QAEXI@Z ; std::list<std::pair<HWND__ * const,bool>,std::allocator<std::pair<HWND__ * const,bool> > >::_Incsize
PUBLIC	??0?$_Hash@V?$_Umap_traits@PAUHWND__@@_NV?$_Uhash_compare@PAUHWND__@@U?$hash@PAUHWND__@@@std@@U?$equal_to@PAUHWND__@@@3@@std@@V?$allocator@U?$pair@QAUHWND__@@_N@std@@@3@$0A@@std@@@std@@QAE@ABV?$_Uhash_compare@PAUHWND__@@U?$hash@PAUHWND__@@@std@@U?$equal_to@PAUHWND__@@@3@@1@ABV?$allocator@U?$pair@QAUHWND__@@_N@std@@@1@@Z ; std::_Hash<std::_Umap_traits<HWND__ *,bool,std::_Uhash_compare<HWND__ *,std::hash<HWND__ *>,std::equal_to<HWND__ *> >,std::allocator<std::pair<HWND__ * const,bool> >,0> >::_Hash<std::_Umap_traits<HWND__ *,bool,std::_Uhash_compare<HWND__ *,std::hash<HWND__ *>,std::equal_to<HWND__ *> >,std::allocator<std::pair<HWND__ * const,bool> >,0> >
PUBLIC	??1?$_Hash@V?$_Umap_traits@PAUHWND__@@_NV?$_Uhash_compare@PAUHWND__@@U?$hash@PAUHWND__@@@std@@U?$equal_to@PAUHWND__@@@3@@std@@V?$allocator@U?$pair@QAUHWND__@@_N@std@@@3@$0A@@std@@@std@@QAE@XZ ; std::_Hash<std::_Umap_traits<HWND__ *,bool,std::_Uhash_compare<HWND__ *,std::hash<HWND__ *>,std::equal_to<HWND__ *> >,std::allocator<std::pair<HWND__ * const,bool> >,0> >::~_Hash<std::_Umap_traits<HWND__ *,bool,std::_Uhash_compare<HWND__ *,std::hash<HWND__ *>,std::equal_to<HWND__ *> >,std::allocator<std::pair<HWND__ * const,bool> >,0> >
PUBLIC	?end@?$_Hash@V?$_Umap_traits@PAUHWND__@@_NV?$_Uhash_compare@PAUHWND__@@U?$hash@PAUHWND__@@@std@@U?$equal_to@PAUHWND__@@@3@@std@@V?$allocator@U?$pair@QAUHWND__@@_N@std@@@3@$0A@@std@@@std@@QAE?AV?$_List_iterator@V?$_List_val@U?$_List_simple_types@U?$pair@QAUHWND__@@_N@std@@@std@@@std@@@2@XZ ; std::_Hash<std::_Umap_traits<HWND__ *,bool,std::_Uhash_compare<HWND__ *,std::hash<HWND__ *>,std::equal_to<HWND__ *> >,std::allocator<std::pair<HWND__ * const,bool> >,0> >::end
PUBLIC	?_Unchecked_begin@?$_Hash@V?$_Umap_traits@PAUHWND__@@_NV?$_Uhash_compare@PAUHWND__@@U?$hash@PAUHWND__@@@std@@U?$equal_to@PAUHWND__@@@3@@std@@V?$allocator@U?$pair@QAUHWND__@@_N@std@@@3@$0A@@std@@@std@@QAE?AV?$_List_unchecked_iterator@V?$_List_val@U?$_List_simple_types@U?$pair@QAUHWND__@@_N@std@@@std@@@std@@@2@XZ ; std::_Hash<std::_Umap_traits<HWND__ *,bool,std::_Uhash_compare<HWND__ *,std::hash<HWND__ *>,std::equal_to<HWND__ *> >,std::allocator<std::pair<HWND__ * const,bool> >,0> >::_Unchecked_begin
PUBLIC	?_Unchecked_end@?$_Hash@V?$_Umap_traits@PAUHWND__@@_NV?$_Uhash_compare@PAUHWND__@@U?$hash@PAUHWND__@@@std@@U?$equal_to@PAUHWND__@@@3@@std@@V?$allocator@U?$pair@QAUHWND__@@_N@std@@@3@$0A@@std@@@std@@QAE?AV?$_List_unchecked_iterator@V?$_List_val@U?$_List_simple_types@U?$pair@QAUHWND__@@_N@std@@@std@@@std@@@2@XZ ; std::_Hash<std::_Umap_traits<HWND__ *,bool,std::_Uhash_compare<HWND__ *,std::hash<HWND__ *>,std::equal_to<HWND__ *> >,std::allocator<std::pair<HWND__ * const,bool> >,0> >::_Unchecked_end
PUBLIC	?_Make_iter@?$_Hash@V?$_Umap_traits@PAUHWND__@@_NV?$_Uhash_compare@PAUHWND__@@U?$hash@PAUHWND__@@@std@@U?$equal_to@PAUHWND__@@@3@@std@@V?$allocator@U?$pair@QAUHWND__@@_N@std@@@3@$0A@@std@@@std@@QBE?AV?$_List_iterator@V?$_List_val@U?$_List_simple_types@U?$pair@QAUHWND__@@_N@std@@@std@@@std@@@2@V?$_List_unchecked_const_iterator@V?$_List_val@U?$_List_simple_types@U?$pair@QAUHWND__@@_N@std@@@std@@@std@@U_Iterator_base0@2@@2@@Z ; std::_Hash<std::_Umap_traits<HWND__ *,bool,std::_Uhash_compare<HWND__ *,std::hash<HWND__ *>,std::equal_to<HWND__ *> >,std::allocator<std::pair<HWND__ * const,bool> >,0> >::_Make_iter
PUBLIC	?_Make_iter@?$_Hash@V?$_Umap_traits@PAUHWND__@@_NV?$_Uhash_compare@PAUHWND__@@U?$hash@PAUHWND__@@@std@@U?$equal_to@PAUHWND__@@@3@@std@@V?$allocator@U?$pair@QAUHWND__@@_N@std@@@3@$0A@@std@@@std@@QBE?AV?$_List_iterator@V?$_List_val@U?$_List_simple_types@U?$pair@QAUHWND__@@_N@std@@@std@@@std@@@2@V?$_List_const_iterator@V?$_List_val@U?$_List_simple_types@U?$pair@QAUHWND__@@_N@std@@@std@@@std@@@2@@Z ; std::_Hash<std::_Umap_traits<HWND__ *,bool,std::_Uhash_compare<HWND__ *,std::hash<HWND__ *>,std::equal_to<HWND__ *> >,std::allocator<std::pair<HWND__ * const,bool> >,0> >::_Make_iter
PUBLIC	?size@?$_Hash@V?$_Umap_traits@PAUHWND__@@_NV?$_Uhash_compare@PAUHWND__@@U?$hash@PAUHWND__@@@std@@U?$equal_to@PAUHWND__@@@3@@std@@V?$allocator@U?$pair@QAUHWND__@@_N@std@@@3@$0A@@std@@@std@@QBEIXZ ; std::_Hash<std::_Umap_traits<HWND__ *,bool,std::_Uhash_compare<HWND__ *,std::hash<HWND__ *>,std::equal_to<HWND__ *> >,std::allocator<std::pair<HWND__ * const,bool> >,0> >::size
PUBLIC	?bucket_count@?$_Hash@V?$_Umap_traits@PAUHWND__@@_NV?$_Uhash_compare@PAUHWND__@@U?$hash@PAUHWND__@@@std@@U?$equal_to@PAUHWND__@@@3@@std@@V?$allocator@U?$pair@QAUHWND__@@_N@std@@@3@$0A@@std@@@std@@QBEIXZ ; std::_Hash<std::_Umap_traits<HWND__ *,bool,std::_Uhash_compare<HWND__ *,std::hash<HWND__ *>,std::equal_to<HWND__ *> >,std::allocator<std::pair<HWND__ * const,bool> >,0> >::bucket_count
PUBLIC	?load_factor@?$_Hash@V?$_Umap_traits@PAUHWND__@@_NV?$_Uhash_compare@PAUHWND__@@U?$hash@PAUHWND__@@@std@@U?$equal_to@PAUHWND__@@@3@@std@@V?$allocator@U?$pair@QAUHWND__@@_N@std@@@3@$0A@@std@@@std@@QBEMXZ ; std::_Hash<std::_Umap_traits<HWND__ *,bool,std::_Uhash_compare<HWND__ *,std::hash<HWND__ *>,std::equal_to<HWND__ *> >,std::allocator<std::pair<HWND__ * const,bool> >,0> >::load_factor
PUBLIC	?max_load_factor@?$_Hash@V?$_Umap_traits@PAUHWND__@@_NV?$_Uhash_compare@PAUHWND__@@U?$hash@PAUHWND__@@@std@@U?$equal_to@PAUHWND__@@@3@@std@@V?$allocator@U?$pair@QAUHWND__@@_N@std@@@3@$0A@@std@@@std@@QBEMXZ ; std::_Hash<std::_Umap_traits<HWND__ *,bool,std::_Uhash_compare<HWND__ *,std::hash<HWND__ *>,std::equal_to<HWND__ *> >,std::allocator<std::pair<HWND__ * const,bool> >,0> >::max_load_factor
PUBLIC	?erase@?$_Hash@V?$_Umap_traits@PAUHWND__@@_NV?$_Uhash_compare@PAUHWND__@@U?$hash@PAUHWND__@@@std@@U?$equal_to@PAUHWND__@@@3@@std@@V?$allocator@U?$pair@QAUHWND__@@_N@std@@@3@$0A@@std@@@std@@QAE?AV?$_List_iterator@V?$_List_val@U?$_List_simple_types@U?$pair@QAUHWND__@@_N@std@@@std@@@std@@@2@V?$_List_const_iterator@V?$_List_val@U?$_List_simple_types@U?$pair@QAUHWND__@@_N@std@@@std@@@std@@@2@@Z ; std::_Hash<std::_Umap_traits<HWND__ *,bool,std::_Uhash_compare<HWND__ *,std::hash<HWND__ *>,std::equal_to<HWND__ *> >,std::allocator<std::pair<HWND__ * const,bool> >,0> >::erase
PUBLIC	?find@?$_Hash@V?$_Umap_traits@PAUHWND__@@_NV?$_Uhash_compare@PAUHWND__@@U?$hash@PAUHWND__@@@std@@U?$equal_to@PAUHWND__@@@3@@std@@V?$allocator@U?$pair@QAUHWND__@@_N@std@@@3@$0A@@std@@@std@@QAE?AV?$_List_iterator@V?$_List_val@U?$_List_simple_types@U?$pair@QAUHWND__@@_N@std@@@std@@@std@@@2@ABQAUHWND__@@@Z ; std::_Hash<std::_Umap_traits<HWND__ *,bool,std::_Uhash_compare<HWND__ *,std::hash<HWND__ *>,std::equal_to<HWND__ *> >,std::allocator<std::pair<HWND__ * const,bool> >,0> >::find
PUBLIC	?lower_bound@?$_Hash@V?$_Umap_traits@PAUHWND__@@_NV?$_Uhash_compare@PAUHWND__@@U?$hash@PAUHWND__@@@std@@U?$equal_to@PAUHWND__@@@3@@std@@V?$allocator@U?$pair@QAUHWND__@@_N@std@@@3@$0A@@std@@@std@@QAE?AV?$_List_iterator@V?$_List_val@U?$_List_simple_types@U?$pair@QAUHWND__@@_N@std@@@std@@@std@@@2@ABQAUHWND__@@@Z ; std::_Hash<std::_Umap_traits<HWND__ *,bool,std::_Uhash_compare<HWND__ *,std::hash<HWND__ *>,std::equal_to<HWND__ *> >,std::allocator<std::pair<HWND__ * const,bool> >,0> >::lower_bound
PUBLIC	?_Destroy_if_not_nil@?$_Hash@V?$_Umap_traits@PAUHWND__@@_NV?$_Uhash_compare@PAUHWND__@@U?$hash@PAUHWND__@@@std@@U?$equal_to@PAUHWND__@@@3@@std@@V?$allocator@U?$pair@QAUHWND__@@_N@std@@@3@$0A@@std@@@std@@IAEXV?$_List_unchecked_iterator@V?$_List_val@U?$_List_simple_types@U?$pair@QAUHWND__@@_N@std@@@std@@@std@@@2@@Z ; std::_Hash<std::_Umap_traits<HWND__ *,bool,std::_Uhash_compare<HWND__ *,std::hash<HWND__ *>,std::equal_to<HWND__ *> >,std::allocator<std::pair<HWND__ * const,bool> >,0> >::_Destroy_if_not_nil
PUBLIC	?_Vec_lo@?$_Hash@V?$_Umap_traits@PAUHWND__@@_NV?$_Uhash_compare@PAUHWND__@@U?$hash@PAUHWND__@@@std@@U?$equal_to@PAUHWND__@@@3@@std@@V?$allocator@U?$pair@QAUHWND__@@_N@std@@@3@$0A@@std@@@std@@IAEAAV?$_List_unchecked_iterator@V?$_List_val@U?$_List_simple_types@U?$pair@QAUHWND__@@_N@std@@@std@@@std@@@2@I@Z ; std::_Hash<std::_Umap_traits<HWND__ *,bool,std::_Uhash_compare<HWND__ *,std::hash<HWND__ *>,std::equal_to<HWND__ *> >,std::allocator<std::pair<HWND__ * const,bool> >,0> >::_Vec_lo
PUBLIC	?_Vec_hi@?$_Hash@V?$_Umap_traits@PAUHWND__@@_NV?$_Uhash_compare@PAUHWND__@@U?$hash@PAUHWND__@@@std@@U?$equal_to@PAUHWND__@@@3@@std@@V?$allocator@U?$pair@QAUHWND__@@_N@std@@@3@$0A@@std@@@std@@IAEAAV?$_List_unchecked_iterator@V?$_List_val@U?$_List_simple_types@U?$pair@QAUHWND__@@_N@std@@@std@@@std@@@2@I@Z ; std::_Hash<std::_Umap_traits<HWND__ *,bool,std::_Uhash_compare<HWND__ *,std::hash<HWND__ *>,std::equal_to<HWND__ *> >,std::allocator<std::pair<HWND__ * const,bool> >,0> >::_Vec_hi
PUBLIC	?_Begin@?$_Hash@V?$_Umap_traits@PAUHWND__@@_NV?$_Uhash_compare@PAUHWND__@@U?$hash@PAUHWND__@@@std@@U?$equal_to@PAUHWND__@@@3@@std@@V?$allocator@U?$pair@QAUHWND__@@_N@std@@@3@$0A@@std@@@std@@IAE?AV?$_List_unchecked_iterator@V?$_List_val@U?$_List_simple_types@U?$pair@QAUHWND__@@_N@std@@@std@@@std@@@2@I@Z ; std::_Hash<std::_Umap_traits<HWND__ *,bool,std::_Uhash_compare<HWND__ *,std::hash<HWND__ *>,std::equal_to<HWND__ *> >,std::allocator<std::pair<HWND__ * const,bool> >,0> >::_Begin
PUBLIC	?_End@?$_Hash@V?$_Umap_traits@PAUHWND__@@_NV?$_Uhash_compare@PAUHWND__@@U?$hash@PAUHWND__@@@std@@U?$equal_to@PAUHWND__@@@3@@std@@V?$allocator@U?$pair@QAUHWND__@@_N@std@@@3@$0A@@std@@@std@@IAE?AV?$_List_unchecked_iterator@V?$_List_val@U?$_List_simple_types@U?$pair@QAUHWND__@@_N@std@@@std@@@std@@@2@I@Z ; std::_Hash<std::_Umap_traits<HWND__ *,bool,std::_Uhash_compare<HWND__ *,std::hash<HWND__ *>,std::equal_to<HWND__ *> >,std::allocator<std::pair<HWND__ * const,bool> >,0> >::_End
PUBLIC	?_Erase_bucket@?$_Hash@V?$_Umap_traits@PAUHWND__@@_NV?$_Uhash_compare@PAUHWND__@@U?$hash@PAUHWND__@@@std@@U?$equal_to@PAUHWND__@@@3@@std@@V?$allocator@U?$pair@QAUHWND__@@_N@std@@@3@$0A@@std@@@std@@IAEXV?$_List_iterator@V?$_List_val@U?$_List_simple_types@U?$pair@QAUHWND__@@_N@std@@@std@@@std@@@2@I@Z ; std::_Hash<std::_Umap_traits<HWND__ *,bool,std::_Uhash_compare<HWND__ *,std::hash<HWND__ *>,std::equal_to<HWND__ *> >,std::allocator<std::pair<HWND__ * const,bool> >,0> >::_Erase_bucket
PUBLIC	?_Insert_bucket@?$_Hash@V?$_Umap_traits@PAUHWND__@@_NV?$_Uhash_compare@PAUHWND__@@U?$hash@PAUHWND__@@@std@@U?$equal_to@PAUHWND__@@@3@@std@@V?$allocator@U?$pair@QAUHWND__@@_N@std@@@3@$0A@@std@@@std@@IAEXV?$_List_unchecked_iterator@V?$_List_val@U?$_List_simple_types@U?$pair@QAUHWND__@@_N@std@@@std@@@std@@@2@0I@Z ; std::_Hash<std::_Umap_traits<HWND__ *,bool,std::_Uhash_compare<HWND__ *,std::hash<HWND__ *>,std::equal_to<HWND__ *> >,std::allocator<std::pair<HWND__ * const,bool> >,0> >::_Insert_bucket
PUBLIC	?_Hashval@?$_Hash@V?$_Umap_traits@PAUHWND__@@_NV?$_Uhash_compare@PAUHWND__@@U?$hash@PAUHWND__@@@std@@U?$equal_to@PAUHWND__@@@3@@std@@V?$allocator@U?$pair@QAUHWND__@@_N@std@@@3@$0A@@std@@@std@@IBEIABQAUHWND__@@@Z ; std::_Hash<std::_Umap_traits<HWND__ *,bool,std::_Uhash_compare<HWND__ *,std::hash<HWND__ *>,std::equal_to<HWND__ *> >,std::allocator<std::pair<HWND__ * const,bool> >,0> >::_Hashval
PUBLIC	?_Init@?$_Hash@V?$_Umap_traits@PAUHWND__@@_NV?$_Uhash_compare@PAUHWND__@@U?$hash@PAUHWND__@@@std@@U?$equal_to@PAUHWND__@@@3@@std@@V?$allocator@U?$pair@QAUHWND__@@_N@std@@@3@$0A@@std@@@std@@IAEXI@Z ; std::_Hash<std::_Umap_traits<HWND__ *,bool,std::_Uhash_compare<HWND__ *,std::hash<HWND__ *>,std::equal_to<HWND__ *> >,std::allocator<std::pair<HWND__ * const,bool> >,0> >::_Init
PUBLIC	?_Check_size@?$_Hash@V?$_Umap_traits@PAUHWND__@@_NV?$_Uhash_compare@PAUHWND__@@U?$hash@PAUHWND__@@@std@@U?$equal_to@PAUHWND__@@@3@@std@@V?$allocator@U?$pair@QAUHWND__@@_N@std@@@3@$0A@@std@@@std@@IAEXXZ ; std::_Hash<std::_Umap_traits<HWND__ *,bool,std::_Uhash_compare<HWND__ *,std::hash<HWND__ *>,std::equal_to<HWND__ *> >,std::allocator<std::pair<HWND__ * const,bool> >,0> >::_Check_size
PUBLIC	?_Reinsert@?$_Hash@V?$_Umap_traits@PAUHWND__@@_NV?$_Uhash_compare@PAUHWND__@@U?$hash@PAUHWND__@@@std@@U?$equal_to@PAUHWND__@@@3@@std@@V?$allocator@U?$pair@QAUHWND__@@_N@std@@@3@$0A@@std@@@std@@IAEXXZ ; std::_Hash<std::_Umap_traits<HWND__ *,bool,std::_Uhash_compare<HWND__ *,std::hash<HWND__ *>,std::equal_to<HWND__ *> >,std::allocator<std::pair<HWND__ * const,bool> >,0> >::_Reinsert
PUBLIC	?_Max_bucket_size@?$_Hash@V?$_Umap_traits@PAUHWND__@@_NV?$_Uhash_compare@PAUHWND__@@U?$hash@PAUHWND__@@@std@@U?$equal_to@PAUHWND__@@@3@@std@@V?$allocator@U?$pair@QAUHWND__@@_N@std@@@3@$0A@@std@@@std@@IAEAAMXZ ; std::_Hash<std::_Umap_traits<HWND__ *,bool,std::_Uhash_compare<HWND__ *,std::hash<HWND__ *>,std::equal_to<HWND__ *> >,std::allocator<std::pair<HWND__ * const,bool> >,0> >::_Max_bucket_size
PUBLIC	?_Max_bucket_size@?$_Hash@V?$_Umap_traits@PAUHWND__@@_NV?$_Uhash_compare@PAUHWND__@@U?$hash@PAUHWND__@@@std@@U?$equal_to@PAUHWND__@@@3@@std@@V?$allocator@U?$pair@QAUHWND__@@_N@std@@@3@$0A@@std@@@std@@IBEABMXZ ; std::_Hash<std::_Umap_traits<HWND__ *,bool,std::_Uhash_compare<HWND__ *,std::hash<HWND__ *>,std::equal_to<HWND__ *> >,std::allocator<std::pair<HWND__ * const,bool> >,0> >::_Max_bucket_size
PUBLIC	??0?$allocator@V?$_List_unchecked_iterator@V?$_List_val@U?$_List_simple_types@U?$pair@QAUHWND__@@_N@std@@@std@@@std@@@std@@@std@@QAE@ABV01@@Z ; std::allocator<std::_List_unchecked_iterator<std::_List_val<std::_List_simple_types<std::pair<HWND__ * const,bool> > > > >::allocator<std::_List_unchecked_iterator<std::_List_val<std::_List_simple_types<std::pair<HWND__ * const,bool> > > > >
PUBLIC	?deallocate@?$allocator@V?$_List_unchecked_iterator@V?$_List_val@U?$_List_simple_types@U?$pair@QAUHWND__@@_N@std@@@std@@@std@@@std@@@std@@QAEXPAV?$_List_unchecked_iterator@V?$_List_val@U?$_List_simple_types@U?$pair@QAUHWND__@@_N@std@@@std@@@std@@@2@I@Z ; std::allocator<std::_List_unchecked_iterator<std::_List_val<std::_List_simple_types<std::pair<HWND__ * const,bool> > > > >::deallocate
PUBLIC	?allocate@?$allocator@V?$_List_unchecked_iterator@V?$_List_val@U?$_List_simple_types@U?$pair@QAUHWND__@@_N@std@@@std@@@std@@@std@@@std@@QAEPAV?$_List_unchecked_iterator@V?$_List_val@U?$_List_simple_types@U?$pair@QAUHWND__@@_N@std@@@std@@@std@@@2@I@Z ; std::allocator<std::_List_unchecked_iterator<std::_List_val<std::_List_simple_types<std::pair<HWND__ * const,bool> > > > >::allocate
PUBLIC	?max_size@?$allocator@V?$_List_unchecked_iterator@V?$_List_val@U?$_List_simple_types@U?$pair@QAUHWND__@@_N@std@@@std@@@std@@@std@@@std@@QBEIXZ ; std::allocator<std::_List_unchecked_iterator<std::_List_val<std::_List_simple_types<std::pair<HWND__ * const,bool> > > > >::max_size
PUBLIC	?max_size@?$allocator_traits@V?$allocator@V?$_List_unchecked_iterator@V?$_List_val@U?$_List_simple_types@U?$pair@QAUHWND__@@_N@std@@@std@@@std@@@std@@@std@@@std@@SAIABV?$allocator@V?$_List_unchecked_iterator@V?$_List_val@U?$_List_simple_types@U?$pair@QAUHWND__@@_N@std@@@std@@@std@@@std@@@2@@Z ; std::allocator_traits<std::allocator<std::_List_unchecked_iterator<std::_List_val<std::_List_simple_types<std::pair<HWND__ * const,bool> > > > > >::max_size
PUBLIC	??0?$_Wrap_alloc@V?$allocator@V?$_List_unchecked_iterator@V?$_List_val@U?$_List_simple_types@U?$pair@QAUHWND__@@_N@std@@@std@@@std@@@std@@@std@@@std@@QAE@ABU01@@Z ; std::_Wrap_alloc<std::allocator<std::_List_unchecked_iterator<std::_List_val<std::_List_simple_types<std::pair<HWND__ * const,bool> > > > > >::_Wrap_alloc<std::allocator<std::_List_unchecked_iterator<std::_List_val<std::_List_simple_types<std::pair<HWND__ * const,bool> > > > > >
PUBLIC	?allocate@?$_Wrap_alloc@V?$allocator@V?$_List_unchecked_iterator@V?$_List_val@U?$_List_simple_types@U?$pair@QAUHWND__@@_N@std@@@std@@@std@@@std@@@std@@@std@@QAEPAV?$_List_unchecked_iterator@V?$_List_val@U?$_List_simple_types@U?$pair@QAUHWND__@@_N@std@@@std@@@std@@@2@I@Z ; std::_Wrap_alloc<std::allocator<std::_List_unchecked_iterator<std::_List_val<std::_List_simple_types<std::pair<HWND__ * const,bool> > > > > >::allocate
PUBLIC	?deallocate@?$_Wrap_alloc@V?$allocator@V?$_List_unchecked_iterator@V?$_List_val@U?$_List_simple_types@U?$pair@QAUHWND__@@_N@std@@@std@@@std@@@std@@@std@@@std@@QAEXPAV?$_List_unchecked_iterator@V?$_List_val@U?$_List_simple_types@U?$pair@QAUHWND__@@_N@std@@@std@@@std@@@2@I@Z ; std::_Wrap_alloc<std::allocator<std::_List_unchecked_iterator<std::_List_val<std::_List_simple_types<std::pair<HWND__ * const,bool> > > > > >::deallocate
PUBLIC	?max_size@?$_Wrap_alloc@V?$allocator@V?$_List_unchecked_iterator@V?$_List_val@U?$_List_simple_types@U?$pair@QAUHWND__@@_N@std@@@std@@@std@@@std@@@std@@@std@@QBEIU_Nil@2@@Z ; std::_Wrap_alloc<std::allocator<std::_List_unchecked_iterator<std::_List_val<std::_List_simple_types<std::pair<HWND__ * const,bool> > > > > >::max_size
PUBLIC	?max_size@?$allocator_traits@U?$_Wrap_alloc@V?$allocator@V?$_List_unchecked_iterator@V?$_List_val@U?$_List_simple_types@U?$pair@QAUHWND__@@_N@std@@@std@@@std@@@std@@@std@@@std@@@std@@SAIABU?$_Wrap_alloc@V?$allocator@V?$_List_unchecked_iterator@V?$_List_val@U?$_List_simple_types@U?$pair@QAUHWND__@@_N@std@@@std@@@std@@@std@@@std@@@2@@Z ; std::allocator_traits<std::_Wrap_alloc<std::allocator<std::_List_unchecked_iterator<std::_List_val<std::_List_simple_types<std::pair<HWND__ * const,bool> > > > > > >::max_size
PUBLIC	?allocate@?$_Wrap_alloc@U?$_Wrap_alloc@V?$allocator@V?$_List_unchecked_iterator@V?$_List_val@U?$_List_simple_types@U?$pair@QAUHWND__@@_N@std@@@std@@@std@@@std@@@std@@@std@@@std@@QAEPAV?$_List_unchecked_iterator@V?$_List_val@U?$_List_simple_types@U?$pair@QAUHWND__@@_N@std@@@std@@@std@@@2@I@Z ; std::_Wrap_alloc<std::_Wrap_alloc<std::allocator<std::_List_unchecked_iterator<std::_List_val<std::_List_simple_types<std::pair<HWND__ * const,bool> > > > > > >::allocate
PUBLIC	?deallocate@?$_Wrap_alloc@U?$_Wrap_alloc@V?$allocator@V?$_List_unchecked_iterator@V?$_List_val@U?$_List_simple_types@U?$pair@QAUHWND__@@_N@std@@@std@@@std@@@std@@@std@@@std@@@std@@QAEXPAV?$_List_unchecked_iterator@V?$_List_val@U?$_List_simple_types@U?$pair@QAUHWND__@@_N@std@@@std@@@std@@@2@I@Z ; std::_Wrap_alloc<std::_Wrap_alloc<std::allocator<std::_List_unchecked_iterator<std::_List_val<std::_List_simple_types<std::pair<HWND__ * const,bool> > > > > > >::deallocate
PUBLIC	?max_size@?$_Wrap_alloc@U?$_Wrap_alloc@V?$allocator@V?$_List_unchecked_iterator@V?$_List_val@U?$_List_simple_types@U?$pair@QAUHWND__@@_N@std@@@std@@@std@@@std@@@std@@@std@@@std@@QBEIU_Nil@2@@Z ; std::_Wrap_alloc<std::_Wrap_alloc<std::allocator<std::_List_unchecked_iterator<std::_List_val<std::_List_simple_types<std::pair<HWND__ * const,bool> > > > > > >::max_size
PUBLIC	?_Orphan_all@?$_Vector_alloc@U?$_Vec_base_types@V?$_List_unchecked_iterator@V?$_List_val@U?$_List_simple_types@U?$pair@QAUHWND__@@_N@std@@@std@@@std@@@std@@U?$_Wrap_alloc@V?$allocator@V?$_List_unchecked_iterator@V?$_List_val@U?$_List_simple_types@U?$pair@QAUHWND__@@_N@std@@@std@@@std@@@std@@@std@@@2@@std@@@std@@QAEXXZ ; std::_Vector_alloc<std::_Vec_base_types<std::_List_unchecked_iterator<std::_List_val<std::_List_simple_types<std::pair<HWND__ * const,bool> > > >,std::_Wrap_alloc<std::allocator<std::_List_unchecked_iterator<std::_List_val<std::_List_simple_types<std::pair<HWND__ * const,bool> > > > > > > >::_Orphan_all
PUBLIC	?_Getal@?$_Vector_alloc@U?$_Vec_base_types@V?$_List_unchecked_iterator@V?$_List_val@U?$_List_simple_types@U?$pair@QAUHWND__@@_N@std@@@std@@@std@@@std@@U?$_Wrap_alloc@V?$allocator@V?$_List_unchecked_iterator@V?$_List_val@U?$_List_simple_types@U?$pair@QAUHWND__@@_N@std@@@std@@@std@@@std@@@std@@@2@@std@@@std@@QAEAAU?$_Wrap_alloc@U?$_Wrap_alloc@V?$allocator@V?$_List_unchecked_iterator@V?$_List_val@U?$_List_simple_types@U?$pair@QAUHWND__@@_N@std@@@std@@@std@@@std@@@std@@@std@@@2@XZ ; std::_Vector_alloc<std::_Vec_base_types<std::_List_unchecked_iterator<std::_List_val<std::_List_simple_types<std::pair<HWND__ * const,bool> > > >,std::_Wrap_alloc<std::allocator<std::_List_unchecked_iterator<std::_List_val<std::_List_simple_types<std::pair<HWND__ * const,bool> > > > > > > >::_Getal
PUBLIC	?_Getal@?$_Vector_alloc@U?$_Vec_base_types@V?$_List_unchecked_iterator@V?$_List_val@U?$_List_simple_types@U?$pair@QAUHWND__@@_N@std@@@std@@@std@@@std@@U?$_Wrap_alloc@V?$allocator@V?$_List_unchecked_iterator@V?$_List_val@U?$_List_simple_types@U?$pair@QAUHWND__@@_N@std@@@std@@@std@@@std@@@std@@@2@@std@@@std@@QBEABU?$_Wrap_alloc@U?$_Wrap_alloc@V?$allocator@V?$_List_unchecked_iterator@V?$_List_val@U?$_List_simple_types@U?$pair@QAUHWND__@@_N@std@@@std@@@std@@@std@@@std@@@std@@@2@XZ ; std::_Vector_alloc<std::_Vec_base_types<std::_List_unchecked_iterator<std::_List_val<std::_List_simple_types<std::pair<HWND__ * const,bool> > > >,std::_Wrap_alloc<std::allocator<std::_List_unchecked_iterator<std::_List_val<std::_List_simple_types<std::pair<HWND__ * const,bool> > > > > > > >::_Getal
PUBLIC	?_Get_data@?$_Vector_alloc@U?$_Vec_base_types@V?$_List_unchecked_iterator@V?$_List_val@U?$_List_simple_types@U?$pair@QAUHWND__@@_N@std@@@std@@@std@@@std@@U?$_Wrap_alloc@V?$allocator@V?$_List_unchecked_iterator@V?$_List_val@U?$_List_simple_types@U?$pair@QAUHWND__@@_N@std@@@std@@@std@@@std@@@std@@@2@@std@@@std@@QAEAAV?$_Vector_val@U?$_Simple_types@V?$_List_unchecked_iterator@V?$_List_val@U?$_List_simple_types@U?$pair@QAUHWND__@@_N@std@@@std@@@std@@@std@@@std@@@2@XZ ; std::_Vector_alloc<std::_Vec_base_types<std::_List_unchecked_iterator<std::_List_val<std::_List_simple_types<std::pair<HWND__ * const,bool> > > >,std::_Wrap_alloc<std::allocator<std::_List_unchecked_iterator<std::_List_val<std::_List_simple_types<std::pair<HWND__ * const,bool> > > > > > > >::_Get_data
PUBLIC	?_Get_data@?$_Vector_alloc@U?$_Vec_base_types@V?$_List_unchecked_iterator@V?$_List_val@U?$_List_simple_types@U?$pair@QAUHWND__@@_N@std@@@std@@@std@@@std@@U?$_Wrap_alloc@V?$allocator@V?$_List_unchecked_iterator@V?$_List_val@U?$_List_simple_types@U?$pair@QAUHWND__@@_N@std@@@std@@@std@@@std@@@std@@@2@@std@@@std@@QBEABV?$_Vector_val@U?$_Simple_types@V?$_List_unchecked_iterator@V?$_List_val@U?$_List_simple_types@U?$pair@QAUHWND__@@_N@std@@@std@@@std@@@std@@@std@@@2@XZ ; std::_Vector_alloc<std::_Vec_base_types<std::_List_unchecked_iterator<std::_List_val<std::_List_simple_types<std::pair<HWND__ * const,bool> > > >,std::_Wrap_alloc<std::allocator<std::_List_unchecked_iterator<std::_List_val<std::_List_simple_types<std::pair<HWND__ * const,bool> > > > > > > >::_Get_data
PUBLIC	?_Myfirst@?$_Vector_alloc@U?$_Vec_base_types@V?$_List_unchecked_iterator@V?$_List_val@U?$_List_simple_types@U?$pair@QAUHWND__@@_N@std@@@std@@@std@@@std@@U?$_Wrap_alloc@V?$allocator@V?$_List_unchecked_iterator@V?$_List_val@U?$_List_simple_types@U?$pair@QAUHWND__@@_N@std@@@std@@@std@@@std@@@std@@@2@@std@@@std@@QAEAAPAV?$_List_unchecked_iterator@V?$_List_val@U?$_List_simple_types@U?$pair@QAUHWND__@@_N@std@@@std@@@std@@@2@XZ ; std::_Vector_alloc<std::_Vec_base_types<std::_List_unchecked_iterator<std::_List_val<std::_List_simple_types<std::pair<HWND__ * const,bool> > > >,std::_Wrap_alloc<std::allocator<std::_List_unchecked_iterator<std::_List_val<std::_List_simple_types<std::pair<HWND__ * const,bool> > > > > > > >::_Myfirst
PUBLIC	?_Myfirst@?$_Vector_alloc@U?$_Vec_base_types@V?$_List_unchecked_iterator@V?$_List_val@U?$_List_simple_types@U?$pair@QAUHWND__@@_N@std@@@std@@@std@@@std@@U?$_Wrap_alloc@V?$allocator@V?$_List_unchecked_iterator@V?$_List_val@U?$_List_simple_types@U?$pair@QAUHWND__@@_N@std@@@std@@@std@@@std@@@std@@@2@@std@@@std@@QBEABQAV?$_List_unchecked_iterator@V?$_List_val@U?$_List_simple_types@U?$pair@QAUHWND__@@_N@std@@@std@@@std@@@2@XZ ; std::_Vector_alloc<std::_Vec_base_types<std::_List_unchecked_iterator<std::_List_val<std::_List_simple_types<std::pair<HWND__ * const,bool> > > >,std::_Wrap_alloc<std::allocator<std::_List_unchecked_iterator<std::_List_val<std::_List_simple_types<std::pair<HWND__ * const,bool> > > > > > > >::_Myfirst
PUBLIC	?_Mylast@?$_Vector_alloc@U?$_Vec_base_types@V?$_List_unchecked_iterator@V?$_List_val@U?$_List_simple_types@U?$pair@QAUHWND__@@_N@std@@@std@@@std@@@std@@U?$_Wrap_alloc@V?$allocator@V?$_List_unchecked_iterator@V?$_List_val@U?$_List_simple_types@U?$pair@QAUHWND__@@_N@std@@@std@@@std@@@std@@@std@@@2@@std@@@std@@QAEAAPAV?$_List_unchecked_iterator@V?$_List_val@U?$_List_simple_types@U?$pair@QAUHWND__@@_N@std@@@std@@@std@@@2@XZ ; std::_Vector_alloc<std::_Vec_base_types<std::_List_unchecked_iterator<std::_List_val<std::_List_simple_types<std::pair<HWND__ * const,bool> > > >,std::_Wrap_alloc<std::allocator<std::_List_unchecked_iterator<std::_List_val<std::_List_simple_types<std::pair<HWND__ * const,bool> > > > > > > >::_Mylast
PUBLIC	?_Mylast@?$_Vector_alloc@U?$_Vec_base_types@V?$_List_unchecked_iterator@V?$_List_val@U?$_List_simple_types@U?$pair@QAUHWND__@@_N@std@@@std@@@std@@@std@@U?$_Wrap_alloc@V?$allocator@V?$_List_unchecked_iterator@V?$_List_val@U?$_List_simple_types@U?$pair@QAUHWND__@@_N@std@@@std@@@std@@@std@@@std@@@2@@std@@@std@@QBEABQAV?$_List_unchecked_iterator@V?$_List_val@U?$_List_simple_types@U?$pair@QAUHWND__@@_N@std@@@std@@@std@@@2@XZ ; std::_Vector_alloc<std::_Vec_base_types<std::_List_unchecked_iterator<std::_List_val<std::_List_simple_types<std::pair<HWND__ * const,bool> > > >,std::_Wrap_alloc<std::allocator<std::_List_unchecked_iterator<std::_List_val<std::_List_simple_types<std::pair<HWND__ * const,bool> > > > > > > >::_Mylast
PUBLIC	?_Myend@?$_Vector_alloc@U?$_Vec_base_types@V?$_List_unchecked_iterator@V?$_List_val@U?$_List_simple_types@U?$pair@QAUHWND__@@_N@std@@@std@@@std@@@std@@U?$_Wrap_alloc@V?$allocator@V?$_List_unchecked_iterator@V?$_List_val@U?$_List_simple_types@U?$pair@QAUHWND__@@_N@std@@@std@@@std@@@std@@@std@@@2@@std@@@std@@QAEAAPAV?$_List_unchecked_iterator@V?$_List_val@U?$_List_simple_types@U?$pair@QAUHWND__@@_N@std@@@std@@@std@@@2@XZ ; std::_Vector_alloc<std::_Vec_base_types<std::_List_unchecked_iterator<std::_List_val<std::_List_simple_types<std::pair<HWND__ * const,bool> > > >,std::_Wrap_alloc<std::allocator<std::_List_unchecked_iterator<std::_List_val<std::_List_simple_types<std::pair<HWND__ * const,bool> > > > > > > >::_Myend
PUBLIC	?_Myend@?$_Vector_alloc@U?$_Vec_base_types@V?$_List_unchecked_iterator@V?$_List_val@U?$_List_simple_types@U?$pair@QAUHWND__@@_N@std@@@std@@@std@@@std@@U?$_Wrap_alloc@V?$allocator@V?$_List_unchecked_iterator@V?$_List_val@U?$_List_simple_types@U?$pair@QAUHWND__@@_N@std@@@std@@@std@@@std@@@std@@@2@@std@@@std@@QBEABQAV?$_List_unchecked_iterator@V?$_List_val@U?$_List_simple_types@U?$pair@QAUHWND__@@_N@std@@@std@@@std@@@2@XZ ; std::_Vector_alloc<std::_Vec_base_types<std::_List_unchecked_iterator<std::_List_val<std::_List_simple_types<std::pair<HWND__ * const,bool> > > >,std::_Wrap_alloc<std::allocator<std::_List_unchecked_iterator<std::_List_val<std::_List_simple_types<std::pair<HWND__ * const,bool> > > > > > > >::_Myend
PUBLIC	??0?$_Vector_val@U?$_Simple_types@V?$_List_unchecked_iterator@V?$_List_val@U?$_List_simple_types@U?$pair@QAUHWND__@@_N@std@@@std@@@std@@@std@@@std@@@std@@QAE@XZ ; std::_Vector_val<std::_Simple_types<std::_List_unchecked_iterator<std::_List_val<std::_List_simple_types<std::pair<HWND__ * const,bool> > > > > >::_Vector_val<std::_Simple_types<std::_List_unchecked_iterator<std::_List_val<std::_List_simple_types<std::pair<HWND__ * const,bool> > > > > >
PUBLIC	?_Get_first@?$_Compressed_pair@U?$_Wrap_alloc@U?$_Wrap_alloc@V?$allocator@V?$_List_unchecked_iterator@V?$_List_val@U?$_List_simple_types@U?$pair@QAUHWND__@@_N@std@@@std@@@std@@@std@@@std@@@std@@@std@@V?$_Vector_val@U?$_Simple_types@V?$_List_unchecked_iterator@V?$_List_val@U?$_List_simple_types@U?$pair@QAUHWND__@@_N@std@@@std@@@std@@@std@@@std@@@2@$00@std@@QAEAAU?$_Wrap_alloc@U?$_Wrap_alloc@V?$allocator@V?$_List_unchecked_iterator@V?$_List_val@U?$_List_simple_types@U?$pair@QAUHWND__@@_N@std@@@std@@@std@@@std@@@std@@@std@@@2@XZ ; std::_Compressed_pair<std::_Wrap_alloc<std::_Wrap_alloc<std::allocator<std::_List_unchecked_iterator<std::_List_val<std::_List_simple_types<std::pair<HWND__ * const,bool> > > > > > >,std::_Vector_val<std::_Simple_types<std::_List_unchecked_iterator<std::_List_val<std::_List_simple_types<std::pair<HWND__ * const,bool> > > > > >,1>::_Get_first
PUBLIC	?_Get_first@?$_Compressed_pair@U?$_Wrap_alloc@U?$_Wrap_alloc@V?$allocator@V?$_List_unchecked_iterator@V?$_List_val@U?$_List_simple_types@U?$pair@QAUHWND__@@_N@std@@@std@@@std@@@std@@@std@@@std@@@std@@V?$_Vector_val@U?$_Simple_types@V?$_List_unchecked_iterator@V?$_List_val@U?$_List_simple_types@U?$pair@QAUHWND__@@_N@std@@@std@@@std@@@std@@@std@@@2@$00@std@@QBEABU?$_Wrap_alloc@U?$_Wrap_alloc@V?$allocator@V?$_List_unchecked_iterator@V?$_List_val@U?$_List_simple_types@U?$pair@QAUHWND__@@_N@std@@@std@@@std@@@std@@@std@@@std@@@2@XZ ; std::_Compressed_pair<std::_Wrap_alloc<std::_Wrap_alloc<std::allocator<std::_List_unchecked_iterator<std::_List_val<std::_List_simple_types<std::pair<HWND__ * const,bool> > > > > > >,std::_Vector_val<std::_Simple_types<std::_List_unchecked_iterator<std::_List_val<std::_List_simple_types<std::pair<HWND__ * const,bool> > > > > >,1>::_Get_first
PUBLIC	?_Get_second@?$_Compressed_pair@U?$_Wrap_alloc@U?$_Wrap_alloc@V?$allocator@V?$_List_unchecked_iterator@V?$_List_val@U?$_List_simple_types@U?$pair@QAUHWND__@@_N@std@@@std@@@std@@@std@@@std@@@std@@@std@@V?$_Vector_val@U?$_Simple_types@V?$_List_unchecked_iterator@V?$_List_val@U?$_List_simple_types@U?$pair@QAUHWND__@@_N@std@@@std@@@std@@@std@@@std@@@2@$00@std@@QAEAAV?$_Vector_val@U?$_Simple_types@V?$_List_unchecked_iterator@V?$_List_val@U?$_List_simple_types@U?$pair@QAUHWND__@@_N@std@@@std@@@std@@@std@@@std@@@2@XZ ; std::_Compressed_pair<std::_Wrap_alloc<std::_Wrap_alloc<std::allocator<std::_List_unchecked_iterator<std::_List_val<std::_List_simple_types<std::pair<HWND__ * const,bool> > > > > > >,std::_Vector_val<std::_Simple_types<std::_List_unchecked_iterator<std::_List_val<std::_List_simple_types<std::pair<HWND__ * const,bool> > > > > >,1>::_Get_second
PUBLIC	?_Get_second@?$_Compressed_pair@U?$_Wrap_alloc@U?$_Wrap_alloc@V?$allocator@V?$_List_unchecked_iterator@V?$_List_val@U?$_List_simple_types@U?$pair@QAUHWND__@@_N@std@@@std@@@std@@@std@@@std@@@std@@@std@@V?$_Vector_val@U?$_Simple_types@V?$_List_unchecked_iterator@V?$_List_val@U?$_List_simple_types@U?$pair@QAUHWND__@@_N@std@@@std@@@std@@@std@@@std@@@2@$00@std@@QBEABV?$_Vector_val@U?$_Simple_types@V?$_List_unchecked_iterator@V?$_List_val@U?$_List_simple_types@U?$pair@QAUHWND__@@_N@std@@@std@@@std@@@std@@@std@@@2@XZ ; std::_Compressed_pair<std::_Wrap_alloc<std::_Wrap_alloc<std::allocator<std::_List_unchecked_iterator<std::_List_val<std::_List_simple_types<std::pair<HWND__ * const,bool> > > > > > >,std::_Vector_val<std::_Simple_types<std::_List_unchecked_iterator<std::_List_val<std::_List_simple_types<std::pair<HWND__ * const,bool> > > > > >,1>::_Get_second
PUBLIC	??0?$vector@V?$_List_unchecked_iterator@V?$_List_val@U?$_List_simple_types@U?$pair@QAUHWND__@@_N@std@@@std@@@std@@@std@@U?$_Wrap_alloc@V?$allocator@V?$_List_unchecked_iterator@V?$_List_val@U?$_List_simple_types@U?$pair@QAUHWND__@@_N@std@@@std@@@std@@@std@@@std@@@2@@std@@QAE@ABU?$_Wrap_alloc@V?$allocator@V?$_List_unchecked_iterator@V?$_List_val@U?$_List_simple_types@U?$pair@QAUHWND__@@_N@std@@@std@@@std@@@std@@@std@@@1@@Z ; std::vector<std::_List_unchecked_iterator<std::_List_val<std::_List_simple_types<std::pair<HWND__ * const,bool> > > >,std::_Wrap_alloc<std::allocator<std::_List_unchecked_iterator<std::_List_val<std::_List_simple_types<std::pair<HWND__ * const,bool> > > > > > >::vector<std::_List_unchecked_iterator<std::_List_val<std::_List_simple_types<std::pair<HWND__ * const,bool> > > >,std::_Wrap_alloc<std::allocator<std::_List_unchecked_iterator<std::_List_val<std::_List_simple_types<std::pair<HWND__ * const,bool> > > > > > >
PUBLIC	??1?$vector@V?$_List_unchecked_iterator@V?$_List_val@U?$_List_simple_types@U?$pair@QAUHWND__@@_N@std@@@std@@@std@@@std@@U?$_Wrap_alloc@V?$allocator@V?$_List_unchecked_iterator@V?$_List_val@U?$_List_simple_types@U?$pair@QAUHWND__@@_N@std@@@std@@@std@@@std@@@std@@@2@@std@@QAE@XZ ; std::vector<std::_List_unchecked_iterator<std::_List_val<std::_List_simple_types<std::pair<HWND__ * const,bool> > > >,std::_Wrap_alloc<std::allocator<std::_List_unchecked_iterator<std::_List_val<std::_List_simple_types<std::pair<HWND__ * const,bool> > > > > > >::~vector<std::_List_unchecked_iterator<std::_List_val<std::_List_simple_types<std::pair<HWND__ * const,bool> > > >,std::_Wrap_alloc<std::allocator<std::_List_unchecked_iterator<std::_List_val<std::_List_simple_types<std::pair<HWND__ * const,bool> > > > > > >
PUBLIC	?assign@?$vector@V?$_List_unchecked_iterator@V?$_List_val@U?$_List_simple_types@U?$pair@QAUHWND__@@_N@std@@@std@@@std@@@std@@U?$_Wrap_alloc@V?$allocator@V?$_List_unchecked_iterator@V?$_List_val@U?$_List_simple_types@U?$pair@QAUHWND__@@_N@std@@@std@@@std@@@std@@@std@@@2@@std@@QAEXIABV?$_List_unchecked_iterator@V?$_List_val@U?$_List_simple_types@U?$pair@QAUHWND__@@_N@std@@@std@@@std@@@2@@Z ; std::vector<std::_List_unchecked_iterator<std::_List_val<std::_List_simple_types<std::pair<HWND__ * const,bool> > > >,std::_Wrap_alloc<std::allocator<std::_List_unchecked_iterator<std::_List_val<std::_List_simple_types<std::pair<HWND__ * const,bool> > > > > > >::assign
PUBLIC	?_Reallocate_exactly@?$vector@V?$_List_unchecked_iterator@V?$_List_val@U?$_List_simple_types@U?$pair@QAUHWND__@@_N@std@@@std@@@std@@@std@@U?$_Wrap_alloc@V?$allocator@V?$_List_unchecked_iterator@V?$_List_val@U?$_List_simple_types@U?$pair@QAUHWND__@@_N@std@@@std@@@std@@@std@@@std@@@2@@std@@AAEXI@Z ; std::vector<std::_List_unchecked_iterator<std::_List_val<std::_List_simple_types<std::pair<HWND__ * const,bool> > > >,std::_Wrap_alloc<std::allocator<std::_List_unchecked_iterator<std::_List_val<std::_List_simple_types<std::pair<HWND__ * const,bool> > > > > > >::_Reallocate_exactly
PUBLIC	?reserve@?$vector@V?$_List_unchecked_iterator@V?$_List_val@U?$_List_simple_types@U?$pair@QAUHWND__@@_N@std@@@std@@@std@@@std@@U?$_Wrap_alloc@V?$allocator@V?$_List_unchecked_iterator@V?$_List_val@U?$_List_simple_types@U?$pair@QAUHWND__@@_N@std@@@std@@@std@@@std@@@std@@@2@@std@@QAEXI@Z ; std::vector<std::_List_unchecked_iterator<std::_List_val<std::_List_simple_types<std::pair<HWND__ * const,bool> > > >,std::_Wrap_alloc<std::allocator<std::_List_unchecked_iterator<std::_List_val<std::_List_simple_types<std::pair<HWND__ * const,bool> > > > > > >::reserve
PUBLIC	?size@?$vector@V?$_List_unchecked_iterator@V?$_List_val@U?$_List_simple_types@U?$pair@QAUHWND__@@_N@std@@@std@@@std@@@std@@U?$_Wrap_alloc@V?$allocator@V?$_List_unchecked_iterator@V?$_List_val@U?$_List_simple_types@U?$pair@QAUHWND__@@_N@std@@@std@@@std@@@std@@@std@@@2@@std@@QBEIXZ ; std::vector<std::_List_unchecked_iterator<std::_List_val<std::_List_simple_types<std::pair<HWND__ * const,bool> > > >,std::_Wrap_alloc<std::allocator<std::_List_unchecked_iterator<std::_List_val<std::_List_simple_types<std::pair<HWND__ * const,bool> > > > > > >::size
PUBLIC	?max_size@?$vector@V?$_List_unchecked_iterator@V?$_List_val@U?$_List_simple_types@U?$pair@QAUHWND__@@_N@std@@@std@@@std@@@std@@U?$_Wrap_alloc@V?$allocator@V?$_List_unchecked_iterator@V?$_List_val@U?$_List_simple_types@U?$pair@QAUHWND__@@_N@std@@@std@@@std@@@std@@@std@@@2@@std@@QBEIXZ ; std::vector<std::_List_unchecked_iterator<std::_List_val<std::_List_simple_types<std::pair<HWND__ * const,bool> > > >,std::_Wrap_alloc<std::allocator<std::_List_unchecked_iterator<std::_List_val<std::_List_simple_types<std::pair<HWND__ * const,bool> > > > > > >::max_size
PUBLIC	?capacity@?$vector@V?$_List_unchecked_iterator@V?$_List_val@U?$_List_simple_types@U?$pair@QAUHWND__@@_N@std@@@std@@@std@@@std@@U?$_Wrap_alloc@V?$allocator@V?$_List_unchecked_iterator@V?$_List_val@U?$_List_simple_types@U?$pair@QAUHWND__@@_N@std@@@std@@@std@@@std@@@std@@@2@@std@@QBEIXZ ; std::vector<std::_List_unchecked_iterator<std::_List_val<std::_List_simple_types<std::pair<HWND__ * const,bool> > > >,std::_Wrap_alloc<std::allocator<std::_List_unchecked_iterator<std::_List_val<std::_List_simple_types<std::pair<HWND__ * const,bool> > > > > > >::capacity
PUBLIC	??A?$vector@V?$_List_unchecked_iterator@V?$_List_val@U?$_List_simple_types@U?$pair@QAUHWND__@@_N@std@@@std@@@std@@@std@@U?$_Wrap_alloc@V?$allocator@V?$_List_unchecked_iterator@V?$_List_val@U?$_List_simple_types@U?$pair@QAUHWND__@@_N@std@@@std@@@std@@@std@@@std@@@2@@std@@QAEAAV?$_List_unchecked_iterator@V?$_List_val@U?$_List_simple_types@U?$pair@QAUHWND__@@_N@std@@@std@@@std@@@1@I@Z ; std::vector<std::_List_unchecked_iterator<std::_List_val<std::_List_simple_types<std::pair<HWND__ * const,bool> > > >,std::_Wrap_alloc<std::allocator<std::_List_unchecked_iterator<std::_List_val<std::_List_simple_types<std::pair<HWND__ * const,bool> > > > > > >::operator[]
PUBLIC	?_Ufill@?$vector@V?$_List_unchecked_iterator@V?$_List_val@U?$_List_simple_types@U?$pair@QAUHWND__@@_N@std@@@std@@@std@@@std@@U?$_Wrap_alloc@V?$allocator@V?$_List_unchecked_iterator@V?$_List_val@U?$_List_simple_types@U?$pair@QAUHWND__@@_N@std@@@std@@@std@@@std@@@std@@@2@@std@@AAEPAV?$_List_unchecked_iterator@V?$_List_val@U?$_List_simple_types@U?$pair@QAUHWND__@@_N@std@@@std@@@std@@@2@PAV32@IABV32@@Z ; std::vector<std::_List_unchecked_iterator<std::_List_val<std::_List_simple_types<std::pair<HWND__ * const,bool> > > >,std::_Wrap_alloc<std::allocator<std::_List_unchecked_iterator<std::_List_val<std::_List_simple_types<std::pair<HWND__ * const,bool> > > > > > >::_Ufill
PUBLIC	?_Umove_if_noexcept1@?$vector@V?$_List_unchecked_iterator@V?$_List_val@U?$_List_simple_types@U?$pair@QAUHWND__@@_N@std@@@std@@@std@@@std@@U?$_Wrap_alloc@V?$allocator@V?$_List_unchecked_iterator@V?$_List_val@U?$_List_simple_types@U?$pair@QAUHWND__@@_N@std@@@std@@@std@@@std@@@std@@@2@@std@@AAEXPAV?$_List_unchecked_iterator@V?$_List_val@U?$_List_simple_types@U?$pair@QAUHWND__@@_N@std@@@std@@@std@@@2@00U?$integral_constant@_N$00@2@@Z ; std::vector<std::_List_unchecked_iterator<std::_List_val<std::_List_simple_types<std::pair<HWND__ * const,bool> > > >,std::_Wrap_alloc<std::allocator<std::_List_unchecked_iterator<std::_List_val<std::_List_simple_types<std::pair<HWND__ * const,bool> > > > > > >::_Umove_if_noexcept1
PUBLIC	?_Umove_if_noexcept@?$vector@V?$_List_unchecked_iterator@V?$_List_val@U?$_List_simple_types@U?$pair@QAUHWND__@@_N@std@@@std@@@std@@@std@@U?$_Wrap_alloc@V?$allocator@V?$_List_unchecked_iterator@V?$_List_val@U?$_List_simple_types@U?$pair@QAUHWND__@@_N@std@@@std@@@std@@@std@@@std@@@2@@std@@AAEXPAV?$_List_unchecked_iterator@V?$_List_val@U?$_List_simple_types@U?$pair@QAUHWND__@@_N@std@@@std@@@std@@@2@00@Z ; std::vector<std::_List_unchecked_iterator<std::_List_val<std::_List_simple_types<std::pair<HWND__ * const,bool> > > >,std::_Wrap_alloc<std::allocator<std::_List_unchecked_iterator<std::_List_val<std::_List_simple_types<std::pair<HWND__ * const,bool> > > > > > >::_Umove_if_noexcept
PUBLIC	?_Destroy@?$vector@V?$_List_unchecked_iterator@V?$_List_val@U?$_List_simple_types@U?$pair@QAUHWND__@@_N@std@@@std@@@std@@@std@@U?$_Wrap_alloc@V?$allocator@V?$_List_unchecked_iterator@V?$_List_val@U?$_List_simple_types@U?$pair@QAUHWND__@@_N@std@@@std@@@std@@@std@@@std@@@2@@std@@AAEXPAV?$_List_unchecked_iterator@V?$_List_val@U?$_List_simple_types@U?$pair@QAUHWND__@@_N@std@@@std@@@std@@@2@0@Z ; std::vector<std::_List_unchecked_iterator<std::_List_val<std::_List_simple_types<std::pair<HWND__ * const,bool> > > >,std::_Wrap_alloc<std::allocator<std::_List_unchecked_iterator<std::_List_val<std::_List_simple_types<std::pair<HWND__ * const,bool> > > > > > >::_Destroy
PUBLIC	?_Calculate_growth@?$vector@V?$_List_unchecked_iterator@V?$_List_val@U?$_List_simple_types@U?$pair@QAUHWND__@@_N@std@@@std@@@std@@@std@@U?$_Wrap_alloc@V?$allocator@V?$_List_unchecked_iterator@V?$_List_val@U?$_List_simple_types@U?$pair@QAUHWND__@@_N@std@@@std@@@std@@@std@@@std@@@2@@std@@ABEII@Z ; std::vector<std::_List_unchecked_iterator<std::_List_val<std::_List_simple_types<std::pair<HWND__ * const,bool> > > >,std::_Wrap_alloc<std::allocator<std::_List_unchecked_iterator<std::_List_val<std::_List_simple_types<std::pair<HWND__ * const,bool> > > > > > >::_Calculate_growth
PUBLIC	?_Buy@?$vector@V?$_List_unchecked_iterator@V?$_List_val@U?$_List_simple_types@U?$pair@QAUHWND__@@_N@std@@@std@@@std@@@std@@U?$_Wrap_alloc@V?$allocator@V?$_List_unchecked_iterator@V?$_List_val@U?$_List_simple_types@U?$pair@QAUHWND__@@_N@std@@@std@@@std@@@std@@@std@@@2@@std@@AAE_NI@Z ; std::vector<std::_List_unchecked_iterator<std::_List_val<std::_List_simple_types<std::pair<HWND__ * const,bool> > > >,std::_Wrap_alloc<std::allocator<std::_List_unchecked_iterator<std::_List_val<std::_List_simple_types<std::pair<HWND__ * const,bool> > > > > > >::_Buy
PUBLIC	?_Change_array@?$vector@V?$_List_unchecked_iterator@V?$_List_val@U?$_List_simple_types@U?$pair@QAUHWND__@@_N@std@@@std@@@std@@@std@@U?$_Wrap_alloc@V?$allocator@V?$_List_unchecked_iterator@V?$_List_val@U?$_List_simple_types@U?$pair@QAUHWND__@@_N@std@@@std@@@std@@@std@@@std@@@2@@std@@AAEXQAV?$_List_unchecked_iterator@V?$_List_val@U?$_List_simple_types@U?$pair@QAUHWND__@@_N@std@@@std@@@std@@@2@II@Z ; std::vector<std::_List_unchecked_iterator<std::_List_val<std::_List_simple_types<std::pair<HWND__ * const,bool> > > >,std::_Wrap_alloc<std::allocator<std::_List_unchecked_iterator<std::_List_val<std::_List_simple_types<std::pair<HWND__ * const,bool> > > > > > >::_Change_array
PUBLIC	?_Tidy@?$vector@V?$_List_unchecked_iterator@V?$_List_val@U?$_List_simple_types@U?$pair@QAUHWND__@@_N@std@@@std@@@std@@@std@@U?$_Wrap_alloc@V?$allocator@V?$_List_unchecked_iterator@V?$_List_val@U?$_List_simple_types@U?$pair@QAUHWND__@@_N@std@@@std@@@std@@@std@@@std@@@2@@std@@AAEXXZ ; std::vector<std::_List_unchecked_iterator<std::_List_val<std::_List_simple_types<std::pair<HWND__ * const,bool> > > >,std::_Wrap_alloc<std::allocator<std::_List_unchecked_iterator<std::_List_val<std::_List_simple_types<std::pair<HWND__ * const,bool> > > > > > >::_Tidy
PUBLIC	?_Xlength@?$vector@V?$_List_unchecked_iterator@V?$_List_val@U?$_List_simple_types@U?$pair@QAUHWND__@@_N@std@@@std@@@std@@@std@@U?$_Wrap_alloc@V?$allocator@V?$_List_unchecked_iterator@V?$_List_val@U?$_List_simple_types@U?$pair@QAUHWND__@@_N@std@@@std@@@std@@@std@@@std@@@2@@std@@CAXXZ ; std::vector<std::_List_unchecked_iterator<std::_List_val<std::_List_simple_types<std::pair<HWND__ * const,bool> > > >,std::_Wrap_alloc<std::allocator<std::_List_unchecked_iterator<std::_List_val<std::_List_simple_types<std::pair<HWND__ * const,bool> > > > > > >::_Xlength
PUBLIC	??0?$unordered_map@PAUHWND__@@_NU?$hash@PAUHWND__@@@std@@U?$equal_to@PAUHWND__@@@3@V?$allocator@U?$pair@QAUHWND__@@_N@std@@@3@@std@@QAE@XZ ; std::unordered_map<HWND__ *,bool,std::hash<HWND__ *>,std::equal_to<HWND__ *>,std::allocator<std::pair<HWND__ * const,bool> > >::unordered_map<HWND__ *,bool,std::hash<HWND__ *>,std::equal_to<HWND__ *>,std::allocator<std::pair<HWND__ * const,bool> > >
PUBLIC	??A?$unordered_map@PAUHWND__@@_NU?$hash@PAUHWND__@@@std@@U?$equal_to@PAUHWND__@@@3@V?$allocator@U?$pair@QAUHWND__@@_N@std@@@3@@std@@QAEAA_NABQAUHWND__@@@Z ; std::unordered_map<HWND__ *,bool,std::hash<HWND__ *>,std::equal_to<HWND__ *>,std::allocator<std::pair<HWND__ * const,bool> > >::operator[]
PUBLIC	??1?$unordered_map@PAUHWND__@@_NU?$hash@PAUHWND__@@@std@@U?$equal_to@PAUHWND__@@@3@V?$allocator@U?$pair@QAUHWND__@@_N@std@@@3@@std@@QAE@XZ ; std::unordered_map<HWND__ *,bool,std::hash<HWND__ *>,std::equal_to<HWND__ *>,std::allocator<std::pair<HWND__ * const,bool> > >::~unordered_map<HWND__ *,bool,std::hash<HWND__ *>,std::equal_to<HWND__ *>,std::allocator<std::pair<HWND__ * const,bool> > >
PUBLIC	??0?$_Uset_traits@PAUHWND__@@V?$_Uhash_compare@PAUHWND__@@U?$hash@PAUHWND__@@@std@@U?$equal_to@PAUHWND__@@@3@@std@@V?$allocator@PAUHWND__@@@3@$0A@@std@@QAE@ABV?$_Uhash_compare@PAUHWND__@@U?$hash@PAUHWND__@@@std@@U?$equal_to@PAUHWND__@@@3@@1@@Z ; std::_Uset_traits<HWND__ *,std::_Uhash_compare<HWND__ *,std::hash<HWND__ *>,std::equal_to<HWND__ *> >,std::allocator<HWND__ *>,0>::_Uset_traits<HWND__ *,std::_Uhash_compare<HWND__ *,std::hash<HWND__ *>,std::equal_to<HWND__ *> >,std::allocator<HWND__ *>,0>
PUBLIC	?_Kfn@?$_Uset_traits@PAUHWND__@@V?$_Uhash_compare@PAUHWND__@@U?$hash@PAUHWND__@@@std@@U?$equal_to@PAUHWND__@@@3@@std@@V?$allocator@PAUHWND__@@@3@$0A@@std@@SAABQAUHWND__@@ABQAU3@@Z ; std::_Uset_traits<HWND__ *,std::_Uhash_compare<HWND__ *,std::hash<HWND__ *>,std::equal_to<HWND__ *> >,std::allocator<HWND__ *>,0>::_Kfn
PUBLIC	??0?$allocator@PAUHWND__@@@std@@QAE@XZ		; std::allocator<HWND__ *>::allocator<HWND__ *>
PUBLIC	?deallocate@?$allocator@U?$_List_node@PAUHWND__@@PAX@std@@@std@@QAEXPAU?$_List_node@PAUHWND__@@PAX@2@I@Z ; std::allocator<std::_List_node<HWND__ *,void *> >::deallocate
PUBLIC	?allocate@?$allocator@U?$_List_node@PAUHWND__@@PAX@std@@@std@@QAEPAU?$_List_node@PAUHWND__@@PAX@2@I@Z ; std::allocator<std::_List_node<HWND__ *,void *> >::allocate
PUBLIC	?max_size@?$allocator@U?$_List_node@PAUHWND__@@PAX@std@@@std@@QBEIXZ ; std::allocator<std::_List_node<HWND__ *,void *> >::max_size
PUBLIC	?max_size@?$allocator_traits@V?$allocator@U?$_List_node@PAUHWND__@@PAX@std@@@std@@@std@@SAIABV?$allocator@U?$_List_node@PAUHWND__@@PAX@std@@@2@@Z ; std::allocator_traits<std::allocator<std::_List_node<HWND__ *,void *> > >::max_size
PUBLIC	?allocate@?$_Wrap_alloc@V?$allocator@U?$_List_node@PAUHWND__@@PAX@std@@@std@@@std@@QAEPAU?$_List_node@PAUHWND__@@PAX@2@I@Z ; std::_Wrap_alloc<std::allocator<std::_List_node<HWND__ *,void *> > >::allocate
PUBLIC	?deallocate@?$_Wrap_alloc@V?$allocator@U?$_List_node@PAUHWND__@@PAX@std@@@std@@@std@@QAEXPAU?$_List_node@PAUHWND__@@PAX@2@I@Z ; std::_Wrap_alloc<std::allocator<std::_List_node<HWND__ *,void *> > >::deallocate
PUBLIC	?max_size@?$_Wrap_alloc@V?$allocator@U?$_List_node@PAUHWND__@@PAX@std@@@std@@@std@@QBEIU_Nil@2@@Z ; std::_Wrap_alloc<std::allocator<std::_List_node<HWND__ *,void *> > >::max_size
PUBLIC	?_Nextnode@?$_List_alloc@U?$_List_base_types@PAUHWND__@@V?$allocator@PAUHWND__@@@std@@@std@@@std@@SAAAPAU?$_List_node@PAUHWND__@@PAX@2@PAU32@@Z ; std::_List_alloc<std::_List_base_types<HWND__ *,std::allocator<HWND__ *> > >::_Nextnode
PUBLIC	?_Prevnode@?$_List_alloc@U?$_List_base_types@PAUHWND__@@V?$allocator@PAUHWND__@@@std@@@std@@@std@@SAAAPAU?$_List_node@PAUHWND__@@PAX@2@PAU32@@Z ; std::_List_alloc<std::_List_base_types<HWND__ *,std::allocator<HWND__ *> > >::_Prevnode
PUBLIC	?_Myval@?$_List_alloc@U?$_List_base_types@PAUHWND__@@V?$allocator@PAUHWND__@@@std@@@std@@@std@@SAAAPAUHWND__@@PAU?$_List_node@PAUHWND__@@PAX@2@@Z ; std::_List_alloc<std::_List_base_types<HWND__ *,std::allocator<HWND__ *> > >::_Myval
PUBLIC	??1?$_List_alloc@U?$_List_base_types@PAUHWND__@@V?$allocator@PAUHWND__@@@std@@@std@@@std@@QAE@XZ ; std::_List_alloc<std::_List_base_types<HWND__ *,std::allocator<HWND__ *> > >::~_List_alloc<std::_List_base_types<HWND__ *,std::allocator<HWND__ *> > >
PUBLIC	?_Buyheadnode@?$_List_alloc@U?$_List_base_types@PAUHWND__@@V?$allocator@PAUHWND__@@@std@@@std@@@std@@QAEPAU?$_List_node@PAUHWND__@@PAX@2@XZ ; std::_List_alloc<std::_List_base_types<HWND__ *,std::allocator<HWND__ *> > >::_Buyheadnode
PUBLIC	?_Freeheadnode@?$_List_alloc@U?$_List_base_types@PAUHWND__@@V?$allocator@PAUHWND__@@@std@@@std@@@std@@QAEXPAU?$_List_node@PAUHWND__@@PAX@2@@Z ; std::_List_alloc<std::_List_base_types<HWND__ *,std::allocator<HWND__ *> > >::_Freeheadnode
PUBLIC	?_Buynode0@?$_List_alloc@U?$_List_base_types@PAUHWND__@@V?$allocator@PAUHWND__@@@std@@@std@@@std@@QAEPAU?$_List_node@PAUHWND__@@PAX@2@PAU32@0@Z ; std::_List_alloc<std::_List_base_types<HWND__ *,std::allocator<HWND__ *> > >::_Buynode0
PUBLIC	?_Getal@?$_List_alloc@U?$_List_base_types@PAUHWND__@@V?$allocator@PAUHWND__@@@std@@@std@@@std@@QAEAAU?$_Wrap_alloc@V?$allocator@U?$_List_node@PAUHWND__@@PAX@std@@@std@@@2@XZ ; std::_List_alloc<std::_List_base_types<HWND__ *,std::allocator<HWND__ *> > >::_Getal
PUBLIC	?_Getal@?$_List_alloc@U?$_List_base_types@PAUHWND__@@V?$allocator@PAUHWND__@@@std@@@std@@@std@@QBEABU?$_Wrap_alloc@V?$allocator@U?$_List_node@PAUHWND__@@PAX@std@@@std@@@2@XZ ; std::_List_alloc<std::_List_base_types<HWND__ *,std::allocator<HWND__ *> > >::_Getal
PUBLIC	?_Get_data@?$_List_alloc@U?$_List_base_types@PAUHWND__@@V?$allocator@PAUHWND__@@@std@@@std@@@std@@QAEAAV?$_List_val@U?$_List_simple_types@PAUHWND__@@@std@@@2@XZ ; std::_List_alloc<std::_List_base_types<HWND__ *,std::allocator<HWND__ *> > >::_Get_data
PUBLIC	?_Get_data@?$_List_alloc@U?$_List_base_types@PAUHWND__@@V?$allocator@PAUHWND__@@@std@@@std@@@std@@QBEABV?$_List_val@U?$_List_simple_types@PAUHWND__@@@std@@@2@XZ ; std::_List_alloc<std::_List_base_types<HWND__ *,std::allocator<HWND__ *> > >::_Get_data
PUBLIC	?_Myhead@?$_List_alloc@U?$_List_base_types@PAUHWND__@@V?$allocator@PAUHWND__@@@std@@@std@@@std@@QAEAAPAU?$_List_node@PAUHWND__@@PAX@2@XZ ; std::_List_alloc<std::_List_base_types<HWND__ *,std::allocator<HWND__ *> > >::_Myhead
PUBLIC	?_Myhead@?$_List_alloc@U?$_List_base_types@PAUHWND__@@V?$allocator@PAUHWND__@@@std@@@std@@@std@@QBEABQAU?$_List_node@PAUHWND__@@PAX@2@XZ ; std::_List_alloc<std::_List_base_types<HWND__ *,std::allocator<HWND__ *> > >::_Myhead
PUBLIC	?_Mysize@?$_List_alloc@U?$_List_base_types@PAUHWND__@@V?$allocator@PAUHWND__@@@std@@@std@@@std@@QAEAAIXZ ; std::_List_alloc<std::_List_base_types<HWND__ *,std::allocator<HWND__ *> > >::_Mysize
PUBLIC	?_Mysize@?$_List_alloc@U?$_List_base_types@PAUHWND__@@V?$allocator@PAUHWND__@@@std@@@std@@@std@@QBEABIXZ ; std::_List_alloc<std::_List_base_types<HWND__ *,std::allocator<HWND__ *> > >::_Mysize
PUBLIC	??0?$_List_val@U?$_List_simple_types@PAUHWND__@@@std@@@std@@QAE@XZ ; std::_List_val<std::_List_simple_types<HWND__ *> >::_List_val<std::_List_simple_types<HWND__ *> >
PUBLIC	?_Nextnode@?$_List_val@U?$_List_simple_types@PAUHWND__@@@std@@@std@@SAAAPAU?$_List_node@PAUHWND__@@PAX@2@PAU32@@Z ; std::_List_val<std::_List_simple_types<HWND__ *> >::_Nextnode
PUBLIC	?_Prevnode@?$_List_val@U?$_List_simple_types@PAUHWND__@@@std@@@std@@SAAAPAU?$_List_node@PAUHWND__@@PAX@2@PAU32@@Z ; std::_List_val<std::_List_simple_types<HWND__ *> >::_Prevnode
PUBLIC	?_Myval@?$_List_val@U?$_List_simple_types@PAUHWND__@@@std@@@std@@SAAAPAUHWND__@@PAU?$_List_node@PAUHWND__@@PAX@2@@Z ; std::_List_val<std::_List_simple_types<HWND__ *> >::_Myval
PUBLIC	?_Get_first@?$_Compressed_pair@U?$_Wrap_alloc@V?$allocator@U?$_List_node@PAUHWND__@@PAX@std@@@std@@@std@@V?$_List_val@U?$_List_simple_types@PAUHWND__@@@std@@@2@$00@std@@QAEAAU?$_Wrap_alloc@V?$allocator@U?$_List_node@PAUHWND__@@PAX@std@@@std@@@2@XZ ; std::_Compressed_pair<std::_Wrap_alloc<std::allocator<std::_List_node<HWND__ *,void *> > >,std::_List_val<std::_List_simple_types<HWND__ *> >,1>::_Get_first
PUBLIC	?_Get_first@?$_Compressed_pair@U?$_Wrap_alloc@V?$allocator@U?$_List_node@PAUHWND__@@PAX@std@@@std@@@std@@V?$_List_val@U?$_List_simple_types@PAUHWND__@@@std@@@2@$00@std@@QBEABU?$_Wrap_alloc@V?$allocator@U?$_List_node@PAUHWND__@@PAX@std@@@std@@@2@XZ ; std::_Compressed_pair<std::_Wrap_alloc<std::allocator<std::_List_node<HWND__ *,void *> > >,std::_List_val<std::_List_simple_types<HWND__ *> >,1>::_Get_first
PUBLIC	?_Get_second@?$_Compressed_pair@U?$_Wrap_alloc@V?$allocator@U?$_List_node@PAUHWND__@@PAX@std@@@std@@@std@@V?$_List_val@U?$_List_simple_types@PAUHWND__@@@std@@@2@$00@std@@QAEAAV?$_List_val@U?$_List_simple_types@PAUHWND__@@@std@@@2@XZ ; std::_Compressed_pair<std::_Wrap_alloc<std::allocator<std::_List_node<HWND__ *,void *> > >,std::_List_val<std::_List_simple_types<HWND__ *> >,1>::_Get_second
PUBLIC	?_Get_second@?$_Compressed_pair@U?$_Wrap_alloc@V?$allocator@U?$_List_node@PAUHWND__@@PAX@std@@@std@@@std@@V?$_List_val@U?$_List_simple_types@PAUHWND__@@@std@@@2@$00@std@@QBEABV?$_List_val@U?$_List_simple_types@PAUHWND__@@@std@@@2@XZ ; std::_Compressed_pair<std::_Wrap_alloc<std::allocator<std::_List_node<HWND__ *,void *> > >,std::_List_val<std::_List_simple_types<HWND__ *> >,1>::_Get_second
PUBLIC	?_Freenode@?$_List_buy@PAUHWND__@@V?$allocator@PAUHWND__@@@std@@@std@@QAEXPAU?$_List_node@PAUHWND__@@PAX@2@@Z ; std::_List_buy<HWND__ *,std::allocator<HWND__ *> >::_Freenode
PUBLIC	??1?$_List_buy@PAUHWND__@@V?$allocator@PAUHWND__@@@std@@@std@@QAE@XZ ; std::_List_buy<HWND__ *,std::allocator<HWND__ *> >::~_List_buy<HWND__ *,std::allocator<HWND__ *> >
PUBLIC	??0?$list@PAUHWND__@@V?$allocator@PAUHWND__@@@std@@@std@@QAE@ABV?$allocator@PAUHWND__@@@1@@Z ; std::list<HWND__ *,std::allocator<HWND__ *> >::list<HWND__ *,std::allocator<HWND__ *> >
PUBLIC	??1?$list@PAUHWND__@@V?$allocator@PAUHWND__@@@std@@@std@@QAE@XZ ; std::list<HWND__ *,std::allocator<HWND__ *> >::~list<HWND__ *,std::allocator<HWND__ *> >
PUBLIC	?begin@?$list@PAUHWND__@@V?$allocator@PAUHWND__@@@std@@@std@@QAE?AV?$_List_iterator@V?$_List_val@U?$_List_simple_types@PAUHWND__@@@std@@@std@@@2@XZ ; std::list<HWND__ *,std::allocator<HWND__ *> >::begin
PUBLIC	?end@?$list@PAUHWND__@@V?$allocator@PAUHWND__@@@std@@@std@@QAE?AV?$_List_iterator@V?$_List_val@U?$_List_simple_types@PAUHWND__@@@std@@@std@@@2@XZ ; std::list<HWND__ *,std::allocator<HWND__ *> >::end
PUBLIC	?end@?$list@PAUHWND__@@V?$allocator@PAUHWND__@@@std@@@std@@QBE?AV?$_List_const_iterator@V?$_List_val@U?$_List_simple_types@PAUHWND__@@@std@@@std@@@2@XZ ; std::list<HWND__ *,std::allocator<HWND__ *> >::end
PUBLIC	?_Unchecked_begin@?$list@PAUHWND__@@V?$allocator@PAUHWND__@@@std@@@std@@QAE?AV?$_List_unchecked_iterator@V?$_List_val@U?$_List_simple_types@PAUHWND__@@@std@@@std@@@2@XZ ; std::list<HWND__ *,std::allocator<HWND__ *> >::_Unchecked_begin
PUBLIC	?_Unchecked_end@?$list@PAUHWND__@@V?$allocator@PAUHWND__@@@std@@@std@@QAE?AV?$_List_unchecked_iterator@V?$_List_val@U?$_List_simple_types@PAUHWND__@@@std@@@std@@@2@XZ ; std::list<HWND__ *,std::allocator<HWND__ *> >::_Unchecked_end
PUBLIC	?_Unchecked_end@?$list@PAUHWND__@@V?$allocator@PAUHWND__@@@std@@@std@@QBE?AV?$_List_unchecked_const_iterator@V?$_List_val@U?$_List_simple_types@PAUHWND__@@@std@@@std@@U_Iterator_base0@2@@2@XZ ; std::list<HWND__ *,std::allocator<HWND__ *> >::_Unchecked_end
PUBLIC	?_Make_iter@?$list@PAUHWND__@@V?$allocator@PAUHWND__@@@std@@@std@@QBE?AV?$_List_iterator@V?$_List_val@U?$_List_simple_types@PAUHWND__@@@std@@@std@@@2@V?$_List_const_iterator@V?$_List_val@U?$_List_simple_types@PAUHWND__@@@std@@@std@@@2@@Z ; std::list<HWND__ *,std::allocator<HWND__ *> >::_Make_iter
PUBLIC	?_Make_iter@?$list@PAUHWND__@@V?$allocator@PAUHWND__@@@std@@@std@@QBE?AV?$_List_iterator@V?$_List_val@U?$_List_simple_types@PAUHWND__@@@std@@@std@@@2@V?$_List_unchecked_const_iterator@V?$_List_val@U?$_List_simple_types@PAUHWND__@@@std@@@std@@U_Iterator_base0@2@@2@@Z ; std::list<HWND__ *,std::allocator<HWND__ *> >::_Make_iter
PUBLIC	?size@?$list@PAUHWND__@@V?$allocator@PAUHWND__@@@std@@@std@@QBEIXZ ; std::list<HWND__ *,std::allocator<HWND__ *> >::size
PUBLIC	?max_size@?$list@PAUHWND__@@V?$allocator@PAUHWND__@@@std@@@std@@QBEIXZ ; std::list<HWND__ *,std::allocator<HWND__ *> >::max_size
PUBLIC	?front@?$list@PAUHWND__@@V?$allocator@PAUHWND__@@@std@@@std@@QAEAAPAUHWND__@@XZ ; std::list<HWND__ *,std::allocator<HWND__ *> >::front
PUBLIC	?_Unlinknode@?$list@PAUHWND__@@V?$allocator@PAUHWND__@@@std@@@std@@QAEPAU?$_List_node@PAUHWND__@@PAX@2@V?$_List_const_iterator@V?$_List_val@U?$_List_simple_types@PAUHWND__@@@std@@@std@@@2@@Z ; std::list<HWND__ *,std::allocator<HWND__ *> >::_Unlinknode
PUBLIC	?erase@?$list@PAUHWND__@@V?$allocator@PAUHWND__@@@std@@@std@@QAE?AV?$_List_iterator@V?$_List_val@U?$_List_simple_types@PAUHWND__@@@std@@@std@@@2@V?$_List_const_iterator@V?$_List_val@U?$_List_simple_types@PAUHWND__@@@std@@@std@@@2@@Z ; std::list<HWND__ *,std::allocator<HWND__ *> >::erase
PUBLIC	?clear@?$list@PAUHWND__@@V?$allocator@PAUHWND__@@@std@@@std@@QAEXXZ ; std::list<HWND__ *,std::allocator<HWND__ *> >::clear
PUBLIC	?_Unchecked_splice@?$list@PAUHWND__@@V?$allocator@PAUHWND__@@@std@@@std@@QAEXV?$_List_unchecked_const_iterator@V?$_List_val@U?$_List_simple_types@PAUHWND__@@@std@@@std@@U_Iterator_base0@2@@2@00@Z ; std::list<HWND__ *,std::allocator<HWND__ *> >::_Unchecked_splice
PUBLIC	?_Tidy@?$list@PAUHWND__@@V?$allocator@PAUHWND__@@@std@@@std@@QAEXXZ ; std::list<HWND__ *,std::allocator<HWND__ *> >::_Tidy
PUBLIC	?_Incsize@?$list@PAUHWND__@@V?$allocator@PAUHWND__@@@std@@@std@@QAEXI@Z ; std::list<HWND__ *,std::allocator<HWND__ *> >::_Incsize
PUBLIC	??0?$_Hash@V?$_Uset_traits@PAUHWND__@@V?$_Uhash_compare@PAUHWND__@@U?$hash@PAUHWND__@@@std@@U?$equal_to@PAUHWND__@@@3@@std@@V?$allocator@PAUHWND__@@@3@$0A@@std@@@std@@QAE@ABV?$_Uhash_compare@PAUHWND__@@U?$hash@PAUHWND__@@@std@@U?$equal_to@PAUHWND__@@@3@@1@ABV?$allocator@PAUHWND__@@@1@@Z ; std::_Hash<std::_Uset_traits<HWND__ *,std::_Uhash_compare<HWND__ *,std::hash<HWND__ *>,std::equal_to<HWND__ *> >,std::allocator<HWND__ *>,0> >::_Hash<std::_Uset_traits<HWND__ *,std::_Uhash_compare<HWND__ *,std::hash<HWND__ *>,std::equal_to<HWND__ *> >,std::allocator<HWND__ *>,0> >
PUBLIC	??1?$_Hash@V?$_Uset_traits@PAUHWND__@@V?$_Uhash_compare@PAUHWND__@@U?$hash@PAUHWND__@@@std@@U?$equal_to@PAUHWND__@@@3@@std@@V?$allocator@PAUHWND__@@@3@$0A@@std@@@std@@QAE@XZ ; std::_Hash<std::_Uset_traits<HWND__ *,std::_Uhash_compare<HWND__ *,std::hash<HWND__ *>,std::equal_to<HWND__ *> >,std::allocator<HWND__ *>,0> >::~_Hash<std::_Uset_traits<HWND__ *,std::_Uhash_compare<HWND__ *,std::hash<HWND__ *>,std::equal_to<HWND__ *> >,std::allocator<HWND__ *>,0> >
PUBLIC	?begin@?$_Hash@V?$_Uset_traits@PAUHWND__@@V?$_Uhash_compare@PAUHWND__@@U?$hash@PAUHWND__@@@std@@U?$equal_to@PAUHWND__@@@3@@std@@V?$allocator@PAUHWND__@@@3@$0A@@std@@@std@@QAE?AV?$_List_const_iterator@V?$_List_val@U?$_List_simple_types@PAUHWND__@@@std@@@std@@@2@XZ ; std::_Hash<std::_Uset_traits<HWND__ *,std::_Uhash_compare<HWND__ *,std::hash<HWND__ *>,std::equal_to<HWND__ *> >,std::allocator<HWND__ *>,0> >::begin
PUBLIC	?end@?$_Hash@V?$_Uset_traits@PAUHWND__@@V?$_Uhash_compare@PAUHWND__@@U?$hash@PAUHWND__@@@std@@U?$equal_to@PAUHWND__@@@3@@std@@V?$allocator@PAUHWND__@@@3@$0A@@std@@@std@@QAE?AV?$_List_const_iterator@V?$_List_val@U?$_List_simple_types@PAUHWND__@@@std@@@std@@@2@XZ ; std::_Hash<std::_Uset_traits<HWND__ *,std::_Uhash_compare<HWND__ *,std::hash<HWND__ *>,std::equal_to<HWND__ *> >,std::allocator<HWND__ *>,0> >::end
PUBLIC	?end@?$_Hash@V?$_Uset_traits@PAUHWND__@@V?$_Uhash_compare@PAUHWND__@@U?$hash@PAUHWND__@@@std@@U?$equal_to@PAUHWND__@@@3@@std@@V?$allocator@PAUHWND__@@@3@$0A@@std@@@std@@QBE?AV?$_List_const_iterator@V?$_List_val@U?$_List_simple_types@PAUHWND__@@@std@@@std@@@2@XZ ; std::_Hash<std::_Uset_traits<HWND__ *,std::_Uhash_compare<HWND__ *,std::hash<HWND__ *>,std::equal_to<HWND__ *> >,std::allocator<HWND__ *>,0> >::end
PUBLIC	?_Unchecked_begin@?$_Hash@V?$_Uset_traits@PAUHWND__@@V?$_Uhash_compare@PAUHWND__@@U?$hash@PAUHWND__@@@std@@U?$equal_to@PAUHWND__@@@3@@std@@V?$allocator@PAUHWND__@@@3@$0A@@std@@@std@@QAE?AV?$_List_unchecked_const_iterator@V?$_List_val@U?$_List_simple_types@PAUHWND__@@@std@@@std@@U_Iterator_base0@2@@2@XZ ; std::_Hash<std::_Uset_traits<HWND__ *,std::_Uhash_compare<HWND__ *,std::hash<HWND__ *>,std::equal_to<HWND__ *> >,std::allocator<HWND__ *>,0> >::_Unchecked_begin
PUBLIC	?_Unchecked_end@?$_Hash@V?$_Uset_traits@PAUHWND__@@V?$_Uhash_compare@PAUHWND__@@U?$hash@PAUHWND__@@@std@@U?$equal_to@PAUHWND__@@@3@@std@@V?$allocator@PAUHWND__@@@3@$0A@@std@@@std@@QAE?AV?$_List_unchecked_const_iterator@V?$_List_val@U?$_List_simple_types@PAUHWND__@@@std@@@std@@U_Iterator_base0@2@@2@XZ ; std::_Hash<std::_Uset_traits<HWND__ *,std::_Uhash_compare<HWND__ *,std::hash<HWND__ *>,std::equal_to<HWND__ *> >,std::allocator<HWND__ *>,0> >::_Unchecked_end
PUBLIC	?_Unchecked_end@?$_Hash@V?$_Uset_traits@PAUHWND__@@V?$_Uhash_compare@PAUHWND__@@U?$hash@PAUHWND__@@@std@@U?$equal_to@PAUHWND__@@@3@@std@@V?$allocator@PAUHWND__@@@3@$0A@@std@@@std@@QBE?AV?$_List_unchecked_const_iterator@V?$_List_val@U?$_List_simple_types@PAUHWND__@@@std@@@std@@U_Iterator_base0@2@@2@XZ ; std::_Hash<std::_Uset_traits<HWND__ *,std::_Uhash_compare<HWND__ *,std::hash<HWND__ *>,std::equal_to<HWND__ *> >,std::allocator<HWND__ *>,0> >::_Unchecked_end
PUBLIC	?_Make_iter@?$_Hash@V?$_Uset_traits@PAUHWND__@@V?$_Uhash_compare@PAUHWND__@@U?$hash@PAUHWND__@@@std@@U?$equal_to@PAUHWND__@@@3@@std@@V?$allocator@PAUHWND__@@@3@$0A@@std@@@std@@QBE?AV?$_List_const_iterator@V?$_List_val@U?$_List_simple_types@PAUHWND__@@@std@@@std@@@2@V?$_List_unchecked_const_iterator@V?$_List_val@U?$_List_simple_types@PAUHWND__@@@std@@@std@@U_Iterator_base0@2@@2@@Z ; std::_Hash<std::_Uset_traits<HWND__ *,std::_Uhash_compare<HWND__ *,std::hash<HWND__ *>,std::equal_to<HWND__ *> >,std::allocator<HWND__ *>,0> >::_Make_iter
PUBLIC	?_Make_iter@?$_Hash@V?$_Uset_traits@PAUHWND__@@V?$_Uhash_compare@PAUHWND__@@U?$hash@PAUHWND__@@@std@@U?$equal_to@PAUHWND__@@@3@@std@@V?$allocator@PAUHWND__@@@3@$0A@@std@@@std@@QBE?AV?$_List_const_iterator@V?$_List_val@U?$_List_simple_types@PAUHWND__@@@std@@@std@@@2@V32@@Z ; std::_Hash<std::_Uset_traits<HWND__ *,std::_Uhash_compare<HWND__ *,std::hash<HWND__ *>,std::equal_to<HWND__ *> >,std::allocator<HWND__ *>,0> >::_Make_iter
PUBLIC	?size@?$_Hash@V?$_Uset_traits@PAUHWND__@@V?$_Uhash_compare@PAUHWND__@@U?$hash@PAUHWND__@@@std@@U?$equal_to@PAUHWND__@@@3@@std@@V?$allocator@PAUHWND__@@@3@$0A@@std@@@std@@QBEIXZ ; std::_Hash<std::_Uset_traits<HWND__ *,std::_Uhash_compare<HWND__ *,std::hash<HWND__ *>,std::equal_to<HWND__ *> >,std::allocator<HWND__ *>,0> >::size
PUBLIC	?bucket_count@?$_Hash@V?$_Uset_traits@PAUHWND__@@V?$_Uhash_compare@PAUHWND__@@U?$hash@PAUHWND__@@@std@@U?$equal_to@PAUHWND__@@@3@@std@@V?$allocator@PAUHWND__@@@3@$0A@@std@@@std@@QBEIXZ ; std::_Hash<std::_Uset_traits<HWND__ *,std::_Uhash_compare<HWND__ *,std::hash<HWND__ *>,std::equal_to<HWND__ *> >,std::allocator<HWND__ *>,0> >::bucket_count
PUBLIC	?load_factor@?$_Hash@V?$_Uset_traits@PAUHWND__@@V?$_Uhash_compare@PAUHWND__@@U?$hash@PAUHWND__@@@std@@U?$equal_to@PAUHWND__@@@3@@std@@V?$allocator@PAUHWND__@@@3@$0A@@std@@@std@@QBEMXZ ; std::_Hash<std::_Uset_traits<HWND__ *,std::_Uhash_compare<HWND__ *,std::hash<HWND__ *>,std::equal_to<HWND__ *> >,std::allocator<HWND__ *>,0> >::load_factor
PUBLIC	?max_load_factor@?$_Hash@V?$_Uset_traits@PAUHWND__@@V?$_Uhash_compare@PAUHWND__@@U?$hash@PAUHWND__@@@std@@U?$equal_to@PAUHWND__@@@3@@std@@V?$allocator@PAUHWND__@@@3@$0A@@std@@@std@@QBEMXZ ; std::_Hash<std::_Uset_traits<HWND__ *,std::_Uhash_compare<HWND__ *,std::hash<HWND__ *>,std::equal_to<HWND__ *> >,std::allocator<HWND__ *>,0> >::max_load_factor
PUBLIC	?erase@?$_Hash@V?$_Uset_traits@PAUHWND__@@V?$_Uhash_compare@PAUHWND__@@U?$hash@PAUHWND__@@@std@@U?$equal_to@PAUHWND__@@@3@@std@@V?$allocator@PAUHWND__@@@3@$0A@@std@@@std@@QAE?AV?$_List_const_iterator@V?$_List_val@U?$_List_simple_types@PAUHWND__@@@std@@@std@@@2@V32@@Z ; std::_Hash<std::_Uset_traits<HWND__ *,std::_Uhash_compare<HWND__ *,std::hash<HWND__ *>,std::equal_to<HWND__ *> >,std::allocator<HWND__ *>,0> >::erase
PUBLIC	?erase@?$_Hash@V?$_Uset_traits@PAUHWND__@@V?$_Uhash_compare@PAUHWND__@@U?$hash@PAUHWND__@@@std@@U?$equal_to@PAUHWND__@@@3@@std@@V?$allocator@PAUHWND__@@@3@$0A@@std@@@std@@QAE?AV?$_List_const_iterator@V?$_List_val@U?$_List_simple_types@PAUHWND__@@@std@@@std@@@2@V32@0@Z ; std::_Hash<std::_Uset_traits<HWND__ *,std::_Uhash_compare<HWND__ *,std::hash<HWND__ *>,std::equal_to<HWND__ *> >,std::allocator<HWND__ *>,0> >::erase
PUBLIC	?erase@?$_Hash@V?$_Uset_traits@PAUHWND__@@V?$_Uhash_compare@PAUHWND__@@U?$hash@PAUHWND__@@@std@@U?$equal_to@PAUHWND__@@@3@@std@@V?$allocator@PAUHWND__@@@3@$0A@@std@@@std@@QAEIABQAUHWND__@@@Z ; std::_Hash<std::_Uset_traits<HWND__ *,std::_Uhash_compare<HWND__ *,std::hash<HWND__ *>,std::equal_to<HWND__ *> >,std::allocator<HWND__ *>,0> >::erase
PUBLIC	?clear@?$_Hash@V?$_Uset_traits@PAUHWND__@@V?$_Uhash_compare@PAUHWND__@@U?$hash@PAUHWND__@@@std@@U?$equal_to@PAUHWND__@@@3@@std@@V?$allocator@PAUHWND__@@@3@$0A@@std@@@std@@QAEXXZ ; std::_Hash<std::_Uset_traits<HWND__ *,std::_Uhash_compare<HWND__ *,std::hash<HWND__ *>,std::equal_to<HWND__ *> >,std::allocator<HWND__ *>,0> >::clear
PUBLIC	?count@?$_Hash@V?$_Uset_traits@PAUHWND__@@V?$_Uhash_compare@PAUHWND__@@U?$hash@PAUHWND__@@@std@@U?$equal_to@PAUHWND__@@@3@@std@@V?$allocator@PAUHWND__@@@3@$0A@@std@@@std@@QBEIABQAUHWND__@@@Z ; std::_Hash<std::_Uset_traits<HWND__ *,std::_Uhash_compare<HWND__ *,std::hash<HWND__ *>,std::equal_to<HWND__ *> >,std::allocator<HWND__ *>,0> >::count
PUBLIC	?equal_range@?$_Hash@V?$_Uset_traits@PAUHWND__@@V?$_Uhash_compare@PAUHWND__@@U?$hash@PAUHWND__@@@std@@U?$equal_to@PAUHWND__@@@3@@std@@V?$allocator@PAUHWND__@@@3@$0A@@std@@@std@@QAE?AU?$pair@V?$_List_const_iterator@V?$_List_val@U?$_List_simple_types@PAUHWND__@@@std@@@std@@@std@@V12@@2@ABQAUHWND__@@@Z ; std::_Hash<std::_Uset_traits<HWND__ *,std::_Uhash_compare<HWND__ *,std::hash<HWND__ *>,std::equal_to<HWND__ *> >,std::allocator<HWND__ *>,0> >::equal_range
PUBLIC	?equal_range@?$_Hash@V?$_Uset_traits@PAUHWND__@@V?$_Uhash_compare@PAUHWND__@@U?$hash@PAUHWND__@@@std@@U?$equal_to@PAUHWND__@@@3@@std@@V?$allocator@PAUHWND__@@@3@$0A@@std@@@std@@QBE?AU?$pair@V?$_List_const_iterator@V?$_List_val@U?$_List_simple_types@PAUHWND__@@@std@@@std@@@std@@V12@@2@ABQAUHWND__@@@Z ; std::_Hash<std::_Uset_traits<HWND__ *,std::_Uhash_compare<HWND__ *,std::hash<HWND__ *>,std::equal_to<HWND__ *> >,std::allocator<HWND__ *>,0> >::equal_range
PUBLIC	?_Destroy_if_not_nil@?$_Hash@V?$_Uset_traits@PAUHWND__@@V?$_Uhash_compare@PAUHWND__@@U?$hash@PAUHWND__@@@std@@U?$equal_to@PAUHWND__@@@3@@std@@V?$allocator@PAUHWND__@@@3@$0A@@std@@@std@@IAEXV?$_List_unchecked_const_iterator@V?$_List_val@U?$_List_simple_types@PAUHWND__@@@std@@@std@@U_Iterator_base0@2@@2@@Z ; std::_Hash<std::_Uset_traits<HWND__ *,std::_Uhash_compare<HWND__ *,std::hash<HWND__ *>,std::equal_to<HWND__ *> >,std::allocator<HWND__ *>,0> >::_Destroy_if_not_nil
PUBLIC	?_Vec_lo@?$_Hash@V?$_Uset_traits@PAUHWND__@@V?$_Uhash_compare@PAUHWND__@@U?$hash@PAUHWND__@@@std@@U?$equal_to@PAUHWND__@@@3@@std@@V?$allocator@PAUHWND__@@@3@$0A@@std@@@std@@IAEAAV?$_List_unchecked_const_iterator@V?$_List_val@U?$_List_simple_types@PAUHWND__@@@std@@@std@@U_Iterator_base0@2@@2@I@Z ; std::_Hash<std::_Uset_traits<HWND__ *,std::_Uhash_compare<HWND__ *,std::hash<HWND__ *>,std::equal_to<HWND__ *> >,std::allocator<HWND__ *>,0> >::_Vec_lo
PUBLIC	?_Vec_lo@?$_Hash@V?$_Uset_traits@PAUHWND__@@V?$_Uhash_compare@PAUHWND__@@U?$hash@PAUHWND__@@@std@@U?$equal_to@PAUHWND__@@@3@@std@@V?$allocator@PAUHWND__@@@3@$0A@@std@@@std@@IBEAAV?$_List_unchecked_const_iterator@V?$_List_val@U?$_List_simple_types@PAUHWND__@@@std@@@std@@U_Iterator_base0@2@@2@I@Z ; std::_Hash<std::_Uset_traits<HWND__ *,std::_Uhash_compare<HWND__ *,std::hash<HWND__ *>,std::equal_to<HWND__ *> >,std::allocator<HWND__ *>,0> >::_Vec_lo
PUBLIC	?_Vec_hi@?$_Hash@V?$_Uset_traits@PAUHWND__@@V?$_Uhash_compare@PAUHWND__@@U?$hash@PAUHWND__@@@std@@U?$equal_to@PAUHWND__@@@3@@std@@V?$allocator@PAUHWND__@@@3@$0A@@std@@@std@@IAEAAV?$_List_unchecked_const_iterator@V?$_List_val@U?$_List_simple_types@PAUHWND__@@@std@@@std@@U_Iterator_base0@2@@2@I@Z ; std::_Hash<std::_Uset_traits<HWND__ *,std::_Uhash_compare<HWND__ *,std::hash<HWND__ *>,std::equal_to<HWND__ *> >,std::allocator<HWND__ *>,0> >::_Vec_hi
PUBLIC	?_Vec_hi@?$_Hash@V?$_Uset_traits@PAUHWND__@@V?$_Uhash_compare@PAUHWND__@@U?$hash@PAUHWND__@@@std@@U?$equal_to@PAUHWND__@@@3@@std@@V?$allocator@PAUHWND__@@@3@$0A@@std@@@std@@IBEAAV?$_List_unchecked_const_iterator@V?$_List_val@U?$_List_simple_types@PAUHWND__@@@std@@@std@@U_Iterator_base0@2@@2@I@Z ; std::_Hash<std::_Uset_traits<HWND__ *,std::_Uhash_compare<HWND__ *,std::hash<HWND__ *>,std::equal_to<HWND__ *> >,std::allocator<HWND__ *>,0> >::_Vec_hi
PUBLIC	?_Begin@?$_Hash@V?$_Uset_traits@PAUHWND__@@V?$_Uhash_compare@PAUHWND__@@U?$hash@PAUHWND__@@@std@@U?$equal_to@PAUHWND__@@@3@@std@@V?$allocator@PAUHWND__@@@3@$0A@@std@@@std@@IAE?AV?$_List_unchecked_const_iterator@V?$_List_val@U?$_List_simple_types@PAUHWND__@@@std@@@std@@U_Iterator_base0@2@@2@I@Z ; std::_Hash<std::_Uset_traits<HWND__ *,std::_Uhash_compare<HWND__ *,std::hash<HWND__ *>,std::equal_to<HWND__ *> >,std::allocator<HWND__ *>,0> >::_Begin
PUBLIC	?_Begin@?$_Hash@V?$_Uset_traits@PAUHWND__@@V?$_Uhash_compare@PAUHWND__@@U?$hash@PAUHWND__@@@std@@U?$equal_to@PAUHWND__@@@3@@std@@V?$allocator@PAUHWND__@@@3@$0A@@std@@@std@@IBE?AV?$_List_unchecked_const_iterator@V?$_List_val@U?$_List_simple_types@PAUHWND__@@@std@@@std@@U_Iterator_base0@2@@2@I@Z ; std::_Hash<std::_Uset_traits<HWND__ *,std::_Uhash_compare<HWND__ *,std::hash<HWND__ *>,std::equal_to<HWND__ *> >,std::allocator<HWND__ *>,0> >::_Begin
PUBLIC	?_End@?$_Hash@V?$_Uset_traits@PAUHWND__@@V?$_Uhash_compare@PAUHWND__@@U?$hash@PAUHWND__@@@std@@U?$equal_to@PAUHWND__@@@3@@std@@V?$allocator@PAUHWND__@@@3@$0A@@std@@@std@@IAE?AV?$_List_unchecked_const_iterator@V?$_List_val@U?$_List_simple_types@PAUHWND__@@@std@@@std@@U_Iterator_base0@2@@2@I@Z ; std::_Hash<std::_Uset_traits<HWND__ *,std::_Uhash_compare<HWND__ *,std::hash<HWND__ *>,std::equal_to<HWND__ *> >,std::allocator<HWND__ *>,0> >::_End
PUBLIC	?_End@?$_Hash@V?$_Uset_traits@PAUHWND__@@V?$_Uhash_compare@PAUHWND__@@U?$hash@PAUHWND__@@@std@@U?$equal_to@PAUHWND__@@@3@@std@@V?$allocator@PAUHWND__@@@3@$0A@@std@@@std@@IBE?AV?$_List_unchecked_const_iterator@V?$_List_val@U?$_List_simple_types@PAUHWND__@@@std@@@std@@U_Iterator_base0@2@@2@I@Z ; std::_Hash<std::_Uset_traits<HWND__ *,std::_Uhash_compare<HWND__ *,std::hash<HWND__ *>,std::equal_to<HWND__ *> >,std::allocator<HWND__ *>,0> >::_End
PUBLIC	?_Erase_bucket@?$_Hash@V?$_Uset_traits@PAUHWND__@@V?$_Uhash_compare@PAUHWND__@@U?$hash@PAUHWND__@@@std@@U?$equal_to@PAUHWND__@@@3@@std@@V?$allocator@PAUHWND__@@@3@$0A@@std@@@std@@IAEXV?$_List_const_iterator@V?$_List_val@U?$_List_simple_types@PAUHWND__@@@std@@@std@@@2@I@Z ; std::_Hash<std::_Uset_traits<HWND__ *,std::_Uhash_compare<HWND__ *,std::hash<HWND__ *>,std::equal_to<HWND__ *> >,std::allocator<HWND__ *>,0> >::_Erase_bucket
PUBLIC	?_Insert_bucket@?$_Hash@V?$_Uset_traits@PAUHWND__@@V?$_Uhash_compare@PAUHWND__@@U?$hash@PAUHWND__@@@std@@U?$equal_to@PAUHWND__@@@3@@std@@V?$allocator@PAUHWND__@@@3@$0A@@std@@@std@@IAEXV?$_List_unchecked_const_iterator@V?$_List_val@U?$_List_simple_types@PAUHWND__@@@std@@@std@@U_Iterator_base0@2@@2@0I@Z ; std::_Hash<std::_Uset_traits<HWND__ *,std::_Uhash_compare<HWND__ *,std::hash<HWND__ *>,std::equal_to<HWND__ *> >,std::allocator<HWND__ *>,0> >::_Insert_bucket
PUBLIC	?_Hashval@?$_Hash@V?$_Uset_traits@PAUHWND__@@V?$_Uhash_compare@PAUHWND__@@U?$hash@PAUHWND__@@@std@@U?$equal_to@PAUHWND__@@@3@@std@@V?$allocator@PAUHWND__@@@3@$0A@@std@@@std@@IBEIABQAUHWND__@@@Z ; std::_Hash<std::_Uset_traits<HWND__ *,std::_Uhash_compare<HWND__ *,std::hash<HWND__ *>,std::equal_to<HWND__ *> >,std::allocator<HWND__ *>,0> >::_Hashval
PUBLIC	?_Init@?$_Hash@V?$_Uset_traits@PAUHWND__@@V?$_Uhash_compare@PAUHWND__@@U?$hash@PAUHWND__@@@std@@U?$equal_to@PAUHWND__@@@3@@std@@V?$allocator@PAUHWND__@@@3@$0A@@std@@@std@@IAEXI@Z ; std::_Hash<std::_Uset_traits<HWND__ *,std::_Uhash_compare<HWND__ *,std::hash<HWND__ *>,std::equal_to<HWND__ *> >,std::allocator<HWND__ *>,0> >::_Init
PUBLIC	?_Check_size@?$_Hash@V?$_Uset_traits@PAUHWND__@@V?$_Uhash_compare@PAUHWND__@@U?$hash@PAUHWND__@@@std@@U?$equal_to@PAUHWND__@@@3@@std@@V?$allocator@PAUHWND__@@@3@$0A@@std@@@std@@IAEXXZ ; std::_Hash<std::_Uset_traits<HWND__ *,std::_Uhash_compare<HWND__ *,std::hash<HWND__ *>,std::equal_to<HWND__ *> >,std::allocator<HWND__ *>,0> >::_Check_size
PUBLIC	?_Reinsert@?$_Hash@V?$_Uset_traits@PAUHWND__@@V?$_Uhash_compare@PAUHWND__@@U?$hash@PAUHWND__@@@std@@U?$equal_to@PAUHWND__@@@3@@std@@V?$allocator@PAUHWND__@@@3@$0A@@std@@@std@@IAEXXZ ; std::_Hash<std::_Uset_traits<HWND__ *,std::_Uhash_compare<HWND__ *,std::hash<HWND__ *>,std::equal_to<HWND__ *> >,std::allocator<HWND__ *>,0> >::_Reinsert
PUBLIC	?_Max_bucket_size@?$_Hash@V?$_Uset_traits@PAUHWND__@@V?$_Uhash_compare@PAUHWND__@@U?$hash@PAUHWND__@@@std@@U?$equal_to@PAUHWND__@@@3@@std@@V?$allocator@PAUHWND__@@@3@$0A@@std@@@std@@IAEAAMXZ ; std::_Hash<std::_Uset_traits<HWND__ *,std::_Uhash_compare<HWND__ *,std::hash<HWND__ *>,std::equal_to<HWND__ *> >,std::allocator<HWND__ *>,0> >::_Max_bucket_size
PUBLIC	?_Max_bucket_size@?$_Hash@V?$_Uset_traits@PAUHWND__@@V?$_Uhash_compare@PAUHWND__@@U?$hash@PAUHWND__@@@std@@U?$equal_to@PAUHWND__@@@3@@std@@V?$allocator@PAUHWND__@@@3@$0A@@std@@@std@@IBEABMXZ ; std::_Hash<std::_Uset_traits<HWND__ *,std::_Uhash_compare<HWND__ *,std::hash<HWND__ *>,std::equal_to<HWND__ *> >,std::allocator<HWND__ *>,0> >::_Max_bucket_size
PUBLIC	??0?$allocator@V?$_List_unchecked_const_iterator@V?$_List_val@U?$_List_simple_types@PAUHWND__@@@std@@@std@@U_Iterator_base0@2@@std@@@std@@QAE@ABV01@@Z ; std::allocator<std::_List_unchecked_const_iterator<std::_List_val<std::_List_simple_types<HWND__ *> >,std::_Iterator_base0> >::allocator<std::_List_unchecked_const_iterator<std::_List_val<std::_List_simple_types<HWND__ *> >,std::_Iterator_base0> >
PUBLIC	?deallocate@?$allocator@V?$_List_unchecked_const_iterator@V?$_List_val@U?$_List_simple_types@PAUHWND__@@@std@@@std@@U_Iterator_base0@2@@std@@@std@@QAEXPAV?$_List_unchecked_const_iterator@V?$_List_val@U?$_List_simple_types@PAUHWND__@@@std@@@std@@U_Iterator_base0@2@@2@I@Z ; std::allocator<std::_List_unchecked_const_iterator<std::_List_val<std::_List_simple_types<HWND__ *> >,std::_Iterator_base0> >::deallocate
PUBLIC	?allocate@?$allocator@V?$_List_unchecked_const_iterator@V?$_List_val@U?$_List_simple_types@PAUHWND__@@@std@@@std@@U_Iterator_base0@2@@std@@@std@@QAEPAV?$_List_unchecked_const_iterator@V?$_List_val@U?$_List_simple_types@PAUHWND__@@@std@@@std@@U_Iterator_base0@2@@2@I@Z ; std::allocator<std::_List_unchecked_const_iterator<std::_List_val<std::_List_simple_types<HWND__ *> >,std::_Iterator_base0> >::allocate
PUBLIC	?max_size@?$allocator@V?$_List_unchecked_const_iterator@V?$_List_val@U?$_List_simple_types@PAUHWND__@@@std@@@std@@U_Iterator_base0@2@@std@@@std@@QBEIXZ ; std::allocator<std::_List_unchecked_const_iterator<std::_List_val<std::_List_simple_types<HWND__ *> >,std::_Iterator_base0> >::max_size
PUBLIC	?max_size@?$allocator_traits@V?$allocator@V?$_List_unchecked_const_iterator@V?$_List_val@U?$_List_simple_types@PAUHWND__@@@std@@@std@@U_Iterator_base0@2@@std@@@std@@@std@@SAIABV?$allocator@V?$_List_unchecked_const_iterator@V?$_List_val@U?$_List_simple_types@PAUHWND__@@@std@@@std@@U_Iterator_base0@2@@std@@@2@@Z ; std::allocator_traits<std::allocator<std::_List_unchecked_const_iterator<std::_List_val<std::_List_simple_types<HWND__ *> >,std::_Iterator_base0> > >::max_size
PUBLIC	??0?$_Wrap_alloc@V?$allocator@V?$_List_unchecked_const_iterator@V?$_List_val@U?$_List_simple_types@PAUHWND__@@@std@@@std@@U_Iterator_base0@2@@std@@@std@@@std@@QAE@ABU01@@Z ; std::_Wrap_alloc<std::allocator<std::_List_unchecked_const_iterator<std::_List_val<std::_List_simple_types<HWND__ *> >,std::_Iterator_base0> > >::_Wrap_alloc<std::allocator<std::_List_unchecked_const_iterator<std::_List_val<std::_List_simple_types<HWND__ *> >,std::_Iterator_base0> > >
PUBLIC	?allocate@?$_Wrap_alloc@V?$allocator@V?$_List_unchecked_const_iterator@V?$_List_val@U?$_List_simple_types@PAUHWND__@@@std@@@std@@U_Iterator_base0@2@@std@@@std@@@std@@QAEPAV?$_List_unchecked_const_iterator@V?$_List_val@U?$_List_simple_types@PAUHWND__@@@std@@@std@@U_Iterator_base0@2@@2@I@Z ; std::_Wrap_alloc<std::allocator<std::_List_unchecked_const_iterator<std::_List_val<std::_List_simple_types<HWND__ *> >,std::_Iterator_base0> > >::allocate
PUBLIC	?deallocate@?$_Wrap_alloc@V?$allocator@V?$_List_unchecked_const_iterator@V?$_List_val@U?$_List_simple_types@PAUHWND__@@@std@@@std@@U_Iterator_base0@2@@std@@@std@@@std@@QAEXPAV?$_List_unchecked_const_iterator@V?$_List_val@U?$_List_simple_types@PAUHWND__@@@std@@@std@@U_Iterator_base0@2@@2@I@Z ; std::_Wrap_alloc<std::allocator<std::_List_unchecked_const_iterator<std::_List_val<std::_List_simple_types<HWND__ *> >,std::_Iterator_base0> > >::deallocate
PUBLIC	?max_size@?$_Wrap_alloc@V?$allocator@V?$_List_unchecked_const_iterator@V?$_List_val@U?$_List_simple_types@PAUHWND__@@@std@@@std@@U_Iterator_base0@2@@std@@@std@@@std@@QBEIU_Nil@2@@Z ; std::_Wrap_alloc<std::allocator<std::_List_unchecked_const_iterator<std::_List_val<std::_List_simple_types<HWND__ *> >,std::_Iterator_base0> > >::max_size
PUBLIC	?max_size@?$allocator_traits@U?$_Wrap_alloc@V?$allocator@V?$_List_unchecked_const_iterator@V?$_List_val@U?$_List_simple_types@PAUHWND__@@@std@@@std@@U_Iterator_base0@2@@std@@@std@@@std@@@std@@SAIABU?$_Wrap_alloc@V?$allocator@V?$_List_unchecked_const_iterator@V?$_List_val@U?$_List_simple_types@PAUHWND__@@@std@@@std@@U_Iterator_base0@2@@std@@@std@@@2@@Z ; std::allocator_traits<std::_Wrap_alloc<std::allocator<std::_List_unchecked_const_iterator<std::_List_val<std::_List_simple_types<HWND__ *> >,std::_Iterator_base0> > > >::max_size
PUBLIC	?allocate@?$_Wrap_alloc@U?$_Wrap_alloc@V?$allocator@V?$_List_unchecked_const_iterator@V?$_List_val@U?$_List_simple_types@PAUHWND__@@@std@@@std@@U_Iterator_base0@2@@std@@@std@@@std@@@std@@QAEPAV?$_List_unchecked_const_iterator@V?$_List_val@U?$_List_simple_types@PAUHWND__@@@std@@@std@@U_Iterator_base0@2@@2@I@Z ; std::_Wrap_alloc<std::_Wrap_alloc<std::allocator<std::_List_unchecked_const_iterator<std::_List_val<std::_List_simple_types<HWND__ *> >,std::_Iterator_base0> > > >::allocate
PUBLIC	?deallocate@?$_Wrap_alloc@U?$_Wrap_alloc@V?$allocator@V?$_List_unchecked_const_iterator@V?$_List_val@U?$_List_simple_types@PAUHWND__@@@std@@@std@@U_Iterator_base0@2@@std@@@std@@@std@@@std@@QAEXPAV?$_List_unchecked_const_iterator@V?$_List_val@U?$_List_simple_types@PAUHWND__@@@std@@@std@@U_Iterator_base0@2@@2@I@Z ; std::_Wrap_alloc<std::_Wrap_alloc<std::allocator<std::_List_unchecked_const_iterator<std::_List_val<std::_List_simple_types<HWND__ *> >,std::_Iterator_base0> > > >::deallocate
PUBLIC	?max_size@?$_Wrap_alloc@U?$_Wrap_alloc@V?$allocator@V?$_List_unchecked_const_iterator@V?$_List_val@U?$_List_simple_types@PAUHWND__@@@std@@@std@@U_Iterator_base0@2@@std@@@std@@@std@@@std@@QBEIU_Nil@2@@Z ; std::_Wrap_alloc<std::_Wrap_alloc<std::allocator<std::_List_unchecked_const_iterator<std::_List_val<std::_List_simple_types<HWND__ *> >,std::_Iterator_base0> > > >::max_size
PUBLIC	?_Orphan_all@?$_Vector_alloc@U?$_Vec_base_types@V?$_List_unchecked_const_iterator@V?$_List_val@U?$_List_simple_types@PAUHWND__@@@std@@@std@@U_Iterator_base0@2@@std@@U?$_Wrap_alloc@V?$allocator@V?$_List_unchecked_const_iterator@V?$_List_val@U?$_List_simple_types@PAUHWND__@@@std@@@std@@U_Iterator_base0@2@@std@@@std@@@2@@std@@@std@@QAEXXZ ; std::_Vector_alloc<std::_Vec_base_types<std::_List_unchecked_const_iterator<std::_List_val<std::_List_simple_types<HWND__ *> >,std::_Iterator_base0>,std::_Wrap_alloc<std::allocator<std::_List_unchecked_const_iterator<std::_List_val<std::_List_simple_types<HWND__ *> >,std::_Iterator_base0> > > > >::_Orphan_all
PUBLIC	?_Getal@?$_Vector_alloc@U?$_Vec_base_types@V?$_List_unchecked_const_iterator@V?$_List_val@U?$_List_simple_types@PAUHWND__@@@std@@@std@@U_Iterator_base0@2@@std@@U?$_Wrap_alloc@V?$allocator@V?$_List_unchecked_const_iterator@V?$_List_val@U?$_List_simple_types@PAUHWND__@@@std@@@std@@U_Iterator_base0@2@@std@@@std@@@2@@std@@@std@@QAEAAU?$_Wrap_alloc@U?$_Wrap_alloc@V?$allocator@V?$_List_unchecked_const_iterator@V?$_List_val@U?$_List_simple_types@PAUHWND__@@@std@@@std@@U_Iterator_base0@2@@std@@@std@@@std@@@2@XZ ; std::_Vector_alloc<std::_Vec_base_types<std::_List_unchecked_const_iterator<std::_List_val<std::_List_simple_types<HWND__ *> >,std::_Iterator_base0>,std::_Wrap_alloc<std::allocator<std::_List_unchecked_const_iterator<std::_List_val<std::_List_simple_types<HWND__ *> >,std::_Iterator_base0> > > > >::_Getal
PUBLIC	?_Getal@?$_Vector_alloc@U?$_Vec_base_types@V?$_List_unchecked_const_iterator@V?$_List_val@U?$_List_simple_types@PAUHWND__@@@std@@@std@@U_Iterator_base0@2@@std@@U?$_Wrap_alloc@V?$allocator@V?$_List_unchecked_const_iterator@V?$_List_val@U?$_List_simple_types@PAUHWND__@@@std@@@std@@U_Iterator_base0@2@@std@@@std@@@2@@std@@@std@@QBEABU?$_Wrap_alloc@U?$_Wrap_alloc@V?$allocator@V?$_List_unchecked_const_iterator@V?$_List_val@U?$_List_simple_types@PAUHWND__@@@std@@@std@@U_Iterator_base0@2@@std@@@std@@@std@@@2@XZ ; std::_Vector_alloc<std::_Vec_base_types<std::_List_unchecked_const_iterator<std::_List_val<std::_List_simple_types<HWND__ *> >,std::_Iterator_base0>,std::_Wrap_alloc<std::allocator<std::_List_unchecked_const_iterator<std::_List_val<std::_List_simple_types<HWND__ *> >,std::_Iterator_base0> > > > >::_Getal
PUBLIC	?_Get_data@?$_Vector_alloc@U?$_Vec_base_types@V?$_List_unchecked_const_iterator@V?$_List_val@U?$_List_simple_types@PAUHWND__@@@std@@@std@@U_Iterator_base0@2@@std@@U?$_Wrap_alloc@V?$allocator@V?$_List_unchecked_const_iterator@V?$_List_val@U?$_List_simple_types@PAUHWND__@@@std@@@std@@U_Iterator_base0@2@@std@@@std@@@2@@std@@@std@@QAEAAV?$_Vector_val@U?$_Simple_types@V?$_List_unchecked_const_iterator@V?$_List_val@U?$_List_simple_types@PAUHWND__@@@std@@@std@@U_Iterator_base0@2@@std@@@std@@@2@XZ ; std::_Vector_alloc<std::_Vec_base_types<std::_List_unchecked_const_iterator<std::_List_val<std::_List_simple_types<HWND__ *> >,std::_Iterator_base0>,std::_Wrap_alloc<std::allocator<std::_List_unchecked_const_iterator<std::_List_val<std::_List_simple_types<HWND__ *> >,std::_Iterator_base0> > > > >::_Get_data
PUBLIC	?_Get_data@?$_Vector_alloc@U?$_Vec_base_types@V?$_List_unchecked_const_iterator@V?$_List_val@U?$_List_simple_types@PAUHWND__@@@std@@@std@@U_Iterator_base0@2@@std@@U?$_Wrap_alloc@V?$allocator@V?$_List_unchecked_const_iterator@V?$_List_val@U?$_List_simple_types@PAUHWND__@@@std@@@std@@U_Iterator_base0@2@@std@@@std@@@2@@std@@@std@@QBEABV?$_Vector_val@U?$_Simple_types@V?$_List_unchecked_const_iterator@V?$_List_val@U?$_List_simple_types@PAUHWND__@@@std@@@std@@U_Iterator_base0@2@@std@@@std@@@2@XZ ; std::_Vector_alloc<std::_Vec_base_types<std::_List_unchecked_const_iterator<std::_List_val<std::_List_simple_types<HWND__ *> >,std::_Iterator_base0>,std::_Wrap_alloc<std::allocator<std::_List_unchecked_const_iterator<std::_List_val<std::_List_simple_types<HWND__ *> >,std::_Iterator_base0> > > > >::_Get_data
PUBLIC	?_Myfirst@?$_Vector_alloc@U?$_Vec_base_types@V?$_List_unchecked_const_iterator@V?$_List_val@U?$_List_simple_types@PAUHWND__@@@std@@@std@@U_Iterator_base0@2@@std@@U?$_Wrap_alloc@V?$allocator@V?$_List_unchecked_const_iterator@V?$_List_val@U?$_List_simple_types@PAUHWND__@@@std@@@std@@U_Iterator_base0@2@@std@@@std@@@2@@std@@@std@@QAEAAPAV?$_List_unchecked_const_iterator@V?$_List_val@U?$_List_simple_types@PAUHWND__@@@std@@@std@@U_Iterator_base0@2@@2@XZ ; std::_Vector_alloc<std::_Vec_base_types<std::_List_unchecked_const_iterator<std::_List_val<std::_List_simple_types<HWND__ *> >,std::_Iterator_base0>,std::_Wrap_alloc<std::allocator<std::_List_unchecked_const_iterator<std::_List_val<std::_List_simple_types<HWND__ *> >,std::_Iterator_base0> > > > >::_Myfirst
PUBLIC	?_Myfirst@?$_Vector_alloc@U?$_Vec_base_types@V?$_List_unchecked_const_iterator@V?$_List_val@U?$_List_simple_types@PAUHWND__@@@std@@@std@@U_Iterator_base0@2@@std@@U?$_Wrap_alloc@V?$allocator@V?$_List_unchecked_const_iterator@V?$_List_val@U?$_List_simple_types@PAUHWND__@@@std@@@std@@U_Iterator_base0@2@@std@@@std@@@2@@std@@@std@@QBEABQAV?$_List_unchecked_const_iterator@V?$_List_val@U?$_List_simple_types@PAUHWND__@@@std@@@std@@U_Iterator_base0@2@@2@XZ ; std::_Vector_alloc<std::_Vec_base_types<std::_List_unchecked_const_iterator<std::_List_val<std::_List_simple_types<HWND__ *> >,std::_Iterator_base0>,std::_Wrap_alloc<std::allocator<std::_List_unchecked_const_iterator<std::_List_val<std::_List_simple_types<HWND__ *> >,std::_Iterator_base0> > > > >::_Myfirst
PUBLIC	?_Mylast@?$_Vector_alloc@U?$_Vec_base_types@V?$_List_unchecked_const_iterator@V?$_List_val@U?$_List_simple_types@PAUHWND__@@@std@@@std@@U_Iterator_base0@2@@std@@U?$_Wrap_alloc@V?$allocator@V?$_List_unchecked_const_iterator@V?$_List_val@U?$_List_simple_types@PAUHWND__@@@std@@@std@@U_Iterator_base0@2@@std@@@std@@@2@@std@@@std@@QAEAAPAV?$_List_unchecked_const_iterator@V?$_List_val@U?$_List_simple_types@PAUHWND__@@@std@@@std@@U_Iterator_base0@2@@2@XZ ; std::_Vector_alloc<std::_Vec_base_types<std::_List_unchecked_const_iterator<std::_List_val<std::_List_simple_types<HWND__ *> >,std::_Iterator_base0>,std::_Wrap_alloc<std::allocator<std::_List_unchecked_const_iterator<std::_List_val<std::_List_simple_types<HWND__ *> >,std::_Iterator_base0> > > > >::_Mylast
PUBLIC	?_Mylast@?$_Vector_alloc@U?$_Vec_base_types@V?$_List_unchecked_const_iterator@V?$_List_val@U?$_List_simple_types@PAUHWND__@@@std@@@std@@U_Iterator_base0@2@@std@@U?$_Wrap_alloc@V?$allocator@V?$_List_unchecked_const_iterator@V?$_List_val@U?$_List_simple_types@PAUHWND__@@@std@@@std@@U_Iterator_base0@2@@std@@@std@@@2@@std@@@std@@QBEABQAV?$_List_unchecked_const_iterator@V?$_List_val@U?$_List_simple_types@PAUHWND__@@@std@@@std@@U_Iterator_base0@2@@2@XZ ; std::_Vector_alloc<std::_Vec_base_types<std::_List_unchecked_const_iterator<std::_List_val<std::_List_simple_types<HWND__ *> >,std::_Iterator_base0>,std::_Wrap_alloc<std::allocator<std::_List_unchecked_const_iterator<std::_List_val<std::_List_simple_types<HWND__ *> >,std::_Iterator_base0> > > > >::_Mylast
PUBLIC	?_Myend@?$_Vector_alloc@U?$_Vec_base_types@V?$_List_unchecked_const_iterator@V?$_List_val@U?$_List_simple_types@PAUHWND__@@@std@@@std@@U_Iterator_base0@2@@std@@U?$_Wrap_alloc@V?$allocator@V?$_List_unchecked_const_iterator@V?$_List_val@U?$_List_simple_types@PAUHWND__@@@std@@@std@@U_Iterator_base0@2@@std@@@std@@@2@@std@@@std@@QAEAAPAV?$_List_unchecked_const_iterator@V?$_List_val@U?$_List_simple_types@PAUHWND__@@@std@@@std@@U_Iterator_base0@2@@2@XZ ; std::_Vector_alloc<std::_Vec_base_types<std::_List_unchecked_const_iterator<std::_List_val<std::_List_simple_types<HWND__ *> >,std::_Iterator_base0>,std::_Wrap_alloc<std::allocator<std::_List_unchecked_const_iterator<std::_List_val<std::_List_simple_types<HWND__ *> >,std::_Iterator_base0> > > > >::_Myend
PUBLIC	?_Myend@?$_Vector_alloc@U?$_Vec_base_types@V?$_List_unchecked_const_iterator@V?$_List_val@U?$_List_simple_types@PAUHWND__@@@std@@@std@@U_Iterator_base0@2@@std@@U?$_Wrap_alloc@V?$allocator@V?$_List_unchecked_const_iterator@V?$_List_val@U?$_List_simple_types@PAUHWND__@@@std@@@std@@U_Iterator_base0@2@@std@@@std@@@2@@std@@@std@@QBEABQAV?$_List_unchecked_const_iterator@V?$_List_val@U?$_List_simple_types@PAUHWND__@@@std@@@std@@U_Iterator_base0@2@@2@XZ ; std::_Vector_alloc<std::_Vec_base_types<std::_List_unchecked_const_iterator<std::_List_val<std::_List_simple_types<HWND__ *> >,std::_Iterator_base0>,std::_Wrap_alloc<std::allocator<std::_List_unchecked_const_iterator<std::_List_val<std::_List_simple_types<HWND__ *> >,std::_Iterator_base0> > > > >::_Myend
PUBLIC	??0?$_Vector_val@U?$_Simple_types@V?$_List_unchecked_const_iterator@V?$_List_val@U?$_List_simple_types@PAUHWND__@@@std@@@std@@U_Iterator_base0@2@@std@@@std@@@std@@QAE@XZ ; std::_Vector_val<std::_Simple_types<std::_List_unchecked_const_iterator<std::_List_val<std::_List_simple_types<HWND__ *> >,std::_Iterator_base0> > >::_Vector_val<std::_Simple_types<std::_List_unchecked_const_iterator<std::_List_val<std::_List_simple_types<HWND__ *> >,std::_Iterator_base0> > >
PUBLIC	?_Get_first@?$_Compressed_pair@U?$_Wrap_alloc@U?$_Wrap_alloc@V?$allocator@V?$_List_unchecked_const_iterator@V?$_List_val@U?$_List_simple_types@PAUHWND__@@@std@@@std@@U_Iterator_base0@2@@std@@@std@@@std@@@std@@V?$_Vector_val@U?$_Simple_types@V?$_List_unchecked_const_iterator@V?$_List_val@U?$_List_simple_types@PAUHWND__@@@std@@@std@@U_Iterator_base0@2@@std@@@std@@@2@$00@std@@QAEAAU?$_Wrap_alloc@U?$_Wrap_alloc@V?$allocator@V?$_List_unchecked_const_iterator@V?$_List_val@U?$_List_simple_types@PAUHWND__@@@std@@@std@@U_Iterator_base0@2@@std@@@std@@@std@@@2@XZ ; std::_Compressed_pair<std::_Wrap_alloc<std::_Wrap_alloc<std::allocator<std::_List_unchecked_const_iterator<std::_List_val<std::_List_simple_types<HWND__ *> >,std::_Iterator_base0> > > >,std::_Vector_val<std::_Simple_types<std::_List_unchecked_const_iterator<std::_List_val<std::_List_simple_types<HWND__ *> >,std::_Iterator_base0> > >,1>::_Get_first
PUBLIC	?_Get_first@?$_Compressed_pair@U?$_Wrap_alloc@U?$_Wrap_alloc@V?$allocator@V?$_List_unchecked_const_iterator@V?$_List_val@U?$_List_simple_types@PAUHWND__@@@std@@@std@@U_Iterator_base0@2@@std@@@std@@@std@@@std@@V?$_Vector_val@U?$_Simple_types@V?$_List_unchecked_const_iterator@V?$_List_val@U?$_List_simple_types@PAUHWND__@@@std@@@std@@U_Iterator_base0@2@@std@@@std@@@2@$00@std@@QBEABU?$_Wrap_alloc@U?$_Wrap_alloc@V?$allocator@V?$_List_unchecked_const_iterator@V?$_List_val@U?$_List_simple_types@PAUHWND__@@@std@@@std@@U_Iterator_base0@2@@std@@@std@@@std@@@2@XZ ; std::_Compressed_pair<std::_Wrap_alloc<std::_Wrap_alloc<std::allocator<std::_List_unchecked_const_iterator<std::_List_val<std::_List_simple_types<HWND__ *> >,std::_Iterator_base0> > > >,std::_Vector_val<std::_Simple_types<std::_List_unchecked_const_iterator<std::_List_val<std::_List_simple_types<HWND__ *> >,std::_Iterator_base0> > >,1>::_Get_first
PUBLIC	?_Get_second@?$_Compressed_pair@U?$_Wrap_alloc@U?$_Wrap_alloc@V?$allocator@V?$_List_unchecked_const_iterator@V?$_List_val@U?$_List_simple_types@PAUHWND__@@@std@@@std@@U_Iterator_base0@2@@std@@@std@@@std@@@std@@V?$_Vector_val@U?$_Simple_types@V?$_List_unchecked_const_iterator@V?$_List_val@U?$_List_simple_types@PAUHWND__@@@std@@@std@@U_Iterator_base0@2@@std@@@std@@@2@$00@std@@QAEAAV?$_Vector_val@U?$_Simple_types@V?$_List_unchecked_const_iterator@V?$_List_val@U?$_List_simple_types@PAUHWND__@@@std@@@std@@U_Iterator_base0@2@@std@@@std@@@2@XZ ; std::_Compressed_pair<std::_Wrap_alloc<std::_Wrap_alloc<std::allocator<std::_List_unchecked_const_iterator<std::_List_val<std::_List_simple_types<HWND__ *> >,std::_Iterator_base0> > > >,std::_Vector_val<std::_Simple_types<std::_List_unchecked_const_iterator<std::_List_val<std::_List_simple_types<HWND__ *> >,std::_Iterator_base0> > >,1>::_Get_second
PUBLIC	?_Get_second@?$_Compressed_pair@U?$_Wrap_alloc@U?$_Wrap_alloc@V?$allocator@V?$_List_unchecked_const_iterator@V?$_List_val@U?$_List_simple_types@PAUHWND__@@@std@@@std@@U_Iterator_base0@2@@std@@@std@@@std@@@std@@V?$_Vector_val@U?$_Simple_types@V?$_List_unchecked_const_iterator@V?$_List_val@U?$_List_simple_types@PAUHWND__@@@std@@@std@@U_Iterator_base0@2@@std@@@std@@@2@$00@std@@QBEABV?$_Vector_val@U?$_Simple_types@V?$_List_unchecked_const_iterator@V?$_List_val@U?$_List_simple_types@PAUHWND__@@@std@@@std@@U_Iterator_base0@2@@std@@@std@@@2@XZ ; std::_Compressed_pair<std::_Wrap_alloc<std::_Wrap_alloc<std::allocator<std::_List_unchecked_const_iterator<std::_List_val<std::_List_simple_types<HWND__ *> >,std::_Iterator_base0> > > >,std::_Vector_val<std::_Simple_types<std::_List_unchecked_const_iterator<std::_List_val<std::_List_simple_types<HWND__ *> >,std::_Iterator_base0> > >,1>::_Get_second
PUBLIC	??0?$vector@V?$_List_unchecked_const_iterator@V?$_List_val@U?$_List_simple_types@PAUHWND__@@@std@@@std@@U_Iterator_base0@2@@std@@U?$_Wrap_alloc@V?$allocator@V?$_List_unchecked_const_iterator@V?$_List_val@U?$_List_simple_types@PAUHWND__@@@std@@@std@@U_Iterator_base0@2@@std@@@std@@@2@@std@@QAE@ABU?$_Wrap_alloc@V?$allocator@V?$_List_unchecked_const_iterator@V?$_List_val@U?$_List_simple_types@PAUHWND__@@@std@@@std@@U_Iterator_base0@2@@std@@@std@@@1@@Z ; std::vector<std::_List_unchecked_const_iterator<std::_List_val<std::_List_simple_types<HWND__ *> >,std::_Iterator_base0>,std::_Wrap_alloc<std::allocator<std::_List_unchecked_const_iterator<std::_List_val<std::_List_simple_types<HWND__ *> >,std::_Iterator_base0> > > >::vector<std::_List_unchecked_const_iterator<std::_List_val<std::_List_simple_types<HWND__ *> >,std::_Iterator_base0>,std::_Wrap_alloc<std::allocator<std::_List_unchecked_const_iterator<std::_List_val<std::_List_simple_types<HWND__ *> >,std::_Iterator_base0> > > >
PUBLIC	??1?$vector@V?$_List_unchecked_const_iterator@V?$_List_val@U?$_List_simple_types@PAUHWND__@@@std@@@std@@U_Iterator_base0@2@@std@@U?$_Wrap_alloc@V?$allocator@V?$_List_unchecked_const_iterator@V?$_List_val@U?$_List_simple_types@PAUHWND__@@@std@@@std@@U_Iterator_base0@2@@std@@@std@@@2@@std@@QAE@XZ ; std::vector<std::_List_unchecked_const_iterator<std::_List_val<std::_List_simple_types<HWND__ *> >,std::_Iterator_base0>,std::_Wrap_alloc<std::allocator<std::_List_unchecked_const_iterator<std::_List_val<std::_List_simple_types<HWND__ *> >,std::_Iterator_base0> > > >::~vector<std::_List_unchecked_const_iterator<std::_List_val<std::_List_simple_types<HWND__ *> >,std::_Iterator_base0>,std::_Wrap_alloc<std::allocator<std::_List_unchecked_const_iterator<std::_List_val<std::_List_simple_types<HWND__ *> >,std::_Iterator_base0> > > >
PUBLIC	?assign@?$vector@V?$_List_unchecked_const_iterator@V?$_List_val@U?$_List_simple_types@PAUHWND__@@@std@@@std@@U_Iterator_base0@2@@std@@U?$_Wrap_alloc@V?$allocator@V?$_List_unchecked_const_iterator@V?$_List_val@U?$_List_simple_types@PAUHWND__@@@std@@@std@@U_Iterator_base0@2@@std@@@std@@@2@@std@@QAEXIABV?$_List_unchecked_const_iterator@V?$_List_val@U?$_List_simple_types@PAUHWND__@@@std@@@std@@U_Iterator_base0@2@@2@@Z ; std::vector<std::_List_unchecked_const_iterator<std::_List_val<std::_List_simple_types<HWND__ *> >,std::_Iterator_base0>,std::_Wrap_alloc<std::allocator<std::_List_unchecked_const_iterator<std::_List_val<std::_List_simple_types<HWND__ *> >,std::_Iterator_base0> > > >::assign
PUBLIC	?_Reallocate_exactly@?$vector@V?$_List_unchecked_const_iterator@V?$_List_val@U?$_List_simple_types@PAUHWND__@@@std@@@std@@U_Iterator_base0@2@@std@@U?$_Wrap_alloc@V?$allocator@V?$_List_unchecked_const_iterator@V?$_List_val@U?$_List_simple_types@PAUHWND__@@@std@@@std@@U_Iterator_base0@2@@std@@@std@@@2@@std@@AAEXI@Z ; std::vector<std::_List_unchecked_const_iterator<std::_List_val<std::_List_simple_types<HWND__ *> >,std::_Iterator_base0>,std::_Wrap_alloc<std::allocator<std::_List_unchecked_const_iterator<std::_List_val<std::_List_simple_types<HWND__ *> >,std::_Iterator_base0> > > >::_Reallocate_exactly
PUBLIC	?reserve@?$vector@V?$_List_unchecked_const_iterator@V?$_List_val@U?$_List_simple_types@PAUHWND__@@@std@@@std@@U_Iterator_base0@2@@std@@U?$_Wrap_alloc@V?$allocator@V?$_List_unchecked_const_iterator@V?$_List_val@U?$_List_simple_types@PAUHWND__@@@std@@@std@@U_Iterator_base0@2@@std@@@std@@@2@@std@@QAEXI@Z ; std::vector<std::_List_unchecked_const_iterator<std::_List_val<std::_List_simple_types<HWND__ *> >,std::_Iterator_base0>,std::_Wrap_alloc<std::allocator<std::_List_unchecked_const_iterator<std::_List_val<std::_List_simple_types<HWND__ *> >,std::_Iterator_base0> > > >::reserve
PUBLIC	?size@?$vector@V?$_List_unchecked_const_iterator@V?$_List_val@U?$_List_simple_types@PAUHWND__@@@std@@@std@@U_Iterator_base0@2@@std@@U?$_Wrap_alloc@V?$allocator@V?$_List_unchecked_const_iterator@V?$_List_val@U?$_List_simple_types@PAUHWND__@@@std@@@std@@U_Iterator_base0@2@@std@@@std@@@2@@std@@QBEIXZ ; std::vector<std::_List_unchecked_const_iterator<std::_List_val<std::_List_simple_types<HWND__ *> >,std::_Iterator_base0>,std::_Wrap_alloc<std::allocator<std::_List_unchecked_const_iterator<std::_List_val<std::_List_simple_types<HWND__ *> >,std::_Iterator_base0> > > >::size
PUBLIC	?max_size@?$vector@V?$_List_unchecked_const_iterator@V?$_List_val@U?$_List_simple_types@PAUHWND__@@@std@@@std@@U_Iterator_base0@2@@std@@U?$_Wrap_alloc@V?$allocator@V?$_List_unchecked_const_iterator@V?$_List_val@U?$_List_simple_types@PAUHWND__@@@std@@@std@@U_Iterator_base0@2@@std@@@std@@@2@@std@@QBEIXZ ; std::vector<std::_List_unchecked_const_iterator<std::_List_val<std::_List_simple_types<HWND__ *> >,std::_Iterator_base0>,std::_Wrap_alloc<std::allocator<std::_List_unchecked_const_iterator<std::_List_val<std::_List_simple_types<HWND__ *> >,std::_Iterator_base0> > > >::max_size
PUBLIC	?capacity@?$vector@V?$_List_unchecked_const_iterator@V?$_List_val@U?$_List_simple_types@PAUHWND__@@@std@@@std@@U_Iterator_base0@2@@std@@U?$_Wrap_alloc@V?$allocator@V?$_List_unchecked_const_iterator@V?$_List_val@U?$_List_simple_types@PAUHWND__@@@std@@@std@@U_Iterator_base0@2@@std@@@std@@@2@@std@@QBEIXZ ; std::vector<std::_List_unchecked_const_iterator<std::_List_val<std::_List_simple_types<HWND__ *> >,std::_Iterator_base0>,std::_Wrap_alloc<std::allocator<std::_List_unchecked_const_iterator<std::_List_val<std::_List_simple_types<HWND__ *> >,std::_Iterator_base0> > > >::capacity
PUBLIC	??A?$vector@V?$_List_unchecked_const_iterator@V?$_List_val@U?$_List_simple_types@PAUHWND__@@@std@@@std@@U_Iterator_base0@2@@std@@U?$_Wrap_alloc@V?$allocator@V?$_List_unchecked_const_iterator@V?$_List_val@U?$_List_simple_types@PAUHWND__@@@std@@@std@@U_Iterator_base0@2@@std@@@std@@@2@@std@@QAEAAV?$_List_unchecked_const_iterator@V?$_List_val@U?$_List_simple_types@PAUHWND__@@@std@@@std@@U_Iterator_base0@2@@1@I@Z ; std::vector<std::_List_unchecked_const_iterator<std::_List_val<std::_List_simple_types<HWND__ *> >,std::_Iterator_base0>,std::_Wrap_alloc<std::allocator<std::_List_unchecked_const_iterator<std::_List_val<std::_List_simple_types<HWND__ *> >,std::_Iterator_base0> > > >::operator[]
PUBLIC	??A?$vector@V?$_List_unchecked_const_iterator@V?$_List_val@U?$_List_simple_types@PAUHWND__@@@std@@@std@@U_Iterator_base0@2@@std@@U?$_Wrap_alloc@V?$allocator@V?$_List_unchecked_const_iterator@V?$_List_val@U?$_List_simple_types@PAUHWND__@@@std@@@std@@U_Iterator_base0@2@@std@@@std@@@2@@std@@QBEABV?$_List_unchecked_const_iterator@V?$_List_val@U?$_List_simple_types@PAUHWND__@@@std@@@std@@U_Iterator_base0@2@@1@I@Z ; std::vector<std::_List_unchecked_const_iterator<std::_List_val<std::_List_simple_types<HWND__ *> >,std::_Iterator_base0>,std::_Wrap_alloc<std::allocator<std::_List_unchecked_const_iterator<std::_List_val<std::_List_simple_types<HWND__ *> >,std::_Iterator_base0> > > >::operator[]
PUBLIC	?_Ufill@?$vector@V?$_List_unchecked_const_iterator@V?$_List_val@U?$_List_simple_types@PAUHWND__@@@std@@@std@@U_Iterator_base0@2@@std@@U?$_Wrap_alloc@V?$allocator@V?$_List_unchecked_const_iterator@V?$_List_val@U?$_List_simple_types@PAUHWND__@@@std@@@std@@U_Iterator_base0@2@@std@@@std@@@2@@std@@AAEPAV?$_List_unchecked_const_iterator@V?$_List_val@U?$_List_simple_types@PAUHWND__@@@std@@@std@@U_Iterator_base0@2@@2@PAV32@IABV32@@Z ; std::vector<std::_List_unchecked_const_iterator<std::_List_val<std::_List_simple_types<HWND__ *> >,std::_Iterator_base0>,std::_Wrap_alloc<std::allocator<std::_List_unchecked_const_iterator<std::_List_val<std::_List_simple_types<HWND__ *> >,std::_Iterator_base0> > > >::_Ufill
PUBLIC	?_Umove_if_noexcept1@?$vector@V?$_List_unchecked_const_iterator@V?$_List_val@U?$_List_simple_types@PAUHWND__@@@std@@@std@@U_Iterator_base0@2@@std@@U?$_Wrap_alloc@V?$allocator@V?$_List_unchecked_const_iterator@V?$_List_val@U?$_List_simple_types@PAUHWND__@@@std@@@std@@U_Iterator_base0@2@@std@@@std@@@2@@std@@AAEXPAV?$_List_unchecked_const_iterator@V?$_List_val@U?$_List_simple_types@PAUHWND__@@@std@@@std@@U_Iterator_base0@2@@2@00U?$integral_constant@_N$00@2@@Z ; std::vector<std::_List_unchecked_const_iterator<std::_List_val<std::_List_simple_types<HWND__ *> >,std::_Iterator_base0>,std::_Wrap_alloc<std::allocator<std::_List_unchecked_const_iterator<std::_List_val<std::_List_simple_types<HWND__ *> >,std::_Iterator_base0> > > >::_Umove_if_noexcept1
PUBLIC	?_Umove_if_noexcept@?$vector@V?$_List_unchecked_const_iterator@V?$_List_val@U?$_List_simple_types@PAUHWND__@@@std@@@std@@U_Iterator_base0@2@@std@@U?$_Wrap_alloc@V?$allocator@V?$_List_unchecked_const_iterator@V?$_List_val@U?$_List_simple_types@PAUHWND__@@@std@@@std@@U_Iterator_base0@2@@std@@@std@@@2@@std@@AAEXPAV?$_List_unchecked_const_iterator@V?$_List_val@U?$_List_simple_types@PAUHWND__@@@std@@@std@@U_Iterator_base0@2@@2@00@Z ; std::vector<std::_List_unchecked_const_iterator<std::_List_val<std::_List_simple_types<HWND__ *> >,std::_Iterator_base0>,std::_Wrap_alloc<std::allocator<std::_List_unchecked_const_iterator<std::_List_val<std::_List_simple_types<HWND__ *> >,std::_Iterator_base0> > > >::_Umove_if_noexcept
PUBLIC	?_Destroy@?$vector@V?$_List_unchecked_const_iterator@V?$_List_val@U?$_List_simple_types@PAUHWND__@@@std@@@std@@U_Iterator_base0@2@@std@@U?$_Wrap_alloc@V?$allocator@V?$_List_unchecked_const_iterator@V?$_List_val@U?$_List_simple_types@PAUHWND__@@@std@@@std@@U_Iterator_base0@2@@std@@@std@@@2@@std@@AAEXPAV?$_List_unchecked_const_iterator@V?$_List_val@U?$_List_simple_types@PAUHWND__@@@std@@@std@@U_Iterator_base0@2@@2@0@Z ; std::vector<std::_List_unchecked_const_iterator<std::_List_val<std::_List_simple_types<HWND__ *> >,std::_Iterator_base0>,std::_Wrap_alloc<std::allocator<std::_List_unchecked_const_iterator<std::_List_val<std::_List_simple_types<HWND__ *> >,std::_Iterator_base0> > > >::_Destroy
PUBLIC	?_Calculate_growth@?$vector@V?$_List_unchecked_const_iterator@V?$_List_val@U?$_List_simple_types@PAUHWND__@@@std@@@std@@U_Iterator_base0@2@@std@@U?$_Wrap_alloc@V?$allocator@V?$_List_unchecked_const_iterator@V?$_List_val@U?$_List_simple_types@PAUHWND__@@@std@@@std@@U_Iterator_base0@2@@std@@@std@@@2@@std@@ABEII@Z ; std::vector<std::_List_unchecked_const_iterator<std::_List_val<std::_List_simple_types<HWND__ *> >,std::_Iterator_base0>,std::_Wrap_alloc<std::allocator<std::_List_unchecked_const_iterator<std::_List_val<std::_List_simple_types<HWND__ *> >,std::_Iterator_base0> > > >::_Calculate_growth
PUBLIC	?_Buy@?$vector@V?$_List_unchecked_const_iterator@V?$_List_val@U?$_List_simple_types@PAUHWND__@@@std@@@std@@U_Iterator_base0@2@@std@@U?$_Wrap_alloc@V?$allocator@V?$_List_unchecked_const_iterator@V?$_List_val@U?$_List_simple_types@PAUHWND__@@@std@@@std@@U_Iterator_base0@2@@std@@@std@@@2@@std@@AAE_NI@Z ; std::vector<std::_List_unchecked_const_iterator<std::_List_val<std::_List_simple_types<HWND__ *> >,std::_Iterator_base0>,std::_Wrap_alloc<std::allocator<std::_List_unchecked_const_iterator<std::_List_val<std::_List_simple_types<HWND__ *> >,std::_Iterator_base0> > > >::_Buy
PUBLIC	?_Change_array@?$vector@V?$_List_unchecked_const_iterator@V?$_List_val@U?$_List_simple_types@PAUHWND__@@@std@@@std@@U_Iterator_base0@2@@std@@U?$_Wrap_alloc@V?$allocator@V?$_List_unchecked_const_iterator@V?$_List_val@U?$_List_simple_types@PAUHWND__@@@std@@@std@@U_Iterator_base0@2@@std@@@std@@@2@@std@@AAEXQAV?$_List_unchecked_const_iterator@V?$_List_val@U?$_List_simple_types@PAUHWND__@@@std@@@std@@U_Iterator_base0@2@@2@II@Z ; std::vector<std::_List_unchecked_const_iterator<std::_List_val<std::_List_simple_types<HWND__ *> >,std::_Iterator_base0>,std::_Wrap_alloc<std::allocator<std::_List_unchecked_const_iterator<std::_List_val<std::_List_simple_types<HWND__ *> >,std::_Iterator_base0> > > >::_Change_array
PUBLIC	?_Tidy@?$vector@V?$_List_unchecked_const_iterator@V?$_List_val@U?$_List_simple_types@PAUHWND__@@@std@@@std@@U_Iterator_base0@2@@std@@U?$_Wrap_alloc@V?$allocator@V?$_List_unchecked_const_iterator@V?$_List_val@U?$_List_simple_types@PAUHWND__@@@std@@@std@@U_Iterator_base0@2@@std@@@std@@@2@@std@@AAEXXZ ; std::vector<std::_List_unchecked_const_iterator<std::_List_val<std::_List_simple_types<HWND__ *> >,std::_Iterator_base0>,std::_Wrap_alloc<std::allocator<std::_List_unchecked_const_iterator<std::_List_val<std::_List_simple_types<HWND__ *> >,std::_Iterator_base0> > > >::_Tidy
PUBLIC	?_Xlength@?$vector@V?$_List_unchecked_const_iterator@V?$_List_val@U?$_List_simple_types@PAUHWND__@@@std@@@std@@U_Iterator_base0@2@@std@@U?$_Wrap_alloc@V?$allocator@V?$_List_unchecked_const_iterator@V?$_List_val@U?$_List_simple_types@PAUHWND__@@@std@@@std@@U_Iterator_base0@2@@std@@@std@@@2@@std@@CAXXZ ; std::vector<std::_List_unchecked_const_iterator<std::_List_val<std::_List_simple_types<HWND__ *> >,std::_Iterator_base0>,std::_Wrap_alloc<std::allocator<std::_List_unchecked_const_iterator<std::_List_val<std::_List_simple_types<HWND__ *> >,std::_Iterator_base0> > > >::_Xlength
PUBLIC	??0?$unordered_set@PAUHWND__@@U?$hash@PAUHWND__@@@std@@U?$equal_to@PAUHWND__@@@3@V?$allocator@PAUHWND__@@@3@@std@@QAE@XZ ; std::unordered_set<HWND__ *,std::hash<HWND__ *>,std::equal_to<HWND__ *>,std::allocator<HWND__ *> >::unordered_set<HWND__ *,std::hash<HWND__ *>,std::equal_to<HWND__ *>,std::allocator<HWND__ *> >
PUBLIC	??1?$unordered_set@PAUHWND__@@U?$hash@PAUHWND__@@@std@@U?$equal_to@PAUHWND__@@@3@V?$allocator@PAUHWND__@@@3@@std@@QAE@XZ ; std::unordered_set<HWND__ *,std::hash<HWND__ *>,std::equal_to<HWND__ *>,std::allocator<HWND__ *> >::~unordered_set<HWND__ *,std::hash<HWND__ *>,std::equal_to<HWND__ *>,std::allocator<HWND__ *> >
PUBLIC	?On_WINDOWPOSCHANGING@window_message_dispatch_s@@IAE_NPAUHWND__@@AAIAAJPAJ@Z ; window_message_dispatch_s::On_WINDOWPOSCHANGING
PUBLIC	?On_WINDOWPOSCHANGED@window_message_dispatch_s@@IAE_NPAUHWND__@@AAIAAJPAJ@Z ; window_message_dispatch_s::On_WINDOWPOSCHANGED
PUBLIC	?On_MOUSEACTIVATE@window_message_dispatch_s@@IAE_NPAUHWND__@@AAIAAJPAJ@Z ; window_message_dispatch_s::On_MOUSEACTIVATE
PUBLIC	?On_ACTIVATEAPP@window_message_dispatch_s@@IAE_NPAUHWND__@@AAIAAJPAJ@Z ; window_message_dispatch_s::On_ACTIVATEAPP
PUBLIC	?On_ACTIVATE@window_message_dispatch_s@@IAE_NPAUHWND__@@AAIAAJPAJ@Z ; window_message_dispatch_s::On_ACTIVATE
PUBLIC	?On_NCACTIVATE@window_message_dispatch_s@@IAE_NPAUHWND__@@AAIAAJPAJ@Z ; window_message_dispatch_s::On_NCACTIVATE
PUBLIC	?On_MOUSEMOVE@window_message_dispatch_s@@IAE_NPAUHWND__@@AAIAAJPAJ@Z ; window_message_dispatch_s::On_MOUSEMOVE
PUBLIC	?On_ENTERSIZEMOVE@window_message_dispatch_s@@IAE_NPAUHWND__@@AAIAAJPAJ@Z ; window_message_dispatch_s::On_ENTERSIZEMOVE
PUBLIC	?On_EXITSIZEMOVE@window_message_dispatch_s@@IAE_NPAUHWND__@@AAIAAJPAJ@Z ; window_message_dispatch_s::On_EXITSIZEMOVE
PUBLIC	??0window_message_dispatch_s@@QAE@XZ		; window_message_dispatch_s::window_message_dispatch_s
PUBLIC	??1window_message_dispatch_s@@QAE@XZ		; window_message_dispatch_s::~window_message_dispatch_s
PUBLIC	?StyleHasBorder@SK_WindowManager@@SA_NK@Z	; SK_WindowManager::StyleHasBorder
PUBLIC	?OnVarChange@SK_WindowManager@@UAE_NPAUSK_IVariable@@PAX@Z ; SK_WindowManager::OnVarChange
PUBLIC	??0SK_WindowManager@@QAE@XZ			; SK_WindowManager::SK_WindowManager
PUBLIC	?getInstance@SK_WindowManager@@SAPAV1@XZ	; SK_WindowManager::getInstance
PUBLIC	?muteGame@SK_WindowManager@@QAEX_N@Z		; SK_WindowManager::muteGame
PUBLIC	??0value_s@state_s@SK_WindowManager@@QAE@XZ	; SK_WindowManager::state_s::value_s::value_s
PUBLIC	??0state_s@SK_WindowManager@@QAE@XZ		; SK_WindowManager::state_s::state_s
PUBLIC	??R<lambda_d14c9bebe89e1ec31d27f11b18db1002>@@QBEXPAUHWND__@@_N@Z ; <lambda_d14c9bebe89e1ec31d27f11b18db1002>::operator()
PUBLIC	??$emplace@AAPAUHWND__@@@?$_Hash@V?$_Uset_traits@PAUHWND__@@V?$_Uhash_compare@PAUHWND__@@U?$hash@PAUHWND__@@@std@@U?$equal_to@PAUHWND__@@@3@@std@@V?$allocator@PAUHWND__@@@3@$0A@@std@@@std@@QAE?AU?$pair@V?$_List_const_iterator@V?$_List_val@U?$_List_simple_types@PAUHWND__@@@std@@@std@@@std@@_N@1@AAPAUHWND__@@@Z ; std::_Hash<std::_Uset_traits<HWND__ *,std::_Uhash_compare<HWND__ *,std::hash<HWND__ *>,std::equal_to<HWND__ *> >,std::allocator<HWND__ *>,0> >::emplace<HWND__ * &>
PUBLIC	??0?$_List_unchecked_const_iterator@V?$_List_val@U?$_List_simple_types@PAUHWND__@@@std@@@std@@U_Iterator_base0@2@@std@@QAE@XZ ; std::_List_unchecked_const_iterator<std::_List_val<std::_List_simple_types<HWND__ *> >,std::_Iterator_base0>::_List_unchecked_const_iterator<std::_List_val<std::_List_simple_types<HWND__ *> >,std::_Iterator_base0>
PUBLIC	??0?$_List_unchecked_const_iterator@V?$_List_val@U?$_List_simple_types@PAUHWND__@@@std@@@std@@U_Iterator_base0@2@@std@@QAE@PAU?$_List_node@PAUHWND__@@PAX@1@PBV?$_List_val@U?$_List_simple_types@PAUHWND__@@@std@@@1@@Z ; std::_List_unchecked_const_iterator<std::_List_val<std::_List_simple_types<HWND__ *> >,std::_Iterator_base0>::_List_unchecked_const_iterator<std::_List_val<std::_List_simple_types<HWND__ *> >,std::_Iterator_base0>
PUBLIC	??D?$_List_unchecked_const_iterator@V?$_List_val@U?$_List_simple_types@PAUHWND__@@@std@@@std@@U_Iterator_base0@2@@std@@QBEABQAUHWND__@@XZ ; std::_List_unchecked_const_iterator<std::_List_val<std::_List_simple_types<HWND__ *> >,std::_Iterator_base0>::operator*
PUBLIC	??E?$_List_unchecked_const_iterator@V?$_List_val@U?$_List_simple_types@PAUHWND__@@@std@@@std@@U_Iterator_base0@2@@std@@QAEAAV01@XZ ; std::_List_unchecked_const_iterator<std::_List_val<std::_List_simple_types<HWND__ *> >,std::_Iterator_base0>::operator++
PUBLIC	??F?$_List_unchecked_const_iterator@V?$_List_val@U?$_List_simple_types@PAUHWND__@@@std@@@std@@U_Iterator_base0@2@@std@@QAEAAV01@XZ ; std::_List_unchecked_const_iterator<std::_List_val<std::_List_simple_types<HWND__ *> >,std::_Iterator_base0>::operator--
PUBLIC	??8?$_List_unchecked_const_iterator@V?$_List_val@U?$_List_simple_types@PAUHWND__@@@std@@@std@@U_Iterator_base0@2@@std@@QBE_NABV01@@Z ; std::_List_unchecked_const_iterator<std::_List_val<std::_List_simple_types<HWND__ *> >,std::_Iterator_base0>::operator==
PUBLIC	??9?$_List_unchecked_const_iterator@V?$_List_val@U?$_List_simple_types@PAUHWND__@@@std@@@std@@U_Iterator_base0@2@@std@@QBE_NABV01@@Z ; std::_List_unchecked_const_iterator<std::_List_val<std::_List_simple_types<HWND__ *> >,std::_Iterator_base0>::operator!=
PUBLIC	?_Mynode@?$_List_unchecked_const_iterator@V?$_List_val@U?$_List_simple_types@PAUHWND__@@@std@@@std@@U_Iterator_base0@2@@std@@QBEPAU?$_List_node@PAUHWND__@@PAX@2@XZ ; std::_List_unchecked_const_iterator<std::_List_val<std::_List_simple_types<HWND__ *> >,std::_Iterator_base0>::_Mynode
PUBLIC	??0?$_List_const_iterator@V?$_List_val@U?$_List_simple_types@PAUHWND__@@@std@@@std@@@std@@QAE@PAU?$_List_node@PAUHWND__@@PAX@1@PBV?$_List_val@U?$_List_simple_types@PAUHWND__@@@std@@@1@@Z ; std::_List_const_iterator<std::_List_val<std::_List_simple_types<HWND__ *> > >::_List_const_iterator<std::_List_val<std::_List_simple_types<HWND__ *> > >
PUBLIC	?_Unchecked@?$_List_const_iterator@V?$_List_val@U?$_List_simple_types@PAUHWND__@@@std@@@std@@@std@@QBE?AV?$_List_unchecked_const_iterator@V?$_List_val@U?$_List_simple_types@PAUHWND__@@@std@@@std@@U_Iterator_base0@2@@2@XZ ; std::_List_const_iterator<std::_List_val<std::_List_simple_types<HWND__ *> > >::_Unchecked
PUBLIC	??D?$_List_const_iterator@V?$_List_val@U?$_List_simple_types@PAUHWND__@@@std@@@std@@@std@@QBEABQAUHWND__@@XZ ; std::_List_const_iterator<std::_List_val<std::_List_simple_types<HWND__ *> > >::operator*
PUBLIC	??E?$_List_const_iterator@V?$_List_val@U?$_List_simple_types@PAUHWND__@@@std@@@std@@@std@@QAEAAV01@XZ ; std::_List_const_iterator<std::_List_val<std::_List_simple_types<HWND__ *> > >::operator++
PUBLIC	??E?$_List_const_iterator@V?$_List_val@U?$_List_simple_types@PAUHWND__@@@std@@@std@@@std@@QAE?AV01@H@Z ; std::_List_const_iterator<std::_List_val<std::_List_simple_types<HWND__ *> > >::operator++
PUBLIC	??8?$_List_const_iterator@V?$_List_val@U?$_List_simple_types@PAUHWND__@@@std@@@std@@@std@@QBE_NABV01@@Z ; std::_List_const_iterator<std::_List_val<std::_List_simple_types<HWND__ *> > >::operator==
PUBLIC	??9?$_List_const_iterator@V?$_List_val@U?$_List_simple_types@PAUHWND__@@@std@@@std@@@std@@QBE_NABV01@@Z ; std::_List_const_iterator<std::_List_val<std::_List_simple_types<HWND__ *> > >::operator!=
PUBLIC	?SK_DetourWindowProc@@YGJPAUHWND__@@IIJ@Z	; SK_DetourWindowProc
PUBLIC	?SK_COMPAT_SafeCallProc@@YAJPAUsk_window_s@@PAUHWND__@@IIJ@Z ; SK_COMPAT_SafeCallProc
PUBLIC	?SK_EnumWindows@@YGHPAUHWND__@@J@Z		; SK_EnumWindows
PUBLIC	?SK_CalcCursorPos@@YAXPAUtagPOINT@@@Z		; SK_CalcCursorPos
PUBLIC	?SK_ReverseCursorPos@@YAXPAUtagPOINT@@@Z	; SK_ReverseCursorPos
PUBLIC	?ClipCursor_Detour@@YGHPBUtagRECT@@@Z		; ClipCursor_Detour
PUBLIC	?MoveWindow_Detour@@YGHPAUHWND__@@HHHHH@Z	; MoveWindow_Detour
PUBLIC	?SK_GetWindowRect@@YGHPAUHWND__@@PAUtagRECT@@@Z	; SK_GetWindowRect
PUBLIC	?SK_IsRectZero@@YGHPAUtagRECT@@@Z		; SK_IsRectZero
PUBLIC	?SK_IsRectInfinite@@YGHPAUtagRECT@@@Z		; SK_IsRectInfinite
PUBLIC	?SK_IsRectFullscreen@@YGHPAUtagRECT@@@Z		; SK_IsRectFullscreen
PUBLIC	?SK_IsClipRectFinite@@YGHPAUtagRECT@@@Z		; SK_IsClipRectFinite
PUBLIC	?AdjustWindowRect_Detour@@YGHPAUtagRECT@@KH@Z	; AdjustWindowRect_Detour
PUBLIC	?SK_SetWindowStyle@@YAXKP6GJPAUHWND__@@HJ@Z@Z	; SK_SetWindowStyle
PUBLIC	?SK_SetWindowStyleEx@@YAXKP6GJPAUHWND__@@HJ@Z@Z	; SK_SetWindowStyleEx
PUBLIC	?AdjustWindowRectEx_Detour@@YGHPAUtagRECT@@KHK@Z ; AdjustWindowRectEx_Detour
PUBLIC	?SetWindowLong_Marshall@@YGJP6GJPAUHWND__@@HJ@Z0HJ@Z ; SetWindowLong_Marshall
PUBLIC	?SetWindowLongA_Detour@@YGJPAUHWND__@@HJ@Z	; SetWindowLongA_Detour
PUBLIC	?SetWindowLongW_Detour@@YGJPAUHWND__@@HJ@Z	; SetWindowLongW_Detour
PUBLIC	?GetWindowLong_Marshall@@YGJP6GJPAUHWND__@@H@Z0H@Z ; GetWindowLong_Marshall
PUBLIC	?GetWindowLongA_Detour@@YGJPAUHWND__@@H@Z	; GetWindowLongA_Detour
PUBLIC	?GetWindowLongW_Detour@@YGJPAUHWND__@@H@Z	; GetWindowLongW_Detour
PUBLIC	?SetWindowLongPtr_Marshall@@YGJP6GJPAUHWND__@@HJ@Z0HJ@Z ; SetWindowLongPtr_Marshall
PUBLIC	?SetWindowLongPtrA_Detour@@YGJPAUHWND__@@HJ@Z	; SetWindowLongPtrA_Detour
PUBLIC	?SetWindowLongPtrW_Detour@@YGJPAUHWND__@@HJ@Z	; SetWindowLongPtrW_Detour
PUBLIC	?GetWindowLongPtr_Marshall@@YGJP6GJPAUHWND__@@H@Z0H@Z ; GetWindowLongPtr_Marshall
PUBLIC	?GetWindowLongPtrA_Detour@@YGJPAUHWND__@@H@Z	; GetWindowLongPtrA_Detour
PUBLIC	?GetWindowLongPtrW_Detour@@YGJPAUHWND__@@H@Z	; GetWindowLongPtrW_Detour
PUBLIC	?SK_ComputeClientSize@@YA?AUtagRECT@@XZ		; SK_ComputeClientSize
PUBLIC	?SK_ComputeClientOrigin@@YA?AUtagPOINT@@XZ	; SK_ComputeClientOrigin
PUBLIC	?SK_IsRectTooBigForDesktop@@YA_NUtagRECT@@@Z	; SK_IsRectTooBigForDesktop
PUBLIC	?SK_ResetWindow@@YAXXZ				; SK_ResetWindow
PUBLIC	??$min@J@std@@YAABJABJ0@Z			; std::min<long>
PUBLIC	??$max@J@std@@YAABJABJ0@Z			; std::max<long>
PUBLIC	?TranslateMessage_Detour@@YGHPBUtagMSG@@@Z	; TranslateMessage_Detour
PUBLIC	?SK_EarlyDispatchMessage@@YA_NPAUtagMSG@@_N1@Z	; SK_EarlyDispatchMessage
PUBLIC	?PeekMessageW_Detour@@YGHPAUtagMSG@@PAUHWND__@@III@Z ; PeekMessageW_Detour
PUBLIC	?PeekMessageA_Detour@@YGHPAUtagMSG@@PAUHWND__@@III@Z ; PeekMessageA_Detour
PUBLIC	?GetMessageA_Detour@@YGHPAUtagMSG@@PAUHWND__@@II@Z ; GetMessageA_Detour
PUBLIC	?GetMessageW_Detour@@YGHPAUtagMSG@@PAUHWND__@@II@Z ; GetMessageW_Detour
PUBLIC	?DispatchMessageW_Detour@@YGJPBUtagMSG@@@Z	; DispatchMessageW_Detour
PUBLIC	?DispatchMessageA_Detour@@YGJPBUtagMSG@@@Z	; DispatchMessageA_Detour
PUBLIC	?SK_DetourWindowProc2@@YGJPAUHWND__@@IIJ@Z	; SK_DetourWindowProc2
PUBLIC	?CallWndProc@@YGJHIJ@Z				; CallWndProc
PUBLIC	??$static_cast_p2p@X$$A6GHPBUtagMSG@@@Z@@YAPAPAXPAP6GHPBUtagMSG@@@Z@Z ; static_cast_p2p<void,int __stdcall(tagMSG const *)>
PUBLIC	??$static_cast_p2p@X$$A6GHPAUtagMSG@@PAUHWND__@@III@Z@@YAPAPAXPAP6GHPAUtagMSG@@PAUHWND__@@III@Z@Z ; static_cast_p2p<void,int __stdcall(tagMSG *,HWND__ *,unsigned int,unsigned int,unsigned int)>
PUBLIC	??$static_cast_p2p@X$$A6GHPAUtagMSG@@PAUHWND__@@II@Z@@YAPAPAXPAP6GHPAUtagMSG@@PAUHWND__@@II@Z@Z ; static_cast_p2p<void,int __stdcall(tagMSG *,HWND__ *,unsigned int,unsigned int)>
PUBLIC	??$static_cast_p2p@X$$A6GJPBUtagMSG@@@Z@@YAPAPAXPAP6GJPBUtagMSG@@@Z@Z ; static_cast_p2p<void,long __stdcall(tagMSG const *)>
PUBLIC	??$static_cast_p2p@X$$A6GJPAUHWND__@@IIJ@Z@@YAPAPAXPAP6GJPAUHWND__@@IIJ@Z@Z ; static_cast_p2p<void,long __stdcall(HWND__ *,unsigned int,unsigned int,long)>
PUBLIC	?RegisterClassA_Detour@@YGGPBUtagWNDCLASSA@@@Z	; RegisterClassA_Detour
PUBLIC	?RegisterClassW_Detour@@YGGPBUtagWNDCLASSW@@@Z	; RegisterClassW_Detour
PUBLIC	?RegisterClassExA_Detour@@YGGPBUtagWNDCLASSEXA@@@Z ; RegisterClassExA_Detour
PUBLIC	?RegisterClassExW_Detour@@YGGPBUtagWNDCLASSEXW@@@Z ; RegisterClassExW_Detour
PUBLIC	?SK_MakeWindowHook@@YAXPAX0@Z			; SK_MakeWindowHook
PUBLIC	?CreateWindowExA_Detour@@YGPAUHWND__@@KPBD0KHHHHPAU1@PAUHMENU__@@PAUHINSTANCE__@@PAX@Z ; CreateWindowExA_Detour
PUBLIC	?CreateWindowExW_Detour@@YGPAUHWND__@@KPB_W0KHHHHPAU1@PAUHMENU__@@PAUHINSTANCE__@@PAX@Z ; CreateWindowExW_Detour
PUBLIC	??$static_cast_p2p@X$$A6GHPAUHWND__@@0HHHHI@Z@@YAPAPAXPAP6GHPAUHWND__@@0HHHHI@Z@Z ; static_cast_p2p<void,int __stdcall(HWND__ *,HWND__ *,int,int,int,int,unsigned int)>
PUBLIC	??$static_cast_p2p@X$$A6GHPAUHWND__@@PBUtagWINDOWPLACEMENT@@@Z@@YAPAPAXPAP6GHPAUHWND__@@PBUtagWINDOWPLACEMENT@@@Z@Z ; static_cast_p2p<void,int __stdcall(HWND__ *,tagWINDOWPLACEMENT const *)>
PUBLIC	??$static_cast_p2p@X$$A6GHPAUHWND__@@HHHHH@Z@@YAPAPAXPAP6GHPAUHWND__@@HHHHH@Z@Z ; static_cast_p2p<void,int __stdcall(HWND__ *,int,int,int,int,int)>
PUBLIC	??$static_cast_p2p@X$$A6GHPBUtagRECT@@@Z@@YAPAPAXPAP6GHPBUtagRECT@@@Z@Z ; static_cast_p2p<void,int __stdcall(tagRECT const *)>
PUBLIC	??$static_cast_p2p@X$$A6GPAUHWND__@@KPB_W0KHHHHPAU1@PAUHMENU__@@PAUHINSTANCE__@@PAX@Z@@YAPAPAXPAP6GPAUHWND__@@KPB_W0KHHHHPAU0@PAUHMENU__@@PAUHINSTANCE__@@PAX@Z@Z ; static_cast_p2p<void,HWND__ * __stdcall(unsigned long,wchar_t const *,wchar_t const *,unsigned long,int,int,int,int,HWND__ *,HMENU__ *,HINSTANCE__ *,void *)>
PUBLIC	??$static_cast_p2p@X$$A6GPAUHWND__@@KPBD0KHHHHPAU1@PAUHMENU__@@PAUHINSTANCE__@@PAX@Z@@YAPAPAXPAP6GPAUHWND__@@KPBD0KHHHHPAU0@PAUHMENU__@@PAUHINSTANCE__@@PAX@Z@Z ; static_cast_p2p<void,HWND__ * __stdcall(unsigned long,char const *,char const *,unsigned long,int,int,int,int,HWND__ *,HMENU__ *,HINSTANCE__ *,void *)>
PUBLIC	??$static_cast_p2p@X$$A6GJPAUHWND__@@HJ@Z@@YAPAPAXPAP6GJPAUHWND__@@HJ@Z@Z ; static_cast_p2p<void,long __stdcall(HWND__ *,int,long)>
PUBLIC	??$static_cast_p2p@X$$A6GJPAUHWND__@@H@Z@@YAPAPAXPAP6GJPAUHWND__@@H@Z@Z ; static_cast_p2p<void,long __stdcall(HWND__ *,int)>
PUBLIC	??$static_cast_p2p@X$$A6GHPAUtagRECT@@KH@Z@@YAPAPAXPAP6GHPAUtagRECT@@KH@Z@Z ; static_cast_p2p<void,int __stdcall(tagRECT *,unsigned long,int)>
PUBLIC	??$static_cast_p2p@X$$A6GHPAUtagRECT@@KHK@Z@@YAPAPAXPAP6GHPAUtagRECT@@KHK@Z@Z ; static_cast_p2p<void,int __stdcall(tagRECT *,unsigned long,int,unsigned long)>
PUBLIC	??$static_cast_p2p@X$$A6GHH@Z@@YAPAPAXPAP6GHH@Z@Z ; static_cast_p2p<void,int __stdcall(int)>
PUBLIC	??$distance@V?$_List_const_iterator@V?$_List_val@U?$_List_simple_types@PAUHWND__@@@std@@@std@@@std@@@std@@YAHV?$_List_const_iterator@V?$_List_val@U?$_List_simple_types@PAUHWND__@@@std@@@std@@@0@0@Z ; std::distance<std::_List_const_iterator<std::_List_val<std::_List_simple_types<HWND__ *> > > >
PUBLIC	??$try_emplace@$$V@?$unordered_map@PAUHWND__@@_NU?$hash@PAUHWND__@@@std@@U?$equal_to@PAUHWND__@@@3@V?$allocator@U?$pair@QAUHWND__@@_N@std@@@3@@std@@QAE?AU?$pair@V?$_List_iterator@V?$_List_val@U?$_List_simple_types@U?$pair@QAUHWND__@@_N@std@@@std@@@std@@@std@@_N@1@ABQAUHWND__@@@Z ; std::unordered_map<HWND__ *,bool,std::hash<HWND__ *>,std::equal_to<HWND__ *>,std::allocator<std::pair<HWND__ * const,bool> > >::try_emplace<>
PUBLIC	??0?$_List_unchecked_const_iterator@V?$_List_val@U?$_List_simple_types@U?$pair@QAUHWND__@@_N@std@@@std@@@std@@U_Iterator_base0@2@@std@@QAE@XZ ; std::_List_unchecked_const_iterator<std::_List_val<std::_List_simple_types<std::pair<HWND__ * const,bool> > >,std::_Iterator_base0>::_List_unchecked_const_iterator<std::_List_val<std::_List_simple_types<std::pair<HWND__ * const,bool> > >,std::_Iterator_base0>
PUBLIC	??0?$_List_unchecked_const_iterator@V?$_List_val@U?$_List_simple_types@U?$pair@QAUHWND__@@_N@std@@@std@@@std@@U_Iterator_base0@2@@std@@QAE@PAU?$_List_node@U?$pair@QAUHWND__@@_N@std@@PAX@1@PBV?$_List_val@U?$_List_simple_types@U?$pair@QAUHWND__@@_N@std@@@std@@@1@@Z ; std::_List_unchecked_const_iterator<std::_List_val<std::_List_simple_types<std::pair<HWND__ * const,bool> > >,std::_Iterator_base0>::_List_unchecked_const_iterator<std::_List_val<std::_List_simple_types<std::pair<HWND__ * const,bool> > >,std::_Iterator_base0>
PUBLIC	??D?$_List_unchecked_const_iterator@V?$_List_val@U?$_List_simple_types@U?$pair@QAUHWND__@@_N@std@@@std@@@std@@U_Iterator_base0@2@@std@@QBEABU?$pair@QAUHWND__@@_N@1@XZ ; std::_List_unchecked_const_iterator<std::_List_val<std::_List_simple_types<std::pair<HWND__ * const,bool> > >,std::_Iterator_base0>::operator*
PUBLIC	??E?$_List_unchecked_const_iterator@V?$_List_val@U?$_List_simple_types@U?$pair@QAUHWND__@@_N@std@@@std@@@std@@U_Iterator_base0@2@@std@@QAEAAV01@XZ ; std::_List_unchecked_const_iterator<std::_List_val<std::_List_simple_types<std::pair<HWND__ * const,bool> > >,std::_Iterator_base0>::operator++
PUBLIC	??F?$_List_unchecked_const_iterator@V?$_List_val@U?$_List_simple_types@U?$pair@QAUHWND__@@_N@std@@@std@@@std@@U_Iterator_base0@2@@std@@QAEAAV01@XZ ; std::_List_unchecked_const_iterator<std::_List_val<std::_List_simple_types<std::pair<HWND__ * const,bool> > >,std::_Iterator_base0>::operator--
PUBLIC	??8?$_List_unchecked_const_iterator@V?$_List_val@U?$_List_simple_types@U?$pair@QAUHWND__@@_N@std@@@std@@@std@@U_Iterator_base0@2@@std@@QBE_NABV01@@Z ; std::_List_unchecked_const_iterator<std::_List_val<std::_List_simple_types<std::pair<HWND__ * const,bool> > >,std::_Iterator_base0>::operator==
PUBLIC	??9?$_List_unchecked_const_iterator@V?$_List_val@U?$_List_simple_types@U?$pair@QAUHWND__@@_N@std@@@std@@@std@@U_Iterator_base0@2@@std@@QBE_NABV01@@Z ; std::_List_unchecked_const_iterator<std::_List_val<std::_List_simple_types<std::pair<HWND__ * const,bool> > >,std::_Iterator_base0>::operator!=
PUBLIC	?_Mynode@?$_List_unchecked_const_iterator@V?$_List_val@U?$_List_simple_types@U?$pair@QAUHWND__@@_N@std@@@std@@@std@@U_Iterator_base0@2@@std@@QBEPAU?$_List_node@U?$pair@QAUHWND__@@_N@std@@PAX@2@XZ ; std::_List_unchecked_const_iterator<std::_List_val<std::_List_simple_types<std::pair<HWND__ * const,bool> > >,std::_Iterator_base0>::_Mynode
PUBLIC	??0?$_List_const_iterator@V?$_List_val@U?$_List_simple_types@U?$pair@QAUHWND__@@_N@std@@@std@@@std@@@std@@QAE@PAU?$_List_node@U?$pair@QAUHWND__@@_N@std@@PAX@1@PBV?$_List_val@U?$_List_simple_types@U?$pair@QAUHWND__@@_N@std@@@std@@@1@@Z ; std::_List_const_iterator<std::_List_val<std::_List_simple_types<std::pair<HWND__ * const,bool> > > >::_List_const_iterator<std::_List_val<std::_List_simple_types<std::pair<HWND__ * const,bool> > > >
PUBLIC	??D?$_List_const_iterator@V?$_List_val@U?$_List_simple_types@U?$pair@QAUHWND__@@_N@std@@@std@@@std@@@std@@QBEABU?$pair@QAUHWND__@@_N@1@XZ ; std::_List_const_iterator<std::_List_val<std::_List_simple_types<std::pair<HWND__ * const,bool> > > >::operator*
PUBLIC	??E?$_List_const_iterator@V?$_List_val@U?$_List_simple_types@U?$pair@QAUHWND__@@_N@std@@@std@@@std@@@std@@QAEAAV01@XZ ; std::_List_const_iterator<std::_List_val<std::_List_simple_types<std::pair<HWND__ * const,bool> > > >::operator++
PUBLIC	??E?$_List_const_iterator@V?$_List_val@U?$_List_simple_types@U?$pair@QAUHWND__@@_N@std@@@std@@@std@@@std@@QAE?AV01@H@Z ; std::_List_const_iterator<std::_List_val<std::_List_simple_types<std::pair<HWND__ * const,bool> > > >::operator++
PUBLIC	??8?$_List_const_iterator@V?$_List_val@U?$_List_simple_types@U?$pair@QAUHWND__@@_N@std@@@std@@@std@@@std@@QBE_NABV01@@Z ; std::_List_const_iterator<std::_List_val<std::_List_simple_types<std::pair<HWND__ * const,bool> > > >::operator==
PUBLIC	??0?$_List_iterator@V?$_List_val@U?$_List_simple_types@U?$pair@QAUHWND__@@_N@std@@@std@@@std@@@std@@QAE@PAU?$_List_node@U?$pair@QAUHWND__@@_N@std@@PAX@1@PBV?$_List_val@U?$_List_simple_types@U?$pair@QAUHWND__@@_N@std@@@std@@@1@@Z ; std::_List_iterator<std::_List_val<std::_List_simple_types<std::pair<HWND__ * const,bool> > > >::_List_iterator<std::_List_val<std::_List_simple_types<std::pair<HWND__ * const,bool> > > >
PUBLIC	?_Unchecked@?$_List_iterator@V?$_List_val@U?$_List_simple_types@U?$pair@QAUHWND__@@_N@std@@@std@@@std@@@std@@QBE?AV?$_List_unchecked_iterator@V?$_List_val@U?$_List_simple_types@U?$pair@QAUHWND__@@_N@std@@@std@@@std@@@2@XZ ; std::_List_iterator<std::_List_val<std::_List_simple_types<std::pair<HWND__ * const,bool> > > >::_Unchecked
PUBLIC	??D?$_List_iterator@V?$_List_val@U?$_List_simple_types@U?$pair@QAUHWND__@@_N@std@@@std@@@std@@@std@@QBEAAU?$pair@QAUHWND__@@_N@1@XZ ; std::_List_iterator<std::_List_val<std::_List_simple_types<std::pair<HWND__ * const,bool> > > >::operator*
PUBLIC	??C?$_List_iterator@V?$_List_val@U?$_List_simple_types@U?$pair@QAUHWND__@@_N@std@@@std@@@std@@@std@@QBEPAU?$pair@QAUHWND__@@_N@1@XZ ; std::_List_iterator<std::_List_val<std::_List_simple_types<std::pair<HWND__ * const,bool> > > >::operator->
PUBLIC	??$?0V?$_List_const_iterator@V?$_List_val@U?$_List_simple_types@PAUHWND__@@@std@@@std@@@std@@V01@X$0A@@?$pair@V?$_List_const_iterator@V?$_List_val@U?$_List_simple_types@PAUHWND__@@@std@@@std@@@std@@V12@@std@@QAE@$$QAV?$_List_const_iterator@V?$_List_val@U?$_List_simple_types@PAUHWND__@@@std@@@std@@@1@0@Z ; std::pair<std::_List_const_iterator<std::_List_val<std::_List_simple_types<HWND__ *> > >,std::_List_const_iterator<std::_List_val<std::_List_simple_types<HWND__ *> > > >::pair<std::_List_const_iterator<std::_List_val<std::_List_simple_types<HWND__ *> > >,std::_List_const_iterator<std::_List_val<std::_List_simple_types<HWND__ *> > > ><std::_List_const_iterator<std::_List_val<std::_List_simple_types<HWND__ *> > >,std::_List_const_iterator<std::_List_val<std::_List_simple_types<HWND__ *> > >,void,0>
PUBLIC	??$?0ABV?$allocator@PAUHWND__@@@std@@@?$_Wrap_alloc@V?$allocator@V?$_List_unchecked_const_iterator@V?$_List_val@U?$_List_simple_types@PAUHWND__@@@std@@@std@@U_Iterator_base0@2@@std@@@std@@@std@@QAE@ABV?$allocator@PAUHWND__@@@1@@Z ; std::_Wrap_alloc<std::allocator<std::_List_unchecked_const_iterator<std::_List_val<std::_List_simple_types<HWND__ *> >,std::_Iterator_base0> > >::_Wrap_alloc<std::allocator<std::_List_unchecked_const_iterator<std::_List_val<std::_List_simple_types<HWND__ *> >,std::_Iterator_base0> > ><std::allocator<HWND__ *> const &>
PUBLIC	?pointer_to@?$pointer_traits@PAU?$pair@QAUHWND__@@_N@std@@@std@@SAPAU?$pair@QAUHWND__@@_N@2@AAU32@@Z ; std::pointer_traits<std::pair<HWND__ * const,bool> *>::pointer_to
PUBLIC	??$?0ABV?$allocator@U?$pair@QAUHWND__@@_N@std@@@std@@@?$_Wrap_alloc@V?$allocator@V?$_List_unchecked_iterator@V?$_List_val@U?$_List_simple_types@U?$pair@QAUHWND__@@_N@std@@@std@@@std@@@std@@@std@@@std@@QAE@ABV?$allocator@U?$pair@QAUHWND__@@_N@std@@@1@@Z ; std::_Wrap_alloc<std::allocator<std::_List_unchecked_iterator<std::_List_val<std::_List_simple_types<std::pair<HWND__ * const,bool> > > > > >::_Wrap_alloc<std::allocator<std::_List_unchecked_iterator<std::_List_val<std::_List_simple_types<std::pair<HWND__ * const,bool> > > > > ><std::allocator<std::pair<HWND__ * const,bool> > const &>
PUBLIC	??$?0AAU?$hash@PAUHWND__@@@std@@U_One_then_variadic_args_t@1@AAU?$equal_to@PAUHWND__@@@1@M@?$_Compressed_pair@U?$hash@PAUHWND__@@@std@@V?$_Compressed_pair@U?$equal_to@PAUHWND__@@@std@@M$00@2@$00@std@@QAE@U_One_then_variadic_args_t@1@AAU?$hash@PAUHWND__@@@1@$$QAU21@AAU?$equal_to@PAUHWND__@@@1@$$QAM@Z ; std::_Compressed_pair<std::hash<HWND__ *>,std::_Compressed_pair<std::equal_to<HWND__ *>,float,1>,1>::_Compressed_pair<std::hash<HWND__ *>,std::_Compressed_pair<std::equal_to<HWND__ *>,float,1>,1><std::hash<HWND__ *> &,std::_One_then_variadic_args_t,std::equal_to<HWND__ *> &,float>
PUBLIC	??$addressof@PA_W@std@@YAPAPA_WAAPA_W@Z		; std::addressof<wchar_t *>
PUBLIC	??$destroy@PA_W@?$_Wrap_alloc@V?$allocator@_W@std@@@std@@QAEXPAPA_W@Z ; std::_Wrap_alloc<std::allocator<wchar_t> >::destroy<wchar_t *>
PUBLIC	??$addressof@PAD@std@@YAPAPADAAPAD@Z		; std::addressof<char *>
PUBLIC	??$destroy@PAD@?$_Wrap_alloc@V?$allocator@D@std@@@std@@QAEXPAPAD@Z ; std::_Wrap_alloc<std::allocator<char> >::destroy<char *>
PUBLIC	??$addressof@U?$pair@QAUHWND__@@_N@std@@@std@@YAPAU?$pair@QAUHWND__@@_N@0@AAU10@@Z ; std::addressof<std::pair<HWND__ * const,bool> >
PUBLIC	??$?0ABU?$_Wrap_alloc@V?$allocator@V?$_List_unchecked_const_iterator@V?$_List_val@U?$_List_simple_types@PAUHWND__@@@std@@@std@@U_Iterator_base0@2@@std@@@std@@@std@@X@?$_Vector_alloc@U?$_Vec_base_types@V?$_List_unchecked_const_iterator@V?$_List_val@U?$_List_simple_types@PAUHWND__@@@std@@@std@@U_Iterator_base0@2@@std@@U?$_Wrap_alloc@V?$allocator@V?$_List_unchecked_const_iterator@V?$_List_val@U?$_List_simple_types@PAUHWND__@@@std@@@std@@U_Iterator_base0@2@@std@@@std@@@2@@std@@@std@@QAE@ABU?$_Wrap_alloc@V?$allocator@V?$_List_unchecked_const_iterator@V?$_List_val@U?$_List_simple_types@PAUHWND__@@@std@@@std@@U_Iterator_base0@2@@std@@@std@@@1@@Z ; std::_Vector_alloc<std::_Vec_base_types<std::_List_unchecked_const_iterator<std::_List_val<std::_List_simple_types<HWND__ *> >,std::_Iterator_base0>,std::_Wrap_alloc<std::allocator<std::_List_unchecked_const_iterator<std::_List_val<std::_List_simple_types<HWND__ *> >,std::_Iterator_base0> > > > >::_Vector_alloc<std::_Vec_base_types<std::_List_unchecked_const_iterator<std::_List_val<std::_List_simple_types<HWND__ *> >,std::_Iterator_base0>,std::_Wrap_alloc<std::allocator<std::_List_unchecked_const_iterator<std::_List_val<std::_List_simple_types<HWND__ *> >,std::_Iterator_base0> > > > ><std::_Wrap_alloc<std::allocator<std::_List_unchecked_const_iterator<std::_List_val<std::_List_simple_types<HWND__ *> >,std::_Iterator_base0> > > const &,void>
PUBLIC	??$?0ABV?$allocator@PAUHWND__@@@std@@X@?$_List_buy@PAUHWND__@@V?$allocator@PAUHWND__@@@std@@@std@@QAE@ABV?$allocator@PAUHWND__@@@1@@Z ; std::_List_buy<HWND__ *,std::allocator<HWND__ *> >::_List_buy<HWND__ *,std::allocator<HWND__ *> ><std::allocator<HWND__ *> const &,void>
PUBLIC	??0?$_List_iterator@V?$_List_val@U?$_List_simple_types@PAUHWND__@@@std@@@std@@@std@@QAE@PAU?$_List_node@PAUHWND__@@PAX@1@PBV?$_List_val@U?$_List_simple_types@PAUHWND__@@@std@@@1@@Z ; std::_List_iterator<std::_List_val<std::_List_simple_types<HWND__ *> > >::_List_iterator<std::_List_val<std::_List_simple_types<HWND__ *> > >
PUBLIC	??D?$_List_iterator@V?$_List_val@U?$_List_simple_types@PAUHWND__@@@std@@@std@@@std@@QBEAAPAUHWND__@@XZ ; std::_List_iterator<std::_List_val<std::_List_simple_types<HWND__ *> > >::operator*
PUBLIC	??0?$_List_unchecked_iterator@V?$_List_val@U?$_List_simple_types@U?$pair@QAUHWND__@@_N@std@@@std@@@std@@@std@@QAE@XZ ; std::_List_unchecked_iterator<std::_List_val<std::_List_simple_types<std::pair<HWND__ * const,bool> > > >::_List_unchecked_iterator<std::_List_val<std::_List_simple_types<std::pair<HWND__ * const,bool> > > >
PUBLIC	??0?$_List_unchecked_iterator@V?$_List_val@U?$_List_simple_types@U?$pair@QAUHWND__@@_N@std@@@std@@@std@@@std@@QAE@PAU?$_List_node@U?$pair@QAUHWND__@@_N@std@@PAX@1@PBV?$_List_val@U?$_List_simple_types@U?$pair@QAUHWND__@@_N@std@@@std@@@1@@Z ; std::_List_unchecked_iterator<std::_List_val<std::_List_simple_types<std::pair<HWND__ * const,bool> > > >::_List_unchecked_iterator<std::_List_val<std::_List_simple_types<std::pair<HWND__ * const,bool> > > >
PUBLIC	??D?$_List_unchecked_iterator@V?$_List_val@U?$_List_simple_types@U?$pair@QAUHWND__@@_N@std@@@std@@@std@@@std@@QBEAAU?$pair@QAUHWND__@@_N@1@XZ ; std::_List_unchecked_iterator<std::_List_val<std::_List_simple_types<std::pair<HWND__ * const,bool> > > >::operator*
PUBLIC	??E?$_List_unchecked_iterator@V?$_List_val@U?$_List_simple_types@U?$pair@QAUHWND__@@_N@std@@@std@@@std@@@std@@QAEAAV01@XZ ; std::_List_unchecked_iterator<std::_List_val<std::_List_simple_types<std::pair<HWND__ * const,bool> > > >::operator++
PUBLIC	??F?$_List_unchecked_iterator@V?$_List_val@U?$_List_simple_types@U?$pair@QAUHWND__@@_N@std@@@std@@@std@@@std@@QAEAAV01@XZ ; std::_List_unchecked_iterator<std::_List_val<std::_List_simple_types<std::pair<HWND__ * const,bool> > > >::operator--
PUBLIC	??$?0ABU?$_Wrap_alloc@V?$allocator@V?$_List_unchecked_iterator@V?$_List_val@U?$_List_simple_types@U?$pair@QAUHWND__@@_N@std@@@std@@@std@@@std@@@std@@@std@@X@?$_Vector_alloc@U?$_Vec_base_types@V?$_List_unchecked_iterator@V?$_List_val@U?$_List_simple_types@U?$pair@QAUHWND__@@_N@std@@@std@@@std@@@std@@U?$_Wrap_alloc@V?$allocator@V?$_List_unchecked_iterator@V?$_List_val@U?$_List_simple_types@U?$pair@QAUHWND__@@_N@std@@@std@@@std@@@std@@@std@@@2@@std@@@std@@QAE@ABU?$_Wrap_alloc@V?$allocator@V?$_List_unchecked_iterator@V?$_List_val@U?$_List_simple_types@U?$pair@QAUHWND__@@_N@std@@@std@@@std@@@std@@@std@@@1@@Z ; std::_Vector_alloc<std::_Vec_base_types<std::_List_unchecked_iterator<std::_List_val<std::_List_simple_types<std::pair<HWND__ * const,bool> > > >,std::_Wrap_alloc<std::allocator<std::_List_unchecked_iterator<std::_List_val<std::_List_simple_types<std::pair<HWND__ * const,bool> > > > > > > >::_Vector_alloc<std::_Vec_base_types<std::_List_unchecked_iterator<std::_List_val<std::_List_simple_types<std::pair<HWND__ * const,bool> > > >,std::_Wrap_alloc<std::allocator<std::_List_unchecked_iterator<std::_List_val<std::_List_simple_types<std::pair<HWND__ * const,bool> > > > > > > ><std::_Wrap_alloc<std::allocator<std::_List_unchecked_iterator<std::_List_val<std::_List_simple_types<std::pair<HWND__ * const,bool> > > > > > const &,void>
PUBLIC	??$?0ABV?$allocator@U?$pair@QAUHWND__@@_N@std@@@std@@X@?$_List_buy@U?$pair@QAUHWND__@@_N@std@@V?$allocator@U?$pair@QAUHWND__@@_N@std@@@2@@std@@QAE@ABV?$allocator@U?$pair@QAUHWND__@@_N@std@@@1@@Z ; std::_List_buy<std::pair<HWND__ * const,bool>,std::allocator<std::pair<HWND__ * const,bool> > >::_List_buy<std::pair<HWND__ * const,bool>,std::allocator<std::pair<HWND__ * const,bool> > ><std::allocator<std::pair<HWND__ * const,bool> > const &,void>
PUBLIC	??$_Unfancy@_W@std@@YAPA_WPA_W@Z		; std::_Unfancy<wchar_t>
PUBLIC	??$_Destroy_range@U?$_Wrap_alloc@V?$allocator@V?$_List_unchecked_const_iterator@V?$_List_val@U?$_List_simple_types@PAUHWND__@@@std@@@std@@U_Iterator_base0@2@@std@@@std@@@std@@PAV?$_List_unchecked_const_iterator@V?$_List_val@U?$_List_simple_types@PAUHWND__@@@std@@@std@@U_Iterator_base0@2@@2@@std@@YAXPAV?$_List_unchecked_const_iterator@V?$_List_val@U?$_List_simple_types@PAUHWND__@@@std@@@std@@U_Iterator_base0@2@@0@0AAU?$_Wrap_alloc@U?$_Wrap_alloc@V?$allocator@V?$_List_unchecked_const_iterator@V?$_List_val@U?$_List_simple_types@PAUHWND__@@@std@@@std@@U_Iterator_base0@2@@std@@@std@@@std@@@0@@Z ; std::_Destroy_range<std::_Wrap_alloc<std::allocator<std::_List_unchecked_const_iterator<std::_List_val<std::_List_simple_types<HWND__ *> >,std::_Iterator_base0> > >,std::_List_unchecked_const_iterator<std::_List_val<std::_List_simple_types<HWND__ *> >,std::_Iterator_base0> *>
PUBLIC	??$_Fill_unchecked@PAV?$_List_unchecked_const_iterator@V?$_List_val@U?$_List_simple_types@PAUHWND__@@@std@@@std@@U_Iterator_base0@2@@std@@V12@@std@@YAXPAV?$_List_unchecked_const_iterator@V?$_List_val@U?$_List_simple_types@PAUHWND__@@@std@@@std@@U_Iterator_base0@2@@0@0ABV10@@Z ; std::_Fill_unchecked<std::_List_unchecked_const_iterator<std::_List_val<std::_List_simple_types<HWND__ *> >,std::_Iterator_base0> *,std::_List_unchecked_const_iterator<std::_List_val<std::_List_simple_types<HWND__ *> >,std::_Iterator_base0> >
PUBLIC	??$addressof@PAU?$_List_node@PAUHWND__@@PAX@std@@@std@@YAPAPAU?$_List_node@PAUHWND__@@PAX@0@AAPAU10@@Z ; std::addressof<std::_List_node<HWND__ *,void *> *>
PUBLIC	??$destroy@PAU?$_List_node@PAUHWND__@@PAX@std@@@?$_Wrap_alloc@V?$allocator@U?$_List_node@PAUHWND__@@PAX@std@@@std@@@std@@QAEXPAPAU?$_List_node@PAUHWND__@@PAX@1@@Z ; std::_Wrap_alloc<std::allocator<std::_List_node<HWND__ *,void *> > >::destroy<std::_List_node<HWND__ *,void *> *>
PUBLIC	??$addressof@$$CBV?$_List_val@U?$_List_simple_types@PAUHWND__@@@std@@@std@@@std@@YAPBV?$_List_val@U?$_List_simple_types@PAUHWND__@@@std@@@0@ABV10@@Z ; std::addressof<std::_List_val<std::_List_simple_types<HWND__ *> > const >
PUBLIC	??$addressof@V?$_List_val@U?$_List_simple_types@PAUHWND__@@@std@@@std@@@std@@YAPAV?$_List_val@U?$_List_simple_types@PAUHWND__@@@std@@@0@AAV10@@Z ; std::addressof<std::_List_val<std::_List_simple_types<HWND__ *> > >
PUBLIC	??0?$_List_unchecked_iterator@V?$_List_val@U?$_List_simple_types@PAUHWND__@@@std@@@std@@@std@@QAE@PAU?$_List_node@PAUHWND__@@PAX@1@PBV?$_List_val@U?$_List_simple_types@PAUHWND__@@@std@@@1@@Z ; std::_List_unchecked_iterator<std::_List_val<std::_List_simple_types<HWND__ *> > >::_List_unchecked_iterator<std::_List_val<std::_List_simple_types<HWND__ *> > >
PUBLIC	??$_Destroy_range@U?$_Wrap_alloc@V?$allocator@V?$_List_unchecked_iterator@V?$_List_val@U?$_List_simple_types@U?$pair@QAUHWND__@@_N@std@@@std@@@std@@@std@@@std@@@std@@PAV?$_List_unchecked_iterator@V?$_List_val@U?$_List_simple_types@U?$pair@QAUHWND__@@_N@std@@@std@@@std@@@2@@std@@YAXPAV?$_List_unchecked_iterator@V?$_List_val@U?$_List_simple_types@U?$pair@QAUHWND__@@_N@std@@@std@@@std@@@0@0AAU?$_Wrap_alloc@U?$_Wrap_alloc@V?$allocator@V?$_List_unchecked_iterator@V?$_List_val@U?$_List_simple_types@U?$pair@QAUHWND__@@_N@std@@@std@@@std@@@std@@@std@@@std@@@0@@Z ; std::_Destroy_range<std::_Wrap_alloc<std::allocator<std::_List_unchecked_iterator<std::_List_val<std::_List_simple_types<std::pair<HWND__ * const,bool> > > > > >,std::_List_unchecked_iterator<std::_List_val<std::_List_simple_types<std::pair<HWND__ * const,bool> > > > *>
PUBLIC	??$_Fill_unchecked@PAV?$_List_unchecked_iterator@V?$_List_val@U?$_List_simple_types@U?$pair@QAUHWND__@@_N@std@@@std@@@std@@@std@@V12@@std@@YAXPAV?$_List_unchecked_iterator@V?$_List_val@U?$_List_simple_types@U?$pair@QAUHWND__@@_N@std@@@std@@@std@@@0@0ABV10@@Z ; std::_Fill_unchecked<std::_List_unchecked_iterator<std::_List_val<std::_List_simple_types<std::pair<HWND__ * const,bool> > > > *,std::_List_unchecked_iterator<std::_List_val<std::_List_simple_types<std::pair<HWND__ * const,bool> > > > >
PUBLIC	??$addressof@PAU?$_List_node@U?$pair@QAUHWND__@@_N@std@@PAX@std@@@std@@YAPAPAU?$_List_node@U?$pair@QAUHWND__@@_N@std@@PAX@0@AAPAU10@@Z ; std::addressof<std::_List_node<std::pair<HWND__ * const,bool>,void *> *>
PUBLIC	??$destroy@PAU?$_List_node@U?$pair@QAUHWND__@@_N@std@@PAX@std@@@?$_Wrap_alloc@V?$allocator@U?$_List_node@U?$pair@QAUHWND__@@_N@std@@PAX@std@@@std@@@std@@QAEXPAPAU?$_List_node@U?$pair@QAUHWND__@@_N@std@@PAX@1@@Z ; std::_Wrap_alloc<std::allocator<std::_List_node<std::pair<HWND__ * const,bool>,void *> > >::destroy<std::_List_node<std::pair<HWND__ * const,bool>,void *> *>
PUBLIC	??$_Uninitialized_fill_n@PAV?$_List_unchecked_const_iterator@V?$_List_val@U?$_List_simple_types@PAUHWND__@@@std@@@std@@U_Iterator_base0@2@@std@@IU?$_Wrap_alloc@V?$allocator@V?$_List_unchecked_const_iterator@V?$_List_val@U?$_List_simple_types@PAUHWND__@@@std@@@std@@U_Iterator_base0@2@@std@@@std@@@2@@std@@YAPAV?$_List_unchecked_const_iterator@V?$_List_val@U?$_List_simple_types@PAUHWND__@@@std@@@std@@U_Iterator_base0@2@@0@PAV10@IABV10@AAU?$_Wrap_alloc@U?$_Wrap_alloc@V?$allocator@V?$_List_unchecked_const_iterator@V?$_List_val@U?$_List_simple_types@PAUHWND__@@@std@@@std@@U_Iterator_base0@2@@std@@@std@@@std@@@0@@Z ; std::_Uninitialized_fill_n<std::_List_unchecked_const_iterator<std::_List_val<std::_List_simple_types<HWND__ *> >,std::_Iterator_base0> *,unsigned int,std::_Wrap_alloc<std::allocator<std::_List_unchecked_const_iterator<std::_List_val<std::_List_simple_types<HWND__ *> >,std::_Iterator_base0> > > >
PUBLIC	??$addressof@PAUHWND__@@@std@@YAPAPAUHWND__@@AAPAU1@@Z ; std::addressof<HWND__ *>
PUBLIC	??$destroy@PAUHWND__@@@?$_Wrap_alloc@V?$allocator@U?$_List_node@PAUHWND__@@PAX@std@@@std@@@std@@QAEXPAPAUHWND__@@@Z ; std::_Wrap_alloc<std::allocator<std::_List_node<HWND__ *,void *> > >::destroy<HWND__ *>
PUBLIC	??$_Uninitialized_fill_n@PAV?$_List_unchecked_iterator@V?$_List_val@U?$_List_simple_types@U?$pair@QAUHWND__@@_N@std@@@std@@@std@@@std@@IU?$_Wrap_alloc@V?$allocator@V?$_List_unchecked_iterator@V?$_List_val@U?$_List_simple_types@U?$pair@QAUHWND__@@_N@std@@@std@@@std@@@std@@@std@@@2@@std@@YAPAV?$_List_unchecked_iterator@V?$_List_val@U?$_List_simple_types@U?$pair@QAUHWND__@@_N@std@@@std@@@std@@@0@PAV10@IABV10@AAU?$_Wrap_alloc@U?$_Wrap_alloc@V?$allocator@V?$_List_unchecked_iterator@V?$_List_val@U?$_List_simple_types@U?$pair@QAUHWND__@@_N@std@@@std@@@std@@@std@@@std@@@std@@@0@@Z ; std::_Uninitialized_fill_n<std::_List_unchecked_iterator<std::_List_val<std::_List_simple_types<std::pair<HWND__ * const,bool> > > > *,unsigned int,std::_Wrap_alloc<std::allocator<std::_List_unchecked_iterator<std::_List_val<std::_List_simple_types<std::pair<HWND__ * const,bool> > > > > > >
PUBLIC	??$destroy@U?$pair@QAUHWND__@@_N@std@@@?$_Wrap_alloc@V?$allocator@U?$_List_node@U?$pair@QAUHWND__@@_N@std@@PAX@std@@@std@@@std@@QAEXPAU?$pair@QAUHWND__@@_N@1@@Z ; std::_Wrap_alloc<std::allocator<std::_List_node<std::pair<HWND__ * const,bool>,void *> > >::destroy<std::pair<HWND__ * const,bool> >
PUBLIC	??$addressof@V?$_List_val@U?$_List_simple_types@U?$pair@QAUHWND__@@_N@std@@@std@@@std@@@std@@YAPAV?$_List_val@U?$_List_simple_types@U?$pair@QAUHWND__@@_N@std@@@std@@@0@AAV10@@Z ; std::addressof<std::_List_val<std::_List_simple_types<std::pair<HWND__ * const,bool> > > >
PUBLIC	??$_Fn@U?$_Wrap_alloc@V?$allocator@V?$_List_unchecked_const_iterator@V?$_List_val@U?$_List_simple_types@PAUHWND__@@@std@@@std@@U_Iterator_base0@2@@std@@@std@@@std@@@_Alloc_max_size@std@@SAIHABU?$_Wrap_alloc@V?$allocator@V?$_List_unchecked_const_iterator@V?$_List_val@U?$_List_simple_types@PAUHWND__@@@std@@@std@@U_Iterator_base0@2@@std@@@std@@@1@@Z ; std::_Alloc_max_size::_Fn<std::_Wrap_alloc<std::allocator<std::_List_unchecked_const_iterator<std::_List_val<std::_List_simple_types<HWND__ *> >,std::_Iterator_base0> > > >
PUBLIC	??$_Uninitialized_move@PAV?$_List_unchecked_const_iterator@V?$_List_val@U?$_List_simple_types@PAUHWND__@@@std@@@std@@U_Iterator_base0@2@@std@@PAV12@U?$_Wrap_alloc@V?$allocator@V?$_List_unchecked_const_iterator@V?$_List_val@U?$_List_simple_types@PAUHWND__@@@std@@@std@@U_Iterator_base0@2@@std@@@std@@@2@@std@@YAPAV?$_List_unchecked_const_iterator@V?$_List_val@U?$_List_simple_types@PAUHWND__@@@std@@@std@@U_Iterator_base0@2@@0@PAV10@00AAU?$_Wrap_alloc@U?$_Wrap_alloc@V?$allocator@V?$_List_unchecked_const_iterator@V?$_List_val@U?$_List_simple_types@PAUHWND__@@@std@@@std@@U_Iterator_base0@2@@std@@@std@@@std@@@0@@Z ; std::_Uninitialized_move<std::_List_unchecked_const_iterator<std::_List_val<std::_List_simple_types<HWND__ *> >,std::_Iterator_base0> *,std::_List_unchecked_const_iterator<std::_List_val<std::_List_simple_types<HWND__ *> >,std::_Iterator_base0> *,std::_Wrap_alloc<std::allocator<std::_List_unchecked_const_iterator<std::_List_val<std::_List_simple_types<HWND__ *> >,std::_Iterator_base0> > > >
PUBLIC	??$_Fn@U?$_Wrap_alloc@V?$allocator@V?$_List_unchecked_iterator@V?$_List_val@U?$_List_simple_types@U?$pair@QAUHWND__@@_N@std@@@std@@@std@@@std@@@std@@@std@@@_Alloc_max_size@std@@SAIHABU?$_Wrap_alloc@V?$allocator@V?$_List_unchecked_iterator@V?$_List_val@U?$_List_simple_types@U?$pair@QAUHWND__@@_N@std@@@std@@@std@@@std@@@std@@@1@@Z ; std::_Alloc_max_size::_Fn<std::_Wrap_alloc<std::allocator<std::_List_unchecked_iterator<std::_List_val<std::_List_simple_types<std::pair<HWND__ * const,bool> > > > > > >
PUBLIC	??$_Uninitialized_move@PAV?$_List_unchecked_iterator@V?$_List_val@U?$_List_simple_types@U?$pair@QAUHWND__@@_N@std@@@std@@@std@@@std@@PAV12@U?$_Wrap_alloc@V?$allocator@V?$_List_unchecked_iterator@V?$_List_val@U?$_List_simple_types@U?$pair@QAUHWND__@@_N@std@@@std@@@std@@@std@@@std@@@2@@std@@YAPAV?$_List_unchecked_iterator@V?$_List_val@U?$_List_simple_types@U?$pair@QAUHWND__@@_N@std@@@std@@@std@@@0@PAV10@00AAU?$_Wrap_alloc@U?$_Wrap_alloc@V?$allocator@V?$_List_unchecked_iterator@V?$_List_val@U?$_List_simple_types@U?$pair@QAUHWND__@@_N@std@@@std@@@std@@@std@@@std@@@std@@@0@@Z ; std::_Uninitialized_move<std::_List_unchecked_iterator<std::_List_val<std::_List_simple_types<std::pair<HWND__ * const,bool> > > > *,std::_List_unchecked_iterator<std::_List_val<std::_List_simple_types<std::pair<HWND__ * const,bool> > > > *,std::_Wrap_alloc<std::allocator<std::_List_unchecked_iterator<std::_List_val<std::_List_simple_types<std::pair<HWND__ * const,bool> > > > > > >
PUBLIC	??$forward@AAPAUHWND__@@@std@@YAAAPAUHWND__@@AAPAU1@@Z ; std::forward<HWND__ * &>
PUBLIC	??$emplace_front@AAPAUHWND__@@@?$list@PAUHWND__@@V?$allocator@PAUHWND__@@@std@@@std@@QAEXAAPAUHWND__@@@Z ; std::list<HWND__ *,std::allocator<HWND__ *> >::emplace_front<HWND__ * &>
PUBLIC	??$_Insert@AAPAUHWND__@@V?$_List_unchecked_const_iterator@V?$_List_val@U?$_List_simple_types@PAUHWND__@@@std@@@std@@U_Iterator_base0@2@@std@@@?$_Hash@V?$_Uset_traits@PAUHWND__@@V?$_Uhash_compare@PAUHWND__@@U?$hash@PAUHWND__@@@std@@U?$equal_to@PAUHWND__@@@3@@std@@V?$allocator@PAUHWND__@@@3@$0A@@std@@@std@@IAE?AU?$pair@V?$_List_const_iterator@V?$_List_val@U?$_List_simple_types@PAUHWND__@@@std@@@std@@@std@@_N@1@AAPAUHWND__@@V?$_List_unchecked_const_iterator@V?$_List_val@U?$_List_simple_types@PAUHWND__@@@std@@@std@@U_Iterator_base0@2@@1@@Z ; std::_Hash<std::_Uset_traits<HWND__ *,std::_Uhash_compare<HWND__ *,std::hash<HWND__ *>,std::equal_to<HWND__ *> >,std::allocator<HWND__ *>,0> >::_Insert<HWND__ * &,std::_List_unchecked_const_iterator<std::_List_val<std::_List_simple_types<HWND__ *> >,std::_Iterator_base0> >
PUBLIC	??$_Distance1@V?$_List_const_iterator@V?$_List_val@U?$_List_simple_types@PAUHWND__@@@std@@@std@@@std@@@std@@YAHV?$_List_const_iterator@V?$_List_val@U?$_List_simple_types@PAUHWND__@@@std@@@std@@@0@0Uinput_iterator_tag@0@@Z ; std::_Distance1<std::_List_const_iterator<std::_List_val<std::_List_simple_types<HWND__ *> > > >
PUBLIC	??$_Try_emplace@ABQAUHWND__@@$$V@?$unordered_map@PAUHWND__@@_NU?$hash@PAUHWND__@@@std@@U?$equal_to@PAUHWND__@@@3@V?$allocator@U?$pair@QAUHWND__@@_N@std@@@3@@std@@QAE?AU?$pair@V?$_List_iterator@V?$_List_val@U?$_List_simple_types@U?$pair@QAUHWND__@@_N@std@@@std@@@std@@@std@@_N@1@ABQAUHWND__@@@Z ; std::unordered_map<HWND__ *,bool,std::hash<HWND__ *>,std::equal_to<HWND__ *>,std::allocator<std::pair<HWND__ * const,bool> > >::_Try_emplace<HWND__ * const &>
PUBLIC	??$forward@U_One_then_variadic_args_t@std@@@std@@YA$$QAU_One_then_variadic_args_t@0@AAU10@@Z ; std::forward<std::_One_then_variadic_args_t>
PUBLIC	??$forward@M@std@@YA$$QAMAAM@Z			; std::forward<float>
PUBLIC	??$forward@V?$_List_const_iterator@V?$_List_val@U?$_List_simple_types@PAUHWND__@@@std@@@std@@@std@@@std@@YA$$QAV?$_List_const_iterator@V?$_List_val@U?$_List_simple_types@PAUHWND__@@@std@@@std@@@0@AAV10@@Z ; std::forward<std::_List_const_iterator<std::_List_val<std::_List_simple_types<HWND__ *> > > >
PUBLIC	??$forward@ABV?$allocator@PAUHWND__@@@std@@@std@@YAABV?$allocator@PAUHWND__@@@0@ABV10@@Z ; std::forward<std::allocator<HWND__ *> const &>
PUBLIC	??$?0PAUHWND__@@@?$allocator@V?$_List_unchecked_const_iterator@V?$_List_val@U?$_List_simple_types@PAUHWND__@@@std@@@std@@U_Iterator_base0@2@@std@@@std@@QAE@ABV?$allocator@PAUHWND__@@@1@@Z ; std::allocator<std::_List_unchecked_const_iterator<std::_List_val<std::_List_simple_types<HWND__ *> >,std::_Iterator_base0> >::allocator<std::_List_unchecked_const_iterator<std::_List_val<std::_List_simple_types<HWND__ *> >,std::_Iterator_base0> ><HWND__ *>
PUBLIC	??$forward@ABV?$allocator@U?$pair@QAUHWND__@@_N@std@@@std@@@std@@YAABV?$allocator@U?$pair@QAUHWND__@@_N@std@@@0@ABV10@@Z ; std::forward<std::allocator<std::pair<HWND__ * const,bool> > const &>
PUBLIC	??$?0U?$pair@QAUHWND__@@_N@std@@@?$allocator@V?$_List_unchecked_iterator@V?$_List_val@U?$_List_simple_types@U?$pair@QAUHWND__@@_N@std@@@std@@@std@@@std@@@std@@QAE@ABV?$allocator@U?$pair@QAUHWND__@@_N@std@@@1@@Z ; std::allocator<std::_List_unchecked_iterator<std::_List_val<std::_List_simple_types<std::pair<HWND__ * const,bool> > > > >::allocator<std::_List_unchecked_iterator<std::_List_val<std::_List_simple_types<std::pair<HWND__ * const,bool> > > > ><std::pair<HWND__ * const,bool> >
PUBLIC	??$forward@AAU?$hash@PAUHWND__@@@std@@@std@@YAAAU?$hash@PAUHWND__@@@0@AAU10@@Z ; std::forward<std::hash<HWND__ *> &>
PUBLIC	??$forward@AAU?$equal_to@PAUHWND__@@@std@@@std@@YAAAU?$equal_to@PAUHWND__@@@0@AAU10@@Z ; std::forward<std::equal_to<HWND__ *> &>
PUBLIC	??$?0AAU?$equal_to@PAUHWND__@@@std@@M@?$_Compressed_pair@U?$equal_to@PAUHWND__@@@std@@M$00@std@@QAE@U_One_then_variadic_args_t@1@AAU?$equal_to@PAUHWND__@@@1@$$QAM@Z ; std::_Compressed_pair<std::equal_to<HWND__ *>,float,1>::_Compressed_pair<std::equal_to<HWND__ *>,float,1><std::equal_to<HWND__ *> &,float>
PUBLIC	??$destroy@PA_W@?$allocator_traits@V?$allocator@_W@std@@@std@@SAXAAV?$allocator@_W@1@PAPA_W@Z ; std::allocator_traits<std::allocator<wchar_t> >::destroy<wchar_t *>
PUBLIC	??$destroy@PAD@?$allocator_traits@V?$allocator@D@std@@@std@@SAXAAV?$allocator@D@1@PAPAD@Z ; std::allocator_traits<std::allocator<char> >::destroy<char *>
PUBLIC	??$forward@ABU?$_Wrap_alloc@V?$allocator@V?$_List_unchecked_const_iterator@V?$_List_val@U?$_List_simple_types@PAUHWND__@@@std@@@std@@U_Iterator_base0@2@@std@@@std@@@std@@@std@@YAABU?$_Wrap_alloc@V?$allocator@V?$_List_unchecked_const_iterator@V?$_List_val@U?$_List_simple_types@PAUHWND__@@@std@@@std@@U_Iterator_base0@2@@std@@@std@@@0@ABU10@@Z ; std::forward<std::_Wrap_alloc<std::allocator<std::_List_unchecked_const_iterator<std::_List_val<std::_List_simple_types<HWND__ *> >,std::_Iterator_base0> > > const &>
PUBLIC	??$?0ABU?$_Wrap_alloc@V?$allocator@V?$_List_unchecked_const_iterator@V?$_List_val@U?$_List_simple_types@PAUHWND__@@@std@@@std@@U_Iterator_base0@2@@std@@@std@@@std@@$$V@?$_Compressed_pair@U?$_Wrap_alloc@U?$_Wrap_alloc@V?$allocator@V?$_List_unchecked_const_iterator@V?$_List_val@U?$_List_simple_types@PAUHWND__@@@std@@@std@@U_Iterator_base0@2@@std@@@std@@@std@@@std@@V?$_Vector_val@U?$_Simple_types@V?$_List_unchecked_const_iterator@V?$_List_val@U?$_List_simple_types@PAUHWND__@@@std@@@std@@U_Iterator_base0@2@@std@@@std@@@2@$00@std@@QAE@U_One_then_variadic_args_t@1@ABU?$_Wrap_alloc@V?$allocator@V?$_List_unchecked_const_iterator@V?$_List_val@U?$_List_simple_types@PAUHWND__@@@std@@@std@@U_Iterator_base0@2@@std@@@std@@@1@@Z ; std::_Compressed_pair<std::_Wrap_alloc<std::_Wrap_alloc<std::allocator<std::_List_unchecked_const_iterator<std::_List_val<std::_List_simple_types<HWND__ *> >,std::_Iterator_base0> > > >,std::_Vector_val<std::_Simple_types<std::_List_unchecked_const_iterator<std::_List_val<std::_List_simple_types<HWND__ *> >,std::_Iterator_base0> > >,1>::_Compressed_pair<std::_Wrap_alloc<std::_Wrap_alloc<std::allocator<std::_List_unchecked_const_iterator<std::_List_val<std::_List_simple_types<HWND__ *> >,std::_Iterator_base0> > > >,std::_Vector_val<std::_Simple_types<std::_List_unchecked_const_iterator<std::_List_val<std::_List_simple_types<HWND__ *> >,std::_Iterator_base0> > >,1><std::_Wrap_alloc<std::allocator<std::_List_unchecked_const_iterator<std::_List_val<std::_List_simple_types<HWND__ *> >,std::_Iterator_base0> > > const &>
PUBLIC	??$?0ABV?$allocator@PAUHWND__@@@std@@X@?$_List_alloc@U?$_List_base_types@PAUHWND__@@V?$allocator@PAUHWND__@@@std@@@std@@@std@@QAE@ABV?$allocator@PAUHWND__@@@1@@Z ; std::_List_alloc<std::_List_base_types<HWND__ *,std::allocator<HWND__ *> > >::_List_alloc<std::_List_base_types<HWND__ *,std::allocator<HWND__ *> > ><std::allocator<HWND__ *> const &,void>
PUBLIC	??$forward@ABU?$_Wrap_alloc@V?$allocator@V?$_List_unchecked_iterator@V?$_List_val@U?$_List_simple_types@U?$pair@QAUHWND__@@_N@std@@@std@@@std@@@std@@@std@@@std@@@std@@YAABU?$_Wrap_alloc@V?$allocator@V?$_List_unchecked_iterator@V?$_List_val@U?$_List_simple_types@U?$pair@QAUHWND__@@_N@std@@@std@@@std@@@std@@@std@@@0@ABU10@@Z ; std::forward<std::_Wrap_alloc<std::allocator<std::_List_unchecked_iterator<std::_List_val<std::_List_simple_types<std::pair<HWND__ * const,bool> > > > > > const &>
PUBLIC	??$?0ABU?$_Wrap_alloc@V?$allocator@V?$_List_unchecked_iterator@V?$_List_val@U?$_List_simple_types@U?$pair@QAUHWND__@@_N@std@@@std@@@std@@@std@@@std@@@std@@$$V@?$_Compressed_pair@U?$_Wrap_alloc@U?$_Wrap_alloc@V?$allocator@V?$_List_unchecked_iterator@V?$_List_val@U?$_List_simple_types@U?$pair@QAUHWND__@@_N@std@@@std@@@std@@@std@@@std@@@std@@@std@@V?$_Vector_val@U?$_Simple_types@V?$_List_unchecked_iterator@V?$_List_val@U?$_List_simple_types@U?$pair@QAUHWND__@@_N@std@@@std@@@std@@@std@@@std@@@2@$00@std@@QAE@U_One_then_variadic_args_t@1@ABU?$_Wrap_alloc@V?$allocator@V?$_List_unchecked_iterator@V?$_List_val@U?$_List_simple_types@U?$pair@QAUHWND__@@_N@std@@@std@@@std@@@std@@@std@@@1@@Z ; std::_Compressed_pair<std::_Wrap_alloc<std::_Wrap_alloc<std::allocator<std::_List_unchecked_iterator<std::_List_val<std::_List_simple_types<std::pair<HWND__ * const,bool> > > > > > >,std::_Vector_val<std::_Simple_types<std::_List_unchecked_iterator<std::_List_val<std::_List_simple_types<std::pair<HWND__ * const,bool> > > > > >,1>::_Compressed_pair<std::_Wrap_alloc<std::_Wrap_alloc<std::allocator<std::_List_unchecked_iterator<std::_List_val<std::_List_simple_types<std::pair<HWND__ * const,bool> > > > > > >,std::_Vector_val<std::_Simple_types<std::_List_unchecked_iterator<std::_List_val<std::_List_simple_types<std::pair<HWND__ * const,bool> > > > > >,1><std::_Wrap_alloc<std::allocator<std::_List_unchecked_iterator<std::_List_val<std::_List_simple_types<std::pair<HWND__ * const,bool> > > > > > const &>
PUBLIC	??$?0ABV?$allocator@U?$pair@QAUHWND__@@_N@std@@@std@@X@?$_List_alloc@U?$_List_base_types@U?$pair@QAUHWND__@@_N@std@@V?$allocator@U?$pair@QAUHWND__@@_N@std@@@2@@std@@@std@@QAE@ABV?$allocator@U?$pair@QAUHWND__@@_N@std@@@1@@Z ; std::_List_alloc<std::_List_base_types<std::pair<HWND__ * const,bool>,std::allocator<std::pair<HWND__ * const,bool> > > >::_List_alloc<std::_List_base_types<std::pair<HWND__ * const,bool>,std::allocator<std::pair<HWND__ * const,bool> > > ><std::allocator<std::pair<HWND__ * const,bool> > const &,void>
PUBLIC	??$_Destroy_range1@U?$_Wrap_alloc@V?$allocator@V?$_List_unchecked_const_iterator@V?$_List_val@U?$_List_simple_types@PAUHWND__@@@std@@@std@@U_Iterator_base0@2@@std@@@std@@@std@@PAV?$_List_unchecked_const_iterator@V?$_List_val@U?$_List_simple_types@PAUHWND__@@@std@@@std@@U_Iterator_base0@2@@2@@std@@YAXPAV?$_List_unchecked_const_iterator@V?$_List_val@U?$_List_simple_types@PAUHWND__@@@std@@@std@@U_Iterator_base0@2@@0@0AAU?$_Wrap_alloc@U?$_Wrap_alloc@V?$allocator@V?$_List_unchecked_const_iterator@V?$_List_val@U?$_List_simple_types@PAUHWND__@@@std@@@std@@U_Iterator_base0@2@@std@@@std@@@std@@@0@U?$integral_constant@_N$0A@@0@@Z ; std::_Destroy_range1<std::_Wrap_alloc<std::allocator<std::_List_unchecked_const_iterator<std::_List_val<std::_List_simple_types<HWND__ *> >,std::_Iterator_base0> > >,std::_List_unchecked_const_iterator<std::_List_val<std::_List_simple_types<HWND__ *> >,std::_Iterator_base0> *>
PUBLIC	??$_Fill_memset_is_safe@PAV?$_List_unchecked_const_iterator@V?$_List_val@U?$_List_simple_types@PAUHWND__@@@std@@@std@@U_Iterator_base0@2@@std@@V12@@std@@YA?AU?$integral_constant@_N$0A@@0@ABQAV?$_List_unchecked_const_iterator@V?$_List_val@U?$_List_simple_types@PAUHWND__@@@std@@@std@@U_Iterator_base0@2@@0@ABV20@@Z ; std::_Fill_memset_is_safe<std::_List_unchecked_const_iterator<std::_List_val<std::_List_simple_types<HWND__ *> >,std::_Iterator_base0> *,std::_List_unchecked_const_iterator<std::_List_val<std::_List_simple_types<HWND__ *> >,std::_Iterator_base0> >
PUBLIC	??$_Fill_unchecked1@PAV?$_List_unchecked_const_iterator@V?$_List_val@U?$_List_simple_types@PAUHWND__@@@std@@@std@@U_Iterator_base0@2@@std@@V12@@std@@YAXPAV?$_List_unchecked_const_iterator@V?$_List_val@U?$_List_simple_types@PAUHWND__@@@std@@@std@@U_Iterator_base0@2@@0@0ABV10@U?$integral_constant@_N$0A@@0@@Z ; std::_Fill_unchecked1<std::_List_unchecked_const_iterator<std::_List_val<std::_List_simple_types<HWND__ *> >,std::_Iterator_base0> *,std::_List_unchecked_const_iterator<std::_List_val<std::_List_simple_types<HWND__ *> >,std::_Iterator_base0> >
PUBLIC	??$destroy@PAU?$_List_node@PAUHWND__@@PAX@std@@@?$allocator_traits@V?$allocator@U?$_List_node@PAUHWND__@@PAX@std@@@std@@@std@@SAXAAV?$allocator@U?$_List_node@PAUHWND__@@PAX@std@@@1@PAPAU?$_List_node@PAUHWND__@@PAX@1@@Z ; std::allocator_traits<std::allocator<std::_List_node<HWND__ *,void *> > >::destroy<std::_List_node<HWND__ *,void *> *>
PUBLIC	??$_Destroy_range1@U?$_Wrap_alloc@V?$allocator@V?$_List_unchecked_iterator@V?$_List_val@U?$_List_simple_types@U?$pair@QAUHWND__@@_N@std@@@std@@@std@@@std@@@std@@@std@@PAV?$_List_unchecked_iterator@V?$_List_val@U?$_List_simple_types@U?$pair@QAUHWND__@@_N@std@@@std@@@std@@@2@@std@@YAXPAV?$_List_unchecked_iterator@V?$_List_val@U?$_List_simple_types@U?$pair@QAUHWND__@@_N@std@@@std@@@std@@@0@0AAU?$_Wrap_alloc@U?$_Wrap_alloc@V?$allocator@V?$_List_unchecked_iterator@V?$_List_val@U?$_List_simple_types@U?$pair@QAUHWND__@@_N@std@@@std@@@std@@@std@@@std@@@std@@@0@U?$integral_constant@_N$0A@@0@@Z ; std::_Destroy_range1<std::_Wrap_alloc<std::allocator<std::_List_unchecked_iterator<std::_List_val<std::_List_simple_types<std::pair<HWND__ * const,bool> > > > > >,std::_List_unchecked_iterator<std::_List_val<std::_List_simple_types<std::pair<HWND__ * const,bool> > > > *>
PUBLIC	??$_Fill_memset_is_safe@PAV?$_List_unchecked_iterator@V?$_List_val@U?$_List_simple_types@U?$pair@QAUHWND__@@_N@std@@@std@@@std@@@std@@V12@@std@@YA?AU?$integral_constant@_N$0A@@0@ABQAV?$_List_unchecked_iterator@V?$_List_val@U?$_List_simple_types@U?$pair@QAUHWND__@@_N@std@@@std@@@std@@@0@ABV20@@Z ; std::_Fill_memset_is_safe<std::_List_unchecked_iterator<std::_List_val<std::_List_simple_types<std::pair<HWND__ * const,bool> > > > *,std::_List_unchecked_iterator<std::_List_val<std::_List_simple_types<std::pair<HWND__ * const,bool> > > > >
