; Listing generated by Microsoft (R) Optimizing Compiler Version 19.10.25019.0 

	TITLE	C:\Users\andon\Source\Repos\SpecialK\src\input\xinput_core.cpp
	.686P
	.XMM
	include listing.inc
	.model	flat

INCLUDELIB MSVCRT
INCLUDELIB OLDNAMES

PUBLIC	?xinput_enabled@@3HA				; xinput_enabled
_DATA	SEGMENT
?xinput_enabled@@3HA DD 01H				; xinput_enabled
_DATA	ENDS
CONST	SEGMENT
$SG132222 DB	'[', 00H, 'I', 00H, 'n', 00H, 'p', 00H, 'u', 00H, 't', 00H
	DB	' ', 00H, 'M', 00H, 'g', 00H, 'r', 00H, '.', 00H, ']', 00H, ' '
	DB	00H, 'W', 00H, 'A', 00H, 'R', 00H, 'N', 00H, 'I', 00H, 'N', 00H
	DB	'G', 00H, ':', 00H, ' ', 00H, 'T', 00H, 'h', 00H, 'i', 00H, 'r'
	DB	00H, 'd', 00H, '-', 00H, 'p', 00H, 'a', 00H, 'r', 00H, 't', 00H
	DB	'y', 00H, ' ', 00H, 'm', 00H, 'o', 00H, 'd', 00H, 'u', 00H, 'l'
	DB	00H, 'e', 00H, ' ', 00H, '''', 00H, '%', 00H, 's', 00H, '''', 00H
	DB	' ', 00H, 'u', 00H, 's', 00H, 'e', 00H, 's', 00H, ' ', 00H, 'd'
	DB	00H, 'i', 00H, 'f', 00H, 'f', 00H, 'e', 00H, 'r', 00H, 'e', 00H
	DB	'n', 00H, 't', 00H, ' ', 00H, 'X', 00H, 'I', 00H, 'n', 00H, 'p'
	DB	00H, 'u', 00H, 't', 00H, ' ', 00H, 'i', 00H, 'n', 00H, 't', 00H
	DB	'e', 00H, 'r', 00H, 'f', 00H, 'a', 00H, 'c', 00H, 'e', 00H, ' '
	DB	00H, 'v', 00H, 'e', 00H, 'r', 00H, 's', 00H, 'i', 00H, 'o', 00H
	DB	'n', 00H, ' ', 00H, '(', 00H, '%', 00H, 's', 00H, ')', 00H, ' '
	DB	00H, 't', 00H, 'h', 00H, 'a', 00H, 'n', 00H, ' ', 00H, 't', 00H
	DB	'h', 00H, 'e', 00H, ' ', 00H, 'g', 00H, 'a', 00H, 'm', 00H, 'e'
	DB	00H, ' ', 00H, '(', 00H, '%', 00H, 's', 00H, ')', 00H, ';', 00H
	DB	' ', 00H, 'i', 00H, 'n', 00H, 'p', 00H, 'u', 00H, 't', 00H, ' '
	DB	00H, 'r', 00H, 'e', 00H, 'a', 00H, 's', 00H, 's', 00H, 'i', 00H
	DB	'g', 00H, 'n', 00H, 'm', 00H, 'e', 00H, 'n', 00H, 't', 00H, ' '
	DB	00H, 's', 00H, 'o', 00H, 'f', 00H, 't', 00H, 'w', 00H, 'a', 00H
	DB	'r', 00H, 'e', 00H, ' ', 00H, 'm', 00H, 'a', 00H, 'y', 00H, ' '
	DB	00H, 'n', 00H, 'o', 00H, 't', 00H, ' ', 00H, 'w', 00H, 'o', 00H
	DB	'r', 00H, 'k', 00H, ' ', 00H, 'c', 00H, 'o', 00H, 'r', 00H, 'r'
	DB	00H, 'e', 00H, 'c', 00H, 't', 00H, 'l', 00H, 'y', 00H, '.', 00H
	DB	00H, 00H
	ORG $+2
$SG132255 DB	'XInputGetState1_3_Detour', 00H
	ORG $+7
$SG132256 DB	'[', 00H, 'I', 00H, 'n', 00H, 'p', 00H, 'u', 00H, 't', 00H
	DB	' ', 00H, 'M', 00H, 'g', 00H, 'r', 00H, '.', 00H, ']', 00H, ' '
	DB	00H, '[', 00H, '!', 00H, ']', 00H, ' ', 00H, '>', 00H, ' ', 00H
	DB	'F', 00H, 'i', 00H, 'r', 00H, 's', 00H, 't', 00H, ' ', 00H, 'C'
	DB	00H, 'a', 00H, 'l', 00H, 'l', 00H, ':', 00H, ' ', 00H, '%', 00H
	DB	'3', 00H, '4', 00H, 'h', 00H, 's', 00H, 00H, 00H
	ORG $+2
$SG132280 DB	'XInputGetStateEx1_3_Detour', 00H
	ORG $+1
$SG132281 DB	'[', 00H, 'I', 00H, 'n', 00H, 'p', 00H, 'u', 00H, 't', 00H
	DB	' ', 00H, 'M', 00H, 'g', 00H, 'r', 00H, '.', 00H, ']', 00H, ' '
	DB	00H, '[', 00H, '!', 00H, ']', 00H, ' ', 00H, '>', 00H, ' ', 00H
	DB	'F', 00H, 'i', 00H, 'r', 00H, 's', 00H, 't', 00H, ' ', 00H, 'C'
	DB	00H, 'a', 00H, 'l', 00H, 'l', 00H, ':', 00H, ' ', 00H, '%', 00H
	DB	'3', 00H, '4', 00H, 'h', 00H, 's', 00H, 00H, 00H
	ORG $+2
$SG132305 DB	'XInputGetCapabilities1_3_Detour', 00H
	ORG $+4
$SG132306 DB	'[', 00H, 'I', 00H, 'n', 00H, 'p', 00H, 'u', 00H, 't', 00H
	DB	' ', 00H, 'M', 00H, 'g', 00H, 'r', 00H, '.', 00H, ']', 00H, ' '
	DB	00H, '[', 00H, '!', 00H, ']', 00H, ' ', 00H, '>', 00H, ' ', 00H
	DB	'F', 00H, 'i', 00H, 'r', 00H, 's', 00H, 't', 00H, ' ', 00H, 'C'
	DB	00H, 'a', 00H, 'l', 00H, 'l', 00H, ':', 00H, ' ', 00H, '%', 00H
	DB	'3', 00H, '4', 00H, 'h', 00H, 's', 00H, 00H, 00H
	ORG $+2
$SG132329 DB	'XInputGetBatteryInformation1_3_Detour', 00H
	ORG $+6
$SG132330 DB	'[', 00H, 'I', 00H, 'n', 00H, 'p', 00H, 'u', 00H, 't', 00H
	DB	' ', 00H, 'M', 00H, 'g', 00H, 'r', 00H, '.', 00H, ']', 00H, ' '
	DB	00H, '[', 00H, '!', 00H, ']', 00H, ' ', 00H, '>', 00H, ' ', 00H
	DB	'F', 00H, 'i', 00H, 'r', 00H, 's', 00H, 't', 00H, ' ', 00H, 'C'
	DB	00H, 'a', 00H, 'l', 00H, 'l', 00H, ':', 00H, ' ', 00H, '%', 00H
	DB	'3', 00H, '4', 00H, 'h', 00H, 's', 00H, 00H, 00H
	ORG $+2
$SG132353 DB	'XInputSetState1_3_Detour', 00H
	ORG $+3
$SG132354 DB	'[', 00H, 'I', 00H, 'n', 00H, 'p', 00H, 'u', 00H, 't', 00H
	DB	' ', 00H, 'M', 00H, 'g', 00H, 'r', 00H, '.', 00H, ']', 00H, ' '
	DB	00H, '[', 00H, '!', 00H, ']', 00H, ' ', 00H, '>', 00H, ' ', 00H
	DB	'F', 00H, 'i', 00H, 'r', 00H, 's', 00H, 't', 00H, ' ', 00H, 'C'
	DB	00H, 'a', 00H, 'l', 00H, 'l', 00H, ':', 00H, ' ', 00H, '%', 00H
	DB	'3', 00H, '4', 00H, 'h', 00H, 's', 00H, 00H, 00H
	ORG $+2
$SG132382 DB	'XInputGetState1_4_Detour', 00H
	ORG $+3
$SG132383 DB	'[', 00H, 'I', 00H, 'n', 00H, 'p', 00H, 'u', 00H, 't', 00H
	DB	' ', 00H, 'M', 00H, 'g', 00H, 'r', 00H, '.', 00H, ']', 00H, ' '
	DB	00H, '[', 00H, '!', 00H, ']', 00H, ' ', 00H, '>', 00H, ' ', 00H
	DB	'F', 00H, 'i', 00H, 'r', 00H, 's', 00H, 't', 00H, ' ', 00H, 'C'
	DB	00H, 'a', 00H, 'l', 00H, 'l', 00H, ':', 00H, ' ', 00H, '%', 00H
	DB	'3', 00H, '4', 00H, 'h', 00H, 's', 00H, 00H, 00H
	ORG $+2
$SG132407 DB	'XInputGetStateEx1_4_Detour', 00H
	ORG $+1
$SG132408 DB	'[', 00H, 'I', 00H, 'n', 00H, 'p', 00H, 'u', 00H, 't', 00H
	DB	' ', 00H, 'M', 00H, 'g', 00H, 'r', 00H, '.', 00H, ']', 00H, ' '
	DB	00H, '[', 00H, '!', 00H, ']', 00H, ' ', 00H, '>', 00H, ' ', 00H
	DB	'F', 00H, 'i', 00H, 'r', 00H, 's', 00H, 't', 00H, ' ', 00H, 'C'
	DB	00H, 'a', 00H, 'l', 00H, 'l', 00H, ':', 00H, ' ', 00H, '%', 00H
	DB	'3', 00H, '4', 00H, 'h', 00H, 's', 00H, 00H, 00H
	ORG $+2
$SG132433 DB	'XInputGetCapabilities1_4_Detour', 00H
	ORG $+4
$SG132434 DB	'[', 00H, 'I', 00H, 'n', 00H, 'p', 00H, 'u', 00H, 't', 00H
	DB	' ', 00H, 'M', 00H, 'g', 00H, 'r', 00H, '.', 00H, ']', 00H, ' '
	DB	00H, '[', 00H, '!', 00H, ']', 00H, ' ', 00H, '>', 00H, ' ', 00H
	DB	'F', 00H, 'i', 00H, 'r', 00H, 's', 00H, 't', 00H, ' ', 00H, 'C'
	DB	00H, 'a', 00H, 'l', 00H, 'l', 00H, ':', 00H, ' ', 00H, '%', 00H
	DB	'3', 00H, '4', 00H, 'h', 00H, 's', 00H, 00H, 00H
	ORG $+2
$SG132458 DB	'XInputGetBatteryInformation1_4_Detour', 00H
	ORG $+6
$SG132459 DB	'[', 00H, 'I', 00H, 'n', 00H, 'p', 00H, 'u', 00H, 't', 00H
	DB	' ', 00H, 'M', 00H, 'g', 00H, 'r', 00H, '.', 00H, ']', 00H, ' '
	DB	00H, '[', 00H, '!', 00H, ']', 00H, ' ', 00H, '>', 00H, ' ', 00H
	DB	'F', 00H, 'i', 00H, 'r', 00H, 's', 00H, 't', 00H, ' ', 00H, 'C'
	DB	00H, 'a', 00H, 'l', 00H, 'l', 00H, ':', 00H, ' ', 00H, '%', 00H
	DB	'3', 00H, '4', 00H, 'h', 00H, 's', 00H, 00H, 00H
	ORG $+2
$SG132482 DB	'XInputSetState1_4_Detour', 00H
	ORG $+3
$SG132483 DB	'[', 00H, 'I', 00H, 'n', 00H, 'p', 00H, 'u', 00H, 't', 00H
	DB	' ', 00H, 'M', 00H, 'g', 00H, 'r', 00H, '.', 00H, ']', 00H, ' '
	DB	00H, '[', 00H, '!', 00H, ']', 00H, ' ', 00H, '>', 00H, ' ', 00H
	DB	'F', 00H, 'i', 00H, 'r', 00H, 's', 00H, 't', 00H, ' ', 00H, 'C'
	DB	00H, 'a', 00H, 'l', 00H, 'l', 00H, ':', 00H, ' ', 00H, '%', 00H
	DB	'3', 00H, '4', 00H, 'h', 00H, 's', 00H, 00H, 00H
	ORG $+2
$SG132506 DB	'XInputGetState9_1_0_Detour', 00H
	ORG $+1
$SG132507 DB	'[', 00H, 'I', 00H, 'n', 00H, 'p', 00H, 'u', 00H, 't', 00H
	DB	' ', 00H, 'M', 00H, 'g', 00H, 'r', 00H, '.', 00H, ']', 00H, ' '
	DB	00H, '[', 00H, '!', 00H, ']', 00H, ' ', 00H, '>', 00H, ' ', 00H
	DB	'F', 00H, 'i', 00H, 'r', 00H, 's', 00H, 't', 00H, ' ', 00H, 'C'
	DB	00H, 'a', 00H, 'l', 00H, 'l', 00H, ':', 00H, ' ', 00H, '%', 00H
	DB	'3', 00H, '4', 00H, 'h', 00H, 's', 00H, 00H, 00H
	ORG $+2
$SG132533 DB	'XInputGetCapabilities9_1_0_Detour', 00H
	ORG $+2
$SG132534 DB	'[', 00H, 'I', 00H, 'n', 00H, 'p', 00H, 'u', 00H, 't', 00H
	DB	' ', 00H, 'M', 00H, 'g', 00H, 'r', 00H, '.', 00H, ']', 00H, ' '
	DB	00H, '[', 00H, '!', 00H, ']', 00H, ' ', 00H, '>', 00H, ' ', 00H
	DB	'F', 00H, 'i', 00H, 'r', 00H, 's', 00H, 't', 00H, ' ', 00H, 'C'
	DB	00H, 'a', 00H, 'l', 00H, 'l', 00H, ':', 00H, ' ', 00H, '%', 00H
	DB	'3', 00H, '4', 00H, 'h', 00H, 's', 00H, 00H, 00H
	ORG $+2
$SG132557 DB	'XInputSetState9_1_0_Detour', 00H
	ORG $+1
$SG132558 DB	'[', 00H, 'I', 00H, 'n', 00H, 'p', 00H, 'u', 00H, 't', 00H
	DB	' ', 00H, 'M', 00H, 'g', 00H, 'r', 00H, '.', 00H, ']', 00H, ' '
	DB	00H, '[', 00H, '!', 00H, ']', 00H, ' ', 00H, '>', 00H, ' ', 00H
	DB	'F', 00H, 'i', 00H, 'r', 00H, 's', 00H, 't', 00H, ' ', 00H, 'C'
	DB	00H, 'a', 00H, 'l', 00H, 'l', 00H, ':', 00H, ' ', 00H, '%', 00H
	DB	'3', 00H, '4', 00H, 'h', 00H, 's', 00H, 00H, 00H
	ORG $+2
$SG132605 DB	'XInputGetState', 00H
	ORG $+1
$SG132606 DB	'XInputGetState', 00H
	ORG $+1
$SG132607 DB	'XInputGetCapabilities', 00H
	ORG $+2
$SG132608 DB	'XInputGetCapabilities', 00H
	ORG $+2
$SG132609 DB	'XInputSetState', 00H
	ORG $+1
$SG132610 DB	'XInputSetState', 00H
	ORG $+1
$SG132611 DB	'XInputGetBatteryInformation', 00H
$SG132613 DB	'XInputGetBatteryInformation', 00H
$SG132615 DB	'XInputEnable', 00H
	ORG $+3
$SG132617 DB	'XInputEnable', 00H
	ORG $+7
$SG132636 DB	'[', 00H, ' ', 00H, ' ', 00H, ' ', 00H, 'I', 00H, 'n', 00H
	DB	'p', 00H, 'u', 00H, 't', 00H, ' ', 00H, ' ', 00H, ']', 00H, ' '
	DB	00H, ' ', 00H, ' ', 00H, '>', 00H, '>', 00H, ' ', 00H, 'H', 00H
	DB	'o', 00H, 'o', 00H, 'k', 00H, 'i', 00H, 'n', 00H, 'g', 00H, ' '
	DB	00H, 'X', 00H, 'I', 00H, 'n', 00H, 'p', 00H, 'u', 00H, 't', 00H
	DB	' ', 00H, '1', 00H, '.', 00H, '4', 00H, 00H, 00H
	ORG $+2
$SG132637 DB	'X', 00H, 'I', 00H, 'n', 00H, 'p', 00H, 'u', 00H, 't', 00H
	DB	'1', 00H, '_', 00H, '4', 00H, '.', 00H, 'd', 00H, 'l', 00H, 'l'
	DB	00H, 00H, 00H
$SG132651 DB	'[', 00H, ' ', 00H, ' ', 00H, ' ', 00H, 'I', 00H, 'n', 00H
	DB	'p', 00H, 'u', 00H, 't', 00H, ' ', 00H, ' ', 00H, ']', 00H, ' '
	DB	00H, ' ', 00H, ' ', 00H, '>', 00H, '>', 00H, ' ', 00H, 'H', 00H
	DB	'o', 00H, 'o', 00H, 'k', 00H, 'i', 00H, 'n', 00H, 'g', 00H, ' '
	DB	00H, 'X', 00H, 'I', 00H, 'n', 00H, 'p', 00H, 'u', 00H, 't', 00H
	DB	' ', 00H, '1', 00H, '.', 00H, '3', 00H, 00H, 00H
	ORG $+2
$SG132652 DB	'X', 00H, 'I', 00H, 'n', 00H, 'p', 00H, 'u', 00H, 't', 00H
	DB	'1', 00H, '_', 00H, '3', 00H, '.', 00H, 'd', 00H, 'l', 00H, 'l'
	DB	00H, 00H, 00H
$SG132666 DB	'[', 00H, ' ', 00H, ' ', 00H, ' ', 00H, 'I', 00H, 'n', 00H
	DB	'p', 00H, 'u', 00H, 't', 00H, ' ', 00H, ' ', 00H, ']', 00H, ' '
	DB	00H, ' ', 00H, ' ', 00H, '>', 00H, '>', 00H, ' ', 00H, 'H', 00H
	DB	'o', 00H, 'o', 00H, 'k', 00H, 'i', 00H, 'n', 00H, 'g', 00H, ' '
	DB	00H, 'X', 00H, 'I', 00H, 'n', 00H, 'p', 00H, 'u', 00H, 't', 00H
	DB	'9', 00H, '_', 00H, '1', 00H, '_', 00H, '0', 00H, 00H, 00H
$SG132667 DB	'X', 00H, 'I', 00H, 'n', 00H, 'p', 00H, 'u', 00H, 't', 00H
	DB	'9', 00H, '_', 00H, '1', 00H, '_', 00H, '0', 00H, '.', 00H, 'd'
	DB	00H, 'l', 00H, 'l', 00H, 00H, 00H
$SG132694 DB	'XInputGetState', 00H
	ORG $+5
$SG132696 DB	'[', 00H, 'I', 00H, 'n', 00H, 'p', 00H, 'u', 00H, 't', 00H
	DB	' ', 00H, 'M', 00H, 'g', 00H, 'r', 00H, '.', 00H, ']', 00H, ' '
	DB	00H, ' ', 00H, 'R', 00H, 'e', 00H, '-', 00H, 'h', 00H, 'o', 00H
	DB	'o', 00H, 'k', 00H, 'e', 00H, 'd', 00H, ' ', 00H, 'X', 00H, 'I'
	DB	00H, 'n', 00H, 'p', 00H, 'u', 00H, 't', 00H, ' ', 00H, 'u', 00H
	DB	's', 00H, 'i', 00H, 'n', 00H, 'g', 00H, ' ', 00H, '''', 00H, '%'
	DB	00H, 's', 00H, '''', 00H, '.', 00H, '.', 00H, '.', 00H, 00H, 00H
	ORG $+6
$SG132701 DB	'[', 00H, 'I', 00H, 'n', 00H, 'p', 00H, 'u', 00H, 't', 00H
	DB	' ', 00H, 'M', 00H, 'g', 00H, 'r', 00H, '.', 00H, ']', 00H, ' '
	DB	00H, ' ', 00H, 'F', 00H, 'a', 00H, 'i', 00H, 'l', 00H, 'e', 00H
	DB	'd', 00H, ' ', 00H, 't', 00H, 'o', 00H, ' ', 00H, 'r', 00H, 'e'
	DB	00H, '-', 00H, 'h', 00H, 'o', 00H, 'o', 00H, 'k', 00H, ' ', 00H
	DB	'X', 00H, 'I', 00H, 'n', 00H, 'p', 00H, 'u', 00H, 't', 00H, ' '
	DB	00H, 'u', 00H, 's', 00H, 'i', 00H, 'n', 00H, 'g', 00H, ' ', 00H
	DB	'''', 00H, '%', 00H, 's', 00H, '''', 00H, '.', 00H, '.', 00H, '.'
	DB	00H, 00H, 00H
	ORG $+6
$SG132703 DB	'[', 00H, 'I', 00H, 'n', 00H, 'p', 00H, 'u', 00H, 't', 00H
	DB	' ', 00H, 'M', 00H, 'g', 00H, 'r', 00H, '.', 00H, ']', 00H, ' '
	DB	00H, ' ', 00H, 'F', 00H, 'a', 00H, 'i', 00H, 'l', 00H, 'e', 00H
	DB	'd', 00H, ' ', 00H, 't', 00H, 'o', 00H, ' ', 00H, 'r', 00H, 'e'
	DB	00H, 'm', 00H, 'o', 00H, 'v', 00H, 'e', 00H, ' ', 00H, 'X', 00H
	DB	'I', 00H, 'n', 00H, 'p', 00H, 'u', 00H, 't', 00H, ' ', 00H, 'h'
	DB	00H, 'o', 00H, 'o', 00H, 'k', 00H, ' ', 00H, 'f', 00H, 'r', 00H
	DB	'o', 00H, 'm', 00H, ' ', 00H, '''', 00H, '%', 00H, 's', 00H, ''''
	DB	00H, '.', 00H, '.', 00H, '.', 00H, 00H, 00H
$SG132711 DB	'XInputSetState', 00H
	ORG $+1
$SG132713 DB	'[', 00H, 'I', 00H, 'n', 00H, 'p', 00H, 'u', 00H, 't', 00H
	DB	' ', 00H, 'M', 00H, 'g', 00H, 'r', 00H, '.', 00H, ']', 00H, ' '
	DB	00H, ' ', 00H, 'R', 00H, 'e', 00H, '-', 00H, 'h', 00H, 'o', 00H
	DB	'o', 00H, 'k', 00H, 'e', 00H, 'd', 00H, ' ', 00H, 'X', 00H, 'I'
	DB	00H, 'n', 00H, 'p', 00H, 'u', 00H, 't', 00H, ' ', 00H, '(', 00H
	DB	'S', 00H, 'e', 00H, 't', 00H, ')', 00H, ' ', 00H, 'u', 00H, 's'
	DB	00H, 'i', 00H, 'n', 00H, 'g', 00H, ' ', 00H, '''', 00H, '%', 00H
	DB	's', 00H, '''', 00H, '.', 00H, '.', 00H, '.', 00H, 00H, 00H
	ORG $+2
$SG132718 DB	'[', 00H, 'I', 00H, 'n', 00H, 'p', 00H, 'u', 00H, 't', 00H
	DB	' ', 00H, 'M', 00H, 'g', 00H, 'r', 00H, '.', 00H, ']', 00H, ' '
	DB	00H, ' ', 00H, 'F', 00H, 'a', 00H, 'i', 00H, 'l', 00H, 'e', 00H
	DB	'd', 00H, ' ', 00H, 't', 00H, 'o', 00H, ' ', 00H, 'r', 00H, 'e'
	DB	00H, '-', 00H, 'h', 00H, 'o', 00H, 'o', 00H, 'k', 00H, ' ', 00H
	DB	'X', 00H, 'I', 00H, 'n', 00H, 'p', 00H, 'u', 00H, 't', 00H, ' '
	DB	00H, '(', 00H, 'S', 00H, 'e', 00H, 't', 00H, ')', 00H, ' ', 00H
	DB	'u', 00H, 's', 00H, 'i', 00H, 'n', 00H, 'g', 00H, ' ', 00H, ''''
	DB	00H, '%', 00H, 's', 00H, '''', 00H, '.', 00H, '.', 00H, '.', 00H
	DB	00H, 00H
	ORG $+2
$SG132720 DB	'[', 00H, 'I', 00H, 'n', 00H, 'p', 00H, 'u', 00H, 't', 00H
	DB	' ', 00H, 'M', 00H, 'g', 00H, 'r', 00H, '.', 00H, ']', 00H, ' '
	DB	00H, ' ', 00H, 'F', 00H, 'a', 00H, 'i', 00H, 'l', 00H, 'e', 00H
	DB	'd', 00H, ' ', 00H, 't', 00H, 'o', 00H, ' ', 00H, 'r', 00H, 'e'
	DB	00H, 'm', 00H, 'o', 00H, 'v', 00H, 'e', 00H, ' ', 00H, 'X', 00H
	DB	'I', 00H, 'n', 00H, 'p', 00H, 'u', 00H, 't', 00H, ' ', 00H, '('
	DB	00H, 'S', 00H, 'e', 00H, 't', 00H, ')', 00H, ' ', 00H, 'h', 00H
	DB	'o', 00H, 'o', 00H, 'k', 00H, ' ', 00H, 'f', 00H, 'r', 00H, 'o'
	DB	00H, 'm', 00H, ' ', 00H, '''', 00H, '%', 00H, 's', 00H, '''', 00H
	DB	'.', 00H, '.', 00H, '.', 00H, 00H, 00H
$SG132721 DB	'XInputSetState', 00H
	ORG $+1
$SG132729 DB	'XInputGetCapabilities', 00H
	ORG $+6
$SG132731 DB	'[', 00H, 'I', 00H, 'n', 00H, 'p', 00H, 'u', 00H, 't', 00H
	DB	' ', 00H, 'M', 00H, 'g', 00H, 'r', 00H, '.', 00H, ']', 00H, ' '
	DB	00H, ' ', 00H, 'R', 00H, 'e', 00H, '-', 00H, 'h', 00H, 'o', 00H
	DB	'o', 00H, 'k', 00H, 'e', 00H, 'd', 00H, ' ', 00H, 'X', 00H, 'I'
	DB	00H, 'n', 00H, 'p', 00H, 'u', 00H, 't', 00H, ' ', 00H, '(', 00H
	DB	'C', 00H, 'a', 00H, 'p', 00H, 's', 00H, ')', 00H, ' ', 00H, 'u'
	DB	00H, 's', 00H, 'i', 00H, 'n', 00H, 'g', 00H, ' ', 00H, '''', 00H
	DB	'%', 00H, 's', 00H, '''', 00H, '.', 00H, '.', 00H, '.', 00H, 00H
	DB	00H
$SG132736 DB	'[', 00H, 'I', 00H, 'n', 00H, 'p', 00H, 'u', 00H, 't', 00H
	DB	' ', 00H, 'M', 00H, 'g', 00H, 'r', 00H, '.', 00H, ']', 00H, ' '
	DB	00H, ' ', 00H, 'F', 00H, 'a', 00H, 'i', 00H, 'l', 00H, 'e', 00H
	DB	'd', 00H, ' ', 00H, 't', 00H, 'o', 00H, ' ', 00H, 'r', 00H, 'e'
	DB	00H, '-', 00H, 'h', 00H, 'o', 00H, 'o', 00H, 'k', 00H, ' ', 00H
	DB	'X', 00H, 'I', 00H, 'n', 00H, 'p', 00H, 'u', 00H, 't', 00H, ' '
	DB	00H, '(', 00H, 'C', 00H, 'a', 00H, 'p', 00H, 's', 00H, ')', 00H
	DB	' ', 00H, 'u', 00H, 's', 00H, 'i', 00H, 'n', 00H, 'g', 00H, ' '
	DB	00H, '''', 00H, '%', 00H, 's', 00H, '''', 00H, '.', 00H, '.', 00H
	DB	'.', 00H, 00H, 00H
$SG132738 DB	'[', 00H, 'I', 00H, 'n', 00H, 'p', 00H, 'u', 00H, 't', 00H
	DB	' ', 00H, 'M', 00H, 'g', 00H, 'r', 00H, '.', 00H, ']', 00H, ' '
	DB	00H, ' ', 00H, 'F', 00H, 'a', 00H, 'i', 00H, 'l', 00H, 'e', 00H
	DB	'd', 00H, ' ', 00H, 't', 00H, 'o', 00H, ' ', 00H, 'r', 00H, 'e'
	DB	00H, 'm', 00H, 'o', 00H, 'v', 00H, 'e', 00H, ' ', 00H, 'X', 00H
	DB	'I', 00H, 'n', 00H, 'p', 00H, 'u', 00H, 't', 00H, ' ', 00H, '('
	DB	00H, 'C', 00H, 'a', 00H, 'p', 00H, 's', 00H, ')', 00H, ' ', 00H
	DB	'h', 00H, 'o', 00H, 'o', 00H, 'k', 00H, ' ', 00H, 'f', 00H, 'r'
	DB	00H, 'o', 00H, 'm', 00H, ' ', 00H, '''', 00H, '%', 00H, 's', 00H
	DB	'''', 00H, '.', 00H, '.', 00H, '.', 00H, 00H, 00H
	ORG $+2
$SG132747 DB	'XInputGetBatteryInformation', 00H
	ORG $+4
$SG132749 DB	'[', 00H, 'I', 00H, 'n', 00H, 'p', 00H, 'u', 00H, 't', 00H
	DB	' ', 00H, 'M', 00H, 'g', 00H, 'r', 00H, '.', 00H, ']', 00H, ' '
	DB	00H, ' ', 00H, 'R', 00H, 'e', 00H, '-', 00H, 'h', 00H, 'o', 00H
	DB	'o', 00H, 'k', 00H, 'e', 00H, 'd', 00H, ' ', 00H, 'X', 00H, 'I'
	DB	00H, 'n', 00H, 'p', 00H, 'u', 00H, 't', 00H, ' ', 00H, '(', 00H
	DB	'B', 00H, 'a', 00H, 't', 00H, 't', 00H, 'e', 00H, 'r', 00H, 'y'
	DB	00H, ')', 00H, ' ', 00H, 'u', 00H, 's', 00H, 'i', 00H, 'n', 00H
	DB	'g', 00H, ' ', 00H, '''', 00H, '%', 00H, 's', 00H, '''', 00H, '.'
	DB	00H, '.', 00H, '.', 00H, 00H, 00H
	ORG $+2
$SG132753 DB	'[', 00H, 'I', 00H, 'n', 00H, 'p', 00H, 'u', 00H, 't', 00H
	DB	' ', 00H, 'M', 00H, 'g', 00H, 'r', 00H, '.', 00H, ']', 00H, ' '
	DB	00H, ' ', 00H, 'F', 00H, 'a', 00H, 'i', 00H, 'l', 00H, 'e', 00H
	DB	'd', 00H, ' ', 00H, 't', 00H, 'o', 00H, ' ', 00H, 'r', 00H, 'e'
	DB	00H, '-', 00H, 'h', 00H, 'o', 00H, 'o', 00H, 'k', 00H, ' ', 00H
	DB	'X', 00H, 'I', 00H, 'n', 00H, 'p', 00H, 'u', 00H, 't', 00H, ' '
	DB	00H, '(', 00H, 'B', 00H, 'a', 00H, 't', 00H, 't', 00H, 'e', 00H
	DB	'r', 00H, 'y', 00H, ')', 00H, ' ', 00H, 'u', 00H, 's', 00H, 'i'
	DB	00H, 'n', 00H, 'g', 00H, ' ', 00H, '''', 00H, '%', 00H, 's', 00H
	DB	'''', 00H, '.', 00H, '.', 00H, '.', 00H, 00H, 00H
	ORG $+2
$SG132755 DB	'[', 00H, 'I', 00H, 'n', 00H, 'p', 00H, 'u', 00H, 't', 00H
	DB	' ', 00H, 'M', 00H, 'g', 00H, 'r', 00H, '.', 00H, ']', 00H, ' '
	DB	00H, ' ', 00H, 'F', 00H, 'a', 00H, 'i', 00H, 'l', 00H, 'e', 00H
	DB	'd', 00H, ' ', 00H, 't', 00H, 'o', 00H, ' ', 00H, 'r', 00H, 'e'
	DB	00H, 'm', 00H, 'o', 00H, 'v', 00H, 'e', 00H, ' ', 00H, 'X', 00H
	DB	'I', 00H, 'n', 00H, 'p', 00H, 'u', 00H, 't', 00H, ' ', 00H, '('
	DB	00H, 'B', 00H, 'a', 00H, 't', 00H, 't', 00H, 'e', 00H, 'r', 00H
	DB	'y', 00H, ')', 00H, ' ', 00H, 'h', 00H, 'o', 00H, 'o', 00H, 'k'
	DB	00H, ' ', 00H, 'f', 00H, 'r', 00H, 'o', 00H, 'm', 00H, ' ', 00H
	DB	'''', 00H, '%', 00H, 's', 00H, '''', 00H, '.', 00H, '.', 00H, '.'
	DB	00H, 00H, 00H
	ORG $+4
$SG132765 DB	'[', 00H, 'I', 00H, 'n', 00H, 'p', 00H, 'u', 00H, 't', 00H
	DB	' ', 00H, 'M', 00H, 'g', 00H, 'r', 00H, '.', 00H, ']', 00H, ' '
	DB	00H, ' ', 00H, 'R', 00H, 'e', 00H, '-', 00H, 'h', 00H, 'o', 00H
	DB	'o', 00H, 'k', 00H, 'e', 00H, 'd', 00H, ' ', 00H, 'X', 00H, 'I'
	DB	00H, 'n', 00H, 'p', 00H, 'u', 00H, 't', 00H, ' ', 00H, '(', 00H
	DB	'E', 00H, 'x', 00H, ')', 00H, ' ', 00H, 'u', 00H, 's', 00H, 'i'
	DB	00H, 'n', 00H, 'g', 00H, ' ', 00H, '''', 00H, '%', 00H, 's', 00H
	DB	'''', 00H, '.', 00H, '.', 00H, '.', 00H, 00H, 00H
	ORG $+4
$SG132769 DB	'[', 00H, 'I', 00H, 'n', 00H, 'p', 00H, 'u', 00H, 't', 00H
	DB	' ', 00H, 'M', 00H, 'g', 00H, 'r', 00H, '.', 00H, ']', 00H, ' '
	DB	00H, ' ', 00H, 'F', 00H, 'a', 00H, 'i', 00H, 'l', 00H, 'e', 00H
	DB	'd', 00H, ' ', 00H, 't', 00H, 'o', 00H, ' ', 00H, 'r', 00H, 'e'
	DB	00H, '-', 00H, 'h', 00H, 'o', 00H, 'o', 00H, 'k', 00H, ' ', 00H
	DB	'X', 00H, 'I', 00H, 'n', 00H, 'p', 00H, 'u', 00H, 't', 00H, ' '
	DB	00H, '(', 00H, 'E', 00H, 'x', 00H, ')', 00H, ' ', 00H, 'u', 00H
	DB	's', 00H, 'i', 00H, 'n', 00H, 'g', 00H, ' ', 00H, '''', 00H, '%'
	DB	00H, 's', 00H, '''', 00H, '.', 00H, '.', 00H, '.', 00H, 00H, 00H
	ORG $+4
$SG132771 DB	'[', 00H, 'I', 00H, 'n', 00H, 'p', 00H, 'u', 00H, 't', 00H
	DB	' ', 00H, 'M', 00H, 'g', 00H, 'r', 00H, '.', 00H, ']', 00H, ' '
	DB	00H, ' ', 00H, 'F', 00H, 'a', 00H, 'i', 00H, 'l', 00H, 'e', 00H
	DB	'd', 00H, ' ', 00H, 't', 00H, 'o', 00H, ' ', 00H, 'r', 00H, 'e'
	DB	00H, 'm', 00H, 'o', 00H, 'v', 00H, 'e', 00H, ' ', 00H, 'X', 00H
	DB	'I', 00H, 'n', 00H, 'p', 00H, 'u', 00H, 't', 00H, ' ', 00H, '('
	DB	00H, 'E', 00H, 'x', 00H, ')', 00H, ' ', 00H, 'h', 00H, 'o', 00H
	DB	'o', 00H, 'k', 00H, ' ', 00H, 'f', 00H, 'r', 00H, 'o', 00H, 'm'
	DB	00H, ' ', 00H, '''', 00H, '%', 00H, 's', 00H, '''', 00H, '.', 00H
	DB	'.', 00H, '.', 00H, 00H, 00H
	ORG $+2
$SG132780 DB	'XInputEnable', 00H
	ORG $+7
$SG132782 DB	'[', 00H, 'I', 00H, 'n', 00H, 'p', 00H, 'u', 00H, 't', 00H
	DB	' ', 00H, 'M', 00H, 'g', 00H, 'r', 00H, '.', 00H, ']', 00H, ' '
	DB	00H, ' ', 00H, 'R', 00H, 'e', 00H, '-', 00H, 'h', 00H, 'o', 00H
	DB	'o', 00H, 'k', 00H, 'e', 00H, 'd', 00H, ' ', 00H, 'X', 00H, 'I'
	DB	00H, 'n', 00H, 'p', 00H, 'u', 00H, 't', 00H, ' ', 00H, '(', 00H
	DB	'E', 00H, 'n', 00H, 'a', 00H, 'b', 00H, 'l', 00H, 'e', 00H, ')'
	DB	00H, ' ', 00H, 'u', 00H, 's', 00H, 'i', 00H, 'n', 00H, 'g', 00H
	DB	' ', 00H, '''', 00H, '%', 00H, 's', 00H, '''', 00H, '.', 00H, '.'
	DB	00H, '.', 00H, 00H, 00H
	ORG $+4
$SG132786 DB	'[', 00H, 'I', 00H, 'n', 00H, 'p', 00H, 'u', 00H, 't', 00H
	DB	' ', 00H, 'M', 00H, 'g', 00H, 'r', 00H, '.', 00H, ']', 00H, ' '
	DB	00H, ' ', 00H, 'F', 00H, 'a', 00H, 'i', 00H, 'l', 00H, 'e', 00H
	DB	'd', 00H, ' ', 00H, 't', 00H, 'o', 00H, ' ', 00H, 'r', 00H, 'e'
	DB	00H, '-', 00H, 'h', 00H, 'o', 00H, 'o', 00H, 'k', 00H, ' ', 00H
	DB	'X', 00H, 'I', 00H, 'n', 00H, 'p', 00H, 'u', 00H, 't', 00H, ' '
	DB	00H, '(', 00H, 'E', 00H, 'n', 00H, 'a', 00H, 'b', 00H, 'l', 00H
	DB	'e', 00H, ')', 00H, ' ', 00H, 'u', 00H, 's', 00H, 'i', 00H, 'n'
	DB	00H, 'g', 00H, ' ', 00H, '''', 00H, '%', 00H, 's', 00H, '''', 00H
	DB	'.', 00H, '.', 00H, '.', 00H, 00H, 00H
	ORG $+4
$SG132788 DB	'[', 00H, 'I', 00H, 'n', 00H, 'p', 00H, 'u', 00H, 't', 00H
	DB	' ', 00H, 'M', 00H, 'g', 00H, 'r', 00H, '.', 00H, ']', 00H, ' '
	DB	00H, ' ', 00H, 'F', 00H, 'a', 00H, 'i', 00H, 'l', 00H, 'e', 00H
	DB	'd', 00H, ' ', 00H, 't', 00H, 'o', 00H, ' ', 00H, 'r', 00H, 'e'
	DB	00H, 'm', 00H, 'o', 00H, 'v', 00H, 'e', 00H, ' ', 00H, 'X', 00H
	DB	'I', 00H, 'n', 00H, 'p', 00H, 'u', 00H, 't', 00H, ' ', 00H, '('
	DB	00H, 'E', 00H, 'n', 00H, 'a', 00H, 'b', 00H, 'l', 00H, 'e', 00H
	DB	')', 00H, ' ', 00H, 'h', 00H, 'o', 00H, 'o', 00H, 'k', 00H, ' '
	DB	00H, 'f', 00H, 'r', 00H, 'o', 00H, 'm', 00H, ' ', 00H, '''', 00H
	DB	'%', 00H, 's', 00H, '''', 00H, '.', 00H, '.', 00H, '.', 00H, 00H
	DB	00H
	ORG $+6
$SG132879 DB	'[', 00H, 'I', 00H, 'n', 00H, 'p', 00H, 'u', 00H, 't', 00H
	DB	' ', 00H, 'M', 00H, 'g', 00H, 'r', 00H, '.', 00H, ']', 00H, ' '
	DB	00H, 'U', 00H, 'n', 00H, 'a', 00H, 'b', 00H, 'l', 00H, 'e', 00H
	DB	' ', 00H, 't', 00H, 'o', 00H, ' ', 00H, 'h', 00H, 'o', 00H, 'o'
	DB	00H, 'k', 00H, ' ', 00H, 'X', 00H, 'I', 00H, 'n', 00H, 'p', 00H
	DB	'u', 00H, 't', 00H, ',', 00H, ' ', 00H, 'a', 00H, 't', 00H, 't'
	DB	00H, 'e', 00H, 'm', 00H, 'p', 00H, 't', 00H, 'i', 00H, 'n', 00H
	DB	'g', 00H, ' ', 00H, 't', 00H, 'o', 00H, ' ', 00H, 'e', 00H, 'n'
	DB	00H, 't', 00H, 'e', 00H, 'r', 00H, ' ', 00H, 'l', 00H, 'i', 00H
	DB	'm', 00H, 'p', 00H, '-', 00H, 'm', 00H, 'o', 00H, 'd', 00H, 'e'
	DB	00H, '.', 00H, '.', 00H, '.', 00H, ' ', 00H, 'i', 00H, 'n', 00H
	DB	'p', 00H, 'u', 00H, 't', 00H, '-', 00H, 'r', 00H, 'e', 00H, 'l'
	DB	00H, 'a', 00H, 't', 00H, 'e', 00H, 'd', 00H, ' ', 00H, 'f', 00H
	DB	'e', 00H, 'a', 00H, 't', 00H, 'u', 00H, 'r', 00H, 'e', 00H, 's'
	DB	00H, ' ', 00H, 'm', 00H, 'a', 00H, 'y', 00H, ' ', 00H, 'n', 00H
	DB	'o', 00H, 't', 00H, ' ', 00H, 'w', 00H, 'o', 00H, 'r', 00H, 'k'
	DB	00H, ' ', 00H, 'a', 00H, 's', 00H, ' ', 00H, 'i', 00H, 'n', 00H
	DB	't', 00H, 'e', 00H, 'n', 00H, 'd', 00H, 'e', 00H, 'd', 00H, '.'
	DB	00H, 00H, 00H
$SG132880 DB	'X', 00H, 'I', 00H, 'n', 00H, 'p', 00H, 'u', 00H, 't', 00H
	DB	'1', 00H, '_', 00H, '3', 00H, '.', 00H, 'd', 00H, 'l', 00H, 'l'
	DB	00H, 00H, 00H
$SG132882 DB	'XInputGetState', 00H
	ORG $+1
$SG132885 DB	'X', 00H, 'I', 00H, 'n', 00H, 'p', 00H, 'u', 00H, 't', 00H
	DB	'1', 00H, '_', 00H, '3', 00H, '.', 00H, 'd', 00H, 'l', 00H, 'l'
	DB	00H, 00H, 00H
$SG132887 DB	'X', 00H, 'I', 00H, 'n', 00H, 'p', 00H, 'u', 00H, 't', 00H
	DB	'1', 00H, '_', 00H, '4', 00H, '.', 00H, 'd', 00H, 'l', 00H, 'l'
	DB	00H, 00H, 00H
$SG132889 DB	'X', 00H, 'I', 00H, 'n', 00H, 'p', 00H, 'u', 00H, 't', 00H
	DB	'9', 00H, '_', 00H, '1', 00H, '_', 00H, '0', 00H, '.', 00H, 'd'
	DB	00H, 'l', 00H, 'l', 00H, 00H, 00H
$SG132913 DB	'XInput1_3.dll', 00H
	ORG $+2
$SG132914 DB	'XInput1_4.dll', 00H
	ORG $+2
$SG132915 DB	'XInput9_1_0.dll', 00H
$SG132921 DB	'[', 00H, ' ', 00H, ' ', 00H, ' ', 00H, 'I', 00H, 'n', 00H
	DB	'p', 00H, 'u', 00H, 't', 00H, ' ', 00H, ' ', 00H, ']', 00H, ' '
	DB	00H, 'G', 00H, 'a', 00H, 'm', 00H, 'e', 00H, ' ', 00H, 'u', 00H
	DB	's', 00H, 'e', 00H, 's', 00H, ' ', 00H, 'X', 00H, 'I', 00H, 'n'
	DB	00H, 'p', 00H, 'u', 00H, 't', 00H, ',', 00H, ' ', 00H, 'i', 00H
	DB	'n', 00H, 's', 00H, 't', 00H, 'a', 00H, 'l', 00H, 'l', 00H, 'i'
	DB	00H, 'n', 00H, 'g', 00H, ' ', 00H, 'i', 00H, 'n', 00H, 'p', 00H
	DB	'u', 00H, 't', 00H, ' ', 00H, 'h', 00H, 'o', 00H, 'o', 00H, 'k'
	DB	00H, 's', 00H, '.', 00H, '.', 00H, '.', 00H, 00H, 00H
	ORG $+2
$SG132926 DB	'X', 00H, 'I', 00H, 'n', 00H, 'p', 00H, 'u', 00H, 't', 00H
	DB	'1', 00H, '_', 00H, '3', 00H, '.', 00H, 'd', 00H, 'l', 00H, 'l'
	DB	00H, 00H, 00H
$SG132928 DB	'X', 00H, 'I', 00H, 'n', 00H, 'p', 00H, 'u', 00H, 't', 00H
	DB	'1', 00H, '_', 00H, '4', 00H, '.', 00H, 'd', 00H, 'l', 00H, 'l'
	DB	00H, 00H, 00H
$SG132930 DB	'X', 00H, 'I', 00H, 'n', 00H, 'p', 00H, 'u', 00H, 't', 00H
	DB	'9', 00H, '_', 00H, '1', 00H, '_', 00H, '0', 00H, '.', 00H, 'd'
	DB	00H, 'l', 00H, 'l', 00H, 00H, 00H
CONST	ENDS
PUBLIC	__InlineInterlockedExchangePointer
PUBLIC	_ReadAcquire
PUBLIC	_ReadPointerAcquire
PUBLIC	?_InterlockedDecrement@@YAKPCK@Z		; _InterlockedDecrement
PUBLIC	?_InterlockedCompareExchange@@YAKPCKKK@Z	; _InterlockedCompareExchange
PUBLIC	?SK_Input_HookXInput1_3@@YAXXZ			; SK_Input_HookXInput1_3
PUBLIC	?SK_Input_HookXInput1_4@@YAXXZ			; SK_Input_HookXInput1_4
PUBLIC	?SK_Input_HookXInput9_1_0@@YAXXZ		; SK_Input_HookXInput9_1_0
PUBLIC	?SK_Input_PreHookXInput@@YAXXZ			; SK_Input_PreHookXInput
PUBLIC	?markRead@sk_input_api_context_s@@QAEXW4sk_input_dev_type@@@Z ; sk_input_api_context_s::markRead
PUBLIC	?markWrite@sk_input_api_context_s@@QAEXW4sk_input_dev_type@@@Z ; sk_input_api_context_s::markWrite
PUBLIC	?SK_XInput_PollController@@YA_NHPAU_XINPUT_STATE@@@Z ; SK_XInput_PollController
PUBLIC	?SK_XInput_PulseController@@YA_NHMM@Z		; SK_XInput_PulseController
PUBLIC	?SK_XInput_ZeroHaptics@@YAXH@Z			; SK_XInput_ZeroHaptics
PUBLIC	?_Hash_seq@std@@YAIPBEI@Z			; std::_Hash_seq
PUBLIC	??2@YAPAXIPAX@Z					; operator new
PUBLIC	?assign@?$char_traits@_W@std@@SAXAA_WAB_W@Z	; std::char_traits<wchar_t>::assign
PUBLIC	?_Orphan_all@_Container_base0@std@@QAEXXZ	; std::_Container_base0::_Orphan_all
PUBLIC	?_Adopt@_Iterator_base0@std@@QAEXPBX@Z		; std::_Iterator_base0::_Adopt
PUBLIC	?_Getcont@_Iterator_base0@std@@QBEPBU_Container_base0@2@XZ ; std::_Iterator_base0::_Getcont
PUBLIC	?_Allocate@std@@YAPAXII_N@Z			; std::_Allocate
PUBLIC	?_Deallocate@std@@YAXPAXII@Z			; std::_Deallocate
PUBLIC	?deallocate@?$allocator@_W@std@@QAEXPA_WI@Z	; std::allocator<wchar_t>::deallocate
PUBLIC	?deallocate@?$_Wrap_alloc@V?$allocator@_W@std@@@std@@QAEXPA_WI@Z ; std::_Wrap_alloc<std::allocator<wchar_t> >::deallocate
PUBLIC	?_Myptr@?$_String_val@U?$_Simple_types@_W@std@@@std@@QBEPB_WXZ ; std::_String_val<std::_Simple_types<wchar_t> >::_Myptr
PUBLIC	?_Large_string_engaged@?$_String_val@U?$_Simple_types@_W@std@@@std@@QBE_NXZ ; std::_String_val<std::_Simple_types<wchar_t> >::_Large_string_engaged
PUBLIC	??1_Bxty@?$_String_val@U?$_Simple_types@_W@std@@@std@@QAE@XZ ; std::_String_val<std::_Simple_types<wchar_t> >::_Bxty::~_Bxty
PUBLIC	??1?$_String_val@U?$_Simple_types@_W@std@@@std@@QAE@XZ ; std::_String_val<std::_Simple_types<wchar_t> >::~_String_val<std::_Simple_types<wchar_t> >
PUBLIC	?_Myptr@?$_String_alloc@U?$_String_base_types@_WV?$allocator@_W@std@@@std@@@std@@QBEPB_WXZ ; std::_String_alloc<std::_String_base_types<wchar_t,std::allocator<wchar_t> > >::_Myptr
PUBLIC	?_Orphan_all@?$_String_alloc@U?$_String_base_types@_WV?$allocator@_W@std@@@std@@@std@@QAEXXZ ; std::_String_alloc<std::_String_base_types<wchar_t,std::allocator<wchar_t> > >::_Orphan_all
PUBLIC	?_Getal@?$_String_alloc@U?$_String_base_types@_WV?$allocator@_W@std@@@std@@@std@@QAEAAU?$_Wrap_alloc@V?$allocator@_W@std@@@2@XZ ; std::_String_alloc<std::_String_base_types<wchar_t,std::allocator<wchar_t> > >::_Getal
PUBLIC	?_Get_data@?$_String_alloc@U?$_String_base_types@_WV?$allocator@_W@std@@@std@@@std@@QAEAAV?$_String_val@U?$_Simple_types@_W@std@@@2@XZ ; std::_String_alloc<std::_String_base_types<wchar_t,std::allocator<wchar_t> > >::_Get_data
PUBLIC	?_Get_data@?$_String_alloc@U?$_String_base_types@_WV?$allocator@_W@std@@@std@@@std@@QBEABV?$_String_val@U?$_Simple_types@_W@std@@@2@XZ ; std::_String_alloc<std::_String_base_types<wchar_t,std::allocator<wchar_t> > >::_Get_data
PUBLIC	?_Get_first@?$_Compressed_pair@U?$_Wrap_alloc@V?$allocator@_W@std@@@std@@V?$_String_val@U?$_Simple_types@_W@std@@@2@$00@std@@QAEAAU?$_Wrap_alloc@V?$allocator@_W@std@@@2@XZ ; std::_Compressed_pair<std::_Wrap_alloc<std::allocator<wchar_t> >,std::_String_val<std::_Simple_types<wchar_t> >,1>::_Get_first
PUBLIC	?_Get_second@?$_Compressed_pair@U?$_Wrap_alloc@V?$allocator@_W@std@@@std@@V?$_String_val@U?$_Simple_types@_W@std@@@2@$00@std@@QAEAAV?$_String_val@U?$_Simple_types@_W@std@@@2@XZ ; std::_Compressed_pair<std::_Wrap_alloc<std::allocator<wchar_t> >,std::_String_val<std::_Simple_types<wchar_t> >,1>::_Get_second
PUBLIC	?_Get_second@?$_Compressed_pair@U?$_Wrap_alloc@V?$allocator@_W@std@@@std@@V?$_String_val@U?$_Simple_types@_W@std@@@2@$00@std@@QBEABV?$_String_val@U?$_Simple_types@_W@std@@@2@XZ ; std::_Compressed_pair<std::_Wrap_alloc<std::allocator<wchar_t> >,std::_String_val<std::_Simple_types<wchar_t> >,1>::_Get_second
PUBLIC	??1?$_Compressed_pair@U?$_Wrap_alloc@V?$allocator@_W@std@@@std@@V?$_String_val@U?$_Simple_types@_W@std@@@2@$00@std@@QAE@XZ ; std::_Compressed_pair<std::_Wrap_alloc<std::allocator<wchar_t> >,std::_String_val<std::_Simple_types<wchar_t> >,1>::~_Compressed_pair<std::_Wrap_alloc<std::allocator<wchar_t> >,std::_String_val<std::_Simple_types<wchar_t> >,1>
PUBLIC	??1?$_String_alloc@U?$_String_base_types@_WV?$allocator@_W@std@@@std@@@std@@QAE@XZ ; std::_String_alloc<std::_String_base_types<wchar_t,std::allocator<wchar_t> > >::~_String_alloc<std::_String_base_types<wchar_t,std::allocator<wchar_t> > >
PUBLIC	??1?$basic_string@_WU?$char_traits@_W@std@@V?$allocator@_W@2@@std@@QAE@XZ ; std::basic_string<wchar_t,std::char_traits<wchar_t>,std::allocator<wchar_t> >::~basic_string<wchar_t,std::char_traits<wchar_t>,std::allocator<wchar_t> >
PUBLIC	?c_str@?$basic_string@_WU?$char_traits@_W@std@@V?$allocator@_W@2@@std@@QBEPB_WXZ ; std::basic_string<wchar_t,std::char_traits<wchar_t>,std::allocator<wchar_t> >::c_str
PUBLIC	?_Tidy_deallocate@?$basic_string@_WU?$char_traits@_W@std@@V?$allocator@_W@2@@std@@QAEXXZ ; std::basic_string<wchar_t,std::char_traits<wchar_t>,std::allocator<wchar_t> >::_Tidy_deallocate
PUBLIC	??0SK_Thread_CriticalSection@@QAE@PAU_RTL_CRITICAL_SECTION@@@Z ; SK_Thread_CriticalSection::SK_Thread_CriticalSection
PUBLIC	?lock@SK_Thread_CriticalSection@@QAEXXZ		; SK_Thread_CriticalSection::lock
PUBLIC	?unlock@SK_Thread_CriticalSection@@QAEXXZ	; SK_Thread_CriticalSection::unlock
PUBLIC	??0SK_Thread_HybridSpinlock@@QAE@H@Z		; SK_Thread_HybridSpinlock::SK_Thread_HybridSpinlock
PUBLIC	??1SK_Thread_HybridSpinlock@@QAE@XZ		; SK_Thread_HybridSpinlock::~SK_Thread_HybridSpinlock
PUBLIC	?preventHapticRecursion@SK_XInputContext@@SA_NK_N@Z ; SK_XInputContext::preventHapticRecursion
PUBLIC	??0SK_XInputContext@@QAE@XZ			; SK_XInputContext::SK_XInputContext
PUBLIC	??1SK_XInputContext@@QAE@XZ			; SK_XInputContext::~SK_XInputContext
PUBLIC	?SK_XInput_EstablishPrimaryHook@@YAXPAUHINSTANCE__@@PAUinstance_s@SK_XInputContext@@@Z ; SK_XInput_EstablishPrimaryHook
PUBLIC	??0?$lock_guard@VSK_Thread_HybridSpinlock@@@std@@QAE@AAVSK_Thread_HybridSpinlock@@@Z ; std::lock_guard<SK_Thread_HybridSpinlock>::lock_guard<SK_Thread_HybridSpinlock>
PUBLIC	??1?$lock_guard@VSK_Thread_HybridSpinlock@@@std@@QAE@XZ ; std::lock_guard<SK_Thread_HybridSpinlock>::~lock_guard<SK_Thread_HybridSpinlock>
PUBLIC	??0?$_Uhash_compare@PAUHINSTANCE__@@U?$hash@PAUHINSTANCE__@@@std@@U?$equal_to@PAUHINSTANCE__@@@3@@std@@QAE@U?$hash@PAUHINSTANCE__@@@1@U?$equal_to@PAUHINSTANCE__@@@1@@Z ; std::_Uhash_compare<HINSTANCE__ *,std::hash<HINSTANCE__ *>,std::equal_to<HINSTANCE__ *> >::_Uhash_compare<HINSTANCE__ *,std::hash<HINSTANCE__ *>,std::equal_to<HINSTANCE__ *> >
PUBLIC	??R?$_Uhash_compare@PAUHINSTANCE__@@U?$hash@PAUHINSTANCE__@@@std@@U?$equal_to@PAUHINSTANCE__@@@3@@std@@QBEIABQAUHINSTANCE__@@@Z ; std::_Uhash_compare<HINSTANCE__ *,std::hash<HINSTANCE__ *>,std::equal_to<HINSTANCE__ *> >::operator()
PUBLIC	??R?$_Uhash_compare@PAUHINSTANCE__@@U?$hash@PAUHINSTANCE__@@@std@@U?$equal_to@PAUHINSTANCE__@@@3@@std@@QBE_NABQAUHINSTANCE__@@0@Z ; std::_Uhash_compare<HINSTANCE__ *,std::hash<HINSTANCE__ *>,std::equal_to<HINSTANCE__ *> >::operator()
PUBLIC	?_Gethash@?$_Uhash_compare@PAUHINSTANCE__@@U?$hash@PAUHINSTANCE__@@@std@@U?$equal_to@PAUHINSTANCE__@@@3@@std@@QBEABU?$hash@PAUHINSTANCE__@@@2@XZ ; std::_Uhash_compare<HINSTANCE__ *,std::hash<HINSTANCE__ *>,std::equal_to<HINSTANCE__ *> >::_Gethash
PUBLIC	?_Getkeyeq@?$_Uhash_compare@PAUHINSTANCE__@@U?$hash@PAUHINSTANCE__@@@std@@U?$equal_to@PAUHINSTANCE__@@@3@@std@@QBEABU?$equal_to@PAUHINSTANCE__@@@2@XZ ; std::_Uhash_compare<HINSTANCE__ *,std::hash<HINSTANCE__ *>,std::equal_to<HINSTANCE__ *> >::_Getkeyeq
PUBLIC	?_Get_max_bucket_size@?$_Uhash_compare@PAUHINSTANCE__@@U?$hash@PAUHINSTANCE__@@@std@@U?$equal_to@PAUHINSTANCE__@@@3@@std@@QAEAAMXZ ; std::_Uhash_compare<HINSTANCE__ *,std::hash<HINSTANCE__ *>,std::equal_to<HINSTANCE__ *> >::_Get_max_bucket_size
PUBLIC	?_Get_max_bucket_size@?$_Uhash_compare@PAUHINSTANCE__@@U?$hash@PAUHINSTANCE__@@@std@@U?$equal_to@PAUHINSTANCE__@@@3@@std@@QBEABMXZ ; std::_Uhash_compare<HINSTANCE__ *,std::hash<HINSTANCE__ *>,std::equal_to<HINSTANCE__ *> >::_Get_max_bucket_size
PUBLIC	??R?$equal_to@PAUHINSTANCE__@@@std@@QBE_NABQAUHINSTANCE__@@0@Z ; std::equal_to<HINSTANCE__ *>::operator()
PUBLIC	??R?$_Bitwise_hash@PAUHINSTANCE__@@@std@@QBEIABQAUHINSTANCE__@@@Z ; std::_Bitwise_hash<HINSTANCE__ *>::operator()
PUBLIC	?_Get_first@?$_Compressed_pair@U?$equal_to@PAUHINSTANCE__@@@std@@M$00@std@@QBEABU?$equal_to@PAUHINSTANCE__@@@2@XZ ; std::_Compressed_pair<std::equal_to<HINSTANCE__ *>,float,1>::_Get_first
PUBLIC	?_Get_second@?$_Compressed_pair@U?$equal_to@PAUHINSTANCE__@@@std@@M$00@std@@QAEAAMXZ ; std::_Compressed_pair<std::equal_to<HINSTANCE__ *>,float,1>::_Get_second
PUBLIC	?_Get_second@?$_Compressed_pair@U?$equal_to@PAUHINSTANCE__@@@std@@M$00@std@@QBEABMXZ ; std::_Compressed_pair<std::equal_to<HINSTANCE__ *>,float,1>::_Get_second
PUBLIC	?_Get_first@?$_Compressed_pair@U?$hash@PAUHINSTANCE__@@@std@@V?$_Compressed_pair@U?$equal_to@PAUHINSTANCE__@@@std@@M$00@2@$00@std@@QBEABU?$hash@PAUHINSTANCE__@@@2@XZ ; std::_Compressed_pair<std::hash<HINSTANCE__ *>,std::_Compressed_pair<std::equal_to<HINSTANCE__ *>,float,1>,1>::_Get_first
PUBLIC	?_Get_second@?$_Compressed_pair@U?$hash@PAUHINSTANCE__@@@std@@V?$_Compressed_pair@U?$equal_to@PAUHINSTANCE__@@@std@@M$00@2@$00@std@@QAEAAV?$_Compressed_pair@U?$equal_to@PAUHINSTANCE__@@@std@@M$00@2@XZ ; std::_Compressed_pair<std::hash<HINSTANCE__ *>,std::_Compressed_pair<std::equal_to<HINSTANCE__ *>,float,1>,1>::_Get_second
PUBLIC	?_Get_second@?$_Compressed_pair@U?$hash@PAUHINSTANCE__@@@std@@V?$_Compressed_pair@U?$equal_to@PAUHINSTANCE__@@@std@@M$00@2@$00@std@@QBEABV?$_Compressed_pair@U?$equal_to@PAUHINSTANCE__@@@std@@M$00@2@XZ ; std::_Compressed_pair<std::hash<HINSTANCE__ *>,std::_Compressed_pair<std::equal_to<HINSTANCE__ *>,float,1>,1>::_Get_second
PUBLIC	??0?$_Uset_traits@PAUHINSTANCE__@@V?$_Uhash_compare@PAUHINSTANCE__@@U?$hash@PAUHINSTANCE__@@@std@@U?$equal_to@PAUHINSTANCE__@@@3@@std@@V?$allocator@PAUHINSTANCE__@@@3@$0A@@std@@QAE@ABV?$_Uhash_compare@PAUHINSTANCE__@@U?$hash@PAUHINSTANCE__@@@std@@U?$equal_to@PAUHINSTANCE__@@@3@@1@@Z ; std::_Uset_traits<HINSTANCE__ *,std::_Uhash_compare<HINSTANCE__ *,std::hash<HINSTANCE__ *>,std::equal_to<HINSTANCE__ *> >,std::allocator<HINSTANCE__ *>,0>::_Uset_traits<HINSTANCE__ *,std::_Uhash_compare<HINSTANCE__ *,std::hash<HINSTANCE__ *>,std::equal_to<HINSTANCE__ *> >,std::allocator<HINSTANCE__ *>,0>
PUBLIC	?_Kfn@?$_Uset_traits@PAUHINSTANCE__@@V?$_Uhash_compare@PAUHINSTANCE__@@U?$hash@PAUHINSTANCE__@@@std@@U?$equal_to@PAUHINSTANCE__@@@3@@std@@V?$allocator@PAUHINSTANCE__@@@3@$0A@@std@@SAABQAUHINSTANCE__@@ABQAU3@@Z ; std::_Uset_traits<HINSTANCE__ *,std::_Uhash_compare<HINSTANCE__ *,std::hash<HINSTANCE__ *>,std::equal_to<HINSTANCE__ *> >,std::allocator<HINSTANCE__ *>,0>::_Kfn
PUBLIC	??0?$allocator@PAUHINSTANCE__@@@std@@QAE@XZ	; std::allocator<HINSTANCE__ *>::allocator<HINSTANCE__ *>
PUBLIC	?deallocate@?$allocator@U?$_List_node@PAUHINSTANCE__@@PAX@std@@@std@@QAEXPAU?$_List_node@PAUHINSTANCE__@@PAX@2@I@Z ; std::allocator<std::_List_node<HINSTANCE__ *,void *> >::deallocate
PUBLIC	?allocate@?$allocator@U?$_List_node@PAUHINSTANCE__@@PAX@std@@@std@@QAEPAU?$_List_node@PAUHINSTANCE__@@PAX@2@I@Z ; std::allocator<std::_List_node<HINSTANCE__ *,void *> >::allocate
PUBLIC	?max_size@?$allocator@U?$_List_node@PAUHINSTANCE__@@PAX@std@@@std@@QBEIXZ ; std::allocator<std::_List_node<HINSTANCE__ *,void *> >::max_size
PUBLIC	?max_size@?$allocator_traits@V?$allocator@U?$_List_node@PAUHINSTANCE__@@PAX@std@@@std@@@std@@SAIABV?$allocator@U?$_List_node@PAUHINSTANCE__@@PAX@std@@@2@@Z ; std::allocator_traits<std::allocator<std::_List_node<HINSTANCE__ *,void *> > >::max_size
PUBLIC	?allocate@?$_Wrap_alloc@V?$allocator@U?$_List_node@PAUHINSTANCE__@@PAX@std@@@std@@@std@@QAEPAU?$_List_node@PAUHINSTANCE__@@PAX@2@I@Z ; std::_Wrap_alloc<std::allocator<std::_List_node<HINSTANCE__ *,void *> > >::allocate
PUBLIC	?deallocate@?$_Wrap_alloc@V?$allocator@U?$_List_node@PAUHINSTANCE__@@PAX@std@@@std@@@std@@QAEXPAU?$_List_node@PAUHINSTANCE__@@PAX@2@I@Z ; std::_Wrap_alloc<std::allocator<std::_List_node<HINSTANCE__ *,void *> > >::deallocate
PUBLIC	?max_size@?$_Wrap_alloc@V?$allocator@U?$_List_node@PAUHINSTANCE__@@PAX@std@@@std@@@std@@QBEIU_Nil@2@@Z ; std::_Wrap_alloc<std::allocator<std::_List_node<HINSTANCE__ *,void *> > >::max_size
PUBLIC	?_Nextnode@?$_List_alloc@U?$_List_base_types@PAUHINSTANCE__@@V?$allocator@PAUHINSTANCE__@@@std@@@std@@@std@@SAAAPAU?$_List_node@PAUHINSTANCE__@@PAX@2@PAU32@@Z ; std::_List_alloc<std::_List_base_types<HINSTANCE__ *,std::allocator<HINSTANCE__ *> > >::_Nextnode
PUBLIC	?_Prevnode@?$_List_alloc@U?$_List_base_types@PAUHINSTANCE__@@V?$allocator@PAUHINSTANCE__@@@std@@@std@@@std@@SAAAPAU?$_List_node@PAUHINSTANCE__@@PAX@2@PAU32@@Z ; std::_List_alloc<std::_List_base_types<HINSTANCE__ *,std::allocator<HINSTANCE__ *> > >::_Prevnode
PUBLIC	?_Myval@?$_List_alloc@U?$_List_base_types@PAUHINSTANCE__@@V?$allocator@PAUHINSTANCE__@@@std@@@std@@@std@@SAAAPAUHINSTANCE__@@PAU?$_List_node@PAUHINSTANCE__@@PAX@2@@Z ; std::_List_alloc<std::_List_base_types<HINSTANCE__ *,std::allocator<HINSTANCE__ *> > >::_Myval
PUBLIC	??1?$_List_alloc@U?$_List_base_types@PAUHINSTANCE__@@V?$allocator@PAUHINSTANCE__@@@std@@@std@@@std@@QAE@XZ ; std::_List_alloc<std::_List_base_types<HINSTANCE__ *,std::allocator<HINSTANCE__ *> > >::~_List_alloc<std::_List_base_types<HINSTANCE__ *,std::allocator<HINSTANCE__ *> > >
PUBLIC	?_Buyheadnode@?$_List_alloc@U?$_List_base_types@PAUHINSTANCE__@@V?$allocator@PAUHINSTANCE__@@@std@@@std@@@std@@QAEPAU?$_List_node@PAUHINSTANCE__@@PAX@2@XZ ; std::_List_alloc<std::_List_base_types<HINSTANCE__ *,std::allocator<HINSTANCE__ *> > >::_Buyheadnode
PUBLIC	?_Freeheadnode@?$_List_alloc@U?$_List_base_types@PAUHINSTANCE__@@V?$allocator@PAUHINSTANCE__@@@std@@@std@@@std@@QAEXPAU?$_List_node@PAUHINSTANCE__@@PAX@2@@Z ; std::_List_alloc<std::_List_base_types<HINSTANCE__ *,std::allocator<HINSTANCE__ *> > >::_Freeheadnode
PUBLIC	?_Buynode0@?$_List_alloc@U?$_List_base_types@PAUHINSTANCE__@@V?$allocator@PAUHINSTANCE__@@@std@@@std@@@std@@QAEPAU?$_List_node@PAUHINSTANCE__@@PAX@2@PAU32@0@Z ; std::_List_alloc<std::_List_base_types<HINSTANCE__ *,std::allocator<HINSTANCE__ *> > >::_Buynode0
PUBLIC	?_Getal@?$_List_alloc@U?$_List_base_types@PAUHINSTANCE__@@V?$allocator@PAUHINSTANCE__@@@std@@@std@@@std@@QAEAAU?$_Wrap_alloc@V?$allocator@U?$_List_node@PAUHINSTANCE__@@PAX@std@@@std@@@2@XZ ; std::_List_alloc<std::_List_base_types<HINSTANCE__ *,std::allocator<HINSTANCE__ *> > >::_Getal
PUBLIC	?_Getal@?$_List_alloc@U?$_List_base_types@PAUHINSTANCE__@@V?$allocator@PAUHINSTANCE__@@@std@@@std@@@std@@QBEABU?$_Wrap_alloc@V?$allocator@U?$_List_node@PAUHINSTANCE__@@PAX@std@@@std@@@2@XZ ; std::_List_alloc<std::_List_base_types<HINSTANCE__ *,std::allocator<HINSTANCE__ *> > >::_Getal
PUBLIC	?_Get_data@?$_List_alloc@U?$_List_base_types@PAUHINSTANCE__@@V?$allocator@PAUHINSTANCE__@@@std@@@std@@@std@@QAEAAV?$_List_val@U?$_List_simple_types@PAUHINSTANCE__@@@std@@@2@XZ ; std::_List_alloc<std::_List_base_types<HINSTANCE__ *,std::allocator<HINSTANCE__ *> > >::_Get_data
PUBLIC	?_Get_data@?$_List_alloc@U?$_List_base_types@PAUHINSTANCE__@@V?$allocator@PAUHINSTANCE__@@@std@@@std@@@std@@QBEABV?$_List_val@U?$_List_simple_types@PAUHINSTANCE__@@@std@@@2@XZ ; std::_List_alloc<std::_List_base_types<HINSTANCE__ *,std::allocator<HINSTANCE__ *> > >::_Get_data
PUBLIC	?_Myhead@?$_List_alloc@U?$_List_base_types@PAUHINSTANCE__@@V?$allocator@PAUHINSTANCE__@@@std@@@std@@@std@@QAEAAPAU?$_List_node@PAUHINSTANCE__@@PAX@2@XZ ; std::_List_alloc<std::_List_base_types<HINSTANCE__ *,std::allocator<HINSTANCE__ *> > >::_Myhead
PUBLIC	?_Myhead@?$_List_alloc@U?$_List_base_types@PAUHINSTANCE__@@V?$allocator@PAUHINSTANCE__@@@std@@@std@@@std@@QBEABQAU?$_List_node@PAUHINSTANCE__@@PAX@2@XZ ; std::_List_alloc<std::_List_base_types<HINSTANCE__ *,std::allocator<HINSTANCE__ *> > >::_Myhead
PUBLIC	?_Mysize@?$_List_alloc@U?$_List_base_types@PAUHINSTANCE__@@V?$allocator@PAUHINSTANCE__@@@std@@@std@@@std@@QAEAAIXZ ; std::_List_alloc<std::_List_base_types<HINSTANCE__ *,std::allocator<HINSTANCE__ *> > >::_Mysize
PUBLIC	?_Mysize@?$_List_alloc@U?$_List_base_types@PAUHINSTANCE__@@V?$allocator@PAUHINSTANCE__@@@std@@@std@@@std@@QBEABIXZ ; std::_List_alloc<std::_List_base_types<HINSTANCE__ *,std::allocator<HINSTANCE__ *> > >::_Mysize
PUBLIC	??0?$_List_val@U?$_List_simple_types@PAUHINSTANCE__@@@std@@@std@@QAE@XZ ; std::_List_val<std::_List_simple_types<HINSTANCE__ *> >::_List_val<std::_List_simple_types<HINSTANCE__ *> >
PUBLIC	?_Nextnode@?$_List_val@U?$_List_simple_types@PAUHINSTANCE__@@@std@@@std@@SAAAPAU?$_List_node@PAUHINSTANCE__@@PAX@2@PAU32@@Z ; std::_List_val<std::_List_simple_types<HINSTANCE__ *> >::_Nextnode
PUBLIC	?_Prevnode@?$_List_val@U?$_List_simple_types@PAUHINSTANCE__@@@std@@@std@@SAAAPAU?$_List_node@PAUHINSTANCE__@@PAX@2@PAU32@@Z ; std::_List_val<std::_List_simple_types<HINSTANCE__ *> >::_Prevnode
PUBLIC	?_Myval@?$_List_val@U?$_List_simple_types@PAUHINSTANCE__@@@std@@@std@@SAAAPAUHINSTANCE__@@PAU?$_List_node@PAUHINSTANCE__@@PAX@2@@Z ; std::_List_val<std::_List_simple_types<HINSTANCE__ *> >::_Myval
PUBLIC	?_Get_first@?$_Compressed_pair@U?$_Wrap_alloc@V?$allocator@U?$_List_node@PAUHINSTANCE__@@PAX@std@@@std@@@std@@V?$_List_val@U?$_List_simple_types@PAUHINSTANCE__@@@std@@@2@$00@std@@QAEAAU?$_Wrap_alloc@V?$allocator@U?$_List_node@PAUHINSTANCE__@@PAX@std@@@std@@@2@XZ ; std::_Compressed_pair<std::_Wrap_alloc<std::allocator<std::_List_node<HINSTANCE__ *,void *> > >,std::_List_val<std::_List_simple_types<HINSTANCE__ *> >,1>::_Get_first
PUBLIC	?_Get_first@?$_Compressed_pair@U?$_Wrap_alloc@V?$allocator@U?$_List_node@PAUHINSTANCE__@@PAX@std@@@std@@@std@@V?$_List_val@U?$_List_simple_types@PAUHINSTANCE__@@@std@@@2@$00@std@@QBEABU?$_Wrap_alloc@V?$allocator@U?$_List_node@PAUHINSTANCE__@@PAX@std@@@std@@@2@XZ ; std::_Compressed_pair<std::_Wrap_alloc<std::allocator<std::_List_node<HINSTANCE__ *,void *> > >,std::_List_val<std::_List_simple_types<HINSTANCE__ *> >,1>::_Get_first
PUBLIC	?_Get_second@?$_Compressed_pair@U?$_Wrap_alloc@V?$allocator@U?$_List_node@PAUHINSTANCE__@@PAX@std@@@std@@@std@@V?$_List_val@U?$_List_simple_types@PAUHINSTANCE__@@@std@@@2@$00@std@@QAEAAV?$_List_val@U?$_List_simple_types@PAUHINSTANCE__@@@std@@@2@XZ ; std::_Compressed_pair<std::_Wrap_alloc<std::allocator<std::_List_node<HINSTANCE__ *,void *> > >,std::_List_val<std::_List_simple_types<HINSTANCE__ *> >,1>::_Get_second
PUBLIC	?_Get_second@?$_Compressed_pair@U?$_Wrap_alloc@V?$allocator@U?$_List_node@PAUHINSTANCE__@@PAX@std@@@std@@@std@@V?$_List_val@U?$_List_simple_types@PAUHINSTANCE__@@@std@@@2@$00@std@@QBEABV?$_List_val@U?$_List_simple_types@PAUHINSTANCE__@@@std@@@2@XZ ; std::_Compressed_pair<std::_Wrap_alloc<std::allocator<std::_List_node<HINSTANCE__ *,void *> > >,std::_List_val<std::_List_simple_types<HINSTANCE__ *> >,1>::_Get_second
PUBLIC	?_Freenode@?$_List_buy@PAUHINSTANCE__@@V?$allocator@PAUHINSTANCE__@@@std@@@std@@QAEXPAU?$_List_node@PAUHINSTANCE__@@PAX@2@@Z ; std::_List_buy<HINSTANCE__ *,std::allocator<HINSTANCE__ *> >::_Freenode
PUBLIC	??1?$_List_buy@PAUHINSTANCE__@@V?$allocator@PAUHINSTANCE__@@@std@@@std@@QAE@XZ ; std::_List_buy<HINSTANCE__ *,std::allocator<HINSTANCE__ *> >::~_List_buy<HINSTANCE__ *,std::allocator<HINSTANCE__ *> >
PUBLIC	??0?$list@PAUHINSTANCE__@@V?$allocator@PAUHINSTANCE__@@@std@@@std@@QAE@ABV?$allocator@PAUHINSTANCE__@@@1@@Z ; std::list<HINSTANCE__ *,std::allocator<HINSTANCE__ *> >::list<HINSTANCE__ *,std::allocator<HINSTANCE__ *> >
PUBLIC	??1?$list@PAUHINSTANCE__@@V?$allocator@PAUHINSTANCE__@@@std@@@std@@QAE@XZ ; std::list<HINSTANCE__ *,std::allocator<HINSTANCE__ *> >::~list<HINSTANCE__ *,std::allocator<HINSTANCE__ *> >
PUBLIC	?end@?$list@PAUHINSTANCE__@@V?$allocator@PAUHINSTANCE__@@@std@@@std@@QBE?AV?$_List_const_iterator@V?$_List_val@U?$_List_simple_types@PAUHINSTANCE__@@@std@@@std@@@2@XZ ; std::list<HINSTANCE__ *,std::allocator<HINSTANCE__ *> >::end
PUBLIC	?_Unchecked_begin@?$list@PAUHINSTANCE__@@V?$allocator@PAUHINSTANCE__@@@std@@@std@@QAE?AV?$_List_unchecked_iterator@V?$_List_val@U?$_List_simple_types@PAUHINSTANCE__@@@std@@@std@@@2@XZ ; std::list<HINSTANCE__ *,std::allocator<HINSTANCE__ *> >::_Unchecked_begin
PUBLIC	?_Unchecked_end@?$list@PAUHINSTANCE__@@V?$allocator@PAUHINSTANCE__@@@std@@@std@@QAE?AV?$_List_unchecked_iterator@V?$_List_val@U?$_List_simple_types@PAUHINSTANCE__@@@std@@@std@@@2@XZ ; std::list<HINSTANCE__ *,std::allocator<HINSTANCE__ *> >::_Unchecked_end
PUBLIC	?_Unchecked_end@?$list@PAUHINSTANCE__@@V?$allocator@PAUHINSTANCE__@@@std@@@std@@QBE?AV?$_List_unchecked_const_iterator@V?$_List_val@U?$_List_simple_types@PAUHINSTANCE__@@@std@@@std@@U_Iterator_base0@2@@2@XZ ; std::list<HINSTANCE__ *,std::allocator<HINSTANCE__ *> >::_Unchecked_end
PUBLIC	?_Make_iter@?$list@PAUHINSTANCE__@@V?$allocator@PAUHINSTANCE__@@@std@@@std@@QBE?AV?$_List_iterator@V?$_List_val@U?$_List_simple_types@PAUHINSTANCE__@@@std@@@std@@@2@V?$_List_const_iterator@V?$_List_val@U?$_List_simple_types@PAUHINSTANCE__@@@std@@@std@@@2@@Z ; std::list<HINSTANCE__ *,std::allocator<HINSTANCE__ *> >::_Make_iter
PUBLIC	?_Make_iter@?$list@PAUHINSTANCE__@@V?$allocator@PAUHINSTANCE__@@@std@@@std@@QBE?AV?$_List_iterator@V?$_List_val@U?$_List_simple_types@PAUHINSTANCE__@@@std@@@std@@@2@V?$_List_unchecked_const_iterator@V?$_List_val@U?$_List_simple_types@PAUHINSTANCE__@@@std@@@std@@U_Iterator_base0@2@@2@@Z ; std::list<HINSTANCE__ *,std::allocator<HINSTANCE__ *> >::_Make_iter
PUBLIC	?size@?$list@PAUHINSTANCE__@@V?$allocator@PAUHINSTANCE__@@@std@@@std@@QBEIXZ ; std::list<HINSTANCE__ *,std::allocator<HINSTANCE__ *> >::size
PUBLIC	?max_size@?$list@PAUHINSTANCE__@@V?$allocator@PAUHINSTANCE__@@@std@@@std@@QBEIXZ ; std::list<HINSTANCE__ *,std::allocator<HINSTANCE__ *> >::max_size
PUBLIC	?push_front@?$list@PAUHINSTANCE__@@V?$allocator@PAUHINSTANCE__@@@std@@@std@@QAEXABQAUHINSTANCE__@@@Z ; std::list<HINSTANCE__ *,std::allocator<HINSTANCE__ *> >::push_front
PUBLIC	?_Unlinknode@?$list@PAUHINSTANCE__@@V?$allocator@PAUHINSTANCE__@@@std@@@std@@QAEPAU?$_List_node@PAUHINSTANCE__@@PAX@2@V?$_List_const_iterator@V?$_List_val@U?$_List_simple_types@PAUHINSTANCE__@@@std@@@std@@@2@@Z ; std::list<HINSTANCE__ *,std::allocator<HINSTANCE__ *> >::_Unlinknode
PUBLIC	?erase@?$list@PAUHINSTANCE__@@V?$allocator@PAUHINSTANCE__@@@std@@@std@@QAE?AV?$_List_iterator@V?$_List_val@U?$_List_simple_types@PAUHINSTANCE__@@@std@@@std@@@2@V?$_List_const_iterator@V?$_List_val@U?$_List_simple_types@PAUHINSTANCE__@@@std@@@std@@@2@@Z ; std::list<HINSTANCE__ *,std::allocator<HINSTANCE__ *> >::erase
PUBLIC	?clear@?$list@PAUHINSTANCE__@@V?$allocator@PAUHINSTANCE__@@@std@@@std@@QAEXXZ ; std::list<HINSTANCE__ *,std::allocator<HINSTANCE__ *> >::clear
PUBLIC	?_Unchecked_splice@?$list@PAUHINSTANCE__@@V?$allocator@PAUHINSTANCE__@@@std@@@std@@QAEXV?$_List_unchecked_const_iterator@V?$_List_val@U?$_List_simple_types@PAUHINSTANCE__@@@std@@@std@@U_Iterator_base0@2@@2@00@Z ; std::list<HINSTANCE__ *,std::allocator<HINSTANCE__ *> >::_Unchecked_splice
PUBLIC	?_Tidy@?$list@PAUHINSTANCE__@@V?$allocator@PAUHINSTANCE__@@@std@@@std@@QAEXXZ ; std::list<HINSTANCE__ *,std::allocator<HINSTANCE__ *> >::_Tidy
PUBLIC	?_Incsize@?$list@PAUHINSTANCE__@@V?$allocator@PAUHINSTANCE__@@@std@@@std@@QAEXI@Z ; std::list<HINSTANCE__ *,std::allocator<HINSTANCE__ *> >::_Incsize
PUBLIC	??0?$_Hash@V?$_Uset_traits@PAUHINSTANCE__@@V?$_Uhash_compare@PAUHINSTANCE__@@U?$hash@PAUHINSTANCE__@@@std@@U?$equal_to@PAUHINSTANCE__@@@3@@std@@V?$allocator@PAUHINSTANCE__@@@3@$0A@@std@@@std@@QAE@ABV?$_Uhash_compare@PAUHINSTANCE__@@U?$hash@PAUHINSTANCE__@@@std@@U?$equal_to@PAUHINSTANCE__@@@3@@1@ABV?$allocator@PAUHINSTANCE__@@@1@@Z ; std::_Hash<std::_Uset_traits<HINSTANCE__ *,std::_Uhash_compare<HINSTANCE__ *,std::hash<HINSTANCE__ *>,std::equal_to<HINSTANCE__ *> >,std::allocator<HINSTANCE__ *>,0> >::_Hash<std::_Uset_traits<HINSTANCE__ *,std::_Uhash_compare<HINSTANCE__ *,std::hash<HINSTANCE__ *>,std::equal_to<HINSTANCE__ *> >,std::allocator<HINSTANCE__ *>,0> >
PUBLIC	??1?$_Hash@V?$_Uset_traits@PAUHINSTANCE__@@V?$_Uhash_compare@PAUHINSTANCE__@@U?$hash@PAUHINSTANCE__@@@std@@U?$equal_to@PAUHINSTANCE__@@@3@@std@@V?$allocator@PAUHINSTANCE__@@@3@$0A@@std@@@std@@QAE@XZ ; std::_Hash<std::_Uset_traits<HINSTANCE__ *,std::_Uhash_compare<HINSTANCE__ *,std::hash<HINSTANCE__ *>,std::equal_to<HINSTANCE__ *> >,std::allocator<HINSTANCE__ *>,0> >::~_Hash<std::_Uset_traits<HINSTANCE__ *,std::_Uhash_compare<HINSTANCE__ *,std::hash<HINSTANCE__ *>,std::equal_to<HINSTANCE__ *> >,std::allocator<HINSTANCE__ *>,0> >
PUBLIC	?end@?$_Hash@V?$_Uset_traits@PAUHINSTANCE__@@V?$_Uhash_compare@PAUHINSTANCE__@@U?$hash@PAUHINSTANCE__@@@std@@U?$equal_to@PAUHINSTANCE__@@@3@@std@@V?$allocator@PAUHINSTANCE__@@@3@$0A@@std@@@std@@QBE?AV?$_List_const_iterator@V?$_List_val@U?$_List_simple_types@PAUHINSTANCE__@@@std@@@std@@@2@XZ ; std::_Hash<std::_Uset_traits<HINSTANCE__ *,std::_Uhash_compare<HINSTANCE__ *,std::hash<HINSTANCE__ *>,std::equal_to<HINSTANCE__ *> >,std::allocator<HINSTANCE__ *>,0> >::end
PUBLIC	?_Unchecked_begin@?$_Hash@V?$_Uset_traits@PAUHINSTANCE__@@V?$_Uhash_compare@PAUHINSTANCE__@@U?$hash@PAUHINSTANCE__@@@std@@U?$equal_to@PAUHINSTANCE__@@@3@@std@@V?$allocator@PAUHINSTANCE__@@@3@$0A@@std@@@std@@QAE?AV?$_List_unchecked_const_iterator@V?$_List_val@U?$_List_simple_types@PAUHINSTANCE__@@@std@@@std@@U_Iterator_base0@2@@2@XZ ; std::_Hash<std::_Uset_traits<HINSTANCE__ *,std::_Uhash_compare<HINSTANCE__ *,std::hash<HINSTANCE__ *>,std::equal_to<HINSTANCE__ *> >,std::allocator<HINSTANCE__ *>,0> >::_Unchecked_begin
PUBLIC	?_Unchecked_end@?$_Hash@V?$_Uset_traits@PAUHINSTANCE__@@V?$_Uhash_compare@PAUHINSTANCE__@@U?$hash@PAUHINSTANCE__@@@std@@U?$equal_to@PAUHINSTANCE__@@@3@@std@@V?$allocator@PAUHINSTANCE__@@@3@$0A@@std@@@std@@QAE?AV?$_List_unchecked_const_iterator@V?$_List_val@U?$_List_simple_types@PAUHINSTANCE__@@@std@@@std@@U_Iterator_base0@2@@2@XZ ; std::_Hash<std::_Uset_traits<HINSTANCE__ *,std::_Uhash_compare<HINSTANCE__ *,std::hash<HINSTANCE__ *>,std::equal_to<HINSTANCE__ *> >,std::allocator<HINSTANCE__ *>,0> >::_Unchecked_end
PUBLIC	?_Unchecked_end@?$_Hash@V?$_Uset_traits@PAUHINSTANCE__@@V?$_Uhash_compare@PAUHINSTANCE__@@U?$hash@PAUHINSTANCE__@@@std@@U?$equal_to@PAUHINSTANCE__@@@3@@std@@V?$allocator@PAUHINSTANCE__@@@3@$0A@@std@@@std@@QBE?AV?$_List_unchecked_const_iterator@V?$_List_val@U?$_List_simple_types@PAUHINSTANCE__@@@std@@@std@@U_Iterator_base0@2@@2@XZ ; std::_Hash<std::_Uset_traits<HINSTANCE__ *,std::_Uhash_compare<HINSTANCE__ *,std::hash<HINSTANCE__ *>,std::equal_to<HINSTANCE__ *> >,std::allocator<HINSTANCE__ *>,0> >::_Unchecked_end
PUBLIC	?_Make_iter@?$_Hash@V?$_Uset_traits@PAUHINSTANCE__@@V?$_Uhash_compare@PAUHINSTANCE__@@U?$hash@PAUHINSTANCE__@@@std@@U?$equal_to@PAUHINSTANCE__@@@3@@std@@V?$allocator@PAUHINSTANCE__@@@3@$0A@@std@@@std@@QBE?AV?$_List_const_iterator@V?$_List_val@U?$_List_simple_types@PAUHINSTANCE__@@@std@@@std@@@2@V?$_List_unchecked_const_iterator@V?$_List_val@U?$_List_simple_types@PAUHINSTANCE__@@@std@@@std@@U_Iterator_base0@2@@2@@Z ; std::_Hash<std::_Uset_traits<HINSTANCE__ *,std::_Uhash_compare<HINSTANCE__ *,std::hash<HINSTANCE__ *>,std::equal_to<HINSTANCE__ *> >,std::allocator<HINSTANCE__ *>,0> >::_Make_iter
PUBLIC	?_Make_iter@?$_Hash@V?$_Uset_traits@PAUHINSTANCE__@@V?$_Uhash_compare@PAUHINSTANCE__@@U?$hash@PAUHINSTANCE__@@@std@@U?$equal_to@PAUHINSTANCE__@@@3@@std@@V?$allocator@PAUHINSTANCE__@@@3@$0A@@std@@@std@@QBE?AV?$_List_const_iterator@V?$_List_val@U?$_List_simple_types@PAUHINSTANCE__@@@std@@@std@@@2@V32@@Z ; std::_Hash<std::_Uset_traits<HINSTANCE__ *,std::_Uhash_compare<HINSTANCE__ *,std::hash<HINSTANCE__ *>,std::equal_to<HINSTANCE__ *> >,std::allocator<HINSTANCE__ *>,0> >::_Make_iter
PUBLIC	?size@?$_Hash@V?$_Uset_traits@PAUHINSTANCE__@@V?$_Uhash_compare@PAUHINSTANCE__@@U?$hash@PAUHINSTANCE__@@@std@@U?$equal_to@PAUHINSTANCE__@@@3@@std@@V?$allocator@PAUHINSTANCE__@@@3@$0A@@std@@@std@@QBEIXZ ; std::_Hash<std::_Uset_traits<HINSTANCE__ *,std::_Uhash_compare<HINSTANCE__ *,std::hash<HINSTANCE__ *>,std::equal_to<HINSTANCE__ *> >,std::allocator<HINSTANCE__ *>,0> >::size
PUBLIC	?bucket_count@?$_Hash@V?$_Uset_traits@PAUHINSTANCE__@@V?$_Uhash_compare@PAUHINSTANCE__@@U?$hash@PAUHINSTANCE__@@@std@@U?$equal_to@PAUHINSTANCE__@@@3@@std@@V?$allocator@PAUHINSTANCE__@@@3@$0A@@std@@@std@@QBEIXZ ; std::_Hash<std::_Uset_traits<HINSTANCE__ *,std::_Uhash_compare<HINSTANCE__ *,std::hash<HINSTANCE__ *>,std::equal_to<HINSTANCE__ *> >,std::allocator<HINSTANCE__ *>,0> >::bucket_count
PUBLIC	?load_factor@?$_Hash@V?$_Uset_traits@PAUHINSTANCE__@@V?$_Uhash_compare@PAUHINSTANCE__@@U?$hash@PAUHINSTANCE__@@@std@@U?$equal_to@PAUHINSTANCE__@@@3@@std@@V?$allocator@PAUHINSTANCE__@@@3@$0A@@std@@@std@@QBEMXZ ; std::_Hash<std::_Uset_traits<HINSTANCE__ *,std::_Uhash_compare<HINSTANCE__ *,std::hash<HINSTANCE__ *>,std::equal_to<HINSTANCE__ *> >,std::allocator<HINSTANCE__ *>,0> >::load_factor
PUBLIC	?max_load_factor@?$_Hash@V?$_Uset_traits@PAUHINSTANCE__@@V?$_Uhash_compare@PAUHINSTANCE__@@U?$hash@PAUHINSTANCE__@@@std@@U?$equal_to@PAUHINSTANCE__@@@3@@std@@V?$allocator@PAUHINSTANCE__@@@3@$0A@@std@@@std@@QBEMXZ ; std::_Hash<std::_Uset_traits<HINSTANCE__ *,std::_Uhash_compare<HINSTANCE__ *,std::hash<HINSTANCE__ *>,std::equal_to<HINSTANCE__ *> >,std::allocator<HINSTANCE__ *>,0> >::max_load_factor
PUBLIC	?erase@?$_Hash@V?$_Uset_traits@PAUHINSTANCE__@@V?$_Uhash_compare@PAUHINSTANCE__@@U?$hash@PAUHINSTANCE__@@@std@@U?$equal_to@PAUHINSTANCE__@@@3@@std@@V?$allocator@PAUHINSTANCE__@@@3@$0A@@std@@@std@@QAE?AV?$_List_const_iterator@V?$_List_val@U?$_List_simple_types@PAUHINSTANCE__@@@std@@@std@@@2@V32@@Z ; std::_Hash<std::_Uset_traits<HINSTANCE__ *,std::_Uhash_compare<HINSTANCE__ *,std::hash<HINSTANCE__ *>,std::equal_to<HINSTANCE__ *> >,std::allocator<HINSTANCE__ *>,0> >::erase
PUBLIC	?count@?$_Hash@V?$_Uset_traits@PAUHINSTANCE__@@V?$_Uhash_compare@PAUHINSTANCE__@@U?$hash@PAUHINSTANCE__@@@std@@U?$equal_to@PAUHINSTANCE__@@@3@@std@@V?$allocator@PAUHINSTANCE__@@@3@$0A@@std@@@std@@QBEIABQAUHINSTANCE__@@@Z ; std::_Hash<std::_Uset_traits<HINSTANCE__ *,std::_Uhash_compare<HINSTANCE__ *,std::hash<HINSTANCE__ *>,std::equal_to<HINSTANCE__ *> >,std::allocator<HINSTANCE__ *>,0> >::count
PUBLIC	?equal_range@?$_Hash@V?$_Uset_traits@PAUHINSTANCE__@@V?$_Uhash_compare@PAUHINSTANCE__@@U?$hash@PAUHINSTANCE__@@@std@@U?$equal_to@PAUHINSTANCE__@@@3@@std@@V?$allocator@PAUHINSTANCE__@@@3@$0A@@std@@@std@@QBE?AU?$pair@V?$_List_const_iterator@V?$_List_val@U?$_List_simple_types@PAUHINSTANCE__@@@std@@@std@@@std@@V12@@2@ABQAUHINSTANCE__@@@Z ; std::_Hash<std::_Uset_traits<HINSTANCE__ *,std::_Uhash_compare<HINSTANCE__ *,std::hash<HINSTANCE__ *>,std::equal_to<HINSTANCE__ *> >,std::allocator<HINSTANCE__ *>,0> >::equal_range
PUBLIC	?_Destroy_if_not_nil@?$_Hash@V?$_Uset_traits@PAUHINSTANCE__@@V?$_Uhash_compare@PAUHINSTANCE__@@U?$hash@PAUHINSTANCE__@@@std@@U?$equal_to@PAUHINSTANCE__@@@3@@std@@V?$allocator@PAUHINSTANCE__@@@3@$0A@@std@@@std@@IAEXV?$_List_unchecked_const_iterator@V?$_List_val@U?$_List_simple_types@PAUHINSTANCE__@@@std@@@std@@U_Iterator_base0@2@@2@@Z ; std::_Hash<std::_Uset_traits<HINSTANCE__ *,std::_Uhash_compare<HINSTANCE__ *,std::hash<HINSTANCE__ *>,std::equal_to<HINSTANCE__ *> >,std::allocator<HINSTANCE__ *>,0> >::_Destroy_if_not_nil
PUBLIC	?_Destroy_if_not_nil@?$_Hash@V?$_Uset_traits@PAUHINSTANCE__@@V?$_Uhash_compare@PAUHINSTANCE__@@U?$hash@PAUHINSTANCE__@@@std@@U?$equal_to@PAUHINSTANCE__@@@3@@std@@V?$allocator@PAUHINSTANCE__@@@3@$0A@@std@@@std@@IAEXU_Nil@2@@Z ; std::_Hash<std::_Uset_traits<HINSTANCE__ *,std::_Uhash_compare<HINSTANCE__ *,std::hash<HINSTANCE__ *>,std::equal_to<HINSTANCE__ *> >,std::allocator<HINSTANCE__ *>,0> >::_Destroy_if_not_nil
PUBLIC	?_Vec_lo@?$_Hash@V?$_Uset_traits@PAUHINSTANCE__@@V?$_Uhash_compare@PAUHINSTANCE__@@U?$hash@PAUHINSTANCE__@@@std@@U?$equal_to@PAUHINSTANCE__@@@3@@std@@V?$allocator@PAUHINSTANCE__@@@3@$0A@@std@@@std@@IAEAAV?$_List_unchecked_const_iterator@V?$_List_val@U?$_List_simple_types@PAUHINSTANCE__@@@std@@@std@@U_Iterator_base0@2@@2@I@Z ; std::_Hash<std::_Uset_traits<HINSTANCE__ *,std::_Uhash_compare<HINSTANCE__ *,std::hash<HINSTANCE__ *>,std::equal_to<HINSTANCE__ *> >,std::allocator<HINSTANCE__ *>,0> >::_Vec_lo
PUBLIC	?_Vec_lo@?$_Hash@V?$_Uset_traits@PAUHINSTANCE__@@V?$_Uhash_compare@PAUHINSTANCE__@@U?$hash@PAUHINSTANCE__@@@std@@U?$equal_to@PAUHINSTANCE__@@@3@@std@@V?$allocator@PAUHINSTANCE__@@@3@$0A@@std@@@std@@IBEAAV?$_List_unchecked_const_iterator@V?$_List_val@U?$_List_simple_types@PAUHINSTANCE__@@@std@@@std@@U_Iterator_base0@2@@2@I@Z ; std::_Hash<std::_Uset_traits<HINSTANCE__ *,std::_Uhash_compare<HINSTANCE__ *,std::hash<HINSTANCE__ *>,std::equal_to<HINSTANCE__ *> >,std::allocator<HINSTANCE__ *>,0> >::_Vec_lo
PUBLIC	?_Vec_hi@?$_Hash@V?$_Uset_traits@PAUHINSTANCE__@@V?$_Uhash_compare@PAUHINSTANCE__@@U?$hash@PAUHINSTANCE__@@@std@@U?$equal_to@PAUHINSTANCE__@@@3@@std@@V?$allocator@PAUHINSTANCE__@@@3@$0A@@std@@@std@@IAEAAV?$_List_unchecked_const_iterator@V?$_List_val@U?$_List_simple_types@PAUHINSTANCE__@@@std@@@std@@U_Iterator_base0@2@@2@I@Z ; std::_Hash<std::_Uset_traits<HINSTANCE__ *,std::_Uhash_compare<HINSTANCE__ *,std::hash<HINSTANCE__ *>,std::equal_to<HINSTANCE__ *> >,std::allocator<HINSTANCE__ *>,0> >::_Vec_hi
PUBLIC	?_Vec_hi@?$_Hash@V?$_Uset_traits@PAUHINSTANCE__@@V?$_Uhash_compare@PAUHINSTANCE__@@U?$hash@PAUHINSTANCE__@@@std@@U?$equal_to@PAUHINSTANCE__@@@3@@std@@V?$allocator@PAUHINSTANCE__@@@3@$0A@@std@@@std@@IBEAAV?$_List_unchecked_const_iterator@V?$_List_val@U?$_List_simple_types@PAUHINSTANCE__@@@std@@@std@@U_Iterator_base0@2@@2@I@Z ; std::_Hash<std::_Uset_traits<HINSTANCE__ *,std::_Uhash_compare<HINSTANCE__ *,std::hash<HINSTANCE__ *>,std::equal_to<HINSTANCE__ *> >,std::allocator<HINSTANCE__ *>,0> >::_Vec_hi
PUBLIC	?_Begin@?$_Hash@V?$_Uset_traits@PAUHINSTANCE__@@V?$_Uhash_compare@PAUHINSTANCE__@@U?$hash@PAUHINSTANCE__@@@std@@U?$equal_to@PAUHINSTANCE__@@@3@@std@@V?$allocator@PAUHINSTANCE__@@@3@$0A@@std@@@std@@IAE?AV?$_List_unchecked_const_iterator@V?$_List_val@U?$_List_simple_types@PAUHINSTANCE__@@@std@@@std@@U_Iterator_base0@2@@2@I@Z ; std::_Hash<std::_Uset_traits<HINSTANCE__ *,std::_Uhash_compare<HINSTANCE__ *,std::hash<HINSTANCE__ *>,std::equal_to<HINSTANCE__ *> >,std::allocator<HINSTANCE__ *>,0> >::_Begin
PUBLIC	?_Begin@?$_Hash@V?$_Uset_traits@PAUHINSTANCE__@@V?$_Uhash_compare@PAUHINSTANCE__@@U?$hash@PAUHINSTANCE__@@@std@@U?$equal_to@PAUHINSTANCE__@@@3@@std@@V?$allocator@PAUHINSTANCE__@@@3@$0A@@std@@@std@@IBE?AV?$_List_unchecked_const_iterator@V?$_List_val@U?$_List_simple_types@PAUHINSTANCE__@@@std@@@std@@U_Iterator_base0@2@@2@I@Z ; std::_Hash<std::_Uset_traits<HINSTANCE__ *,std::_Uhash_compare<HINSTANCE__ *,std::hash<HINSTANCE__ *>,std::equal_to<HINSTANCE__ *> >,std::allocator<HINSTANCE__ *>,0> >::_Begin
PUBLIC	?_End@?$_Hash@V?$_Uset_traits@PAUHINSTANCE__@@V?$_Uhash_compare@PAUHINSTANCE__@@U?$hash@PAUHINSTANCE__@@@std@@U?$equal_to@PAUHINSTANCE__@@@3@@std@@V?$allocator@PAUHINSTANCE__@@@3@$0A@@std@@@std@@IAE?AV?$_List_unchecked_const_iterator@V?$_List_val@U?$_List_simple_types@PAUHINSTANCE__@@@std@@@std@@U_Iterator_base0@2@@2@I@Z ; std::_Hash<std::_Uset_traits<HINSTANCE__ *,std::_Uhash_compare<HINSTANCE__ *,std::hash<HINSTANCE__ *>,std::equal_to<HINSTANCE__ *> >,std::allocator<HINSTANCE__ *>,0> >::_End
PUBLIC	?_End@?$_Hash@V?$_Uset_traits@PAUHINSTANCE__@@V?$_Uhash_compare@PAUHINSTANCE__@@U?$hash@PAUHINSTANCE__@@@std@@U?$equal_to@PAUHINSTANCE__@@@3@@std@@V?$allocator@PAUHINSTANCE__@@@3@$0A@@std@@@std@@IBE?AV?$_List_unchecked_const_iterator@V?$_List_val@U?$_List_simple_types@PAUHINSTANCE__@@@std@@@std@@U_Iterator_base0@2@@2@I@Z ; std::_Hash<std::_Uset_traits<HINSTANCE__ *,std::_Uhash_compare<HINSTANCE__ *,std::hash<HINSTANCE__ *>,std::equal_to<HINSTANCE__ *> >,std::allocator<HINSTANCE__ *>,0> >::_End
PUBLIC	?_Erase_bucket@?$_Hash@V?$_Uset_traits@PAUHINSTANCE__@@V?$_Uhash_compare@PAUHINSTANCE__@@U?$hash@PAUHINSTANCE__@@@std@@U?$equal_to@PAUHINSTANCE__@@@3@@std@@V?$allocator@PAUHINSTANCE__@@@3@$0A@@std@@@std@@IAEXV?$_List_const_iterator@V?$_List_val@U?$_List_simple_types@PAUHINSTANCE__@@@std@@@std@@@2@I@Z ; std::_Hash<std::_Uset_traits<HINSTANCE__ *,std::_Uhash_compare<HINSTANCE__ *,std::hash<HINSTANCE__ *>,std::equal_to<HINSTANCE__ *> >,std::allocator<HINSTANCE__ *>,0> >::_Erase_bucket
PUBLIC	?_Insert_bucket@?$_Hash@V?$_Uset_traits@PAUHINSTANCE__@@V?$_Uhash_compare@PAUHINSTANCE__@@U?$hash@PAUHINSTANCE__@@@std@@U?$equal_to@PAUHINSTANCE__@@@3@@std@@V?$allocator@PAUHINSTANCE__@@@3@$0A@@std@@@std@@IAEXV?$_List_unchecked_const_iterator@V?$_List_val@U?$_List_simple_types@PAUHINSTANCE__@@@std@@@std@@U_Iterator_base0@2@@2@0I@Z ; std::_Hash<std::_Uset_traits<HINSTANCE__ *,std::_Uhash_compare<HINSTANCE__ *,std::hash<HINSTANCE__ *>,std::equal_to<HINSTANCE__ *> >,std::allocator<HINSTANCE__ *>,0> >::_Insert_bucket
PUBLIC	?_Hashval@?$_Hash@V?$_Uset_traits@PAUHINSTANCE__@@V?$_Uhash_compare@PAUHINSTANCE__@@U?$hash@PAUHINSTANCE__@@@std@@U?$equal_to@PAUHINSTANCE__@@@3@@std@@V?$allocator@PAUHINSTANCE__@@@3@$0A@@std@@@std@@IBEIABQAUHINSTANCE__@@@Z ; std::_Hash<std::_Uset_traits<HINSTANCE__ *,std::_Uhash_compare<HINSTANCE__ *,std::hash<HINSTANCE__ *>,std::equal_to<HINSTANCE__ *> >,std::allocator<HINSTANCE__ *>,0> >::_Hashval
PUBLIC	?_Init@?$_Hash@V?$_Uset_traits@PAUHINSTANCE__@@V?$_Uhash_compare@PAUHINSTANCE__@@U?$hash@PAUHINSTANCE__@@@std@@U?$equal_to@PAUHINSTANCE__@@@3@@std@@V?$allocator@PAUHINSTANCE__@@@3@$0A@@std@@@std@@IAEXI@Z ; std::_Hash<std::_Uset_traits<HINSTANCE__ *,std::_Uhash_compare<HINSTANCE__ *,std::hash<HINSTANCE__ *>,std::equal_to<HINSTANCE__ *> >,std::allocator<HINSTANCE__ *>,0> >::_Init
PUBLIC	?_Check_size@?$_Hash@V?$_Uset_traits@PAUHINSTANCE__@@V?$_Uhash_compare@PAUHINSTANCE__@@U?$hash@PAUHINSTANCE__@@@std@@U?$equal_to@PAUHINSTANCE__@@@3@@std@@V?$allocator@PAUHINSTANCE__@@@3@$0A@@std@@@std@@IAEXXZ ; std::_Hash<std::_Uset_traits<HINSTANCE__ *,std::_Uhash_compare<HINSTANCE__ *,std::hash<HINSTANCE__ *>,std::equal_to<HINSTANCE__ *> >,std::allocator<HINSTANCE__ *>,0> >::_Check_size
PUBLIC	?_Reinsert@?$_Hash@V?$_Uset_traits@PAUHINSTANCE__@@V?$_Uhash_compare@PAUHINSTANCE__@@U?$hash@PAUHINSTANCE__@@@std@@U?$equal_to@PAUHINSTANCE__@@@3@@std@@V?$allocator@PAUHINSTANCE__@@@3@$0A@@std@@@std@@IAEXXZ ; std::_Hash<std::_Uset_traits<HINSTANCE__ *,std::_Uhash_compare<HINSTANCE__ *,std::hash<HINSTANCE__ *>,std::equal_to<HINSTANCE__ *> >,std::allocator<HINSTANCE__ *>,0> >::_Reinsert
PUBLIC	?_Max_bucket_size@?$_Hash@V?$_Uset_traits@PAUHINSTANCE__@@V?$_Uhash_compare@PAUHINSTANCE__@@U?$hash@PAUHINSTANCE__@@@std@@U?$equal_to@PAUHINSTANCE__@@@3@@std@@V?$allocator@PAUHINSTANCE__@@@3@$0A@@std@@@std@@IAEAAMXZ ; std::_Hash<std::_Uset_traits<HINSTANCE__ *,std::_Uhash_compare<HINSTANCE__ *,std::hash<HINSTANCE__ *>,std::equal_to<HINSTANCE__ *> >,std::allocator<HINSTANCE__ *>,0> >::_Max_bucket_size
PUBLIC	?_Max_bucket_size@?$_Hash@V?$_Uset_traits@PAUHINSTANCE__@@V?$_Uhash_compare@PAUHINSTANCE__@@U?$hash@PAUHINSTANCE__@@@std@@U?$equal_to@PAUHINSTANCE__@@@3@@std@@V?$allocator@PAUHINSTANCE__@@@3@$0A@@std@@@std@@IBEABMXZ ; std::_Hash<std::_Uset_traits<HINSTANCE__ *,std::_Uhash_compare<HINSTANCE__ *,std::hash<HINSTANCE__ *>,std::equal_to<HINSTANCE__ *> >,std::allocator<HINSTANCE__ *>,0> >::_Max_bucket_size
PUBLIC	??0?$allocator@V?$_List_unchecked_const_iterator@V?$_List_val@U?$_List_simple_types@PAUHINSTANCE__@@@std@@@std@@U_Iterator_base0@2@@std@@@std@@QAE@ABV01@@Z ; std::allocator<std::_List_unchecked_const_iterator<std::_List_val<std::_List_simple_types<HINSTANCE__ *> >,std::_Iterator_base0> >::allocator<std::_List_unchecked_const_iterator<std::_List_val<std::_List_simple_types<HINSTANCE__ *> >,std::_Iterator_base0> >
PUBLIC	?deallocate@?$allocator@V?$_List_unchecked_const_iterator@V?$_List_val@U?$_List_simple_types@PAUHINSTANCE__@@@std@@@std@@U_Iterator_base0@2@@std@@@std@@QAEXPAV?$_List_unchecked_const_iterator@V?$_List_val@U?$_List_simple_types@PAUHINSTANCE__@@@std@@@std@@U_Iterator_base0@2@@2@I@Z ; std::allocator<std::_List_unchecked_const_iterator<std::_List_val<std::_List_simple_types<HINSTANCE__ *> >,std::_Iterator_base0> >::deallocate
PUBLIC	?allocate@?$allocator@V?$_List_unchecked_const_iterator@V?$_List_val@U?$_List_simple_types@PAUHINSTANCE__@@@std@@@std@@U_Iterator_base0@2@@std@@@std@@QAEPAV?$_List_unchecked_const_iterator@V?$_List_val@U?$_List_simple_types@PAUHINSTANCE__@@@std@@@std@@U_Iterator_base0@2@@2@I@Z ; std::allocator<std::_List_unchecked_const_iterator<std::_List_val<std::_List_simple_types<HINSTANCE__ *> >,std::_Iterator_base0> >::allocate
PUBLIC	?max_size@?$allocator@V?$_List_unchecked_const_iterator@V?$_List_val@U?$_List_simple_types@PAUHINSTANCE__@@@std@@@std@@U_Iterator_base0@2@@std@@@std@@QBEIXZ ; std::allocator<std::_List_unchecked_const_iterator<std::_List_val<std::_List_simple_types<HINSTANCE__ *> >,std::_Iterator_base0> >::max_size
PUBLIC	?max_size@?$allocator_traits@V?$allocator@V?$_List_unchecked_const_iterator@V?$_List_val@U?$_List_simple_types@PAUHINSTANCE__@@@std@@@std@@U_Iterator_base0@2@@std@@@std@@@std@@SAIABV?$allocator@V?$_List_unchecked_const_iterator@V?$_List_val@U?$_List_simple_types@PAUHINSTANCE__@@@std@@@std@@U_Iterator_base0@2@@std@@@2@@Z ; std::allocator_traits<std::allocator<std::_List_unchecked_const_iterator<std::_List_val<std::_List_simple_types<HINSTANCE__ *> >,std::_Iterator_base0> > >::max_size
PUBLIC	??0?$_Wrap_alloc@V?$allocator@V?$_List_unchecked_const_iterator@V?$_List_val@U?$_List_simple_types@PAUHINSTANCE__@@@std@@@std@@U_Iterator_base0@2@@std@@@std@@@std@@QAE@ABU01@@Z ; std::_Wrap_alloc<std::allocator<std::_List_unchecked_const_iterator<std::_List_val<std::_List_simple_types<HINSTANCE__ *> >,std::_Iterator_base0> > >::_Wrap_alloc<std::allocator<std::_List_unchecked_const_iterator<std::_List_val<std::_List_simple_types<HINSTANCE__ *> >,std::_Iterator_base0> > >
PUBLIC	?allocate@?$_Wrap_alloc@V?$allocator@V?$_List_unchecked_const_iterator@V?$_List_val@U?$_List_simple_types@PAUHINSTANCE__@@@std@@@std@@U_Iterator_base0@2@@std@@@std@@@std@@QAEPAV?$_List_unchecked_const_iterator@V?$_List_val@U?$_List_simple_types@PAUHINSTANCE__@@@std@@@std@@U_Iterator_base0@2@@2@I@Z ; std::_Wrap_alloc<std::allocator<std::_List_unchecked_const_iterator<std::_List_val<std::_List_simple_types<HINSTANCE__ *> >,std::_Iterator_base0> > >::allocate
PUBLIC	?deallocate@?$_Wrap_alloc@V?$allocator@V?$_List_unchecked_const_iterator@V?$_List_val@U?$_List_simple_types@PAUHINSTANCE__@@@std@@@std@@U_Iterator_base0@2@@std@@@std@@@std@@QAEXPAV?$_List_unchecked_const_iterator@V?$_List_val@U?$_List_simple_types@PAUHINSTANCE__@@@std@@@std@@U_Iterator_base0@2@@2@I@Z ; std::_Wrap_alloc<std::allocator<std::_List_unchecked_const_iterator<std::_List_val<std::_List_simple_types<HINSTANCE__ *> >,std::_Iterator_base0> > >::deallocate
PUBLIC	?max_size@?$_Wrap_alloc@V?$allocator@V?$_List_unchecked_const_iterator@V?$_List_val@U?$_List_simple_types@PAUHINSTANCE__@@@std@@@std@@U_Iterator_base0@2@@std@@@std@@@std@@QBEIU_Nil@2@@Z ; std::_Wrap_alloc<std::allocator<std::_List_unchecked_const_iterator<std::_List_val<std::_List_simple_types<HINSTANCE__ *> >,std::_Iterator_base0> > >::max_size
PUBLIC	?max_size@?$allocator_traits@U?$_Wrap_alloc@V?$allocator@V?$_List_unchecked_const_iterator@V?$_List_val@U?$_List_simple_types@PAUHINSTANCE__@@@std@@@std@@U_Iterator_base0@2@@std@@@std@@@std@@@std@@SAIABU?$_Wrap_alloc@V?$allocator@V?$_List_unchecked_const_iterator@V?$_List_val@U?$_List_simple_types@PAUHINSTANCE__@@@std@@@std@@U_Iterator_base0@2@@std@@@std@@@2@@Z ; std::allocator_traits<std::_Wrap_alloc<std::allocator<std::_List_unchecked_const_iterator<std::_List_val<std::_List_simple_types<HINSTANCE__ *> >,std::_Iterator_base0> > > >::max_size
PUBLIC	?allocate@?$_Wrap_alloc@U?$_Wrap_alloc@V?$allocator@V?$_List_unchecked_const_iterator@V?$_List_val@U?$_List_simple_types@PAUHINSTANCE__@@@std@@@std@@U_Iterator_base0@2@@std@@@std@@@std@@@std@@QAEPAV?$_List_unchecked_const_iterator@V?$_List_val@U?$_List_simple_types@PAUHINSTANCE__@@@std@@@std@@U_Iterator_base0@2@@2@I@Z ; std::_Wrap_alloc<std::_Wrap_alloc<std::allocator<std::_List_unchecked_const_iterator<std::_List_val<std::_List_simple_types<HINSTANCE__ *> >,std::_Iterator_base0> > > >::allocate
PUBLIC	?deallocate@?$_Wrap_alloc@U?$_Wrap_alloc@V?$allocator@V?$_List_unchecked_const_iterator@V?$_List_val@U?$_List_simple_types@PAUHINSTANCE__@@@std@@@std@@U_Iterator_base0@2@@std@@@std@@@std@@@std@@QAEXPAV?$_List_unchecked_const_iterator@V?$_List_val@U?$_List_simple_types@PAUHINSTANCE__@@@std@@@std@@U_Iterator_base0@2@@2@I@Z ; std::_Wrap_alloc<std::_Wrap_alloc<std::allocator<std::_List_unchecked_const_iterator<std::_List_val<std::_List_simple_types<HINSTANCE__ *> >,std::_Iterator_base0> > > >::deallocate
PUBLIC	?max_size@?$_Wrap_alloc@U?$_Wrap_alloc@V?$allocator@V?$_List_unchecked_const_iterator@V?$_List_val@U?$_List_simple_types@PAUHINSTANCE__@@@std@@@std@@U_Iterator_base0@2@@std@@@std@@@std@@@std@@QBEIU_Nil@2@@Z ; std::_Wrap_alloc<std::_Wrap_alloc<std::allocator<std::_List_unchecked_const_iterator<std::_List_val<std::_List_simple_types<HINSTANCE__ *> >,std::_Iterator_base0> > > >::max_size
PUBLIC	?_Orphan_all@?$_Vector_alloc@U?$_Vec_base_types@V?$_List_unchecked_const_iterator@V?$_List_val@U?$_List_simple_types@PAUHINSTANCE__@@@std@@@std@@U_Iterator_base0@2@@std@@U?$_Wrap_alloc@V?$allocator@V?$_List_unchecked_const_iterator@V?$_List_val@U?$_List_simple_types@PAUHINSTANCE__@@@std@@@std@@U_Iterator_base0@2@@std@@@std@@@2@@std@@@std@@QAEXXZ ; std::_Vector_alloc<std::_Vec_base_types<std::_List_unchecked_const_iterator<std::_List_val<std::_List_simple_types<HINSTANCE__ *> >,std::_Iterator_base0>,std::_Wrap_alloc<std::allocator<std::_List_unchecked_const_iterator<std::_List_val<std::_List_simple_types<HINSTANCE__ *> >,std::_Iterator_base0> > > > >::_Orphan_all
PUBLIC	?_Getal@?$_Vector_alloc@U?$_Vec_base_types@V?$_List_unchecked_const_iterator@V?$_List_val@U?$_List_simple_types@PAUHINSTANCE__@@@std@@@std@@U_Iterator_base0@2@@std@@U?$_Wrap_alloc@V?$allocator@V?$_List_unchecked_const_iterator@V?$_List_val@U?$_List_simple_types@PAUHINSTANCE__@@@std@@@std@@U_Iterator_base0@2@@std@@@std@@@2@@std@@@std@@QAEAAU?$_Wrap_alloc@U?$_Wrap_alloc@V?$allocator@V?$_List_unchecked_const_iterator@V?$_List_val@U?$_List_simple_types@PAUHINSTANCE__@@@std@@@std@@U_Iterator_base0@2@@std@@@std@@@std@@@2@XZ ; std::_Vector_alloc<std::_Vec_base_types<std::_List_unchecked_const_iterator<std::_List_val<std::_List_simple_types<HINSTANCE__ *> >,std::_Iterator_base0>,std::_Wrap_alloc<std::allocator<std::_List_unchecked_const_iterator<std::_List_val<std::_List_simple_types<HINSTANCE__ *> >,std::_Iterator_base0> > > > >::_Getal
PUBLIC	?_Getal@?$_Vector_alloc@U?$_Vec_base_types@V?$_List_unchecked_const_iterator@V?$_List_val@U?$_List_simple_types@PAUHINSTANCE__@@@std@@@std@@U_Iterator_base0@2@@std@@U?$_Wrap_alloc@V?$allocator@V?$_List_unchecked_const_iterator@V?$_List_val@U?$_List_simple_types@PAUHINSTANCE__@@@std@@@std@@U_Iterator_base0@2@@std@@@std@@@2@@std@@@std@@QBEABU?$_Wrap_alloc@U?$_Wrap_alloc@V?$allocator@V?$_List_unchecked_const_iterator@V?$_List_val@U?$_List_simple_types@PAUHINSTANCE__@@@std@@@std@@U_Iterator_base0@2@@std@@@std@@@std@@@2@XZ ; std::_Vector_alloc<std::_Vec_base_types<std::_List_unchecked_const_iterator<std::_List_val<std::_List_simple_types<HINSTANCE__ *> >,std::_Iterator_base0>,std::_Wrap_alloc<std::allocator<std::_List_unchecked_const_iterator<std::_List_val<std::_List_simple_types<HINSTANCE__ *> >,std::_Iterator_base0> > > > >::_Getal
PUBLIC	?_Get_data@?$_Vector_alloc@U?$_Vec_base_types@V?$_List_unchecked_const_iterator@V?$_List_val@U?$_List_simple_types@PAUHINSTANCE__@@@std@@@std@@U_Iterator_base0@2@@std@@U?$_Wrap_alloc@V?$allocator@V?$_List_unchecked_const_iterator@V?$_List_val@U?$_List_simple_types@PAUHINSTANCE__@@@std@@@std@@U_Iterator_base0@2@@std@@@std@@@2@@std@@@std@@QAEAAV?$_Vector_val@U?$_Simple_types@V?$_List_unchecked_const_iterator@V?$_List_val@U?$_List_simple_types@PAUHINSTANCE__@@@std@@@std@@U_Iterator_base0@2@@std@@@std@@@2@XZ ; std::_Vector_alloc<std::_Vec_base_types<std::_List_unchecked_const_iterator<std::_List_val<std::_List_simple_types<HINSTANCE__ *> >,std::_Iterator_base0>,std::_Wrap_alloc<std::allocator<std::_List_unchecked_const_iterator<std::_List_val<std::_List_simple_types<HINSTANCE__ *> >,std::_Iterator_base0> > > > >::_Get_data
PUBLIC	?_Get_data@?$_Vector_alloc@U?$_Vec_base_types@V?$_List_unchecked_const_iterator@V?$_List_val@U?$_List_simple_types@PAUHINSTANCE__@@@std@@@std@@U_Iterator_base0@2@@std@@U?$_Wrap_alloc@V?$allocator@V?$_List_unchecked_const_iterator@V?$_List_val@U?$_List_simple_types@PAUHINSTANCE__@@@std@@@std@@U_Iterator_base0@2@@std@@@std@@@2@@std@@@std@@QBEABV?$_Vector_val@U?$_Simple_types@V?$_List_unchecked_const_iterator@V?$_List_val@U?$_List_simple_types@PAUHINSTANCE__@@@std@@@std@@U_Iterator_base0@2@@std@@@std@@@2@XZ ; std::_Vector_alloc<std::_Vec_base_types<std::_List_unchecked_const_iterator<std::_List_val<std::_List_simple_types<HINSTANCE__ *> >,std::_Iterator_base0>,std::_Wrap_alloc<std::allocator<std::_List_unchecked_const_iterator<std::_List_val<std::_List_simple_types<HINSTANCE__ *> >,std::_Iterator_base0> > > > >::_Get_data
PUBLIC	?_Myfirst@?$_Vector_alloc@U?$_Vec_base_types@V?$_List_unchecked_const_iterator@V?$_List_val@U?$_List_simple_types@PAUHINSTANCE__@@@std@@@std@@U_Iterator_base0@2@@std@@U?$_Wrap_alloc@V?$allocator@V?$_List_unchecked_const_iterator@V?$_List_val@U?$_List_simple_types@PAUHINSTANCE__@@@std@@@std@@U_Iterator_base0@2@@std@@@std@@@2@@std@@@std@@QAEAAPAV?$_List_unchecked_const_iterator@V?$_List_val@U?$_List_simple_types@PAUHINSTANCE__@@@std@@@std@@U_Iterator_base0@2@@2@XZ ; std::_Vector_alloc<std::_Vec_base_types<std::_List_unchecked_const_iterator<std::_List_val<std::_List_simple_types<HINSTANCE__ *> >,std::_Iterator_base0>,std::_Wrap_alloc<std::allocator<std::_List_unchecked_const_iterator<std::_List_val<std::_List_simple_types<HINSTANCE__ *> >,std::_Iterator_base0> > > > >::_Myfirst
PUBLIC	?_Myfirst@?$_Vector_alloc@U?$_Vec_base_types@V?$_List_unchecked_const_iterator@V?$_List_val@U?$_List_simple_types@PAUHINSTANCE__@@@std@@@std@@U_Iterator_base0@2@@std@@U?$_Wrap_alloc@V?$allocator@V?$_List_unchecked_const_iterator@V?$_List_val@U?$_List_simple_types@PAUHINSTANCE__@@@std@@@std@@U_Iterator_base0@2@@std@@@std@@@2@@std@@@std@@QBEABQAV?$_List_unchecked_const_iterator@V?$_List_val@U?$_List_simple_types@PAUHINSTANCE__@@@std@@@std@@U_Iterator_base0@2@@2@XZ ; std::_Vector_alloc<std::_Vec_base_types<std::_List_unchecked_const_iterator<std::_List_val<std::_List_simple_types<HINSTANCE__ *> >,std::_Iterator_base0>,std::_Wrap_alloc<std::allocator<std::_List_unchecked_const_iterator<std::_List_val<std::_List_simple_types<HINSTANCE__ *> >,std::_Iterator_base0> > > > >::_Myfirst
PUBLIC	?_Mylast@?$_Vector_alloc@U?$_Vec_base_types@V?$_List_unchecked_const_iterator@V?$_List_val@U?$_List_simple_types@PAUHINSTANCE__@@@std@@@std@@U_Iterator_base0@2@@std@@U?$_Wrap_alloc@V?$allocator@V?$_List_unchecked_const_iterator@V?$_List_val@U?$_List_simple_types@PAUHINSTANCE__@@@std@@@std@@U_Iterator_base0@2@@std@@@std@@@2@@std@@@std@@QAEAAPAV?$_List_unchecked_const_iterator@V?$_List_val@U?$_List_simple_types@PAUHINSTANCE__@@@std@@@std@@U_Iterator_base0@2@@2@XZ ; std::_Vector_alloc<std::_Vec_base_types<std::_List_unchecked_const_iterator<std::_List_val<std::_List_simple_types<HINSTANCE__ *> >,std::_Iterator_base0>,std::_Wrap_alloc<std::allocator<std::_List_unchecked_const_iterator<std::_List_val<std::_List_simple_types<HINSTANCE__ *> >,std::_Iterator_base0> > > > >::_Mylast
PUBLIC	?_Mylast@?$_Vector_alloc@U?$_Vec_base_types@V?$_List_unchecked_const_iterator@V?$_List_val@U?$_List_simple_types@PAUHINSTANCE__@@@std@@@std@@U_Iterator_base0@2@@std@@U?$_Wrap_alloc@V?$allocator@V?$_List_unchecked_const_iterator@V?$_List_val@U?$_List_simple_types@PAUHINSTANCE__@@@std@@@std@@U_Iterator_base0@2@@std@@@std@@@2@@std@@@std@@QBEABQAV?$_List_unchecked_const_iterator@V?$_List_val@U?$_List_simple_types@PAUHINSTANCE__@@@std@@@std@@U_Iterator_base0@2@@2@XZ ; std::_Vector_alloc<std::_Vec_base_types<std::_List_unchecked_const_iterator<std::_List_val<std::_List_simple_types<HINSTANCE__ *> >,std::_Iterator_base0>,std::_Wrap_alloc<std::allocator<std::_List_unchecked_const_iterator<std::_List_val<std::_List_simple_types<HINSTANCE__ *> >,std::_Iterator_base0> > > > >::_Mylast
PUBLIC	?_Myend@?$_Vector_alloc@U?$_Vec_base_types@V?$_List_unchecked_const_iterator@V?$_List_val@U?$_List_simple_types@PAUHINSTANCE__@@@std@@@std@@U_Iterator_base0@2@@std@@U?$_Wrap_alloc@V?$allocator@V?$_List_unchecked_const_iterator@V?$_List_val@U?$_List_simple_types@PAUHINSTANCE__@@@std@@@std@@U_Iterator_base0@2@@std@@@std@@@2@@std@@@std@@QAEAAPAV?$_List_unchecked_const_iterator@V?$_List_val@U?$_List_simple_types@PAUHINSTANCE__@@@std@@@std@@U_Iterator_base0@2@@2@XZ ; std::_Vector_alloc<std::_Vec_base_types<std::_List_unchecked_const_iterator<std::_List_val<std::_List_simple_types<HINSTANCE__ *> >,std::_Iterator_base0>,std::_Wrap_alloc<std::allocator<std::_List_unchecked_const_iterator<std::_List_val<std::_List_simple_types<HINSTANCE__ *> >,std::_Iterator_base0> > > > >::_Myend
PUBLIC	?_Myend@?$_Vector_alloc@U?$_Vec_base_types@V?$_List_unchecked_const_iterator@V?$_List_val@U?$_List_simple_types@PAUHINSTANCE__@@@std@@@std@@U_Iterator_base0@2@@std@@U?$_Wrap_alloc@V?$allocator@V?$_List_unchecked_const_iterator@V?$_List_val@U?$_List_simple_types@PAUHINSTANCE__@@@std@@@std@@U_Iterator_base0@2@@std@@@std@@@2@@std@@@std@@QBEABQAV?$_List_unchecked_const_iterator@V?$_List_val@U?$_List_simple_types@PAUHINSTANCE__@@@std@@@std@@U_Iterator_base0@2@@2@XZ ; std::_Vector_alloc<std::_Vec_base_types<std::_List_unchecked_const_iterator<std::_List_val<std::_List_simple_types<HINSTANCE__ *> >,std::_Iterator_base0>,std::_Wrap_alloc<std::allocator<std::_List_unchecked_const_iterator<std::_List_val<std::_List_simple_types<HINSTANCE__ *> >,std::_Iterator_base0> > > > >::_Myend
PUBLIC	??0?$_Vector_val@U?$_Simple_types@V?$_List_unchecked_const_iterator@V?$_List_val@U?$_List_simple_types@PAUHINSTANCE__@@@std@@@std@@U_Iterator_base0@2@@std@@@std@@@std@@QAE@XZ ; std::_Vector_val<std::_Simple_types<std::_List_unchecked_const_iterator<std::_List_val<std::_List_simple_types<HINSTANCE__ *> >,std::_Iterator_base0> > >::_Vector_val<std::_Simple_types<std::_List_unchecked_const_iterator<std::_List_val<std::_List_simple_types<HINSTANCE__ *> >,std::_Iterator_base0> > >
PUBLIC	?_Get_first@?$_Compressed_pair@U?$_Wrap_alloc@U?$_Wrap_alloc@V?$allocator@V?$_List_unchecked_const_iterator@V?$_List_val@U?$_List_simple_types@PAUHINSTANCE__@@@std@@@std@@U_Iterator_base0@2@@std@@@std@@@std@@@std@@V?$_Vector_val@U?$_Simple_types@V?$_List_unchecked_const_iterator@V?$_List_val@U?$_List_simple_types@PAUHINSTANCE__@@@std@@@std@@U_Iterator_base0@2@@std@@@std@@@2@$00@std@@QAEAAU?$_Wrap_alloc@U?$_Wrap_alloc@V?$allocator@V?$_List_unchecked_const_iterator@V?$_List_val@U?$_List_simple_types@PAUHINSTANCE__@@@std@@@std@@U_Iterator_base0@2@@std@@@std@@@std@@@2@XZ ; std::_Compressed_pair<std::_Wrap_alloc<std::_Wrap_alloc<std::allocator<std::_List_unchecked_const_iterator<std::_List_val<std::_List_simple_types<HINSTANCE__ *> >,std::_Iterator_base0> > > >,std::_Vector_val<std::_Simple_types<std::_List_unchecked_const_iterator<std::_List_val<std::_List_simple_types<HINSTANCE__ *> >,std::_Iterator_base0> > >,1>::_Get_first
PUBLIC	?_Get_first@?$_Compressed_pair@U?$_Wrap_alloc@U?$_Wrap_alloc@V?$allocator@V?$_List_unchecked_const_iterator@V?$_List_val@U?$_List_simple_types@PAUHINSTANCE__@@@std@@@std@@U_Iterator_base0@2@@std@@@std@@@std@@@std@@V?$_Vector_val@U?$_Simple_types@V?$_List_unchecked_const_iterator@V?$_List_val@U?$_List_simple_types@PAUHINSTANCE__@@@std@@@std@@U_Iterator_base0@2@@std@@@std@@@2@$00@std@@QBEABU?$_Wrap_alloc@U?$_Wrap_alloc@V?$allocator@V?$_List_unchecked_const_iterator@V?$_List_val@U?$_List_simple_types@PAUHINSTANCE__@@@std@@@std@@U_Iterator_base0@2@@std@@@std@@@std@@@2@XZ ; std::_Compressed_pair<std::_Wrap_alloc<std::_Wrap_alloc<std::allocator<std::_List_unchecked_const_iterator<std::_List_val<std::_List_simple_types<HINSTANCE__ *> >,std::_Iterator_base0> > > >,std::_Vector_val<std::_Simple_types<std::_List_unchecked_const_iterator<std::_List_val<std::_List_simple_types<HINSTANCE__ *> >,std::_Iterator_base0> > >,1>::_Get_first
PUBLIC	?_Get_second@?$_Compressed_pair@U?$_Wrap_alloc@U?$_Wrap_alloc@V?$allocator@V?$_List_unchecked_const_iterator@V?$_List_val@U?$_List_simple_types@PAUHINSTANCE__@@@std@@@std@@U_Iterator_base0@2@@std@@@std@@@std@@@std@@V?$_Vector_val@U?$_Simple_types@V?$_List_unchecked_const_iterator@V?$_List_val@U?$_List_simple_types@PAUHINSTANCE__@@@std@@@std@@U_Iterator_base0@2@@std@@@std@@@2@$00@std@@QAEAAV?$_Vector_val@U?$_Simple_types@V?$_List_unchecked_const_iterator@V?$_List_val@U?$_List_simple_types@PAUHINSTANCE__@@@std@@@std@@U_Iterator_base0@2@@std@@@std@@@2@XZ ; std::_Compressed_pair<std::_Wrap_alloc<std::_Wrap_alloc<std::allocator<std::_List_unchecked_const_iterator<std::_List_val<std::_List_simple_types<HINSTANCE__ *> >,std::_Iterator_base0> > > >,std::_Vector_val<std::_Simple_types<std::_List_unchecked_const_iterator<std::_List_val<std::_List_simple_types<HINSTANCE__ *> >,std::_Iterator_base0> > >,1>::_Get_second
PUBLIC	?_Get_second@?$_Compressed_pair@U?$_Wrap_alloc@U?$_Wrap_alloc@V?$allocator@V?$_List_unchecked_const_iterator@V?$_List_val@U?$_List_simple_types@PAUHINSTANCE__@@@std@@@std@@U_Iterator_base0@2@@std@@@std@@@std@@@std@@V?$_Vector_val@U?$_Simple_types@V?$_List_unchecked_const_iterator@V?$_List_val@U?$_List_simple_types@PAUHINSTANCE__@@@std@@@std@@U_Iterator_base0@2@@std@@@std@@@2@$00@std@@QBEABV?$_Vector_val@U?$_Simple_types@V?$_List_unchecked_const_iterator@V?$_List_val@U?$_List_simple_types@PAUHINSTANCE__@@@std@@@std@@U_Iterator_base0@2@@std@@@std@@@2@XZ ; std::_Compressed_pair<std::_Wrap_alloc<std::_Wrap_alloc<std::allocator<std::_List_unchecked_const_iterator<std::_List_val<std::_List_simple_types<HINSTANCE__ *> >,std::_Iterator_base0> > > >,std::_Vector_val<std::_Simple_types<std::_List_unchecked_const_iterator<std::_List_val<std::_List_simple_types<HINSTANCE__ *> >,std::_Iterator_base0> > >,1>::_Get_second
PUBLIC	??0?$vector@V?$_List_unchecked_const_iterator@V?$_List_val@U?$_List_simple_types@PAUHINSTANCE__@@@std@@@std@@U_Iterator_base0@2@@std@@U?$_Wrap_alloc@V?$allocator@V?$_List_unchecked_const_iterator@V?$_List_val@U?$_List_simple_types@PAUHINSTANCE__@@@std@@@std@@U_Iterator_base0@2@@std@@@std@@@2@@std@@QAE@ABU?$_Wrap_alloc@V?$allocator@V?$_List_unchecked_const_iterator@V?$_List_val@U?$_List_simple_types@PAUHINSTANCE__@@@std@@@std@@U_Iterator_base0@2@@std@@@std@@@1@@Z ; std::vector<std::_List_unchecked_const_iterator<std::_List_val<std::_List_simple_types<HINSTANCE__ *> >,std::_Iterator_base0>,std::_Wrap_alloc<std::allocator<std::_List_unchecked_const_iterator<std::_List_val<std::_List_simple_types<HINSTANCE__ *> >,std::_Iterator_base0> > > >::vector<std::_List_unchecked_const_iterator<std::_List_val<std::_List_simple_types<HINSTANCE__ *> >,std::_Iterator_base0>,std::_Wrap_alloc<std::allocator<std::_List_unchecked_const_iterator<std::_List_val<std::_List_simple_types<HINSTANCE__ *> >,std::_Iterator_base0> > > >
PUBLIC	??1?$vector@V?$_List_unchecked_const_iterator@V?$_List_val@U?$_List_simple_types@PAUHINSTANCE__@@@std@@@std@@U_Iterator_base0@2@@std@@U?$_Wrap_alloc@V?$allocator@V?$_List_unchecked_const_iterator@V?$_List_val@U?$_List_simple_types@PAUHINSTANCE__@@@std@@@std@@U_Iterator_base0@2@@std@@@std@@@2@@std@@QAE@XZ ; std::vector<std::_List_unchecked_const_iterator<std::_List_val<std::_List_simple_types<HINSTANCE__ *> >,std::_Iterator_base0>,std::_Wrap_alloc<std::allocator<std::_List_unchecked_const_iterator<std::_List_val<std::_List_simple_types<HINSTANCE__ *> >,std::_Iterator_base0> > > >::~vector<std::_List_unchecked_const_iterator<std::_List_val<std::_List_simple_types<HINSTANCE__ *> >,std::_Iterator_base0>,std::_Wrap_alloc<std::allocator<std::_List_unchecked_const_iterator<std::_List_val<std::_List_simple_types<HINSTANCE__ *> >,std::_Iterator_base0> > > >
PUBLIC	?assign@?$vector@V?$_List_unchecked_const_iterator@V?$_List_val@U?$_List_simple_types@PAUHINSTANCE__@@@std@@@std@@U_Iterator_base0@2@@std@@U?$_Wrap_alloc@V?$allocator@V?$_List_unchecked_const_iterator@V?$_List_val@U?$_List_simple_types@PAUHINSTANCE__@@@std@@@std@@U_Iterator_base0@2@@std@@@std@@@2@@std@@QAEXIABV?$_List_unchecked_const_iterator@V?$_List_val@U?$_List_simple_types@PAUHINSTANCE__@@@std@@@std@@U_Iterator_base0@2@@2@@Z ; std::vector<std::_List_unchecked_const_iterator<std::_List_val<std::_List_simple_types<HINSTANCE__ *> >,std::_Iterator_base0>,std::_Wrap_alloc<std::allocator<std::_List_unchecked_const_iterator<std::_List_val<std::_List_simple_types<HINSTANCE__ *> >,std::_Iterator_base0> > > >::assign
PUBLIC	?_Reallocate_exactly@?$vector@V?$_List_unchecked_const_iterator@V?$_List_val@U?$_List_simple_types@PAUHINSTANCE__@@@std@@@std@@U_Iterator_base0@2@@std@@U?$_Wrap_alloc@V?$allocator@V?$_List_unchecked_const_iterator@V?$_List_val@U?$_List_simple_types@PAUHINSTANCE__@@@std@@@std@@U_Iterator_base0@2@@std@@@std@@@2@@std@@AAEXI@Z ; std::vector<std::_List_unchecked_const_iterator<std::_List_val<std::_List_simple_types<HINSTANCE__ *> >,std::_Iterator_base0>,std::_Wrap_alloc<std::allocator<std::_List_unchecked_const_iterator<std::_List_val<std::_List_simple_types<HINSTANCE__ *> >,std::_Iterator_base0> > > >::_Reallocate_exactly
PUBLIC	?reserve@?$vector@V?$_List_unchecked_const_iterator@V?$_List_val@U?$_List_simple_types@PAUHINSTANCE__@@@std@@@std@@U_Iterator_base0@2@@std@@U?$_Wrap_alloc@V?$allocator@V?$_List_unchecked_const_iterator@V?$_List_val@U?$_List_simple_types@PAUHINSTANCE__@@@std@@@std@@U_Iterator_base0@2@@std@@@std@@@2@@std@@QAEXI@Z ; std::vector<std::_List_unchecked_const_iterator<std::_List_val<std::_List_simple_types<HINSTANCE__ *> >,std::_Iterator_base0>,std::_Wrap_alloc<std::allocator<std::_List_unchecked_const_iterator<std::_List_val<std::_List_simple_types<HINSTANCE__ *> >,std::_Iterator_base0> > > >::reserve
PUBLIC	?size@?$vector@V?$_List_unchecked_const_iterator@V?$_List_val@U?$_List_simple_types@PAUHINSTANCE__@@@std@@@std@@U_Iterator_base0@2@@std@@U?$_Wrap_alloc@V?$allocator@V?$_List_unchecked_const_iterator@V?$_List_val@U?$_List_simple_types@PAUHINSTANCE__@@@std@@@std@@U_Iterator_base0@2@@std@@@std@@@2@@std@@QBEIXZ ; std::vector<std::_List_unchecked_const_iterator<std::_List_val<std::_List_simple_types<HINSTANCE__ *> >,std::_Iterator_base0>,std::_Wrap_alloc<std::allocator<std::_List_unchecked_const_iterator<std::_List_val<std::_List_simple_types<HINSTANCE__ *> >,std::_Iterator_base0> > > >::size
PUBLIC	?max_size@?$vector@V?$_List_unchecked_const_iterator@V?$_List_val@U?$_List_simple_types@PAUHINSTANCE__@@@std@@@std@@U_Iterator_base0@2@@std@@U?$_Wrap_alloc@V?$allocator@V?$_List_unchecked_const_iterator@V?$_List_val@U?$_List_simple_types@PAUHINSTANCE__@@@std@@@std@@U_Iterator_base0@2@@std@@@std@@@2@@std@@QBEIXZ ; std::vector<std::_List_unchecked_const_iterator<std::_List_val<std::_List_simple_types<HINSTANCE__ *> >,std::_Iterator_base0>,std::_Wrap_alloc<std::allocator<std::_List_unchecked_const_iterator<std::_List_val<std::_List_simple_types<HINSTANCE__ *> >,std::_Iterator_base0> > > >::max_size
PUBLIC	?capacity@?$vector@V?$_List_unchecked_const_iterator@V?$_List_val@U?$_List_simple_types@PAUHINSTANCE__@@@std@@@std@@U_Iterator_base0@2@@std@@U?$_Wrap_alloc@V?$allocator@V?$_List_unchecked_const_iterator@V?$_List_val@U?$_List_simple_types@PAUHINSTANCE__@@@std@@@std@@U_Iterator_base0@2@@std@@@std@@@2@@std@@QBEIXZ ; std::vector<std::_List_unchecked_const_iterator<std::_List_val<std::_List_simple_types<HINSTANCE__ *> >,std::_Iterator_base0>,std::_Wrap_alloc<std::allocator<std::_List_unchecked_const_iterator<std::_List_val<std::_List_simple_types<HINSTANCE__ *> >,std::_Iterator_base0> > > >::capacity
PUBLIC	??A?$vector@V?$_List_unchecked_const_iterator@V?$_List_val@U?$_List_simple_types@PAUHINSTANCE__@@@std@@@std@@U_Iterator_base0@2@@std@@U?$_Wrap_alloc@V?$allocator@V?$_List_unchecked_const_iterator@V?$_List_val@U?$_List_simple_types@PAUHINSTANCE__@@@std@@@std@@U_Iterator_base0@2@@std@@@std@@@2@@std@@QAEAAV?$_List_unchecked_const_iterator@V?$_List_val@U?$_List_simple_types@PAUHINSTANCE__@@@std@@@std@@U_Iterator_base0@2@@1@I@Z ; std::vector<std::_List_unchecked_const_iterator<std::_List_val<std::_List_simple_types<HINSTANCE__ *> >,std::_Iterator_base0>,std::_Wrap_alloc<std::allocator<std::_List_unchecked_const_iterator<std::_List_val<std::_List_simple_types<HINSTANCE__ *> >,std::_Iterator_base0> > > >::operator[]
PUBLIC	??A?$vector@V?$_List_unchecked_const_iterator@V?$_List_val@U?$_List_simple_types@PAUHINSTANCE__@@@std@@@std@@U_Iterator_base0@2@@std@@U?$_Wrap_alloc@V?$allocator@V?$_List_unchecked_const_iterator@V?$_List_val@U?$_List_simple_types@PAUHINSTANCE__@@@std@@@std@@U_Iterator_base0@2@@std@@@std@@@2@@std@@QBEABV?$_List_unchecked_const_iterator@V?$_List_val@U?$_List_simple_types@PAUHINSTANCE__@@@std@@@std@@U_Iterator_base0@2@@1@I@Z ; std::vector<std::_List_unchecked_const_iterator<std::_List_val<std::_List_simple_types<HINSTANCE__ *> >,std::_Iterator_base0>,std::_Wrap_alloc<std::allocator<std::_List_unchecked_const_iterator<std::_List_val<std::_List_simple_types<HINSTANCE__ *> >,std::_Iterator_base0> > > >::operator[]
PUBLIC	?_Ufill@?$vector@V?$_List_unchecked_const_iterator@V?$_List_val@U?$_List_simple_types@PAUHINSTANCE__@@@std@@@std@@U_Iterator_base0@2@@std@@U?$_Wrap_alloc@V?$allocator@V?$_List_unchecked_const_iterator@V?$_List_val@U?$_List_simple_types@PAUHINSTANCE__@@@std@@@std@@U_Iterator_base0@2@@std@@@std@@@2@@std@@AAEPAV?$_List_unchecked_const_iterator@V?$_List_val@U?$_List_simple_types@PAUHINSTANCE__@@@std@@@std@@U_Iterator_base0@2@@2@PAV32@IABV32@@Z ; std::vector<std::_List_unchecked_const_iterator<std::_List_val<std::_List_simple_types<HINSTANCE__ *> >,std::_Iterator_base0>,std::_Wrap_alloc<std::allocator<std::_List_unchecked_const_iterator<std::_List_val<std::_List_simple_types<HINSTANCE__ *> >,std::_Iterator_base0> > > >::_Ufill
PUBLIC	?_Umove_if_noexcept1@?$vector@V?$_List_unchecked_const_iterator@V?$_List_val@U?$_List_simple_types@PAUHINSTANCE__@@@std@@@std@@U_Iterator_base0@2@@std@@U?$_Wrap_alloc@V?$allocator@V?$_List_unchecked_const_iterator@V?$_List_val@U?$_List_simple_types@PAUHINSTANCE__@@@std@@@std@@U_Iterator_base0@2@@std@@@std@@@2@@std@@AAEXPAV?$_List_unchecked_const_iterator@V?$_List_val@U?$_List_simple_types@PAUHINSTANCE__@@@std@@@std@@U_Iterator_base0@2@@2@00U?$integral_constant@_N$00@2@@Z ; std::vector<std::_List_unchecked_const_iterator<std::_List_val<std::_List_simple_types<HINSTANCE__ *> >,std::_Iterator_base0>,std::_Wrap_alloc<std::allocator<std::_List_unchecked_const_iterator<std::_List_val<std::_List_simple_types<HINSTANCE__ *> >,std::_Iterator_base0> > > >::_Umove_if_noexcept1
PUBLIC	?_Umove_if_noexcept@?$vector@V?$_List_unchecked_const_iterator@V?$_List_val@U?$_List_simple_types@PAUHINSTANCE__@@@std@@@std@@U_Iterator_base0@2@@std@@U?$_Wrap_alloc@V?$allocator@V?$_List_unchecked_const_iterator@V?$_List_val@U?$_List_simple_types@PAUHINSTANCE__@@@std@@@std@@U_Iterator_base0@2@@std@@@std@@@2@@std@@AAEXPAV?$_List_unchecked_const_iterator@V?$_List_val@U?$_List_simple_types@PAUHINSTANCE__@@@std@@@std@@U_Iterator_base0@2@@2@00@Z ; std::vector<std::_List_unchecked_const_iterator<std::_List_val<std::_List_simple_types<HINSTANCE__ *> >,std::_Iterator_base0>,std::_Wrap_alloc<std::allocator<std::_List_unchecked_const_iterator<std::_List_val<std::_List_simple_types<HINSTANCE__ *> >,std::_Iterator_base0> > > >::_Umove_if_noexcept
PUBLIC	?_Destroy@?$vector@V?$_List_unchecked_const_iterator@V?$_List_val@U?$_List_simple_types@PAUHINSTANCE__@@@std@@@std@@U_Iterator_base0@2@@std@@U?$_Wrap_alloc@V?$allocator@V?$_List_unchecked_const_iterator@V?$_List_val@U?$_List_simple_types@PAUHINSTANCE__@@@std@@@std@@U_Iterator_base0@2@@std@@@std@@@2@@std@@AAEXPAV?$_List_unchecked_const_iterator@V?$_List_val@U?$_List_simple_types@PAUHINSTANCE__@@@std@@@std@@U_Iterator_base0@2@@2@0@Z ; std::vector<std::_List_unchecked_const_iterator<std::_List_val<std::_List_simple_types<HINSTANCE__ *> >,std::_Iterator_base0>,std::_Wrap_alloc<std::allocator<std::_List_unchecked_const_iterator<std::_List_val<std::_List_simple_types<HINSTANCE__ *> >,std::_Iterator_base0> > > >::_Destroy
PUBLIC	?_Calculate_growth@?$vector@V?$_List_unchecked_const_iterator@V?$_List_val@U?$_List_simple_types@PAUHINSTANCE__@@@std@@@std@@U_Iterator_base0@2@@std@@U?$_Wrap_alloc@V?$allocator@V?$_List_unchecked_const_iterator@V?$_List_val@U?$_List_simple_types@PAUHINSTANCE__@@@std@@@std@@U_Iterator_base0@2@@std@@@std@@@2@@std@@ABEII@Z ; std::vector<std::_List_unchecked_const_iterator<std::_List_val<std::_List_simple_types<HINSTANCE__ *> >,std::_Iterator_base0>,std::_Wrap_alloc<std::allocator<std::_List_unchecked_const_iterator<std::_List_val<std::_List_simple_types<HINSTANCE__ *> >,std::_Iterator_base0> > > >::_Calculate_growth
PUBLIC	?_Buy@?$vector@V?$_List_unchecked_const_iterator@V?$_List_val@U?$_List_simple_types@PAUHINSTANCE__@@@std@@@std@@U_Iterator_base0@2@@std@@U?$_Wrap_alloc@V?$allocator@V?$_List_unchecked_const_iterator@V?$_List_val@U?$_List_simple_types@PAUHINSTANCE__@@@std@@@std@@U_Iterator_base0@2@@std@@@std@@@2@@std@@AAE_NI@Z ; std::vector<std::_List_unchecked_const_iterator<std::_List_val<std::_List_simple_types<HINSTANCE__ *> >,std::_Iterator_base0>,std::_Wrap_alloc<std::allocator<std::_List_unchecked_const_iterator<std::_List_val<std::_List_simple_types<HINSTANCE__ *> >,std::_Iterator_base0> > > >::_Buy
PUBLIC	?_Change_array@?$vector@V?$_List_unchecked_const_iterator@V?$_List_val@U?$_List_simple_types@PAUHINSTANCE__@@@std@@@std@@U_Iterator_base0@2@@std@@U?$_Wrap_alloc@V?$allocator@V?$_List_unchecked_const_iterator@V?$_List_val@U?$_List_simple_types@PAUHINSTANCE__@@@std@@@std@@U_Iterator_base0@2@@std@@@std@@@2@@std@@AAEXQAV?$_List_unchecked_const_iterator@V?$_List_val@U?$_List_simple_types@PAUHINSTANCE__@@@std@@@std@@U_Iterator_base0@2@@2@II@Z ; std::vector<std::_List_unchecked_const_iterator<std::_List_val<std::_List_simple_types<HINSTANCE__ *> >,std::_Iterator_base0>,std::_Wrap_alloc<std::allocator<std::_List_unchecked_const_iterator<std::_List_val<std::_List_simple_types<HINSTANCE__ *> >,std::_Iterator_base0> > > >::_Change_array
PUBLIC	?_Tidy@?$vector@V?$_List_unchecked_const_iterator@V?$_List_val@U?$_List_simple_types@PAUHINSTANCE__@@@std@@@std@@U_Iterator_base0@2@@std@@U?$_Wrap_alloc@V?$allocator@V?$_List_unchecked_const_iterator@V?$_List_val@U?$_List_simple_types@PAUHINSTANCE__@@@std@@@std@@U_Iterator_base0@2@@std@@@std@@@2@@std@@AAEXXZ ; std::vector<std::_List_unchecked_const_iterator<std::_List_val<std::_List_simple_types<HINSTANCE__ *> >,std::_Iterator_base0>,std::_Wrap_alloc<std::allocator<std::_List_unchecked_const_iterator<std::_List_val<std::_List_simple_types<HINSTANCE__ *> >,std::_Iterator_base0> > > >::_Tidy
PUBLIC	?_Xlength@?$vector@V?$_List_unchecked_const_iterator@V?$_List_val@U?$_List_simple_types@PAUHINSTANCE__@@@std@@@std@@U_Iterator_base0@2@@std@@U?$_Wrap_alloc@V?$allocator@V?$_List_unchecked_const_iterator@V?$_List_val@U?$_List_simple_types@PAUHINSTANCE__@@@std@@@std@@U_Iterator_base0@2@@std@@@std@@@2@@std@@CAXXZ ; std::vector<std::_List_unchecked_const_iterator<std::_List_val<std::_List_simple_types<HINSTANCE__ *> >,std::_Iterator_base0>,std::_Wrap_alloc<std::allocator<std::_List_unchecked_const_iterator<std::_List_val<std::_List_simple_types<HINSTANCE__ *> >,std::_Iterator_base0> > > >::_Xlength
PUBLIC	??0?$unordered_set@PAUHINSTANCE__@@U?$hash@PAUHINSTANCE__@@@std@@U?$equal_to@PAUHINSTANCE__@@@3@V?$allocator@PAUHINSTANCE__@@@3@@std@@QAE@XZ ; std::unordered_set<HINSTANCE__ *,std::hash<HINSTANCE__ *>,std::equal_to<HINSTANCE__ *>,std::allocator<HINSTANCE__ *> >::unordered_set<HINSTANCE__ *,std::hash<HINSTANCE__ *>,std::equal_to<HINSTANCE__ *>,std::allocator<HINSTANCE__ *> >
PUBLIC	??1?$unordered_set@PAUHINSTANCE__@@U?$hash@PAUHINSTANCE__@@@std@@U?$equal_to@PAUHINSTANCE__@@@3@V?$allocator@PAUHINSTANCE__@@@3@@std@@QAE@XZ ; std::unordered_set<HINSTANCE__ *,std::hash<HINSTANCE__ *>,std::equal_to<HINSTANCE__ *>,std::allocator<HINSTANCE__ *> >::~unordered_set<HINSTANCE__ *,std::hash<HINSTANCE__ *>,std::equal_to<HINSTANCE__ *>,std::allocator<HINSTANCE__ *> >
PUBLIC	??$insert@$0A@$0A@@?$_Hash@V?$_Uset_traits@PAUHINSTANCE__@@V?$_Uhash_compare@PAUHINSTANCE__@@U?$hash@PAUHINSTANCE__@@@std@@U?$equal_to@PAUHINSTANCE__@@@3@@std@@V?$allocator@PAUHINSTANCE__@@@3@$0A@@std@@@std@@QAE?AU?$pair@V?$_List_const_iterator@V?$_List_val@U?$_List_simple_types@PAUHINSTANCE__@@@std@@@std@@@std@@_N@1@ABQAUHINSTANCE__@@@Z ; std::_Hash<std::_Uset_traits<HINSTANCE__ *,std::_Uhash_compare<HINSTANCE__ *,std::hash<HINSTANCE__ *>,std::equal_to<HINSTANCE__ *> >,std::allocator<HINSTANCE__ *>,0> >::insert<0,0>
PUBLIC	??0?$_List_unchecked_const_iterator@V?$_List_val@U?$_List_simple_types@PAUHINSTANCE__@@@std@@@std@@U_Iterator_base0@2@@std@@QAE@XZ ; std::_List_unchecked_const_iterator<std::_List_val<std::_List_simple_types<HINSTANCE__ *> >,std::_Iterator_base0>::_List_unchecked_const_iterator<std::_List_val<std::_List_simple_types<HINSTANCE__ *> >,std::_Iterator_base0>
PUBLIC	??0?$_List_unchecked_const_iterator@V?$_List_val@U?$_List_simple_types@PAUHINSTANCE__@@@std@@@std@@U_Iterator_base0@2@@std@@QAE@PAU?$_List_node@PAUHINSTANCE__@@PAX@1@PBV?$_List_val@U?$_List_simple_types@PAUHINSTANCE__@@@std@@@1@@Z ; std::_List_unchecked_const_iterator<std::_List_val<std::_List_simple_types<HINSTANCE__ *> >,std::_Iterator_base0>::_List_unchecked_const_iterator<std::_List_val<std::_List_simple_types<HINSTANCE__ *> >,std::_Iterator_base0>
PUBLIC	??D?$_List_unchecked_const_iterator@V?$_List_val@U?$_List_simple_types@PAUHINSTANCE__@@@std@@@std@@U_Iterator_base0@2@@std@@QBEABQAUHINSTANCE__@@XZ ; std::_List_unchecked_const_iterator<std::_List_val<std::_List_simple_types<HINSTANCE__ *> >,std::_Iterator_base0>::operator*
PUBLIC	??E?$_List_unchecked_const_iterator@V?$_List_val@U?$_List_simple_types@PAUHINSTANCE__@@@std@@@std@@U_Iterator_base0@2@@std@@QAEAAV01@XZ ; std::_List_unchecked_const_iterator<std::_List_val<std::_List_simple_types<HINSTANCE__ *> >,std::_Iterator_base0>::operator++
PUBLIC	??F?$_List_unchecked_const_iterator@V?$_List_val@U?$_List_simple_types@PAUHINSTANCE__@@@std@@@std@@U_Iterator_base0@2@@std@@QAEAAV01@XZ ; std::_List_unchecked_const_iterator<std::_List_val<std::_List_simple_types<HINSTANCE__ *> >,std::_Iterator_base0>::operator--
PUBLIC	??8?$_List_unchecked_const_iterator@V?$_List_val@U?$_List_simple_types@PAUHINSTANCE__@@@std@@@std@@U_Iterator_base0@2@@std@@QBE_NABV01@@Z ; std::_List_unchecked_const_iterator<std::_List_val<std::_List_simple_types<HINSTANCE__ *> >,std::_Iterator_base0>::operator==
PUBLIC	??9?$_List_unchecked_const_iterator@V?$_List_val@U?$_List_simple_types@PAUHINSTANCE__@@@std@@@std@@U_Iterator_base0@2@@std@@QBE_NABV01@@Z ; std::_List_unchecked_const_iterator<std::_List_val<std::_List_simple_types<HINSTANCE__ *> >,std::_Iterator_base0>::operator!=
PUBLIC	?_Mynode@?$_List_unchecked_const_iterator@V?$_List_val@U?$_List_simple_types@PAUHINSTANCE__@@@std@@@std@@U_Iterator_base0@2@@std@@QBEPAU?$_List_node@PAUHINSTANCE__@@PAX@2@XZ ; std::_List_unchecked_const_iterator<std::_List_val<std::_List_simple_types<HINSTANCE__ *> >,std::_Iterator_base0>::_Mynode
PUBLIC	??0?$_List_const_iterator@V?$_List_val@U?$_List_simple_types@PAUHINSTANCE__@@@std@@@std@@@std@@QAE@PAU?$_List_node@PAUHINSTANCE__@@PAX@1@PBV?$_List_val@U?$_List_simple_types@PAUHINSTANCE__@@@std@@@1@@Z ; std::_List_const_iterator<std::_List_val<std::_List_simple_types<HINSTANCE__ *> > >::_List_const_iterator<std::_List_val<std::_List_simple_types<HINSTANCE__ *> > >
PUBLIC	?_Unchecked@?$_List_const_iterator@V?$_List_val@U?$_List_simple_types@PAUHINSTANCE__@@@std@@@std@@@std@@QBE?AV?$_List_unchecked_const_iterator@V?$_List_val@U?$_List_simple_types@PAUHINSTANCE__@@@std@@@std@@U_Iterator_base0@2@@2@XZ ; std::_List_const_iterator<std::_List_val<std::_List_simple_types<HINSTANCE__ *> > >::_Unchecked
PUBLIC	??D?$_List_const_iterator@V?$_List_val@U?$_List_simple_types@PAUHINSTANCE__@@@std@@@std@@@std@@QBEABQAUHINSTANCE__@@XZ ; std::_List_const_iterator<std::_List_val<std::_List_simple_types<HINSTANCE__ *> > >::operator*
PUBLIC	??E?$_List_const_iterator@V?$_List_val@U?$_List_simple_types@PAUHINSTANCE__@@@std@@@std@@@std@@QAEAAV01@XZ ; std::_List_const_iterator<std::_List_val<std::_List_simple_types<HINSTANCE__ *> > >::operator++
PUBLIC	??E?$_List_const_iterator@V?$_List_val@U?$_List_simple_types@PAUHINSTANCE__@@@std@@@std@@@std@@QAE?AV01@H@Z ; std::_List_const_iterator<std::_List_val<std::_List_simple_types<HINSTANCE__ *> > >::operator++
PUBLIC	??8?$_List_const_iterator@V?$_List_val@U?$_List_simple_types@PAUHINSTANCE__@@@std@@@std@@@std@@QBE_NABV01@@Z ; std::_List_const_iterator<std::_List_val<std::_List_simple_types<HINSTANCE__ *> > >::operator==
PUBLIC	??9?$_List_const_iterator@V?$_List_val@U?$_List_simple_types@PAUHINSTANCE__@@@std@@@std@@@std@@QBE_NABV01@@Z ; std::_List_const_iterator<std::_List_val<std::_List_simple_types<HINSTANCE__ *> > >::operator!=
PUBLIC	?XInputEnable1_3_Detour@@YGXH@Z			; XInputEnable1_3_Detour
PUBLIC	?XInputGetState1_3_Detour@@YGKKPAU_XINPUT_STATE@@@Z ; XInputGetState1_3_Detour
PUBLIC	??$min@K@std@@YAABKABK0@Z			; std::min<unsigned long>
PUBLIC	?XInputGetStateEx1_3_Detour@@YGKKPAU_XINPUT_STATE_EX@@@Z ; XInputGetStateEx1_3_Detour
PUBLIC	?XInputGetCapabilities1_3_Detour@@YGKKKPAU_XINPUT_CAPABILITIES@@@Z ; XInputGetCapabilities1_3_Detour
PUBLIC	?XInputGetBatteryInformation1_3_Detour@@YGKKEPAU_XINPUT_BATTERY_INFORMATION@@@Z ; XInputGetBatteryInformation1_3_Detour
PUBLIC	?XInputSetState1_3_Detour@@YGKKPAU_XINPUT_VIBRATION@@@Z ; XInputSetState1_3_Detour
PUBLIC	?XInputEnable1_4_Detour@@YGXH@Z			; XInputEnable1_4_Detour
PUBLIC	?XInputGetState1_4_Detour@@YGKKPAU_XINPUT_STATE@@@Z ; XInputGetState1_4_Detour
PUBLIC	?XInputGetStateEx1_4_Detour@@YGKKPAU_XINPUT_STATE_EX@@@Z ; XInputGetStateEx1_4_Detour
PUBLIC	?XInputGetCapabilities1_4_Detour@@YGKKKPAU_XINPUT_CAPABILITIES@@@Z ; XInputGetCapabilities1_4_Detour
PUBLIC	?XInputGetBatteryInformation1_4_Detour@@YGKKEPAU_XINPUT_BATTERY_INFORMATION@@@Z ; XInputGetBatteryInformation1_4_Detour
PUBLIC	?XInputSetState1_4_Detour@@YGKKPAU_XINPUT_VIBRATION@@@Z ; XInputSetState1_4_Detour
PUBLIC	?XInputGetState9_1_0_Detour@@YGKKPAU_XINPUT_STATE@@@Z ; XInputGetState9_1_0_Detour
PUBLIC	?XInputGetCapabilities9_1_0_Detour@@YGKKKPAU_XINPUT_CAPABILITIES@@@Z ; XInputGetCapabilities9_1_0_Detour
PUBLIC	?XInputSetState9_1_0_Detour@@YGKKPAU_XINPUT_VIBRATION@@@Z ; XInputSetState9_1_0_Detour
PUBLIC	?SK_Input_HookXInputContext@@YAXPAUinstance_s@SK_XInputContext@@@Z ; SK_Input_HookXInputContext
PUBLIC	??$static_cast_p2p@X$$A6GKKPAU_XINPUT_STATE@@@Z@@YAPAPAXPAP6GKKPAU_XINPUT_STATE@@@Z@Z ; static_cast_p2p<void,unsigned long __stdcall(unsigned long,_XINPUT_STATE *)>
PUBLIC	??$static_cast_p2p@X$$A6GKKKPAU_XINPUT_CAPABILITIES@@@Z@@YAPAPAXPAP6GKKKPAU_XINPUT_CAPABILITIES@@@Z@Z ; static_cast_p2p<void,unsigned long __stdcall(unsigned long,unsigned long,_XINPUT_CAPABILITIES *)>
PUBLIC	??$static_cast_p2p@X$$A6GKKPAU_XINPUT_VIBRATION@@@Z@@YAPAPAXPAP6GKKPAU_XINPUT_VIBRATION@@@Z@Z ; static_cast_p2p<void,unsigned long __stdcall(unsigned long,_XINPUT_VIBRATION *)>
PUBLIC	??$static_cast_p2p@X$$A6GKKEPAU_XINPUT_BATTERY_INFORMATION@@@Z@@YAPAPAXPAP6GKKEPAU_XINPUT_BATTERY_INFORMATION@@@Z@Z ; static_cast_p2p<void,unsigned long __stdcall(unsigned long,unsigned char,_XINPUT_BATTERY_INFORMATION *)>
PUBLIC	??$static_cast_p2p@X$$A6GKKPAU_XINPUT_STATE_EX@@@Z@@YAPAPAXPAP6GKKPAU_XINPUT_STATE_EX@@@Z@Z ; static_cast_p2p<void,unsigned long __stdcall(unsigned long,_XINPUT_STATE_EX *)>
PUBLIC	??$static_cast_p2p@X$$A6GXH@Z@@YAPAPAXPAP6GXH@Z@Z ; static_cast_p2p<void,void __stdcall(int)>
PUBLIC	?SK_XInput_RehookIfNeeded@@YAXXZ		; SK_XInput_RehookIfNeeded
PUBLIC	??$min@H@std@@YAABHABH0@Z			; std::min<int>
PUBLIC	??$max@H@std@@YAABHABH0@Z			; std::max<int>
PUBLIC	??$min@M@std@@YAABMABM0@Z			; std::min<float>
PUBLIC	??$distance@V?$_List_const_iterator@V?$_List_val@U?$_List_simple_types@PAUHINSTANCE__@@@std@@@std@@@std@@@std@@YAHV?$_List_const_iterator@V?$_List_val@U?$_List_simple_types@PAUHINSTANCE__@@@std@@@std@@@0@0@Z ; std::distance<std::_List_const_iterator<std::_List_val<std::_List_simple_types<HINSTANCE__ *> > > >
PUBLIC	??$?0V?$_List_const_iterator@V?$_List_val@U?$_List_simple_types@PAUHINSTANCE__@@@std@@@std@@@std@@V01@X$0A@@?$pair@V?$_List_const_iterator@V?$_List_val@U?$_List_simple_types@PAUHINSTANCE__@@@std@@@std@@@std@@V12@@std@@QAE@$$QAV?$_List_const_iterator@V?$_List_val@U?$_List_simple_types@PAUHINSTANCE__@@@std@@@std@@@1@0@Z ; std::pair<std::_List_const_iterator<std::_List_val<std::_List_simple_types<HINSTANCE__ *> > >,std::_List_const_iterator<std::_List_val<std::_List_simple_types<HINSTANCE__ *> > > >::pair<std::_List_const_iterator<std::_List_val<std::_List_simple_types<HINSTANCE__ *> > >,std::_List_const_iterator<std::_List_val<std::_List_simple_types<HINSTANCE__ *> > > ><std::_List_const_iterator<std::_List_val<std::_List_simple_types<HINSTANCE__ *> > >,std::_List_const_iterator<std::_List_val<std::_List_simple_types<HINSTANCE__ *> > >,void,0>
PUBLIC	??$?0ABV?$allocator@PAUHINSTANCE__@@@std@@@?$_Wrap_alloc@V?$allocator@V?$_List_unchecked_const_iterator@V?$_List_val@U?$_List_simple_types@PAUHINSTANCE__@@@std@@@std@@U_Iterator_base0@2@@std@@@std@@@std@@QAE@ABV?$allocator@PAUHINSTANCE__@@@1@@Z ; std::_Wrap_alloc<std::allocator<std::_List_unchecked_const_iterator<std::_List_val<std::_List_simple_types<HINSTANCE__ *> >,std::_Iterator_base0> > >::_Wrap_alloc<std::allocator<std::_List_unchecked_const_iterator<std::_List_val<std::_List_simple_types<HINSTANCE__ *> >,std::_Iterator_base0> > ><std::allocator<HINSTANCE__ *> const &>
PUBLIC	??$?0AAU?$hash@PAUHINSTANCE__@@@std@@U_One_then_variadic_args_t@1@AAU?$equal_to@PAUHINSTANCE__@@@1@M@?$_Compressed_pair@U?$hash@PAUHINSTANCE__@@@std@@V?$_Compressed_pair@U?$equal_to@PAUHINSTANCE__@@@std@@M$00@2@$00@std@@QAE@U_One_then_variadic_args_t@1@AAU?$hash@PAUHINSTANCE__@@@1@$$QAU21@AAU?$equal_to@PAUHINSTANCE__@@@1@$$QAM@Z ; std::_Compressed_pair<std::hash<HINSTANCE__ *>,std::_Compressed_pair<std::equal_to<HINSTANCE__ *>,float,1>,1>::_Compressed_pair<std::hash<HINSTANCE__ *>,std::_Compressed_pair<std::equal_to<HINSTANCE__ *>,float,1>,1><std::hash<HINSTANCE__ *> &,std::_One_then_variadic_args_t,std::equal_to<HINSTANCE__ *> &,float>
PUBLIC	??$addressof@PA_W@std@@YAPAPA_WAAPA_W@Z		; std::addressof<wchar_t *>
PUBLIC	??$destroy@PA_W@?$_Wrap_alloc@V?$allocator@_W@std@@@std@@QAEXPAPA_W@Z ; std::_Wrap_alloc<std::allocator<wchar_t> >::destroy<wchar_t *>
PUBLIC	??$?0ABU?$_Wrap_alloc@V?$allocator@V?$_List_unchecked_const_iterator@V?$_List_val@U?$_List_simple_types@PAUHINSTANCE__@@@std@@@std@@U_Iterator_base0@2@@std@@@std@@@std@@X@?$_Vector_alloc@U?$_Vec_base_types@V?$_List_unchecked_const_iterator@V?$_List_val@U?$_List_simple_types@PAUHINSTANCE__@@@std@@@std@@U_Iterator_base0@2@@std@@U?$_Wrap_alloc@V?$allocator@V?$_List_unchecked_const_iterator@V?$_List_val@U?$_List_simple_types@PAUHINSTANCE__@@@std@@@std@@U_Iterator_base0@2@@std@@@std@@@2@@std@@@std@@QAE@ABU?$_Wrap_alloc@V?$allocator@V?$_List_unchecked_const_iterator@V?$_List_val@U?$_List_simple_types@PAUHINSTANCE__@@@std@@@std@@U_Iterator_base0@2@@std@@@std@@@1@@Z ; std::_Vector_alloc<std::_Vec_base_types<std::_List_unchecked_const_iterator<std::_List_val<std::_List_simple_types<HINSTANCE__ *> >,std::_Iterator_base0>,std::_Wrap_alloc<std::allocator<std::_List_unchecked_const_iterator<std::_List_val<std::_List_simple_types<HINSTANCE__ *> >,std::_Iterator_base0> > > > >::_Vector_alloc<std::_Vec_base_types<std::_List_unchecked_const_iterator<std::_List_val<std::_List_simple_types<HINSTANCE__ *> >,std::_Iterator_base0>,std::_Wrap_alloc<std::allocator<std::_List_unchecked_const_iterator<std::_List_val<std::_List_simple_types<HINSTANCE__ *> >,std::_Iterator_base0> > > > ><std::_Wrap_alloc<std::allocator<std::_List_unchecked_const_iterator<std::_List_val<std::_List_simple_types<HINSTANCE__ *> >,std::_Iterator_base0> > > const &,void>
PUBLIC	??$?0ABV?$allocator@PAUHINSTANCE__@@@std@@X@?$_List_buy@PAUHINSTANCE__@@V?$allocator@PAUHINSTANCE__@@@std@@@std@@QAE@ABV?$allocator@PAUHINSTANCE__@@@1@@Z ; std::_List_buy<HINSTANCE__ *,std::allocator<HINSTANCE__ *> >::_List_buy<HINSTANCE__ *,std::allocator<HINSTANCE__ *> ><std::allocator<HINSTANCE__ *> const &,void>
PUBLIC	??0?$_List_iterator@V?$_List_val@U?$_List_simple_types@PAUHINSTANCE__@@@std@@@std@@@std@@QAE@PAU?$_List_node@PAUHINSTANCE__@@PAX@1@PBV?$_List_val@U?$_List_simple_types@PAUHINSTANCE__@@@std@@@1@@Z ; std::_List_iterator<std::_List_val<std::_List_simple_types<HINSTANCE__ *> > >::_List_iterator<std::_List_val<std::_List_simple_types<HINSTANCE__ *> > >
PUBLIC	??$_Unfancy@_W@std@@YAPA_WPA_W@Z		; std::_Unfancy<wchar_t>
PUBLIC	??$_Destroy_range@U?$_Wrap_alloc@V?$allocator@V?$_List_unchecked_const_iterator@V?$_List_val@U?$_List_simple_types@PAUHINSTANCE__@@@std@@@std@@U_Iterator_base0@2@@std@@@std@@@std@@PAV?$_List_unchecked_const_iterator@V?$_List_val@U?$_List_simple_types@PAUHINSTANCE__@@@std@@@std@@U_Iterator_base0@2@@2@@std@@YAXPAV?$_List_unchecked_const_iterator@V?$_List_val@U?$_List_simple_types@PAUHINSTANCE__@@@std@@@std@@U_Iterator_base0@2@@0@0AAU?$_Wrap_alloc@U?$_Wrap_alloc@V?$allocator@V?$_List_unchecked_const_iterator@V?$_List_val@U?$_List_simple_types@PAUHINSTANCE__@@@std@@@std@@U_Iterator_base0@2@@std@@@std@@@std@@@0@@Z ; std::_Destroy_range<std::_Wrap_alloc<std::allocator<std::_List_unchecked_const_iterator<std::_List_val<std::_List_simple_types<HINSTANCE__ *> >,std::_Iterator_base0> > >,std::_List_unchecked_const_iterator<std::_List_val<std::_List_simple_types<HINSTANCE__ *> >,std::_Iterator_base0> *>
PUBLIC	??$_Fill_unchecked@PAV?$_List_unchecked_const_iterator@V?$_List_val@U?$_List_simple_types@PAUHINSTANCE__@@@std@@@std@@U_Iterator_base0@2@@std@@V12@@std@@YAXPAV?$_List_unchecked_const_iterator@V?$_List_val@U?$_List_simple_types@PAUHINSTANCE__@@@std@@@std@@U_Iterator_base0@2@@0@0ABV10@@Z ; std::_Fill_unchecked<std::_List_unchecked_const_iterator<std::_List_val<std::_List_simple_types<HINSTANCE__ *> >,std::_Iterator_base0> *,std::_List_unchecked_const_iterator<std::_List_val<std::_List_simple_types<HINSTANCE__ *> >,std::_Iterator_base0> >
PUBLIC	??$addressof@PAU?$_List_node@PAUHINSTANCE__@@PAX@std@@@std@@YAPAPAU?$_List_node@PAUHINSTANCE__@@PAX@0@AAPAU10@@Z ; std::addressof<std::_List_node<HINSTANCE__ *,void *> *>
PUBLIC	??$destroy@PAU?$_List_node@PAUHINSTANCE__@@PAX@std@@@?$_Wrap_alloc@V?$allocator@U?$_List_node@PAUHINSTANCE__@@PAX@std@@@std@@@std@@QAEXPAPAU?$_List_node@PAUHINSTANCE__@@PAX@1@@Z ; std::_Wrap_alloc<std::allocator<std::_List_node<HINSTANCE__ *,void *> > >::destroy<std::_List_node<HINSTANCE__ *,void *> *>
PUBLIC	??$addressof@$$CBV?$_List_val@U?$_List_simple_types@PAUHINSTANCE__@@@std@@@std@@@std@@YAPBV?$_List_val@U?$_List_simple_types@PAUHINSTANCE__@@@std@@@0@ABV10@@Z ; std::addressof<std::_List_val<std::_List_simple_types<HINSTANCE__ *> > const >
PUBLIC	??0?$_List_unchecked_iterator@V?$_List_val@U?$_List_simple_types@PAUHINSTANCE__@@@std@@@std@@@std@@QAE@PAU?$_List_node@PAUHINSTANCE__@@PAX@1@PBV?$_List_val@U?$_List_simple_types@PAUHINSTANCE__@@@std@@@1@@Z ; std::_List_unchecked_iterator<std::_List_val<std::_List_simple_types<HINSTANCE__ *> > >::_List_unchecked_iterator<std::_List_val<std::_List_simple_types<HINSTANCE__ *> > >
PUBLIC	??$_Uninitialized_fill_n@PAV?$_List_unchecked_const_iterator@V?$_List_val@U?$_List_simple_types@PAUHINSTANCE__@@@std@@@std@@U_Iterator_base0@2@@std@@IU?$_Wrap_alloc@V?$allocator@V?$_List_unchecked_const_iterator@V?$_List_val@U?$_List_simple_types@PAUHINSTANCE__@@@std@@@std@@U_Iterator_base0@2@@std@@@std@@@2@@std@@YAPAV?$_List_unchecked_const_iterator@V?$_List_val@U?$_List_simple_types@PAUHINSTANCE__@@@std@@@std@@U_Iterator_base0@2@@0@PAV10@IABV10@AAU?$_Wrap_alloc@U?$_Wrap_alloc@V?$allocator@V?$_List_unchecked_const_iterator@V?$_List_val@U?$_List_simple_types@PAUHINSTANCE__@@@std@@@std@@U_Iterator_base0@2@@std@@@std@@@std@@@0@@Z ; std::_Uninitialized_fill_n<std::_List_unchecked_const_iterator<std::_List_val<std::_List_simple_types<HINSTANCE__ *> >,std::_Iterator_base0> *,unsigned int,std::_Wrap_alloc<std::allocator<std::_List_unchecked_const_iterator<std::_List_val<std::_List_simple_types<HINSTANCE__ *> >,std::_Iterator_base0> > > >
PUBLIC	??$addressof@PAUHINSTANCE__@@@std@@YAPAPAUHINSTANCE__@@AAPAU1@@Z ; std::addressof<HINSTANCE__ *>
PUBLIC	??$destroy@PAUHINSTANCE__@@@?$_Wrap_alloc@V?$allocator@U?$_List_node@PAUHINSTANCE__@@PAX@std@@@std@@@std@@QAEXPAPAUHINSTANCE__@@@Z ; std::_Wrap_alloc<std::allocator<std::_List_node<HINSTANCE__ *,void *> > >::destroy<HINSTANCE__ *>
PUBLIC	??$addressof@V?$_List_val@U?$_List_simple_types@PAUHINSTANCE__@@@std@@@std@@@std@@YAPAV?$_List_val@U?$_List_simple_types@PAUHINSTANCE__@@@std@@@0@AAV10@@Z ; std::addressof<std::_List_val<std::_List_simple_types<HINSTANCE__ *> > >
PUBLIC	??$_Fn@U?$_Wrap_alloc@V?$allocator@V?$_List_unchecked_const_iterator@V?$_List_val@U?$_List_simple_types@PAUHINSTANCE__@@@std@@@std@@U_Iterator_base0@2@@std@@@std@@@std@@@_Alloc_max_size@std@@SAIHABU?$_Wrap_alloc@V?$allocator@V?$_List_unchecked_const_iterator@V?$_List_val@U?$_List_simple_types@PAUHINSTANCE__@@@std@@@std@@U_Iterator_base0@2@@std@@@std@@@1@@Z ; std::_Alloc_max_size::_Fn<std::_Wrap_alloc<std::allocator<std::_List_unchecked_const_iterator<std::_List_val<std::_List_simple_types<HINSTANCE__ *> >,std::_Iterator_base0> > > >
PUBLIC	??$_Uninitialized_move@PAV?$_List_unchecked_const_iterator@V?$_List_val@U?$_List_simple_types@PAUHINSTANCE__@@@std@@@std@@U_Iterator_base0@2@@std@@PAV12@U?$_Wrap_alloc@V?$allocator@V?$_List_unchecked_const_iterator@V?$_List_val@U?$_List_simple_types@PAUHINSTANCE__@@@std@@@std@@U_Iterator_base0@2@@std@@@std@@@2@@std@@YAPAV?$_List_unchecked_const_iterator@V?$_List_val@U?$_List_simple_types@PAUHINSTANCE__@@@std@@@std@@U_Iterator_base0@2@@0@PAV10@00AAU?$_Wrap_alloc@U?$_Wrap_alloc@V?$allocator@V?$_List_unchecked_const_iterator@V?$_List_val@U?$_List_simple_types@PAUHINSTANCE__@@@std@@@std@@U_Iterator_base0@2@@std@@@std@@@std@@@0@@Z ; std::_Uninitialized_move<std::_List_unchecked_const_iterator<std::_List_val<std::_List_simple_types<HINSTANCE__ *> >,std::_Iterator_base0> *,std::_List_unchecked_const_iterator<std::_List_val<std::_List_simple_types<HINSTANCE__ *> >,std::_Iterator_base0> *,std::_Wrap_alloc<std::allocator<std::_List_unchecked_const_iterator<std::_List_val<std::_List_simple_types<HINSTANCE__ *> >,std::_Iterator_base0> > > >
PUBLIC	??$_Insert@ABQAUHINSTANCE__@@U_Nil@std@@@?$_Hash@V?$_Uset_traits@PAUHINSTANCE__@@V?$_Uhash_compare@PAUHINSTANCE__@@U?$hash@PAUHINSTANCE__@@@std@@U?$equal_to@PAUHINSTANCE__@@@3@@std@@V?$allocator@PAUHINSTANCE__@@@3@$0A@@std@@@std@@IAE?AU?$pair@V?$_List_const_iterator@V?$_List_val@U?$_List_simple_types@PAUHINSTANCE__@@@std@@@std@@@std@@_N@1@ABQAUHINSTANCE__@@U_Nil@1@@Z ; std::_Hash<std::_Uset_traits<HINSTANCE__ *,std::_Uhash_compare<HINSTANCE__ *,std::hash<HINSTANCE__ *>,std::equal_to<HINSTANCE__ *> >,std::allocator<HINSTANCE__ *>,0> >::_Insert<HINSTANCE__ * const &,std::_Nil>
PUBLIC	??$_Distance1@V?$_List_const_iterator@V?$_List_val@U?$_List_simple_types@PAUHINSTANCE__@@@std@@@std@@@std@@@std@@YAHV?$_List_const_iterator@V?$_List_val@U?$_List_simple_types@PAUHINSTANCE__@@@std@@@std@@@0@0Uinput_iterator_tag@0@@Z ; std::_Distance1<std::_List_const_iterator<std::_List_val<std::_List_simple_types<HINSTANCE__ *> > > >
PUBLIC	??$forward@V?$_List_const_iterator@V?$_List_val@U?$_List_simple_types@PAUHINSTANCE__@@@std@@@std@@@std@@@std@@YA$$QAV?$_List_const_iterator@V?$_List_val@U?$_List_simple_types@PAUHINSTANCE__@@@std@@@std@@@0@AAV10@@Z ; std::forward<std::_List_const_iterator<std::_List_val<std::_List_simple_types<HINSTANCE__ *> > > >
PUBLIC	??$forward@ABV?$allocator@PAUHINSTANCE__@@@std@@@std@@YAABV?$allocator@PAUHINSTANCE__@@@0@ABV10@@Z ; std::forward<std::allocator<HINSTANCE__ *> const &>
PUBLIC	??$?0PAUHINSTANCE__@@@?$allocator@V?$_List_unchecked_const_iterator@V?$_List_val@U?$_List_simple_types@PAUHINSTANCE__@@@std@@@std@@U_Iterator_base0@2@@std@@@std@@QAE@ABV?$allocator@PAUHINSTANCE__@@@1@@Z ; std::allocator<std::_List_unchecked_const_iterator<std::_List_val<std::_List_simple_types<HINSTANCE__ *> >,std::_Iterator_base0> >::allocator<std::_List_unchecked_const_iterator<std::_List_val<std::_List_simple_types<HINSTANCE__ *> >,std::_Iterator_base0> ><HINSTANCE__ *>
PUBLIC	??$forward@AAU?$hash@PAUHINSTANCE__@@@std@@@std@@YAAAU?$hash@PAUHINSTANCE__@@@0@AAU10@@Z ; std::forward<std::hash<HINSTANCE__ *> &>
PUBLIC	??$forward@U_One_then_variadic_args_t@std@@@std@@YA$$QAU_One_then_variadic_args_t@0@AAU10@@Z ; std::forward<std::_One_then_variadic_args_t>
PUBLIC	??$forward@AAU?$equal_to@PAUHINSTANCE__@@@std@@@std@@YAAAU?$equal_to@PAUHINSTANCE__@@@0@AAU10@@Z ; std::forward<std::equal_to<HINSTANCE__ *> &>
PUBLIC	??$forward@M@std@@YA$$QAMAAM@Z			; std::forward<float>
PUBLIC	??$?0AAU?$equal_to@PAUHINSTANCE__@@@std@@M@?$_Compressed_pair@U?$equal_to@PAUHINSTANCE__@@@std@@M$00@std@@QAE@U_One_then_variadic_args_t@1@AAU?$equal_to@PAUHINSTANCE__@@@1@$$QAM@Z ; std::_Compressed_pair<std::equal_to<HINSTANCE__ *>,float,1>::_Compressed_pair<std::equal_to<HINSTANCE__ *>,float,1><std::equal_to<HINSTANCE__ *> &,float>
PUBLIC	??$destroy@PA_W@?$allocator_traits@V?$allocator@_W@std@@@std@@SAXAAV?$allocator@_W@1@PAPA_W@Z ; std::allocator_traits<std::allocator<wchar_t> >::destroy<wchar_t *>
PUBLIC	??$forward@ABU?$_Wrap_alloc@V?$allocator@V?$_List_unchecked_const_iterator@V?$_List_val@U?$_List_simple_types@PAUHINSTANCE__@@@std@@@std@@U_Iterator_base0@2@@std@@@std@@@std@@@std@@YAABU?$_Wrap_alloc@V?$allocator@V?$_List_unchecked_const_iterator@V?$_List_val@U?$_List_simple_types@PAUHINSTANCE__@@@std@@@std@@U_Iterator_base0@2@@std@@@std@@@0@ABU10@@Z ; std::forward<std::_Wrap_alloc<std::allocator<std::_List_unchecked_const_iterator<std::_List_val<std::_List_simple_types<HINSTANCE__ *> >,std::_Iterator_base0> > > const &>
PUBLIC	??$?0ABU?$_Wrap_alloc@V?$allocator@V?$_List_unchecked_const_iterator@V?$_List_val@U?$_List_simple_types@PAUHINSTANCE__@@@std@@@std@@U_Iterator_base0@2@@std@@@std@@@std@@$$V@?$_Compressed_pair@U?$_Wrap_alloc@U?$_Wrap_alloc@V?$allocator@V?$_List_unchecked_const_iterator@V?$_List_val@U?$_List_simple_types@PAUHINSTANCE__@@@std@@@std@@U_Iterator_base0@2@@std@@@std@@@std@@@std@@V?$_Vector_val@U?$_Simple_types@V?$_List_unchecked_const_iterator@V?$_List_val@U?$_List_simple_types@PAUHINSTANCE__@@@std@@@std@@U_Iterator_base0@2@@std@@@std@@@2@$00@std@@QAE@U_One_then_variadic_args_t@1@ABU?$_Wrap_alloc@V?$allocator@V?$_List_unchecked_const_iterator@V?$_List_val@U?$_List_simple_types@PAUHINSTANCE__@@@std@@@std@@U_Iterator_base0@2@@std@@@std@@@1@@Z ; std::_Compressed_pair<std::_Wrap_alloc<std::_Wrap_alloc<std::allocator<std::_List_unchecked_const_iterator<std::_List_val<std::_List_simple_types<HINSTANCE__ *> >,std::_Iterator_base0> > > >,std::_Vector_val<std::_Simple_types<std::_List_unchecked_const_iterator<std::_List_val<std::_List_simple_types<HINSTANCE__ *> >,std::_Iterator_base0> > >,1>::_Compressed_pair<std::_Wrap_alloc<std::_Wrap_alloc<std::allocator<std::_List_unchecked_const_iterator<std::_List_val<std::_List_simple_types<HINSTANCE__ *> >,std::_Iterator_base0> > > >,std::_Vector_val<std::_Simple_types<std::_List_unchecked_const_iterator<std::_List_val<std::_List_simple_types<HINSTANCE__ *> >,std::_Iterator_base0> > >,1><std::_Wrap_alloc<std::allocator<std::_List_unchecked_const_iterator<std::_List_val<std::_List_simple_types<HINSTANCE__ *> >,std::_Iterator_base0> > > const &>
PUBLIC	??$?0ABV?$allocator@PAUHINSTANCE__@@@std@@X@?$_List_alloc@U?$_List_base_types@PAUHINSTANCE__@@V?$allocator@PAUHINSTANCE__@@@std@@@std@@@std@@QAE@ABV?$allocator@PAUHINSTANCE__@@@1@@Z ; std::_List_alloc<std::_List_base_types<HINSTANCE__ *,std::allocator<HINSTANCE__ *> > >::_List_alloc<std::_List_base_types<HINSTANCE__ *,std::allocator<HINSTANCE__ *> > ><std::allocator<HINSTANCE__ *> const &,void>
PUBLIC	??$_Destroy_range1@U?$_Wrap_alloc@V?$allocator@V?$_List_unchecked_const_iterator@V?$_List_val@U?$_List_simple_types@PAUHINSTANCE__@@@std@@@std@@U_Iterator_base0@2@@std@@@std@@@std@@PAV?$_List_unchecked_const_iterator@V?$_List_val@U?$_List_simple_types@PAUHINSTANCE__@@@std@@@std@@U_Iterator_base0@2@@2@@std@@YAXPAV?$_List_unchecked_const_iterator@V?$_List_val@U?$_List_simple_types@PAUHINSTANCE__@@@std@@@std@@U_Iterator_base0@2@@0@0AAU?$_Wrap_alloc@U?$_Wrap_alloc@V?$allocator@V?$_List_unchecked_const_iterator@V?$_List_val@U?$_List_simple_types@PAUHINSTANCE__@@@std@@@std@@U_Iterator_base0@2@@std@@@std@@@std@@@0@U?$integral_constant@_N$0A@@0@@Z ; std::_Destroy_range1<std::_Wrap_alloc<std::allocator<std::_List_unchecked_const_iterator<std::_List_val<std::_List_simple_types<HINSTANCE__ *> >,std::_Iterator_base0> > >,std::_List_unchecked_const_iterator<std::_List_val<std::_List_simple_types<HINSTANCE__ *> >,std::_Iterator_base0> *>
PUBLIC	??$_Fill_memset_is_safe@PAV?$_List_unchecked_const_iterator@V?$_List_val@U?$_List_simple_types@PAUHINSTANCE__@@@std@@@std@@U_Iterator_base0@2@@std@@V12@@std@@YA?AU?$integral_constant@_N$0A@@0@ABQAV?$_List_unchecked_const_iterator@V?$_List_val@U?$_List_simple_types@PAUHINSTANCE__@@@std@@@std@@U_Iterator_base0@2@@0@ABV20@@Z ; std::_Fill_memset_is_safe<std::_List_unchecked_const_iterator<std::_List_val<std::_List_simple_types<HINSTANCE__ *> >,std::_Iterator_base0> *,std::_List_unchecked_const_iterator<std::_List_val<std::_List_simple_types<HINSTANCE__ *> >,std::_Iterator_base0> >
PUBLIC	??$_Fill_unchecked1@PAV?$_List_unchecked_const_iterator@V?$_List_val@U?$_List_simple_types@PAUHINSTANCE__@@@std@@@std@@U_Iterator_base0@2@@std@@V12@@std@@YAXPAV?$_List_unchecked_const_iterator@V?$_List_val@U?$_List_simple_types@PAUHINSTANCE__@@@std@@@std@@U_Iterator_base0@2@@0@0ABV10@U?$integral_constant@_N$0A@@0@@Z ; std::_Fill_unchecked1<std::_List_unchecked_const_iterator<std::_List_val<std::_List_simple_types<HINSTANCE__ *> >,std::_Iterator_base0> *,std::_List_unchecked_const_iterator<std::_List_val<std::_List_simple_types<HINSTANCE__ *> >,std::_Iterator_base0> >
PUBLIC	??$destroy@PAU?$_List_node@PAUHINSTANCE__@@PAX@std@@@?$allocator_traits@V?$allocator@U?$_List_node@PAUHINSTANCE__@@PAX@std@@@std@@@std@@SAXAAV?$allocator@U?$_List_node@PAUHINSTANCE__@@PAX@std@@@1@PAPAU?$_List_node@PAUHINSTANCE__@@PAX@1@@Z ; std::allocator_traits<std::allocator<std::_List_node<HINSTANCE__ *,void *> > >::destroy<std::_List_node<HINSTANCE__ *,void *> *>
PUBLIC	??$_Unfancy@V?$_List_unchecked_const_iterator@V?$_List_val@U?$_List_simple_types@PAUHINSTANCE__@@@std@@@std@@U_Iterator_base0@2@@std@@@std@@YAPAV?$_List_unchecked_const_iterator@V?$_List_val@U?$_List_simple_types@PAUHINSTANCE__@@@std@@@std@@U_Iterator_base0@2@@0@PAV10@@Z ; std::_Unfancy<std::_List_unchecked_const_iterator<std::_List_val<std::_List_simple_types<HINSTANCE__ *> >,std::_Iterator_base0> >
PUBLIC	??$_Uninit_alloc_fill_n1@PAV?$_List_unchecked_const_iterator@V?$_List_val@U?$_List_simple_types@PAUHINSTANCE__@@@std@@@std@@U_Iterator_base0@2@@std@@IU?$_Wrap_alloc@V?$allocator@V?$_List_unchecked_const_iterator@V?$_List_val@U?$_List_simple_types@PAUHINSTANCE__@@@std@@@std@@U_Iterator_base0@2@@std@@@std@@@2@@std@@YAPAV?$_List_unchecked_const_iterator@V?$_List_val@U?$_List_simple_types@PAUHINSTANCE__@@@std@@@std@@U_Iterator_base0@2@@0@PAV10@IABV10@AAU?$_Wrap_alloc@U?$_Wrap_alloc@V?$allocator@V?$_List_unchecked_const_iterator@V?$_List_val@U?$_List_simple_types@PAUHINSTANCE__@@@std@@@std@@U_Iterator_base0@2@@std@@@std@@@std@@@0@U?$integral_constant@_N$0A@@0@@Z ; std::_Uninit_alloc_fill_n1<std::_List_unchecked_const_iterator<std::_List_val<std::_List_simple_types<HINSTANCE__ *> >,std::_Iterator_base0> *,unsigned int,std::_Wrap_alloc<std::allocator<std::_List_unchecked_const_iterator<std::_List_val<std::_List_simple_types<HINSTANCE__ *> >,std::_Iterator_base0> > > >
PUBLIC	??$destroy@PAUHINSTANCE__@@@?$allocator_traits@V?$allocator@U?$_List_node@PAUHINSTANCE__@@PAX@std@@@std@@@std@@SAXAAV?$allocator@U?$_List_node@PAUHINSTANCE__@@PAX@std@@@1@PAPAUHINSTANCE__@@@Z ; std::allocator_traits<std::allocator<std::_List_node<HINSTANCE__ *,void *> > >::destroy<HINSTANCE__ *>
PUBLIC	??$_Unchecked@PAV?$_List_unchecked_const_iterator@V?$_List_val@U?$_List_simple_types@PAUHINSTANCE__@@@std@@@std@@U_Iterator_base0@2@@std@@@std@@YAPAV?$_List_unchecked_const_iterator@V?$_List_val@U?$_List_simple_types@PAUHINSTANCE__@@@std@@@std@@U_Iterator_base0@2@@0@PAV10@@Z ; std::_Unchecked<std::_List_unchecked_const_iterator<std::_List_val<std::_List_simple_types<HINSTANCE__ *> >,std::_Iterator_base0> *>
PUBLIC	??$_Ptr_move_cat@V?$_List_unchecked_const_iterator@V?$_List_val@U?$_List_simple_types@PAUHINSTANCE__@@@std@@@std@@U_Iterator_base0@2@@std@@V12@@std@@YA?AU_Trivially_copyable_ptr_iterator_tag@0@ABQAV?$_List_unchecked_const_iterator@V?$_List_val@U?$_List_simple_types@PAUHINSTANCE__@@@std@@@std@@U_Iterator_base0@2@@0@0@Z ; std::_Ptr_move_cat<std::_List_unchecked_const_iterator<std::_List_val<std::_List_simple_types<HINSTANCE__ *> >,std::_Iterator_base0>,std::_List_unchecked_const_iterator<std::_List_val<std::_List_simple_types<HINSTANCE__ *> >,std::_Iterator_base0> >
PUBLIC	??$move@AAV?$_List_unchecked_const_iterator@V?$_List_val@U?$_List_simple_types@PAUHINSTANCE__@@@std@@@std@@U_Iterator_base0@2@@std@@@std@@YA$$QAV?$_List_unchecked_const_iterator@V?$_List_val@U?$_List_simple_types@PAUHINSTANCE__@@@std@@@std@@U_Iterator_base0@2@@0@AAV10@@Z ; std::move<std::_List_unchecked_const_iterator<std::_List_val<std::_List_simple_types<HINSTANCE__ *> >,std::_Iterator_base0> &>
PUBLIC	??$_Uninitialized_move_al_unchecked@PAV?$_List_unchecked_const_iterator@V?$_List_val@U?$_List_simple_types@PAUHINSTANCE__@@@std@@@std@@U_Iterator_base0@2@@std@@PAV12@U?$_Wrap_alloc@V?$allocator@V?$_List_unchecked_const_iterator@V?$_List_val@U?$_List_simple_types@PAUHINSTANCE__@@@std@@@std@@U_Iterator_base0@2@@std@@@std@@@2@@std@@YAPAV?$_List_unchecked_const_iterator@V?$_List_val@U?$_List_simple_types@PAUHINSTANCE__@@@std@@@std@@U_Iterator_base0@2@@0@PAV10@00AAU?$_Wrap_alloc@U?$_Wrap_alloc@V?$allocator@V?$_List_unchecked_const_iterator@V?$_List_val@U?$_List_simple_types@PAUHINSTANCE__@@@std@@@std@@U_Iterator_base0@2@@std@@@std@@@std@@@0@U_General_ptr_iterator_tag@0@U_Any_tag@0@@Z ; std::_Uninitialized_move_al_unchecked<std::_List_unchecked_const_iterator<std::_List_val<std::_List_simple_types<HINSTANCE__ *> >,std::_Iterator_base0> *,std::_List_unchecked_const_iterator<std::_List_val<std::_List_simple_types<HINSTANCE__ *> >,std::_Iterator_base0> *,std::_Wrap_alloc<std::allocator<std::_List_unchecked_const_iterator<std::_List_val<std::_List_simple_types<HINSTANCE__ *> >,std::_Iterator_base0> > > >
PUBLIC	??$?0U?$integral_constant@_N$0A@@std@@@_Any_tag@std@@QAE@$$QAU?$integral_constant@_N$0A@@1@@Z ; std::_Any_tag::_Any_tag<std::integral_constant<bool,0> >
PUBLIC	??$_Rechecked@PAV?$_List_unchecked_const_iterator@V?$_List_val@U?$_List_simple_types@PAUHINSTANCE__@@@std@@@std@@U_Iterator_base0@2@@std@@PAV12@@std@@YAAAPAV?$_List_unchecked_const_iterator@V?$_List_val@U?$_List_simple_types@PAUHINSTANCE__@@@std@@@std@@U_Iterator_base0@2@@0@AAPAV10@PAV10@@Z ; std::_Rechecked<std::_List_unchecked_const_iterator<std::_List_val<std::_List_simple_types<HINSTANCE__ *> >,std::_Iterator_base0> *,std::_List_unchecked_const_iterator<std::_List_val<std::_List_simple_types<HINSTANCE__ *> >,std::_Iterator_base0> *>
PUBLIC	??$?0V?$_List_const_iterator@V?$_List_val@U?$_List_simple_types@PAUHINSTANCE__@@@std@@@std@@@std@@_NX$0A@@?$pair@V?$_List_const_iterator@V?$_List_val@U?$_List_simple_types@PAUHINSTANCE__@@@std@@@std@@@std@@_N@std@@QAE@$$QAV?$_List_const_iterator@V?$_List_val@U?$_List_simple_types@PAUHINSTANCE__@@@std@@@std@@@1@$$QA_N@Z ; std::pair<std::_List_const_iterator<std::_List_val<std::_List_simple_types<HINSTANCE__ *> > >,bool>::pair<std::_List_const_iterator<std::_List_val<std::_List_simple_types<HINSTANCE__ *> > >,bool><std::_List_const_iterator<std::_List_val<std::_List_simple_types<HINSTANCE__ *> > >,bool,void,0>
PUBLIC	??$forward@ABQAUHINSTANCE__@@@std@@YAABQAUHINSTANCE__@@ABQAU1@@Z ; std::forward<HINSTANCE__ * const &>
PUBLIC	??$_Buynode_if_nil@ABQAUHINSTANCE__@@@?$_Hash@V?$_Uset_traits@PAUHINSTANCE__@@V?$_Uhash_compare@PAUHINSTANCE__@@U?$hash@PAUHINSTANCE__@@@std@@U?$equal_to@PAUHINSTANCE__@@@3@@std@@V?$allocator@PAUHINSTANCE__@@@3@$0A@@std@@@std@@IAE?AV?$_List_unchecked_const_iterator@V?$_List_val@U?$_List_simple_types@PAUHINSTANCE__@@@std@@@std@@U_Iterator_base0@2@@1@ABQAUHINSTANCE__@@U_Nil@1@@Z ; std::_Hash<std::_Uset_traits<HINSTANCE__ *,std::_Uhash_compare<HINSTANCE__ *,std::hash<HINSTANCE__ *>,std::equal_to<HINSTANCE__ *> >,std::allocator<HINSTANCE__ *>,0> >::_Buynode_if_nil<HINSTANCE__ * const &>
PUBLIC	??$_Buynode_if_nil@ABQAUHINSTANCE__@@@?$_Hash@V?$_Uset_traits@PAUHINSTANCE__@@V?$_Uhash_compare@PAUHINSTANCE__@@U?$hash@PAUHINSTANCE__@@@std@@U?$equal_to@PAUHINSTANCE__@@@3@@std@@V?$allocator@PAUHINSTANCE__@@@3@$0A@@std@@@std@@IAE?AV?$_List_unchecked_const_iterator@V?$_List_val@U?$_List_simple_types@PAUHINSTANCE__@@@std@@@std@@U_Iterator_base0@2@@1@ABQAUHINSTANCE__@@V21@@Z ; std::_Hash<std::_Uset_traits<HINSTANCE__ *,std::_Uhash_compare<HINSTANCE__ *,std::hash<HINSTANCE__ *>,std::equal_to<HINSTANCE__ *> >,std::allocator<HINSTANCE__ *>,0> >::_Buynode_if_nil<HINSTANCE__ * const &>
PUBLIC	??$destroy@PA_W@?$allocator@_W@std@@QAEXPAPA_W@Z ; std::allocator<wchar_t>::destroy<wchar_t *>
PUBLIC	??$?0ABU?$_Wrap_alloc@V?$allocator@V?$_List_unchecked_const_iterator@V?$_List_val@U?$_List_simple_types@PAUHINSTANCE__@@@std@@@std@@U_Iterator_base0@2@@std@@@std@@@std@@@?$_Wrap_alloc@U?$_Wrap_alloc@V?$allocator@V?$_List_unchecked_const_iterator@V?$_List_val@U?$_List_simple_types@PAUHINSTANCE__@@@std@@@std@@U_Iterator_base0@2@@std@@@std@@@std@@@std@@QAE@ABU?$_Wrap_alloc@V?$allocator@V?$_List_unchecked_const_iterator@V?$_List_val@U?$_List_simple_types@PAUHINSTANCE__@@@std@@@std@@U_Iterator_base0@2@@std@@@std@@@1@@Z ; std::_Wrap_alloc<std::_Wrap_alloc<std::allocator<std::_List_unchecked_const_iterator<std::_List_val<std::_List_simple_types<HINSTANCE__ *> >,std::_Iterator_base0> > > >::_Wrap_alloc<std::_Wrap_alloc<std::allocator<std::_List_unchecked_const_iterator<std::_List_val<std::_List_simple_types<HINSTANCE__ *> >,std::_Iterator_base0> > > ><std::_Wrap_alloc<std::allocator<std::_List_unchecked_const_iterator<std::_List_val<std::_List_simple_types<HINSTANCE__ *> >,std::_Iterator_base0> > > const &>
PUBLIC	??$?0ABV?$allocator@PAUHINSTANCE__@@@std@@$$V@?$_Compressed_pair@U?$_Wrap_alloc@V?$allocator@U?$_List_node@PAUHINSTANCE__@@PAX@std@@@std@@@std@@V?$_List_val@U?$_List_simple_types@PAUHINSTANCE__@@@std@@@2@$00@std@@QAE@U_One_then_variadic_args_t@1@ABV?$allocator@PAUHINSTANCE__@@@1@@Z ; std::_Compressed_pair<std::_Wrap_alloc<std::allocator<std::_List_node<HINSTANCE__ *,void *> > >,std::_List_val<std::_List_simple_types<HINSTANCE__ *> >,1>::_Compressed_pair<std::_Wrap_alloc<std::allocator<std::_List_node<HINSTANCE__ *,void *> > >,std::_List_val<std::_List_simple_types<HINSTANCE__ *> >,1><std::allocator<HINSTANCE__ *> const &>
PUBLIC	??$destroy@V?$_List_unchecked_const_iterator@V?$_List_val@U?$_List_simple_types@PAUHINSTANCE__@@@std@@@std@@U_Iterator_base0@2@@std@@@?$_Wrap_alloc@U?$_Wrap_alloc@V?$allocator@V?$_List_unchecked_const_iterator@V?$_List_val@U?$_List_simple_types@PAUHINSTANCE__@@@std@@@std@@U_Iterator_base0@2@@std@@@std@@@std@@@std@@QAEXPAV?$_List_unchecked_const_iterator@V?$_List_val@U?$_List_simple_types@PAUHINSTANCE__@@@std@@@std@@U_Iterator_base0@2@@1@@Z ; std::_Wrap_alloc<std::_Wrap_alloc<std::allocator<std::_List_unchecked_const_iterator<std::_List_val<std::_List_simple_types<HINSTANCE__ *> >,std::_Iterator_base0> > > >::destroy<std::_List_unchecked_const_iterator<std::_List_val<std::_List_simple_types<HINSTANCE__ *> >,std::_Iterator_base0> >
PUBLIC	??$destroy@PAU?$_List_node@PAUHINSTANCE__@@PAX@std@@@?$allocator@U?$_List_node@PAUHINSTANCE__@@PAX@std@@@std@@QAEXPAPAU?$_List_node@PAUHINSTANCE__@@PAX@1@@Z ; std::allocator<std::_List_node<HINSTANCE__ *,void *> >::destroy<std::_List_node<HINSTANCE__ *,void *> *>
PUBLIC	??$construct@V?$_List_unchecked_const_iterator@V?$_List_val@U?$_List_simple_types@PAUHINSTANCE__@@@std@@@std@@U_Iterator_base0@2@@std@@ABV12@@?$_Wrap_alloc@U?$_Wrap_alloc@V?$allocator@V?$_List_unchecked_const_iterator@V?$_List_val@U?$_List_simple_types@PAUHINSTANCE__@@@std@@@std@@U_Iterator_base0@2@@std@@@std@@@std@@@std@@QAEXPAV?$_List_unchecked_const_iterator@V?$_List_val@U?$_List_simple_types@PAUHINSTANCE__@@@std@@@std@@U_Iterator_base0@2@@1@ABV21@@Z ; std::_Wrap_alloc<std::_Wrap_alloc<std::allocator<std::_List_unchecked_const_iterator<std::_List_val<std::_List_simple_types<HINSTANCE__ *> >,std::_Iterator_base0> > > >::construct<std::_List_unchecked_const_iterator<std::_List_val<std::_List_simple_types<HINSTANCE__ *> >,std::_Iterator_base0>,std::_List_unchecked_const_iterator<std::_List_val<std::_List_simple_types<HINSTANCE__ *> >,std::_Iterator_base0> const &>
PUBLIC	??$destroy@PAUHINSTANCE__@@@?$allocator@U?$_List_node@PAUHINSTANCE__@@PAX@std@@@std@@QAEXPAPAUHINSTANCE__@@@Z ; std::allocator<std::_List_node<HINSTANCE__ *,void *> >::destroy<HINSTANCE__ *>
PUBLIC	??$construct@V?$_List_unchecked_const_iterator@V?$_List_val@U?$_List_simple_types@PAUHINSTANCE__@@@std@@@std@@U_Iterator_base0@2@@std@@V12@@?$_Wrap_alloc@U?$_Wrap_alloc@V?$allocator@V?$_List_unchecked_const_iterator@V?$_List_val@U?$_List_simple_types@PAUHINSTANCE__@@@std@@@std@@U_Iterator_base0@2@@std@@@std@@@std@@@std@@QAEXPAV?$_List_unchecked_const_iterator@V?$_List_val@U?$_List_simple_types@PAUHINSTANCE__@@@std@@@std@@U_Iterator_base0@2@@1@$$QAV21@@Z ; std::_Wrap_alloc<std::_Wrap_alloc<std::allocator<std::_List_unchecked_const_iterator<std::_List_val<std::_List_simple_types<HINSTANCE__ *> >,std::_Iterator_base0> > > >::construct<std::_List_unchecked_const_iterator<std::_List_val<std::_List_simple_types<HINSTANCE__ *> >,std::_Iterator_base0>,std::_List_unchecked_const_iterator<std::_List_val<std::_List_simple_types<HINSTANCE__ *> >,std::_Iterator_base0> >
PUBLIC	??$construct@PAU?$_List_node@PAUHINSTANCE__@@PAX@std@@AAPAU12@@?$_Wrap_alloc@V?$allocator@U?$_List_node@PAUHINSTANCE__@@PAX@std@@@std@@@std@@QAEXPAPAU?$_List_node@PAUHINSTANCE__@@PAX@1@AAPAU21@@Z ; std::_Wrap_alloc<std::allocator<std::_List_node<HINSTANCE__ *,void *> > >::construct<std::_List_node<HINSTANCE__ *,void *> *,std::_List_node<HINSTANCE__ *,void *> * &>
PUBLIC	??$_Insert@ABQAUHINSTANCE__@@V?$_List_unchecked_const_iterator@V?$_List_val@U?$_List_simple_types@PAUHINSTANCE__@@@std@@@std@@U_Iterator_base0@2@@std@@@?$_Hash@V?$_Uset_traits@PAUHINSTANCE__@@V?$_Uhash_compare@PAUHINSTANCE__@@U?$hash@PAUHINSTANCE__@@@std@@U?$equal_to@PAUHINSTANCE__@@@3@@std@@V?$allocator@PAUHINSTANCE__@@@3@$0A@@std@@@std@@IAE?AU?$pair@V?$_List_const_iterator@V?$_List_val@U?$_List_simple_types@PAUHINSTANCE__@@@std@@@std@@@std@@_N@1@ABQAUHINSTANCE__@@V?$_List_unchecked_const_iterator@V?$_List_val@U?$_List_simple_types@PAUHINSTANCE__@@@std@@@std@@U_Iterator_base0@2@@1@@Z ; std::_Hash<std::_Uset_traits<HINSTANCE__ *,std::_Uhash_compare<HINSTANCE__ *,std::hash<HINSTANCE__ *>,std::equal_to<HINSTANCE__ *> >,std::allocator<HINSTANCE__ *>,0> >::_Insert<HINSTANCE__ * const &,std::_List_unchecked_const_iterator<std::_List_val<std::_List_simple_types<HINSTANCE__ *> >,std::_Iterator_base0> >
PUBLIC	??$forward@_N@std@@YA$$QA_NAA_N@Z		; std::forward<bool>
PUBLIC	??$?0ABV?$allocator@PAUHINSTANCE__@@@std@@@?$_Wrap_alloc@V?$allocator@U?$_List_node@PAUHINSTANCE__@@PAX@std@@@std@@@std@@QAE@ABV?$allocator@PAUHINSTANCE__@@@1@@Z ; std::_Wrap_alloc<std::allocator<std::_List_node<HINSTANCE__ *,void *> > >::_Wrap_alloc<std::allocator<std::_List_node<HINSTANCE__ *,void *> > ><std::allocator<HINSTANCE__ *> const &>
PUBLIC	??$destroy@V?$_List_unchecked_const_iterator@V?$_List_val@U?$_List_simple_types@PAUHINSTANCE__@@@std@@@std@@U_Iterator_base0@2@@std@@@?$allocator_traits@U?$_Wrap_alloc@V?$allocator@V?$_List_unchecked_const_iterator@V?$_List_val@U?$_List_simple_types@PAUHINSTANCE__@@@std@@@std@@U_Iterator_base0@2@@std@@@std@@@std@@@std@@SAXAAU?$_Wrap_alloc@V?$allocator@V?$_List_unchecked_const_iterator@V?$_List_val@U?$_List_simple_types@PAUHINSTANCE__@@@std@@@std@@U_Iterator_base0@2@@std@@@std@@@1@PAV?$_List_unchecked_const_iterator@V?$_List_val@U?$_List_simple_types@PAUHINSTANCE__@@@std@@@std@@U_Iterator_base0@2@@1@@Z ; std::allocator_traits<std::_Wrap_alloc<std::allocator<std::_List_unchecked_const_iterator<std::_List_val<std::_List_simple_types<HINSTANCE__ *> >,std::_Iterator_base0> > > >::destroy<std::_List_unchecked_const_iterator<std::_List_val<std::_List_simple_types<HINSTANCE__ *> >,std::_Iterator_base0> >
PUBLIC	??$forward@ABV?$_List_unchecked_const_iterator@V?$_List_val@U?$_List_simple_types@PAUHINSTANCE__@@@std@@@std@@U_Iterator_base0@2@@std@@@std@@YAABV?$_List_unchecked_const_iterator@V?$_List_val@U?$_List_simple_types@PAUHINSTANCE__@@@std@@@std@@U_Iterator_base0@2@@0@ABV10@@Z ; std::forward<std::_List_unchecked_const_iterator<std::_List_val<std::_List_simple_types<HINSTANCE__ *> >,std::_Iterator_base0> const &>
PUBLIC	??$construct@V?$_List_unchecked_const_iterator@V?$_List_val@U?$_List_simple_types@PAUHINSTANCE__@@@std@@@std@@U_Iterator_base0@2@@std@@ABV12@@?$allocator_traits@U?$_Wrap_alloc@V?$allocator@V?$_List_unchecked_const_iterator@V?$_List_val@U?$_List_simple_types@PAUHINSTANCE__@@@std@@@std@@U_Iterator_base0@2@@std@@@std@@@std@@@std@@SAXAAU?$_Wrap_alloc@V?$allocator@V?$_List_unchecked_const_iterator@V?$_List_val@U?$_List_simple_types@PAUHINSTANCE__@@@std@@@std@@U_Iterator_base0@2@@std@@@std@@@1@PAV?$_List_unchecked_const_iterator@V?$_List_val@U?$_List_simple_types@PAUHINSTANCE__@@@std@@@std@@U_Iterator_base0@2@@1@ABV31@@Z ; std::allocator_traits<std::_Wrap_alloc<std::allocator<std::_List_unchecked_const_iterator<std::_List_val<std::_List_simple_types<HINSTANCE__ *> >,std::_Iterator_base0> > > >::construct<std::_List_unchecked_const_iterator<std::_List_val<std::_List_simple_types<HINSTANCE__ *> >,std::_Iterator_base0>,std::_List_unchecked_const_iterator<std::_List_val<std::_List_simple_types<HINSTANCE__ *> >,std::_Iterator_base0> const &>
PUBLIC	??$forward@V?$_List_unchecked_const_iterator@V?$_List_val@U?$_List_simple_types@PAUHINSTANCE__@@@std@@@std@@U_Iterator_base0@2@@std@@@std@@YA$$QAV?$_List_unchecked_const_iterator@V?$_List_val@U?$_List_simple_types@PAUHINSTANCE__@@@std@@@std@@U_Iterator_base0@2@@0@AAV10@@Z ; std::forward<std::_List_unchecked_const_iterator<std::_List_val<std::_List_simple_types<HINSTANCE__ *> >,std::_Iterator_base0> >
PUBLIC	??$construct@V?$_List_unchecked_const_iterator@V?$_List_val@U?$_List_simple_types@PAUHINSTANCE__@@@std@@@std@@U_Iterator_base0@2@@std@@V12@@?$allocator_traits@U?$_Wrap_alloc@V?$allocator@V?$_List_unchecked_const_iterator@V?$_List_val@U?$_List_simple_types@PAUHINSTANCE__@@@std@@@std@@U_Iterator_base0@2@@std@@@std@@@std@@@std@@SAXAAU?$_Wrap_alloc@V?$allocator@V?$_List_unchecked_const_iterator@V?$_List_val@U?$_List_simple_types@PAUHINSTANCE__@@@std@@@std@@U_Iterator_base0@2@@std@@@std@@@1@PAV?$_List_unchecked_const_iterator@V?$_List_val@U?$_List_simple_types@PAUHINSTANCE__@@@std@@@std@@U_Iterator_base0@2@@1@$$QAV31@@Z ; std::allocator_traits<std::_Wrap_alloc<std::allocator<std::_List_unchecked_const_iterator<std::_List_val<std::_List_simple_types<HINSTANCE__ *> >,std::_Iterator_base0> > > >::construct<std::_List_unchecked_const_iterator<std::_List_val<std::_List_simple_types<HINSTANCE__ *> >,std::_Iterator_base0>,std::_List_unchecked_const_iterator<std::_List_val<std::_List_simple_types<HINSTANCE__ *> >,std::_Iterator_base0> >
PUBLIC	??$forward@AAPAU?$_List_node@PAUHINSTANCE__@@PAX@std@@@std@@YAAAPAU?$_List_node@PAUHINSTANCE__@@PAX@0@AAPAU10@@Z ; std::forward<std::_List_node<HINSTANCE__ *,void *> * &>
PUBLIC	??$construct@PAU?$_List_node@PAUHINSTANCE__@@PAX@std@@AAPAU12@@?$allocator_traits@V?$allocator@U?$_List_node@PAUHINSTANCE__@@PAX@std@@@std@@@std@@SAXAAV?$allocator@U?$_List_node@PAUHINSTANCE__@@PAX@std@@@1@PAPAU?$_List_node@PAUHINSTANCE__@@PAX@1@AAPAU31@@Z ; std::allocator_traits<std::allocator<std::_List_node<HINSTANCE__ *,void *> > >::construct<std::_List_node<HINSTANCE__ *,void *> *,std::_List_node<HINSTANCE__ *,void *> * &>
PUBLIC	??$_Insert@ABQAUHINSTANCE__@@@?$list@PAUHINSTANCE__@@V?$allocator@PAUHINSTANCE__@@@std@@@std@@QAEXV?$_List_unchecked_const_iterator@V?$_List_val@U?$_List_simple_types@PAUHINSTANCE__@@@std@@@std@@U_Iterator_base0@2@@1@ABQAUHINSTANCE__@@@Z ; std::list<HINSTANCE__ *,std::allocator<HINSTANCE__ *> >::_Insert<HINSTANCE__ * const &>
PUBLIC	??$?0PAUHINSTANCE__@@@?$allocator@U?$_List_node@PAUHINSTANCE__@@PAX@std@@@std@@QAE@ABV?$allocator@PAUHINSTANCE__@@@1@@Z ; std::allocator<std::_List_node<HINSTANCE__ *,void *> >::allocator<std::_List_node<HINSTANCE__ *,void *> ><HINSTANCE__ *>
PUBLIC	??$_Destroy1@V?$_List_unchecked_const_iterator@V?$_List_val@U?$_List_simple_types@PAUHINSTANCE__@@@std@@@std@@U_Iterator_base0@2@@std@@@?$allocator_traits@U?$_Wrap_alloc@V?$allocator@V?$_List_unchecked_const_iterator@V?$_List_val@U?$_List_simple_types@PAUHINSTANCE__@@@std@@@std@@U_Iterator_base0@2@@std@@@std@@@std@@@std@@SAXAAU?$_Wrap_alloc@V?$allocator@V?$_List_unchecked_const_iterator@V?$_List_val@U?$_List_simple_types@PAUHINSTANCE__@@@std@@@std@@U_Iterator_base0@2@@std@@@std@@@1@PAV?$_List_unchecked_const_iterator@V?$_List_val@U?$_List_simple_types@PAUHINSTANCE__@@@std@@@std@@U_Iterator_base0@2@@1@U?$integral_constant@_N$00@1@@Z ; std::allocator_traits<std::_Wrap_alloc<std::allocator<std::_List_unchecked_const_iterator<std::_List_val<std::_List_simple_types<HINSTANCE__ *> >,std::_Iterator_base0> > > >::_Destroy1<std::_List_unchecked_const_iterator<std::_List_val<std::_List_simple_types<HINSTANCE__ *> >,std::_Iterator_base0> >
PUBLIC	??$_Construct1@V?$_List_unchecked_const_iterator@V?$_List_val@U?$_List_simple_types@PAUHINSTANCE__@@@std@@@std@@U_Iterator_base0@2@@std@@ABV12@@?$allocator_traits@U?$_Wrap_alloc@V?$allocator@V?$_List_unchecked_const_iterator@V?$_List_val@U?$_List_simple_types@PAUHINSTANCE__@@@std@@@std@@U_Iterator_base0@2@@std@@@std@@@std@@@std@@SAXU?$integral_constant@_N$00@1@AAU?$_Wrap_alloc@V?$allocator@V?$_List_unchecked_const_iterator@V?$_List_val@U?$_List_simple_types@PAUHINSTANCE__@@@std@@@std@@U_Iterator_base0@2@@std@@@std@@@1@PAV?$_List_unchecked_const_iterator@V?$_List_val@U?$_List_simple_types@PAUHINSTANCE__@@@std@@@std@@U_Iterator_base0@2@@1@ABV41@@Z ; std::allocator_traits<std::_Wrap_alloc<std::allocator<std::_List_unchecked_const_iterator<std::_List_val<std::_List_simple_types<HINSTANCE__ *> >,std::_Iterator_base0> > > >::_Construct1<std::_List_unchecked_const_iterator<std::_List_val<std::_List_simple_types<HINSTANCE__ *> >,std::_Iterator_base0>,std::_List_unchecked_const_iterator<std::_List_val<std::_List_simple_types<HINSTANCE__ *> >,std::_Iterator_base0> const &>
PUBLIC	??$_Construct1@V?$_List_unchecked_const_iterator@V?$_List_val@U?$_List_simple_types@PAUHINSTANCE__@@@std@@@std@@U_Iterator_base0@2@@std@@V12@@?$allocator_traits@U?$_Wrap_alloc@V?$allocator@V?$_List_unchecked_const_iterator@V?$_List_val@U?$_List_simple_types@PAUHINSTANCE__@@@std@@@std@@U_Iterator_base0@2@@std@@@std@@@std@@@std@@SAXU?$integral_constant@_N$00@1@AAU?$_Wrap_alloc@V?$allocator@V?$_List_unchecked_const_iterator@V?$_List_val@U?$_List_simple_types@PAUHINSTANCE__@@@std@@@std@@U_Iterator_base0@2@@std@@@std@@@1@PAV?$_List_unchecked_const_iterator@V?$_List_val@U?$_List_simple_types@PAUHINSTANCE__@@@std@@@std@@U_Iterator_base0@2@@1@$$QAV41@@Z ; std::allocator_traits<std::_Wrap_alloc<std::allocator<std::_List_unchecked_const_iterator<std::_List_val<std::_List_simple_types<HINSTANCE__ *> >,std::_Iterator_base0> > > >::_Construct1<std::_List_unchecked_const_iterator<std::_List_val<std::_List_simple_types<HINSTANCE__ *> >,std::_Iterator_base0>,std::_List_unchecked_const_iterator<std::_List_val<std::_List_simple_types<HINSTANCE__ *> >,std::_Iterator_base0> >
PUBLIC	??$construct@PAU?$_List_node@PAUHINSTANCE__@@PAX@std@@AAPAU12@@?$allocator@U?$_List_node@PAUHINSTANCE__@@PAX@std@@@std@@QAEXPAPAU?$_List_node@PAUHINSTANCE__@@PAX@1@AAPAU21@@Z ; std::allocator<std::_List_node<HINSTANCE__ *,void *> >::construct<std::_List_node<HINSTANCE__ *,void *> *,std::_List_node<HINSTANCE__ *,void *> * &>
PUBLIC	??$_Buynode@ABQAUHINSTANCE__@@@?$_List_buy@PAUHINSTANCE__@@V?$allocator@PAUHINSTANCE__@@@std@@@std@@QAEPAU?$_List_node@PAUHINSTANCE__@@PAX@1@PAU21@0ABQAUHINSTANCE__@@@Z ; std::_List_buy<HINSTANCE__ *,std::allocator<HINSTANCE__ *> >::_Buynode<HINSTANCE__ * const &>
PUBLIC	??$construct@PAUHINSTANCE__@@ABQAU1@@?$_Wrap_alloc@V?$allocator@U?$_List_node@PAUHINSTANCE__@@PAX@std@@@std@@@std@@QAEXPAPAUHINSTANCE__@@ABQAU2@@Z ; std::_Wrap_alloc<std::allocator<std::_List_node<HINSTANCE__ *,void *> > >::construct<HINSTANCE__ *,HINSTANCE__ * const &>
PUBLIC	??$construct@PAUHINSTANCE__@@ABQAU1@@?$allocator_traits@V?$allocator@U?$_List_node@PAUHINSTANCE__@@PAX@std@@@std@@@std@@SAXAAV?$allocator@U?$_List_node@PAUHINSTANCE__@@PAX@std@@@1@PAPAUHINSTANCE__@@ABQAU3@@Z ; std::allocator_traits<std::allocator<std::_List_node<HINSTANCE__ *,void *> > >::construct<HINSTANCE__ *,HINSTANCE__ * const &>
PUBLIC	??$construct@PAUHINSTANCE__@@ABQAU1@@?$allocator@U?$_List_node@PAUHINSTANCE__@@PAX@std@@@std@@QAEXPAPAUHINSTANCE__@@ABQAU2@@Z ; std::allocator<std::_List_node<HINSTANCE__ *,void *> >::construct<HINSTANCE__ *,HINSTANCE__ * const &>
PUBLIC	??_C@_11LOCGONAA@?$AA?$AA@			; `string'
PUBLIC	?xinput_ctx@@3USK_XInputContext@@A		; xinput_ctx
PUBLIC	?locks@?1??preventHapticRecursion@SK_XInputContext@@SA_NK_N@Z@4RCKC ; `SK_XInputContext::preventHapticRecursion'::`2'::locks
PUBLIC	?warned@?8??preventHapticRecursion@SK_XInputContext@@SA_NK_N@Z@4RCKC ; `SK_XInputContext::preventHapticRecursion'::`9'::warned
PUBLIC	??_C@_1LA@IFOHNDHA@?$AA?$FL?$AA?5?$AA?5?$AA?5?$AAI?$AAn?$AAp?$AAu?$AAt?$AA?5?$AA?5?$AA?$FN?$AA?5?$AAW?$AAA?$AAR?$AAN?$AAI?$AAN?$AAG?$AA?3?$AA?5?$AAR?$AAe?$AAc?$AAu?$AAr?$AAs?$AAi?$AAv?$AAe?$AA?5@ ; `string'
PUBLIC	??_C@_1MO@LNOCMNED@?$AAP?$AAr?$AAo?$AAb?$AAl?$AAe?$AAm?$AAa?$AAt?$AAi?$AAc?$AA?5?$AAX?$AAI?$AAn?$AAp?$AAu?$AAt?$AA?5?$AAs?$AAo?$AAf?$AAt?$AAw?$AAa?$AAr?$AAe?$AA?5?$AAd?$AAe?$AAt?$AAe@ ; `string'
PUBLIC	??_C@_0BD@OLBABOEK@vector?$DMT?$DO?5too?5long?$AA@ ; `string'
PUBLIC	??_C@_0BB@MOGOBHAF@list?$DMT?$DO?5too?5long?$AA@ ; `string'
PUBLIC	__real@3f7fff58
PUBLIC	__real@477fff00
PUBLIC	__xmm@41f00000000000000000000000000000
EXTRN	??_M@YGXPAXIIP6EX0@Z@Z:PROC			; `eh vector destructor iterator'
EXTRN	??2@YAPAXI@Z:PROC				; operator new
EXTRN	??3@YAXPAX@Z:PROC				; operator delete
EXTRN	??3@YAXPAXI@Z:PROC				; operator delete
EXTRN	_atexit:PROC
EXTRN	___std_terminate:PROC
EXTRN	__imp___invalid_parameter_noinfo_noreturn:PROC
EXTRN	__imp__EnterCriticalSection@4:PROC
EXTRN	__imp__LeaveCriticalSection@4:PROC
EXTRN	__imp__InitializeCriticalSectionAndSpinCount@8:PROC
EXTRN	__imp__DeleteCriticalSection@4:PROC
EXTRN	__imp__GetModuleHandleW@4:PROC
EXTRN	__imp__GetProcAddress@8:PROC
EXTRN	__imp__timeGetTime@0:PROC
EXTRN	?SK_ImGui_WantGamepadCapture@@YA_NXZ:PROC	; SK_ImGui_WantGamepadCapture
EXTRN	?SK_XInput_Holding@@YA_NK@Z:PROC		; SK_XInput_Holding
EXTRN	?SK_XInput_PlaceHold@@YAKKKPAU_XINPUT_STATE@@@Z:PROC ; SK_XInput_PlaceHold
EXTRN	?SK_XInput_PlaceHoldEx@@YAKKKPAU_XINPUT_STATE_EX@@@Z:PROC ; SK_XInput_PlaceHoldEx
EXTRN	?SK_XInput_PlaceHoldCaps@@YAKKKKPAU_XINPUT_CAPABILITIES@@@Z:PROC ; SK_XInput_PlaceHoldCaps
EXTRN	?SK_XInput_PlaceHoldBattery@@YAKKKEPAU_XINPUT_BATTERY_INFORMATION@@@Z:PROC ; SK_XInput_PlaceHoldBattery
EXTRN	?SK_XInput_PlaceHoldSet@@YAKKKPAU_XINPUT_VIBRATION@@@Z:PROC ; SK_XInput_PlaceHoldSet
EXTRN	?SK_XInput_PacketJournalize@@YAXKKPAU_XINPUT_STATE@@@Z:PROC ; SK_XInput_PacketJournalize
EXTRN	__imp_?_Xbad_alloc@std@@YAXXZ:PROC
EXTRN	__imp_?_Xlength_error@std@@YAXPBD@Z:PROC
EXTRN	?Log@iSK_Logger@@UAAXQB_WZZ:PROC		; iSK_Logger::Log
EXTRN	_MH_RemoveHook@4:PROC
EXTRN	_MH_EnableHook@4:PROC
EXTRN	_MH_ApplyQueued@0:PROC
EXTRN	?SK_CreateDLLHook2@@YG?AW4MH_STATUS@@PB_WPBDPAXPAPAX3@Z:PROC ; SK_CreateDLLHook2
EXTRN	?SK_ApplyQueuedHooks@@YG?AW4MH_STATUS@@XZ:PROC	; SK_ApplyQueuedHooks
EXTRN	?SK_GetCallingDLL@@YAPAUHINSTANCE__@@PAX@Z:PROC	; SK_GetCallingDLL
EXTRN	?SK_GetProcAddress@@YAPAXPB_WPBD@Z:PROC		; SK_GetProcAddress
EXTRN	?SK_TestImports@@YGXPAUHINSTANCE__@@PAUsk_import_test_s@@H@Z:PROC ; SK_TestImports
EXTRN	?SK_ImGui_Warning@@YAXPB_W@Z:PROC		; SK_ImGui_Warning
EXTRN	?SK_ImGui_FilterXInput@@YA_NKPAU_XINPUT_STATE@@@Z:PROC ; SK_ImGui_FilterXInput
EXTRN	__CxxThrowException@8:PROC
EXTRN	___CxxFrameHandler3:PROC
EXTRN	?SK_XInput_Backend@@3Usk_input_api_context_s@@A:BYTE ; SK_XInput_Backend
EXTRN	?dll_log@@3UiSK_Logger@@A:BYTE			; dll_log
EXTRN	?config@@3Usk_config_t@@A:BYTE			; config
EXTRN	?LoadLibraryW_Original@@3P6GPAUHINSTANCE__@@PB_W@ZA:DWORD ; LoadLibraryW_Original
EXTRN	__fltused:DWORD
EXTRN	__tls_array:DWORD
EXTRN	__tls_index:DWORD
_BSS	SEGMENT
?xinput_ctx@@3USK_XInputContext@@A DB 02b8H DUP (?)	; xinput_ctx
_BSS	ENDS
;	COMDAT ?locks@?1??preventHapticRecursion@SK_XInputContext@@SA_NK_N@Z@4RCKC
_BSS	SEGMENT
?locks@?1??preventHapticRecursion@SK_XInputContext@@SA_NK_N@Z@4RCKC DD 04H DUP (?) ; `SK_XInputContext::preventHapticRecursion'::`2'::locks
_BSS	ENDS
;	COMDAT ?warned@?8??preventHapticRecursion@SK_XInputContext@@SA_NK_N@Z@4RCKC
_BSS	SEGMENT
?warned@?8??preventHapticRecursion@SK_XInputContext@@SA_NK_N@Z@4RCKC DD 04H DUP (?) ; `SK_XInputContext::preventHapticRecursion'::`9'::warned
_BSS	ENDS
;	COMDAT ?warned_modules@?7??SK_XInput_EstablishPrimaryHook@@YAXPAUHINSTANCE__@@PAUinstance_s@SK_XInputContext@@@Z@4V?$unordered_set@PAUHINSTANCE__@@U?$hash@PAUHINSTANCE__@@@std@@U?$equal_to@PAUHINSTANCE__@@@3@V?$allocator@PAUHINSTANCE__@@@3@@std@@A
_BSS	SEGMENT
?warned_modules@?7??SK_XInput_EstablishPrimaryHook@@YAXPAUHINSTANCE__@@PAUinstance_s@SK_XInputContext@@@Z@4V?$unordered_set@PAUHINSTANCE__@@U?$hash@PAUHINSTANCE__@@@std@@U?$equal_to@PAUHINSTANCE__@@@3@V?$allocator@PAUHINSTANCE__@@@3@@std@@A DB 020H DUP (?) ; `SK_XInput_EstablishPrimaryHook'::`8'::warned_modules
_BSS	ENDS
;	COMDAT ?called@?2??XInputGetState1_3_Detour@@YGKKPAU_XINPUT_STATE@@@Z@4_NA
_BSS	SEGMENT
?called@?2??XInputGetState1_3_Detour@@YGKKPAU_XINPUT_STATE@@@Z@4_NA DB 01H DUP (?) ; `XInputGetState1_3_Detour'::`3'::called
_BSS	ENDS
;	COMDAT ?called@?2??XInputGetStateEx1_3_Detour@@YGKKPAU_XINPUT_STATE_EX@@@Z@4_NA
_BSS	SEGMENT
?called@?2??XInputGetStateEx1_3_Detour@@YGKKPAU_XINPUT_STATE_EX@@@Z@4_NA DB 01H DUP (?) ; `XInputGetStateEx1_3_Detour'::`3'::called
_BSS	ENDS
;	COMDAT ?called@?2??XInputGetCapabilities1_3_Detour@@YGKKKPAU_XINPUT_CAPABILITIES@@@Z@4_NA
_BSS	SEGMENT
?called@?2??XInputGetCapabilities1_3_Detour@@YGKKKPAU_XINPUT_CAPABILITIES@@@Z@4_NA DB 01H DUP (?) ; `XInputGetCapabilities1_3_Detour'::`3'::called
_BSS	ENDS
;	COMDAT ?called@?2??XInputGetBatteryInformation1_3_Detour@@YGKKEPAU_XINPUT_BATTERY_INFORMATION@@@Z@4_NA
_BSS	SEGMENT
?called@?2??XInputGetBatteryInformation1_3_Detour@@YGKKEPAU_XINPUT_BATTERY_INFORMATION@@@Z@4_NA DB 01H DUP (?) ; `XInputGetBatteryInformation1_3_Detour'::`3'::called
_BSS	ENDS
;	COMDAT ?called@?4??XInputSetState1_3_Detour@@YGKKPAU_XINPUT_VIBRATION@@@Z@4_NA
_BSS	SEGMENT
?called@?4??XInputSetState1_3_Detour@@YGKKPAU_XINPUT_VIBRATION@@@Z@4_NA DB 01H DUP (?) ; `XInputSetState1_3_Detour'::`5'::called
_BSS	ENDS
;	COMDAT ?called@?2??XInputGetState1_4_Detour@@YGKKPAU_XINPUT_STATE@@@Z@4_NA
_BSS	SEGMENT
?called@?2??XInputGetState1_4_Detour@@YGKKPAU_XINPUT_STATE@@@Z@4_NA DB 01H DUP (?) ; `XInputGetState1_4_Detour'::`3'::called
_BSS	ENDS
;	COMDAT ?called@?2??XInputGetStateEx1_4_Detour@@YGKKPAU_XINPUT_STATE_EX@@@Z@4_NA
_BSS	SEGMENT
?called@?2??XInputGetStateEx1_4_Detour@@YGKKPAU_XINPUT_STATE_EX@@@Z@4_NA DB 01H DUP (?) ; `XInputGetStateEx1_4_Detour'::`3'::called
_BSS	ENDS
;	COMDAT ?called@?2??XInputGetCapabilities1_4_Detour@@YGKKKPAU_XINPUT_CAPABILITIES@@@Z@4_NA
_BSS	SEGMENT
?called@?2??XInputGetCapabilities1_4_Detour@@YGKKKPAU_XINPUT_CAPABILITIES@@@Z@4_NA DB 01H DUP (?) ; `XInputGetCapabilities1_4_Detour'::`3'::called
_BSS	ENDS
;	COMDAT ?called@?2??XInputGetBatteryInformation1_4_Detour@@YGKKEPAU_XINPUT_BATTERY_INFORMATION@@@Z@4_NA
_BSS	SEGMENT
?called@?2??XInputGetBatteryInformation1_4_Detour@@YGKKEPAU_XINPUT_BATTERY_INFORMATION@@@Z@4_NA DB 01H DUP (?) ; `XInputGetBatteryInformation1_4_Detour'::`3'::called
_BSS	ENDS
;	COMDAT ?called@?4??XInputSetState1_4_Detour@@YGKKPAU_XINPUT_VIBRATION@@@Z@4_NA
_BSS	SEGMENT
?called@?4??XInputSetState1_4_Detour@@YGKKPAU_XINPUT_VIBRATION@@@Z@4_NA DB 01H DUP (?) ; `XInputSetState1_4_Detour'::`5'::called
_BSS	ENDS
;	COMDAT ?called@?2??XInputGetState9_1_0_Detour@@YGKKPAU_XINPUT_STATE@@@Z@4_NA
_BSS	SEGMENT
?called@?2??XInputGetState9_1_0_Detour@@YGKKPAU_XINPUT_STATE@@@Z@4_NA DB 01H DUP (?) ; `XInputGetState9_1_0_Detour'::`3'::called
_BSS	ENDS
;	COMDAT ?called@?2??XInputGetCapabilities9_1_0_Detour@@YGKKKPAU_XINPUT_CAPABILITIES@@@Z@4_NA
_BSS	SEGMENT
?called@?2??XInputGetCapabilities9_1_0_Detour@@YGKKKPAU_XINPUT_CAPABILITIES@@@Z@4_NA DB 01H DUP (?) ; `XInputGetCapabilities9_1_0_Detour'::`3'::called
_BSS	ENDS
;	COMDAT ?called@?4??XInputSetState9_1_0_Detour@@YGKKPAU_XINPUT_VIBRATION@@@Z@4_NA
_BSS	SEGMENT
?called@?4??XInputSetState9_1_0_Detour@@YGKKPAU_XINPUT_VIBRATION@@@Z@4_NA DB 01H DUP (?) ; `XInputSetState9_1_0_Detour'::`5'::called
_BSS	ENDS
;	COMDAT ?hooked@?1??SK_Input_HookXInput1_4@@YAXXZ@4JC
_BSS	SEGMENT
?hooked@?1??SK_Input_HookXInput1_4@@YAXXZ@4JC DD 01H DUP (?) ; `SK_Input_HookXInput1_4'::`2'::hooked
_BSS	ENDS
;	COMDAT ?hooked@?1??SK_Input_HookXInput1_3@@YAXXZ@4JC
_BSS	SEGMENT
?hooked@?1??SK_Input_HookXInput1_3@@YAXXZ@4JC DD 01H DUP (?) ; `SK_Input_HookXInput1_3'::`2'::hooked
_BSS	ENDS
;	COMDAT ?hooked@?1??SK_Input_HookXInput9_1_0@@YAXXZ@4JC
_BSS	SEGMENT
?hooked@?1??SK_Input_HookXInput9_1_0@@YAXXZ@4JC DD 01H DUP (?) ; `SK_Input_HookXInput9_1_0'::`2'::hooked
_BSS	ENDS
;	COMDAT ?tried_to_hook@?6??SK_XInput_PollController@@YA_NHPAU_XINPUT_STATE@@@Z@4_NA
_BSS	SEGMENT
?tried_to_hook@?6??SK_XInput_PollController@@YA_NHPAU_XINPUT_STATE@@@Z@4_NA DB 01H DUP (?) ; `SK_XInput_PollController'::`7'::tried_to_hook
_BSS	ENDS
;	COMDAT ?last_poll@?1??SK_XInput_PollController@@YA_NHPAU_XINPUT_STATE@@@Z@4PAKA
_BSS	SEGMENT
?last_poll@?1??SK_XInput_PollController@@YA_NHPAU_XINPUT_STATE@@@Z@4PAKA DD 04H DUP (?) ; `SK_XInput_PollController'::`2'::last_poll
_BSS	ENDS
CRT$XCU	SEGMENT
?xinput_ctx$initializer$@@3P6AXXZA DD FLAT:??__Exinput_ctx@@YAXXZ ; xinput_ctx$initializer$
CRT$XCU	ENDS
;	COMDAT __xmm@41f00000000000000000000000000000
CONST	SEGMENT
__xmm@41f00000000000000000000000000000 DB 00H, 00H, 00H, 00H, 00H, 00H, 00H
	DB	00H, 00H, 00H, 00H, 00H, 00H, 00H, 0f0H, 'A'
CONST	ENDS
;	COMDAT __real@477fff00
CONST	SEGMENT
__real@477fff00 DD 0477fff00r			; 65535
CONST	ENDS
;	COMDAT __real@3f7fff58
CONST	SEGMENT
__real@3f7fff58 DD 03f7fff58r			; 0.99999
CONST	ENDS
;	COMDAT ??_C@_0BB@MOGOBHAF@list?$DMT?$DO?5too?5long?$AA@
CONST	SEGMENT
??_C@_0BB@MOGOBHAF@list?$DMT?$DO?5too?5long?$AA@ DB 'list<T> too long', 00H ; `string'
CONST	ENDS
;	COMDAT ??_C@_0BD@OLBABOEK@vector?$DMT?$DO?5too?5long?$AA@
CONST	SEGMENT
??_C@_0BD@OLBABOEK@vector?$DMT?$DO?5too?5long?$AA@ DB 'vector<T> too long'
	DB	00H						; `string'
CONST	ENDS
;	COMDAT ?tests@?6??SK_Input_PreHookXInput@@YAXXZ@4PAUsk_import_test_s@@A
_DATA	SEGMENT
?tests@?6??SK_Input_PreHookXInput@@YAXXZ@4PAUsk_import_test_s@@A DD FLAT:$SG132913 ; `SK_Input_PreHookXInput'::`7'::tests
	DB	00H
	ORG $+3
	DD	FLAT:$SG132914
	DB	00H
	ORG $+3
	DD	FLAT:$SG132915
	DB	00H
	ORG $+3
_DATA	ENDS
;	COMDAT ?dwRet@?1??SK_XInput_PollController@@YA_NHPAU_XINPUT_STATE@@@Z@4PAKA
_DATA	SEGMENT
?dwRet@?1??SK_XInput_PollController@@YA_NHPAU_XINPUT_STATE@@@Z@4PAKA DD 048fH ; `SK_XInput_PollController'::`2'::dwRet
	DD	048fH
	DD	048fH
	DD	048fH
_DATA	ENDS
;	COMDAT ?first_frame@?1??SK_XInput_PollController@@YA_NHPAU_XINPUT_STATE@@@Z@4_NA
_DATA	SEGMENT
?first_frame@?1??SK_XInput_PollController@@YA_NHPAU_XINPUT_STATE@@@Z@4_NA DB 01H ; `SK_XInput_PollController'::`2'::first_frame
_DATA	ENDS
;	COMDAT ??_C@_1MO@LNOCMNED@?$AAP?$AAr?$AAo?$AAb?$AAl?$AAe?$AAm?$AAa?$AAt?$AAi?$AAc?$AA?5?$AAX?$AAI?$AAn?$AAp?$AAu?$AAt?$AA?5?$AAs?$AAo?$AAf?$AAt?$AAw?$AAa?$AAr?$AAe?$AA?5?$AAd?$AAe?$AAt?$AAe@
CONST	SEGMENT
??_C@_1MO@LNOCMNED@?$AAP?$AAr?$AAo?$AAb?$AAl?$AAe?$AAm?$AAa?$AAt?$AAi?$AAc?$AA?5?$AAX?$AAI?$AAn?$AAp?$AAu?$AAt?$AA?5?$AAs?$AAo?$AAf?$AAt?$AAw?$AAa?$AAr?$AAe?$AA?5?$AAd?$AAe?$AAt?$AAe@ DB 'P'
	DB	00H, 'r', 00H, 'o', 00H, 'b', 00H, 'l', 00H, 'e', 00H, 'm', 00H
	DB	'a', 00H, 't', 00H, 'i', 00H, 'c', 00H, ' ', 00H, 'X', 00H, 'I'
	DB	00H, 'n', 00H, 'p', 00H, 'u', 00H, 't', 00H, ' ', 00H, 's', 00H
	DB	'o', 00H, 'f', 00H, 't', 00H, 'w', 00H, 'a', 00H, 'r', 00H, 'e'
	DB	00H, ' ', 00H, 'd', 00H, 'e', 00H, 't', 00H, 'e', 00H, 'c', 00H
	DB	't', 00H, 'e', 00H, 'd', 00H, ' ', 00H, '(', 00H, 'i', 00H, 'n'
	DB	00H, 'f', 00H, 'i', 00H, 'n', 00H, 'i', 00H, 't', 00H, 'e', 00H
	DB	' ', 00H, 'h', 00H, 'a', 00H, 'p', 00H, 't', 00H, 'i', 00H, 'c'
	DB	00H, ' ', 00H, 'f', 00H, 'e', 00H, 'e', 00H, 'd', 00H, 'b', 00H
	DB	'a', 00H, 'c', 00H, 'k', 00H, ' ', 00H, 'l', 00H, 'o', 00H, 'o'
	DB	00H, 'p', 00H, ')', 00H, ',', 00H, ' ', 00H, 'p', 00H, 'l', 00H
	DB	'e', 00H, 'a', 00H, 's', 00H, 'e', 00H, ' ', 00H, 'r', 00H, 'e'
	DB	00H, 's', 00H, 't', 00H, 'a', 00H, 'r', 00H, 't', 00H, ' ', 00H
	DB	't', 00H, 'h', 00H, 'e', 00H, ' ', 00H, 'S', 00H, 't', 00H, 'e'
	DB	00H, 'a', 00H, 'm', 00H, ' ', 00H, 'c', 00H, 'l', 00H, 'i', 00H
	DB	'e', 00H, 'n', 00H, 't', 00H, '.', 00H, 00H, 00H ; `string'
CONST	ENDS
;	COMDAT ??_C@_1LA@IFOHNDHA@?$AA?$FL?$AA?5?$AA?5?$AA?5?$AAI?$AAn?$AAp?$AAu?$AAt?$AA?5?$AA?5?$AA?$FN?$AA?5?$AAW?$AAA?$AAR?$AAN?$AAI?$AAN?$AAG?$AA?3?$AA?5?$AAR?$AAe?$AAc?$AAu?$AAr?$AAs?$AAi?$AAv?$AAe?$AA?5@
CONST	SEGMENT
??_C@_1LA@IFOHNDHA@?$AA?$FL?$AA?5?$AA?5?$AA?5?$AAI?$AAn?$AAp?$AAu?$AAt?$AA?5?$AA?5?$AA?$FN?$AA?5?$AAW?$AAA?$AAR?$AAN?$AAI?$AAN?$AAG?$AA?3?$AA?5?$AAR?$AAe?$AAc?$AAu?$AAr?$AAs?$AAi?$AAv?$AAe?$AA?5@ DB '['
	DB	00H, ' ', 00H, ' ', 00H, ' ', 00H, 'I', 00H, 'n', 00H, 'p', 00H
	DB	'u', 00H, 't', 00H, ' ', 00H, ' ', 00H, ']', 00H, ' ', 00H, 'W'
	DB	00H, 'A', 00H, 'R', 00H, 'N', 00H, 'I', 00H, 'N', 00H, 'G', 00H
	DB	':', 00H, ' ', 00H, 'R', 00H, 'e', 00H, 'c', 00H, 'u', 00H, 'r'
	DB	00H, 's', 00H, 'i', 00H, 'v', 00H, 'e', 00H, ' ', 00H, 'h', 00H
	DB	'a', 00H, 'p', 00H, 't', 00H, 'i', 00H, 'c', 00H, ' ', 00H, 'f'
	DB	00H, 'e', 00H, 'e', 00H, 'd', 00H, 'b', 00H, 'a', 00H, 'c', 00H
	DB	'k', 00H, ' ', 00H, 'l', 00H, 'o', 00H, 'o', 00H, 'p', 00H, ' '
	DB	00H, 'd', 00H, 'e', 00H, 't', 00H, 'e', 00H, 'c', 00H, 't', 00H
	DB	'e', 00H, 'd', 00H, ' ', 00H, 'o', 00H, 'n', 00H, ' ', 00H, 'X'
	DB	00H, 'I', 00H, 'n', 00H, 'p', 00H, 'u', 00H, 't', 00H, ' ', 00H
	DB	'c', 00H, 'o', 00H, 'n', 00H, 't', 00H, 'r', 00H, 'o', 00H, 'l'
	DB	00H, 'l', 00H, 'e', 00H, 'r', 00H, ' ', 00H, '%', 00H, 'l', 00H
	DB	'u', 00H, '!', 00H, 00H, 00H			; `string'
CONST	ENDS
;	COMDAT ??_C@_11LOCGONAA@?$AA?$AA@
CONST	SEGMENT
??_C@_11LOCGONAA@?$AA?$AA@ DB 00H, 00H			; `string'
CONST	ENDS
;	COMDAT xdata$x
xdata$x	SEGMENT
__catchsym$??$_Insert@ABQAUHINSTANCE__@@V?$_List_unchecked_const_iterator@V?$_List_val@U?$_List_simple_types@PAUHINSTANCE__@@@std@@@std@@U_Iterator_base0@2@@std@@@?$_Hash@V?$_Uset_traits@PAUHINSTANCE__@@V?$_Uhash_compare@PAUHINSTANCE__@@U?$hash@PAUHINSTANCE__@@@std@@U?$equal_to@PAUHINSTANCE__@@@3@@std@@V?$allocator@PAUHINSTANCE__@@@3@$0A@@std@@@std@@IAE?AU?$pair@V?$_List_const_iterator@V?$_List_val@U?$_List_simple_types@PAUHINSTANCE__@@@std@@@std@@@std@@_N@1@ABQAUHINSTANCE__@@V?$_List_unchecked_const_iterator@V?$_List_val@U?$_List_simple_types@PAUHINSTANCE__@@@std@@@std@@U_Iterator_base0@2@@1@@Z$91 DD 040H
	DD	00H
	DD	00H
	DD	FLAT:__catch$??$_Insert@ABQAUHINSTANCE__@@V?$_List_unchecked_const_iterator@V?$_List_val@U?$_List_simple_types@PAUHINSTANCE__@@@std@@@std@@U_Iterator_base0@2@@std@@@?$_Hash@V?$_Uset_traits@PAUHINSTANCE__@@V?$_Uhash_compare@PAUHINSTANCE__@@U?$hash@PAUHINSTANCE__@@@std@@U?$equal_to@PAUHINSTANCE__@@@3@@std@@V?$allocator@PAUHINSTANCE__@@@3@$0A@@std@@@std@@IAE?AU?$pair@V?$_List_const_iterator@V?$_List_val@U?$_List_simple_types@PAUHINSTANCE__@@@std@@@std@@@std@@_N@1@ABQAUHINSTANCE__@@V?$_List_unchecked_const_iterator@V?$_List_val@U?$_List_simple_types@PAUHINSTANCE__@@@std@@@std@@U_Iterator_base0@2@@1@@Z$2
__tryblocktable$??$_Insert@ABQAUHINSTANCE__@@V?$_List_unchecked_const_iterator@V?$_List_val@U?$_List_simple_types@PAUHINSTANCE__@@@std@@@std@@U_Iterator_base0@2@@std@@@?$_Hash@V?$_Uset_traits@PAUHINSTANCE__@@V?$_Uhash_compare@PAUHINSTANCE__@@U?$hash@PAUHINSTANCE__@@@std@@U?$equal_to@PAUHINSTANCE__@@@3@@std@@V?$allocator@PAUHINSTANCE__@@@3@$0A@@std@@@std@@IAE?AU?$pair@V?$_List_const_iterator@V?$_List_val@U?$_List_simple_types@PAUHINSTANCE__@@@std@@@std@@@std@@_N@1@ABQAUHINSTANCE__@@V?$_List_unchecked_const_iterator@V?$_List_val@U?$_List_simple_types@PAUHINSTANCE__@@@std@@@std@@U_Iterator_base0@2@@1@@Z DD 02H
	DD	02H
	DD	03H
	DD	01H
	DD	FLAT:__catchsym$??$_Insert@ABQAUHINSTANCE__@@V?$_List_unchecked_const_iterator@V?$_List_val@U?$_List_simple_types@PAUHINSTANCE__@@@std@@@std@@U_Iterator_base0@2@@std@@@?$_Hash@V?$_Uset_traits@PAUHINSTANCE__@@V?$_Uhash_compare@PAUHINSTANCE__@@U?$hash@PAUHINSTANCE__@@@std@@U?$equal_to@PAUHINSTANCE__@@@3@@std@@V?$allocator@PAUHINSTANCE__@@@3@$0A@@std@@@std@@IAE?AU?$pair@V?$_List_const_iterator@V?$_List_val@U?$_List_simple_types@PAUHINSTANCE__@@@std@@@std@@@std@@_N@1@ABQAUHINSTANCE__@@V?$_List_unchecked_const_iterator@V?$_List_val@U?$_List_simple_types@PAUHINSTANCE__@@@std@@@std@@U_Iterator_base0@2@@1@@Z$91
__unwindtable$??$_Insert@ABQAUHINSTANCE__@@V?$_List_unchecked_const_iterator@V?$_List_val@U?$_List_simple_types@PAUHINSTANCE__@@@std@@@std@@U_Iterator_base0@2@@std@@@?$_Hash@V?$_Uset_traits@PAUHINSTANCE__@@V?$_Uhash_compare@PAUHINSTANCE__@@U?$hash@PAUHINSTANCE__@@@std@@U?$equal_to@PAUHINSTANCE__@@@3@@std@@V?$allocator@PAUHINSTANCE__@@@3@$0A@@std@@@std@@IAE?AU?$pair@V?$_List_const_iterator@V?$_List_val@U?$_List_simple_types@PAUHINSTANCE__@@@std@@@std@@@std@@_N@1@ABQAUHINSTANCE__@@V?$_List_unchecked_const_iterator@V?$_List_val@U?$_List_simple_types@PAUHINSTANCE__@@@std@@@std@@U_Iterator_base0@2@@1@@Z DD 0ffffffffH
	DD	00H
	DD	0ffffffffH
	DD	00H
	DD	0ffffffffH
	DD	00H
	DD	0ffffffffH
	DD	00H
__ehfuncinfo$??$_Insert@ABQAUHINSTANCE__@@V?$_List_unchecked_const_iterator@V?$_List_val@U?$_List_simple_types@PAUHINSTANCE__@@@std@@@std@@U_Iterator_base0@2@@std@@@?$_Hash@V?$_Uset_traits@PAUHINSTANCE__@@V?$_Uhash_compare@PAUHINSTANCE__@@U?$hash@PAUHINSTANCE__@@@std@@U?$equal_to@PAUHINSTANCE__@@@3@@std@@V?$allocator@PAUHINSTANCE__@@@3@$0A@@std@@@std@@IAE?AU?$pair@V?$_List_const_iterator@V?$_List_val@U?$_List_simple_types@PAUHINSTANCE__@@@std@@@std@@@std@@_N@1@ABQAUHINSTANCE__@@V?$_List_unchecked_const_iterator@V?$_List_val@U?$_List_simple_types@PAUHINSTANCE__@@@std@@@std@@U_Iterator_base0@2@@1@@Z DD 019930522H
	DD	04H
	DD	FLAT:__unwindtable$??$_Insert@ABQAUHINSTANCE__@@V?$_List_unchecked_const_iterator@V?$_List_val@U?$_List_simple_types@PAUHINSTANCE__@@@std@@@std@@U_Iterator_base0@2@@std@@@?$_Hash@V?$_Uset_traits@PAUHINSTANCE__@@V?$_Uhash_compare@PAUHINSTANCE__@@U?$hash@PAUHINSTANCE__@@@std@@U?$equal_to@PAUHINSTANCE__@@@3@@std@@V?$allocator@PAUHINSTANCE__@@@3@$0A@@std@@@std@@IAE?AU?$pair@V?$_List_const_iterator@V?$_List_val@U?$_List_simple_types@PAUHINSTANCE__@@@std@@@std@@@std@@_N@1@ABQAUHINSTANCE__@@V?$_List_unchecked_const_iterator@V?$_List_val@U?$_List_simple_types@PAUHINSTANCE__@@@std@@@std@@U_Iterator_base0@2@@1@@Z
	DD	01H
	DD	FLAT:__tryblocktable$??$_Insert@ABQAUHINSTANCE__@@V?$_List_unchecked_const_iterator@V?$_List_val@U?$_List_simple_types@PAUHINSTANCE__@@@std@@@std@@U_Iterator_base0@2@@std@@@?$_Hash@V?$_Uset_traits@PAUHINSTANCE__@@V?$_Uhash_compare@PAUHINSTANCE__@@U?$hash@PAUHINSTANCE__@@@std@@U?$equal_to@PAUHINSTANCE__@@@3@@std@@V?$allocator@PAUHINSTANCE__@@@3@$0A@@std@@@std@@IAE?AU?$pair@V?$_List_const_iterator@V?$_List_val@U?$_List_simple_types@PAUHINSTANCE__@@@std@@@std@@@std@@_N@1@ABQAUHINSTANCE__@@V?$_List_unchecked_const_iterator@V?$_List_val@U?$_List_simple_types@PAUHINSTANCE__@@@std@@@std@@U_Iterator_base0@2@@1@@Z
	DD	2 DUP(00H)
	DD	00H
	DD	01H
xdata$x	ENDS
;	COMDAT xdata$x
xdata$x	SEGMENT
__catchsym$??$_Insert@ABQAUHINSTANCE__@@U_Nil@std@@@?$_Hash@V?$_Uset_traits@PAUHINSTANCE__@@V?$_Uhash_compare@PAUHINSTANCE__@@U?$hash@PAUHINSTANCE__@@@std@@U?$equal_to@PAUHINSTANCE__@@@3@@std@@V?$allocator@PAUHINSTANCE__@@@3@$0A@@std@@@std@@IAE?AU?$pair@V?$_List_const_iterator@V?$_List_val@U?$_List_simple_types@PAUHINSTANCE__@@@std@@@std@@@std@@_N@1@ABQAUHINSTANCE__@@U_Nil@1@@Z$96 DD 040H
	DD	00H
	DD	00H
	DD	FLAT:__catch$??$_Insert@ABQAUHINSTANCE__@@U_Nil@std@@@?$_Hash@V?$_Uset_traits@PAUHINSTANCE__@@V?$_Uhash_compare@PAUHINSTANCE__@@U?$hash@PAUHINSTANCE__@@@std@@U?$equal_to@PAUHINSTANCE__@@@3@@std@@V?$allocator@PAUHINSTANCE__@@@3@$0A@@std@@@std@@IAE?AU?$pair@V?$_List_const_iterator@V?$_List_val@U?$_List_simple_types@PAUHINSTANCE__@@@std@@@std@@@std@@_N@1@ABQAUHINSTANCE__@@U_Nil@1@@Z$2
__tryblocktable$??$_Insert@ABQAUHINSTANCE__@@U_Nil@std@@@?$_Hash@V?$_Uset_traits@PAUHINSTANCE__@@V?$_Uhash_compare@PAUHINSTANCE__@@U?$hash@PAUHINSTANCE__@@@std@@U?$equal_to@PAUHINSTANCE__@@@3@@std@@V?$allocator@PAUHINSTANCE__@@@3@$0A@@std@@@std@@IAE?AU?$pair@V?$_List_const_iterator@V?$_List_val@U?$_List_simple_types@PAUHINSTANCE__@@@std@@@std@@@std@@_N@1@ABQAUHINSTANCE__@@U_Nil@1@@Z DD 02H
	DD	02H
	DD	03H
	DD	01H
	DD	FLAT:__catchsym$??$_Insert@ABQAUHINSTANCE__@@U_Nil@std@@@?$_Hash@V?$_Uset_traits@PAUHINSTANCE__@@V?$_Uhash_compare@PAUHINSTANCE__@@U?$hash@PAUHINSTANCE__@@@std@@U?$equal_to@PAUHINSTANCE__@@@3@@std@@V?$allocator@PAUHINSTANCE__@@@3@$0A@@std@@@std@@IAE?AU?$pair@V?$_List_const_iterator@V?$_List_val@U?$_List_simple_types@PAUHINSTANCE__@@@std@@@std@@@std@@_N@1@ABQAUHINSTANCE__@@U_Nil@1@@Z$96
__unwindtable$??$_Insert@ABQAUHINSTANCE__@@U_Nil@std@@@?$_Hash@V?$_Uset_traits@PAUHINSTANCE__@@V?$_Uhash_compare@PAUHINSTANCE__@@U?$hash@PAUHINSTANCE__@@@std@@U?$equal_to@PAUHINSTANCE__@@@3@@std@@V?$allocator@PAUHINSTANCE__@@@3@$0A@@std@@@std@@IAE?AU?$pair@V?$_List_const_iterator@V?$_List_val@U?$_List_simple_types@PAUHINSTANCE__@@@std@@@std@@@std@@_N@1@ABQAUHINSTANCE__@@U_Nil@1@@Z DD 0ffffffffH
	DD	00H
	DD	0ffffffffH
	DD	00H
	DD	0ffffffffH
	DD	00H
	DD	0ffffffffH
	DD	00H
__ehfuncinfo$??$_Insert@ABQAUHINSTANCE__@@U_Nil@std@@@?$_Hash@V?$_Uset_traits@PAUHINSTANCE__@@V?$_Uhash_compare@PAUHINSTANCE__@@U?$hash@PAUHINSTANCE__@@@std@@U?$equal_to@PAUHINSTANCE__@@@3@@std@@V?$allocator@PAUHINSTANCE__@@@3@$0A@@std@@@std@@IAE?AU?$pair@V?$_List_const_iterator@V?$_List_val@U?$_List_simple_types@PAUHINSTANCE__@@@std@@@std@@@std@@_N@1@ABQAUHINSTANCE__@@U_Nil@1@@Z DD 019930522H
	DD	04H
	DD	FLAT:__unwindtable$??$_Insert@ABQAUHINSTANCE__@@U_Nil@std@@@?$_Hash@V?$_Uset_traits@PAUHINSTANCE__@@V?$_Uhash_compare@PAUHINSTANCE__@@U?$hash@PAUHINSTANCE__@@@std@@U?$equal_to@PAUHINSTANCE__@@@3@@std@@V?$allocator@PAUHINSTANCE__@@@3@$0A@@std@@@std@@IAE?AU?$pair@V?$_List_const_iterator@V?$_List_val@U?$_List_simple_types@PAUHINSTANCE__@@@std@@@std@@@std@@_N@1@ABQAUHINSTANCE__@@U_Nil@1@@Z
	DD	01H
	DD	FLAT:__tryblocktable$??$_Insert@ABQAUHINSTANCE__@@U_Nil@std@@@?$_Hash@V?$_Uset_traits@PAUHINSTANCE__@@V?$_Uhash_compare@PAUHINSTANCE__@@U?$hash@PAUHINSTANCE__@@@std@@U?$equal_to@PAUHINSTANCE__@@@3@@std@@V?$allocator@PAUHINSTANCE__@@@3@$0A@@std@@@std@@IAE?AU?$pair@V?$_List_const_iterator@V?$_List_val@U?$_List_simple_types@PAUHINSTANCE__@@@std@@@std@@@std@@_N@1@ABQAUHINSTANCE__@@U_Nil@1@@Z
	DD	2 DUP(00H)
	DD	00H
	DD	01H
xdata$x	ENDS
;	COMDAT xdata$x
xdata$x	SEGMENT
__catchsym$?_Reallocate_exactly@?$vector@V?$_List_unchecked_const_iterator@V?$_List_val@U?$_List_simple_types@PAUHINSTANCE__@@@std@@@std@@U_Iterator_base0@2@@std@@U?$_Wrap_alloc@V?$allocator@V?$_List_unchecked_const_iterator@V?$_List_val@U?$_List_simple_types@PAUHINSTANCE__@@@std@@@std@@U_Iterator_base0@2@@std@@@std@@@2@@std@@AAEXI@Z$49 DD 040H
	DD	00H
	DD	00H
	DD	FLAT:__catch$?_Reallocate_exactly@?$vector@V?$_List_unchecked_const_iterator@V?$_List_val@U?$_List_simple_types@PAUHINSTANCE__@@@std@@@std@@U_Iterator_base0@2@@std@@U?$_Wrap_alloc@V?$allocator@V?$_List_unchecked_const_iterator@V?$_List_val@U?$_List_simple_types@PAUHINSTANCE__@@@std@@@std@@U_Iterator_base0@2@@std@@@std@@@2@@std@@AAEXI@Z$0
__unwindtable$?_Reallocate_exactly@?$vector@V?$_List_unchecked_const_iterator@V?$_List_val@U?$_List_simple_types@PAUHINSTANCE__@@@std@@@std@@U_Iterator_base0@2@@std@@U?$_Wrap_alloc@V?$allocator@V?$_List_unchecked_const_iterator@V?$_List_val@U?$_List_simple_types@PAUHINSTANCE__@@@std@@@std@@U_Iterator_base0@2@@std@@@std@@@2@@std@@AAEXI@Z DD 0ffffffffH
	DD	00H
	DD	0ffffffffH
	DD	00H
__tryblocktable$?_Reallocate_exactly@?$vector@V?$_List_unchecked_const_iterator@V?$_List_val@U?$_List_simple_types@PAUHINSTANCE__@@@std@@@std@@U_Iterator_base0@2@@std@@U?$_Wrap_alloc@V?$allocator@V?$_List_unchecked_const_iterator@V?$_List_val@U?$_List_simple_types@PAUHINSTANCE__@@@std@@@std@@U_Iterator_base0@2@@std@@@std@@@2@@std@@AAEXI@Z DD 00H
	DD	00H
	DD	01H
	DD	01H
	DD	FLAT:__catchsym$?_Reallocate_exactly@?$vector@V?$_List_unchecked_const_iterator@V?$_List_val@U?$_List_simple_types@PAUHINSTANCE__@@@std@@@std@@U_Iterator_base0@2@@std@@U?$_Wrap_alloc@V?$allocator@V?$_List_unchecked_const_iterator@V?$_List_val@U?$_List_simple_types@PAUHINSTANCE__@@@std@@@std@@U_Iterator_base0@2@@std@@@std@@@2@@std@@AAEXI@Z$49
__ehfuncinfo$?_Reallocate_exactly@?$vector@V?$_List_unchecked_const_iterator@V?$_List_val@U?$_List_simple_types@PAUHINSTANCE__@@@std@@@std@@U_Iterator_base0@2@@std@@U?$_Wrap_alloc@V?$allocator@V?$_List_unchecked_const_iterator@V?$_List_val@U?$_List_simple_types@PAUHINSTANCE__@@@std@@@std@@U_Iterator_base0@2@@std@@@std@@@2@@std@@AAEXI@Z DD 019930522H
	DD	02H
	DD	FLAT:__unwindtable$?_Reallocate_exactly@?$vector@V?$_List_unchecked_const_iterator@V?$_List_val@U?$_List_simple_types@PAUHINSTANCE__@@@std@@@std@@U_Iterator_base0@2@@std@@U?$_Wrap_alloc@V?$allocator@V?$_List_unchecked_const_iterator@V?$_List_val@U?$_List_simple_types@PAUHINSTANCE__@@@std@@@std@@U_Iterator_base0@2@@std@@@std@@@2@@std@@AAEXI@Z
	DD	01H
	DD	FLAT:__tryblocktable$?_Reallocate_exactly@?$vector@V?$_List_unchecked_const_iterator@V?$_List_val@U?$_List_simple_types@PAUHINSTANCE__@@@std@@@std@@U_Iterator_base0@2@@std@@U?$_Wrap_alloc@V?$allocator@V?$_List_unchecked_const_iterator@V?$_List_val@U?$_List_simple_types@PAUHINSTANCE__@@@std@@@std@@U_Iterator_base0@2@@std@@@std@@@2@@std@@AAEXI@Z
	DD	2 DUP(00H)
	DD	00H
	DD	01H
xdata$x	ENDS
;	COMDAT xdata$x
xdata$x	SEGMENT
__unwindtable$??0?$_Hash@V?$_Uset_traits@PAUHINSTANCE__@@V?$_Uhash_compare@PAUHINSTANCE__@@U?$hash@PAUHINSTANCE__@@@std@@U?$equal_to@PAUHINSTANCE__@@@3@@std@@V?$allocator@PAUHINSTANCE__@@@3@$0A@@std@@@std@@QAE@ABV?$_Uhash_compare@PAUHINSTANCE__@@U?$hash@PAUHINSTANCE__@@@std@@U?$equal_to@PAUHINSTANCE__@@@3@@1@ABV?$allocator@PAUHINSTANCE__@@@1@@Z DD 0ffffffffH
	DD	FLAT:__unwindfunclet$??0?$_Hash@V?$_Uset_traits@PAUHINSTANCE__@@V?$_Uhash_compare@PAUHINSTANCE__@@U?$hash@PAUHINSTANCE__@@@std@@U?$equal_to@PAUHINSTANCE__@@@3@@std@@V?$allocator@PAUHINSTANCE__@@@3@$0A@@std@@@std@@QAE@ABV?$_Uhash_compare@PAUHINSTANCE__@@U?$hash@PAUHINSTANCE__@@@std@@U?$equal_to@PAUHINSTANCE__@@@3@@1@ABV?$allocator@PAUHINSTANCE__@@@1@@Z$0
	DD	00H
	DD	FLAT:__unwindfunclet$??0?$_Hash@V?$_Uset_traits@PAUHINSTANCE__@@V?$_Uhash_compare@PAUHINSTANCE__@@U?$hash@PAUHINSTANCE__@@@std@@U?$equal_to@PAUHINSTANCE__@@@3@@std@@V?$allocator@PAUHINSTANCE__@@@3@$0A@@std@@@std@@QAE@ABV?$_Uhash_compare@PAUHINSTANCE__@@U?$hash@PAUHINSTANCE__@@@std@@U?$equal_to@PAUHINSTANCE__@@@3@@1@ABV?$allocator@PAUHINSTANCE__@@@1@@Z$1
__ehfuncinfo$??0?$_Hash@V?$_Uset_traits@PAUHINSTANCE__@@V?$_Uhash_compare@PAUHINSTANCE__@@U?$hash@PAUHINSTANCE__@@@std@@U?$equal_to@PAUHINSTANCE__@@@3@@std@@V?$allocator@PAUHINSTANCE__@@@3@$0A@@std@@@std@@QAE@ABV?$_Uhash_compare@PAUHINSTANCE__@@U?$hash@PAUHINSTANCE__@@@std@@U?$equal_to@PAUHINSTANCE__@@@3@@1@ABV?$allocator@PAUHINSTANCE__@@@1@@Z DD 019930522H
	DD	02H
	DD	FLAT:__unwindtable$??0?$_Hash@V?$_Uset_traits@PAUHINSTANCE__@@V?$_Uhash_compare@PAUHINSTANCE__@@U?$hash@PAUHINSTANCE__@@@std@@U?$equal_to@PAUHINSTANCE__@@@3@@std@@V?$allocator@PAUHINSTANCE__@@@3@$0A@@std@@@std@@QAE@ABV?$_Uhash_compare@PAUHINSTANCE__@@U?$hash@PAUHINSTANCE__@@@std@@U?$equal_to@PAUHINSTANCE__@@@3@@1@ABV?$allocator@PAUHINSTANCE__@@@1@@Z
	DD	2 DUP(00H)
	DD	2 DUP(00H)
	DD	00H
	DD	01H
xdata$x	ENDS
;	COMDAT xdata$x
xdata$x	SEGMENT
__unwindtable$??__Fxinput_ctx@@YAXXZ DD 0ffffffffH
	DD	FLAT:___std_terminate
__ehfuncinfo$??__Fxinput_ctx@@YAXXZ DD 019930522H
	DD	01H
	DD	FLAT:__unwindtable$??__Fxinput_ctx@@YAXXZ
	DD	2 DUP(00H)
	DD	2 DUP(00H)
	DD	00H
	DD	01H
xdata$x	ENDS
;	COMDAT xdata$x
xdata$x	SEGMENT
__ehfuncinfo$??1SK_XInputContext@@QAE@XZ DD 019930522H
	DD	00H
	DD	00H
	DD	2 DUP(00H)
	DD	2 DUP(00H)
	DD	00H
	DD	05H
xdata$x	ENDS
;	COMDAT xdata$x
xdata$x	SEGMENT
__ehfuncinfo$??0SK_XInputContext@@QAE@XZ DD 019930522H
	DD	00H
	DD	00H
	DD	2 DUP(00H)
	DD	2 DUP(00H)
	DD	00H
	DD	05H
xdata$x	ENDS
xdata$x	SEGMENT
__unwindtable$?XInputSetState9_1_0_Detour@@YGKKPAU_XINPUT_VIBRATION@@@Z DD 0ffffffffH
	DD	FLAT:__unwindfunclet$?XInputSetState9_1_0_Detour@@YGKKPAU_XINPUT_VIBRATION@@@Z$0
__unwindtable$?XInputGetCapabilities9_1_0_Detour@@YGKKKPAU_XINPUT_CAPABILITIES@@@Z DD 0ffffffffH
	DD	FLAT:__unwindfunclet$?XInputGetCapabilities9_1_0_Detour@@YGKKKPAU_XINPUT_CAPABILITIES@@@Z$0
__unwindtable$?XInputGetState9_1_0_Detour@@YGKKPAU_XINPUT_STATE@@@Z DD 0ffffffffH
	DD	FLAT:__unwindfunclet$?XInputGetState9_1_0_Detour@@YGKKPAU_XINPUT_STATE@@@Z$0
__unwindtable$?XInputSetState1_4_Detour@@YGKKPAU_XINPUT_VIBRATION@@@Z DD 0ffffffffH
	DD	FLAT:__unwindfunclet$?XInputSetState1_4_Detour@@YGKKPAU_XINPUT_VIBRATION@@@Z$0
__unwindtable$?XInputGetBatteryInformation1_4_Detour@@YGKKEPAU_XINPUT_BATTERY_INFORMATION@@@Z DD 0ffffffffH
	DD	FLAT:__unwindfunclet$?XInputGetBatteryInformation1_4_Detour@@YGKKEPAU_XINPUT_BATTERY_INFORMATION@@@Z$0
__unwindtable$?XInputGetCapabilities1_4_Detour@@YGKKKPAU_XINPUT_CAPABILITIES@@@Z DD 0ffffffffH
	DD	FLAT:__unwindfunclet$?XInputGetCapabilities1_4_Detour@@YGKKKPAU_XINPUT_CAPABILITIES@@@Z$0
__unwindtable$?XInputGetStateEx1_4_Detour@@YGKKPAU_XINPUT_STATE_EX@@@Z DD 0ffffffffH
	DD	FLAT:__unwindfunclet$?XInputGetStateEx1_4_Detour@@YGKKPAU_XINPUT_STATE_EX@@@Z$0
__unwindtable$?XInputGetState1_4_Detour@@YGKKPAU_XINPUT_STATE@@@Z DD 0ffffffffH
	DD	FLAT:__unwindfunclet$?XInputGetState1_4_Detour@@YGKKPAU_XINPUT_STATE@@@Z$0
__unwindtable$?XInputEnable1_4_Detour@@YGXH@Z DD 0ffffffffH
	DD	FLAT:__unwindfunclet$?XInputEnable1_4_Detour@@YGXH@Z$0
__unwindtable$?XInputSetState1_3_Detour@@YGKKPAU_XINPUT_VIBRATION@@@Z DD 0ffffffffH
	DD	FLAT:__unwindfunclet$?XInputSetState1_3_Detour@@YGKKPAU_XINPUT_VIBRATION@@@Z$0
__unwindtable$?XInputGetBatteryInformation1_3_Detour@@YGKKEPAU_XINPUT_BATTERY_INFORMATION@@@Z DD 0ffffffffH
	DD	FLAT:__unwindfunclet$?XInputGetBatteryInformation1_3_Detour@@YGKKEPAU_XINPUT_BATTERY_INFORMATION@@@Z$0
__unwindtable$?XInputGetCapabilities1_3_Detour@@YGKKKPAU_XINPUT_CAPABILITIES@@@Z DD 0ffffffffH
	DD	FLAT:__unwindfunclet$?XInputGetCapabilities1_3_Detour@@YGKKKPAU_XINPUT_CAPABILITIES@@@Z$0
__unwindtable$?XInputGetStateEx1_3_Detour@@YGKKPAU_XINPUT_STATE_EX@@@Z DD 0ffffffffH
	DD	FLAT:__unwindfunclet$?XInputGetStateEx1_3_Detour@@YGKKPAU_XINPUT_STATE_EX@@@Z$0
__unwindtable$?XInputGetState1_3_Detour@@YGKKPAU_XINPUT_STATE@@@Z DD 0ffffffffH
	DD	FLAT:__unwindfunclet$?XInputGetState1_3_Detour@@YGKKPAU_XINPUT_STATE@@@Z$0
__unwindtable$?XInputEnable1_3_Detour@@YGXH@Z DD 0ffffffffH
	DD	FLAT:__unwindfunclet$?XInputEnable1_3_Detour@@YGXH@Z$0
__unwindtable$?SK_XInput_ZeroHaptics@@YAXH@Z DD 0ffffffffH
	DD	FLAT:__unwindfunclet$?SK_XInput_ZeroHaptics@@YAXH@Z$0
__unwindtable$?SK_XInput_PulseController@@YA_NHMM@Z DD 0ffffffffH
	DD	FLAT:__unwindfunclet$?SK_XInput_PulseController@@YA_NHMM@Z$0
__unwindtable$?SK_XInput_PollController@@YA_NHPAU_XINPUT_STATE@@@Z DD 0ffffffffH
	DD	FLAT:__unwindfunclet$?SK_XInput_PollController@@YA_NHPAU_XINPUT_STATE@@@Z$0
__unwindtable$?SK_Input_PreHookXInput@@YAXXZ DD 0ffffffffH
	DD	FLAT:__unwindfunclet$?SK_Input_PreHookXInput@@YAXXZ$0
__unwindtable$?SK_Input_HookXInput9_1_0@@YAXXZ DD 0ffffffffH
	DD	FLAT:__unwindfunclet$?SK_Input_HookXInput9_1_0@@YAXXZ$0
__unwindtable$?SK_Input_HookXInput1_4@@YAXXZ DD 0ffffffffH
	DD	FLAT:__unwindfunclet$?SK_Input_HookXInput1_4@@YAXXZ$0
__unwindtable$?SK_Input_HookXInput1_3@@YAXXZ DD 0ffffffffH
	DD	FLAT:__unwindfunclet$?SK_Input_HookXInput1_3@@YAXXZ$0
__unwindtable$?SK_XInput_RehookIfNeeded@@YAXXZ DD 0ffffffffH
	DD	FLAT:__unwindfunclet$?SK_XInput_RehookIfNeeded@@YAXXZ$0
	DD	00H
	DD	FLAT:__unwindfunclet$?SK_XInput_RehookIfNeeded@@YAXXZ$1
	DD	01H
	DD	FLAT:__unwindfunclet$?SK_XInput_RehookIfNeeded@@YAXXZ$2
	DD	02H
	DD	FLAT:__unwindfunclet$?SK_XInput_RehookIfNeeded@@YAXXZ$3
__ehfuncinfo$?SK_XInput_RehookIfNeeded@@YAXXZ DD 019930522H
	DD	04H
	DD	FLAT:__unwindtable$?SK_XInput_RehookIfNeeded@@YAXXZ
	DD	2 DUP(00H)
	DD	2 DUP(00H)
	DD	00H
	DD	01H
__ehfuncinfo$?XInputSetState9_1_0_Detour@@YGKKPAU_XINPUT_VIBRATION@@@Z DD 019930522H
	DD	01H
	DD	FLAT:__unwindtable$?XInputSetState9_1_0_Detour@@YGKKPAU_XINPUT_VIBRATION@@@Z
	DD	2 DUP(00H)
	DD	2 DUP(00H)
	DD	00H
	DD	01H
__ehfuncinfo$?XInputGetCapabilities9_1_0_Detour@@YGKKKPAU_XINPUT_CAPABILITIES@@@Z DD 019930522H
	DD	01H
	DD	FLAT:__unwindtable$?XInputGetCapabilities9_1_0_Detour@@YGKKKPAU_XINPUT_CAPABILITIES@@@Z
	DD	2 DUP(00H)
	DD	2 DUP(00H)
	DD	00H
	DD	01H
__ehfuncinfo$?XInputGetState9_1_0_Detour@@YGKKPAU_XINPUT_STATE@@@Z DD 019930522H
	DD	01H
	DD	FLAT:__unwindtable$?XInputGetState9_1_0_Detour@@YGKKPAU_XINPUT_STATE@@@Z
	DD	2 DUP(00H)
	DD	2 DUP(00H)
	DD	00H
	DD	01H
__ehfuncinfo$?XInputSetState1_4_Detour@@YGKKPAU_XINPUT_VIBRATION@@@Z DD 019930522H
	DD	01H
	DD	FLAT:__unwindtable$?XInputSetState1_4_Detour@@YGKKPAU_XINPUT_VIBRATION@@@Z
	DD	2 DUP(00H)
	DD	2 DUP(00H)
	DD	00H
	DD	01H
__ehfuncinfo$?XInputGetBatteryInformation1_4_Detour@@YGKKEPAU_XINPUT_BATTERY_INFORMATION@@@Z DD 019930522H
	DD	01H
	DD	FLAT:__unwindtable$?XInputGetBatteryInformation1_4_Detour@@YGKKEPAU_XINPUT_BATTERY_INFORMATION@@@Z
	DD	2 DUP(00H)
	DD	2 DUP(00H)
	DD	00H
	DD	01H
__ehfuncinfo$?XInputGetCapabilities1_4_Detour@@YGKKKPAU_XINPUT_CAPABILITIES@@@Z DD 019930522H
	DD	01H
	DD	FLAT:__unwindtable$?XInputGetCapabilities1_4_Detour@@YGKKKPAU_XINPUT_CAPABILITIES@@@Z
	DD	2 DUP(00H)
	DD	2 DUP(00H)
	DD	00H
	DD	01H
__ehfuncinfo$?XInputGetStateEx1_4_Detour@@YGKKPAU_XINPUT_STATE_EX@@@Z DD 019930522H
	DD	01H
	DD	FLAT:__unwindtable$?XInputGetStateEx1_4_Detour@@YGKKPAU_XINPUT_STATE_EX@@@Z
	DD	2 DUP(00H)
	DD	2 DUP(00H)
	DD	00H
	DD	01H
__ehfuncinfo$?XInputGetState1_4_Detour@@YGKKPAU_XINPUT_STATE@@@Z DD 019930522H
	DD	01H
	DD	FLAT:__unwindtable$?XInputGetState1_4_Detour@@YGKKPAU_XINPUT_STATE@@@Z
	DD	2 DUP(00H)
	DD	2 DUP(00H)
	DD	00H
	DD	01H
__ehfuncinfo$?XInputEnable1_4_Detour@@YGXH@Z DD 019930522H
	DD	01H
	DD	FLAT:__unwindtable$?XInputEnable1_4_Detour@@YGXH@Z
	DD	2 DUP(00H)
	DD	2 DUP(00H)
	DD	00H
	DD	01H
__ehfuncinfo$?XInputSetState1_3_Detour@@YGKKPAU_XINPUT_VIBRATION@@@Z DD 019930522H
	DD	01H
	DD	FLAT:__unwindtable$?XInputSetState1_3_Detour@@YGKKPAU_XINPUT_VIBRATION@@@Z
	DD	2 DUP(00H)
	DD	2 DUP(00H)
	DD	00H
	DD	01H
__ehfuncinfo$?XInputGetBatteryInformation1_3_Detour@@YGKKEPAU_XINPUT_BATTERY_INFORMATION@@@Z DD 019930522H
	DD	01H
	DD	FLAT:__unwindtable$?XInputGetBatteryInformation1_3_Detour@@YGKKEPAU_XINPUT_BATTERY_INFORMATION@@@Z
	DD	2 DUP(00H)
	DD	2 DUP(00H)
	DD	00H
	DD	01H
__ehfuncinfo$?XInputGetCapabilities1_3_Detour@@YGKKKPAU_XINPUT_CAPABILITIES@@@Z DD 019930522H
	DD	01H
	DD	FLAT:__unwindtable$?XInputGetCapabilities1_3_Detour@@YGKKKPAU_XINPUT_CAPABILITIES@@@Z
	DD	2 DUP(00H)
	DD	2 DUP(00H)
	DD	00H
	DD	01H
__ehfuncinfo$?XInputGetStateEx1_3_Detour@@YGKKPAU_XINPUT_STATE_EX@@@Z DD 019930522H
	DD	01H
	DD	FLAT:__unwindtable$?XInputGetStateEx1_3_Detour@@YGKKPAU_XINPUT_STATE_EX@@@Z
	DD	2 DUP(00H)
	DD	2 DUP(00H)
	DD	00H
	DD	01H
__ehfuncinfo$?XInputGetState1_3_Detour@@YGKKPAU_XINPUT_STATE@@@Z DD 019930522H
	DD	01H
	DD	FLAT:__unwindtable$?XInputGetState1_3_Detour@@YGKKPAU_XINPUT_STATE@@@Z
	DD	2 DUP(00H)
	DD	2 DUP(00H)
	DD	00H
	DD	01H
__ehfuncinfo$?XInputEnable1_3_Detour@@YGXH@Z DD 019930522H
	DD	01H
	DD	FLAT:__unwindtable$?XInputEnable1_3_Detour@@YGXH@Z
	DD	2 DUP(00H)
	DD	2 DUP(00H)
	DD	00H
	DD	01H
__ehfuncinfo$?SK_XInput_ZeroHaptics@@YAXH@Z DD 019930522H
	DD	01H
	DD	FLAT:__unwindtable$?SK_XInput_ZeroHaptics@@YAXH@Z
	DD	2 DUP(00H)
	DD	2 DUP(00H)
	DD	00H
	DD	01H
__ehfuncinfo$?SK_XInput_PulseController@@YA_NHMM@Z DD 019930522H
	DD	01H
	DD	FLAT:__unwindtable$?SK_XInput_PulseController@@YA_NHMM@Z
	DD	2 DUP(00H)
	DD	2 DUP(00H)
	DD	00H
	DD	01H
__ehfuncinfo$?SK_XInput_PollController@@YA_NHPAU_XINPUT_STATE@@@Z DD 019930522H
	DD	01H
	DD	FLAT:__unwindtable$?SK_XInput_PollController@@YA_NHPAU_XINPUT_STATE@@@Z
	DD	2 DUP(00H)
	DD	2 DUP(00H)
	DD	00H
	DD	01H
__ehfuncinfo$?SK_Input_PreHookXInput@@YAXXZ DD 019930522H
	DD	01H
	DD	FLAT:__unwindtable$?SK_Input_PreHookXInput@@YAXXZ
	DD	2 DUP(00H)
	DD	2 DUP(00H)
	DD	00H
	DD	01H
__ehfuncinfo$?SK_Input_HookXInput9_1_0@@YAXXZ DD 019930522H
	DD	01H
	DD	FLAT:__unwindtable$?SK_Input_HookXInput9_1_0@@YAXXZ
	DD	2 DUP(00H)
	DD	2 DUP(00H)
	DD	00H
	DD	01H
__ehfuncinfo$?SK_Input_HookXInput1_4@@YAXXZ DD 019930522H
	DD	01H
	DD	FLAT:__unwindtable$?SK_Input_HookXInput1_4@@YAXXZ
	DD	2 DUP(00H)
	DD	2 DUP(00H)
	DD	00H
	DD	01H
__ehfuncinfo$?SK_Input_HookXInput1_3@@YAXXZ DD 019930522H
	DD	01H
	DD	FLAT:__unwindtable$?SK_Input_HookXInput1_3@@YAXXZ
	DD	2 DUP(00H)
	DD	2 DUP(00H)
	DD	00H
	DD	01H
xdata$x	ENDS
; Function compile flags: /Ogtp
; File c:\program files (x86)\microsoft visual studio\2017\community\vc\tools\msvc\14.10.25017\include\xmemory0
;	COMDAT ??$construct@PAUHINSTANCE__@@ABQAU1@@?$allocator@U?$_List_node@PAUHINSTANCE__@@PAX@std@@@std@@QAEXPAPAUHINSTANCE__@@ABQAU2@@Z
_TEXT	SEGMENT
__Ptr$ = 8						; size = 4
_<_Args_0>$ = 12					; size = 4
??$construct@PAUHINSTANCE__@@ABQAU1@@?$allocator@U?$_List_node@PAUHINSTANCE__@@PAX@std@@@std@@QAEXPAPAUHINSTANCE__@@ABQAU2@@Z PROC ; std::allocator<std::_List_node<HINSTANCE__ *,void *> >::construct<HINSTANCE__ *,HINSTANCE__ * const &>, COMDAT
; _this$ = ecx

; 839  : 		{	// construct _Objty(_Types...) at _Ptr

	npad	2
	push	ebp
	mov	ebp, esp

; 840  : 		::new ((void *)_Ptr) _Objty(_STD forward<_Types>(_Args)...);

	mov	ecx, DWORD PTR __Ptr$[ebp]
	test	ecx, ecx
	je	SHORT $LN3@construct
	mov	eax, DWORD PTR _<_Args_0>$[ebp]
	mov	eax, DWORD PTR [eax]
	mov	DWORD PTR [ecx], eax
$LN3@construct:

; 841  : 		}

	pop	ebp
	ret	8
??$construct@PAUHINSTANCE__@@ABQAU1@@?$allocator@U?$_List_node@PAUHINSTANCE__@@PAX@std@@@std@@QAEXPAPAUHINSTANCE__@@ABQAU2@@Z ENDP ; std::allocator<std::_List_node<HINSTANCE__ *,void *> >::construct<HINSTANCE__ *,HINSTANCE__ * const &>
_TEXT	ENDS
; Function compile flags: /Ogtp
; File c:\program files (x86)\microsoft visual studio\2017\community\vc\tools\msvc\14.10.25017\include\xmemory0
;	COMDAT ??$construct@PAUHINSTANCE__@@ABQAU1@@?$allocator_traits@V?$allocator@U?$_List_node@PAUHINSTANCE__@@PAX@std@@@std@@@std@@SAXAAV?$allocator@U?$_List_node@PAUHINSTANCE__@@PAX@std@@@1@PAPAUHINSTANCE__@@ABQAU3@@Z
_TEXT	SEGMENT
__Al$ = 8						; size = 4
__Ptr$ = 12						; size = 4
_<_Args_0>$ = 16					; size = 4
??$construct@PAUHINSTANCE__@@ABQAU1@@?$allocator_traits@V?$allocator@U?$_List_node@PAUHINSTANCE__@@PAX@std@@@std@@@std@@SAXAAV?$allocator@U?$_List_node@PAUHINSTANCE__@@PAX@std@@@1@PAPAUHINSTANCE__@@ABQAU3@@Z PROC ; std::allocator_traits<std::allocator<std::_List_node<HINSTANCE__ *,void *> > >::construct<HINSTANCE__ *,HINSTANCE__ * const &>, COMDAT

; 958  : 		{	// construct _Objty(_Types...) at _Ptr

	npad	2
	push	ebp
	mov	ebp, esp

; 840  : 		::new ((void *)_Ptr) _Objty(_STD forward<_Types>(_Args)...);

	mov	ecx, DWORD PTR __Ptr$[ebp]
	test	ecx, ecx
	je	SHORT $LN8@construct
	mov	eax, DWORD PTR _<_Args_0>$[ebp]
	mov	eax, DWORD PTR [eax]
	mov	DWORD PTR [ecx], eax
$LN8@construct:

; 959  : 		_Al.construct(_Ptr, _STD forward<_Types>(_Args)...);
; 960  : 		}

	pop	ebp
	ret	0
??$construct@PAUHINSTANCE__@@ABQAU1@@?$allocator_traits@V?$allocator@U?$_List_node@PAUHINSTANCE__@@PAX@std@@@std@@@std@@SAXAAV?$allocator@U?$_List_node@PAUHINSTANCE__@@PAX@std@@@1@PAPAUHINSTANCE__@@ABQAU3@@Z ENDP ; std::allocator_traits<std::allocator<std::_List_node<HINSTANCE__ *,void *> > >::construct<HINSTANCE__ *,HINSTANCE__ * const &>
_TEXT	ENDS
; Function compile flags: /Ogtp
; File c:\program files (x86)\microsoft visual studio\2017\community\vc\tools\msvc\14.10.25017\include\xmemory0
;	COMDAT ??$construct@PAUHINSTANCE__@@ABQAU1@@?$_Wrap_alloc@V?$allocator@U?$_List_node@PAUHINSTANCE__@@PAX@std@@@std@@@std@@QAEXPAPAUHINSTANCE__@@ABQAU2@@Z
_TEXT	SEGMENT
__Ptr$ = 8						; size = 4
_<_Args_0>$ = 12					; size = 4
??$construct@PAUHINSTANCE__@@ABQAU1@@?$_Wrap_alloc@V?$allocator@U?$_List_node@PAUHINSTANCE__@@PAX@std@@@std@@@std@@QAEXPAPAUHINSTANCE__@@ABQAU2@@Z PROC ; std::_Wrap_alloc<std::allocator<std::_List_node<HINSTANCE__ *,void *> > >::construct<HINSTANCE__ *,HINSTANCE__ * const &>, COMDAT
; _this$ = ecx

; 1095 : 		{	// construct _Ty(_Types...) at _Ptr

	npad	2
	push	ebp
	mov	ebp, esp

; 840  : 		::new ((void *)_Ptr) _Objty(_STD forward<_Types>(_Args)...);

	mov	ecx, DWORD PTR __Ptr$[ebp]
	test	ecx, ecx
	je	SHORT $LN13@construct
	mov	eax, DWORD PTR _<_Args_0>$[ebp]
	mov	eax, DWORD PTR [eax]
	mov	DWORD PTR [ecx], eax
$LN13@construct:

; 1096 : 		_Mytraits::construct(*this, _Ptr,
; 1097 : 			_STD forward<_Types>(_Args)...);
; 1098 : 		}

	pop	ebp
	ret	8
??$construct@PAUHINSTANCE__@@ABQAU1@@?$_Wrap_alloc@V?$allocator@U?$_List_node@PAUHINSTANCE__@@PAX@std@@@std@@@std@@QAEXPAPAUHINSTANCE__@@ABQAU2@@Z ENDP ; std::_Wrap_alloc<std::allocator<std::_List_node<HINSTANCE__ *,void *> > >::construct<HINSTANCE__ *,HINSTANCE__ * const &>
_TEXT	ENDS
; Function compile flags: /Ogtp
; File c:\program files (x86)\microsoft visual studio\2017\community\vc\tools\msvc\14.10.25017\include\list
; File c:\program files (x86)\microsoft visual studio\2017\community\vc\tools\msvc\14.10.25017\include\xmemory0
; File c:\program files (x86)\microsoft visual studio\2017\community\vc\tools\msvc\14.10.25017\include\list
;	COMDAT ??$_Buynode@ABQAUHINSTANCE__@@@?$_List_buy@PAUHINSTANCE__@@V?$allocator@PAUHINSTANCE__@@@std@@@std@@QAEPAU?$_List_node@PAUHINSTANCE__@@PAX@1@PAU21@0ABQAUHINSTANCE__@@@Z
_TEXT	SEGMENT
__Next$ = 8						; size = 4
__Prev$ = 12						; size = 4
_<_Val_0>$ = 16						; size = 4
??$_Buynode@ABQAUHINSTANCE__@@@?$_List_buy@PAUHINSTANCE__@@V?$allocator@PAUHINSTANCE__@@@std@@@std@@QAEPAU?$_List_node@PAUHINSTANCE__@@PAX@1@PAU21@0ABQAUHINSTANCE__@@@Z PROC ; std::_List_buy<HINSTANCE__ *,std::allocator<HINSTANCE__ *> >::_Buynode<HINSTANCE__ * const &>, COMDAT
; _this$ = ecx

; 847  : 		{	// allocate a node and set links and value

	npad	2
	push	ebp
	mov	ebp, esp

; 848  : 		_Nodeptr _Pnode = this->_Buynode0(_Next, _Prev);

	push	DWORD PTR __Prev$[ebp]
	push	DWORD PTR __Next$[ebp]
	call	?_Buynode0@?$_List_alloc@U?$_List_base_types@PAUHINSTANCE__@@V?$allocator@PAUHINSTANCE__@@@std@@@std@@@std@@QAEPAU?$_List_node@PAUHINSTANCE__@@PAX@2@PAU32@0@Z ; std::_List_alloc<std::_List_base_types<HINSTANCE__ *,std::allocator<HINSTANCE__ *> > >::_Buynode0

; 540  : 		return ((reference)_Pnode->_Myval);

	lea	edx, DWORD PTR [eax+8]
; File c:\program files (x86)\microsoft visual studio\2017\community\vc\tools\msvc\14.10.25017\include\xmemory0

; 840  : 		::new ((void *)_Ptr) _Objty(_STD forward<_Types>(_Args)...);

	test	edx, edx
	je	SHORT $LN36@Buynode
	mov	ecx, DWORD PTR _<_Val_0>$[ebp]
	mov	ecx, DWORD PTR [ecx]
	mov	DWORD PTR [edx], ecx
$LN36@Buynode:
; File c:\program files (x86)\microsoft visual studio\2017\community\vc\tools\msvc\14.10.25017\include\list

; 860  : 		}

	pop	ebp
	ret	12					; 0000000cH
??$_Buynode@ABQAUHINSTANCE__@@@?$_List_buy@PAUHINSTANCE__@@V?$allocator@PAUHINSTANCE__@@@std@@@std@@QAEPAU?$_List_node@PAUHINSTANCE__@@PAX@1@PAU21@0ABQAUHINSTANCE__@@@Z ENDP ; std::_List_buy<HINSTANCE__ *,std::allocator<HINSTANCE__ *> >::_Buynode<HINSTANCE__ * const &>
_TEXT	ENDS
; Function compile flags: /Ogtp
; File c:\program files (x86)\microsoft visual studio\2017\community\vc\tools\msvc\14.10.25017\include\xmemory0
;	COMDAT ??$construct@PAU?$_List_node@PAUHINSTANCE__@@PAX@std@@AAPAU12@@?$allocator@U?$_List_node@PAUHINSTANCE__@@PAX@std@@@std@@QAEXPAPAU?$_List_node@PAUHINSTANCE__@@PAX@1@AAPAU21@@Z
_TEXT	SEGMENT
__Ptr$ = 8						; size = 4
_<_Args_0>$ = 12					; size = 4
??$construct@PAU?$_List_node@PAUHINSTANCE__@@PAX@std@@AAPAU12@@?$allocator@U?$_List_node@PAUHINSTANCE__@@PAX@std@@@std@@QAEXPAPAU?$_List_node@PAUHINSTANCE__@@PAX@1@AAPAU21@@Z PROC ; std::allocator<std::_List_node<HINSTANCE__ *,void *> >::construct<std::_List_node<HINSTANCE__ *,void *> *,std::_List_node<HINSTANCE__ *,void *> * &>, COMDAT
; _this$ = ecx

; 839  : 		{	// construct _Objty(_Types...) at _Ptr

	npad	2
	push	ebp
	mov	ebp, esp

; 840  : 		::new ((void *)_Ptr) _Objty(_STD forward<_Types>(_Args)...);

	mov	ecx, DWORD PTR __Ptr$[ebp]
	test	ecx, ecx
	je	SHORT $LN3@construct
	mov	eax, DWORD PTR _<_Args_0>$[ebp]
	mov	eax, DWORD PTR [eax]
	mov	DWORD PTR [ecx], eax
$LN3@construct:

; 841  : 		}

	pop	ebp
	ret	8
??$construct@PAU?$_List_node@PAUHINSTANCE__@@PAX@std@@AAPAU12@@?$allocator@U?$_List_node@PAUHINSTANCE__@@PAX@std@@@std@@QAEXPAPAU?$_List_node@PAUHINSTANCE__@@PAX@1@AAPAU21@@Z ENDP ; std::allocator<std::_List_node<HINSTANCE__ *,void *> >::construct<std::_List_node<HINSTANCE__ *,void *> *,std::_List_node<HINSTANCE__ *,void *> * &>
_TEXT	ENDS
; Function compile flags: /Ogtp
; File c:\program files (x86)\microsoft visual studio\2017\community\vc\tools\msvc\14.10.25017\include\xmemory0
;	COMDAT ??$_Construct1@V?$_List_unchecked_const_iterator@V?$_List_val@U?$_List_simple_types@PAUHINSTANCE__@@@std@@@std@@U_Iterator_base0@2@@std@@V12@@?$allocator_traits@U?$_Wrap_alloc@V?$allocator@V?$_List_unchecked_const_iterator@V?$_List_val@U?$_List_simple_types@PAUHINSTANCE__@@@std@@@std@@U_Iterator_base0@2@@std@@@std@@@std@@@std@@SAXU?$integral_constant@_N$00@1@AAU?$_Wrap_alloc@V?$allocator@V?$_List_unchecked_const_iterator@V?$_List_val@U?$_List_simple_types@PAUHINSTANCE__@@@std@@@std@@U_Iterator_base0@2@@std@@@std@@@1@PAV?$_List_unchecked_const_iterator@V?$_List_val@U?$_List_simple_types@PAUHINSTANCE__@@@std@@@std@@U_Iterator_base0@2@@1@$$QAV41@@Z
_TEXT	SEGMENT
___formal$ = 8						; size = 1
___formal$ = 12						; size = 4
__Ptr$ = 16						; size = 4
_<_Args_0>$ = 20					; size = 4
??$_Construct1@V?$_List_unchecked_const_iterator@V?$_List_val@U?$_List_simple_types@PAUHINSTANCE__@@@std@@@std@@U_Iterator_base0@2@@std@@V12@@?$allocator_traits@U?$_Wrap_alloc@V?$allocator@V?$_List_unchecked_const_iterator@V?$_List_val@U?$_List_simple_types@PAUHINSTANCE__@@@std@@@std@@U_Iterator_base0@2@@std@@@std@@@std@@@std@@SAXU?$integral_constant@_N$00@1@AAU?$_Wrap_alloc@V?$allocator@V?$_List_unchecked_const_iterator@V?$_List_val@U?$_List_simple_types@PAUHINSTANCE__@@@std@@@std@@U_Iterator_base0@2@@std@@@std@@@1@PAV?$_List_unchecked_const_iterator@V?$_List_val@U?$_List_simple_types@PAUHINSTANCE__@@@std@@@std@@U_Iterator_base0@2@@1@$$QAV41@@Z PROC ; std::allocator_traits<std::_Wrap_alloc<std::allocator<std::_List_unchecked_const_iterator<std::_List_val<std::_List_simple_types<HINSTANCE__ *> >,std::_Iterator_base0> > > >::_Construct1<std::_List_unchecked_const_iterator<std::_List_val<std::_List_simple_types<HINSTANCE__ *> >,std::_Iterator_base0>,std::_List_unchecked_const_iterator<std::_List_val<std::_List_simple_types<HINSTANCE__ *> >,std::_Iterator_base0> >, COMDAT

; 709  : 		{	// construct _Ty(_Types...) at _Ptr, default version

	npad	2
	push	ebp
	mov	ebp, esp

; 710  : 		::new (static_cast<void *>(_Ptr))

	mov	ecx, DWORD PTR __Ptr$[ebp]
	test	ecx, ecx
	je	SHORT $LN3@Construct1
	mov	eax, DWORD PTR _<_Args_0>$[ebp]
	mov	eax, DWORD PTR [eax]
	mov	DWORD PTR [ecx], eax
$LN3@Construct1:

; 711  : 			_Ty(_STD forward<_Types>(_Args)...);
; 712  : 		}

	pop	ebp
	ret	0
??$_Construct1@V?$_List_unchecked_const_iterator@V?$_List_val@U?$_List_simple_types@PAUHINSTANCE__@@@std@@@std@@U_Iterator_base0@2@@std@@V12@@?$allocator_traits@U?$_Wrap_alloc@V?$allocator@V?$_List_unchecked_const_iterator@V?$_List_val@U?$_List_simple_types@PAUHINSTANCE__@@@std@@@std@@U_Iterator_base0@2@@std@@@std@@@std@@@std@@SAXU?$integral_constant@_N$00@1@AAU?$_Wrap_alloc@V?$allocator@V?$_List_unchecked_const_iterator@V?$_List_val@U?$_List_simple_types@PAUHINSTANCE__@@@std@@@std@@U_Iterator_base0@2@@std@@@std@@@1@PAV?$_List_unchecked_const_iterator@V?$_List_val@U?$_List_simple_types@PAUHINSTANCE__@@@std@@@std@@U_Iterator_base0@2@@1@$$QAV41@@Z ENDP ; std::allocator_traits<std::_Wrap_alloc<std::allocator<std::_List_unchecked_const_iterator<std::_List_val<std::_List_simple_types<HINSTANCE__ *> >,std::_Iterator_base0> > > >::_Construct1<std::_List_unchecked_const_iterator<std::_List_val<std::_List_simple_types<HINSTANCE__ *> >,std::_Iterator_base0>,std::_List_unchecked_const_iterator<std::_List_val<std::_List_simple_types<HINSTANCE__ *> >,std::_Iterator_base0> >
_TEXT	ENDS
; Function compile flags: /Ogtp
; File c:\program files (x86)\microsoft visual studio\2017\community\vc\tools\msvc\14.10.25017\include\xmemory0
;	COMDAT ??$_Construct1@V?$_List_unchecked_const_iterator@V?$_List_val@U?$_List_simple_types@PAUHINSTANCE__@@@std@@@std@@U_Iterator_base0@2@@std@@ABV12@@?$allocator_traits@U?$_Wrap_alloc@V?$allocator@V?$_List_unchecked_const_iterator@V?$_List_val@U?$_List_simple_types@PAUHINSTANCE__@@@std@@@std@@U_Iterator_base0@2@@std@@@std@@@std@@@std@@SAXU?$integral_constant@_N$00@1@AAU?$_Wrap_alloc@V?$allocator@V?$_List_unchecked_const_iterator@V?$_List_val@U?$_List_simple_types@PAUHINSTANCE__@@@std@@@std@@U_Iterator_base0@2@@std@@@std@@@1@PAV?$_List_unchecked_const_iterator@V?$_List_val@U?$_List_simple_types@PAUHINSTANCE__@@@std@@@std@@U_Iterator_base0@2@@1@ABV41@@Z
_TEXT	SEGMENT
___formal$ = 8						; size = 1
___formal$ = 12						; size = 4
__Ptr$ = 16						; size = 4
_<_Args_0>$ = 20					; size = 4
??$_Construct1@V?$_List_unchecked_const_iterator@V?$_List_val@U?$_List_simple_types@PAUHINSTANCE__@@@std@@@std@@U_Iterator_base0@2@@std@@ABV12@@?$allocator_traits@U?$_Wrap_alloc@V?$allocator@V?$_List_unchecked_const_iterator@V?$_List_val@U?$_List_simple_types@PAUHINSTANCE__@@@std@@@std@@U_Iterator_base0@2@@std@@@std@@@std@@@std@@SAXU?$integral_constant@_N$00@1@AAU?$_Wrap_alloc@V?$allocator@V?$_List_unchecked_const_iterator@V?$_List_val@U?$_List_simple_types@PAUHINSTANCE__@@@std@@@std@@U_Iterator_base0@2@@std@@@std@@@1@PAV?$_List_unchecked_const_iterator@V?$_List_val@U?$_List_simple_types@PAUHINSTANCE__@@@std@@@std@@U_Iterator_base0@2@@1@ABV41@@Z PROC ; std::allocator_traits<std::_Wrap_alloc<std::allocator<std::_List_unchecked_const_iterator<std::_List_val<std::_List_simple_types<HINSTANCE__ *> >,std::_Iterator_base0> > > >::_Construct1<std::_List_unchecked_const_iterator<std::_List_val<std::_List_simple_types<HINSTANCE__ *> >,std::_Iterator_base0>,std::_List_unchecked_const_iterator<std::_List_val<std::_List_simple_types<HINSTANCE__ *> >,std::_Iterator_base0> const &>, COMDAT

; 709  : 		{	// construct _Ty(_Types...) at _Ptr, default version

	npad	2
	push	ebp
	mov	ebp, esp

; 710  : 		::new (static_cast<void *>(_Ptr))

	mov	ecx, DWORD PTR __Ptr$[ebp]
	test	ecx, ecx
	je	SHORT $LN3@Construct1
	mov	eax, DWORD PTR _<_Args_0>$[ebp]
	mov	eax, DWORD PTR [eax]
	mov	DWORD PTR [ecx], eax
$LN3@Construct1:

; 711  : 			_Ty(_STD forward<_Types>(_Args)...);
; 712  : 		}

	pop	ebp
	ret	0
??$_Construct1@V?$_List_unchecked_const_iterator@V?$_List_val@U?$_List_simple_types@PAUHINSTANCE__@@@std@@@std@@U_Iterator_base0@2@@std@@ABV12@@?$allocator_traits@U?$_Wrap_alloc@V?$allocator@V?$_List_unchecked_const_iterator@V?$_List_val@U?$_List_simple_types@PAUHINSTANCE__@@@std@@@std@@U_Iterator_base0@2@@std@@@std@@@std@@@std@@SAXU?$integral_constant@_N$00@1@AAU?$_Wrap_alloc@V?$allocator@V?$_List_unchecked_const_iterator@V?$_List_val@U?$_List_simple_types@PAUHINSTANCE__@@@std@@@std@@U_Iterator_base0@2@@std@@@std@@@1@PAV?$_List_unchecked_const_iterator@V?$_List_val@U?$_List_simple_types@PAUHINSTANCE__@@@std@@@std@@U_Iterator_base0@2@@1@ABV41@@Z ENDP ; std::allocator_traits<std::_Wrap_alloc<std::allocator<std::_List_unchecked_const_iterator<std::_List_val<std::_List_simple_types<HINSTANCE__ *> >,std::_Iterator_base0> > > >::_Construct1<std::_List_unchecked_const_iterator<std::_List_val<std::_List_simple_types<HINSTANCE__ *> >,std::_Iterator_base0>,std::_List_unchecked_const_iterator<std::_List_val<std::_List_simple_types<HINSTANCE__ *> >,std::_Iterator_base0> const &>
_TEXT	ENDS
; Function compile flags: /Ogtp
; File c:\program files (x86)\microsoft visual studio\2017\community\vc\tools\msvc\14.10.25017\include\xmemory0
;	COMDAT ??$_Destroy1@V?$_List_unchecked_const_iterator@V?$_List_val@U?$_List_simple_types@PAUHINSTANCE__@@@std@@@std@@U_Iterator_base0@2@@std@@@?$allocator_traits@U?$_Wrap_alloc@V?$allocator@V?$_List_unchecked_const_iterator@V?$_List_val@U?$_List_simple_types@PAUHINSTANCE__@@@std@@@std@@U_Iterator_base0@2@@std@@@std@@@std@@@std@@SAXAAU?$_Wrap_alloc@V?$allocator@V?$_List_unchecked_const_iterator@V?$_List_val@U?$_List_simple_types@PAUHINSTANCE__@@@std@@@std@@U_Iterator_base0@2@@std@@@std@@@1@PAV?$_List_unchecked_const_iterator@V?$_List_val@U?$_List_simple_types@PAUHINSTANCE__@@@std@@@std@@U_Iterator_base0@2@@1@U?$integral_constant@_N$00@1@@Z
_TEXT	SEGMENT
___formal$ = 8						; size = 4
__Ptr$ = 12						; size = 4
___formal$ = 16						; size = 1
??$_Destroy1@V?$_List_unchecked_const_iterator@V?$_List_val@U?$_List_simple_types@PAUHINSTANCE__@@@std@@@std@@U_Iterator_base0@2@@std@@@?$allocator_traits@U?$_Wrap_alloc@V?$allocator@V?$_List_unchecked_const_iterator@V?$_List_val@U?$_List_simple_types@PAUHINSTANCE__@@@std@@@std@@U_Iterator_base0@2@@std@@@std@@@std@@@std@@SAXAAU?$_Wrap_alloc@V?$allocator@V?$_List_unchecked_const_iterator@V?$_List_val@U?$_List_simple_types@PAUHINSTANCE__@@@std@@@std@@U_Iterator_base0@2@@std@@@std@@@1@PAV?$_List_unchecked_const_iterator@V?$_List_val@U?$_List_simple_types@PAUHINSTANCE__@@@std@@@std@@U_Iterator_base0@2@@1@U?$integral_constant@_N$00@1@@Z PROC ; std::allocator_traits<std::_Wrap_alloc<std::allocator<std::_List_unchecked_const_iterator<std::_List_val<std::_List_simple_types<HINSTANCE__ *> >,std::_Iterator_base0> > > >::_Destroy1<std::_List_unchecked_const_iterator<std::_List_val<std::_List_simple_types<HINSTANCE__ *> >,std::_Iterator_base0> >, COMDAT

; 734  : 		_Ptr->~_Ty();
; 735  : 		}

	ret	0
??$_Destroy1@V?$_List_unchecked_const_iterator@V?$_List_val@U?$_List_simple_types@PAUHINSTANCE__@@@std@@@std@@U_Iterator_base0@2@@std@@@?$allocator_traits@U?$_Wrap_alloc@V?$allocator@V?$_List_unchecked_const_iterator@V?$_List_val@U?$_List_simple_types@PAUHINSTANCE__@@@std@@@std@@U_Iterator_base0@2@@std@@@std@@@std@@@std@@SAXAAU?$_Wrap_alloc@V?$allocator@V?$_List_unchecked_const_iterator@V?$_List_val@U?$_List_simple_types@PAUHINSTANCE__@@@std@@@std@@U_Iterator_base0@2@@std@@@std@@@1@PAV?$_List_unchecked_const_iterator@V?$_List_val@U?$_List_simple_types@PAUHINSTANCE__@@@std@@@std@@U_Iterator_base0@2@@1@U?$integral_constant@_N$00@1@@Z ENDP ; std::allocator_traits<std::_Wrap_alloc<std::allocator<std::_List_unchecked_const_iterator<std::_List_val<std::_List_simple_types<HINSTANCE__ *> >,std::_Iterator_base0> > > >::_Destroy1<std::_List_unchecked_const_iterator<std::_List_val<std::_List_simple_types<HINSTANCE__ *> >,std::_Iterator_base0> >
_TEXT	ENDS
; Function compile flags: /Ogtp
; File c:\program files (x86)\microsoft visual studio\2017\community\vc\tools\msvc\14.10.25017\include\xmemory0
;	COMDAT ??$?0PAUHINSTANCE__@@@?$allocator@U?$_List_node@PAUHINSTANCE__@@PAX@std@@@std@@QAE@ABV?$allocator@PAUHINSTANCE__@@@1@@Z
_TEXT	SEGMENT
___formal$ = 8						; size = 4
??$?0PAUHINSTANCE__@@@?$allocator@U?$_List_node@PAUHINSTANCE__@@PAX@std@@@std@@QAE@ABV?$allocator@PAUHINSTANCE__@@@1@@Z PROC ; std::allocator<std::_List_node<HINSTANCE__ *,void *> >::allocator<std::_List_node<HINSTANCE__ *,void *> ><HINSTANCE__ *>, COMDAT
; _this$ = ecx

; 813  : 		}

	mov	eax, ecx
	ret	4
??$?0PAUHINSTANCE__@@@?$allocator@U?$_List_node@PAUHINSTANCE__@@PAX@std@@@std@@QAE@ABV?$allocator@PAUHINSTANCE__@@@1@@Z ENDP ; std::allocator<std::_List_node<HINSTANCE__ *,void *> >::allocator<std::_List_node<HINSTANCE__ *,void *> ><HINSTANCE__ *>
_TEXT	ENDS
; Function compile flags: /Ogtp
; File c:\program files (x86)\microsoft visual studio\2017\community\vc\tools\msvc\14.10.25017\include\list
;	COMDAT ??$_Insert@ABQAUHINSTANCE__@@@?$list@PAUHINSTANCE__@@V?$allocator@PAUHINSTANCE__@@@std@@@std@@QAEXV?$_List_unchecked_const_iterator@V?$_List_val@U?$_List_simple_types@PAUHINSTANCE__@@@std@@@std@@U_Iterator_base0@2@@1@ABQAUHINSTANCE__@@@Z
_TEXT	SEGMENT
__Where$ = 8						; size = 4
_<_Val_0>$ = 12						; size = 4
??$_Insert@ABQAUHINSTANCE__@@@?$list@PAUHINSTANCE__@@V?$allocator@PAUHINSTANCE__@@@std@@@std@@QAEXV?$_List_unchecked_const_iterator@V?$_List_val@U?$_List_simple_types@PAUHINSTANCE__@@@std@@@std@@U_Iterator_base0@2@@1@ABQAUHINSTANCE__@@@Z PROC ; std::list<HINSTANCE__ *,std::allocator<HINSTANCE__ *> >::_Insert<HINSTANCE__ * const &>, COMDAT
; _this$ = ecx

; 1082 : 		{	// insert element at _Where

	npad	2
	push	ebp
	mov	ebp, esp
	push	esi

; 535  : 		return ((_Nodepref)_Pnode->_Prev);

	mov	esi, DWORD PTR __Where$[ebp]
	push	edi

; 1083 : 		_Nodeptr _Pnode = _Where._Mynode();
; 1084 : 		_Nodeptr _Newnode =
; 1085 : 			this->_Buynode(_Pnode, this->_Prevnode(_Pnode),

	push	DWORD PTR _<_Val_0>$[ebp]
	mov	edi, ecx
	push	DWORD PTR [esi+4]
	push	esi
	call	??$_Buynode@ABQAUHINSTANCE__@@@?$_List_buy@PAUHINSTANCE__@@V?$allocator@PAUHINSTANCE__@@@std@@@std@@QAEPAU?$_List_node@PAUHINSTANCE__@@PAX@1@PAU21@0ABQAUHINSTANCE__@@@Z ; std::_List_buy<HINSTANCE__ *,std::allocator<HINSTANCE__ *> >::_Buynode<HINSTANCE__ * const &>
	mov	edx, eax

; 1950 : 		if (max_size() - this->_Mysize() - 1 < _Count)

	mov	ecx, 357913940				; 15555554H
	mov	eax, DWORD PTR [edi+4]
	sub	ecx, eax
	cmp	ecx, 1
	jae	SHORT $LN13@Insert

; 1951 : 			_Xlength_error("list<T> too long");

	push	OFFSET ??_C@_0BB@MOGOBHAF@list?$DMT?$DO?5too?5long?$AA@
	call	DWORD PTR __imp_?_Xlength_error@std@@YAXPBD@Z
$LN66@Insert:
$LN13@Insert:

; 1952 : 		this->_Mysize() += _Count;

	inc	eax
	mov	DWORD PTR [edi+4], eax

; 1086 : 				_STD forward<_Valty>(_Val)...);
; 1087 : 		_Incsize(1);
; 1088 : 		this->_Prevnode(_Pnode) = _Newnode;

	mov	DWORD PTR [esi+4], edx

; 530  : 		return ((_Nodepref)_Pnode->_Next);

	mov	eax, DWORD PTR [edx+4]
	pop	edi
	pop	esi

; 1089 : 		this->_Nextnode(this->_Prevnode(_Newnode)) = _Newnode;

	mov	DWORD PTR [eax], edx

; 1090 : 		}

	pop	ebp
	ret	8
$LN65@Insert:
??$_Insert@ABQAUHINSTANCE__@@@?$list@PAUHINSTANCE__@@V?$allocator@PAUHINSTANCE__@@@std@@@std@@QAEXV?$_List_unchecked_const_iterator@V?$_List_val@U?$_List_simple_types@PAUHINSTANCE__@@@std@@@std@@U_Iterator_base0@2@@1@ABQAUHINSTANCE__@@@Z ENDP ; std::list<HINSTANCE__ *,std::allocator<HINSTANCE__ *> >::_Insert<HINSTANCE__ * const &>
_TEXT	ENDS
; Function compile flags: /Ogtp
; File c:\program files (x86)\microsoft visual studio\2017\community\vc\tools\msvc\14.10.25017\include\xmemory0
;	COMDAT ??$construct@PAU?$_List_node@PAUHINSTANCE__@@PAX@std@@AAPAU12@@?$allocator_traits@V?$allocator@U?$_List_node@PAUHINSTANCE__@@PAX@std@@@std@@@std@@SAXAAV?$allocator@U?$_List_node@PAUHINSTANCE__@@PAX@std@@@1@PAPAU?$_List_node@PAUHINSTANCE__@@PAX@1@AAPAU31@@Z
_TEXT	SEGMENT
__Al$ = 8						; size = 4
__Ptr$ = 12						; size = 4
_<_Args_0>$ = 16					; size = 4
??$construct@PAU?$_List_node@PAUHINSTANCE__@@PAX@std@@AAPAU12@@?$allocator_traits@V?$allocator@U?$_List_node@PAUHINSTANCE__@@PAX@std@@@std@@@std@@SAXAAV?$allocator@U?$_List_node@PAUHINSTANCE__@@PAX@std@@@1@PAPAU?$_List_node@PAUHINSTANCE__@@PAX@1@AAPAU31@@Z PROC ; std::allocator_traits<std::allocator<std::_List_node<HINSTANCE__ *,void *> > >::construct<std::_List_node<HINSTANCE__ *,void *> *,std::_List_node<HINSTANCE__ *,void *> * &>, COMDAT

; 958  : 		{	// construct _Objty(_Types...) at _Ptr

	npad	2
	push	ebp
	mov	ebp, esp

; 840  : 		::new ((void *)_Ptr) _Objty(_STD forward<_Types>(_Args)...);

	mov	ecx, DWORD PTR __Ptr$[ebp]
	test	ecx, ecx
	je	SHORT $LN8@construct
	mov	eax, DWORD PTR _<_Args_0>$[ebp]
	mov	eax, DWORD PTR [eax]
	mov	DWORD PTR [ecx], eax
$LN8@construct:

; 959  : 		_Al.construct(_Ptr, _STD forward<_Types>(_Args)...);
; 960  : 		}

	pop	ebp
	ret	0
??$construct@PAU?$_List_node@PAUHINSTANCE__@@PAX@std@@AAPAU12@@?$allocator_traits@V?$allocator@U?$_List_node@PAUHINSTANCE__@@PAX@std@@@std@@@std@@SAXAAV?$allocator@U?$_List_node@PAUHINSTANCE__@@PAX@std@@@1@PAPAU?$_List_node@PAUHINSTANCE__@@PAX@1@AAPAU31@@Z ENDP ; std::allocator_traits<std::allocator<std::_List_node<HINSTANCE__ *,void *> > >::construct<std::_List_node<HINSTANCE__ *,void *> *,std::_List_node<HINSTANCE__ *,void *> * &>
_TEXT	ENDS
; Function compile flags: /Ogtp
; File c:\program files (x86)\microsoft visual studio\2017\community\vc\tools\msvc\14.10.25017\include\type_traits
;	COMDAT ??$forward@AAPAU?$_List_node@PAUHINSTANCE__@@PAX@std@@@std@@YAAAPAU?$_List_node@PAUHINSTANCE__@@PAX@0@AAPAU10@@Z
_TEXT	SEGMENT
__Arg$ = 8						; size = 4
??$forward@AAPAU?$_List_node@PAUHINSTANCE__@@PAX@std@@@std@@YAAAPAU?$_List_node@PAUHINSTANCE__@@PAX@0@AAPAU10@@Z PROC ; std::forward<std::_List_node<HINSTANCE__ *,void *> * &>, COMDAT

; 1334 : 	{	// forward an lvalue as either an lvalue or an rvalue

	npad	2
	push	ebp
	mov	ebp, esp

; 1335 : 	return (static_cast<_Ty&&>(_Arg));

	mov	eax, DWORD PTR __Arg$[ebp]

; 1336 : 	}

	pop	ebp
	ret	0
??$forward@AAPAU?$_List_node@PAUHINSTANCE__@@PAX@std@@@std@@YAAAPAU?$_List_node@PAUHINSTANCE__@@PAX@0@AAPAU10@@Z ENDP ; std::forward<std::_List_node<HINSTANCE__ *,void *> * &>
_TEXT	ENDS
; Function compile flags: /Ogtp
; File c:\program files (x86)\microsoft visual studio\2017\community\vc\tools\msvc\14.10.25017\include\xmemory0
;	COMDAT ??$construct@V?$_List_unchecked_const_iterator@V?$_List_val@U?$_List_simple_types@PAUHINSTANCE__@@@std@@@std@@U_Iterator_base0@2@@std@@V12@@?$allocator_traits@U?$_Wrap_alloc@V?$allocator@V?$_List_unchecked_const_iterator@V?$_List_val@U?$_List_simple_types@PAUHINSTANCE__@@@std@@@std@@U_Iterator_base0@2@@std@@@std@@@std@@@std@@SAXAAU?$_Wrap_alloc@V?$allocator@V?$_List_unchecked_const_iterator@V?$_List_val@U?$_List_simple_types@PAUHINSTANCE__@@@std@@@std@@U_Iterator_base0@2@@std@@@std@@@1@PAV?$_List_unchecked_const_iterator@V?$_List_val@U?$_List_simple_types@PAUHINSTANCE__@@@std@@@std@@U_Iterator_base0@2@@1@$$QAV31@@Z
_TEXT	SEGMENT
__Al$ = 8						; size = 4
__Ptr$ = 12						; size = 4
_<_Args_0>$ = 16					; size = 4
??$construct@V?$_List_unchecked_const_iterator@V?$_List_val@U?$_List_simple_types@PAUHINSTANCE__@@@std@@@std@@U_Iterator_base0@2@@std@@V12@@?$allocator_traits@U?$_Wrap_alloc@V?$allocator@V?$_List_unchecked_const_iterator@V?$_List_val@U?$_List_simple_types@PAUHINSTANCE__@@@std@@@std@@U_Iterator_base0@2@@std@@@std@@@std@@@std@@SAXAAU?$_Wrap_alloc@V?$allocator@V?$_List_unchecked_const_iterator@V?$_List_val@U?$_List_simple_types@PAUHINSTANCE__@@@std@@@std@@U_Iterator_base0@2@@std@@@std@@@1@PAV?$_List_unchecked_const_iterator@V?$_List_val@U?$_List_simple_types@PAUHINSTANCE__@@@std@@@std@@U_Iterator_base0@2@@1@$$QAV31@@Z PROC ; std::allocator_traits<std::_Wrap_alloc<std::allocator<std::_List_unchecked_const_iterator<std::_List_val<std::_List_simple_types<HINSTANCE__ *> >,std::_Iterator_base0> > > >::construct<std::_List_unchecked_const_iterator<std::_List_val<std::_List_simple_types<HINSTANCE__ *> >,std::_Iterator_base0>,std::_List_unchecked_const_iterator<std::_List_val<std::_List_simple_types<HINSTANCE__ *> >,std::_Iterator_base0> >, COMDAT

; 726  : 		{	// construct _Ty(_Types...) at _Ptr

	npad	2
	push	ebp
	mov	ebp, esp

; 710  : 		::new (static_cast<void *>(_Ptr))

	mov	ecx, DWORD PTR __Ptr$[ebp]
	test	ecx, ecx
	je	SHORT $LN8@construct
	mov	eax, DWORD PTR _<_Args_0>$[ebp]
	mov	eax, DWORD PTR [eax]
	mov	DWORD PTR [ecx], eax
$LN8@construct:

; 727  : 		_Construct1(_Uses_default_construct_t<_Unwrap_alloc_t<_Alloc>, _Ty *, _Types...>(),
; 728  : 			_Al, _Ptr, _STD forward<_Types>(_Args)...);
; 729  : 		}

	pop	ebp
	ret	0
??$construct@V?$_List_unchecked_const_iterator@V?$_List_val@U?$_List_simple_types@PAUHINSTANCE__@@@std@@@std@@U_Iterator_base0@2@@std@@V12@@?$allocator_traits@U?$_Wrap_alloc@V?$allocator@V?$_List_unchecked_const_iterator@V?$_List_val@U?$_List_simple_types@PAUHINSTANCE__@@@std@@@std@@U_Iterator_base0@2@@std@@@std@@@std@@@std@@SAXAAU?$_Wrap_alloc@V?$allocator@V?$_List_unchecked_const_iterator@V?$_List_val@U?$_List_simple_types@PAUHINSTANCE__@@@std@@@std@@U_Iterator_base0@2@@std@@@std@@@1@PAV?$_List_unchecked_const_iterator@V?$_List_val@U?$_List_simple_types@PAUHINSTANCE__@@@std@@@std@@U_Iterator_base0@2@@1@$$QAV31@@Z ENDP ; std::allocator_traits<std::_Wrap_alloc<std::allocator<std::_List_unchecked_const_iterator<std::_List_val<std::_List_simple_types<HINSTANCE__ *> >,std::_Iterator_base0> > > >::construct<std::_List_unchecked_const_iterator<std::_List_val<std::_List_simple_types<HINSTANCE__ *> >,std::_Iterator_base0>,std::_List_unchecked_const_iterator<std::_List_val<std::_List_simple_types<HINSTANCE__ *> >,std::_Iterator_base0> >
_TEXT	ENDS
; Function compile flags: /Ogtp
; File c:\program files (x86)\microsoft visual studio\2017\community\vc\tools\msvc\14.10.25017\include\type_traits
;	COMDAT ??$forward@V?$_List_unchecked_const_iterator@V?$_List_val@U?$_List_simple_types@PAUHINSTANCE__@@@std@@@std@@U_Iterator_base0@2@@std@@@std@@YA$$QAV?$_List_unchecked_const_iterator@V?$_List_val@U?$_List_simple_types@PAUHINSTANCE__@@@std@@@std@@U_Iterator_base0@2@@0@AAV10@@Z
_TEXT	SEGMENT
__Arg$ = 8						; size = 4
??$forward@V?$_List_unchecked_const_iterator@V?$_List_val@U?$_List_simple_types@PAUHINSTANCE__@@@std@@@std@@U_Iterator_base0@2@@std@@@std@@YA$$QAV?$_List_unchecked_const_iterator@V?$_List_val@U?$_List_simple_types@PAUHINSTANCE__@@@std@@@std@@U_Iterator_base0@2@@0@AAV10@@Z PROC ; std::forward<std::_List_unchecked_const_iterator<std::_List_val<std::_List_simple_types<HINSTANCE__ *> >,std::_Iterator_base0> >, COMDAT

; 1334 : 	{	// forward an lvalue as either an lvalue or an rvalue

	npad	2
	push	ebp
	mov	ebp, esp

; 1335 : 	return (static_cast<_Ty&&>(_Arg));

	mov	eax, DWORD PTR __Arg$[ebp]

; 1336 : 	}

	pop	ebp
	ret	0
??$forward@V?$_List_unchecked_const_iterator@V?$_List_val@U?$_List_simple_types@PAUHINSTANCE__@@@std@@@std@@U_Iterator_base0@2@@std@@@std@@YA$$QAV?$_List_unchecked_const_iterator@V?$_List_val@U?$_List_simple_types@PAUHINSTANCE__@@@std@@@std@@U_Iterator_base0@2@@0@AAV10@@Z ENDP ; std::forward<std::_List_unchecked_const_iterator<std::_List_val<std::_List_simple_types<HINSTANCE__ *> >,std::_Iterator_base0> >
_TEXT	ENDS
; Function compile flags: /Ogtp
; File c:\program files (x86)\microsoft visual studio\2017\community\vc\tools\msvc\14.10.25017\include\xmemory0
;	COMDAT ??$construct@V?$_List_unchecked_const_iterator@V?$_List_val@U?$_List_simple_types@PAUHINSTANCE__@@@std@@@std@@U_Iterator_base0@2@@std@@ABV12@@?$allocator_traits@U?$_Wrap_alloc@V?$allocator@V?$_List_unchecked_const_iterator@V?$_List_val@U?$_List_simple_types@PAUHINSTANCE__@@@std@@@std@@U_Iterator_base0@2@@std@@@std@@@std@@@std@@SAXAAU?$_Wrap_alloc@V?$allocator@V?$_List_unchecked_const_iterator@V?$_List_val@U?$_List_simple_types@PAUHINSTANCE__@@@std@@@std@@U_Iterator_base0@2@@std@@@std@@@1@PAV?$_List_unchecked_const_iterator@V?$_List_val@U?$_List_simple_types@PAUHINSTANCE__@@@std@@@std@@U_Iterator_base0@2@@1@ABV31@@Z
_TEXT	SEGMENT
__Al$ = 8						; size = 4
__Ptr$ = 12						; size = 4
_<_Args_0>$ = 16					; size = 4
??$construct@V?$_List_unchecked_const_iterator@V?$_List_val@U?$_List_simple_types@PAUHINSTANCE__@@@std@@@std@@U_Iterator_base0@2@@std@@ABV12@@?$allocator_traits@U?$_Wrap_alloc@V?$allocator@V?$_List_unchecked_const_iterator@V?$_List_val@U?$_List_simple_types@PAUHINSTANCE__@@@std@@@std@@U_Iterator_base0@2@@std@@@std@@@std@@@std@@SAXAAU?$_Wrap_alloc@V?$allocator@V?$_List_unchecked_const_iterator@V?$_List_val@U?$_List_simple_types@PAUHINSTANCE__@@@std@@@std@@U_Iterator_base0@2@@std@@@std@@@1@PAV?$_List_unchecked_const_iterator@V?$_List_val@U?$_List_simple_types@PAUHINSTANCE__@@@std@@@std@@U_Iterator_base0@2@@1@ABV31@@Z PROC ; std::allocator_traits<std::_Wrap_alloc<std::allocator<std::_List_unchecked_const_iterator<std::_List_val<std::_List_simple_types<HINSTANCE__ *> >,std::_Iterator_base0> > > >::construct<std::_List_unchecked_const_iterator<std::_List_val<std::_List_simple_types<HINSTANCE__ *> >,std::_Iterator_base0>,std::_List_unchecked_const_iterator<std::_List_val<std::_List_simple_types<HINSTANCE__ *> >,std::_Iterator_base0> const &>, COMDAT

; 726  : 		{	// construct _Ty(_Types...) at _Ptr

	npad	2
	push	ebp
	mov	ebp, esp

; 710  : 		::new (static_cast<void *>(_Ptr))

	mov	ecx, DWORD PTR __Ptr$[ebp]
	test	ecx, ecx
	je	SHORT $LN8@construct
	mov	eax, DWORD PTR _<_Args_0>$[ebp]
	mov	eax, DWORD PTR [eax]
	mov	DWORD PTR [ecx], eax
$LN8@construct:

; 727  : 		_Construct1(_Uses_default_construct_t<_Unwrap_alloc_t<_Alloc>, _Ty *, _Types...>(),
; 728  : 			_Al, _Ptr, _STD forward<_Types>(_Args)...);
; 729  : 		}

	pop	ebp
	ret	0
??$construct@V?$_List_unchecked_const_iterator@V?$_List_val@U?$_List_simple_types@PAUHINSTANCE__@@@std@@@std@@U_Iterator_base0@2@@std@@ABV12@@?$allocator_traits@U?$_Wrap_alloc@V?$allocator@V?$_List_unchecked_const_iterator@V?$_List_val@U?$_List_simple_types@PAUHINSTANCE__@@@std@@@std@@U_Iterator_base0@2@@std@@@std@@@std@@@std@@SAXAAU?$_Wrap_alloc@V?$allocator@V?$_List_unchecked_const_iterator@V?$_List_val@U?$_List_simple_types@PAUHINSTANCE__@@@std@@@std@@U_Iterator_base0@2@@std@@@std@@@1@PAV?$_List_unchecked_const_iterator@V?$_List_val@U?$_List_simple_types@PAUHINSTANCE__@@@std@@@std@@U_Iterator_base0@2@@1@ABV31@@Z ENDP ; std::allocator_traits<std::_Wrap_alloc<std::allocator<std::_List_unchecked_const_iterator<std::_List_val<std::_List_simple_types<HINSTANCE__ *> >,std::_Iterator_base0> > > >::construct<std::_List_unchecked_const_iterator<std::_List_val<std::_List_simple_types<HINSTANCE__ *> >,std::_Iterator_base0>,std::_List_unchecked_const_iterator<std::_List_val<std::_List_simple_types<HINSTANCE__ *> >,std::_Iterator_base0> const &>
_TEXT	ENDS
; Function compile flags: /Ogtp
; File c:\program files (x86)\microsoft visual studio\2017\community\vc\tools\msvc\14.10.25017\include\type_traits
;	COMDAT ??$forward@ABV?$_List_unchecked_const_iterator@V?$_List_val@U?$_List_simple_types@PAUHINSTANCE__@@@std@@@std@@U_Iterator_base0@2@@std@@@std@@YAABV?$_List_unchecked_const_iterator@V?$_List_val@U?$_List_simple_types@PAUHINSTANCE__@@@std@@@std@@U_Iterator_base0@2@@0@ABV10@@Z
_TEXT	SEGMENT
__Arg$ = 8						; size = 4
??$forward@ABV?$_List_unchecked_const_iterator@V?$_List_val@U?$_List_simple_types@PAUHINSTANCE__@@@std@@@std@@U_Iterator_base0@2@@std@@@std@@YAABV?$_List_unchecked_const_iterator@V?$_List_val@U?$_List_simple_types@PAUHINSTANCE__@@@std@@@std@@U_Iterator_base0@2@@0@ABV10@@Z PROC ; std::forward<std::_List_unchecked_const_iterator<std::_List_val<std::_List_simple_types<HINSTANCE__ *> >,std::_Iterator_base0> const &>, COMDAT

; 1334 : 	{	// forward an lvalue as either an lvalue or an rvalue

	npad	2
	push	ebp
	mov	ebp, esp

; 1335 : 	return (static_cast<_Ty&&>(_Arg));

	mov	eax, DWORD PTR __Arg$[ebp]

; 1336 : 	}

	pop	ebp
	ret	0
??$forward@ABV?$_List_unchecked_const_iterator@V?$_List_val@U?$_List_simple_types@PAUHINSTANCE__@@@std@@@std@@U_Iterator_base0@2@@std@@@std@@YAABV?$_List_unchecked_const_iterator@V?$_List_val@U?$_List_simple_types@PAUHINSTANCE__@@@std@@@std@@U_Iterator_base0@2@@0@ABV10@@Z ENDP ; std::forward<std::_List_unchecked_const_iterator<std::_List_val<std::_List_simple_types<HINSTANCE__ *> >,std::_Iterator_base0> const &>
_TEXT	ENDS
; Function compile flags: /Ogtp
; File c:\program files (x86)\microsoft visual studio\2017\community\vc\tools\msvc\14.10.25017\include\xmemory0
;	COMDAT ??$destroy@V?$_List_unchecked_const_iterator@V?$_List_val@U?$_List_simple_types@PAUHINSTANCE__@@@std@@@std@@U_Iterator_base0@2@@std@@@?$allocator_traits@U?$_Wrap_alloc@V?$allocator@V?$_List_unchecked_const_iterator@V?$_List_val@U?$_List_simple_types@PAUHINSTANCE__@@@std@@@std@@U_Iterator_base0@2@@std@@@std@@@std@@@std@@SAXAAU?$_Wrap_alloc@V?$allocator@V?$_List_unchecked_const_iterator@V?$_List_val@U?$_List_simple_types@PAUHINSTANCE__@@@std@@@std@@U_Iterator_base0@2@@std@@@std@@@1@PAV?$_List_unchecked_const_iterator@V?$_List_val@U?$_List_simple_types@PAUHINSTANCE__@@@std@@@std@@U_Iterator_base0@2@@1@@Z
_TEXT	SEGMENT
__Al$ = 8						; size = 4
__Ptr$ = 12						; size = 4
??$destroy@V?$_List_unchecked_const_iterator@V?$_List_val@U?$_List_simple_types@PAUHINSTANCE__@@@std@@@std@@U_Iterator_base0@2@@std@@@?$allocator_traits@U?$_Wrap_alloc@V?$allocator@V?$_List_unchecked_const_iterator@V?$_List_val@U?$_List_simple_types@PAUHINSTANCE__@@@std@@@std@@U_Iterator_base0@2@@std@@@std@@@std@@@std@@SAXAAU?$_Wrap_alloc@V?$allocator@V?$_List_unchecked_const_iterator@V?$_List_val@U?$_List_simple_types@PAUHINSTANCE__@@@std@@@std@@U_Iterator_base0@2@@std@@@std@@@1@PAV?$_List_unchecked_const_iterator@V?$_List_val@U?$_List_simple_types@PAUHINSTANCE__@@@std@@@std@@U_Iterator_base0@2@@1@@Z PROC ; std::allocator_traits<std::_Wrap_alloc<std::allocator<std::_List_unchecked_const_iterator<std::_List_val<std::_List_simple_types<HINSTANCE__ *> >,std::_Iterator_base0> > > >::destroy<std::_List_unchecked_const_iterator<std::_List_val<std::_List_simple_types<HINSTANCE__ *> >,std::_Iterator_base0> >, COMDAT

; 746  : 		_Destroy1(_Al, _Ptr, _Uses_default_destroy_t<_Unwrap_alloc_t<_Alloc>, _Ty *>());
; 747  : 		}

	ret	0
??$destroy@V?$_List_unchecked_const_iterator@V?$_List_val@U?$_List_simple_types@PAUHINSTANCE__@@@std@@@std@@U_Iterator_base0@2@@std@@@?$allocator_traits@U?$_Wrap_alloc@V?$allocator@V?$_List_unchecked_const_iterator@V?$_List_val@U?$_List_simple_types@PAUHINSTANCE__@@@std@@@std@@U_Iterator_base0@2@@std@@@std@@@std@@@std@@SAXAAU?$_Wrap_alloc@V?$allocator@V?$_List_unchecked_const_iterator@V?$_List_val@U?$_List_simple_types@PAUHINSTANCE__@@@std@@@std@@U_Iterator_base0@2@@std@@@std@@@1@PAV?$_List_unchecked_const_iterator@V?$_List_val@U?$_List_simple_types@PAUHINSTANCE__@@@std@@@std@@U_Iterator_base0@2@@1@@Z ENDP ; std::allocator_traits<std::_Wrap_alloc<std::allocator<std::_List_unchecked_const_iterator<std::_List_val<std::_List_simple_types<HINSTANCE__ *> >,std::_Iterator_base0> > > >::destroy<std::_List_unchecked_const_iterator<std::_List_val<std::_List_simple_types<HINSTANCE__ *> >,std::_Iterator_base0> >
_TEXT	ENDS
; Function compile flags: /Ogtp
; File c:\program files (x86)\microsoft visual studio\2017\community\vc\tools\msvc\14.10.25017\include\xmemory0
;	COMDAT ??$?0ABV?$allocator@PAUHINSTANCE__@@@std@@@?$_Wrap_alloc@V?$allocator@U?$_List_node@PAUHINSTANCE__@@PAX@std@@@std@@@std@@QAE@ABV?$allocator@PAUHINSTANCE__@@@1@@Z
_TEXT	SEGMENT
__Right$ = 8						; size = 4
??$?0ABV?$allocator@PAUHINSTANCE__@@@std@@@?$_Wrap_alloc@V?$allocator@U?$_List_node@PAUHINSTANCE__@@PAX@std@@@std@@@std@@QAE@ABV?$allocator@PAUHINSTANCE__@@@1@@Z PROC ; std::_Wrap_alloc<std::allocator<std::_List_node<HINSTANCE__ *,void *> > >::_Wrap_alloc<std::allocator<std::_List_node<HINSTANCE__ *,void *> > ><std::allocator<HINSTANCE__ *> const &>, COMDAT
; _this$ = ecx

; 1054 : 		}

	mov	eax, ecx
	ret	4
??$?0ABV?$allocator@PAUHINSTANCE__@@@std@@@?$_Wrap_alloc@V?$allocator@U?$_List_node@PAUHINSTANCE__@@PAX@std@@@std@@@std@@QAE@ABV?$allocator@PAUHINSTANCE__@@@1@@Z ENDP ; std::_Wrap_alloc<std::allocator<std::_List_node<HINSTANCE__ *,void *> > >::_Wrap_alloc<std::allocator<std::_List_node<HINSTANCE__ *,void *> > ><std::allocator<HINSTANCE__ *> const &>
_TEXT	ENDS
; Function compile flags: /Ogtp
; File c:\program files (x86)\microsoft visual studio\2017\community\vc\tools\msvc\14.10.25017\include\type_traits
;	COMDAT ??$forward@_N@std@@YA$$QA_NAA_N@Z
_TEXT	SEGMENT
__Arg$ = 8						; size = 4
??$forward@_N@std@@YA$$QA_NAA_N@Z PROC			; std::forward<bool>, COMDAT

; 1334 : 	{	// forward an lvalue as either an lvalue or an rvalue

	npad	2
	push	ebp
	mov	ebp, esp

; 1335 : 	return (static_cast<_Ty&&>(_Arg));

	mov	eax, DWORD PTR __Arg$[ebp]

; 1336 : 	}

	pop	ebp
	ret	0
??$forward@_N@std@@YA$$QA_NAA_N@Z ENDP			; std::forward<bool>
_TEXT	ENDS
; Function compile flags: /Ogtp
; File c:\program files (x86)\microsoft visual studio\2017\community\vc\tools\msvc\14.10.25017\include\xhash
; File c:\program files (x86)\microsoft visual studio\2017\community\vc\tools\msvc\14.10.25017\include\xstddef
; File c:\program files (x86)\microsoft visual studio\2017\community\vc\tools\msvc\14.10.25017\include\xhash
; File c:\program files (x86)\microsoft visual studio\2017\community\vc\tools\msvc\14.10.25017\include\xstddef
; File c:\program files (x86)\microsoft visual studio\2017\community\vc\tools\msvc\14.10.25017\include\list
; File c:\program files (x86)\microsoft visual studio\2017\community\vc\tools\msvc\14.10.25017\include\xstddef
; File c:\program files (x86)\microsoft visual studio\2017\community\vc\tools\msvc\14.10.25017\include\xhash
; File c:\program files (x86)\microsoft visual studio\2017\community\vc\tools\msvc\14.10.25017\include\list
; File c:\program files (x86)\microsoft visual studio\2017\community\vc\tools\msvc\14.10.25017\include\vector
; File c:\program files (x86)\microsoft visual studio\2017\community\vc\tools\msvc\14.10.25017\include\list
; File c:\program files (x86)\microsoft visual studio\2017\community\vc\tools\msvc\14.10.25017\include\xhash
; File c:\program files (x86)\microsoft visual studio\2017\community\vc\tools\msvc\14.10.25017\include\list
; File c:\program files (x86)\microsoft visual studio\2017\community\vc\tools\msvc\14.10.25017\include\xhash
; File c:\program files (x86)\microsoft visual studio\2017\community\vc\tools\msvc\14.10.25017\include\list
; File c:\program files (x86)\microsoft visual studio\2017\community\vc\tools\msvc\14.10.25017\include\xhash
; File c:\program files (x86)\microsoft visual studio\2017\community\vc\tools\msvc\14.10.25017\include\xstddef
; File c:\program files (x86)\microsoft visual studio\2017\community\vc\tools\msvc\14.10.25017\include\list
; File c:\program files (x86)\microsoft visual studio\2017\community\vc\tools\msvc\14.10.25017\include\xstddef
; File c:\program files (x86)\microsoft visual studio\2017\community\vc\tools\msvc\14.10.25017\include\xhash
; File c:\program files (x86)\microsoft visual studio\2017\community\vc\tools\msvc\14.10.25017\include\list
; File c:\program files (x86)\microsoft visual studio\2017\community\vc\tools\msvc\14.10.25017\include\xhash
; File c:\program files (x86)\microsoft visual studio\2017\community\vc\tools\msvc\14.10.25017\include\list
; File c:\program files (x86)\microsoft visual studio\2017\community\vc\tools\msvc\14.10.25017\include\xhash
; File c:\program files (x86)\microsoft visual studio\2017\community\vc\tools\msvc\14.10.25017\include\list
; File c:\program files (x86)\microsoft visual studio\2017\community\vc\tools\msvc\14.10.25017\include\xhash
; File c:\program files (x86)\microsoft visual studio\2017\community\vc\tools\msvc\14.10.25017\include\list
; File c:\program files (x86)\microsoft visual studio\2017\community\vc\tools\msvc\14.10.25017\include\xmemory0
; File c:\program files (x86)\microsoft visual studio\2017\community\vc\tools\msvc\14.10.25017\include\list
; File c:\program files (x86)\microsoft visual studio\2017\community\vc\tools\msvc\14.10.25017\include\xmemory0
; File c:\program files (x86)\microsoft visual studio\2017\community\vc\tools\msvc\14.10.25017\include\utility
; File c:\program files (x86)\microsoft visual studio\2017\community\vc\tools\msvc\14.10.25017\include\xmemory0
; File c:\program files (x86)\microsoft visual studio\2017\community\vc\tools\msvc\14.10.25017\include\utility
; File c:\program files (x86)\microsoft visual studio\2017\community\vc\tools\msvc\14.10.25017\include\xhash
; File c:\program files (x86)\microsoft visual studio\2017\community\vc\tools\msvc\14.10.25017\include\list
; File c:\program files (x86)\microsoft visual studio\2017\community\vc\tools\msvc\14.10.25017\include\xhash
; File c:\program files (x86)\microsoft visual studio\2017\community\vc\tools\msvc\14.10.25017\include\list
; File c:\program files (x86)\microsoft visual studio\2017\community\vc\tools\msvc\14.10.25017\include\xhash
; File c:\program files (x86)\microsoft visual studio\2017\community\vc\tools\msvc\14.10.25017\include\vector
; File c:\program files (x86)\microsoft visual studio\2017\community\vc\tools\msvc\14.10.25017\include\list
; File c:\program files (x86)\microsoft visual studio\2017\community\vc\tools\msvc\14.10.25017\include\xhash
; File c:\program files (x86)\microsoft visual studio\2017\community\vc\tools\msvc\14.10.25017\include\utility
; File c:\program files (x86)\microsoft visual studio\2017\community\vc\tools\msvc\14.10.25017\include\xhash
; File c:\program files (x86)\microsoft visual studio\2017\community\vc\tools\msvc\14.10.25017\include\utility
; File c:\program files (x86)\microsoft visual studio\2017\community\vc\tools\msvc\14.10.25017\include\xhash
; File c:\program files (x86)\microsoft visual studio\2017\community\vc\tools\msvc\14.10.25017\include\utility
; File c:\program files (x86)\microsoft visual studio\2017\community\vc\tools\msvc\14.10.25017\include\xhash
;	COMDAT ??$_Insert@ABQAUHINSTANCE__@@V?$_List_unchecked_const_iterator@V?$_List_val@U?$_List_simple_types@PAUHINSTANCE__@@@std@@@std@@U_Iterator_base0@2@@std@@@?$_Hash@V?$_Uset_traits@PAUHINSTANCE__@@V?$_Uhash_compare@PAUHINSTANCE__@@U?$hash@PAUHINSTANCE__@@@std@@U?$equal_to@PAUHINSTANCE__@@@3@@std@@V?$allocator@PAUHINSTANCE__@@@3@$0A@@std@@@std@@IAE?AU?$pair@V?$_List_const_iterator@V?$_List_val@U?$_List_simple_types@PAUHINSTANCE__@@@std@@@std@@@std@@_N@1@ABQAUHINSTANCE__@@V?$_List_unchecked_const_iterator@V?$_List_val@U?$_List_simple_types@PAUHINSTANCE__@@@std@@@std@@U_Iterator_base0@2@@1@@Z
_TEXT	SEGMENT
_this$ = -24						; size = 4
__Plist$ = -20						; size = 4
__$EHRec$ = -16						; size = 16
$T2 = 8							; size = 4
___$ReturnUdt$ = 8					; size = 4
tv1489 = 12						; size = 4
$T3 = 12						; size = 4
__Val$ = 12						; size = 4
__Pnode$ = 16						; size = 4
??$_Insert@ABQAUHINSTANCE__@@V?$_List_unchecked_const_iterator@V?$_List_val@U?$_List_simple_types@PAUHINSTANCE__@@@std@@@std@@U_Iterator_base0@2@@std@@@?$_Hash@V?$_Uset_traits@PAUHINSTANCE__@@V?$_Uhash_compare@PAUHINSTANCE__@@U?$hash@PAUHINSTANCE__@@@std@@U?$equal_to@PAUHINSTANCE__@@@3@@std@@V?$allocator@PAUHINSTANCE__@@@3@$0A@@std@@@std@@IAE?AU?$pair@V?$_List_const_iterator@V?$_List_val@U?$_List_simple_types@PAUHINSTANCE__@@@std@@@std@@@std@@_N@1@ABQAUHINSTANCE__@@V?$_List_unchecked_const_iterator@V?$_List_val@U?$_List_simple_types@PAUHINSTANCE__@@@std@@@std@@U_Iterator_base0@2@@1@@Z PROC ; std::_Hash<std::_Uset_traits<HINSTANCE__ *,std::_Uhash_compare<HINSTANCE__ *,std::hash<HINSTANCE__ *>,std::equal_to<HINSTANCE__ *> >,std::allocator<HINSTANCE__ *>,0> >::_Insert<HINSTANCE__ * const &,std::_List_unchecked_const_iterator<std::_List_val<std::_List_simple_types<HINSTANCE__ *> >,std::_Iterator_base0> >, COMDAT
; _this$ = ecx

; 761  : 		{	// try to insert existing node with value _Val

	npad	2
	push	ebp
	mov	ebp, esp
	push	-1
	push	__ehhandler$??$_Insert@ABQAUHINSTANCE__@@V?$_List_unchecked_const_iterator@V?$_List_val@U?$_List_simple_types@PAUHINSTANCE__@@@std@@@std@@U_Iterator_base0@2@@std@@@?$_Hash@V?$_Uset_traits@PAUHINSTANCE__@@V?$_Uhash_compare@PAUHINSTANCE__@@U?$hash@PAUHINSTANCE__@@@std@@U?$equal_to@PAUHINSTANCE__@@@3@@std@@V?$allocator@PAUHINSTANCE__@@@3@$0A@@std@@@std@@IAE?AU?$pair@V?$_List_const_iterator@V?$_List_val@U?$_List_simple_types@PAUHINSTANCE__@@@std@@@std@@@std@@_N@1@ABQAUHINSTANCE__@@V?$_List_unchecked_const_iterator@V?$_List_val@U?$_List_simple_types@PAUHINSTANCE__@@@std@@@std@@U_Iterator_base0@2@@1@@Z
	mov	eax, DWORD PTR fs:0
	push	eax
	mov	DWORD PTR fs:0, esp
	sub	esp, 12					; 0000000cH
	push	ebx
	push	esi
	push	edi
; File c:\program files (x86)\microsoft visual studio\2017\community\vc\tools\msvc\14.10.25017\include\xstddef

; 346  : 		_Val ^= (size_t)_First[_Next];

	mov	edi, DWORD PTR __Val$[ebp]
; File c:\program files (x86)\microsoft visual studio\2017\community\vc\tools\msvc\14.10.25017\include\xhash

; 761  : 		{	// try to insert existing node with value _Val

	mov	ebx, ecx
	mov	DWORD PTR __$EHRec$[ebp], esp
	mov	DWORD PTR _this$[ebp], ebx

; 762  : 		size_type _Bucket;
; 763  : 		_Unchecked_iterator _Where;
; 764  : 
; 765  : 		_TRY_BEGIN

	mov	DWORD PTR __$EHRec$[ebp+12], 0
; File c:\program files (x86)\microsoft visual studio\2017\community\vc\tools\msvc\14.10.25017\include\xstddef

; 346  : 		_Val ^= (size_t)_First[_Next];

	movzx	eax, BYTE PTR [edi]
	xor	eax, -2128831035			; 811c9dc5H
; File c:\program files (x86)\microsoft visual studio\2017\community\vc\tools\msvc\14.10.25017\include\list

; 86   : 		return (_Ptr == _Right._Ptr);

	mov	esi, DWORD PTR [ebx+12]
; File c:\program files (x86)\microsoft visual studio\2017\community\vc\tools\msvc\14.10.25017\include\xstddef

; 347  : 		_Val *= _FNV_prime;

	imul	edx, eax, 16777619
	movzx	eax, BYTE PTR [edi+1]
	xor	edx, eax
	movzx	eax, BYTE PTR [edi+2]
	imul	ecx, edx, 16777619
	xor	ecx, eax
	movzx	eax, BYTE PTR [edi+3]
	imul	ecx, ecx, 16777619
	xor	ecx, eax
	imul	eax, ecx, 16777619
; File c:\program files (x86)\microsoft visual studio\2017\community\vc\tools\msvc\14.10.25017\include\xhash

; 912  : 		return (_Traitsobj(_Keyval) & _Mask);

	mov	ecx, DWORD PTR [ebx+24]
	and	ecx, eax
; File c:\program files (x86)\microsoft visual studio\2017\community\vc\tools\msvc\14.10.25017\include\list

; 86   : 		return (_Ptr == _Right._Ptr);

	mov	eax, DWORD PTR [esi+ecx*8]
; File c:\program files (x86)\microsoft visual studio\2017\community\vc\tools\msvc\14.10.25017\include\vector

; 1746 : 		return (this->_Myfirst()[_Pos]);

	lea	edx, DWORD PTR [ecx*8]
	mov	DWORD PTR tv1489[ebp], edx
; File c:\program files (x86)\microsoft visual studio\2017\community\vc\tools\msvc\14.10.25017\include\list

; 86   : 		return (_Ptr == _Right._Ptr);

	cmp	eax, DWORD PTR [ebx+4]
; File c:\program files (x86)\microsoft visual studio\2017\community\vc\tools\msvc\14.10.25017\include\xhash

; 846  : 		if (_Vec_lo(_Bucket) == _Unchecked_end())

	jne	SHORT $LN43@Insert

; 847  : 			return (_Unchecked_end());

	mov	esi, DWORD PTR [ebx+4]
	jmp	SHORT $LN44@Insert
$LN43@Insert:
; File c:\program files (x86)\microsoft visual studio\2017\community\vc\tools\msvc\14.10.25017\include\list

; 530  : 		return ((_Nodepref)_Pnode->_Next);

	mov	esi, DWORD PTR [esi+edx+4]
; File c:\program files (x86)\microsoft visual studio\2017\community\vc\tools\msvc\14.10.25017\include\xhash

; 851  : 			return (++_Ans);

	mov	esi, DWORD PTR [esi]
$LN44@Insert:
; File c:\program files (x86)\microsoft visual studio\2017\community\vc\tools\msvc\14.10.25017\include\list

; 86   : 		return (_Ptr == _Right._Ptr);

	cmp	esi, eax
; File c:\program files (x86)\microsoft visual studio\2017\community\vc\tools\msvc\14.10.25017\include\xhash

; 768  : 		for (; _Where != _Begin(_Bucket); )

	je	SHORT $LN3@Insert
; File c:\program files (x86)\microsoft visual studio\2017\community\vc\tools\msvc\14.10.25017\include\xstddef

; 220  : 		return (_Left == _Right);

	mov	ecx, DWORD PTR [edi]
	npad	1
$LL2@Insert:
; File c:\program files (x86)\microsoft visual studio\2017\community\vc\tools\msvc\14.10.25017\include\list

; 73   : 		_Ptr = _Mylist::_Prevnode(_Ptr);

	mov	esi, DWORD PTR [esi+4]
; File c:\program files (x86)\microsoft visual studio\2017\community\vc\tools\msvc\14.10.25017\include\xstddef

; 220  : 		return (_Left == _Right);

	cmp	ecx, DWORD PTR [esi+8]
; File c:\program files (x86)\microsoft visual studio\2017\community\vc\tools\msvc\14.10.25017\include\xhash

; 772  : 			if (_Traitsobj(_Traits::_Kfn(_Val),

	je	SHORT $LN6@Insert
; File c:\program files (x86)\microsoft visual studio\2017\community\vc\tools\msvc\14.10.25017\include\list

; 86   : 		return (_Ptr == _Right._Ptr);

	cmp	esi, eax
; File c:\program files (x86)\microsoft visual studio\2017\community\vc\tools\msvc\14.10.25017\include\xhash

; 768  : 		for (; _Where != _Begin(_Bucket); )

	jne	SHORT $LL2@Insert
$LN3@Insert:

; 739  : 		return (_Plist);

	mov	edi, DWORD PTR __Pnode$[ebp]
	mov	DWORD PTR __Plist$[ebp], edi
; File c:\program files (x86)\microsoft visual studio\2017\community\vc\tools\msvc\14.10.25017\include\list

; 60   : 		_Ptr = _Mylist::_Nextnode(_Ptr);

	mov	eax, DWORD PTR [edi]

; 86   : 		return (_Ptr == _Right._Ptr);

	cmp	esi, eax
; File c:\program files (x86)\microsoft visual studio\2017\community\vc\tools\msvc\14.10.25017\include\xhash

; 799  : 		if (_Where != ++_Next)	// move element into place

	je	SHORT $LN10@Insert
; File c:\program files (x86)\microsoft visual studio\2017\community\vc\tools\msvc\14.10.25017\include\list

; 530  : 		return ((_Nodepref)_Pnode->_Next);

	mov	ecx, DWORD PTR [edi+4]

; 1910 : 		this->_Nextnode(this->_Prevnode(_First._Mynode())) =

	mov	DWORD PTR [ecx], eax

; 530  : 		return ((_Nodepref)_Pnode->_Next);

	mov	ecx, DWORD PTR [eax+4]

; 1912 : 		this->_Nextnode(this->_Prevnode(_Last._Mynode())) =

	mov	DWORD PTR [ecx], esi

; 530  : 		return ((_Nodepref)_Pnode->_Next);

	mov	ecx, DWORD PTR [esi+4]

; 1914 : 		this->_Nextnode(this->_Prevnode(_Where._Mynode())) =

	mov	DWORD PTR [ecx], edi

; 1915 : 			_First._Mynode();
; 1916 : 
; 1917 : 		_Nodeptr _Pnode = this->_Prevnode(_Where._Mynode());

	mov	edx, DWORD PTR [esi+4]

; 1918 : 		this->_Prevnode(_Where._Mynode()) =

	mov	ecx, DWORD PTR [eax+4]
	mov	DWORD PTR [esi+4], ecx

; 1919 : 			this->_Prevnode(_Last._Mynode());
; 1920 : 		this->_Prevnode(_Last._Mynode()) =

	mov	ecx, DWORD PTR [edi+4]
	mov	DWORD PTR [eax+4], ecx

; 1921 : 			this->_Prevnode(_First._Mynode());
; 1922 : 		this->_Prevnode(_First._Mynode()) = _Pnode;

	mov	DWORD PTR [edi+4], edx
	mov	edx, DWORD PTR tv1489[ebp]
$LN10@Insert:

; 86   : 		return (_Ptr == _Right._Ptr);

	mov	ecx, DWORD PTR [ebx+12]
	add	ecx, edx
	mov	eax, DWORD PTR [ecx]
	cmp	eax, DWORD PTR [ebx+4]
; File c:\program files (x86)\microsoft visual studio\2017\community\vc\tools\msvc\14.10.25017\include\xhash

; 883  : 		if (_Vec_lo(_Bucket) == _Unchecked_end())

	jne	SHORT $LN453@Insert

; 884  : 			{	// make bucket non-empty
; 885  : 			_Vec_lo(_Bucket) = _Plist;

	mov	DWORD PTR [ecx], edi

; 886  : 			_Vec_hi(_Bucket) = _Plist;

	mov	eax, DWORD PTR [ebx+12]
	mov	DWORD PTR [eax+edx+4], edi

; 888  : 		else if (_Vec_lo(_Bucket) == _Where)

	jmp	SHORT $LN457@Insert
$LN6@Insert:
; File c:\program files (x86)\microsoft visual studio\2017\community\vc\tools\msvc\14.10.25017\include\list

; 96   : 		return (_Ptr);

	mov	edx, DWORD PTR __Pnode$[ebp]
; File c:\program files (x86)\microsoft visual studio\2017\community\vc\tools\msvc\14.10.25017\include\xmemory0

; 140  : 	::operator delete(_Ptr);

	push	edx
; File c:\program files (x86)\microsoft visual studio\2017\community\vc\tools\msvc\14.10.25017\include\list

; 530  : 		return ((_Nodepref)_Pnode->_Next);

	mov	ecx, DWORD PTR [edx+4]

; 1490 : 		this->_Nextnode(this->_Prevnode(_Pnode)) =

	mov	eax, DWORD PTR [edx]
	mov	DWORD PTR [ecx], eax

; 1491 : 			this->_Nextnode(_Pnode);
; 1492 : 		this->_Prevnode(this->_Nextnode(_Pnode)) =

	mov	ecx, DWORD PTR [edx]
	mov	eax, DWORD PTR [edx+4]
	mov	DWORD PTR [ecx+4], eax

; 1493 : 			this->_Prevnode(_Pnode);
; 1494 : 
; 1495 : 		--this->_Mysize();

	dec	DWORD PTR [ebx+8]
; File c:\program files (x86)\microsoft visual studio\2017\community\vc\tools\msvc\14.10.25017\include\xmemory0

; 140  : 	::operator delete(_Ptr);

	call	??3@YAXPAX@Z				; operator delete
; File c:\program files (x86)\microsoft visual studio\2017\community\vc\tools\msvc\14.10.25017\include\utility

; 187  : 		: first(_STD forward<_Other1>(_Val1)),

	mov	eax, DWORD PTR ___$ReturnUdt$[ebp]
; File c:\program files (x86)\microsoft visual studio\2017\community\vc\tools\msvc\14.10.25017\include\xmemory0

; 140  : 	::operator delete(_Ptr);

	add	esp, 4
; File c:\program files (x86)\microsoft visual studio\2017\community\vc\tools\msvc\14.10.25017\include\utility

; 187  : 		: first(_STD forward<_Other1>(_Val1)),

	mov	DWORD PTR [eax], esi

; 188  : 				second(_STD forward<_Other2>(_Val2))

	mov	BYTE PTR [eax+4], 0
; File c:\program files (x86)\microsoft visual studio\2017\community\vc\tools\msvc\14.10.25017\include\xhash

; 812  : 		}

	mov	ecx, DWORD PTR __$EHRec$[ebp+4]
	mov	DWORD PTR fs:0, ecx
	pop	edi
	pop	esi
	pop	ebx
	mov	esp, ebp
	pop	ebp
	ret	12					; 0000000cH
$LN453@Insert:
; File c:\program files (x86)\microsoft visual studio\2017\community\vc\tools\msvc\14.10.25017\include\list

; 86   : 		return (_Ptr == _Right._Ptr);

	cmp	eax, esi
; File c:\program files (x86)\microsoft visual studio\2017\community\vc\tools\msvc\14.10.25017\include\xhash

; 888  : 		else if (_Vec_lo(_Bucket) == _Where)

	jne	SHORT $LN455@Insert

; 889  : 			_Vec_lo(_Bucket) = _Plist;	// move beginning back one element

	mov	DWORD PTR [ecx], edi

; 890  : 		else if (++_Vec_hi(_Bucket) != _Plist)	// move end up one element

	jmp	SHORT $LN457@Insert
$LN455@Insert:
; File c:\program files (x86)\microsoft visual studio\2017\community\vc\tools\msvc\14.10.25017\include\list

; 530  : 		return ((_Nodepref)_Pnode->_Next);

	mov	eax, DWORD PTR [ecx+4]

; 60   : 		_Ptr = _Mylist::_Nextnode(_Ptr);

	mov	eax, DWORD PTR [eax]
	mov	DWORD PTR [ecx+4], eax

; 86   : 		return (_Ptr == _Right._Ptr);

	cmp	eax, edi
; File c:\program files (x86)\microsoft visual studio\2017\community\vc\tools\msvc\14.10.25017\include\xhash

; 890  : 		else if (++_Vec_hi(_Bucket) != _Plist)	// move end up one element

	je	SHORT $LN457@Insert
; File c:\program files (x86)\microsoft visual studio\2017\community\vc\tools\msvc\14.10.25017\include\vector

; 1746 : 		return (this->_Myfirst()[_Pos]);

	mov	ecx, DWORD PTR [ebx+12]
; File c:\program files (x86)\microsoft visual studio\2017\community\vc\tools\msvc\14.10.25017\include\list

; 73   : 		_Ptr = _Mylist::_Prevnode(_Ptr);

	mov	eax, DWORD PTR [ecx+edx+4]
	mov	eax, DWORD PTR [eax+4]
	mov	DWORD PTR [ecx+edx+4], eax
$LN457@Insert:
; File c:\program files (x86)\microsoft visual studio\2017\community\vc\tools\msvc\14.10.25017\include\xhash

; 805  : 		_Check_size();

	mov	ecx, ebx
	mov	DWORD PTR __$EHRec$[ebp+12], 2
	call	?_Check_size@?$_Hash@V?$_Uset_traits@PAUHINSTANCE__@@V?$_Uhash_compare@PAUHINSTANCE__@@U?$hash@PAUHINSTANCE__@@@std@@U?$equal_to@PAUHINSTANCE__@@@3@@std@@V?$allocator@PAUHINSTANCE__@@@3@$0A@@std@@@std@@IAEXXZ ; std::_Hash<std::_Uset_traits<HINSTANCE__ *,std::_Uhash_compare<HINSTANCE__ *,std::hash<HINSTANCE__ *>,std::equal_to<HINSTANCE__ *> >,std::allocator<HINSTANCE__ *>,0> >::_Check_size
; File c:\program files (x86)\microsoft visual studio\2017\community\vc\tools\msvc\14.10.25017\include\utility

; 187  : 		: first(_STD forward<_Other1>(_Val1)),

	mov	eax, DWORD PTR ___$ReturnUdt$[ebp]
; File c:\program files (x86)\microsoft visual studio\2017\community\vc\tools\msvc\14.10.25017\include\xhash

; 812  : 		}

	mov	ecx, DWORD PTR __$EHRec$[ebp+4]
; File c:\program files (x86)\microsoft visual studio\2017\community\vc\tools\msvc\14.10.25017\include\utility

; 187  : 		: first(_STD forward<_Other1>(_Val1)),

	mov	DWORD PTR [eax], edi
; File c:\program files (x86)\microsoft visual studio\2017\community\vc\tools\msvc\14.10.25017\include\xhash

; 812  : 		}

	pop	edi
	pop	esi
; File c:\program files (x86)\microsoft visual studio\2017\community\vc\tools\msvc\14.10.25017\include\utility

; 188  : 				second(_STD forward<_Other2>(_Val2))

	mov	BYTE PTR [eax+4], 1
; File c:\program files (x86)\microsoft visual studio\2017\community\vc\tools\msvc\14.10.25017\include\xhash

; 812  : 		}

	mov	DWORD PTR fs:0, ecx
	pop	ebx
	mov	esp, ebp
	pop	ebp
	ret	12					; 0000000cH
__catch$??$_Insert@ABQAUHINSTANCE__@@V?$_List_unchecked_const_iterator@V?$_List_val@U?$_List_simple_types@PAUHINSTANCE__@@@std@@@std@@U_Iterator_base0@2@@std@@@?$_Hash@V?$_Uset_traits@PAUHINSTANCE__@@V?$_Uhash_compare@PAUHINSTANCE__@@U?$hash@PAUHINSTANCE__@@@std@@U?$equal_to@PAUHINSTANCE__@@@3@@std@@V?$allocator@PAUHINSTANCE__@@@3@$0A@@std@@@std@@IAE?AU?$pair@V?$_List_const_iterator@V?$_List_val@U?$_List_simple_types@PAUHINSTANCE__@@@std@@@std@@@std@@_N@1@ABQAUHINSTANCE__@@V?$_List_unchecked_const_iterator@V?$_List_val@U?$_List_simple_types@PAUHINSTANCE__@@@std@@@std@@U_Iterator_base0@2@@1@@Z$2:

; 806  : 		_CATCH_ALL
; 807  : 		erase(_Make_iter(_Plist));

	push	DWORD PTR __Plist$[ebp]
	mov	ecx, DWORD PTR _this$[ebp]
	lea	eax, DWORD PTR $T2[ebp]
	push	eax
	call	?_Make_iter@?$_Hash@V?$_Uset_traits@PAUHINSTANCE__@@V?$_Uhash_compare@PAUHINSTANCE__@@U?$hash@PAUHINSTANCE__@@@std@@U?$equal_to@PAUHINSTANCE__@@@3@@std@@V?$allocator@PAUHINSTANCE__@@@3@$0A@@std@@@std@@QBE?AV?$_List_const_iterator@V?$_List_val@U?$_List_simple_types@PAUHINSTANCE__@@@std@@@std@@@2@V?$_List_unchecked_const_iterator@V?$_List_val@U?$_List_simple_types@PAUHINSTANCE__@@@std@@@std@@U_Iterator_base0@2@@2@@Z ; std::_Hash<std::_Uset_traits<HINSTANCE__ *,std::_Uhash_compare<HINSTANCE__ *,std::hash<HINSTANCE__ *>,std::equal_to<HINSTANCE__ *> >,std::allocator<HINSTANCE__ *>,0> >::_Make_iter
	mov	ecx, DWORD PTR _this$[ebp]
	push	DWORD PTR [eax]
	lea	eax, DWORD PTR $T3[ebp]
	push	eax
	call	?erase@?$_Hash@V?$_Uset_traits@PAUHINSTANCE__@@V?$_Uhash_compare@PAUHINSTANCE__@@U?$hash@PAUHINSTANCE__@@@std@@U?$equal_to@PAUHINSTANCE__@@@3@@std@@V?$allocator@PAUHINSTANCE__@@@3@$0A@@std@@@std@@QAE?AV?$_List_const_iterator@V?$_List_val@U?$_List_simple_types@PAUHINSTANCE__@@@std@@@std@@@2@V32@@Z ; std::_Hash<std::_Uset_traits<HINSTANCE__ *,std::_Uhash_compare<HINSTANCE__ *,std::hash<HINSTANCE__ *>,std::equal_to<HINSTANCE__ *> >,std::allocator<HINSTANCE__ *>,0> >::erase

; 808  : 		_RERAISE;

	push	0
	push	0
	call	__CxxThrowException@8
$LN639@Insert:
$LN638@Insert:
	int	3
_TEXT	ENDS
;	COMDAT text$x
text$x	SEGMENT
__ehhandler$??$_Insert@ABQAUHINSTANCE__@@V?$_List_unchecked_const_iterator@V?$_List_val@U?$_List_simple_types@PAUHINSTANCE__@@@std@@@std@@U_Iterator_base0@2@@std@@@?$_Hash@V?$_Uset_traits@PAUHINSTANCE__@@V?$_Uhash_compare@PAUHINSTANCE__@@U?$hash@PAUHINSTANCE__@@@std@@U?$equal_to@PAUHINSTANCE__@@@3@@std@@V?$allocator@PAUHINSTANCE__@@@3@$0A@@std@@@std@@IAE?AU?$pair@V?$_List_const_iterator@V?$_List_val@U?$_List_simple_types@PAUHINSTANCE__@@@std@@@std@@@std@@_N@1@ABQAUHINSTANCE__@@V?$_List_unchecked_const_iterator@V?$_List_val@U?$_List_simple_types@PAUHINSTANCE__@@@std@@@std@@U_Iterator_base0@2@@1@@Z:
	mov	eax, OFFSET __ehfuncinfo$??$_Insert@ABQAUHINSTANCE__@@V?$_List_unchecked_const_iterator@V?$_List_val@U?$_List_simple_types@PAUHINSTANCE__@@@std@@@std@@U_Iterator_base0@2@@std@@@?$_Hash@V?$_Uset_traits@PAUHINSTANCE__@@V?$_Uhash_compare@PAUHINSTANCE__@@U?$hash@PAUHINSTANCE__@@@std@@U?$equal_to@PAUHINSTANCE__@@@3@@std@@V?$allocator@PAUHINSTANCE__@@@3@$0A@@std@@@std@@IAE?AU?$pair@V?$_List_const_iterator@V?$_List_val@U?$_List_simple_types@PAUHINSTANCE__@@@std@@@std@@@std@@_N@1@ABQAUHINSTANCE__@@V?$_List_unchecked_const_iterator@V?$_List_val@U?$_List_simple_types@PAUHINSTANCE__@@@std@@@std@@U_Iterator_base0@2@@1@@Z
	jmp	___CxxFrameHandler3
text$x	ENDS
??$_Insert@ABQAUHINSTANCE__@@V?$_List_unchecked_const_iterator@V?$_List_val@U?$_List_simple_types@PAUHINSTANCE__@@@std@@@std@@U_Iterator_base0@2@@std@@@?$_Hash@V?$_Uset_traits@PAUHINSTANCE__@@V?$_Uhash_compare@PAUHINSTANCE__@@U?$hash@PAUHINSTANCE__@@@std@@U?$equal_to@PAUHINSTANCE__@@@3@@std@@V?$allocator@PAUHINSTANCE__@@@3@$0A@@std@@@std@@IAE?AU?$pair@V?$_List_const_iterator@V?$_List_val@U?$_List_simple_types@PAUHINSTANCE__@@@std@@@std@@@std@@_N@1@ABQAUHINSTANCE__@@V?$_List_unchecked_const_iterator@V?$_List_val@U?$_List_simple_types@PAUHINSTANCE__@@@std@@@std@@U_Iterator_base0@2@@1@@Z ENDP ; std::_Hash<std::_Uset_traits<HINSTANCE__ *,std::_Uhash_compare<HINSTANCE__ *,std::hash<HINSTANCE__ *>,std::equal_to<HINSTANCE__ *> >,std::allocator<HINSTANCE__ *>,0> >::_Insert<HINSTANCE__ * const &,std::_List_unchecked_const_iterator<std::_List_val<std::_List_simple_types<HINSTANCE__ *> >,std::_Iterator_base0> >
; Function compile flags: /Ogtp
; File c:\program files (x86)\microsoft visual studio\2017\community\vc\tools\msvc\14.10.25017\include\xmemory0
;	COMDAT ??$construct@PAU?$_List_node@PAUHINSTANCE__@@PAX@std@@AAPAU12@@?$_Wrap_alloc@V?$allocator@U?$_List_node@PAUHINSTANCE__@@PAX@std@@@std@@@std@@QAEXPAPAU?$_List_node@PAUHINSTANCE__@@PAX@1@AAPAU21@@Z
_TEXT	SEGMENT
__Ptr$ = 8						; size = 4
_<_Args_0>$ = 12					; size = 4
??$construct@PAU?$_List_node@PAUHINSTANCE__@@PAX@std@@AAPAU12@@?$_Wrap_alloc@V?$allocator@U?$_List_node@PAUHINSTANCE__@@PAX@std@@@std@@@std@@QAEXPAPAU?$_List_node@PAUHINSTANCE__@@PAX@1@AAPAU21@@Z PROC ; std::_Wrap_alloc<std::allocator<std::_List_node<HINSTANCE__ *,void *> > >::construct<std::_List_node<HINSTANCE__ *,void *> *,std::_List_node<HINSTANCE__ *,void *> * &>, COMDAT
; _this$ = ecx

; 1095 : 		{	// construct _Ty(_Types...) at _Ptr

	npad	2
	push	ebp
	mov	ebp, esp

; 840  : 		::new ((void *)_Ptr) _Objty(_STD forward<_Types>(_Args)...);

	mov	ecx, DWORD PTR __Ptr$[ebp]
	test	ecx, ecx
	je	SHORT $LN13@construct
	mov	eax, DWORD PTR _<_Args_0>$[ebp]
	mov	eax, DWORD PTR [eax]
	mov	DWORD PTR [ecx], eax
$LN13@construct:

; 1096 : 		_Mytraits::construct(*this, _Ptr,
; 1097 : 			_STD forward<_Types>(_Args)...);
; 1098 : 		}

	pop	ebp
	ret	8
??$construct@PAU?$_List_node@PAUHINSTANCE__@@PAX@std@@AAPAU12@@?$_Wrap_alloc@V?$allocator@U?$_List_node@PAUHINSTANCE__@@PAX@std@@@std@@@std@@QAEXPAPAU?$_List_node@PAUHINSTANCE__@@PAX@1@AAPAU21@@Z ENDP ; std::_Wrap_alloc<std::allocator<std::_List_node<HINSTANCE__ *,void *> > >::construct<std::_List_node<HINSTANCE__ *,void *> *,std::_List_node<HINSTANCE__ *,void *> * &>
_TEXT	ENDS
; Function compile flags: /Ogtp
; File c:\program files (x86)\microsoft visual studio\2017\community\vc\tools\msvc\14.10.25017\include\xmemory0
;	COMDAT ??$construct@V?$_List_unchecked_const_iterator@V?$_List_val@U?$_List_simple_types@PAUHINSTANCE__@@@std@@@std@@U_Iterator_base0@2@@std@@V12@@?$_Wrap_alloc@U?$_Wrap_alloc@V?$allocator@V?$_List_unchecked_const_iterator@V?$_List_val@U?$_List_simple_types@PAUHINSTANCE__@@@std@@@std@@U_Iterator_base0@2@@std@@@std@@@std@@@std@@QAEXPAV?$_List_unchecked_const_iterator@V?$_List_val@U?$_List_simple_types@PAUHINSTANCE__@@@std@@@std@@U_Iterator_base0@2@@1@$$QAV21@@Z
_TEXT	SEGMENT
__Ptr$ = 8						; size = 4
_<_Args_0>$ = 12					; size = 4
??$construct@V?$_List_unchecked_const_iterator@V?$_List_val@U?$_List_simple_types@PAUHINSTANCE__@@@std@@@std@@U_Iterator_base0@2@@std@@V12@@?$_Wrap_alloc@U?$_Wrap_alloc@V?$allocator@V?$_List_unchecked_const_iterator@V?$_List_val@U?$_List_simple_types@PAUHINSTANCE__@@@std@@@std@@U_Iterator_base0@2@@std@@@std@@@std@@@std@@QAEXPAV?$_List_unchecked_const_iterator@V?$_List_val@U?$_List_simple_types@PAUHINSTANCE__@@@std@@@std@@U_Iterator_base0@2@@1@$$QAV21@@Z PROC ; std::_Wrap_alloc<std::_Wrap_alloc<std::allocator<std::_List_unchecked_const_iterator<std::_List_val<std::_List_simple_types<HINSTANCE__ *> >,std::_Iterator_base0> > > >::construct<std::_List_unchecked_const_iterator<std::_List_val<std::_List_simple_types<HINSTANCE__ *> >,std::_Iterator_base0>,std::_List_unchecked_const_iterator<std::_List_val<std::_List_simple_types<HINSTANCE__ *> >,std::_Iterator_base0> >, COMDAT
; _this$ = ecx

; 1095 : 		{	// construct _Ty(_Types...) at _Ptr

	npad	2
	push	ebp
	mov	ebp, esp

; 710  : 		::new (static_cast<void *>(_Ptr))

	mov	ecx, DWORD PTR __Ptr$[ebp]
	test	ecx, ecx
	je	SHORT $LN13@construct
	mov	eax, DWORD PTR _<_Args_0>$[ebp]
	mov	eax, DWORD PTR [eax]
	mov	DWORD PTR [ecx], eax
$LN13@construct:

; 1096 : 		_Mytraits::construct(*this, _Ptr,
; 1097 : 			_STD forward<_Types>(_Args)...);
; 1098 : 		}

	pop	ebp
	ret	8
??$construct@V?$_List_unchecked_const_iterator@V?$_List_val@U?$_List_simple_types@PAUHINSTANCE__@@@std@@@std@@U_Iterator_base0@2@@std@@V12@@?$_Wrap_alloc@U?$_Wrap_alloc@V?$allocator@V?$_List_unchecked_const_iterator@V?$_List_val@U?$_List_simple_types@PAUHINSTANCE__@@@std@@@std@@U_Iterator_base0@2@@std@@@std@@@std@@@std@@QAEXPAV?$_List_unchecked_const_iterator@V?$_List_val@U?$_List_simple_types@PAUHINSTANCE__@@@std@@@std@@U_Iterator_base0@2@@1@$$QAV21@@Z ENDP ; std::_Wrap_alloc<std::_Wrap_alloc<std::allocator<std::_List_unchecked_const_iterator<std::_List_val<std::_List_simple_types<HINSTANCE__ *> >,std::_Iterator_base0> > > >::construct<std::_List_unchecked_const_iterator<std::_List_val<std::_List_simple_types<HINSTANCE__ *> >,std::_Iterator_base0>,std::_List_unchecked_const_iterator<std::_List_val<std::_List_simple_types<HINSTANCE__ *> >,std::_Iterator_base0> >
_TEXT	ENDS
; Function compile flags: /Ogtp
; File c:\program files (x86)\microsoft visual studio\2017\community\vc\tools\msvc\14.10.25017\include\xmemory0
;	COMDAT ??$destroy@PAUHINSTANCE__@@@?$allocator@U?$_List_node@PAUHINSTANCE__@@PAX@std@@@std@@QAEXPAPAUHINSTANCE__@@@Z
_TEXT	SEGMENT
__Ptr$ = 8						; size = 4
